ARM GAS  /var/folders/sv/kgmgr77579zbf78p2zlhkdfr0000gn/T//cc5pHw1f.s 			page 1


   1              		.syntax unified
   2              		.cpu cortex-m4
   3              		.eabi_attribute 27, 1
   4              		.eabi_attribute 28, 1
   5              		.fpu fpv4-sp-d16
   6              		.eabi_attribute 20, 1
   7              		.eabi_attribute 21, 1
   8              		.eabi_attribute 23, 3
   9              		.eabi_attribute 24, 1
  10              		.eabi_attribute 25, 1
  11              		.eabi_attribute 26, 1
  12              		.eabi_attribute 30, 2
  13              		.eabi_attribute 34, 1
  14              		.eabi_attribute 18, 4
  15              		.thumb
  16              		.syntax unified
  17              		.file	"app.c"
  18              		.text
  19              	.Ltext0:
  20              		.cfi_sections	.debug_frame
  21              		.section	.text.app_get_configuration,"ax",%progbits
  22              		.align	2
  23              		.p2align 4,,15
  24              		.global	app_get_configuration
  25              		.thumb
  26              		.thumb_func
  27              		.type	app_get_configuration, %function
  28              	app_get_configuration:
  29              	.LFB256:
  30              		.file 1 "applications/app.c"
  31              		.loc 1 31 0
  32              		.cfi_startproc
  33              		@ args = 0, pretend = 0, frame = 0
  34              		@ frame_needed = 0, uses_anonymous_args = 0
  35              		@ link register save eliminated.
  36              		.loc 1 33 0
  37 0000 0048     		ldr	r0, .L2
  38 0002 7047     		bx	lr
  39              	.L3:
  40              		.align	2
  41              	.L2:
  42 0004 00000000 		.word	.LANCHOR0
  43              		.cfi_endproc
  44              	.LFE256:
  45              		.size	app_get_configuration, .-app_get_configuration
  46              		.section	.text.app_set_configuration,"ax",%progbits
  47              		.align	2
  48              		.p2align 4,,15
  49              		.global	app_set_configuration
  50              		.thumb
  51              		.thumb_func
  52              		.type	app_set_configuration, %function
  53              	app_set_configuration:
  54              	.LFB257:
  55              		.loc 1 41 0
  56              		.cfi_startproc
  57              		@ args = 0, pretend = 0, frame = 0
ARM GAS  /var/folders/sv/kgmgr77579zbf78p2zlhkdfr0000gn/T//cc5pHw1f.s 			page 2


  58              		@ frame_needed = 0, uses_anonymous_args = 0
  59              	.LVL0:
  60 0000 70B5     		push	{r4, r5, r6, lr}
  61              		.cfi_def_cfa_offset 16
  62              		.cfi_offset 4, -16
  63              		.cfi_offset 5, -12
  64              		.cfi_offset 6, -8
  65              		.cfi_offset 14, -4
  66              		.loc 1 41 0
  67 0002 0446     		mov	r4, r0
  68              		.loc 1 49 0
  69 0004 304E     		ldr	r6, .L19
  70              		.loc 1 42 0
  71 0006 3148     		ldr	r0, .L19+4
  72              	.LVL1:
  73 0008 2146     		mov	r1, r4
  74 000a C822     		movs	r2, #200
  75 000c FFF7FEFF 		bl	memcpy
  76              	.LVL2:
  77              		.loc 1 44 0
  78 0010 FFF7FEFF 		bl	app_ppm_stop
  79              	.LVL3:
  80              		.loc 1 45 0
  81 0014 FFF7FEFF 		bl	app_adc_stop
  82              	.LVL4:
  83              		.loc 1 46 0
  84 0018 FFF7FEFF 		bl	app_uartcomm_stop
  85              	.LVL5:
  86              		.loc 1 47 0
  87 001c FFF7FEFF 		bl	app_nunchuk_stop
  88              	.LVL6:
  89              		.loc 1 49 0
  90 0020 3378     		ldrb	r3, [r6]	@ zero_extendqisi2
  91 0022 33B3     		cbz	r3, .L18
  92              	.L5:
  93              		.loc 1 61 0
  94 0024 294D     		ldr	r5, .L19+4
  95              		.loc 1 54 0
  96 0026 207D     		ldrb	r0, [r4, #20]	@ zero_extendqisi2
  97 0028 FFF7FEFF 		bl	comm_can_set_baud
  98              	.LVL7:
  99              		.loc 1 58 0
 100 002c FFF7FEFF 		bl	app_custom_stop
 101              	.LVL8:
 102              		.loc 1 61 0
 103 0030 6B7D     		ldrb	r3, [r5, #21]	@ zero_extendqisi2
 104 0032 013B     		subs	r3, r3, #1
 105 0034 072B     		cmp	r3, #7
 106 0036 07D8     		bhi	.L6
 107 0038 DFE803F0 		tbb	[pc, r3]
 108              	.L8:
 109 003c 23       		.byte	(.L7-.L8)/2
 110 003d 26       		.byte	(.L9-.L8)/2
 111 003e 2A       		.byte	(.L10-.L8)/2
 112 003f 2F       		.byte	(.L11-.L8)/2
 113 0040 36       		.byte	(.L12-.L8)/2
 114 0041 04       		.byte	(.L13-.L8)/2
ARM GAS  /var/folders/sv/kgmgr77579zbf78p2zlhkdfr0000gn/T//cc5pHw1f.s 			page 3


 115 0042 3E       		.byte	(.L14-.L8)/2
 116 0043 1E       		.byte	(.L15-.L8)/2
 117              		.p2align 1
 118              	.L13:
 119              		.loc 1 88 0
 120 0044 FFF7FEFF 		bl	app_nunchuk_start
 121              	.LVL9:
 122              	.L6:
 123              		.loc 1 109 0
 124 0048 2148     		ldr	r0, .L19+8
 125 004a FFF7FEFF 		bl	app_ppm_configure
 126              	.LVL10:
 127              		.loc 1 110 0
 128 004e 2148     		ldr	r0, .L19+12
 129 0050 FFF7FEFF 		bl	app_adc_configure
 130              	.LVL11:
 131              		.loc 1 111 0
 132 0054 D5F89400 		ldr	r0, [r5, #148]
 133 0058 FFF7FEFF 		bl	app_uartcomm_configure
 134              	.LVL12:
 135              		.loc 1 112 0
 136 005c 1E48     		ldr	r0, .L19+16
 137 005e FFF7FEFF 		bl	app_nunchuk_configure
 138              	.LVL13:
 139              		.loc 1 115 0
 140 0062 1A48     		ldr	r0, .L19+4
 141 0064 FFF7FEFF 		bl	app_custom_configure
 142              	.LVL14:
 143              		.loc 1 118 0
 144 0068 1C48     		ldr	r0, .L19+20
 145              		.loc 1 119 0
 146 006a BDE87040 		pop	{r4, r5, r6, lr}
 147              		.cfi_remember_state
 148              		.cfi_restore 14
 149              		.cfi_restore 6
 150              		.cfi_restore 5
 151              		.cfi_restore 4
 152              		.cfi_def_cfa_offset 0
 153              	.LVL15:
 154              		.loc 1 118 0
 155 006e FFF7FEBF 		b	rfhelp_update_conf
 156              	.LVL16:
 157              	.L18:
 158              		.cfi_restore_state
 159              		.loc 1 50 0
 160 0072 FFF7FEFF 		bl	nrf_driver_stop
 161              	.LVL17:
 162 0076 D5E7     		b	.L5
 163              	.L15:
 164              		.loc 1 100 0
 165 0078 FFF7FEFF 		bl	hw_stop_i2c
 166              	.LVL18:
 167              		.loc 1 101 0
 168 007c FFF7FEFF 		bl	app_custom_start
 169              	.LVL19:
 170              		.loc 1 103 0
 171 0080 E2E7     		b	.L6
ARM GAS  /var/folders/sv/kgmgr77579zbf78p2zlhkdfr0000gn/T//cc5pHw1f.s 			page 4


 172              	.L7:
 173              		.loc 1 63 0
 174 0082 FFF7FEFF 		bl	app_ppm_start
 175              	.LVL20:
 176              		.loc 1 64 0
 177 0086 DFE7     		b	.L6
 178              	.L9:
 179              		.loc 1 67 0
 180 0088 0120     		movs	r0, #1
 181 008a FFF7FEFF 		bl	app_adc_start
 182              	.LVL21:
 183              		.loc 1 68 0
 184 008e DBE7     		b	.L6
 185              	.L10:
 186              		.loc 1 71 0
 187 0090 FFF7FEFF 		bl	hw_stop_i2c
 188              	.LVL22:
 189              		.loc 1 72 0
 190 0094 FFF7FEFF 		bl	app_uartcomm_start
 191              	.LVL23:
 192              		.loc 1 73 0
 193 0098 D6E7     		b	.L6
 194              	.L11:
 195              		.loc 1 76 0
 196 009a FFF7FEFF 		bl	hw_stop_i2c
 197              	.LVL24:
 198              		.loc 1 77 0
 199 009e FFF7FEFF 		bl	app_ppm_start
 200              	.LVL25:
 201              		.loc 1 78 0
 202 00a2 FFF7FEFF 		bl	app_uartcomm_start
 203              	.LVL26:
 204              		.loc 1 79 0
 205 00a6 CFE7     		b	.L6
 206              	.L12:
 207              		.loc 1 82 0
 208 00a8 FFF7FEFF 		bl	hw_stop_i2c
 209              	.LVL27:
 210              		.loc 1 83 0
 211 00ac 0020     		movs	r0, #0
 212 00ae FFF7FEFF 		bl	app_adc_start
 213              	.LVL28:
 214              		.loc 1 84 0
 215 00b2 FFF7FEFF 		bl	app_uartcomm_start
 216              	.LVL29:
 217              		.loc 1 85 0
 218 00b6 C7E7     		b	.L6
 219              	.L14:
 220              		.loc 1 92 0
 221 00b8 3378     		ldrb	r3, [r6]	@ zero_extendqisi2
 222 00ba 002B     		cmp	r3, #0
 223 00bc C4D1     		bne	.L6
 224              		.loc 1 93 0
 225 00be FFF7FEFF 		bl	nrf_driver_init
 226              	.LVL30:
 227              		.loc 1 94 0
 228 00c2 FFF7FEFF 		bl	rfhelp_restart
ARM GAS  /var/folders/sv/kgmgr77579zbf78p2zlhkdfr0000gn/T//cc5pHw1f.s 			page 5


 229              	.LVL31:
 230 00c6 BFE7     		b	.L6
 231              	.L20:
 232              		.align	2
 233              	.L19:
 234 00c8 00000000 		.word	conf_general_permanent_nrf_found
 235 00cc 00000000 		.word	.LANCHOR0
 236 00d0 18000000 		.word	.LANCHOR0+24
 237 00d4 50000000 		.word	.LANCHOR0+80
 238 00d8 98000000 		.word	.LANCHOR0+152
 239 00dc BC000000 		.word	.LANCHOR0+188
 240              		.cfi_endproc
 241              	.LFE257:
 242              		.size	app_set_configuration, .-app_set_configuration
 243              		.section	.bss.appconf,"aw",%nobits
 244              		.align	2
 245              		.set	.LANCHOR0,. + 0
 246              		.type	appconf, %object
 247              		.size	appconf, 200
 248              	appconf:
 249 0000 00000000 		.space	200
 249      00000000 
 249      00000000 
 249      00000000 
 249      00000000 
 250              		.text
 251              	.Letext0:
 252              		.file 2 "/usr/local/Cellar/gcc-arm-none-eabi/20160928/arm-none-eabi/include/machine/_default_types
 253              		.file 3 "/usr/local/Cellar/gcc-arm-none-eabi/20160928/arm-none-eabi/include/sys/_stdint.h"
 254              		.file 4 "/usr/local/Cellar/gcc-arm-none-eabi/20160928/lib/gcc/arm-none-eabi/5.4.1/include/stddef.h
 255              		.file 5 "ChibiOS_3.0.2/os/rt/ports/ARMCMx/compilers/GCC/chtypes.h"
 256              		.file 6 "ChibiOS_3.0.2/os/rt/include/chsystypes.h"
 257              		.file 7 "ChibiOS_3.0.2/os/rt/include/chschd.h"
 258              		.file 8 "ChibiOS_3.0.2/os/rt/ports/ARMCMx/chcore.h"
 259              		.file 9 "ChibiOS_3.0.2/os/rt/ports/ARMCMx/chcore_v7m.h"
 260              		.file 10 "ChibiOS_3.0.2/os/rt/include/chtm.h"
 261              		.file 11 "ChibiOS_3.0.2/os/rt/include/chsem.h"
 262              		.file 12 "ChibiOS_3.0.2/os/rt/include/chmtx.h"
 263              		.file 13 "./datatypes.h"
 264              		.file 14 "ChibiOS_3.0.2/os/ext/CMSIS/include/core_cm4.h"
 265              		.file 15 "./conf_general.h"
 266              		.file 16 "applications/app.h"
 267              		.file 17 "./comm_can.h"
 268              		.file 18 "nrf/rfhelp.h"
 269              		.file 19 "nrf/nrf_driver.h"
 270              		.file 20 "hwconf/hw.h"
 271              		.section	.debug_info,"",%progbits
 272              	.Ldebug_info0:
 273 0000 98100000 		.4byte	0x1098
 274 0004 0400     		.2byte	0x4
 275 0006 00000000 		.4byte	.Ldebug_abbrev0
 276 000a 04       		.byte	0x4
 277 000b 01       		.uleb128 0x1
 278 000c F6040000 		.4byte	.LASF260
 279 0010 0C       		.byte	0xc
 280 0011 280F0000 		.4byte	.LASF261
 281 0015 3C0E0000 		.4byte	.LASF262
ARM GAS  /var/folders/sv/kgmgr77579zbf78p2zlhkdfr0000gn/T//cc5pHw1f.s 			page 6


 282 0019 00000000 		.4byte	.Ldebug_ranges0+0
 283 001d 00000000 		.4byte	0
 284 0021 00000000 		.4byte	.Ldebug_line0
 285 0025 02       		.uleb128 0x2
 286 0026 01       		.byte	0x1
 287 0027 06       		.byte	0x6
 288 0028 6F0E0000 		.4byte	.LASF0
 289 002c 03       		.uleb128 0x3
 290 002d 830B0000 		.4byte	.LASF4
 291 0031 02       		.byte	0x2
 292 0032 1D       		.byte	0x1d
 293 0033 37000000 		.4byte	0x37
 294 0037 02       		.uleb128 0x2
 295 0038 01       		.byte	0x1
 296 0039 08       		.byte	0x8
 297 003a FF0C0000 		.4byte	.LASF1
 298 003e 02       		.uleb128 0x2
 299 003f 02       		.byte	0x2
 300 0040 05       		.byte	0x5
 301 0041 8F0A0000 		.4byte	.LASF2
 302 0045 02       		.uleb128 0x2
 303 0046 02       		.byte	0x2
 304 0047 07       		.byte	0x7
 305 0048 C9090000 		.4byte	.LASF3
 306 004c 03       		.uleb128 0x3
 307 004d 4A010000 		.4byte	.LASF5
 308 0051 02       		.byte	0x2
 309 0052 3F       		.byte	0x3f
 310 0053 57000000 		.4byte	0x57
 311 0057 02       		.uleb128 0x2
 312 0058 04       		.byte	0x4
 313 0059 05       		.byte	0x5
 314 005a C80A0000 		.4byte	.LASF6
 315 005e 03       		.uleb128 0x3
 316 005f 2B0D0000 		.4byte	.LASF7
 317 0063 02       		.byte	0x2
 318 0064 41       		.byte	0x41
 319 0065 69000000 		.4byte	0x69
 320 0069 02       		.uleb128 0x2
 321 006a 04       		.byte	0x4
 322 006b 07       		.byte	0x7
 323 006c 2C0C0000 		.4byte	.LASF8
 324 0070 02       		.uleb128 0x2
 325 0071 08       		.byte	0x8
 326 0072 05       		.byte	0x5
 327 0073 56070000 		.4byte	.LASF9
 328 0077 03       		.uleb128 0x3
 329 0078 3B060000 		.4byte	.LASF10
 330 007c 02       		.byte	0x2
 331 007d 5B       		.byte	0x5b
 332 007e 82000000 		.4byte	0x82
 333 0082 02       		.uleb128 0x2
 334 0083 08       		.byte	0x8
 335 0084 07       		.byte	0x7
 336 0085 AD030000 		.4byte	.LASF11
 337 0089 04       		.uleb128 0x4
 338 008a 04       		.byte	0x4
ARM GAS  /var/folders/sv/kgmgr77579zbf78p2zlhkdfr0000gn/T//cc5pHw1f.s 			page 7


 339 008b 05       		.byte	0x5
 340 008c 696E7400 		.ascii	"int\000"
 341 0090 02       		.uleb128 0x2
 342 0091 04       		.byte	0x4
 343 0092 07       		.byte	0x7
 344 0093 C60B0000 		.4byte	.LASF12
 345 0097 03       		.uleb128 0x3
 346 0098 FC060000 		.4byte	.LASF13
 347 009c 03       		.byte	0x3
 348 009d 18       		.byte	0x18
 349 009e 2C000000 		.4byte	0x2c
 350 00a2 03       		.uleb128 0x3
 351 00a3 5D0C0000 		.4byte	.LASF14
 352 00a7 03       		.byte	0x3
 353 00a8 2C       		.byte	0x2c
 354 00a9 4C000000 		.4byte	0x4c
 355 00ad 03       		.uleb128 0x3
 356 00ae C3020000 		.4byte	.LASF15
 357 00b2 03       		.byte	0x3
 358 00b3 30       		.byte	0x30
 359 00b4 5E000000 		.4byte	0x5e
 360 00b8 03       		.uleb128 0x3
 361 00b9 4F0B0000 		.4byte	.LASF16
 362 00bd 03       		.byte	0x3
 363 00be 3C       		.byte	0x3c
 364 00bf 77000000 		.4byte	0x77
 365 00c3 03       		.uleb128 0x3
 366 00c4 9F040000 		.4byte	.LASF17
 367 00c8 04       		.byte	0x4
 368 00c9 D8       		.byte	0xd8
 369 00ca 90000000 		.4byte	0x90
 370 00ce 05       		.uleb128 0x5
 371 00cf A2000000 		.4byte	0xa2
 372 00d3 03       		.uleb128 0x3
 373 00d4 1F0A0000 		.4byte	.LASF18
 374 00d8 05       		.byte	0x5
 375 00d9 45       		.byte	0x45
 376 00da AD000000 		.4byte	0xad
 377 00de 03       		.uleb128 0x3
 378 00df 9D090000 		.4byte	.LASF19
 379 00e3 05       		.byte	0x5
 380 00e4 48       		.byte	0x48
 381 00e5 97000000 		.4byte	0x97
 382 00e9 03       		.uleb128 0x3
 383 00ea 1E070000 		.4byte	.LASF20
 384 00ee 05       		.byte	0x5
 385 00ef 49       		.byte	0x49
 386 00f0 97000000 		.4byte	0x97
 387 00f4 03       		.uleb128 0x3
 388 00f5 240C0000 		.4byte	.LASF21
 389 00f9 05       		.byte	0x5
 390 00fa 4A       		.byte	0x4a
 391 00fb 97000000 		.4byte	0x97
 392 00ff 03       		.uleb128 0x3
 393 0100 64090000 		.4byte	.LASF22
 394 0104 05       		.byte	0x5
 395 0105 4B       		.byte	0x4b
ARM GAS  /var/folders/sv/kgmgr77579zbf78p2zlhkdfr0000gn/T//cc5pHw1f.s 			page 8


 396 0106 97000000 		.4byte	0x97
 397 010a 03       		.uleb128 0x3
 398 010b 94030000 		.4byte	.LASF23
 399 010f 05       		.byte	0x5
 400 0110 4C       		.byte	0x4c
 401 0111 AD000000 		.4byte	0xad
 402 0115 03       		.uleb128 0x3
 403 0116 A9080000 		.4byte	.LASF24
 404 011a 05       		.byte	0x5
 405 011b 4D       		.byte	0x4d
 406 011c A2000000 		.4byte	0xa2
 407 0120 03       		.uleb128 0x3
 408 0121 06030000 		.4byte	.LASF25
 409 0125 05       		.byte	0x5
 410 0126 4F       		.byte	0x4f
 411 0127 AD000000 		.4byte	0xad
 412 012b 03       		.uleb128 0x3
 413 012c 06040000 		.4byte	.LASF26
 414 0130 05       		.byte	0x5
 415 0131 51       		.byte	0x51
 416 0132 A2000000 		.4byte	0xa2
 417 0136 03       		.uleb128 0x3
 418 0137 C1000000 		.4byte	.LASF27
 419 013b 06       		.byte	0x6
 420 013c 33       		.byte	0x33
 421 013d AD000000 		.4byte	0xad
 422 0141 03       		.uleb128 0x3
 423 0142 70040000 		.4byte	.LASF28
 424 0146 06       		.byte	0x6
 425 0147 3F       		.byte	0x3f
 426 0148 4C010000 		.4byte	0x14c
 427 014c 06       		.uleb128 0x6
 428 014d D2070000 		.4byte	.LASF50
 429 0151 48       		.byte	0x48
 430 0152 07       		.byte	0x7
 431 0153 C2       		.byte	0xc2
 432 0154 51020000 		.4byte	0x251
 433 0158 07       		.uleb128 0x7
 434 0159 480B0000 		.4byte	.LASF29
 435 015d 07       		.byte	0x7
 436 015e C3       		.byte	0xc3
 437 015f 5C020000 		.4byte	0x25c
 438 0163 00       		.byte	0
 439 0164 07       		.uleb128 0x7
 440 0165 140C0000 		.4byte	.LASF30
 441 0169 07       		.byte	0x7
 442 016a C5       		.byte	0xc5
 443 016b 5C020000 		.4byte	0x25c
 444 016f 04       		.byte	0x4
 445 0170 07       		.uleb128 0x7
 446 0171 79000000 		.4byte	.LASF31
 447 0175 07       		.byte	0x7
 448 0176 C7       		.byte	0xc7
 449 0177 0A010000 		.4byte	0x10a
 450 017b 08       		.byte	0x8
 451 017c 07       		.uleb128 0x7
 452 017d 580B0000 		.4byte	.LASF32
ARM GAS  /var/folders/sv/kgmgr77579zbf78p2zlhkdfr0000gn/T//cc5pHw1f.s 			page 9


 453 0181 07       		.byte	0x7
 454 0182 C8       		.byte	0xc8
 455 0183 8C040000 		.4byte	0x48c
 456 0187 0C       		.byte	0xc
 457 0188 07       		.uleb128 0x7
 458 0189 F70F0000 		.4byte	.LASF33
 459 018d 07       		.byte	0x7
 460 018e CA       		.byte	0xca
 461 018f 5C020000 		.4byte	0x25c
 462 0193 10       		.byte	0x10
 463 0194 07       		.uleb128 0x7
 464 0195 64070000 		.4byte	.LASF34
 465 0199 07       		.byte	0x7
 466 019a CB       		.byte	0xcb
 467 019b 5C020000 		.4byte	0x25c
 468 019f 14       		.byte	0x14
 469 01a0 07       		.uleb128 0x7
 470 01a1 A3060000 		.4byte	.LASF35
 471 01a5 07       		.byte	0x7
 472 01a6 D2       		.byte	0xd2
 473 01a7 D1060000 		.4byte	0x6d1
 474 01ab 18       		.byte	0x18
 475 01ac 07       		.uleb128 0x7
 476 01ad 6C070000 		.4byte	.LASF36
 477 01b1 07       		.byte	0x7
 478 01b2 DD       		.byte	0xdd
 479 01b3 E9000000 		.4byte	0xe9
 480 01b7 1C       		.byte	0x1c
 481 01b8 07       		.uleb128 0x7
 482 01b9 E6080000 		.4byte	.LASF37
 483 01bd 07       		.byte	0x7
 484 01be E1       		.byte	0xe1
 485 01bf DE000000 		.4byte	0xde
 486 01c3 1D       		.byte	0x1d
 487 01c4 07       		.uleb128 0x7
 488 01c5 4C0D0000 		.4byte	.LASF38
 489 01c9 07       		.byte	0x7
 490 01ca E6       		.byte	0xe6
 491 01cb F4000000 		.4byte	0xf4
 492 01cf 1E       		.byte	0x1e
 493 01d0 07       		.uleb128 0x7
 494 01d1 8A0D0000 		.4byte	.LASF39
 495 01d5 07       		.byte	0x7
 496 01d6 EC       		.byte	0xec
 497 01d7 FF000000 		.4byte	0xff
 498 01db 1F       		.byte	0x1f
 499 01dc 07       		.uleb128 0x7
 500 01dd 5F000000 		.4byte	.LASF40
 501 01e1 07       		.byte	0x7
 502 01e2 F3       		.byte	0xf3
 503 01e3 E3060000 		.4byte	0x6e3
 504 01e7 20       		.byte	0x20
 505 01e8 08       		.uleb128 0x8
 506 01e9 705F7500 		.ascii	"p_u\000"
 507 01ed 07       		.byte	0x7
 508 01ee 3101     		.2byte	0x131
 509 01f0 0C060000 		.4byte	0x60c
ARM GAS  /var/folders/sv/kgmgr77579zbf78p2zlhkdfr0000gn/T//cc5pHw1f.s 			page 10


 510 01f4 24       		.byte	0x24
 511 01f5 09       		.uleb128 0x9
 512 01f6 35010000 		.4byte	.LASF41
 513 01fa 07       		.byte	0x7
 514 01fb 3601     		.2byte	0x136
 515 01fd 62020000 		.4byte	0x262
 516 0201 28       		.byte	0x28
 517 0202 09       		.uleb128 0x9
 518 0203 F4000000 		.4byte	.LASF42
 519 0207 07       		.byte	0x7
 520 0208 3C01     		.2byte	0x13c
 521 020a 86020000 		.4byte	0x286
 522 020e 2C       		.byte	0x2c
 523 020f 09       		.uleb128 0x9
 524 0210 97090000 		.4byte	.LASF43
 525 0214 07       		.byte	0x7
 526 0215 4001     		.2byte	0x140
 527 0217 15010000 		.4byte	0x115
 528 021b 34       		.byte	0x34
 529 021c 09       		.uleb128 0x9
 530 021d B50A0000 		.4byte	.LASF44
 531 0221 07       		.byte	0x7
 532 0222 4601     		.2byte	0x146
 533 0224 20010000 		.4byte	0x120
 534 0228 38       		.byte	0x38
 535 0229 09       		.uleb128 0x9
 536 022a BF070000 		.4byte	.LASF45
 537 022e 07       		.byte	0x7
 538 022f 4D01     		.2byte	0x14d
 539 0231 CB060000 		.4byte	0x6cb
 540 0235 3C       		.byte	0x3c
 541 0236 09       		.uleb128 0x9
 542 0237 AF080000 		.4byte	.LASF46
 543 023b 07       		.byte	0x7
 544 023c 5101     		.2byte	0x151
 545 023e 0A010000 		.4byte	0x10a
 546 0242 40       		.byte	0x40
 547 0243 09       		.uleb128 0x9
 548 0244 B7070000 		.4byte	.LASF47
 549 0248 07       		.byte	0x7
 550 0249 5801     		.2byte	0x158
 551 024b 39030000 		.4byte	0x339
 552 024f 44       		.byte	0x44
 553 0250 00       		.byte	0
 554 0251 03       		.uleb128 0x3
 555 0252 FB090000 		.4byte	.LASF48
 556 0256 06       		.byte	0x6
 557 0257 44       		.byte	0x44
 558 0258 5C020000 		.4byte	0x25c
 559 025c 0A       		.uleb128 0xa
 560 025d 04       		.byte	0x4
 561 025e 41010000 		.4byte	0x141
 562 0262 03       		.uleb128 0x3
 563 0263 26010000 		.4byte	.LASF49
 564 0267 06       		.byte	0x6
 565 0268 49       		.byte	0x49
 566 0269 6D020000 		.4byte	0x26d
ARM GAS  /var/folders/sv/kgmgr77579zbf78p2zlhkdfr0000gn/T//cc5pHw1f.s 			page 11


 567 026d 06       		.uleb128 0x6
 568 026e 00000000 		.4byte	.LASF51
 569 0272 04       		.byte	0x4
 570 0273 07       		.byte	0x7
 571 0274 B0       		.byte	0xb0
 572 0275 86020000 		.4byte	0x286
 573 0279 07       		.uleb128 0x7
 574 027a 480B0000 		.4byte	.LASF29
 575 027e 07       		.byte	0x7
 576 027f B1       		.byte	0xb1
 577 0280 5C020000 		.4byte	0x25c
 578 0284 00       		.byte	0
 579 0285 00       		.byte	0
 580 0286 03       		.uleb128 0x3
 581 0287 10000000 		.4byte	.LASF52
 582 028b 06       		.byte	0x6
 583 028c 50       		.byte	0x50
 584 028d 91020000 		.4byte	0x291
 585 0291 06       		.uleb128 0x6
 586 0292 2C080000 		.4byte	.LASF53
 587 0296 08       		.byte	0x8
 588 0297 07       		.byte	0x7
 589 0298 B7       		.byte	0xb7
 590 0299 B6020000 		.4byte	0x2b6
 591 029d 07       		.uleb128 0x7
 592 029e 480B0000 		.4byte	.LASF29
 593 02a2 07       		.byte	0x7
 594 02a3 B8       		.byte	0xb8
 595 02a4 5C020000 		.4byte	0x25c
 596 02a8 00       		.byte	0
 597 02a9 07       		.uleb128 0x7
 598 02aa 140C0000 		.4byte	.LASF30
 599 02ae 07       		.byte	0x7
 600 02af B9       		.byte	0xb9
 601 02b0 5C020000 		.4byte	0x25c
 602 02b4 04       		.byte	0x4
 603 02b5 00       		.byte	0
 604 02b6 03       		.uleb128 0x3
 605 02b7 460C0000 		.4byte	.LASF54
 606 02bb 06       		.byte	0x6
 607 02bc 57       		.byte	0x57
 608 02bd C1020000 		.4byte	0x2c1
 609 02c1 0B       		.uleb128 0xb
 610 02c2 0D020000 		.4byte	.LASF55
 611 02c6 1C       		.byte	0x1c
 612 02c7 07       		.byte	0x7
 613 02c8 9001     		.2byte	0x190
 614 02ca 1D030000 		.4byte	0x31d
 615 02ce 09       		.uleb128 0x9
 616 02cf 8A080000 		.4byte	.LASF56
 617 02d3 07       		.byte	0x7
 618 02d4 9101     		.2byte	0x191
 619 02d6 86020000 		.4byte	0x286
 620 02da 00       		.byte	0
 621 02db 09       		.uleb128 0x9
 622 02dc 12030000 		.4byte	.LASF57
 623 02e0 07       		.byte	0x7
ARM GAS  /var/folders/sv/kgmgr77579zbf78p2zlhkdfr0000gn/T//cc5pHw1f.s 			page 12


 624 02e1 9201     		.2byte	0x192
 625 02e3 0A010000 		.4byte	0x10a
 626 02e7 08       		.byte	0x8
 627 02e8 09       		.uleb128 0x9
 628 02e9 AF0E0000 		.4byte	.LASF58
 629 02ed 07       		.byte	0x7
 630 02ee 9401     		.2byte	0x194
 631 02f0 8C040000 		.4byte	0x48c
 632 02f4 0C       		.byte	0xc
 633 02f5 09       		.uleb128 0x9
 634 02f6 04070000 		.4byte	.LASF59
 635 02fa 07       		.byte	0x7
 636 02fb 9701     		.2byte	0x197
 637 02fd 5C020000 		.4byte	0x25c
 638 0301 10       		.byte	0x10
 639 0302 09       		.uleb128 0x9
 640 0303 6E090000 		.4byte	.LASF60
 641 0307 07       		.byte	0x7
 642 0308 9801     		.2byte	0x198
 643 030a 5C020000 		.4byte	0x25c
 644 030e 14       		.byte	0x14
 645 030f 09       		.uleb128 0x9
 646 0310 990A0000 		.4byte	.LASF61
 647 0314 07       		.byte	0x7
 648 0315 9B01     		.2byte	0x19b
 649 0317 5C020000 		.4byte	0x25c
 650 031b 18       		.byte	0x18
 651 031c 00       		.byte	0
 652 031d 03       		.uleb128 0x3
 653 031e AD040000 		.4byte	.LASF62
 654 0322 06       		.byte	0x6
 655 0323 5C       		.byte	0x5c
 656 0324 28030000 		.4byte	0x328
 657 0328 0A       		.uleb128 0xa
 658 0329 04       		.byte	0x4
 659 032a 2E030000 		.4byte	0x32e
 660 032e 0C       		.uleb128 0xc
 661 032f 39030000 		.4byte	0x339
 662 0333 0D       		.uleb128 0xd
 663 0334 39030000 		.4byte	0x339
 664 0338 00       		.byte	0
 665 0339 0E       		.uleb128 0xe
 666 033a 04       		.byte	0x4
 667 033b 03       		.uleb128 0x3
 668 033c EE080000 		.4byte	.LASF63
 669 0340 06       		.byte	0x6
 670 0341 61       		.byte	0x61
 671 0342 46030000 		.4byte	0x346
 672 0346 0B       		.uleb128 0xb
 673 0347 9C030000 		.4byte	.LASF64
 674 034b 14       		.byte	0x14
 675 034c 07       		.byte	0x7
 676 034d 6B01     		.2byte	0x16b
 677 034f 95030000 		.4byte	0x395
 678 0353 09       		.uleb128 0x9
 679 0354 BE0D0000 		.4byte	.LASF65
 680 0358 07       		.byte	0x7
ARM GAS  /var/folders/sv/kgmgr77579zbf78p2zlhkdfr0000gn/T//cc5pHw1f.s 			page 13


 681 0359 6C01     		.2byte	0x16c
 682 035b E8060000 		.4byte	0x6e8
 683 035f 00       		.byte	0
 684 0360 09       		.uleb128 0x9
 685 0361 200F0000 		.4byte	.LASF66
 686 0365 07       		.byte	0x7
 687 0366 6D01     		.2byte	0x16d
 688 0368 E8060000 		.4byte	0x6e8
 689 036c 04       		.byte	0x4
 690 036d 09       		.uleb128 0x9
 691 036e EB060000 		.4byte	.LASF67
 692 0372 07       		.byte	0x7
 693 0373 6E01     		.2byte	0x16e
 694 0375 36010000 		.4byte	0x136
 695 0379 08       		.byte	0x8
 696 037a 09       		.uleb128 0x9
 697 037b 180F0000 		.4byte	.LASF68
 698 037f 07       		.byte	0x7
 699 0380 6F01     		.2byte	0x16f
 700 0382 1D030000 		.4byte	0x31d
 701 0386 0C       		.byte	0xc
 702 0387 09       		.uleb128 0x9
 703 0388 2F030000 		.4byte	.LASF69
 704 038c 07       		.byte	0x7
 705 038d 7101     		.2byte	0x171
 706 038f 39030000 		.4byte	0x339
 707 0393 10       		.byte	0x10
 708 0394 00       		.byte	0
 709 0395 03       		.uleb128 0x3
 710 0396 360D0000 		.4byte	.LASF70
 711 039a 06       		.byte	0x6
 712 039b 66       		.byte	0x66
 713 039c A0030000 		.4byte	0x3a0
 714 03a0 0B       		.uleb128 0xb
 715 03a1 59040000 		.4byte	.LASF71
 716 03a5 10       		.byte	0x10
 717 03a6 07       		.byte	0x7
 718 03a7 7B01     		.2byte	0x17b
 719 03a9 E2030000 		.4byte	0x3e2
 720 03ad 09       		.uleb128 0x9
 721 03ae BE0D0000 		.4byte	.LASF65
 722 03b2 07       		.byte	0x7
 723 03b3 7C01     		.2byte	0x17c
 724 03b5 E8060000 		.4byte	0x6e8
 725 03b9 00       		.byte	0
 726 03ba 09       		.uleb128 0x9
 727 03bb 200F0000 		.4byte	.LASF66
 728 03bf 07       		.byte	0x7
 729 03c0 7E01     		.2byte	0x17e
 730 03c2 E8060000 		.4byte	0x6e8
 731 03c6 04       		.byte	0x4
 732 03c7 09       		.uleb128 0x9
 733 03c8 EB060000 		.4byte	.LASF67
 734 03cc 07       		.byte	0x7
 735 03cd 8001     		.2byte	0x180
 736 03cf 36010000 		.4byte	0x136
 737 03d3 08       		.byte	0x8
ARM GAS  /var/folders/sv/kgmgr77579zbf78p2zlhkdfr0000gn/T//cc5pHw1f.s 			page 14


 738 03d4 09       		.uleb128 0x9
 739 03d5 E9000000 		.4byte	.LASF72
 740 03d9 07       		.byte	0x7
 741 03da 8201     		.2byte	0x182
 742 03dc E3060000 		.4byte	0x6e3
 743 03e0 0C       		.byte	0xc
 744 03e1 00       		.byte	0
 745 03e2 03       		.uleb128 0x3
 746 03e3 15080000 		.4byte	.LASF73
 747 03e7 06       		.byte	0x6
 748 03e8 6B       		.byte	0x6b
 749 03e9 ED030000 		.4byte	0x3ed
 750 03ed 0B       		.uleb128 0xb
 751 03ee 9D020000 		.4byte	.LASF74
 752 03f2 04       		.byte	0x4
 753 03f3 07       		.byte	0x7
 754 03f4 A201     		.2byte	0x1a2
 755 03f6 08040000 		.4byte	0x408
 756 03fa 09       		.uleb128 0x9
 757 03fb 530D0000 		.4byte	.LASF75
 758 03ff 07       		.byte	0x7
 759 0400 AA01     		.2byte	0x1aa
 760 0402 EE060000 		.4byte	0x6ee
 761 0406 00       		.byte	0
 762 0407 00       		.byte	0
 763 0408 03       		.uleb128 0x3
 764 0409 FF0D0000 		.4byte	.LASF76
 765 040d 06       		.byte	0x6
 766 040e 70       		.byte	0x70
 767 040f 13040000 		.4byte	0x413
 768 0413 0F       		.uleb128 0xf
 769 0414 180B0000 		.4byte	.LASF77
 770 0418 5802     		.2byte	0x258
 771 041a 07       		.byte	0x7
 772 041b C201     		.2byte	0x1c2
 773 041d 6F040000 		.4byte	0x46f
 774 0421 09       		.uleb128 0x9
 775 0422 5E0B0000 		.4byte	.LASF78
 776 0426 07       		.byte	0x7
 777 0427 C601     		.2byte	0x1c6
 778 0429 B6020000 		.4byte	0x2b6
 779 042d 00       		.byte	0
 780 042e 09       		.uleb128 0x9
 781 042f 6D010000 		.4byte	.LASF79
 782 0433 07       		.byte	0x7
 783 0434 CA01     		.2byte	0x1ca
 784 0436 95030000 		.4byte	0x395
 785 043a 1C       		.byte	0x1c
 786 043b 08       		.uleb128 0x8
 787 043c 64626700 		.ascii	"dbg\000"
 788 0440 07       		.byte	0x7
 789 0441 CE01     		.2byte	0x1ce
 790 0443 E2030000 		.4byte	0x3e2
 791 0447 2C       		.byte	0x2c
 792 0448 09       		.uleb128 0x9
 793 0449 AF090000 		.4byte	.LASF80
 794 044d 07       		.byte	0x7
ARM GAS  /var/folders/sv/kgmgr77579zbf78p2zlhkdfr0000gn/T//cc5pHw1f.s 			page 15


 795 044e D201     		.2byte	0x1d2
 796 0450 41010000 		.4byte	0x141
 797 0454 30       		.byte	0x30
 798 0455 08       		.uleb128 0x8
 799 0456 746D00   		.ascii	"tm\000"
 800 0459 07       		.byte	0x7
 801 045a D701     		.2byte	0x1d7
 802 045c 01060000 		.4byte	0x601
 803 0460 78       		.byte	0x78
 804 0461 09       		.uleb128 0x9
 805 0462 650C0000 		.4byte	.LASF81
 806 0466 07       		.byte	0x7
 807 0467 E301     		.2byte	0x1e3
 808 0469 F3060000 		.4byte	0x6f3
 809 046d 80       		.byte	0x80
 810 046e 00       		.byte	0
 811 046f 02       		.uleb128 0x2
 812 0470 04       		.byte	0x4
 813 0471 07       		.byte	0x7
 814 0472 1B0C0000 		.4byte	.LASF82
 815 0476 03       		.uleb128 0x3
 816 0477 70000000 		.4byte	.LASF83
 817 047b 08       		.byte	0x8
 818 047c 65       		.byte	0x65
 819 047d 39030000 		.4byte	0x339
 820 0481 03       		.uleb128 0x3
 821 0482 CB0E0000 		.4byte	.LASF84
 822 0486 08       		.byte	0x8
 823 0487 6D       		.byte	0x6d
 824 0488 B8000000 		.4byte	0xb8
 825 048c 06       		.uleb128 0x6
 826 048d DE080000 		.4byte	.LASF85
 827 0491 04       		.byte	0x4
 828 0492 08       		.byte	0x8
 829 0493 89       		.byte	0x89
 830 0494 A5040000 		.4byte	0x4a5
 831 0498 10       		.uleb128 0x10
 832 0499 72313300 		.ascii	"r13\000"
 833 049d 08       		.byte	0x8
 834 049e 8A       		.byte	0x8a
 835 049f E6050000 		.4byte	0x5e6
 836 04a3 00       		.byte	0
 837 04a4 00       		.byte	0
 838 04a5 06       		.uleb128 0x6
 839 04a6 D10A0000 		.4byte	.LASF86
 840 04aa 64       		.byte	0x64
 841 04ab 09       		.byte	0x9
 842 04ac F4       		.byte	0xf4
 843 04ad E6050000 		.4byte	0x5e6
 844 04b1 10       		.uleb128 0x10
 845 04b2 73313600 		.ascii	"s16\000"
 846 04b6 09       		.byte	0x9
 847 04b7 F6       		.byte	0xf6
 848 04b8 76040000 		.4byte	0x476
 849 04bc 00       		.byte	0
 850 04bd 10       		.uleb128 0x10
 851 04be 73313700 		.ascii	"s17\000"
ARM GAS  /var/folders/sv/kgmgr77579zbf78p2zlhkdfr0000gn/T//cc5pHw1f.s 			page 16


 852 04c2 09       		.byte	0x9
 853 04c3 F7       		.byte	0xf7
 854 04c4 76040000 		.4byte	0x476
 855 04c8 04       		.byte	0x4
 856 04c9 10       		.uleb128 0x10
 857 04ca 73313800 		.ascii	"s18\000"
 858 04ce 09       		.byte	0x9
 859 04cf F8       		.byte	0xf8
 860 04d0 76040000 		.4byte	0x476
 861 04d4 08       		.byte	0x8
 862 04d5 10       		.uleb128 0x10
 863 04d6 73313900 		.ascii	"s19\000"
 864 04da 09       		.byte	0x9
 865 04db F9       		.byte	0xf9
 866 04dc 76040000 		.4byte	0x476
 867 04e0 0C       		.byte	0xc
 868 04e1 10       		.uleb128 0x10
 869 04e2 73323000 		.ascii	"s20\000"
 870 04e6 09       		.byte	0x9
 871 04e7 FA       		.byte	0xfa
 872 04e8 76040000 		.4byte	0x476
 873 04ec 10       		.byte	0x10
 874 04ed 10       		.uleb128 0x10
 875 04ee 73323100 		.ascii	"s21\000"
 876 04f2 09       		.byte	0x9
 877 04f3 FB       		.byte	0xfb
 878 04f4 76040000 		.4byte	0x476
 879 04f8 14       		.byte	0x14
 880 04f9 10       		.uleb128 0x10
 881 04fa 73323200 		.ascii	"s22\000"
 882 04fe 09       		.byte	0x9
 883 04ff FC       		.byte	0xfc
 884 0500 76040000 		.4byte	0x476
 885 0504 18       		.byte	0x18
 886 0505 10       		.uleb128 0x10
 887 0506 73323300 		.ascii	"s23\000"
 888 050a 09       		.byte	0x9
 889 050b FD       		.byte	0xfd
 890 050c 76040000 		.4byte	0x476
 891 0510 1C       		.byte	0x1c
 892 0511 10       		.uleb128 0x10
 893 0512 73323400 		.ascii	"s24\000"
 894 0516 09       		.byte	0x9
 895 0517 FE       		.byte	0xfe
 896 0518 76040000 		.4byte	0x476
 897 051c 20       		.byte	0x20
 898 051d 10       		.uleb128 0x10
 899 051e 73323500 		.ascii	"s25\000"
 900 0522 09       		.byte	0x9
 901 0523 FF       		.byte	0xff
 902 0524 76040000 		.4byte	0x476
 903 0528 24       		.byte	0x24
 904 0529 08       		.uleb128 0x8
 905 052a 73323600 		.ascii	"s26\000"
 906 052e 09       		.byte	0x9
 907 052f 0001     		.2byte	0x100
 908 0531 76040000 		.4byte	0x476
ARM GAS  /var/folders/sv/kgmgr77579zbf78p2zlhkdfr0000gn/T//cc5pHw1f.s 			page 17


 909 0535 28       		.byte	0x28
 910 0536 08       		.uleb128 0x8
 911 0537 73323700 		.ascii	"s27\000"
 912 053b 09       		.byte	0x9
 913 053c 0101     		.2byte	0x101
 914 053e 76040000 		.4byte	0x476
 915 0542 2C       		.byte	0x2c
 916 0543 08       		.uleb128 0x8
 917 0544 73323800 		.ascii	"s28\000"
 918 0548 09       		.byte	0x9
 919 0549 0201     		.2byte	0x102
 920 054b 76040000 		.4byte	0x476
 921 054f 30       		.byte	0x30
 922 0550 08       		.uleb128 0x8
 923 0551 73323900 		.ascii	"s29\000"
 924 0555 09       		.byte	0x9
 925 0556 0301     		.2byte	0x103
 926 0558 76040000 		.4byte	0x476
 927 055c 34       		.byte	0x34
 928 055d 08       		.uleb128 0x8
 929 055e 73333000 		.ascii	"s30\000"
 930 0562 09       		.byte	0x9
 931 0563 0401     		.2byte	0x104
 932 0565 76040000 		.4byte	0x476
 933 0569 38       		.byte	0x38
 934 056a 08       		.uleb128 0x8
 935 056b 73333100 		.ascii	"s31\000"
 936 056f 09       		.byte	0x9
 937 0570 0501     		.2byte	0x105
 938 0572 76040000 		.4byte	0x476
 939 0576 3C       		.byte	0x3c
 940 0577 08       		.uleb128 0x8
 941 0578 723400   		.ascii	"r4\000"
 942 057b 09       		.byte	0x9
 943 057c 0701     		.2byte	0x107
 944 057e 76040000 		.4byte	0x476
 945 0582 40       		.byte	0x40
 946 0583 08       		.uleb128 0x8
 947 0584 723500   		.ascii	"r5\000"
 948 0587 09       		.byte	0x9
 949 0588 0801     		.2byte	0x108
 950 058a 76040000 		.4byte	0x476
 951 058e 44       		.byte	0x44
 952 058f 08       		.uleb128 0x8
 953 0590 723600   		.ascii	"r6\000"
 954 0593 09       		.byte	0x9
 955 0594 0901     		.2byte	0x109
 956 0596 76040000 		.4byte	0x476
 957 059a 48       		.byte	0x48
 958 059b 08       		.uleb128 0x8
 959 059c 723700   		.ascii	"r7\000"
 960 059f 09       		.byte	0x9
 961 05a0 0A01     		.2byte	0x10a
 962 05a2 76040000 		.4byte	0x476
 963 05a6 4C       		.byte	0x4c
 964 05a7 08       		.uleb128 0x8
 965 05a8 723800   		.ascii	"r8\000"
ARM GAS  /var/folders/sv/kgmgr77579zbf78p2zlhkdfr0000gn/T//cc5pHw1f.s 			page 18


 966 05ab 09       		.byte	0x9
 967 05ac 0B01     		.2byte	0x10b
 968 05ae 76040000 		.4byte	0x476
 969 05b2 50       		.byte	0x50
 970 05b3 08       		.uleb128 0x8
 971 05b4 723900   		.ascii	"r9\000"
 972 05b7 09       		.byte	0x9
 973 05b8 0C01     		.2byte	0x10c
 974 05ba 76040000 		.4byte	0x476
 975 05be 54       		.byte	0x54
 976 05bf 08       		.uleb128 0x8
 977 05c0 72313000 		.ascii	"r10\000"
 978 05c4 09       		.byte	0x9
 979 05c5 0D01     		.2byte	0x10d
 980 05c7 76040000 		.4byte	0x476
 981 05cb 58       		.byte	0x58
 982 05cc 08       		.uleb128 0x8
 983 05cd 72313100 		.ascii	"r11\000"
 984 05d1 09       		.byte	0x9
 985 05d2 0E01     		.2byte	0x10e
 986 05d4 76040000 		.4byte	0x476
 987 05d8 5C       		.byte	0x5c
 988 05d9 08       		.uleb128 0x8
 989 05da 6C7200   		.ascii	"lr\000"
 990 05dd 09       		.byte	0x9
 991 05de 0F01     		.2byte	0x10f
 992 05e0 76040000 		.4byte	0x476
 993 05e4 60       		.byte	0x60
 994 05e5 00       		.byte	0
 995 05e6 0A       		.uleb128 0xa
 996 05e7 04       		.byte	0x4
 997 05e8 A5040000 		.4byte	0x4a5
 998 05ec 11       		.uleb128 0x11
 999 05ed 04       		.byte	0x4
 1000 05ee 0A       		.byte	0xa
 1001 05ef 38       		.byte	0x38
 1002 05f0 01060000 		.4byte	0x601
 1003 05f4 07       		.uleb128 0x7
 1004 05f5 C2040000 		.4byte	.LASF87
 1005 05f9 0A       		.byte	0xa
 1006 05fa 3C       		.byte	0x3c
 1007 05fb D3000000 		.4byte	0xd3
 1008 05ff 00       		.byte	0
 1009 0600 00       		.byte	0
 1010 0601 03       		.uleb128 0x3
 1011 0602 4E000000 		.4byte	.LASF88
 1012 0606 0A       		.byte	0xa
 1013 0607 3D       		.byte	0x3d
 1014 0608 EC050000 		.4byte	0x5ec
 1015 060c 12       		.uleb128 0x12
 1016 060d 04       		.byte	0x4
 1017 060e 07       		.byte	0x7
 1018 060f FA       		.byte	0xfa
 1019 0610 69060000 		.4byte	0x669
 1020 0614 13       		.uleb128 0x13
 1021 0615 A6040000 		.4byte	.LASF89
 1022 0619 07       		.byte	0x7
ARM GAS  /var/folders/sv/kgmgr77579zbf78p2zlhkdfr0000gn/T//cc5pHw1f.s 			page 19


 1023 061a 0101     		.2byte	0x101
 1024 061c 15010000 		.4byte	0x115
 1025 0620 13       		.uleb128 0x13
 1026 0621 E40F0000 		.4byte	.LASF90
 1027 0625 07       		.byte	0x7
 1028 0626 0801     		.2byte	0x108
 1029 0628 15010000 		.4byte	0x115
 1030 062c 13       		.uleb128 0x13
 1031 062d 5E010000 		.4byte	.LASF91
 1032 0631 07       		.byte	0x7
 1033 0632 0F01     		.2byte	0x10f
 1034 0634 39030000 		.4byte	0x339
 1035 0638 13       		.uleb128 0x13
 1036 0639 A60F0000 		.4byte	.LASF92
 1037 063d 07       		.byte	0x7
 1038 063e 1601     		.2byte	0x116
 1039 0640 69060000 		.4byte	0x669
 1040 0644 13       		.uleb128 0x13
 1041 0645 810C0000 		.4byte	.LASF93
 1042 0649 07       		.byte	0x7
 1043 064a 1E01     		.2byte	0x11e
 1044 064c 94060000 		.4byte	0x694
 1045 0650 13       		.uleb128 0x13
 1046 0651 AC0F0000 		.4byte	.LASF94
 1047 0655 07       		.byte	0x7
 1048 0656 2701     		.2byte	0x127
 1049 0658 CB060000 		.4byte	0x6cb
 1050 065c 13       		.uleb128 0x13
 1051 065d DE010000 		.4byte	.LASF95
 1052 0661 07       		.byte	0x7
 1053 0662 2F01     		.2byte	0x12f
 1054 0664 20010000 		.4byte	0x120
 1055 0668 00       		.byte	0
 1056 0669 0A       		.uleb128 0xa
 1057 066a 04       		.byte	0x4
 1058 066b 51020000 		.4byte	0x251
 1059 066f 06       		.uleb128 0x6
 1060 0670 7A030000 		.4byte	.LASF96
 1061 0674 0C       		.byte	0xc
 1062 0675 0B       		.byte	0xb
 1063 0676 34       		.byte	0x34
 1064 0677 94060000 		.4byte	0x694
 1065 067b 07       		.uleb128 0x7
 1066 067c E1000000 		.4byte	.LASF97
 1067 0680 0B       		.byte	0xb
 1068 0681 35       		.byte	0x35
 1069 0682 86020000 		.4byte	0x286
 1070 0686 00       		.byte	0
 1071 0687 07       		.uleb128 0x7
 1072 0688 97020000 		.4byte	.LASF98
 1073 068c 0B       		.byte	0xb
 1074 068d 37       		.byte	0x37
 1075 068e 2B010000 		.4byte	0x12b
 1076 0692 08       		.byte	0x8
 1077 0693 00       		.byte	0
 1078 0694 0A       		.uleb128 0xa
 1079 0695 04       		.byte	0x4
ARM GAS  /var/folders/sv/kgmgr77579zbf78p2zlhkdfr0000gn/T//cc5pHw1f.s 			page 20


 1080 0696 6F060000 		.4byte	0x66f
 1081 069a 06       		.uleb128 0x6
 1082 069b 25060000 		.4byte	.LASF99
 1083 069f 10       		.byte	0x10
 1084 06a0 0C       		.byte	0xc
 1085 06a1 39       		.byte	0x39
 1086 06a2 CB060000 		.4byte	0x6cb
 1087 06a6 07       		.uleb128 0x7
 1088 06a7 C00A0000 		.4byte	.LASF100
 1089 06ab 0C       		.byte	0xc
 1090 06ac 3A       		.byte	0x3a
 1091 06ad 86020000 		.4byte	0x286
 1092 06b1 00       		.byte	0
 1093 06b2 07       		.uleb128 0x7
 1094 06b3 D9000000 		.4byte	.LASF101
 1095 06b7 0C       		.byte	0xc
 1096 06b8 3C       		.byte	0x3c
 1097 06b9 5C020000 		.4byte	0x25c
 1098 06bd 08       		.byte	0x8
 1099 06be 07       		.uleb128 0x7
 1100 06bf 680E0000 		.4byte	.LASF102
 1101 06c3 0C       		.byte	0xc
 1102 06c4 3E       		.byte	0x3e
 1103 06c5 0E070000 		.4byte	0x70e
 1104 06c9 0C       		.byte	0xc
 1105 06ca 00       		.byte	0
 1106 06cb 0A       		.uleb128 0xa
 1107 06cc 04       		.byte	0x4
 1108 06cd 9A060000 		.4byte	0x69a
 1109 06d1 0A       		.uleb128 0xa
 1110 06d2 04       		.byte	0x4
 1111 06d3 DE060000 		.4byte	0x6de
 1112 06d7 02       		.uleb128 0x2
 1113 06d8 01       		.byte	0x1
 1114 06d9 08       		.byte	0x8
 1115 06da 6B000000 		.4byte	.LASF103
 1116 06de 14       		.uleb128 0x14
 1117 06df D7060000 		.4byte	0x6d7
 1118 06e3 05       		.uleb128 0x5
 1119 06e4 36010000 		.4byte	0x136
 1120 06e8 0A       		.uleb128 0xa
 1121 06e9 04       		.byte	0x4
 1122 06ea 3B030000 		.4byte	0x33b
 1123 06ee 05       		.uleb128 0x5
 1124 06ef D1060000 		.4byte	0x6d1
 1125 06f3 15       		.uleb128 0x15
 1126 06f4 81040000 		.4byte	0x481
 1127 06f8 03070000 		.4byte	0x703
 1128 06fc 16       		.uleb128 0x16
 1129 06fd 6F040000 		.4byte	0x46f
 1130 0701 3A       		.byte	0x3a
 1131 0702 00       		.byte	0
 1132 0703 03       		.uleb128 0x3
 1133 0704 C20C0000 		.4byte	.LASF104
 1134 0708 0C       		.byte	0xc
 1135 0709 34       		.byte	0x34
 1136 070a 9A060000 		.4byte	0x69a
ARM GAS  /var/folders/sv/kgmgr77579zbf78p2zlhkdfr0000gn/T//cc5pHw1f.s 			page 21


 1137 070e 0A       		.uleb128 0xa
 1138 070f 04       		.byte	0x4
 1139 0710 03070000 		.4byte	0x703
 1140 0714 02       		.uleb128 0x2
 1141 0715 04       		.byte	0x4
 1142 0716 04       		.byte	0x4
 1143 0717 3F030000 		.4byte	.LASF105
 1144 071b 17       		.uleb128 0x17
 1145 071c 01       		.byte	0x1
 1146 071d 37000000 		.4byte	0x37
 1147 0721 0D       		.byte	0xd
 1148 0722 81       		.byte	0x81
 1149 0723 40070000 		.4byte	0x740
 1150 0727 18       		.uleb128 0x18
 1151 0728 CB000000 		.4byte	.LASF106
 1152 072c 00       		.byte	0
 1153 072d 18       		.uleb128 0x18
 1154 072e 51080000 		.4byte	.LASF107
 1155 0732 01       		.byte	0x1
 1156 0733 18       		.uleb128 0x18
 1157 0734 C4030000 		.4byte	.LASF108
 1158 0738 02       		.byte	0x2
 1159 0739 18       		.uleb128 0x18
 1160 073a B6040000 		.4byte	.LASF109
 1161 073e 03       		.byte	0x3
 1162 073f 00       		.byte	0
 1163 0740 03       		.uleb128 0x3
 1164 0741 860A0000 		.4byte	.LASF110
 1165 0745 0D       		.byte	0xd
 1166 0746 86       		.byte	0x86
 1167 0747 1B070000 		.4byte	0x71b
 1168 074b 02       		.uleb128 0x2
 1169 074c 01       		.byte	0x1
 1170 074d 02       		.byte	0x2
 1171 074e E0040000 		.4byte	.LASF111
 1172 0752 17       		.uleb128 0x17
 1173 0753 01       		.byte	0x1
 1174 0754 37000000 		.4byte	0x37
 1175 0758 0D       		.byte	0xd
 1176 0759 F7       		.byte	0xf7
 1177 075a 95070000 		.4byte	0x795
 1178 075e 18       		.uleb128 0x18
 1179 075f C9070000 		.4byte	.LASF112
 1180 0763 00       		.byte	0
 1181 0764 18       		.uleb128 0x18
 1182 0765 1B020000 		.4byte	.LASF113
 1183 0769 01       		.byte	0x1
 1184 076a 18       		.uleb128 0x18
 1185 076b F4060000 		.4byte	.LASF114
 1186 076f 02       		.byte	0x2
 1187 0770 18       		.uleb128 0x18
 1188 0771 D7040000 		.4byte	.LASF115
 1189 0775 03       		.byte	0x3
 1190 0776 18       		.uleb128 0x18
 1191 0777 D60E0000 		.4byte	.LASF116
 1192 077b 04       		.byte	0x4
 1193 077c 18       		.uleb128 0x18
ARM GAS  /var/folders/sv/kgmgr77579zbf78p2zlhkdfr0000gn/T//cc5pHw1f.s 			page 22


 1194 077d 790A0000 		.4byte	.LASF117
 1195 0781 05       		.byte	0x5
 1196 0782 18       		.uleb128 0x18
 1197 0783 0C0B0000 		.4byte	.LASF118
 1198 0787 06       		.byte	0x6
 1199 0788 18       		.uleb128 0x18
 1200 0789 24080000 		.4byte	.LASF119
 1201 078d 07       		.byte	0x7
 1202 078e 18       		.uleb128 0x18
 1203 078f 3F010000 		.4byte	.LASF120
 1204 0793 08       		.byte	0x8
 1205 0794 00       		.byte	0
 1206 0795 19       		.uleb128 0x19
 1207 0796 45030000 		.4byte	.LASF121
 1208 079a 0D       		.byte	0xd
 1209 079b 0101     		.2byte	0x101
 1210 079d 52070000 		.4byte	0x752
 1211 07a1 1A       		.uleb128 0x1a
 1212 07a2 01       		.byte	0x1
 1213 07a3 37000000 		.4byte	0x37
 1214 07a7 0D       		.byte	0xd
 1215 07a8 0401     		.2byte	0x104
 1216 07aa C1070000 		.4byte	0x7c1
 1217 07ae 18       		.uleb128 0x18
 1218 07af 74070000 		.4byte	.LASF122
 1219 07b3 00       		.byte	0
 1220 07b4 18       		.uleb128 0x18
 1221 07b5 58060000 		.4byte	.LASF123
 1222 07b9 01       		.byte	0x1
 1223 07ba 18       		.uleb128 0x18
 1224 07bb B30F0000 		.4byte	.LASF124
 1225 07bf 02       		.byte	0x2
 1226 07c0 00       		.byte	0
 1227 07c1 19       		.uleb128 0x19
 1228 07c2 830F0000 		.4byte	.LASF125
 1229 07c6 0D       		.byte	0xd
 1230 07c7 0801     		.2byte	0x108
 1231 07c9 A1070000 		.4byte	0x7a1
 1232 07cd 1A       		.uleb128 0x1a
 1233 07ce 01       		.byte	0x1
 1234 07cf 37000000 		.4byte	0x37
 1235 07d3 0D       		.byte	0xd
 1236 07d4 0B01     		.2byte	0x10b
 1237 07d6 0B080000 		.4byte	0x80b
 1238 07da 18       		.uleb128 0x18
 1239 07db 81070000 		.4byte	.LASF126
 1240 07df 00       		.byte	0
 1241 07e0 18       		.uleb128 0x18
 1242 07e1 AD020000 		.4byte	.LASF127
 1243 07e5 01       		.byte	0x1
 1244 07e6 18       		.uleb128 0x18
 1245 07e7 C2010000 		.4byte	.LASF128
 1246 07eb 02       		.byte	0x2
 1247 07ec 18       		.uleb128 0x18
 1248 07ed 34070000 		.4byte	.LASF129
 1249 07f1 03       		.byte	0x3
 1250 07f2 18       		.uleb128 0x18
ARM GAS  /var/folders/sv/kgmgr77579zbf78p2zlhkdfr0000gn/T//cc5pHw1f.s 			page 23


 1251 07f3 DC070000 		.4byte	.LASF130
 1252 07f7 04       		.byte	0x4
 1253 07f8 18       		.uleb128 0x18
 1254 07f9 E1030000 		.4byte	.LASF131
 1255 07fd 05       		.byte	0x5
 1256 07fe 18       		.uleb128 0x18
 1257 07ff E5010000 		.4byte	.LASF132
 1258 0803 06       		.byte	0x6
 1259 0804 18       		.uleb128 0x18
 1260 0805 79040000 		.4byte	.LASF133
 1261 0809 07       		.byte	0x7
 1262 080a 00       		.byte	0
 1263 080b 19       		.uleb128 0x19
 1264 080c C00F0000 		.4byte	.LASF134
 1265 0810 0D       		.byte	0xd
 1266 0811 1401     		.2byte	0x114
 1267 0813 CD070000 		.4byte	0x7cd
 1268 0817 1B       		.uleb128 0x1b
 1269 0818 38       		.byte	0x38
 1270 0819 0D       		.byte	0xd
 1271 081a 1601     		.2byte	0x116
 1272 081c F0080000 		.4byte	0x8f0
 1273 0820 09       		.uleb128 0x9
 1274 0821 530C0000 		.4byte	.LASF135
 1275 0825 0D       		.byte	0xd
 1276 0826 1701     		.2byte	0x117
 1277 0828 0B080000 		.4byte	0x80b
 1278 082c 00       		.byte	0
 1279 082d 09       		.uleb128 0x9
 1280 082e DE060000 		.4byte	.LASF136
 1281 0832 0D       		.byte	0xd
 1282 0833 1801     		.2byte	0x118
 1283 0835 14070000 		.4byte	0x714
 1284 0839 04       		.byte	0x4
 1285 083a 09       		.uleb128 0x9
 1286 083b 75030000 		.4byte	.LASF137
 1287 083f 0D       		.byte	0xd
 1288 0840 1901     		.2byte	0x119
 1289 0842 14070000 		.4byte	0x714
 1290 0846 08       		.byte	0x8
 1291 0847 09       		.uleb128 0x9
 1292 0848 6D0A0000 		.4byte	.LASF138
 1293 084c 0D       		.byte	0xd
 1294 084d 1A01     		.2byte	0x11a
 1295 084f 14070000 		.4byte	0x714
 1296 0853 0C       		.byte	0xc
 1297 0854 09       		.uleb128 0x9
 1298 0855 5F080000 		.4byte	.LASF139
 1299 0859 0D       		.byte	0xd
 1300 085a 1B01     		.2byte	0x11b
 1301 085c 14070000 		.4byte	0x714
 1302 0860 10       		.byte	0x10
 1303 0861 09       		.uleb128 0x9
 1304 0862 27070000 		.4byte	.LASF140
 1305 0866 0D       		.byte	0xd
 1306 0867 1C01     		.2byte	0x11c
 1307 0869 14070000 		.4byte	0x714
ARM GAS  /var/folders/sv/kgmgr77579zbf78p2zlhkdfr0000gn/T//cc5pHw1f.s 			page 24


 1308 086d 14       		.byte	0x14
 1309 086e 09       		.uleb128 0x9
 1310 086f F8020000 		.4byte	.LASF141
 1311 0873 0D       		.byte	0xd
 1312 0874 1D01     		.2byte	0x11d
 1313 0876 4B070000 		.4byte	0x74b
 1314 087a 18       		.byte	0x18
 1315 087b 09       		.uleb128 0x9
 1316 087c FF000000 		.4byte	.LASF142
 1317 0880 0D       		.byte	0xd
 1318 0881 1E01     		.2byte	0x11e
 1319 0883 4B070000 		.4byte	0x74b
 1320 0887 19       		.byte	0x19
 1321 0888 09       		.uleb128 0x9
 1322 0889 2E090000 		.4byte	.LASF143
 1323 088d 0D       		.byte	0xd
 1324 088e 1F01     		.2byte	0x11f
 1325 0890 14070000 		.4byte	0x714
 1326 0894 1C       		.byte	0x1c
 1327 0895 09       		.uleb128 0x9
 1328 0896 CA0C0000 		.4byte	.LASF144
 1329 089a 0D       		.byte	0xd
 1330 089b 2001     		.2byte	0x120
 1331 089d 14070000 		.4byte	0x714
 1332 08a1 20       		.byte	0x20
 1333 08a2 09       		.uleb128 0x9
 1334 08a3 4D030000 		.4byte	.LASF145
 1335 08a7 0D       		.byte	0xd
 1336 08a8 2101     		.2byte	0x121
 1337 08aa C1070000 		.4byte	0x7c1
 1338 08ae 24       		.byte	0x24
 1339 08af 09       		.uleb128 0x9
 1340 08b0 91040000 		.4byte	.LASF146
 1341 08b4 0D       		.byte	0xd
 1342 08b5 2201     		.2byte	0x122
 1343 08b7 14070000 		.4byte	0x714
 1344 08bb 28       		.byte	0x28
 1345 08bc 09       		.uleb128 0x9
 1346 08bd DD020000 		.4byte	.LASF147
 1347 08c1 0D       		.byte	0xd
 1348 08c2 2301     		.2byte	0x123
 1349 08c4 14070000 		.4byte	0x714
 1350 08c8 2C       		.byte	0x2c
 1351 08c9 09       		.uleb128 0x9
 1352 08ca 54010000 		.4byte	.LASF148
 1353 08ce 0D       		.byte	0xd
 1354 08cf 2401     		.2byte	0x124
 1355 08d1 4B070000 		.4byte	0x74b
 1356 08d5 30       		.byte	0x30
 1357 08d6 08       		.uleb128 0x8
 1358 08d7 746300   		.ascii	"tc\000"
 1359 08da 0D       		.byte	0xd
 1360 08db 2501     		.2byte	0x125
 1361 08dd 4B070000 		.4byte	0x74b
 1362 08e1 31       		.byte	0x31
 1363 08e2 09       		.uleb128 0x9
 1364 08e3 1F0D0000 		.4byte	.LASF149
ARM GAS  /var/folders/sv/kgmgr77579zbf78p2zlhkdfr0000gn/T//cc5pHw1f.s 			page 25


 1365 08e7 0D       		.byte	0xd
 1366 08e8 2601     		.2byte	0x126
 1367 08ea 14070000 		.4byte	0x714
 1368 08ee 34       		.byte	0x34
 1369 08ef 00       		.byte	0
 1370 08f0 19       		.uleb128 0x19
 1371 08f1 8C090000 		.4byte	.LASF150
 1372 08f5 0D       		.byte	0xd
 1373 08f6 2701     		.2byte	0x127
 1374 08f8 17080000 		.4byte	0x817
 1375 08fc 1A       		.uleb128 0x1a
 1376 08fd 01       		.byte	0x1
 1377 08fe 37000000 		.4byte	0x37
 1378 0902 0D       		.byte	0xd
 1379 0903 2A01     		.2byte	0x12a
 1380 0905 5E090000 		.4byte	0x95e
 1381 0909 18       		.uleb128 0x18
 1382 090a D10F0000 		.4byte	.LASF151
 1383 090e 00       		.byte	0
 1384 090f 18       		.uleb128 0x18
 1385 0910 DD0A0000 		.4byte	.LASF152
 1386 0914 01       		.byte	0x1
 1387 0915 18       		.uleb128 0x18
 1388 0916 FE080000 		.4byte	.LASF153
 1389 091a 02       		.byte	0x2
 1390 091b 18       		.uleb128 0x18
 1391 091c 69080000 		.4byte	.LASF154
 1392 0920 03       		.byte	0x3
 1393 0921 18       		.uleb128 0x18
 1394 0922 D30B0000 		.4byte	.LASF155
 1395 0926 04       		.byte	0x4
 1396 0927 18       		.uleb128 0x18
 1397 0928 45020000 		.4byte	.LASF156
 1398 092c 05       		.byte	0x5
 1399 092d 18       		.uleb128 0x18
 1400 092e 6E020000 		.4byte	.LASF157
 1401 0932 06       		.byte	0x6
 1402 0933 18       		.uleb128 0x18
 1403 0934 220B0000 		.4byte	.LASF158
 1404 0938 07       		.byte	0x7
 1405 0939 18       		.uleb128 0x18
 1406 093a 3B090000 		.4byte	.LASF159
 1407 093e 08       		.byte	0x8
 1408 093f 18       		.uleb128 0x18
 1409 0940 30000000 		.4byte	.LASF160
 1410 0944 09       		.byte	0x9
 1411 0945 18       		.uleb128 0x18
 1412 0946 910E0000 		.4byte	.LASF161
 1413 094a 0A       		.byte	0xa
 1414 094b 18       		.uleb128 0x18
 1415 094c 060F0000 		.4byte	.LASF162
 1416 0950 0B       		.byte	0xb
 1417 0951 18       		.uleb128 0x18
 1418 0952 3F0A0000 		.4byte	.LASF163
 1419 0956 0C       		.byte	0xc
 1420 0957 18       		.uleb128 0x18
 1421 0958 880C0000 		.4byte	.LASF164
ARM GAS  /var/folders/sv/kgmgr77579zbf78p2zlhkdfr0000gn/T//cc5pHw1f.s 			page 26


 1422 095c 0D       		.byte	0xd
 1423 095d 00       		.byte	0
 1424 095e 19       		.uleb128 0x19
 1425 095f CC020000 		.4byte	.LASF165
 1426 0963 0D       		.byte	0xd
 1427 0964 3901     		.2byte	0x139
 1428 0966 FC080000 		.4byte	0x8fc
 1429 096a 1B       		.uleb128 0x1b
 1430 096b 44       		.byte	0x44
 1431 096c 0D       		.byte	0xd
 1432 096d 3B01     		.2byte	0x13b
 1433 096f 910A0000 		.4byte	0xa91
 1434 0973 09       		.uleb128 0x9
 1435 0974 530C0000 		.4byte	.LASF135
 1436 0978 0D       		.byte	0xd
 1437 0979 3C01     		.2byte	0x13c
 1438 097b 5E090000 		.4byte	0x95e
 1439 097f 00       		.byte	0
 1440 0980 09       		.uleb128 0x9
 1441 0981 75030000 		.4byte	.LASF137
 1442 0985 0D       		.byte	0xd
 1443 0986 3D01     		.2byte	0x13d
 1444 0988 14070000 		.4byte	0x714
 1445 098c 04       		.byte	0x4
 1446 098d 09       		.uleb128 0x9
 1447 098e 75060000 		.4byte	.LASF166
 1448 0992 0D       		.byte	0xd
 1449 0993 3E01     		.2byte	0x13e
 1450 0995 14070000 		.4byte	0x714
 1451 0999 08       		.byte	0x8
 1452 099a 09       		.uleb128 0x9
 1453 099b FA030000 		.4byte	.LASF167
 1454 099f 0D       		.byte	0xd
 1455 09a0 3F01     		.2byte	0x13f
 1456 09a2 14070000 		.4byte	0x714
 1457 09a6 0C       		.byte	0xc
 1458 09a7 09       		.uleb128 0x9
 1459 09a8 0A010000 		.4byte	.LASF168
 1460 09ac 0D       		.byte	0xd
 1461 09ad 4001     		.2byte	0x140
 1462 09af 14070000 		.4byte	0x714
 1463 09b3 10       		.byte	0x10
 1464 09b4 09       		.uleb128 0x9
 1465 09b5 94070000 		.4byte	.LASF169
 1466 09b9 0D       		.byte	0xd
 1467 09ba 4101     		.2byte	0x141
 1468 09bc 14070000 		.4byte	0x714
 1469 09c0 14       		.byte	0x14
 1470 09c1 09       		.uleb128 0x9
 1471 09c2 740C0000 		.4byte	.LASF170
 1472 09c6 0D       		.byte	0xd
 1473 09c7 4201     		.2byte	0x142
 1474 09c9 14070000 		.4byte	0x714
 1475 09cd 18       		.byte	0x18
 1476 09ce 09       		.uleb128 0x9
 1477 09cf 730D0000 		.4byte	.LASF171
 1478 09d3 0D       		.byte	0xd
ARM GAS  /var/folders/sv/kgmgr77579zbf78p2zlhkdfr0000gn/T//cc5pHw1f.s 			page 27


 1479 09d4 4301     		.2byte	0x143
 1480 09d6 4B070000 		.4byte	0x74b
 1481 09da 1C       		.byte	0x1c
 1482 09db 09       		.uleb128 0x9
 1483 09dc FF000000 		.4byte	.LASF142
 1484 09e0 0D       		.byte	0xd
 1485 09e1 4401     		.2byte	0x144
 1486 09e3 4B070000 		.4byte	0x74b
 1487 09e7 1D       		.byte	0x1d
 1488 09e8 09       		.uleb128 0x9
 1489 09e9 46040000 		.4byte	.LASF172
 1490 09ed 0D       		.byte	0xd
 1491 09ee 4501     		.2byte	0x145
 1492 09f0 4B070000 		.4byte	0x74b
 1493 09f4 1E       		.byte	0x1e
 1494 09f5 09       		.uleb128 0x9
 1495 09f6 3D080000 		.4byte	.LASF173
 1496 09fa 0D       		.byte	0xd
 1497 09fb 4601     		.2byte	0x146
 1498 09fd 4B070000 		.4byte	0x74b
 1499 0a01 1F       		.byte	0x1f
 1500 0a02 09       		.uleb128 0x9
 1501 0a03 EA090000 		.4byte	.LASF174
 1502 0a07 0D       		.byte	0xd
 1503 0a08 4701     		.2byte	0x147
 1504 0a0a 4B070000 		.4byte	0x74b
 1505 0a0e 20       		.byte	0x20
 1506 0a0f 09       		.uleb128 0x9
 1507 0a10 46060000 		.4byte	.LASF175
 1508 0a14 0D       		.byte	0xd
 1509 0a15 4801     		.2byte	0x148
 1510 0a17 4B070000 		.4byte	0x74b
 1511 0a1b 21       		.byte	0x21
 1512 0a1c 09       		.uleb128 0x9
 1513 0a1d 2E090000 		.4byte	.LASF143
 1514 0a21 0D       		.byte	0xd
 1515 0a22 4901     		.2byte	0x149
 1516 0a24 14070000 		.4byte	0x714
 1517 0a28 24       		.byte	0x24
 1518 0a29 09       		.uleb128 0x9
 1519 0a2a CA0C0000 		.4byte	.LASF144
 1520 0a2e 0D       		.byte	0xd
 1521 0a2f 4A01     		.2byte	0x14a
 1522 0a31 14070000 		.4byte	0x714
 1523 0a35 28       		.byte	0x28
 1524 0a36 09       		.uleb128 0x9
 1525 0a37 4D030000 		.4byte	.LASF145
 1526 0a3b 0D       		.byte	0xd
 1527 0a3c 4B01     		.2byte	0x14b
 1528 0a3e C1070000 		.4byte	0x7c1
 1529 0a42 2C       		.byte	0x2c
 1530 0a43 09       		.uleb128 0x9
 1531 0a44 91040000 		.4byte	.LASF146
 1532 0a48 0D       		.byte	0xd
 1533 0a49 4C01     		.2byte	0x14c
 1534 0a4b 14070000 		.4byte	0x714
 1535 0a4f 30       		.byte	0x30
ARM GAS  /var/folders/sv/kgmgr77579zbf78p2zlhkdfr0000gn/T//cc5pHw1f.s 			page 28


 1536 0a50 09       		.uleb128 0x9
 1537 0a51 DD020000 		.4byte	.LASF147
 1538 0a55 0D       		.byte	0xd
 1539 0a56 4D01     		.2byte	0x14d
 1540 0a58 14070000 		.4byte	0x714
 1541 0a5c 34       		.byte	0x34
 1542 0a5d 09       		.uleb128 0x9
 1543 0a5e 54010000 		.4byte	.LASF148
 1544 0a62 0D       		.byte	0xd
 1545 0a63 4E01     		.2byte	0x14e
 1546 0a65 4B070000 		.4byte	0x74b
 1547 0a69 38       		.byte	0x38
 1548 0a6a 08       		.uleb128 0x8
 1549 0a6b 746300   		.ascii	"tc\000"
 1550 0a6e 0D       		.byte	0xd
 1551 0a6f 4F01     		.2byte	0x14f
 1552 0a71 4B070000 		.4byte	0x74b
 1553 0a75 39       		.byte	0x39
 1554 0a76 09       		.uleb128 0x9
 1555 0a77 1F0D0000 		.4byte	.LASF149
 1556 0a7b 0D       		.byte	0xd
 1557 0a7c 5001     		.2byte	0x150
 1558 0a7e 14070000 		.4byte	0x714
 1559 0a82 3C       		.byte	0x3c
 1560 0a83 09       		.uleb128 0x9
 1561 0a84 1F090000 		.4byte	.LASF176
 1562 0a88 0D       		.byte	0xd
 1563 0a89 5101     		.2byte	0x151
 1564 0a8b AD000000 		.4byte	0xad
 1565 0a8f 40       		.byte	0x40
 1566 0a90 00       		.byte	0
 1567 0a91 19       		.uleb128 0x19
 1568 0a92 FF0F0000 		.4byte	.LASF177
 1569 0a96 0D       		.byte	0xd
 1570 0a97 5201     		.2byte	0x152
 1571 0a99 6A090000 		.4byte	0x96a
 1572 0a9d 1A       		.uleb128 0x1a
 1573 0a9e 01       		.byte	0x1
 1574 0a9f 37000000 		.4byte	0x37
 1575 0aa3 0D       		.byte	0xd
 1576 0aa4 5501     		.2byte	0x155
 1577 0aa6 BD0A0000 		.4byte	0xabd
 1578 0aaa 18       		.uleb128 0x18
 1579 0aab A3070000 		.4byte	.LASF178
 1580 0aaf 00       		.byte	0
 1581 0ab0 18       		.uleb128 0x18
 1582 0ab1 92080000 		.4byte	.LASF179
 1583 0ab5 01       		.byte	0x1
 1584 0ab6 18       		.uleb128 0x18
 1585 0ab7 80000000 		.4byte	.LASF180
 1586 0abb 02       		.byte	0x2
 1587 0abc 00       		.byte	0
 1588 0abd 19       		.uleb128 0x19
 1589 0abe 34040000 		.4byte	.LASF181
 1590 0ac2 0D       		.byte	0xd
 1591 0ac3 5901     		.2byte	0x159
 1592 0ac5 9D0A0000 		.4byte	0xa9d
ARM GAS  /var/folders/sv/kgmgr77579zbf78p2zlhkdfr0000gn/T//cc5pHw1f.s 			page 29


 1593 0ac9 1B       		.uleb128 0x1b
 1594 0aca 24       		.byte	0x24
 1595 0acb 0D       		.byte	0xd
 1596 0acc 5B01     		.2byte	0x15b
 1597 0ace 610B0000 		.4byte	0xb61
 1598 0ad2 09       		.uleb128 0x9
 1599 0ad3 530C0000 		.4byte	.LASF135
 1600 0ad7 0D       		.byte	0xd
 1601 0ad8 5C01     		.2byte	0x15c
 1602 0ada BD0A0000 		.4byte	0xabd
 1603 0ade 00       		.byte	0
 1604 0adf 09       		.uleb128 0x9
 1605 0ae0 75030000 		.4byte	.LASF137
 1606 0ae4 0D       		.byte	0xd
 1607 0ae5 5D01     		.2byte	0x15d
 1608 0ae7 14070000 		.4byte	0x714
 1609 0aeb 04       		.byte	0x4
 1610 0aec 09       		.uleb128 0x9
 1611 0aed 91040000 		.4byte	.LASF146
 1612 0af1 0D       		.byte	0xd
 1613 0af2 5E01     		.2byte	0x15e
 1614 0af4 14070000 		.4byte	0x714
 1615 0af8 08       		.byte	0x8
 1616 0af9 09       		.uleb128 0x9
 1617 0afa DD020000 		.4byte	.LASF147
 1618 0afe 0D       		.byte	0xd
 1619 0aff 5F01     		.2byte	0x15f
 1620 0b01 14070000 		.4byte	0x714
 1621 0b05 0C       		.byte	0xc
 1622 0b06 09       		.uleb128 0x9
 1623 0b07 A70D0000 		.4byte	.LASF182
 1624 0b0b 0D       		.byte	0xd
 1625 0b0c 6001     		.2byte	0x160
 1626 0b0e 14070000 		.4byte	0x714
 1627 0b12 10       		.byte	0x10
 1628 0b13 09       		.uleb128 0x9
 1629 0b14 2E090000 		.4byte	.LASF143
 1630 0b18 0D       		.byte	0xd
 1631 0b19 6101     		.2byte	0x161
 1632 0b1b 14070000 		.4byte	0x714
 1633 0b1f 14       		.byte	0x14
 1634 0b20 09       		.uleb128 0x9
 1635 0b21 CA0C0000 		.4byte	.LASF144
 1636 0b25 0D       		.byte	0xd
 1637 0b26 6201     		.2byte	0x162
 1638 0b28 14070000 		.4byte	0x714
 1639 0b2c 18       		.byte	0x18
 1640 0b2d 09       		.uleb128 0x9
 1641 0b2e 4D030000 		.4byte	.LASF145
 1642 0b32 0D       		.byte	0xd
 1643 0b33 6301     		.2byte	0x163
 1644 0b35 C1070000 		.4byte	0x7c1
 1645 0b39 1C       		.byte	0x1c
 1646 0b3a 09       		.uleb128 0x9
 1647 0b3b 54010000 		.4byte	.LASF148
 1648 0b3f 0D       		.byte	0xd
 1649 0b40 6401     		.2byte	0x164
ARM GAS  /var/folders/sv/kgmgr77579zbf78p2zlhkdfr0000gn/T//cc5pHw1f.s 			page 30


 1650 0b42 4B070000 		.4byte	0x74b
 1651 0b46 1D       		.byte	0x1d
 1652 0b47 08       		.uleb128 0x8
 1653 0b48 746300   		.ascii	"tc\000"
 1654 0b4b 0D       		.byte	0xd
 1655 0b4c 6501     		.2byte	0x165
 1656 0b4e 4B070000 		.4byte	0x74b
 1657 0b52 1E       		.byte	0x1e
 1658 0b53 09       		.uleb128 0x9
 1659 0b54 1F0D0000 		.4byte	.LASF149
 1660 0b58 0D       		.byte	0xd
 1661 0b59 6601     		.2byte	0x166
 1662 0b5b 14070000 		.4byte	0x714
 1663 0b5f 20       		.byte	0x20
 1664 0b60 00       		.byte	0
 1665 0b61 19       		.uleb128 0x19
 1666 0b62 7E0D0000 		.4byte	.LASF183
 1667 0b66 0D       		.byte	0xd
 1668 0b67 6701     		.2byte	0x167
 1669 0b69 C90A0000 		.4byte	0xac9
 1670 0b6d 1A       		.uleb128 0x1a
 1671 0b6e 01       		.byte	0x1
 1672 0b6f 37000000 		.4byte	0x37
 1673 0b73 0D       		.byte	0xd
 1674 0b74 6A01     		.2byte	0x16a
 1675 0b76 8D0B0000 		.4byte	0xb8d
 1676 0b7a 18       		.uleb128 0x18
 1677 0b7b 670F0000 		.4byte	.LASF184
 1678 0b7f 00       		.byte	0
 1679 0b80 18       		.uleb128 0x18
 1680 0b81 760F0000 		.4byte	.LASF185
 1681 0b85 01       		.byte	0x1
 1682 0b86 18       		.uleb128 0x18
 1683 0b87 F20C0000 		.4byte	.LASF186
 1684 0b8b 02       		.byte	0x2
 1685 0b8c 00       		.byte	0
 1686 0b8d 19       		.uleb128 0x19
 1687 0b8e ED0F0000 		.4byte	.LASF187
 1688 0b92 0D       		.byte	0xd
 1689 0b93 6E01     		.2byte	0x16e
 1690 0b95 6D0B0000 		.4byte	0xb6d
 1691 0b99 1A       		.uleb128 0x1a
 1692 0b9a 01       		.byte	0x1
 1693 0b9b 37000000 		.4byte	0x37
 1694 0b9f 0D       		.byte	0xd
 1695 0ba0 7001     		.2byte	0x170
 1696 0ba2 C50B0000 		.4byte	0xbc5
 1697 0ba6 18       		.uleb128 0x18
 1698 0ba7 B1010000 		.4byte	.LASF188
 1699 0bab 00       		.byte	0
 1700 0bac 18       		.uleb128 0x18
 1701 0bad 5C0A0000 		.4byte	.LASF189
 1702 0bb1 01       		.byte	0x1
 1703 0bb2 18       		.uleb128 0x18
 1704 0bb3 2F0A0000 		.4byte	.LASF190
 1705 0bb7 02       		.byte	0x2
 1706 0bb8 18       		.uleb128 0x18
ARM GAS  /var/folders/sv/kgmgr77579zbf78p2zlhkdfr0000gn/T//cc5pHw1f.s 			page 31


 1707 0bb9 EA0E0000 		.4byte	.LASF191
 1708 0bbd 03       		.byte	0x3
 1709 0bbe 18       		.uleb128 0x18
 1710 0bbf C9040000 		.4byte	.LASF192
 1711 0bc3 04       		.byte	0x4
 1712 0bc4 00       		.byte	0
 1713 0bc5 19       		.uleb128 0x19
 1714 0bc6 A5090000 		.4byte	.LASF193
 1715 0bca 0D       		.byte	0xd
 1716 0bcb 7601     		.2byte	0x176
 1717 0bcd 990B0000 		.4byte	0xb99
 1718 0bd1 1A       		.uleb128 0x1a
 1719 0bd2 01       		.byte	0x1
 1720 0bd3 37000000 		.4byte	0x37
 1721 0bd7 0D       		.byte	0xd
 1722 0bd8 7E01     		.2byte	0x17e
 1723 0bda F10B0000 		.4byte	0xbf1
 1724 0bde 18       		.uleb128 0x18
 1725 0bdf 0E0A0000 		.4byte	.LASF194
 1726 0be3 00       		.byte	0
 1727 0be4 18       		.uleb128 0x18
 1728 0be5 0C040000 		.4byte	.LASF195
 1729 0be9 01       		.byte	0x1
 1730 0bea 18       		.uleb128 0x18
 1731 0beb 1A060000 		.4byte	.LASF196
 1732 0bef 02       		.byte	0x2
 1733 0bf0 00       		.byte	0
 1734 0bf1 19       		.uleb128 0x19
 1735 0bf2 65010000 		.4byte	.LASF197
 1736 0bf6 0D       		.byte	0xd
 1737 0bf7 8201     		.2byte	0x182
 1738 0bf9 D10B0000 		.4byte	0xbd1
 1739 0bfd 1A       		.uleb128 0x1a
 1740 0bfe 01       		.byte	0x1
 1741 0bff 37000000 		.4byte	0x37
 1742 0c03 0D       		.byte	0xd
 1743 0c04 8401     		.2byte	0x184
 1744 0c06 6B0C0000 		.4byte	0xc6b
 1745 0c0a 18       		.uleb128 0x18
 1746 0c0b 9B0B0000 		.4byte	.LASF198
 1747 0c0f 00       		.byte	0
 1748 0c10 18       		.uleb128 0x18
 1749 0c11 AD0C0000 		.4byte	.LASF199
 1750 0c15 01       		.byte	0x1
 1751 0c16 18       		.uleb128 0x18
 1752 0c17 DD0C0000 		.4byte	.LASF200
 1753 0c1b 02       		.byte	0x2
 1754 0c1c 18       		.uleb128 0x18
 1755 0c1d 5F030000 		.4byte	.LASF201
 1756 0c21 03       		.byte	0x3
 1757 0c22 18       		.uleb128 0x18
 1758 0c23 510F0000 		.4byte	.LASF202
 1759 0c27 04       		.byte	0x4
 1760 0c28 18       		.uleb128 0x18
 1761 0c29 4E090000 		.4byte	.LASF203
 1762 0c2d 05       		.byte	0x5
 1763 0c2e 18       		.uleb128 0x18
ARM GAS  /var/folders/sv/kgmgr77579zbf78p2zlhkdfr0000gn/T//cc5pHw1f.s 			page 32


 1764 0c2f B00B0000 		.4byte	.LASF204
 1765 0c33 06       		.byte	0x6
 1766 0c34 18       		.uleb128 0x18
 1767 0c35 3B0F0000 		.4byte	.LASF205
 1768 0c39 07       		.byte	0x7
 1769 0c3a 18       		.uleb128 0x18
 1770 0c3b F7010000 		.4byte	.LASF206
 1771 0c3f 08       		.byte	0x8
 1772 0c40 18       		.uleb128 0x18
 1773 0c41 19030000 		.4byte	.LASF207
 1774 0c45 09       		.byte	0x9
 1775 0c46 18       		.uleb128 0x18
 1776 0c47 B6060000 		.4byte	.LASF208
 1777 0c4b 0A       		.byte	0xa
 1778 0c4c 18       		.uleb128 0x18
 1779 0c4d 76090000 		.4byte	.LASF209
 1780 0c51 0B       		.byte	0xb
 1781 0c52 18       		.uleb128 0x18
 1782 0c53 FE0B0000 		.4byte	.LASF210
 1783 0c57 0C       		.byte	0xc
 1784 0c58 18       		.uleb128 0x18
 1785 0c59 5D0D0000 		.4byte	.LASF211
 1786 0c5d 0D       		.byte	0xd
 1787 0c5e 18       		.uleb128 0x18
 1788 0c5f BA080000 		.4byte	.LASF212
 1789 0c63 0E       		.byte	0xe
 1790 0c64 18       		.uleb128 0x18
 1791 0c65 9B010000 		.4byte	.LASF213
 1792 0c69 0F       		.byte	0xf
 1793 0c6a 00       		.byte	0
 1794 0c6b 19       		.uleb128 0x19
 1795 0c6c D2030000 		.4byte	.LASF214
 1796 0c70 0D       		.byte	0xd
 1797 0c71 9501     		.2byte	0x195
 1798 0c73 FD0B0000 		.4byte	0xbfd
 1799 0c77 1B       		.uleb128 0x1b
 1800 0c78 0A       		.byte	0xa
 1801 0c79 0D       		.byte	0xd
 1802 0c7a 9701     		.2byte	0x197
 1803 0c7c E90C0000 		.4byte	0xce9
 1804 0c80 09       		.uleb128 0x9
 1805 0c81 74010000 		.4byte	.LASF215
 1806 0c85 0D       		.byte	0xd
 1807 0c86 9801     		.2byte	0x198
 1808 0c88 8D0B0000 		.4byte	0xb8d
 1809 0c8c 00       		.byte	0
 1810 0c8d 09       		.uleb128 0x9
 1811 0c8e 2E0E0000 		.4byte	.LASF216
 1812 0c92 0D       		.byte	0xd
 1813 0c93 9901     		.2byte	0x199
 1814 0c95 C50B0000 		.4byte	0xbc5
 1815 0c99 01       		.byte	0x1
 1816 0c9a 09       		.uleb128 0x9
 1817 0c9b 36030000 		.4byte	.LASF217
 1818 0c9f 0D       		.byte	0xd
 1819 0ca0 9A01     		.2byte	0x19a
 1820 0ca2 F10B0000 		.4byte	0xbf1
ARM GAS  /var/folders/sv/kgmgr77579zbf78p2zlhkdfr0000gn/T//cc5pHw1f.s 			page 33


 1821 0ca6 02       		.byte	0x2
 1822 0ca7 09       		.uleb128 0x9
 1823 0ca8 AA060000 		.4byte	.LASF218
 1824 0cac 0D       		.byte	0xd
 1825 0cad 9B01     		.2byte	0x19b
 1826 0caf 6B0C0000 		.4byte	0xc6b
 1827 0cb3 03       		.byte	0x3
 1828 0cb4 09       		.uleb128 0x9
 1829 0cb5 340E0000 		.4byte	.LASF219
 1830 0cb9 0D       		.byte	0xd
 1831 0cba 9C01     		.2byte	0x19c
 1832 0cbc 37000000 		.4byte	0x37
 1833 0cc0 04       		.byte	0x4
 1834 0cc1 09       		.uleb128 0x9
 1835 0cc2 270A0000 		.4byte	.LASF220
 1836 0cc6 0D       		.byte	0xd
 1837 0cc7 9D01     		.2byte	0x19d
 1838 0cc9 37000000 		.4byte	0x37
 1839 0ccd 05       		.byte	0x5
 1840 0cce 09       		.uleb128 0x9
 1841 0ccf 3E0C0000 		.4byte	.LASF221
 1842 0cd3 0D       		.byte	0xd
 1843 0cd4 9E01     		.2byte	0x19e
 1844 0cd6 E90C0000 		.4byte	0xce9
 1845 0cda 06       		.byte	0x6
 1846 0cdb 09       		.uleb128 0x9
 1847 0cdc 210E0000 		.4byte	.LASF222
 1848 0ce0 0D       		.byte	0xd
 1849 0ce1 9F01     		.2byte	0x19f
 1850 0ce3 4B070000 		.4byte	0x74b
 1851 0ce7 09       		.byte	0x9
 1852 0ce8 00       		.byte	0
 1853 0ce9 15       		.uleb128 0x15
 1854 0cea 37000000 		.4byte	0x37
 1855 0cee F90C0000 		.4byte	0xcf9
 1856 0cf2 16       		.uleb128 0x16
 1857 0cf3 6F040000 		.4byte	0x46f
 1858 0cf7 02       		.byte	0x2
 1859 0cf8 00       		.byte	0
 1860 0cf9 19       		.uleb128 0x19
 1861 0cfa 17040000 		.4byte	.LASF223
 1862 0cfe 0D       		.byte	0xd
 1863 0cff A001     		.2byte	0x1a0
 1864 0d01 770C0000 		.4byte	0xc77
 1865 0d05 1B       		.uleb128 0x1b
 1866 0d06 C8       		.byte	0xc8
 1867 0d07 0D       		.byte	0xd
 1868 0d08 A201     		.2byte	0x1a2
 1869 0d0a AB0D0000 		.4byte	0xdab
 1870 0d0e 09       		.uleb128 0x9
 1871 0d0f EF070000 		.4byte	.LASF224
 1872 0d13 0D       		.byte	0xd
 1873 0d14 A401     		.2byte	0x1a4
 1874 0d16 97000000 		.4byte	0x97
 1875 0d1a 00       		.byte	0
 1876 0d1b 09       		.uleb128 0x9
 1877 0d1c 2E060000 		.4byte	.LASF225
ARM GAS  /var/folders/sv/kgmgr77579zbf78p2zlhkdfr0000gn/T//cc5pHw1f.s 			page 34


 1878 0d20 0D       		.byte	0xd
 1879 0d21 A501     		.2byte	0x1a5
 1880 0d23 AD000000 		.4byte	0xad
 1881 0d27 04       		.byte	0x4
 1882 0d28 09       		.uleb128 0x9
 1883 0d29 0B0E0000 		.4byte	.LASF226
 1884 0d2d 0D       		.byte	0xd
 1885 0d2e A601     		.2byte	0x1a6
 1886 0d30 14070000 		.4byte	0x714
 1887 0d34 08       		.byte	0x8
 1888 0d35 09       		.uleb128 0x9
 1889 0d36 20000000 		.4byte	.LASF227
 1890 0d3a 0D       		.byte	0xd
 1891 0d3b A701     		.2byte	0x1a7
 1892 0d3d 4B070000 		.4byte	0x74b
 1893 0d41 0C       		.byte	0xc
 1894 0d42 09       		.uleb128 0x9
 1895 0d43 FD070000 		.4byte	.LASF228
 1896 0d47 0D       		.byte	0xd
 1897 0d48 A801     		.2byte	0x1a8
 1898 0d4a AD000000 		.4byte	0xad
 1899 0d4e 10       		.byte	0x10
 1900 0d4f 09       		.uleb128 0x9
 1901 0d50 640B0000 		.4byte	.LASF229
 1902 0d54 0D       		.byte	0xd
 1903 0d55 A901     		.2byte	0x1a9
 1904 0d57 40070000 		.4byte	0x740
 1905 0d5b 14       		.byte	0x14
 1906 0d5c 09       		.uleb128 0x9
 1907 0d5d 83060000 		.4byte	.LASF230
 1908 0d61 0D       		.byte	0xd
 1909 0d62 AC01     		.2byte	0x1ac
 1910 0d64 95070000 		.4byte	0x795
 1911 0d68 15       		.byte	0x15
 1912 0d69 09       		.uleb128 0x9
 1913 0d6a 19010000 		.4byte	.LASF231
 1914 0d6e 0D       		.byte	0xd
 1915 0d6f AF01     		.2byte	0x1af
 1916 0d71 F0080000 		.4byte	0x8f0
 1917 0d75 18       		.byte	0x18
 1918 0d76 09       		.uleb128 0x9
 1919 0d77 F90E0000 		.4byte	.LASF232
 1920 0d7b 0D       		.byte	0xd
 1921 0d7c B201     		.2byte	0x1b2
 1922 0d7e 910A0000 		.4byte	0xa91
 1923 0d82 50       		.byte	0x50
 1924 0d83 09       		.uleb128 0x9
 1925 0d84 0D0D0000 		.4byte	.LASF233
 1926 0d88 0D       		.byte	0xd
 1927 0d89 B501     		.2byte	0x1b5
 1928 0d8b AD000000 		.4byte	0xad
 1929 0d8f 94       		.byte	0x94
 1930 0d90 09       		.uleb128 0x9
 1931 0d91 DC090000 		.4byte	.LASF234
 1932 0d95 0D       		.byte	0xd
 1933 0d96 B801     		.2byte	0x1b8
 1934 0d98 610B0000 		.4byte	0xb61
ARM GAS  /var/folders/sv/kgmgr77579zbf78p2zlhkdfr0000gn/T//cc5pHw1f.s 			page 35


 1935 0d9c 98       		.byte	0x98
 1936 0d9d 09       		.uleb128 0x9
 1937 0d9e EB020000 		.4byte	.LASF235
 1938 0da2 0D       		.byte	0xd
 1939 0da3 BB01     		.2byte	0x1bb
 1940 0da5 F90C0000 		.4byte	0xcf9
 1941 0da9 BC       		.byte	0xbc
 1942 0daa 00       		.byte	0
 1943 0dab 19       		.uleb128 0x19
 1944 0dac CC060000 		.4byte	.LASF236
 1945 0db0 0D       		.byte	0xd
 1946 0db1 BC01     		.2byte	0x1bc
 1947 0db3 050D0000 		.4byte	0xd05
 1948 0db7 1C       		.uleb128 0x1c
 1949 0db8 900F0000 		.4byte	.LASF263
 1950 0dbc 01       		.byte	0x1
 1951 0dbd 1F       		.byte	0x1f
 1952 0dbe CC0D0000 		.4byte	0xdcc
 1953 0dc2 00000000 		.4byte	.LFB256
 1954 0dc6 08000000 		.4byte	.LFE256-.LFB256
 1955 0dca 01       		.uleb128 0x1
 1956 0dcb 9C       		.byte	0x9c
 1957 0dcc 0A       		.uleb128 0xa
 1958 0dcd 04       		.byte	0x4
 1959 0dce D20D0000 		.4byte	0xdd2
 1960 0dd2 14       		.uleb128 0x14
 1961 0dd3 AB0D0000 		.4byte	0xdab
 1962 0dd7 1D       		.uleb128 0x1d
 1963 0dd8 B50E0000 		.4byte	.LASF264
 1964 0ddc 01       		.byte	0x1
 1965 0ddd 29       		.byte	0x29
 1966 0dde 00000000 		.4byte	.LFB257
 1967 0de2 E0000000 		.4byte	.LFE257-.LFB257
 1968 0de6 01       		.uleb128 0x1
 1969 0de7 9C       		.byte	0x9c
 1970 0de8 720F0000 		.4byte	0xf72
 1971 0dec 1E       		.uleb128 0x1e
 1972 0ded 66000000 		.4byte	.LASF265
 1973 0df1 01       		.byte	0x1
 1974 0df2 29       		.byte	0x29
 1975 0df3 720F0000 		.4byte	0xf72
 1976 0df7 00000000 		.4byte	.LLST0
 1977 0dfb 1F       		.uleb128 0x1f
 1978 0dfc 10000000 		.4byte	.LVL2
 1979 0e00 AB0F0000 		.4byte	0xfab
 1980 0e04 1E0E0000 		.4byte	0xe1e
 1981 0e08 20       		.uleb128 0x20
 1982 0e09 01       		.uleb128 0x1
 1983 0e0a 50       		.byte	0x50
 1984 0e0b 05       		.uleb128 0x5
 1985 0e0c 03       		.byte	0x3
 1986 0e0d 00000000 		.4byte	.LANCHOR0
 1987 0e11 20       		.uleb128 0x20
 1988 0e12 01       		.uleb128 0x1
 1989 0e13 51       		.byte	0x51
 1990 0e14 02       		.uleb128 0x2
 1991 0e15 74       		.byte	0x74
ARM GAS  /var/folders/sv/kgmgr77579zbf78p2zlhkdfr0000gn/T//cc5pHw1f.s 			page 36


 1992 0e16 00       		.sleb128 0
 1993 0e17 20       		.uleb128 0x20
 1994 0e18 01       		.uleb128 0x1
 1995 0e19 52       		.byte	0x52
 1996 0e1a 02       		.uleb128 0x2
 1997 0e1b 08       		.byte	0x8
 1998 0e1c C8       		.byte	0xc8
 1999 0e1d 00       		.byte	0
 2000 0e1e 21       		.uleb128 0x21
 2001 0e1f 14000000 		.4byte	.LVL3
 2002 0e23 B40F0000 		.4byte	0xfb4
 2003 0e27 21       		.uleb128 0x21
 2004 0e28 18000000 		.4byte	.LVL4
 2005 0e2c BF0F0000 		.4byte	0xfbf
 2006 0e30 21       		.uleb128 0x21
 2007 0e31 1C000000 		.4byte	.LVL5
 2008 0e35 CA0F0000 		.4byte	0xfca
 2009 0e39 21       		.uleb128 0x21
 2010 0e3a 20000000 		.4byte	.LVL6
 2011 0e3e D50F0000 		.4byte	0xfd5
 2012 0e42 21       		.uleb128 0x21
 2013 0e43 2C000000 		.4byte	.LVL7
 2014 0e47 E00F0000 		.4byte	0xfe0
 2015 0e4b 21       		.uleb128 0x21
 2016 0e4c 30000000 		.4byte	.LVL8
 2017 0e50 EB0F0000 		.4byte	0xfeb
 2018 0e54 21       		.uleb128 0x21
 2019 0e55 48000000 		.4byte	.LVL9
 2020 0e59 F60F0000 		.4byte	0xff6
 2021 0e5d 1F       		.uleb128 0x1f
 2022 0e5e 4E000000 		.4byte	.LVL10
 2023 0e62 01100000 		.4byte	0x1001
 2024 0e66 740E0000 		.4byte	0xe74
 2025 0e6a 20       		.uleb128 0x20
 2026 0e6b 01       		.uleb128 0x1
 2027 0e6c 50       		.byte	0x50
 2028 0e6d 05       		.uleb128 0x5
 2029 0e6e 03       		.byte	0x3
 2030 0e6f 18000000 		.4byte	.LANCHOR0+24
 2031 0e73 00       		.byte	0
 2032 0e74 1F       		.uleb128 0x1f
 2033 0e75 54000000 		.4byte	.LVL11
 2034 0e79 0C100000 		.4byte	0x100c
 2035 0e7d 8B0E0000 		.4byte	0xe8b
 2036 0e81 20       		.uleb128 0x20
 2037 0e82 01       		.uleb128 0x1
 2038 0e83 50       		.byte	0x50
 2039 0e84 05       		.uleb128 0x5
 2040 0e85 03       		.byte	0x3
 2041 0e86 50000000 		.4byte	.LANCHOR0+80
 2042 0e8a 00       		.byte	0
 2043 0e8b 21       		.uleb128 0x21
 2044 0e8c 5C000000 		.4byte	.LVL12
 2045 0e90 17100000 		.4byte	0x1017
 2046 0e94 1F       		.uleb128 0x1f
 2047 0e95 62000000 		.4byte	.LVL13
 2048 0e99 22100000 		.4byte	0x1022
ARM GAS  /var/folders/sv/kgmgr77579zbf78p2zlhkdfr0000gn/T//cc5pHw1f.s 			page 37


 2049 0e9d AB0E0000 		.4byte	0xeab
 2050 0ea1 20       		.uleb128 0x20
 2051 0ea2 01       		.uleb128 0x1
 2052 0ea3 50       		.byte	0x50
 2053 0ea4 05       		.uleb128 0x5
 2054 0ea5 03       		.byte	0x3
 2055 0ea6 98000000 		.4byte	.LANCHOR0+152
 2056 0eaa 00       		.byte	0
 2057 0eab 1F       		.uleb128 0x1f
 2058 0eac 68000000 		.4byte	.LVL14
 2059 0eb0 2D100000 		.4byte	0x102d
 2060 0eb4 BF0E0000 		.4byte	0xebf
 2061 0eb8 20       		.uleb128 0x20
 2062 0eb9 01       		.uleb128 0x1
 2063 0eba 50       		.byte	0x50
 2064 0ebb 02       		.uleb128 0x2
 2065 0ebc 75       		.byte	0x75
 2066 0ebd 00       		.sleb128 0
 2067 0ebe 00       		.byte	0
 2068 0ebf 22       		.uleb128 0x22
 2069 0ec0 72000000 		.4byte	.LVL16
 2070 0ec4 38100000 		.4byte	0x1038
 2071 0ec8 D60E0000 		.4byte	0xed6
 2072 0ecc 20       		.uleb128 0x20
 2073 0ecd 01       		.uleb128 0x1
 2074 0ece 50       		.byte	0x50
 2075 0ecf 05       		.uleb128 0x5
 2076 0ed0 03       		.byte	0x3
 2077 0ed1 BC000000 		.4byte	.LANCHOR0+188
 2078 0ed5 00       		.byte	0
 2079 0ed6 21       		.uleb128 0x21
 2080 0ed7 76000000 		.4byte	.LVL17
 2081 0edb 43100000 		.4byte	0x1043
 2082 0edf 21       		.uleb128 0x21
 2083 0ee0 7C000000 		.4byte	.LVL18
 2084 0ee4 4E100000 		.4byte	0x104e
 2085 0ee8 21       		.uleb128 0x21
 2086 0ee9 80000000 		.4byte	.LVL19
 2087 0eed 59100000 		.4byte	0x1059
 2088 0ef1 21       		.uleb128 0x21
 2089 0ef2 86000000 		.4byte	.LVL20
 2090 0ef6 64100000 		.4byte	0x1064
 2091 0efa 1F       		.uleb128 0x1f
 2092 0efb 8E000000 		.4byte	.LVL21
 2093 0eff 6F100000 		.4byte	0x106f
 2094 0f03 0D0F0000 		.4byte	0xf0d
 2095 0f07 20       		.uleb128 0x20
 2096 0f08 01       		.uleb128 0x1
 2097 0f09 50       		.byte	0x50
 2098 0f0a 01       		.uleb128 0x1
 2099 0f0b 31       		.byte	0x31
 2100 0f0c 00       		.byte	0
 2101 0f0d 21       		.uleb128 0x21
 2102 0f0e 94000000 		.4byte	.LVL22
 2103 0f12 4E100000 		.4byte	0x104e
 2104 0f16 21       		.uleb128 0x21
 2105 0f17 98000000 		.4byte	.LVL23
ARM GAS  /var/folders/sv/kgmgr77579zbf78p2zlhkdfr0000gn/T//cc5pHw1f.s 			page 38


 2106 0f1b 7A100000 		.4byte	0x107a
 2107 0f1f 21       		.uleb128 0x21
 2108 0f20 9E000000 		.4byte	.LVL24
 2109 0f24 4E100000 		.4byte	0x104e
 2110 0f28 21       		.uleb128 0x21
 2111 0f29 A2000000 		.4byte	.LVL25
 2112 0f2d 64100000 		.4byte	0x1064
 2113 0f31 21       		.uleb128 0x21
 2114 0f32 A6000000 		.4byte	.LVL26
 2115 0f36 7A100000 		.4byte	0x107a
 2116 0f3a 21       		.uleb128 0x21
 2117 0f3b AC000000 		.4byte	.LVL27
 2118 0f3f 4E100000 		.4byte	0x104e
 2119 0f43 1F       		.uleb128 0x1f
 2120 0f44 B2000000 		.4byte	.LVL28
 2121 0f48 6F100000 		.4byte	0x106f
 2122 0f4c 560F0000 		.4byte	0xf56
 2123 0f50 20       		.uleb128 0x20
 2124 0f51 01       		.uleb128 0x1
 2125 0f52 50       		.byte	0x50
 2126 0f53 01       		.uleb128 0x1
 2127 0f54 30       		.byte	0x30
 2128 0f55 00       		.byte	0
 2129 0f56 21       		.uleb128 0x21
 2130 0f57 B6000000 		.4byte	.LVL29
 2131 0f5b 7A100000 		.4byte	0x107a
 2132 0f5f 21       		.uleb128 0x21
 2133 0f60 C2000000 		.4byte	.LVL30
 2134 0f64 85100000 		.4byte	0x1085
 2135 0f68 21       		.uleb128 0x21
 2136 0f69 C6000000 		.4byte	.LVL31
 2137 0f6d 90100000 		.4byte	0x1090
 2138 0f71 00       		.byte	0
 2139 0f72 0A       		.uleb128 0xa
 2140 0f73 04       		.byte	0x4
 2141 0f74 AB0D0000 		.4byte	0xdab
 2142 0f78 23       		.uleb128 0x23
 2143 0f79 A50C0000 		.4byte	.LASF266
 2144 0f7d 01       		.byte	0x1
 2145 0f7e 1D       		.byte	0x1d
 2146 0f7f AB0D0000 		.4byte	0xdab
 2147 0f83 05       		.uleb128 0x5
 2148 0f84 03       		.byte	0x3
 2149 0f85 00000000 		.4byte	appconf
 2150 0f89 24       		.uleb128 0x24
 2151 0f8a F30A0000 		.4byte	.LASF237
 2152 0f8e 0E       		.byte	0xe
 2153 0f8f A706     		.2byte	0x6a7
 2154 0f91 CE000000 		.4byte	0xce
 2155 0f95 25       		.uleb128 0x25
 2156 0f96 636800   		.ascii	"ch\000"
 2157 0f99 07       		.byte	0x7
 2158 0f9a 0902     		.2byte	0x209
 2159 0f9c 08040000 		.4byte	0x408
 2160 0fa0 26       		.uleb128 0x26
 2161 0fa1 7A010000 		.4byte	.LASF238
 2162 0fa5 0F       		.byte	0xf
ARM GAS  /var/folders/sv/kgmgr77579zbf78p2zlhkdfr0000gn/T//cc5pHw1f.s 			page 39


 2163 0fa6 A0       		.byte	0xa0
 2164 0fa7 4B070000 		.4byte	0x74b
 2165 0fab 27       		.uleb128 0x27
 2166 0fac E30E0000 		.4byte	.LASF267
 2167 0fb0 E30E0000 		.4byte	.LASF267
 2168 0fb4 28       		.uleb128 0x28
 2169 0fb5 68060000 		.4byte	.LASF239
 2170 0fb9 68060000 		.4byte	.LASF239
 2171 0fbd 10       		.byte	0x10
 2172 0fbe 1F       		.byte	0x1f
 2173 0fbf 28       		.uleb128 0x28
 2174 0fc0 87030000 		.4byte	.LASF240
 2175 0fc4 87030000 		.4byte	.LASF240
 2176 0fc8 10       		.byte	0x10
 2177 0fc9 24       		.byte	0x24
 2178 0fca 28       		.uleb128 0x28
 2179 0fcb 23020000 		.4byte	.LASF241
 2180 0fcf 23020000 		.4byte	.LASF241
 2181 0fd3 10       		.byte	0x10
 2182 0fd4 2C       		.byte	0x2c
 2183 0fd5 28       		.uleb128 0x28
 2184 0fd6 720B0000 		.4byte	.LASF242
 2185 0fda 720B0000 		.4byte	.LASF242
 2186 0fde 10       		.byte	0x10
 2187 0fdf 30       		.byte	0x30
 2188 0fe0 28       		.uleb128 0x28
 2189 0fe1 ED0D0000 		.4byte	.LASF243
 2190 0fe5 ED0D0000 		.4byte	.LASF243
 2191 0fe9 11       		.byte	0x11
 2192 0fea 1F       		.byte	0x1f
 2193 0feb 28       		.uleb128 0x28
 2194 0fec 35020000 		.4byte	.LASF244
 2195 0ff0 35020000 		.4byte	.LASF244
 2196 0ff4 10       		.byte	0x10
 2197 0ff5 37       		.byte	0x37
 2198 0ff6 28       		.uleb128 0x28
 2199 0ff7 A30A0000 		.4byte	.LASF245
 2200 0ffb A30A0000 		.4byte	.LASF245
 2201 0fff 10       		.byte	0x10
 2202 1000 2F       		.byte	0x2f
 2203 1001 28       		.uleb128 0x28
 2204 1002 22040000 		.4byte	.LASF246
 2205 1006 22040000 		.4byte	.LASF246
 2206 100a 10       		.byte	0x10
 2207 100b 21       		.byte	0x21
 2208 100c 28       		.uleb128 0x28
 2209 100d 0C070000 		.4byte	.LASF247
 2210 1011 0C070000 		.4byte	.LASF247
 2211 1015 10       		.byte	0x10
 2212 1016 25       		.byte	0x25
 2213 1017 28       		.uleb128 0x28
 2214 1018 C60D0000 		.4byte	.LASF248
 2215 101c C60D0000 		.4byte	.LASF248
 2216 1020 10       		.byte	0x10
 2217 1021 2D       		.byte	0x2d
 2218 1022 28       		.uleb128 0x28
 2219 1023 7B0E0000 		.4byte	.LASF249
ARM GAS  /var/folders/sv/kgmgr77579zbf78p2zlhkdfr0000gn/T//cc5pHw1f.s 			page 40


 2220 1027 7B0E0000 		.4byte	.LASF249
 2221 102b 10       		.byte	0x10
 2222 102c 31       		.byte	0x31
 2223 102d 28       		.uleb128 0x28
 2224 102e 8E060000 		.4byte	.LASF250
 2225 1032 8E060000 		.4byte	.LASF250
 2226 1036 10       		.byte	0x10
 2227 1037 38       		.byte	0x38
 2228 1038 28       		.uleb128 0x28
 2229 1039 9D000000 		.4byte	.LASF251
 2230 103d 9D000000 		.4byte	.LASF251
 2231 1041 12       		.byte	0x12
 2232 1042 1D       		.byte	0x1d
 2233 1043 28       		.uleb128 0x28
 2234 1044 DD0D0000 		.4byte	.LASF252
 2235 1048 DD0D0000 		.4byte	.LASF252
 2236 104c 13       		.byte	0x13
 2237 104d 1B       		.byte	0x1b
 2238 104e 28       		.uleb128 0x28
 2239 104f 000B0000 		.4byte	.LASF253
 2240 1053 000B0000 		.4byte	.LASF253
 2241 1057 14       		.byte	0x14
 2242 1058 41       		.byte	0x41
 2243 1059 28       		.uleb128 0x28
 2244 105a B0000000 		.4byte	.LASF254
 2245 105e B0000000 		.4byte	.LASF254
 2246 1062 10       		.byte	0x10
 2247 1063 36       		.byte	0x36
 2248 1064 28       		.uleb128 0x28
 2249 1065 8D0B0000 		.4byte	.LASF255
 2250 1069 8D0B0000 		.4byte	.LASF255
 2251 106d 10       		.byte	0x10
 2252 106e 1E       		.byte	0x1e
 2253 106f 28       		.uleb128 0x28
 2254 1070 D0080000 		.4byte	.LASF256
 2255 1074 D0080000 		.4byte	.LASF256
 2256 1078 10       		.byte	0x10
 2257 1079 23       		.byte	0x23
 2258 107a 28       		.uleb128 0x28
 2259 107b 940D0000 		.4byte	.LASF257
 2260 107f 940D0000 		.4byte	.LASF257
 2261 1083 10       		.byte	0x10
 2262 1084 2B       		.byte	0x2b
 2263 1085 28       		.uleb128 0x28
 2264 1086 E6040000 		.4byte	.LASF258
 2265 108a E6040000 		.4byte	.LASF258
 2266 108e 13       		.byte	0x13
 2267 108f 1A       		.byte	0x1a
 2268 1090 28       		.uleb128 0x28
 2269 1091 BA090000 		.4byte	.LASF259
 2270 1095 BA090000 		.4byte	.LASF259
 2271 1099 12       		.byte	0x12
 2272 109a 1E       		.byte	0x1e
 2273 109b 00       		.byte	0
 2274              		.section	.debug_abbrev,"",%progbits
 2275              	.Ldebug_abbrev0:
 2276 0000 01       		.uleb128 0x1
ARM GAS  /var/folders/sv/kgmgr77579zbf78p2zlhkdfr0000gn/T//cc5pHw1f.s 			page 41


 2277 0001 11       		.uleb128 0x11
 2278 0002 01       		.byte	0x1
 2279 0003 25       		.uleb128 0x25
 2280 0004 0E       		.uleb128 0xe
 2281 0005 13       		.uleb128 0x13
 2282 0006 0B       		.uleb128 0xb
 2283 0007 03       		.uleb128 0x3
 2284 0008 0E       		.uleb128 0xe
 2285 0009 1B       		.uleb128 0x1b
 2286 000a 0E       		.uleb128 0xe
 2287 000b 55       		.uleb128 0x55
 2288 000c 17       		.uleb128 0x17
 2289 000d 11       		.uleb128 0x11
 2290 000e 01       		.uleb128 0x1
 2291 000f 10       		.uleb128 0x10
 2292 0010 17       		.uleb128 0x17
 2293 0011 00       		.byte	0
 2294 0012 00       		.byte	0
 2295 0013 02       		.uleb128 0x2
 2296 0014 24       		.uleb128 0x24
 2297 0015 00       		.byte	0
 2298 0016 0B       		.uleb128 0xb
 2299 0017 0B       		.uleb128 0xb
 2300 0018 3E       		.uleb128 0x3e
 2301 0019 0B       		.uleb128 0xb
 2302 001a 03       		.uleb128 0x3
 2303 001b 0E       		.uleb128 0xe
 2304 001c 00       		.byte	0
 2305 001d 00       		.byte	0
 2306 001e 03       		.uleb128 0x3
 2307 001f 16       		.uleb128 0x16
 2308 0020 00       		.byte	0
 2309 0021 03       		.uleb128 0x3
 2310 0022 0E       		.uleb128 0xe
 2311 0023 3A       		.uleb128 0x3a
 2312 0024 0B       		.uleb128 0xb
 2313 0025 3B       		.uleb128 0x3b
 2314 0026 0B       		.uleb128 0xb
 2315 0027 49       		.uleb128 0x49
 2316 0028 13       		.uleb128 0x13
 2317 0029 00       		.byte	0
 2318 002a 00       		.byte	0
 2319 002b 04       		.uleb128 0x4
 2320 002c 24       		.uleb128 0x24
 2321 002d 00       		.byte	0
 2322 002e 0B       		.uleb128 0xb
 2323 002f 0B       		.uleb128 0xb
 2324 0030 3E       		.uleb128 0x3e
 2325 0031 0B       		.uleb128 0xb
 2326 0032 03       		.uleb128 0x3
 2327 0033 08       		.uleb128 0x8
 2328 0034 00       		.byte	0
 2329 0035 00       		.byte	0
 2330 0036 05       		.uleb128 0x5
 2331 0037 35       		.uleb128 0x35
 2332 0038 00       		.byte	0
 2333 0039 49       		.uleb128 0x49
ARM GAS  /var/folders/sv/kgmgr77579zbf78p2zlhkdfr0000gn/T//cc5pHw1f.s 			page 42


 2334 003a 13       		.uleb128 0x13
 2335 003b 00       		.byte	0
 2336 003c 00       		.byte	0
 2337 003d 06       		.uleb128 0x6
 2338 003e 13       		.uleb128 0x13
 2339 003f 01       		.byte	0x1
 2340 0040 03       		.uleb128 0x3
 2341 0041 0E       		.uleb128 0xe
 2342 0042 0B       		.uleb128 0xb
 2343 0043 0B       		.uleb128 0xb
 2344 0044 3A       		.uleb128 0x3a
 2345 0045 0B       		.uleb128 0xb
 2346 0046 3B       		.uleb128 0x3b
 2347 0047 0B       		.uleb128 0xb
 2348 0048 01       		.uleb128 0x1
 2349 0049 13       		.uleb128 0x13
 2350 004a 00       		.byte	0
 2351 004b 00       		.byte	0
 2352 004c 07       		.uleb128 0x7
 2353 004d 0D       		.uleb128 0xd
 2354 004e 00       		.byte	0
 2355 004f 03       		.uleb128 0x3
 2356 0050 0E       		.uleb128 0xe
 2357 0051 3A       		.uleb128 0x3a
 2358 0052 0B       		.uleb128 0xb
 2359 0053 3B       		.uleb128 0x3b
 2360 0054 0B       		.uleb128 0xb
 2361 0055 49       		.uleb128 0x49
 2362 0056 13       		.uleb128 0x13
 2363 0057 38       		.uleb128 0x38
 2364 0058 0B       		.uleb128 0xb
 2365 0059 00       		.byte	0
 2366 005a 00       		.byte	0
 2367 005b 08       		.uleb128 0x8
 2368 005c 0D       		.uleb128 0xd
 2369 005d 00       		.byte	0
 2370 005e 03       		.uleb128 0x3
 2371 005f 08       		.uleb128 0x8
 2372 0060 3A       		.uleb128 0x3a
 2373 0061 0B       		.uleb128 0xb
 2374 0062 3B       		.uleb128 0x3b
 2375 0063 05       		.uleb128 0x5
 2376 0064 49       		.uleb128 0x49
 2377 0065 13       		.uleb128 0x13
 2378 0066 38       		.uleb128 0x38
 2379 0067 0B       		.uleb128 0xb
 2380 0068 00       		.byte	0
 2381 0069 00       		.byte	0
 2382 006a 09       		.uleb128 0x9
 2383 006b 0D       		.uleb128 0xd
 2384 006c 00       		.byte	0
 2385 006d 03       		.uleb128 0x3
 2386 006e 0E       		.uleb128 0xe
 2387 006f 3A       		.uleb128 0x3a
 2388 0070 0B       		.uleb128 0xb
 2389 0071 3B       		.uleb128 0x3b
 2390 0072 05       		.uleb128 0x5
ARM GAS  /var/folders/sv/kgmgr77579zbf78p2zlhkdfr0000gn/T//cc5pHw1f.s 			page 43


 2391 0073 49       		.uleb128 0x49
 2392 0074 13       		.uleb128 0x13
 2393 0075 38       		.uleb128 0x38
 2394 0076 0B       		.uleb128 0xb
 2395 0077 00       		.byte	0
 2396 0078 00       		.byte	0
 2397 0079 0A       		.uleb128 0xa
 2398 007a 0F       		.uleb128 0xf
 2399 007b 00       		.byte	0
 2400 007c 0B       		.uleb128 0xb
 2401 007d 0B       		.uleb128 0xb
 2402 007e 49       		.uleb128 0x49
 2403 007f 13       		.uleb128 0x13
 2404 0080 00       		.byte	0
 2405 0081 00       		.byte	0
 2406 0082 0B       		.uleb128 0xb
 2407 0083 13       		.uleb128 0x13
 2408 0084 01       		.byte	0x1
 2409 0085 03       		.uleb128 0x3
 2410 0086 0E       		.uleb128 0xe
 2411 0087 0B       		.uleb128 0xb
 2412 0088 0B       		.uleb128 0xb
 2413 0089 3A       		.uleb128 0x3a
 2414 008a 0B       		.uleb128 0xb
 2415 008b 3B       		.uleb128 0x3b
 2416 008c 05       		.uleb128 0x5
 2417 008d 01       		.uleb128 0x1
 2418 008e 13       		.uleb128 0x13
 2419 008f 00       		.byte	0
 2420 0090 00       		.byte	0
 2421 0091 0C       		.uleb128 0xc
 2422 0092 15       		.uleb128 0x15
 2423 0093 01       		.byte	0x1
 2424 0094 27       		.uleb128 0x27
 2425 0095 19       		.uleb128 0x19
 2426 0096 01       		.uleb128 0x1
 2427 0097 13       		.uleb128 0x13
 2428 0098 00       		.byte	0
 2429 0099 00       		.byte	0
 2430 009a 0D       		.uleb128 0xd
 2431 009b 05       		.uleb128 0x5
 2432 009c 00       		.byte	0
 2433 009d 49       		.uleb128 0x49
 2434 009e 13       		.uleb128 0x13
 2435 009f 00       		.byte	0
 2436 00a0 00       		.byte	0
 2437 00a1 0E       		.uleb128 0xe
 2438 00a2 0F       		.uleb128 0xf
 2439 00a3 00       		.byte	0
 2440 00a4 0B       		.uleb128 0xb
 2441 00a5 0B       		.uleb128 0xb
 2442 00a6 00       		.byte	0
 2443 00a7 00       		.byte	0
 2444 00a8 0F       		.uleb128 0xf
 2445 00a9 13       		.uleb128 0x13
 2446 00aa 01       		.byte	0x1
 2447 00ab 03       		.uleb128 0x3
ARM GAS  /var/folders/sv/kgmgr77579zbf78p2zlhkdfr0000gn/T//cc5pHw1f.s 			page 44


 2448 00ac 0E       		.uleb128 0xe
 2449 00ad 0B       		.uleb128 0xb
 2450 00ae 05       		.uleb128 0x5
 2451 00af 3A       		.uleb128 0x3a
 2452 00b0 0B       		.uleb128 0xb
 2453 00b1 3B       		.uleb128 0x3b
 2454 00b2 05       		.uleb128 0x5
 2455 00b3 01       		.uleb128 0x1
 2456 00b4 13       		.uleb128 0x13
 2457 00b5 00       		.byte	0
 2458 00b6 00       		.byte	0
 2459 00b7 10       		.uleb128 0x10
 2460 00b8 0D       		.uleb128 0xd
 2461 00b9 00       		.byte	0
 2462 00ba 03       		.uleb128 0x3
 2463 00bb 08       		.uleb128 0x8
 2464 00bc 3A       		.uleb128 0x3a
 2465 00bd 0B       		.uleb128 0xb
 2466 00be 3B       		.uleb128 0x3b
 2467 00bf 0B       		.uleb128 0xb
 2468 00c0 49       		.uleb128 0x49
 2469 00c1 13       		.uleb128 0x13
 2470 00c2 38       		.uleb128 0x38
 2471 00c3 0B       		.uleb128 0xb
 2472 00c4 00       		.byte	0
 2473 00c5 00       		.byte	0
 2474 00c6 11       		.uleb128 0x11
 2475 00c7 13       		.uleb128 0x13
 2476 00c8 01       		.byte	0x1
 2477 00c9 0B       		.uleb128 0xb
 2478 00ca 0B       		.uleb128 0xb
 2479 00cb 3A       		.uleb128 0x3a
 2480 00cc 0B       		.uleb128 0xb
 2481 00cd 3B       		.uleb128 0x3b
 2482 00ce 0B       		.uleb128 0xb
 2483 00cf 01       		.uleb128 0x1
 2484 00d0 13       		.uleb128 0x13
 2485 00d1 00       		.byte	0
 2486 00d2 00       		.byte	0
 2487 00d3 12       		.uleb128 0x12
 2488 00d4 17       		.uleb128 0x17
 2489 00d5 01       		.byte	0x1
 2490 00d6 0B       		.uleb128 0xb
 2491 00d7 0B       		.uleb128 0xb
 2492 00d8 3A       		.uleb128 0x3a
 2493 00d9 0B       		.uleb128 0xb
 2494 00da 3B       		.uleb128 0x3b
 2495 00db 0B       		.uleb128 0xb
 2496 00dc 01       		.uleb128 0x1
 2497 00dd 13       		.uleb128 0x13
 2498 00de 00       		.byte	0
 2499 00df 00       		.byte	0
 2500 00e0 13       		.uleb128 0x13
 2501 00e1 0D       		.uleb128 0xd
 2502 00e2 00       		.byte	0
 2503 00e3 03       		.uleb128 0x3
 2504 00e4 0E       		.uleb128 0xe
ARM GAS  /var/folders/sv/kgmgr77579zbf78p2zlhkdfr0000gn/T//cc5pHw1f.s 			page 45


 2505 00e5 3A       		.uleb128 0x3a
 2506 00e6 0B       		.uleb128 0xb
 2507 00e7 3B       		.uleb128 0x3b
 2508 00e8 05       		.uleb128 0x5
 2509 00e9 49       		.uleb128 0x49
 2510 00ea 13       		.uleb128 0x13
 2511 00eb 00       		.byte	0
 2512 00ec 00       		.byte	0
 2513 00ed 14       		.uleb128 0x14
 2514 00ee 26       		.uleb128 0x26
 2515 00ef 00       		.byte	0
 2516 00f0 49       		.uleb128 0x49
 2517 00f1 13       		.uleb128 0x13
 2518 00f2 00       		.byte	0
 2519 00f3 00       		.byte	0
 2520 00f4 15       		.uleb128 0x15
 2521 00f5 01       		.uleb128 0x1
 2522 00f6 01       		.byte	0x1
 2523 00f7 49       		.uleb128 0x49
 2524 00f8 13       		.uleb128 0x13
 2525 00f9 01       		.uleb128 0x1
 2526 00fa 13       		.uleb128 0x13
 2527 00fb 00       		.byte	0
 2528 00fc 00       		.byte	0
 2529 00fd 16       		.uleb128 0x16
 2530 00fe 21       		.uleb128 0x21
 2531 00ff 00       		.byte	0
 2532 0100 49       		.uleb128 0x49
 2533 0101 13       		.uleb128 0x13
 2534 0102 2F       		.uleb128 0x2f
 2535 0103 0B       		.uleb128 0xb
 2536 0104 00       		.byte	0
 2537 0105 00       		.byte	0
 2538 0106 17       		.uleb128 0x17
 2539 0107 04       		.uleb128 0x4
 2540 0108 01       		.byte	0x1
 2541 0109 0B       		.uleb128 0xb
 2542 010a 0B       		.uleb128 0xb
 2543 010b 49       		.uleb128 0x49
 2544 010c 13       		.uleb128 0x13
 2545 010d 3A       		.uleb128 0x3a
 2546 010e 0B       		.uleb128 0xb
 2547 010f 3B       		.uleb128 0x3b
 2548 0110 0B       		.uleb128 0xb
 2549 0111 01       		.uleb128 0x1
 2550 0112 13       		.uleb128 0x13
 2551 0113 00       		.byte	0
 2552 0114 00       		.byte	0
 2553 0115 18       		.uleb128 0x18
 2554 0116 28       		.uleb128 0x28
 2555 0117 00       		.byte	0
 2556 0118 03       		.uleb128 0x3
 2557 0119 0E       		.uleb128 0xe
 2558 011a 1C       		.uleb128 0x1c
 2559 011b 0B       		.uleb128 0xb
 2560 011c 00       		.byte	0
 2561 011d 00       		.byte	0
ARM GAS  /var/folders/sv/kgmgr77579zbf78p2zlhkdfr0000gn/T//cc5pHw1f.s 			page 46


 2562 011e 19       		.uleb128 0x19
 2563 011f 16       		.uleb128 0x16
 2564 0120 00       		.byte	0
 2565 0121 03       		.uleb128 0x3
 2566 0122 0E       		.uleb128 0xe
 2567 0123 3A       		.uleb128 0x3a
 2568 0124 0B       		.uleb128 0xb
 2569 0125 3B       		.uleb128 0x3b
 2570 0126 05       		.uleb128 0x5
 2571 0127 49       		.uleb128 0x49
 2572 0128 13       		.uleb128 0x13
 2573 0129 00       		.byte	0
 2574 012a 00       		.byte	0
 2575 012b 1A       		.uleb128 0x1a
 2576 012c 04       		.uleb128 0x4
 2577 012d 01       		.byte	0x1
 2578 012e 0B       		.uleb128 0xb
 2579 012f 0B       		.uleb128 0xb
 2580 0130 49       		.uleb128 0x49
 2581 0131 13       		.uleb128 0x13
 2582 0132 3A       		.uleb128 0x3a
 2583 0133 0B       		.uleb128 0xb
 2584 0134 3B       		.uleb128 0x3b
 2585 0135 05       		.uleb128 0x5
 2586 0136 01       		.uleb128 0x1
 2587 0137 13       		.uleb128 0x13
 2588 0138 00       		.byte	0
 2589 0139 00       		.byte	0
 2590 013a 1B       		.uleb128 0x1b
 2591 013b 13       		.uleb128 0x13
 2592 013c 01       		.byte	0x1
 2593 013d 0B       		.uleb128 0xb
 2594 013e 0B       		.uleb128 0xb
 2595 013f 3A       		.uleb128 0x3a
 2596 0140 0B       		.uleb128 0xb
 2597 0141 3B       		.uleb128 0x3b
 2598 0142 05       		.uleb128 0x5
 2599 0143 01       		.uleb128 0x1
 2600 0144 13       		.uleb128 0x13
 2601 0145 00       		.byte	0
 2602 0146 00       		.byte	0
 2603 0147 1C       		.uleb128 0x1c
 2604 0148 2E       		.uleb128 0x2e
 2605 0149 00       		.byte	0
 2606 014a 3F       		.uleb128 0x3f
 2607 014b 19       		.uleb128 0x19
 2608 014c 03       		.uleb128 0x3
 2609 014d 0E       		.uleb128 0xe
 2610 014e 3A       		.uleb128 0x3a
 2611 014f 0B       		.uleb128 0xb
 2612 0150 3B       		.uleb128 0x3b
 2613 0151 0B       		.uleb128 0xb
 2614 0152 27       		.uleb128 0x27
 2615 0153 19       		.uleb128 0x19
 2616 0154 49       		.uleb128 0x49
 2617 0155 13       		.uleb128 0x13
 2618 0156 11       		.uleb128 0x11
ARM GAS  /var/folders/sv/kgmgr77579zbf78p2zlhkdfr0000gn/T//cc5pHw1f.s 			page 47


 2619 0157 01       		.uleb128 0x1
 2620 0158 12       		.uleb128 0x12
 2621 0159 06       		.uleb128 0x6
 2622 015a 40       		.uleb128 0x40
 2623 015b 18       		.uleb128 0x18
 2624 015c 9742     		.uleb128 0x2117
 2625 015e 19       		.uleb128 0x19
 2626 015f 00       		.byte	0
 2627 0160 00       		.byte	0
 2628 0161 1D       		.uleb128 0x1d
 2629 0162 2E       		.uleb128 0x2e
 2630 0163 01       		.byte	0x1
 2631 0164 3F       		.uleb128 0x3f
 2632 0165 19       		.uleb128 0x19
 2633 0166 03       		.uleb128 0x3
 2634 0167 0E       		.uleb128 0xe
 2635 0168 3A       		.uleb128 0x3a
 2636 0169 0B       		.uleb128 0xb
 2637 016a 3B       		.uleb128 0x3b
 2638 016b 0B       		.uleb128 0xb
 2639 016c 27       		.uleb128 0x27
 2640 016d 19       		.uleb128 0x19
 2641 016e 11       		.uleb128 0x11
 2642 016f 01       		.uleb128 0x1
 2643 0170 12       		.uleb128 0x12
 2644 0171 06       		.uleb128 0x6
 2645 0172 40       		.uleb128 0x40
 2646 0173 18       		.uleb128 0x18
 2647 0174 9742     		.uleb128 0x2117
 2648 0176 19       		.uleb128 0x19
 2649 0177 01       		.uleb128 0x1
 2650 0178 13       		.uleb128 0x13
 2651 0179 00       		.byte	0
 2652 017a 00       		.byte	0
 2653 017b 1E       		.uleb128 0x1e
 2654 017c 05       		.uleb128 0x5
 2655 017d 00       		.byte	0
 2656 017e 03       		.uleb128 0x3
 2657 017f 0E       		.uleb128 0xe
 2658 0180 3A       		.uleb128 0x3a
 2659 0181 0B       		.uleb128 0xb
 2660 0182 3B       		.uleb128 0x3b
 2661 0183 0B       		.uleb128 0xb
 2662 0184 49       		.uleb128 0x49
 2663 0185 13       		.uleb128 0x13
 2664 0186 02       		.uleb128 0x2
 2665 0187 17       		.uleb128 0x17
 2666 0188 00       		.byte	0
 2667 0189 00       		.byte	0
 2668 018a 1F       		.uleb128 0x1f
 2669 018b 898201   		.uleb128 0x4109
 2670 018e 01       		.byte	0x1
 2671 018f 11       		.uleb128 0x11
 2672 0190 01       		.uleb128 0x1
 2673 0191 31       		.uleb128 0x31
 2674 0192 13       		.uleb128 0x13
 2675 0193 01       		.uleb128 0x1
ARM GAS  /var/folders/sv/kgmgr77579zbf78p2zlhkdfr0000gn/T//cc5pHw1f.s 			page 48


 2676 0194 13       		.uleb128 0x13
 2677 0195 00       		.byte	0
 2678 0196 00       		.byte	0
 2679 0197 20       		.uleb128 0x20
 2680 0198 8A8201   		.uleb128 0x410a
 2681 019b 00       		.byte	0
 2682 019c 02       		.uleb128 0x2
 2683 019d 18       		.uleb128 0x18
 2684 019e 9142     		.uleb128 0x2111
 2685 01a0 18       		.uleb128 0x18
 2686 01a1 00       		.byte	0
 2687 01a2 00       		.byte	0
 2688 01a3 21       		.uleb128 0x21
 2689 01a4 898201   		.uleb128 0x4109
 2690 01a7 00       		.byte	0
 2691 01a8 11       		.uleb128 0x11
 2692 01a9 01       		.uleb128 0x1
 2693 01aa 31       		.uleb128 0x31
 2694 01ab 13       		.uleb128 0x13
 2695 01ac 00       		.byte	0
 2696 01ad 00       		.byte	0
 2697 01ae 22       		.uleb128 0x22
 2698 01af 898201   		.uleb128 0x4109
 2699 01b2 01       		.byte	0x1
 2700 01b3 11       		.uleb128 0x11
 2701 01b4 01       		.uleb128 0x1
 2702 01b5 9542     		.uleb128 0x2115
 2703 01b7 19       		.uleb128 0x19
 2704 01b8 31       		.uleb128 0x31
 2705 01b9 13       		.uleb128 0x13
 2706 01ba 01       		.uleb128 0x1
 2707 01bb 13       		.uleb128 0x13
 2708 01bc 00       		.byte	0
 2709 01bd 00       		.byte	0
 2710 01be 23       		.uleb128 0x23
 2711 01bf 34       		.uleb128 0x34
 2712 01c0 00       		.byte	0
 2713 01c1 03       		.uleb128 0x3
 2714 01c2 0E       		.uleb128 0xe
 2715 01c3 3A       		.uleb128 0x3a
 2716 01c4 0B       		.uleb128 0xb
 2717 01c5 3B       		.uleb128 0x3b
 2718 01c6 0B       		.uleb128 0xb
 2719 01c7 49       		.uleb128 0x49
 2720 01c8 13       		.uleb128 0x13
 2721 01c9 02       		.uleb128 0x2
 2722 01ca 18       		.uleb128 0x18
 2723 01cb 00       		.byte	0
 2724 01cc 00       		.byte	0
 2725 01cd 24       		.uleb128 0x24
 2726 01ce 34       		.uleb128 0x34
 2727 01cf 00       		.byte	0
 2728 01d0 03       		.uleb128 0x3
 2729 01d1 0E       		.uleb128 0xe
 2730 01d2 3A       		.uleb128 0x3a
 2731 01d3 0B       		.uleb128 0xb
 2732 01d4 3B       		.uleb128 0x3b
ARM GAS  /var/folders/sv/kgmgr77579zbf78p2zlhkdfr0000gn/T//cc5pHw1f.s 			page 49


 2733 01d5 05       		.uleb128 0x5
 2734 01d6 49       		.uleb128 0x49
 2735 01d7 13       		.uleb128 0x13
 2736 01d8 3F       		.uleb128 0x3f
 2737 01d9 19       		.uleb128 0x19
 2738 01da 3C       		.uleb128 0x3c
 2739 01db 19       		.uleb128 0x19
 2740 01dc 00       		.byte	0
 2741 01dd 00       		.byte	0
 2742 01de 25       		.uleb128 0x25
 2743 01df 34       		.uleb128 0x34
 2744 01e0 00       		.byte	0
 2745 01e1 03       		.uleb128 0x3
 2746 01e2 08       		.uleb128 0x8
 2747 01e3 3A       		.uleb128 0x3a
 2748 01e4 0B       		.uleb128 0xb
 2749 01e5 3B       		.uleb128 0x3b
 2750 01e6 05       		.uleb128 0x5
 2751 01e7 49       		.uleb128 0x49
 2752 01e8 13       		.uleb128 0x13
 2753 01e9 3F       		.uleb128 0x3f
 2754 01ea 19       		.uleb128 0x19
 2755 01eb 3C       		.uleb128 0x3c
 2756 01ec 19       		.uleb128 0x19
 2757 01ed 00       		.byte	0
 2758 01ee 00       		.byte	0
 2759 01ef 26       		.uleb128 0x26
 2760 01f0 34       		.uleb128 0x34
 2761 01f1 00       		.byte	0
 2762 01f2 03       		.uleb128 0x3
 2763 01f3 0E       		.uleb128 0xe
 2764 01f4 3A       		.uleb128 0x3a
 2765 01f5 0B       		.uleb128 0xb
 2766 01f6 3B       		.uleb128 0x3b
 2767 01f7 0B       		.uleb128 0xb
 2768 01f8 49       		.uleb128 0x49
 2769 01f9 13       		.uleb128 0x13
 2770 01fa 3F       		.uleb128 0x3f
 2771 01fb 19       		.uleb128 0x19
 2772 01fc 3C       		.uleb128 0x3c
 2773 01fd 19       		.uleb128 0x19
 2774 01fe 00       		.byte	0
 2775 01ff 00       		.byte	0
 2776 0200 27       		.uleb128 0x27
 2777 0201 2E       		.uleb128 0x2e
 2778 0202 00       		.byte	0
 2779 0203 3F       		.uleb128 0x3f
 2780 0204 19       		.uleb128 0x19
 2781 0205 3C       		.uleb128 0x3c
 2782 0206 19       		.uleb128 0x19
 2783 0207 6E       		.uleb128 0x6e
 2784 0208 0E       		.uleb128 0xe
 2785 0209 03       		.uleb128 0x3
 2786 020a 0E       		.uleb128 0xe
 2787 020b 00       		.byte	0
 2788 020c 00       		.byte	0
 2789 020d 28       		.uleb128 0x28
ARM GAS  /var/folders/sv/kgmgr77579zbf78p2zlhkdfr0000gn/T//cc5pHw1f.s 			page 50


 2790 020e 2E       		.uleb128 0x2e
 2791 020f 00       		.byte	0
 2792 0210 3F       		.uleb128 0x3f
 2793 0211 19       		.uleb128 0x19
 2794 0212 3C       		.uleb128 0x3c
 2795 0213 19       		.uleb128 0x19
 2796 0214 6E       		.uleb128 0x6e
 2797 0215 0E       		.uleb128 0xe
 2798 0216 03       		.uleb128 0x3
 2799 0217 0E       		.uleb128 0xe
 2800 0218 3A       		.uleb128 0x3a
 2801 0219 0B       		.uleb128 0xb
 2802 021a 3B       		.uleb128 0x3b
 2803 021b 0B       		.uleb128 0xb
 2804 021c 00       		.byte	0
 2805 021d 00       		.byte	0
 2806 021e 00       		.byte	0
 2807              		.section	.debug_loc,"",%progbits
 2808              	.Ldebug_loc0:
 2809              	.LLST0:
 2810 0000 00000000 		.4byte	.LVL0
 2811 0004 08000000 		.4byte	.LVL1
 2812 0008 0100     		.2byte	0x1
 2813 000a 50       		.byte	0x50
 2814 000b 08000000 		.4byte	.LVL1
 2815 000f 6E000000 		.4byte	.LVL15
 2816 0013 0100     		.2byte	0x1
 2817 0015 54       		.byte	0x54
 2818 0016 6E000000 		.4byte	.LVL15
 2819 001a 72000000 		.4byte	.LVL16
 2820 001e 0400     		.2byte	0x4
 2821 0020 F3       		.byte	0xf3
 2822 0021 01       		.uleb128 0x1
 2823 0022 50       		.byte	0x50
 2824 0023 9F       		.byte	0x9f
 2825 0024 72000000 		.4byte	.LVL16
 2826 0028 E0000000 		.4byte	.LFE257
 2827 002c 0100     		.2byte	0x1
 2828 002e 54       		.byte	0x54
 2829 002f 00000000 		.4byte	0
 2830 0033 00000000 		.4byte	0
 2831              		.section	.debug_aranges,"",%progbits
 2832 0000 24000000 		.4byte	0x24
 2833 0004 0200     		.2byte	0x2
 2834 0006 00000000 		.4byte	.Ldebug_info0
 2835 000a 04       		.byte	0x4
 2836 000b 00       		.byte	0
 2837 000c 0000     		.2byte	0
 2838 000e 0000     		.2byte	0
 2839 0010 00000000 		.4byte	.LFB256
 2840 0014 08000000 		.4byte	.LFE256-.LFB256
 2841 0018 00000000 		.4byte	.LFB257
 2842 001c E0000000 		.4byte	.LFE257-.LFB257
 2843 0020 00000000 		.4byte	0
 2844 0024 00000000 		.4byte	0
 2845              		.section	.debug_ranges,"",%progbits
 2846              	.Ldebug_ranges0:
ARM GAS  /var/folders/sv/kgmgr77579zbf78p2zlhkdfr0000gn/T//cc5pHw1f.s 			page 51


 2847 0000 00000000 		.4byte	.LFB256
 2848 0004 08000000 		.4byte	.LFE256
 2849 0008 00000000 		.4byte	.LFB257
 2850 000c E0000000 		.4byte	.LFE257
 2851 0010 00000000 		.4byte	0
 2852 0014 00000000 		.4byte	0
 2853              		.section	.debug_line,"",%progbits
 2854              	.Ldebug_line0:
 2855 0000 05030000 		.section	.debug_str,"MS",%progbits,1
 2855      0200A402 
 2855      00000201 
 2855      FB0E0D00 
 2855      01010101 
 2856              	.LASF51:
 2857 0000 63685F74 		.ascii	"ch_threads_list\000"
 2857      68726561 
 2857      64735F6C 
 2857      69737400 
 2858              	.LASF52:
 2859 0010 74687265 		.ascii	"threads_queue_t\000"
 2859      6164735F 
 2859      71756575 
 2859      655F7400 
 2860              	.LASF227:
 2861 0020 73656E64 		.ascii	"send_can_status\000"
 2861      5F63616E 
 2861      5F737461 
 2861      74757300 
 2862              	.LASF160:
 2863 0030 4144435F 		.ascii	"ADC_CTRL_TYPE_DUTY_REV_CENTER\000"
 2863      4354524C 
 2863      5F545950 
 2863      455F4455 
 2863      54595F52 
 2864              	.LASF88:
 2865 004e 746D5F63 		.ascii	"tm_calibration_t\000"
 2865      616C6962 
 2865      72617469 
 2865      6F6E5F74 
 2865      00
 2866              	.LASF40:
 2867 005f 705F7469 		.ascii	"p_time\000"
 2867      6D6500
 2868              	.LASF265:
 2869 0066 636F6E66 		.ascii	"conf\000"
 2869      00
 2870              	.LASF103:
 2871 006b 63686172 		.ascii	"char\000"
 2871      00
 2872              	.LASF83:
 2873 0070 72656761 		.ascii	"regarm_t\000"
 2873      726D5F74 
 2873      00
 2874              	.LASF31:
 2875 0079 705F7072 		.ascii	"p_prio\000"
 2875      696F00
 2876              	.LASF180:
ARM GAS  /var/folders/sv/kgmgr77579zbf78p2zlhkdfr0000gn/T//cc5pHw1f.s 			page 52


 2877 0080 4348554B 		.ascii	"CHUK_CTRL_TYPE_CURRENT_NOREV\000"
 2877      5F435452 
 2877      4C5F5459 
 2877      50455F43 
 2877      55525245 
 2878              	.LASF251:
 2879 009d 72666865 		.ascii	"rfhelp_update_conf\000"
 2879      6C705F75 
 2879      70646174 
 2879      655F636F 
 2879      6E6600
 2880              	.LASF254:
 2881 00b0 6170705F 		.ascii	"app_custom_start\000"
 2881      63757374 
 2881      6F6D5F73 
 2881      74617274 
 2881      00
 2882              	.LASF27:
 2883 00c1 73797374 		.ascii	"systime_t\000"
 2883      696D655F 
 2883      7400
 2884              	.LASF106:
 2885 00cb 43414E5F 		.ascii	"CAN_BAUD_125K\000"
 2885      42415544 
 2885      5F313235 
 2885      4B00
 2886              	.LASF101:
 2887 00d9 6D5F6F77 		.ascii	"m_owner\000"
 2887      6E657200 
 2888              	.LASF97:
 2889 00e1 735F7175 		.ascii	"s_queue\000"
 2889      65756500 
 2890              	.LASF72:
 2891 00e9 76745F73 		.ascii	"vt_systime\000"
 2891      79737469 
 2891      6D6500
 2892              	.LASF42:
 2893 00f4 705F6D73 		.ascii	"p_msgqueue\000"
 2893      67717565 
 2893      756500
 2894              	.LASF142:
 2895 00ff 73616665 		.ascii	"safe_start\000"
 2895      5F737461 
 2895      727400
 2896              	.LASF168:
 2897 010a 766F6C74 		.ascii	"voltage_center\000"
 2897      6167655F 
 2897      63656E74 
 2897      657200
 2898              	.LASF231:
 2899 0119 6170705F 		.ascii	"app_ppm_conf\000"
 2899      70706D5F 
 2899      636F6E66 
 2899      00
 2900              	.LASF49:
 2901 0126 74687265 		.ascii	"threads_list_t\000"
 2901      6164735F 
ARM GAS  /var/folders/sv/kgmgr77579zbf78p2zlhkdfr0000gn/T//cc5pHw1f.s 			page 53


 2901      6C697374 
 2901      5F7400
 2902              	.LASF41:
 2903 0135 705F7761 		.ascii	"p_waiting\000"
 2903      6974696E 
 2903      6700
 2904              	.LASF120:
 2905 013f 4150505F 		.ascii	"APP_CUSTOM\000"
 2905      43555354 
 2905      4F4D00
 2906              	.LASF5:
 2907 014a 5F5F696E 		.ascii	"__int32_t\000"
 2907      7433325F 
 2907      7400
 2908              	.LASF148:
 2909 0154 6D756C74 		.ascii	"multi_esc\000"
 2909      695F6573 
 2909      6300
 2910              	.LASF91:
 2911 015e 77746F62 		.ascii	"wtobjp\000"
 2911      6A7000
 2912              	.LASF197:
 2913 0165 4E52465F 		.ascii	"NRF_CRC\000"
 2913      43524300 
 2914              	.LASF79:
 2915 016d 76746C69 		.ascii	"vtlist\000"
 2915      737400
 2916              	.LASF215:
 2917 0174 73706565 		.ascii	"speed\000"
 2917      6400
 2918              	.LASF238:
 2919 017a 636F6E66 		.ascii	"conf_general_permanent_nrf_found\000"
 2919      5F67656E 
 2919      6572616C 
 2919      5F706572 
 2919      6D616E65 
 2920              	.LASF213:
 2921 019b 4E52465F 		.ascii	"NRF_RETR_DELAY_4000US\000"
 2921      52455452 
 2921      5F44454C 
 2921      41595F34 
 2921      30303055 
 2922              	.LASF188:
 2923 01b1 4E52465F 		.ascii	"NRF_POWER_M18DBM\000"
 2923      504F5745 
 2923      525F4D31 
 2923      3844424D 
 2923      00
 2924              	.LASF128:
 2925 01c2 50504D5F 		.ascii	"PPM_CTRL_TYPE_CURRENT_NOREV\000"
 2925      4354524C 
 2925      5F545950 
 2925      455F4355 
 2925      5252454E 
 2926              	.LASF95:
 2927 01de 65776D61 		.ascii	"ewmask\000"
 2927      736B00
ARM GAS  /var/folders/sv/kgmgr77579zbf78p2zlhkdfr0000gn/T//cc5pHw1f.s 			page 54


 2928              	.LASF132:
 2929 01e5 50504D5F 		.ascii	"PPM_CTRL_TYPE_PID\000"
 2929      4354524C 
 2929      5F545950 
 2929      455F5049 
 2929      4400
 2930              	.LASF206:
 2931 01f7 4E52465F 		.ascii	"NRF_RETR_DELAY_2250US\000"
 2931      52455452 
 2931      5F44454C 
 2931      41595F32 
 2931      32353055 
 2932              	.LASF55:
 2933 020d 63685F72 		.ascii	"ch_ready_list\000"
 2933      65616479 
 2933      5F6C6973 
 2933      7400
 2934              	.LASF113:
 2935 021b 4150505F 		.ascii	"APP_PPM\000"
 2935      50504D00 
 2936              	.LASF241:
 2937 0223 6170705F 		.ascii	"app_uartcomm_stop\000"
 2937      75617274 
 2937      636F6D6D 
 2937      5F73746F 
 2937      7000
 2938              	.LASF244:
 2939 0235 6170705F 		.ascii	"app_custom_stop\000"
 2939      63757374 
 2939      6F6D5F73 
 2939      746F7000 
 2940              	.LASF156:
 2941 0245 4144435F 		.ascii	"ADC_CTRL_TYPE_CURRENT_NOREV_BRAKE_CENTER\000"
 2941      4354524C 
 2941      5F545950 
 2941      455F4355 
 2941      5252454E 
 2942              	.LASF157:
 2943 026e 4144435F 		.ascii	"ADC_CTRL_TYPE_CURRENT_NOREV_BRAKE_BUTTON\000"
 2943      4354524C 
 2943      5F545950 
 2943      455F4355 
 2943      5252454E 
 2944              	.LASF98:
 2945 0297 735F636E 		.ascii	"s_cnt\000"
 2945      7400
 2946              	.LASF74:
 2947 029d 63685F73 		.ascii	"ch_system_debug\000"
 2947      79737465 
 2947      6D5F6465 
 2947      62756700 
 2948              	.LASF127:
 2949 02ad 50504D5F 		.ascii	"PPM_CTRL_TYPE_CURRENT\000"
 2949      4354524C 
 2949      5F545950 
 2949      455F4355 
 2949      5252454E 
ARM GAS  /var/folders/sv/kgmgr77579zbf78p2zlhkdfr0000gn/T//cc5pHw1f.s 			page 55


 2950              	.LASF15:
 2951 02c3 75696E74 		.ascii	"uint32_t\000"
 2951      33325F74 
 2951      00
 2952              	.LASF165:
 2953 02cc 6164635F 		.ascii	"adc_control_type\000"
 2953      636F6E74 
 2953      726F6C5F 
 2953      74797065 
 2953      00
 2954              	.LASF147:
 2955 02dd 72616D70 		.ascii	"ramp_time_neg\000"
 2955      5F74696D 
 2955      655F6E65 
 2955      6700
 2956              	.LASF235:
 2957 02eb 6170705F 		.ascii	"app_nrf_conf\000"
 2957      6E72665F 
 2957      636F6E66 
 2957      00
 2958              	.LASF141:
 2959 02f8 6D656469 		.ascii	"median_filter\000"
 2959      616E5F66 
 2959      696C7465 
 2959      7200
 2960              	.LASF25:
 2961 0306 6576656E 		.ascii	"eventmask_t\000"
 2961      746D6173 
 2961      6B5F7400 
 2962              	.LASF57:
 2963 0312 725F7072 		.ascii	"r_prio\000"
 2963      696F00
 2964              	.LASF207:
 2965 0319 4E52465F 		.ascii	"NRF_RETR_DELAY_2500US\000"
 2965      52455452 
 2965      5F44454C 
 2965      41595F32 
 2965      35303055 
 2966              	.LASF69:
 2967 032f 76745F70 		.ascii	"vt_par\000"
 2967      617200
 2968              	.LASF217:
 2969 0336 6372635F 		.ascii	"crc_type\000"
 2969      74797065 
 2969      00
 2970              	.LASF105:
 2971 033f 666C6F61 		.ascii	"float\000"
 2971      7400
 2972              	.LASF121:
 2973 0345 6170705F 		.ascii	"app_use\000"
 2973      75736500 
 2974              	.LASF145:
 2975 034d 7468726F 		.ascii	"throttle_exp_mode\000"
 2975      74746C65 
 2975      5F657870 
 2975      5F6D6F64 
 2975      6500
ARM GAS  /var/folders/sv/kgmgr77579zbf78p2zlhkdfr0000gn/T//cc5pHw1f.s 			page 56


 2976              	.LASF201:
 2977 035f 4E52465F 		.ascii	"NRF_RETR_DELAY_1000US\000"
 2977      52455452 
 2977      5F44454C 
 2977      41595F31 
 2977      30303055 
 2978              	.LASF137:
 2979 0375 68797374 		.ascii	"hyst\000"
 2979      00
 2980              	.LASF96:
 2981 037a 63685F73 		.ascii	"ch_semaphore\000"
 2981      656D6170 
 2981      686F7265 
 2981      00
 2982              	.LASF240:
 2983 0387 6170705F 		.ascii	"app_adc_stop\000"
 2983      6164635F 
 2983      73746F70 
 2983      00
 2984              	.LASF23:
 2985 0394 74707269 		.ascii	"tprio_t\000"
 2985      6F5F7400 
 2986              	.LASF64:
 2987 039c 63685F76 		.ascii	"ch_virtual_timer\000"
 2987      69727475 
 2987      616C5F74 
 2987      696D6572 
 2987      00
 2988              	.LASF11:
 2989 03ad 6C6F6E67 		.ascii	"long long unsigned int\000"
 2989      206C6F6E 
 2989      6720756E 
 2989      7369676E 
 2989      65642069 
 2990              	.LASF108:
 2991 03c4 43414E5F 		.ascii	"CAN_BAUD_500K\000"
 2991      42415544 
 2991      5F353030 
 2991      4B00
 2992              	.LASF214:
 2993 03d2 4E52465F 		.ascii	"NRF_RETR_DELAY\000"
 2993      52455452 
 2993      5F44454C 
 2993      415900
 2994              	.LASF131:
 2995 03e1 50504D5F 		.ascii	"PPM_CTRL_TYPE_DUTY_NOREV\000"
 2995      4354524C 
 2995      5F545950 
 2995      455F4455 
 2995      54595F4E 
 2996              	.LASF167:
 2997 03fa 766F6C74 		.ascii	"voltage_end\000"
 2997      6167655F 
 2997      656E6400 
 2998              	.LASF26:
 2999 0406 636E745F 		.ascii	"cnt_t\000"
 2999      7400
ARM GAS  /var/folders/sv/kgmgr77579zbf78p2zlhkdfr0000gn/T//cc5pHw1f.s 			page 57


 3000              	.LASF195:
 3001 040c 4E52465F 		.ascii	"NRF_CRC_1B\000"
 3001      4352435F 
 3001      314200
 3002              	.LASF223:
 3003 0417 6E72665F 		.ascii	"nrf_config\000"
 3003      636F6E66 
 3003      696700
 3004              	.LASF246:
 3005 0422 6170705F 		.ascii	"app_ppm_configure\000"
 3005      70706D5F 
 3005      636F6E66 
 3005      69677572 
 3005      6500
 3006              	.LASF181:
 3007 0434 6368756B 		.ascii	"chuk_control_type\000"
 3007      5F636F6E 
 3007      74726F6C 
 3007      5F747970 
 3007      6500
 3008              	.LASF172:
 3009 0446 63635F62 		.ascii	"cc_button_inverted\000"
 3009      7574746F 
 3009      6E5F696E 
 3009      76657274 
 3009      656400
 3010              	.LASF71:
 3011 0459 63685F76 		.ascii	"ch_virtual_timers_list\000"
 3011      69727475 
 3011      616C5F74 
 3011      696D6572 
 3011      735F6C69 
 3012              	.LASF28:
 3013 0470 74687265 		.ascii	"thread_t\000"
 3013      61645F74 
 3013      00
 3014              	.LASF133:
 3015 0479 50504D5F 		.ascii	"PPM_CTRL_TYPE_PID_NOREV\000"
 3015      4354524C 
 3015      5F545950 
 3015      455F5049 
 3015      445F4E4F 
 3016              	.LASF146:
 3017 0491 72616D70 		.ascii	"ramp_time_pos\000"
 3017      5F74696D 
 3017      655F706F 
 3017      7300
 3018              	.LASF17:
 3019 049f 73697A65 		.ascii	"size_t\000"
 3019      5F7400
 3020              	.LASF89:
 3021 04a6 7264796D 		.ascii	"rdymsg\000"
 3021      736700
 3022              	.LASF62:
 3023 04ad 76746675 		.ascii	"vtfunc_t\000"
 3023      6E635F74 
 3023      00
ARM GAS  /var/folders/sv/kgmgr77579zbf78p2zlhkdfr0000gn/T//cc5pHw1f.s 			page 58


 3024              	.LASF109:
 3025 04b6 43414E5F 		.ascii	"CAN_BAUD_1M\000"
 3025      42415544 
 3025      5F314D00 
 3026              	.LASF87:
 3027 04c2 6F666673 		.ascii	"offset\000"
 3027      657400
 3028              	.LASF192:
 3029 04c9 4E52465F 		.ascii	"NRF_POWER_OFF\000"
 3029      504F5745 
 3029      525F4F46 
 3029      4600
 3030              	.LASF115:
 3031 04d7 4150505F 		.ascii	"APP_UART\000"
 3031      55415254 
 3031      00
 3032              	.LASF111:
 3033 04e0 5F426F6F 		.ascii	"_Bool\000"
 3033      6C00
 3034              	.LASF258:
 3035 04e6 6E72665F 		.ascii	"nrf_driver_init\000"
 3035      64726976 
 3035      65725F69 
 3035      6E697400 
 3036              	.LASF260:
 3037 04f6 474E5520 		.ascii	"GNU C99 5.4.1 20160919 (release) [ARM/embedded-5-br"
 3037      43393920 
 3037      352E342E 
 3037      31203230 
 3037      31363039 
 3038 0529 616E6368 		.ascii	"anch revision 240496] -mcpu=cortex-m4 -mfloat-abi=h"
 3038      20726576 
 3038      6973696F 
 3038      6E203234 
 3038      30343936 
 3039 055c 61726420 		.ascii	"ard -mfpu=fpv4-sp-d16 -mno-thumb-interwork -mthumb "
 3039      2D6D6670 
 3039      753D6670 
 3039      76342D73 
 3039      702D6431 
 3040 058f 2D676764 		.ascii	"-ggdb -O2 -std=gnu99 -fomit-frame-pointer -falign-f"
 3040      62202D4F 
 3040      32202D73 
 3040      74643D67 
 3040      6E753939 
 3041 05c2 756E6374 		.ascii	"unctions=16 -ffunction-sections -fdata-sections -fn"
 3041      696F6E73 
 3041      3D313620 
 3041      2D666675 
 3041      6E637469 
 3042 05f5 6F2D636F 		.ascii	"o-common -fsingle-precision-constant\000"
 3042      6D6D6F6E 
 3042      202D6673 
 3042      696E676C 
 3042      652D7072 
 3043              	.LASF196:
 3044 061a 4E52465F 		.ascii	"NRF_CRC_2B\000"
ARM GAS  /var/folders/sv/kgmgr77579zbf78p2zlhkdfr0000gn/T//cc5pHw1f.s 			page 59


 3044      4352435F 
 3044      324200
 3045              	.LASF99:
 3046 0625 63685F6D 		.ascii	"ch_mutex\000"
 3046      75746578 
 3046      00
 3047              	.LASF225:
 3048 062e 74696D65 		.ascii	"timeout_msec\000"
 3048      6F75745F 
 3048      6D736563 
 3048      00
 3049              	.LASF10:
 3050 063b 5F5F7569 		.ascii	"__uint64_t\000"
 3050      6E743634 
 3050      5F7400
 3051              	.LASF175:
 3052 0646 766F6C74 		.ascii	"voltage2_inverted\000"
 3052      61676532 
 3052      5F696E76 
 3052      65727465 
 3052      6400
 3053              	.LASF123:
 3054 0658 5448525F 		.ascii	"THR_EXP_NATURAL\000"
 3054      4558505F 
 3054      4E415455 
 3054      52414C00 
 3055              	.LASF239:
 3056 0668 6170705F 		.ascii	"app_ppm_stop\000"
 3056      70706D5F 
 3056      73746F70 
 3056      00
 3057              	.LASF166:
 3058 0675 766F6C74 		.ascii	"voltage_start\000"
 3058      6167655F 
 3058      73746172 
 3058      7400
 3059              	.LASF230:
 3060 0683 6170705F 		.ascii	"app_to_use\000"
 3060      746F5F75 
 3060      736500
 3061              	.LASF250:
 3062 068e 6170705F 		.ascii	"app_custom_configure\000"
 3062      63757374 
 3062      6F6D5F63 
 3062      6F6E6669 
 3062      67757265 
 3063              	.LASF35:
 3064 06a3 705F6E61 		.ascii	"p_name\000"
 3064      6D6500
 3065              	.LASF218:
 3066 06aa 72657472 		.ascii	"retry_delay\000"
 3066      795F6465 
 3066      6C617900 
 3067              	.LASF208:
 3068 06b6 4E52465F 		.ascii	"NRF_RETR_DELAY_2750US\000"
 3068      52455452 
 3068      5F44454C 
ARM GAS  /var/folders/sv/kgmgr77579zbf78p2zlhkdfr0000gn/T//cc5pHw1f.s 			page 60


 3068      41595F32 
 3068      37353055 
 3069              	.LASF236:
 3070 06cc 6170705F 		.ascii	"app_configuration\000"
 3070      636F6E66 
 3070      69677572 
 3070      6174696F 
 3070      6E00
 3071              	.LASF136:
 3072 06de 7069645F 		.ascii	"pid_max_erpm\000"
 3072      6D61785F 
 3072      6572706D 
 3072      00
 3073              	.LASF67:
 3074 06eb 76745F64 		.ascii	"vt_delta\000"
 3074      656C7461 
 3074      00
 3075              	.LASF114:
 3076 06f4 4150505F 		.ascii	"APP_ADC\000"
 3076      41444300 
 3077              	.LASF13:
 3078 06fc 75696E74 		.ascii	"uint8_t\000"
 3078      385F7400 
 3079              	.LASF59:
 3080 0704 725F6E65 		.ascii	"r_newer\000"
 3080      77657200 
 3081              	.LASF247:
 3082 070c 6170705F 		.ascii	"app_adc_configure\000"
 3082      6164635F 
 3082      636F6E66 
 3082      69677572 
 3082      6500
 3083              	.LASF20:
 3084 071e 74737461 		.ascii	"tstate_t\000"
 3084      74655F74 
 3084      00
 3085              	.LASF140:
 3086 0727 70756C73 		.ascii	"pulse_center\000"
 3086      655F6365 
 3086      6E746572 
 3086      00
 3087              	.LASF129:
 3088 0734 50504D5F 		.ascii	"PPM_CTRL_TYPE_CURRENT_NOREV_BRAKE\000"
 3088      4354524C 
 3088      5F545950 
 3088      455F4355 
 3088      5252454E 
 3089              	.LASF9:
 3090 0756 6C6F6E67 		.ascii	"long long int\000"
 3090      206C6F6E 
 3090      6720696E 
 3090      7400
 3091              	.LASF34:
 3092 0764 705F6F6C 		.ascii	"p_older\000"
 3092      64657200 
 3093              	.LASF36:
 3094 076c 705F7374 		.ascii	"p_state\000"
ARM GAS  /var/folders/sv/kgmgr77579zbf78p2zlhkdfr0000gn/T//cc5pHw1f.s 			page 61


 3094      61746500 
 3095              	.LASF122:
 3096 0774 5448525F 		.ascii	"THR_EXP_EXPO\000"
 3096      4558505F 
 3096      4558504F 
 3096      00
 3097              	.LASF126:
 3098 0781 50504D5F 		.ascii	"PPM_CTRL_TYPE_NONE\000"
 3098      4354524C 
 3098      5F545950 
 3098      455F4E4F 
 3098      4E4500
 3099              	.LASF169:
 3100 0794 766F6C74 		.ascii	"voltage2_start\000"
 3100      61676532 
 3100      5F737461 
 3100      727400
 3101              	.LASF178:
 3102 07a3 4348554B 		.ascii	"CHUK_CTRL_TYPE_NONE\000"
 3102      5F435452 
 3102      4C5F5459 
 3102      50455F4E 
 3102      4F4E4500 
 3103              	.LASF47:
 3104 07b7 705F6D70 		.ascii	"p_mpool\000"
 3104      6F6F6C00 
 3105              	.LASF45:
 3106 07bf 705F6D74 		.ascii	"p_mtxlist\000"
 3106      786C6973 
 3106      7400
 3107              	.LASF112:
 3108 07c9 4150505F 		.ascii	"APP_NONE\000"
 3108      4E4F4E45 
 3108      00
 3109              	.LASF50:
 3110 07d2 63685F74 		.ascii	"ch_thread\000"
 3110      68726561 
 3110      6400
 3111              	.LASF130:
 3112 07dc 50504D5F 		.ascii	"PPM_CTRL_TYPE_DUTY\000"
 3112      4354524C 
 3112      5F545950 
 3112      455F4455 
 3112      545900
 3113              	.LASF224:
 3114 07ef 636F6E74 		.ascii	"controller_id\000"
 3114      726F6C6C 
 3114      65725F69 
 3114      6400
 3115              	.LASF228:
 3116 07fd 73656E64 		.ascii	"send_can_status_rate_hz\000"
 3116      5F63616E 
 3116      5F737461 
 3116      7475735F 
 3116      72617465 
 3117              	.LASF73:
 3118 0815 73797374 		.ascii	"system_debug_t\000"
ARM GAS  /var/folders/sv/kgmgr77579zbf78p2zlhkdfr0000gn/T//cc5pHw1f.s 			page 62


 3118      656D5F64 
 3118      65627567 
 3118      5F7400
 3119              	.LASF119:
 3120 0824 4150505F 		.ascii	"APP_NRF\000"
 3120      4E524600 
 3121              	.LASF53:
 3122 082c 63685F74 		.ascii	"ch_threads_queue\000"
 3122      68726561 
 3122      64735F71 
 3122      75657565 
 3122      00
 3123              	.LASF173:
 3124 083d 7265765F 		.ascii	"rev_button_inverted\000"
 3124      62757474 
 3124      6F6E5F69 
 3124      6E766572 
 3124      74656400 
 3125              	.LASF107:
 3126 0851 43414E5F 		.ascii	"CAN_BAUD_250K\000"
 3126      42415544 
 3126      5F323530 
 3126      4B00
 3127              	.LASF139:
 3128 085f 70756C73 		.ascii	"pulse_end\000"
 3128      655F656E 
 3128      6400
 3129              	.LASF154:
 3130 0869 4144435F 		.ascii	"ADC_CTRL_TYPE_CURRENT_REV_BUTTON\000"
 3130      4354524C 
 3130      5F545950 
 3130      455F4355 
 3130      5252454E 
 3131              	.LASF56:
 3132 088a 725F7175 		.ascii	"r_queue\000"
 3132      65756500 
 3133              	.LASF179:
 3134 0892 4348554B 		.ascii	"CHUK_CTRL_TYPE_CURRENT\000"
 3134      5F435452 
 3134      4C5F5459 
 3134      50455F43 
 3134      55525245 
 3135              	.LASF24:
 3136 08a9 6D73675F 		.ascii	"msg_t\000"
 3136      7400
 3137              	.LASF46:
 3138 08af 705F7265 		.ascii	"p_realprio\000"
 3138      616C7072 
 3138      696F00
 3139              	.LASF212:
 3140 08ba 4E52465F 		.ascii	"NRF_RETR_DELAY_3750US\000"
 3140      52455452 
 3140      5F44454C 
 3140      41595F33 
 3140      37353055 
 3141              	.LASF256:
 3142 08d0 6170705F 		.ascii	"app_adc_start\000"
ARM GAS  /var/folders/sv/kgmgr77579zbf78p2zlhkdfr0000gn/T//cc5pHw1f.s 			page 63


 3142      6164635F 
 3142      73746172 
 3142      7400
 3143              	.LASF85:
 3144 08de 636F6E74 		.ascii	"context\000"
 3144      65787400 
 3145              	.LASF37:
 3146 08e6 705F666C 		.ascii	"p_flags\000"
 3146      61677300 
 3147              	.LASF63:
 3148 08ee 76697274 		.ascii	"virtual_timer_t\000"
 3148      75616C5F 
 3148      74696D65 
 3148      725F7400 
 3149              	.LASF153:
 3150 08fe 4144435F 		.ascii	"ADC_CTRL_TYPE_CURRENT_REV_CENTER\000"
 3150      4354524C 
 3150      5F545950 
 3150      455F4355 
 3150      5252454E 
 3151              	.LASF176:
 3152 091f 75706461 		.ascii	"update_rate_hz\000"
 3152      74655F72 
 3152      6174655F 
 3152      687A00
 3153              	.LASF143:
 3154 092e 7468726F 		.ascii	"throttle_exp\000"
 3154      74746C65 
 3154      5F657870 
 3154      00
 3155              	.LASF159:
 3156 093b 4144435F 		.ascii	"ADC_CTRL_TYPE_DUTY\000"
 3156      4354524C 
 3156      5F545950 
 3156      455F4455 
 3156      545900
 3157              	.LASF203:
 3158 094e 4E52465F 		.ascii	"NRF_RETR_DELAY_1500US\000"
 3158      52455452 
 3158      5F44454C 
 3158      41595F31 
 3158      35303055 
 3159              	.LASF22:
 3160 0964 74736C69 		.ascii	"tslices_t\000"
 3160      6365735F 
 3160      7400
 3161              	.LASF60:
 3162 096e 725F6F6C 		.ascii	"r_older\000"
 3162      64657200 
 3163              	.LASF209:
 3164 0976 4E52465F 		.ascii	"NRF_RETR_DELAY_3000US\000"
 3164      52455452 
 3164      5F44454C 
 3164      41595F33 
 3164      30303055 
 3165              	.LASF150:
 3166 098c 70706D5F 		.ascii	"ppm_config\000"
ARM GAS  /var/folders/sv/kgmgr77579zbf78p2zlhkdfr0000gn/T//cc5pHw1f.s 			page 64


 3166      636F6E66 
 3166      696700
 3167              	.LASF43:
 3168 0997 705F6D73 		.ascii	"p_msg\000"
 3168      6700
 3169              	.LASF19:
 3170 099d 746D6F64 		.ascii	"tmode_t\000"
 3170      655F7400 
 3171              	.LASF193:
 3172 09a5 4E52465F 		.ascii	"NRF_POWER\000"
 3172      504F5745 
 3172      5200
 3173              	.LASF80:
 3174 09af 6D61696E 		.ascii	"mainthread\000"
 3174      74687265 
 3174      616400
 3175              	.LASF259:
 3176 09ba 72666865 		.ascii	"rfhelp_restart\000"
 3176      6C705F72 
 3176      65737461 
 3176      727400
 3177              	.LASF3:
 3178 09c9 73686F72 		.ascii	"short unsigned int\000"
 3178      7420756E 
 3178      7369676E 
 3178      65642069 
 3178      6E7400
 3179              	.LASF234:
 3180 09dc 6170705F 		.ascii	"app_chuk_conf\000"
 3180      6368756B 
 3180      5F636F6E 
 3180      6600
 3181              	.LASF174:
 3182 09ea 766F6C74 		.ascii	"voltage_inverted\000"
 3182      6167655F 
 3182      696E7665 
 3182      72746564 
 3182      00
 3183              	.LASF48:
 3184 09fb 74687265 		.ascii	"thread_reference_t\000"
 3184      61645F72 
 3184      65666572 
 3184      656E6365 
 3184      5F7400
 3185              	.LASF194:
 3186 0a0e 4E52465F 		.ascii	"NRF_CRC_DISABLED\000"
 3186      4352435F 
 3186      44495341 
 3186      424C4544 
 3186      00
 3187              	.LASF18:
 3188 0a1f 7274636E 		.ascii	"rtcnt_t\000"
 3188      745F7400 
 3189              	.LASF220:
 3190 0a27 6368616E 		.ascii	"channel\000"
 3190      6E656C00 
 3191              	.LASF190:
ARM GAS  /var/folders/sv/kgmgr77579zbf78p2zlhkdfr0000gn/T//cc5pHw1f.s 			page 65


 3192 0a2f 4E52465F 		.ascii	"NRF_POWER_M6DBM\000"
 3192      504F5745 
 3192      525F4D36 
 3192      44424D00 
 3193              	.LASF163:
 3194 0a3f 4144435F 		.ascii	"ADC_CTRL_TYPE_PID_REV_CENTER\000"
 3194      4354524C 
 3194      5F545950 
 3194      455F5049 
 3194      445F5245 
 3195              	.LASF189:
 3196 0a5c 4E52465F 		.ascii	"NRF_POWER_M12DBM\000"
 3196      504F5745 
 3196      525F4D31 
 3196      3244424D 
 3196      00
 3197              	.LASF138:
 3198 0a6d 70756C73 		.ascii	"pulse_start\000"
 3198      655F7374 
 3198      61727400 
 3199              	.LASF117:
 3200 0a79 4150505F 		.ascii	"APP_ADC_UART\000"
 3200      4144435F 
 3200      55415254 
 3200      00
 3201              	.LASF110:
 3202 0a86 43414E5F 		.ascii	"CAN_BAUD\000"
 3202      42415544 
 3202      00
 3203              	.LASF2:
 3204 0a8f 73686F72 		.ascii	"short int\000"
 3204      7420696E 
 3204      7400
 3205              	.LASF61:
 3206 0a99 725F6375 		.ascii	"r_current\000"
 3206      7272656E 
 3206      7400
 3207              	.LASF245:
 3208 0aa3 6170705F 		.ascii	"app_nunchuk_start\000"
 3208      6E756E63 
 3208      68756B5F 
 3208      73746172 
 3208      7400
 3209              	.LASF44:
 3210 0ab5 705F6570 		.ascii	"p_epending\000"
 3210      656E6469 
 3210      6E6700
 3211              	.LASF100:
 3212 0ac0 6D5F7175 		.ascii	"m_queue\000"
 3212      65756500 
 3213              	.LASF6:
 3214 0ac8 6C6F6E67 		.ascii	"long int\000"
 3214      20696E74 
 3214      00
 3215              	.LASF86:
 3216 0ad1 706F7274 		.ascii	"port_intctx\000"
 3216      5F696E74 
ARM GAS  /var/folders/sv/kgmgr77579zbf78p2zlhkdfr0000gn/T//cc5pHw1f.s 			page 66


 3216      63747800 
 3217              	.LASF152:
 3218 0add 4144435F 		.ascii	"ADC_CTRL_TYPE_CURRENT\000"
 3218      4354524C 
 3218      5F545950 
 3218      455F4355 
 3218      5252454E 
 3219              	.LASF237:
 3220 0af3 49544D5F 		.ascii	"ITM_RxBuffer\000"
 3220      52784275 
 3220      66666572 
 3220      00
 3221              	.LASF253:
 3222 0b00 68775F73 		.ascii	"hw_stop_i2c\000"
 3222      746F705F 
 3222      69326300 
 3223              	.LASF118:
 3224 0b0c 4150505F 		.ascii	"APP_NUNCHUK\000"
 3224      4E554E43 
 3224      48554B00 
 3225              	.LASF77:
 3226 0b18 63685F73 		.ascii	"ch_system\000"
 3226      79737465 
 3226      6D00
 3227              	.LASF158:
 3228 0b22 4144435F 		.ascii	"ADC_CTRL_TYPE_CURRENT_NOREV_BRAKE_ADC\000"
 3228      4354524C 
 3228      5F545950 
 3228      455F4355 
 3228      5252454E 
 3229              	.LASF29:
 3230 0b48 705F6E65 		.ascii	"p_next\000"
 3230      787400
 3231              	.LASF16:
 3232 0b4f 75696E74 		.ascii	"uint64_t\000"
 3232      36345F74 
 3232      00
 3233              	.LASF32:
 3234 0b58 705F6374 		.ascii	"p_ctx\000"
 3234      7800
 3235              	.LASF78:
 3236 0b5e 726C6973 		.ascii	"rlist\000"
 3236      7400
 3237              	.LASF229:
 3238 0b64 63616E5F 		.ascii	"can_baud_rate\000"
 3238      62617564 
 3238      5F726174 
 3238      6500
 3239              	.LASF242:
 3240 0b72 6170705F 		.ascii	"app_nunchuk_stop\000"
 3240      6E756E63 
 3240      68756B5F 
 3240      73746F70 
 3240      00
 3241              	.LASF4:
 3242 0b83 5F5F7569 		.ascii	"__uint8_t\000"
 3242      6E74385F 
ARM GAS  /var/folders/sv/kgmgr77579zbf78p2zlhkdfr0000gn/T//cc5pHw1f.s 			page 67


 3242      7400
 3243              	.LASF255:
 3244 0b8d 6170705F 		.ascii	"app_ppm_start\000"
 3244      70706D5F 
 3244      73746172 
 3244      7400
 3245              	.LASF198:
 3246 0b9b 4E52465F 		.ascii	"NRF_RETR_DELAY_250US\000"
 3246      52455452 
 3246      5F44454C 
 3246      41595F32 
 3246      35305553 
 3247              	.LASF204:
 3248 0bb0 4E52465F 		.ascii	"NRF_RETR_DELAY_1750US\000"
 3248      52455452 
 3248      5F44454C 
 3248      41595F31 
 3248      37353055 
 3249              	.LASF12:
 3250 0bc6 756E7369 		.ascii	"unsigned int\000"
 3250      676E6564 
 3250      20696E74 
 3250      00
 3251              	.LASF155:
 3252 0bd3 4144435F 		.ascii	"ADC_CTRL_TYPE_CURRENT_REV_BUTTON_BRAKE_ADC\000"
 3252      4354524C 
 3252      5F545950 
 3252      455F4355 
 3252      5252454E 
 3253              	.LASF210:
 3254 0bfe 4E52465F 		.ascii	"NRF_RETR_DELAY_3250US\000"
 3254      52455452 
 3254      5F44454C 
 3254      41595F33 
 3254      32353055 
 3255              	.LASF30:
 3256 0c14 705F7072 		.ascii	"p_prev\000"
 3256      657600
 3257              	.LASF82:
 3258 0c1b 73697A65 		.ascii	"sizetype\000"
 3258      74797065 
 3258      00
 3259              	.LASF21:
 3260 0c24 74726566 		.ascii	"trefs_t\000"
 3260      735F7400 
 3261              	.LASF8:
 3262 0c2c 6C6F6E67 		.ascii	"long unsigned int\000"
 3262      20756E73 
 3262      69676E65 
 3262      6420696E 
 3262      7400
 3263              	.LASF221:
 3264 0c3e 61646472 		.ascii	"address\000"
 3264      65737300 
 3265              	.LASF54:
 3266 0c46 72656164 		.ascii	"ready_list_t\000"
 3266      795F6C69 
ARM GAS  /var/folders/sv/kgmgr77579zbf78p2zlhkdfr0000gn/T//cc5pHw1f.s 			page 68


 3266      73745F74 
 3266      00
 3267              	.LASF135:
 3268 0c53 6374726C 		.ascii	"ctrl_type\000"
 3268      5F747970 
 3268      6500
 3269              	.LASF14:
 3270 0c5d 696E7433 		.ascii	"int32_t\000"
 3270      325F7400 
 3271              	.LASF81:
 3272 0c65 69646C65 		.ascii	"idle_thread_wa\000"
 3272      5F746872 
 3272      6561645F 
 3272      776100
 3273              	.LASF170:
 3274 0c74 766F6C74 		.ascii	"voltage2_end\000"
 3274      61676532 
 3274      5F656E64 
 3274      00
 3275              	.LASF93:
 3276 0c81 77747365 		.ascii	"wtsemp\000"
 3276      6D7000
 3277              	.LASF164:
 3278 0c88 4144435F 		.ascii	"ADC_CTRL_TYPE_PID_REV_BUTTON\000"
 3278      4354524C 
 3278      5F545950 
 3278      455F5049 
 3278      445F5245 
 3279              	.LASF266:
 3280 0ca5 61707063 		.ascii	"appconf\000"
 3280      6F6E6600 
 3281              	.LASF199:
 3282 0cad 4E52465F 		.ascii	"NRF_RETR_DELAY_500US\000"
 3282      52455452 
 3282      5F44454C 
 3282      41595F35 
 3282      30305553 
 3283              	.LASF104:
 3284 0cc2 6D757465 		.ascii	"mutex_t\000"
 3284      785F7400 
 3285              	.LASF144:
 3286 0cca 7468726F 		.ascii	"throttle_exp_brake\000"
 3286      74746C65 
 3286      5F657870 
 3286      5F627261 
 3286      6B6500
 3287              	.LASF200:
 3288 0cdd 4E52465F 		.ascii	"NRF_RETR_DELAY_750US\000"
 3288      52455452 
 3288      5F44454C 
 3288      41595F37 
 3288      35305553 
 3289              	.LASF186:
 3290 0cf2 4E52465F 		.ascii	"NRF_SPEED_2M\000"
 3290      53504545 
 3290      445F324D 
 3290      00
ARM GAS  /var/folders/sv/kgmgr77579zbf78p2zlhkdfr0000gn/T//cc5pHw1f.s 			page 69


 3291              	.LASF1:
 3292 0cff 756E7369 		.ascii	"unsigned char\000"
 3292      676E6564 
 3292      20636861 
 3292      7200
 3293              	.LASF233:
 3294 0d0d 6170705F 		.ascii	"app_uart_baudrate\000"
 3294      75617274 
 3294      5F626175 
 3294      64726174 
 3294      6500
 3295              	.LASF149:
 3296 0d1f 74635F6D 		.ascii	"tc_max_diff\000"
 3296      61785F64 
 3296      69666600 
 3297              	.LASF7:
 3298 0d2b 5F5F7569 		.ascii	"__uint32_t\000"
 3298      6E743332 
 3298      5F7400
 3299              	.LASF70:
 3300 0d36 76697274 		.ascii	"virtual_timers_list_t\000"
 3300      75616C5F 
 3300      74696D65 
 3300      72735F6C 
 3300      6973745F 
 3301              	.LASF38:
 3302 0d4c 705F7265 		.ascii	"p_refs\000"
 3302      667300
 3303              	.LASF75:
 3304 0d53 70616E69 		.ascii	"panic_msg\000"
 3304      635F6D73 
 3304      6700
 3305              	.LASF211:
 3306 0d5d 4E52465F 		.ascii	"NRF_RETR_DELAY_3500US\000"
 3306      52455452 
 3306      5F44454C 
 3306      41595F33 
 3306      35303055 
 3307              	.LASF171:
 3308 0d73 7573655F 		.ascii	"use_filter\000"
 3308      66696C74 
 3308      657200
 3309              	.LASF183:
 3310 0d7e 6368756B 		.ascii	"chuk_config\000"
 3310      5F636F6E 
 3310      66696700 
 3311              	.LASF39:
 3312 0d8a 705F7072 		.ascii	"p_preempt\000"
 3312      65656D70 
 3312      7400
 3313              	.LASF257:
 3314 0d94 6170705F 		.ascii	"app_uartcomm_start\000"
 3314      75617274 
 3314      636F6D6D 
 3314      5F737461 
 3314      727400
 3315              	.LASF182:
ARM GAS  /var/folders/sv/kgmgr77579zbf78p2zlhkdfr0000gn/T//cc5pHw1f.s 			page 70


 3316 0da7 73746963 		.ascii	"stick_erpm_per_s_in_cc\000"
 3316      6B5F6572 
 3316      706D5F70 
 3316      65725F73 
 3316      5F696E5F 
 3317              	.LASF65:
 3318 0dbe 76745F6E 		.ascii	"vt_next\000"
 3318      65787400 
 3319              	.LASF248:
 3320 0dc6 6170705F 		.ascii	"app_uartcomm_configure\000"
 3320      75617274 
 3320      636F6D6D 
 3320      5F636F6E 
 3320      66696775 
 3321              	.LASF252:
 3322 0ddd 6E72665F 		.ascii	"nrf_driver_stop\000"
 3322      64726976 
 3322      65725F73 
 3322      746F7000 
 3323              	.LASF243:
 3324 0ded 636F6D6D 		.ascii	"comm_can_set_baud\000"
 3324      5F63616E 
 3324      5F736574 
 3324      5F626175 
 3324      6400
 3325              	.LASF76:
 3326 0dff 63685F73 		.ascii	"ch_system_t\000"
 3326      79737465 
 3326      6D5F7400 
 3327              	.LASF226:
 3328 0e0b 74696D65 		.ascii	"timeout_brake_current\000"
 3328      6F75745F 
 3328      6272616B 
 3328      655F6375 
 3328      7272656E 
 3329              	.LASF222:
 3330 0e21 73656E64 		.ascii	"send_crc_ack\000"
 3330      5F637263 
 3330      5F61636B 
 3330      00
 3331              	.LASF216:
 3332 0e2e 706F7765 		.ascii	"power\000"
 3332      7200
 3333              	.LASF219:
 3334 0e34 72657472 		.ascii	"retries\000"
 3334      69657300 
 3335              	.LASF262:
 3336 0e3c 2F557365 		.ascii	"/Users/moslin/Documents/Project/bldc-master\000"
 3336      72732F6D 
 3336      6F736C69 
 3336      6E2F446F 
 3336      63756D65 
 3337              	.LASF102:
 3338 0e68 6D5F6E65 		.ascii	"m_next\000"
 3338      787400
 3339              	.LASF0:
 3340 0e6f 7369676E 		.ascii	"signed char\000"
ARM GAS  /var/folders/sv/kgmgr77579zbf78p2zlhkdfr0000gn/T//cc5pHw1f.s 			page 71


 3340      65642063 
 3340      68617200 
 3341              	.LASF249:
 3342 0e7b 6170705F 		.ascii	"app_nunchuk_configure\000"
 3342      6E756E63 
 3342      68756B5F 
 3342      636F6E66 
 3342      69677572 
 3343              	.LASF161:
 3344 0e91 4144435F 		.ascii	"ADC_CTRL_TYPE_DUTY_REV_BUTTON\000"
 3344      4354524C 
 3344      5F545950 
 3344      455F4455 
 3344      54595F52 
 3345              	.LASF58:
 3346 0eaf 725F6374 		.ascii	"r_ctx\000"
 3346      7800
 3347              	.LASF264:
 3348 0eb5 6170705F 		.ascii	"app_set_configuration\000"
 3348      7365745F 
 3348      636F6E66 
 3348      69677572 
 3348      6174696F 
 3349              	.LASF84:
 3350 0ecb 73746B61 		.ascii	"stkalign_t\000"
 3350      6C69676E 
 3350      5F7400
 3351              	.LASF116:
 3352 0ed6 4150505F 		.ascii	"APP_PPM_UART\000"
 3352      50504D5F 
 3352      55415254 
 3352      00
 3353              	.LASF267:
 3354 0ee3 6D656D63 		.ascii	"memcpy\000"
 3354      707900
 3355              	.LASF191:
 3356 0eea 4E52465F 		.ascii	"NRF_POWER_0DBM\000"
 3356      504F5745 
 3356      525F3044 
 3356      424D00
 3357              	.LASF232:
 3358 0ef9 6170705F 		.ascii	"app_adc_conf\000"
 3358      6164635F 
 3358      636F6E66 
 3358      00
 3359              	.LASF162:
 3360 0f06 4144435F 		.ascii	"ADC_CTRL_TYPE_PID\000"
 3360      4354524C 
 3360      5F545950 
 3360      455F5049 
 3360      4400
 3361              	.LASF68:
 3362 0f18 76745F66 		.ascii	"vt_func\000"
 3362      756E6300 
 3363              	.LASF66:
 3364 0f20 76745F70 		.ascii	"vt_prev\000"
 3364      72657600 
ARM GAS  /var/folders/sv/kgmgr77579zbf78p2zlhkdfr0000gn/T//cc5pHw1f.s 			page 72


 3365              	.LASF261:
 3366 0f28 6170706C 		.ascii	"applications/app.c\000"
 3366      69636174 
 3366      696F6E73 
 3366      2F617070 
 3366      2E6300
 3367              	.LASF205:
 3368 0f3b 4E52465F 		.ascii	"NRF_RETR_DELAY_2000US\000"
 3368      52455452 
 3368      5F44454C 
 3368      41595F32 
 3368      30303055 
 3369              	.LASF202:
 3370 0f51 4E52465F 		.ascii	"NRF_RETR_DELAY_1250US\000"
 3370      52455452 
 3370      5F44454C 
 3370      41595F31 
 3370      32353055 
 3371              	.LASF184:
 3372 0f67 4E52465F 		.ascii	"NRF_SPEED_250K\000"
 3372      53504545 
 3372      445F3235 
 3372      304B00
 3373              	.LASF185:
 3374 0f76 4E52465F 		.ascii	"NRF_SPEED_1M\000"
 3374      53504545 
 3374      445F314D 
 3374      00
 3375              	.LASF125:
 3376 0f83 7468725F 		.ascii	"thr_exp_mode\000"
 3376      6578705F 
 3376      6D6F6465 
 3376      00
 3377              	.LASF263:
 3378 0f90 6170705F 		.ascii	"app_get_configuration\000"
 3378      6765745F 
 3378      636F6E66 
 3378      69677572 
 3378      6174696F 
 3379              	.LASF92:
 3380 0fa6 77747472 		.ascii	"wttrp\000"
 3380      7000
 3381              	.LASF94:
 3382 0fac 77746D74 		.ascii	"wtmtxp\000"
 3382      787000
 3383              	.LASF124:
 3384 0fb3 5448525F 		.ascii	"THR_EXP_POLY\000"
 3384      4558505F 
 3384      504F4C59 
 3384      00
 3385              	.LASF134:
 3386 0fc0 70706D5F 		.ascii	"ppm_control_type\000"
 3386      636F6E74 
 3386      726F6C5F 
 3386      74797065 
 3386      00
 3387              	.LASF151:
ARM GAS  /var/folders/sv/kgmgr77579zbf78p2zlhkdfr0000gn/T//cc5pHw1f.s 			page 73


 3388 0fd1 4144435F 		.ascii	"ADC_CTRL_TYPE_NONE\000"
 3388      4354524C 
 3388      5F545950 
 3388      455F4E4F 
 3388      4E4500
 3389              	.LASF90:
 3390 0fe4 65786974 		.ascii	"exitcode\000"
 3390      636F6465 
 3390      00
 3391              	.LASF187:
 3392 0fed 4E52465F 		.ascii	"NRF_SPEED\000"
 3392      53504545 
 3392      4400
 3393              	.LASF33:
 3394 0ff7 705F6E65 		.ascii	"p_newer\000"
 3394      77657200 
 3395              	.LASF177:
 3396 0fff 6164635F 		.ascii	"adc_config\000"
 3396      636F6E66 
 3396      696700
 3397              		.ident	"GCC: (GNU Tools for ARM Embedded Processors) 5.4.1 20160919 (release) [ARM/embedded-5-bran
ARM GAS  /var/folders/sv/kgmgr77579zbf78p2zlhkdfr0000gn/T//cc5pHw1f.s 			page 74


DEFINED SYMBOLS
                            *ABS*:0000000000000000 app.c
/var/folders/sv/kgmgr77579zbf78p2zlhkdfr0000gn/T//cc5pHw1f.s:22     .text.app_get_configuration:0000000000000000 $t
/var/folders/sv/kgmgr77579zbf78p2zlhkdfr0000gn/T//cc5pHw1f.s:28     .text.app_get_configuration:0000000000000000 app_get_configuration
/var/folders/sv/kgmgr77579zbf78p2zlhkdfr0000gn/T//cc5pHw1f.s:42     .text.app_get_configuration:0000000000000004 $d
/var/folders/sv/kgmgr77579zbf78p2zlhkdfr0000gn/T//cc5pHw1f.s:47     .text.app_set_configuration:0000000000000000 $t
/var/folders/sv/kgmgr77579zbf78p2zlhkdfr0000gn/T//cc5pHw1f.s:53     .text.app_set_configuration:0000000000000000 app_set_configuration
/var/folders/sv/kgmgr77579zbf78p2zlhkdfr0000gn/T//cc5pHw1f.s:109    .text.app_set_configuration:000000000000003c $d
/var/folders/sv/kgmgr77579zbf78p2zlhkdfr0000gn/T//cc5pHw1f.s:117    .text.app_set_configuration:0000000000000044 $t
/var/folders/sv/kgmgr77579zbf78p2zlhkdfr0000gn/T//cc5pHw1f.s:234    .text.app_set_configuration:00000000000000c8 $d
/var/folders/sv/kgmgr77579zbf78p2zlhkdfr0000gn/T//cc5pHw1f.s:244    .bss.appconf:0000000000000000 $d
/var/folders/sv/kgmgr77579zbf78p2zlhkdfr0000gn/T//cc5pHw1f.s:248    .bss.appconf:0000000000000000 appconf
                     .debug_frame:0000000000000010 $d

UNDEFINED SYMBOLS
memcpy
app_ppm_stop
app_adc_stop
app_uartcomm_stop
app_nunchuk_stop
comm_can_set_baud
app_custom_stop
app_nunchuk_start
app_ppm_configure
app_adc_configure
app_uartcomm_configure
app_nunchuk_configure
app_custom_configure
rfhelp_update_conf
nrf_driver_stop
hw_stop_i2c
app_custom_start
app_ppm_start
app_adc_start
app_uartcomm_start
nrf_driver_init
rfhelp_restart
conf_general_permanent_nrf_found
