ARM GAS  /var/folders/sv/kgmgr77579zbf78p2zlhkdfr0000gn/T//cc5pHw1f.s 			page 1


   1              		.syntax unified
   2              		.cpu cortex-m4
   3              		.eabi_attribute 27, 1
   4              		.eabi_attribute 28, 1
   5              		.fpu fpv4-sp-d16
   6              		.eabi_attribute 20, 1
   7              		.eabi_attribute 21, 1
   8              		.eabi_attribute 23, 3
   9              		.eabi_attribute 24, 1
  10              		.eabi_attribute 25, 1
  11              		.eabi_attribute 26, 1
  12              		.eabi_attribute 30, 2
  13              		.eabi_attribute 34, 1
  14              		.eabi_attribute 18, 4
  15              		.thumb
  16              		.syntax unified
  17              		.file	"app.c"
  18              		.text
  19              	.Ltext0:
  20              		.cfi_sections	.debug_frame
  21              		.section	.text.app_get_configuration,"ax",%progbits
  22              		.align	2
  23              		.p2align 4,,15
  24              		.global	app_get_configuration
  25              		.thumb
  26              		.thumb_func
  27              		.type	app_get_configuration, %function
  28              	app_get_configuration:
  29              	.LFB256:
  30              		.file 1 "applications/app.c"
  31              		.loc 1 31 0
  32              		.cfi_startproc
  33              		@ args = 0, pretend = 0, frame = 0
  34              		@ frame_needed = 0, uses_anonymous_args = 0
  35              		@ link register save eliminated.
  36              		.loc 1 33 0
  37 0000 0048     		ldr	r0, .L2
  38 0002 7047     		bx	lr
  39              	.L3:
  40              		.align	2
  41              	.L2:
  42 0004 00000000 		.word	.LANCHOR0
  43              		.cfi_endproc
  44              	.LFE256:
  45              		.size	app_get_configuration, .-app_get_configuration
  46              		.section	.text.app_set_configuration,"ax",%progbits
  47              		.align	2
  48              		.p2align 4,,15
  49              		.global	app_set_configuration
  50              		.thumb
  51              		.thumb_func
  52              		.type	app_set_configuration, %function
  53              	app_set_configuration:
  54              	.LFB257:
  55              		.loc 1 41 0
  56              		.cfi_startproc
  57              		@ args = 0, pretend = 0, frame = 0
ARM GAS  /var/folders/sv/kgmgr77579zbf78p2zlhkdfr0000gn/T//cc5pHw1f.s 			page 2


  58              		@ frame_needed = 0, uses_anonymous_args = 0
  59              	.LVL0:
  60 0000 70B5     		push	{r4, r5, r6, lr}
  61              		.cfi_def_cfa_offset 16
  62              		.cfi_offset 4, -16
  63              		.cfi_offset 5, -12
  64              		.cfi_offset 6, -8
  65              		.cfi_offset 14, -4
  66              		.loc 1 41 0
  67 0002 0446     		mov	r4, r0
  68              		.loc 1 49 0
  69 0004 304E     		ldr	r6, .L19
  70              		.loc 1 42 0
  71 0006 3148     		ldr	r0, .L19+4
  72              	.LVL1:
  73 0008 2146     		mov	r1, r4
  74 000a C822     		movs	r2, #200
  75 000c FFF7FEFF 		bl	memcpy
  76              	.LVL2:
  77              		.loc 1 44 0
  78 0010 FFF7FEFF 		bl	app_ppm_stop
  79              	.LVL3:
  80              		.loc 1 45 0
  81 0014 FFF7FEFF 		bl	app_adc_stop
  82              	.LVL4:
  83              		.loc 1 46 0
  84 0018 FFF7FEFF 		bl	app_uartcomm_stop
  85              	.LVL5:
  86              		.loc 1 47 0
  87 001c FFF7FEFF 		bl	app_nunchuk_stop
  88              	.LVL6:
  89              		.loc 1 49 0
  90 0020 3378     		ldrb	r3, [r6]	@ zero_extendqisi2
  91 0022 33B3     		cbz	r3, .L18
  92              	.L5:
  93              		.loc 1 61 0
  94 0024 294D     		ldr	r5, .L19+4
  95              		.loc 1 54 0
  96 0026 207D     		ldrb	r0, [r4, #20]	@ zero_extendqisi2
  97 0028 FFF7FEFF 		bl	comm_can_set_baud
  98              	.LVL7:
  99              		.loc 1 58 0
 100 002c FFF7FEFF 		bl	app_custom_stop
 101              	.LVL8:
 102              		.loc 1 61 0
 103 0030 6B7D     		ldrb	r3, [r5, #21]	@ zero_extendqisi2
 104 0032 013B     		subs	r3, r3, #1
 105 0034 072B     		cmp	r3, #7
 106 0036 07D8     		bhi	.L6
 107 0038 DFE803F0 		tbb	[pc, r3]
 108              	.L8:
 109 003c 23       		.byte	(.L7-.L8)/2
 110 003d 26       		.byte	(.L9-.L8)/2
 111 003e 2A       		.byte	(.L10-.L8)/2
 112 003f 2F       		.byte	(.L11-.L8)/2
 113 0040 36       		.byte	(.L12-.L8)/2
 114 0041 04       		.byte	(.L13-.L8)/2
ARM GAS  /var/folders/sv/kgmgr77579zbf78p2zlhkdfr0000gn/T//cc5pHw1f.s 			page 3


 115 0042 3E       		.byte	(.L14-.L8)/2
 116 0043 1E       		.byte	(.L15-.L8)/2
 117              		.p2align 1
 118              	.L13:
 119              		.loc 1 88 0
 120 0044 FFF7FEFF 		bl	app_nunchuk_start
 121              	.LVL9:
 122              	.L6:
 123              		.loc 1 109 0
 124 0048 2148     		ldr	r0, .L19+8
 125 004a FFF7FEFF 		bl	app_ppm_configure
 126              	.LVL10:
 127              		.loc 1 110 0
 128 004e 2148     		ldr	r0, .L19+12
 129 0050 FFF7FEFF 		bl	app_adc_configure
 130              	.LVL11:
 131              		.loc 1 111 0
 132 0054 D5F89400 		ldr	r0, [r5, #148]
 133 0058 FFF7FEFF 		bl	app_uartcomm_configure
 134              	.LVL12:
 135              		.loc 1 112 0
 136 005c 1E48     		ldr	r0, .L19+16
 137 005e FFF7FEFF 		bl	app_nunchuk_configure
 138              	.LVL13:
 139              		.loc 1 115 0
 140 0062 1A48     		ldr	r0, .L19+4
 141 0064 FFF7FEFF 		bl	app_custom_configure
 142              	.LVL14:
 143              		.loc 1 118 0
 144 0068 1C48     		ldr	r0, .L19+20
 145              		.loc 1 119 0
 146 006a BDE87040 		pop	{r4, r5, r6, lr}
 147              		.cfi_remember_state
 148              		.cfi_restore 14
 149              		.cfi_restore 6
 150              		.cfi_restore 5
 151              		.cfi_restore 4
 152              		.cfi_def_cfa_offset 0
 153              	.LVL15:
 154              		.loc 1 118 0
 155 006e FFF7FEBF 		b	rfhelp_update_conf
 156              	.LVL16:
 157              	.L18:
 158              		.cfi_restore_state
 159              		.loc 1 50 0
 160 0072 FFF7FEFF 		bl	nrf_driver_stop
 161              	.LVL17:
 162 0076 D5E7     		b	.L5
 163              	.L15:
 164              		.loc 1 100 0
 165 0078 FFF7FEFF 		bl	hw_stop_i2c
 166              	.LVL18:
 167              		.loc 1 101 0
 168 007c FFF7FEFF 		bl	app_custom_start
 169              	.LVL19:
 170              		.loc 1 103 0
 171 0080 E2E7     		b	.L6
ARM GAS  /var/folders/sv/kgmgr77579zbf78p2zlhkdfr0000gn/T//cc5pHw1f.s 			page 4


 172              	.L7:
 173              		.loc 1 63 0
 174 0082 FFF7FEFF 		bl	app_ppm_start
 175              	.LVL20:
 176              		.loc 1 64 0
 177 0086 DFE7     		b	.L6
 178              	.L9:
 179              		.loc 1 67 0
 180 0088 0120     		movs	r0, #1
 181 008a FFF7FEFF 		bl	app_adc_start
 182              	.LVL21:
 183              		.loc 1 68 0
 184 008e DBE7     		b	.L6
 185              	.L10:
 186              		.loc 1 71 0
 187 0090 FFF7FEFF 		bl	hw_stop_i2c
 188              	.LVL22:
 189              		.loc 1 72 0
 190 0094 FFF7FEFF 		bl	app_uartcomm_start
 191              	.LVL23:
 192              		.loc 1 73 0
 193 0098 D6E7     		b	.L6
 194              	.L11:
 195              		.loc 1 76 0
 196 009a FFF7FEFF 		bl	hw_stop_i2c
 197              	.LVL24:
 198              		.loc 1 77 0
 199 009e FFF7FEFF 		bl	app_ppm_start
 200              	.LVL25:
 201              		.loc 1 78 0
 202 00a2 FFF7FEFF 		bl	app_uartcomm_start
 203              	.LVL26:
 204              		.loc 1 79 0
 205 00a6 CFE7     		b	.L6
 206              	.L12:
 207              		.loc 1 82 0
 208 00a8 FFF7FEFF 		bl	hw_stop_i2c
 209              	.LVL27:
 210              		.loc 1 83 0
 211 00ac 0020     		movs	r0, #0
 212 00ae FFF7FEFF 		bl	app_adc_start
 213              	.LVL28:
 214              		.loc 1 84 0
 215 00b2 FFF7FEFF 		bl	app_uartcomm_start
 216              	.LVL29:
 217              		.loc 1 85 0
 218 00b6 C7E7     		b	.L6
 219              	.L14:
 220              		.loc 1 92 0
 221 00b8 3378     		ldrb	r3, [r6]	@ zero_extendqisi2
 222 00ba 002B     		cmp	r3, #0
 223 00bc C4D1     		bne	.L6
 224              		.loc 1 93 0
 225 00be FFF7FEFF 		bl	nrf_driver_init
 226              	.LVL30:
 227              		.loc 1 94 0
 228 00c2 FFF7FEFF 		bl	rfhelp_restart
ARM GAS  /var/folders/sv/kgmgr77579zbf78p2zlhkdfr0000gn/T//cc5pHw1f.s 			page 5


 229              	.LVL31:
 230 00c6 BFE7     		b	.L6
 231              	.L20:
 232              		.align	2
 233              	.L19:
 234 00c8 00000000 		.word	conf_general_permanent_nrf_found
 235 00cc 00000000 		.word	.LANCHOR0
 236 00d0 18000000 		.word	.LANCHOR0+24
 237 00d4 50000000 		.word	.LANCHOR0+80
 238 00d8 98000000 		.word	.LANCHOR0+152
 239 00dc BC000000 		.word	.LANCHOR0+188
 240              		.cfi_endproc
 241              	.LFE257:
 242              		.size	app_set_configuration, .-app_set_configuration
 243              		.section	.bss.appconf,"aw",%nobits
 244              		.align	2
 245              		.set	.LANCHOR0,. + 0
 246              		.type	appconf, %object
 247              		.size	appconf, 200
 248              	appconf:
 249 0000 00000000 		.space	200
 249      00000000 
 249      00000000 
 249      00000000 
 249      00000000 
 250              		.text
 251              	.Letext0:
 252              		.file 2 "/usr/local/Cellar/gcc-arm-none-eabi/20160928/arm-none-eabi/include/machine/_default_types
 253              		.file 3 "/usr/local/Cellar/gcc-arm-none-eabi/20160928/arm-none-eabi/include/sys/_stdint.h"
 254              		.file 4 "/usr/local/Cellar/gcc-arm-none-eabi/20160928/lib/gcc/arm-none-eabi/5.4.1/include/stddef.h
 255              		.file 5 "ChibiOS_3.0.2/os/rt/ports/ARMCMx/compilers/GCC/chtypes.h"
 256              		.file 6 "ChibiOS_3.0.2/os/rt/include/chsystypes.h"
 257              		.file 7 "ChibiOS_3.0.2/os/rt/include/chschd.h"
 258              		.file 8 "ChibiOS_3.0.2/os/rt/ports/ARMCMx/chcore.h"
 259              		.file 9 "ChibiOS_3.0.2/os/rt/ports/ARMCMx/chcore_v7m.h"
 260              		.file 10 "ChibiOS_3.0.2/os/rt/include/chtm.h"
 261              		.file 11 "ChibiOS_3.0.2/os/rt/include/chsem.h"
 262              		.file 12 "ChibiOS_3.0.2/os/rt/include/chmtx.h"
 263              		.file 13 "./datatypes.h"
 264              		.file 14 "ChibiOS_3.0.2/os/ext/CMSIS/include/core_cm4.h"
 265              		.file 15 "./conf_general.h"
 266              		.file 16 "applications/app.h"
 267              		.file 17 "./comm_can.h"
 268              		.file 18 "nrf/rfhelp.h"
 269              		.file 19 "nrf/nrf_driver.h"
 270              		.file 20 "hwconf/hw.h"