ARM GAS  /var/folders/sv/kgmgr77579zbf78p2zlhkdfr0000gn/T//ccySOtH9.s 			page 1


   1              		.syntax unified
   2              		.cpu cortex-m4
   3              		.eabi_attribute 27, 1
   4              		.eabi_attribute 28, 1
   5              		.fpu fpv4-sp-d16
   6              		.eabi_attribute 20, 1
   7              		.eabi_attribute 21, 1
   8              		.eabi_attribute 23, 3
   9              		.eabi_attribute 24, 1
  10              		.eabi_attribute 25, 1
  11              		.eabi_attribute 26, 1
  12              		.eabi_attribute 30, 2
  13              		.eabi_attribute 34, 1
  14              		.eabi_attribute 18, 4
  15              		.thumb
  16              		.syntax unified
  17              		.file	"app_nunchuk.c"
  18              		.text
  19              	.Ltext0:
  20              		.cfi_sections	.debug_frame
  21              		.section	.text.terminal_cmd_nunchuk_status,"ax",%progbits
  22              		.align	2
  23              		.p2align 4,,15
  24              		.thumb
  25              		.thumb_func
  26              		.type	terminal_cmd_nunchuk_status, %function
  27              	terminal_cmd_nunchuk_status:
  28              	.LFB263:
  29              		.file 1 "applications/app_nunchuk.c"
  30              		.loc 1 488 0
  31              		.cfi_startproc
  32              		@ args = 0, pretend = 0, frame = 0
  33              		@ frame_needed = 0, uses_anonymous_args = 0
  34              	.LVL0:
  35 0000 08B5     		push	{r3, lr}
  36              		.cfi_def_cfa_offset 8
  37              		.cfi_offset 3, -8
  38              		.cfi_offset 14, -4
  39              		.loc 1 492 0
  40 0002 0948     		ldr	r0, .L5
  41              	.LVL1:
  42 0004 FFF7FEFF 		bl	commands_printf
  43              	.LVL2:
  44              		.loc 1 493 0
  45 0008 084B     		ldr	r3, .L5+4
  46 000a 094A     		ldr	r2, .L5+8
  47 000c 1978     		ldrb	r1, [r3]	@ zero_extendqisi2
  48 000e 094B     		ldr	r3, .L5+12
  49 0010 0948     		ldr	r0, .L5+16
  50 0012 0029     		cmp	r1, #0
  51 0014 14BF     		ite	ne
  52 0016 1146     		movne	r1, r2
  53 0018 1946     		moveq	r1, r3
  54 001a FFF7FEFF 		bl	commands_printf
  55              	.LVL3:
  56              		.loc 1 494 0
  57 001e 0748     		ldr	r0, .L5+20
ARM GAS  /var/folders/sv/kgmgr77579zbf78p2zlhkdfr0000gn/T//ccySOtH9.s 			page 2


  58              		.loc 1 495 0
  59 0020 BDE80840 		pop	{r3, lr}
  60              		.cfi_restore 14
  61              		.cfi_restore 3
  62              		.cfi_def_cfa_offset 0
  63              		.loc 1 494 0
  64 0024 FFF7FEBF 		b	commands_printf
  65              	.LVL4:
  66              	.L6:
  67              		.align	2
  68              	.L5:
  69 0028 08000000 		.word	.LC2
  70 002c 00000000 		.word	.LANCHOR0
  71 0030 00000000 		.word	.LC0
  72 0034 04000000 		.word	.LC1
  73 0038 18000000 		.word	.LC3
  74 003c 24000000 		.word	.LC4
  75              		.cfi_endproc
  76              	.LFE263:
  77              		.size	terminal_cmd_nunchuk_status, .-terminal_cmd_nunchuk_status
  78              		.section	.text.output_thread,"ax",%progbits
  79              		.align	2
  80              		.p2align 4,,15
  81              		.thumb
  82              		.thumb_func
  83              		.type	output_thread, %function
  84              	output_thread:
  85              	.LFB262:
  86              		.loc 1 201 0
  87              		.cfi_startproc
  88              		@ args = 0, pretend = 0, frame = 24
  89              		@ frame_needed = 0, uses_anonymous_args = 0
  90              	.LVL5:
  91 0000 2DE9F04F 		push	{r4, r5, r6, r7, r8, r9, r10, fp, lr}
  92              		.cfi_def_cfa_offset 36
  93              		.cfi_offset 4, -36
  94              		.cfi_offset 5, -32
  95              		.cfi_offset 6, -28
  96              		.cfi_offset 7, -24
  97              		.cfi_offset 8, -20
  98              		.cfi_offset 9, -16
  99              		.cfi_offset 10, -12
 100              		.cfi_offset 11, -8
 101              		.cfi_offset 14, -4
 102              	.LBB87:
 103              	.LBB88:
 104              		.file 2 "ChibiOS_3.0.2/os/rt/include/chregistry.h"
 105              		.loc 2 135 0
 106 0004 BB4E     		ldr	r6, .L175
 107 0006 BC4A     		ldr	r2, .L175+4
 108 0008 B369     		ldr	r3, [r6, #24]
 109 000a BC4C     		ldr	r4, .L175+8
 110 000c BC4D     		ldr	r5, .L175+12
 111 000e DFF834A3 		ldr	r10, .L175+80
 112 0012 BC4F     		ldr	r7, .L175+16
 113 0014 DFF83083 		ldr	r8, .L175+84
 114              	.LBE88:
ARM GAS  /var/folders/sv/kgmgr77579zbf78p2zlhkdfr0000gn/T//ccySOtH9.s 			page 3


 115              	.LBE87:
 116              		.loc 1 201 0
 117 0018 2DED0C8B 		vpush.64	{d8, d9, d10, d11, d12, d13}
 118              		.cfi_def_cfa_offset 84
 119              		.cfi_offset 80, -84
 120              		.cfi_offset 81, -80
 121              		.cfi_offset 82, -76
 122              		.cfi_offset 83, -72
 123              		.cfi_offset 84, -68
 124              		.cfi_offset 85, -64
 125              		.cfi_offset 86, -60
 126              		.cfi_offset 87, -56
 127              		.cfi_offset 88, -52
 128              		.cfi_offset 89, -48
 129              		.cfi_offset 90, -44
 130              		.cfi_offset 91, -40
 131              	.LBB90:
 132              		.loc 1 224 0
 133 001c 9FEDBAAA 		vldr.32	s20, .L175+20
 134              		.loc 1 244 0
 135 0020 DFEDBA9A 		vldr.32	s19, .L175+24
 136              	.LBB91:
 137              	.LBB92:
 138              	.LBB93:
 139              		.loc 1 448 0
 140 0024 9FEDBA9A 		vldr.32	s18, .L175+28
 141 0028 DFEDBA8A 		vldr.32	s17, .L175+32
 142              	.LBE93:
 143              	.LBE92:
 144              	.LBE91:
 145              	.LBE90:
 146              	.LBB147:
 147              	.LBB89:
 148              		.loc 2 135 0
 149 002c 9A61     		str	r2, [r3, #24]
 150              	.LBE89:
 151              	.LBE147:
 152              		.loc 1 201 0
 153 002e 87B0     		sub	sp, sp, #28
 154              		.cfi_def_cfa_offset 112
 155              	.LVL6:
 156              	.L8:
 157              	.LBB148:
 158              		.loc 1 207 0
 159 0030 0A20     		movs	r0, #10
 160 0032 FFF7FEFF 		bl	chThdSleep
 161              	.LVL7:
 162              		.loc 1 209 0
 163 0036 FFF7FEFF 		bl	timeout_has_timeout
 164              	.LVL8:
 165 003a 0028     		cmp	r0, #0
 166 003c F8D1     		bne	.L8
 167              		.loc 1 209 0 is_stmt 0 discriminator 1
 168 003e 2368     		ldr	r3, [r4]
 169 0040 002B     		cmp	r3, #0
 170 0042 F5D1     		bne	.L8
 171              		.loc 1 209 0 discriminator 2
ARM GAS  /var/folders/sv/kgmgr77579zbf78p2zlhkdfr0000gn/T//ccySOtH9.s 			page 4


 172 0044 2B78     		ldrb	r3, [r5]	@ zero_extendqisi2
 173 0046 002B     		cmp	r3, #0
 174 0048 F2D0     		beq	.L8
 175              		.loc 1 215 0 is_stmt 1
 176 004a DAF80020 		ldr	r2, [r10]
 177              	.LVL9:
 178              	.LBB105:
 179              	.LBB106:
 180              	.LBB107:
 181              	.LBB108:
 182              		.file 3 "ChibiOS_3.0.2/os/rt/include/chvt.h"
 183              		.loc 3 231 0
 184 004e B36A     		ldr	r3, [r6, #40]
 185              	.LVL10:
 186              	.LBE108:
 187              	.LBE107:
 188              	.LBE106:
 189              	.LBE105:
 190              		.loc 1 215 0
 191 0050 9B1A     		subs	r3, r3, r2
 192 0052 44F62062 		movw	r2, #20000
 193 0056 9342     		cmp	r3, r2
 194 0058 EAD8     		bhi	.L8
 195              		.loc 1 219 0
 196 005a FFF7FEFF 		bl	mc_interface_get_configuration
 197              	.LVL11:
 198 005e 8146     		mov	r9, r0
 199              	.LVL12:
 200              		.loc 1 222 0
 201 0060 FFF7FEFF 		bl	mc_interface_get_tot_current_directional_filtered
 202              	.LVL13:
 203              		.loc 1 224 0
 204 0064 99ED01BA 		vldr.32	s22, [r9, #4]
 205              		.loc 1 226 0
 206 0068 3B7D     		ldrb	r3, [r7, #20]	@ zero_extendqisi2
 207 006a A64A     		ldr	r2, .L175+16
 208              		.loc 1 222 0
 209 006c F0EE40AA 		vmov.f32	s21, s0
 210              	.LVL14:
 211              		.loc 1 224 0
 212 0070 2BEE0ABA 		vmul.f32	s22, s22, s20
 213              	.LVL15:
 214              		.loc 1 226 0
 215 0074 1BB1     		cbz	r3, .L10
 216              		.loc 1 226 0 is_stmt 0 discriminator 1
 217 0076 537D     		ldrb	r3, [r2, #21]	@ zero_extendqisi2
 218 0078 002B     		cmp	r3, #0
 219 007a 40F02982 		bne	.L164
 220              	.L10:
 221              		.loc 1 231 0 is_stmt 1
 222 007e 7B7D     		ldrb	r3, [r7, #21]	@ zero_extendqisi2
 223 0080 03F0FF00 		and	r0, r3, #255
 224 0084 3BB1     		cbz	r3, .L14
 225              		.loc 1 231 0 is_stmt 0 discriminator 1
 226 0086 A44B     		ldr	r3, .L175+36
 227 0088 1B78     		ldrb	r3, [r3]	@ zero_extendqisi2
 228 008a 23B9     		cbnz	r3, .L14
ARM GAS  /var/folders/sv/kgmgr77579zbf78p2zlhkdfr0000gn/T//ccySOtH9.s 			page 5


 229              		.loc 1 231 0 discriminator 2
 230 008c 2A78     		ldrb	r2, [r5]	@ zero_extendqisi2
 231 008e D2B2     		uxtb	r2, r2
 232 0090 012A     		cmp	r2, #1
 233 0092 00F09E82 		beq	.L165
 234              	.L14:
 235 0096 98F80000 		ldrb	r0, [r8]	@ zero_extendqisi2
 236              	.L13:
 237              		.loc 1 240 0 is_stmt 1
 238 009a 9F4A     		ldr	r2, .L175+36
 239 009c 7B7D     		ldrb	r3, [r7, #21]	@ zero_extendqisi2
 240 009e 1370     		strb	r3, [r2]
 241              		.loc 1 242 0
 242 00a0 FFF7FEFF 		bl	led_external_set_reversed
 243              	.LVL16:
 244              	.LBB109:
 245              	.LBB110:
 246              		.loc 1 89 0
 247 00a4 D7ED017A 		vldr.32	s15, [r7, #4]	@ int
 248              	.LBE110:
 249              	.LBE109:
 250              		.loc 1 244 0
 251 00a8 9FED9C8A 		vldr.32	s16, .L175+40
 252              		.loc 1 245 0
 253 00ac 95ED010A 		vldr.32	s0, [r5, #4]
 254              		.loc 1 244 0
 255 00b0 F8EEE77A 		vcvt.f32.s32	s15, s15
 256              		.loc 1 245 0
 257 00b4 F7EE000A 		vmov.f32	s1, #1.0e+0
 258              		.loc 1 244 0
 259 00b8 77EEE97A 		vsub.f32	s15, s15, s19
 260              		.loc 1 245 0
 261 00bc 03A8     		add	r0, sp, #12
 262              		.loc 1 244 0
 263 00be 67EE887A 		vmul.f32	s15, s15, s16
 264 00c2 CDED037A 		vstr.32	s15, [sp, #12]
 265              		.loc 1 245 0
 266 00c6 FFF7FEFF 		bl	utils_deadband
 267              	.LVL17:
 268              		.loc 1 246 0
 269 00ca D5ED050A 		vldr.32	s1, [r5, #20]
 270 00ce 9DED030A 		vldr.32	s0, [sp, #12]
 271 00d2 95ED061A 		vldr.32	s2, [r5, #24]
 272 00d6 287F     		ldrb	r0, [r5, #28]	@ zero_extendqisi2
 273 00d8 FFF7FEFF 		bl	utils_throttle_curve
 274              	.LVL18:
 275              		.loc 1 249 0
 276 00dc D7ED007A 		vldr.32	s15, [r7]	@ int
 277              		.loc 1 250 0
 278 00e0 9FED8F7A 		vldr.32	s14, .L175+44
 279              		.loc 1 246 0
 280 00e4 8DED030A 		vstr.32	s0, [sp, #12]
 281              		.loc 1 249 0
 282 00e8 F8EEE77A 		vcvt.f32.s32	s15, s15
 283              		.loc 1 250 0
 284 00ec B4EEC70A 		vcmpe.f32	s0, s14
 285              		.loc 1 249 0
ARM GAS  /var/folders/sv/kgmgr77579zbf78p2zlhkdfr0000gn/T//ccySOtH9.s 			page 6


 286 00f0 77EEE97A 		vsub.f32	s15, s15, s19
 287              		.loc 1 250 0
 288 00f4 F1EE10FA 		vmrs	APSR_nzcv, FPSCR
 289              		.loc 1 249 0
 290 00f8 27EE888A 		vmul.f32	s16, s15, s16
 291              	.LVL19:
 292              		.loc 1 251 0
 293 00fc DFED897A 		vldr.32	s15, .L175+48
 294 0100 B4EEE78A 		vcmpe.f32	s16, s15
 295              		.loc 1 250 0
 296 0104 58D5     		bpl	.L151
 297              		.loc 1 251 0
 298 0106 F1EE10FA 		vmrs	APSR_nzcv, FPSCR
 299 010a 00F12082 		bmi	.L166
 300              		.loc 1 253 0
 301 010e DFED867A 		vldr.32	s15, .L175+52
 302 0112 B4EEE78A 		vcmpe.f32	s16, s15
 303 0116 F1EE10FA 		vmrs	APSR_nzcv, FPSCR
 304              		.loc 1 254 0
 305 011a CCBF     		ite	gt
 306 011c 0620     		movgt	r0, #6
 307              		.loc 1 256 0
 308 011e 0220     		movle	r0, #2
 309 0120 FFF7FEFF 		bl	led_external_set_state
 310              	.LVL20:
 311              	.L21:
 312              		.loc 1 274 0
 313 0124 814B     		ldr	r3, .L175+56
 314 0126 D3F800B0 		ldr	fp, [r3]
 315 012a 0BF10102 		add	r2, fp, #1
 316 012e 1A60     		str	r2, [r3]
 317 0130 FFF7FEFF 		bl	mc_interface_get_rpm
 318              	.LVL21:
 319              		.loc 1 275 0
 320 0134 7D4B     		ldr	r3, .L175+56
 321 0136 1A68     		ldr	r2, [r3]
 322              		.loc 1 274 0
 323 0138 7D4B     		ldr	r3, .L175+60
 324              		.loc 1 275 0
 325 013a 072A     		cmp	r2, #7
 326              		.loc 1 274 0
 327 013c 03EB8B03 		add	r3, r3, fp, lsl #2
 328 0140 83ED000A 		vstr.32	s0, [r3]
 329              		.loc 1 275 0
 330 0144 02DD     		ble	.L28
 331              		.loc 1 276 0
 332 0146 794A     		ldr	r2, .L175+56
 333 0148 0023     		movs	r3, #0
 334 014a 1360     		str	r3, [r2]
 335              	.L28:
 336              	.LVL22:
 337 014c 784B     		ldr	r3, .L175+60
 338              		.loc 1 279 0
 339 014e DFED7F7A 		vldr.32	s15, .L175+88
 340 0152 03F12002 		add	r2, r3, #32
 341              	.LVL23:
 342              	.L29:
ARM GAS  /var/folders/sv/kgmgr77579zbf78p2zlhkdfr0000gn/T//ccySOtH9.s 			page 7


 343              	.LBB111:
 344              		.loc 1 281 0 discriminator 3
 345 0156 B3EC017A 		vldmia.32	r3!, {s14}
 346              		.loc 1 280 0 discriminator 3
 347 015a 9342     		cmp	r3, r2
 348              		.loc 1 281 0 discriminator 3
 349 015c 77EE877A 		vadd.f32	s15, s15, s14
 350              	.LVL24:
 351              		.loc 1 280 0 discriminator 3
 352 0160 F9D1     		bne	.L29
 353              	.LVL25:
 354              	.LBE111:
 355              		.loc 1 285 0
 356 0162 3B7D     		ldrb	r3, [r7, #20]	@ zero_extendqisi2
 357 0164 03F0FF02 		and	r2, r3, #255
 358 0168 002B     		cmp	r3, #0
 359 016a 35D0     		beq	.L30
 360              	.LBB112:
 361              		.loc 1 288 0
 362 016c 714B     		ldr	r3, .L175+64
 363 016e 1B78     		ldrb	r3, [r3]	@ zero_extendqisi2
 364              	.LBE112:
 365              		.loc 1 283 0
 366 0170 B4EE007A 		vmov.f32	s14, #1.25e-1
 367 0174 67EE877A 		vmul.f32	s15, s15, s14
 368              	.LVL26:
 369              	.LBB122:
 370              		.loc 1 288 0
 371 0178 002B     		cmp	r3, #0
 372 017a 40F04781 		bne	.L31
 373              		.loc 1 289 0
 374 017e 6E4A     		ldr	r2, .L175+68
 375              		.loc 1 291 0
 376 0180 98F80030 		ldrb	r3, [r8]	@ zero_extendqisi2
 377              		.loc 1 289 0
 378 0184 C2ED007A 		vstr.32	s15, [r2]
 379              		.loc 1 291 0
 380 0188 F5EEC07A 		vcmpe.f32	s15, #0
 381 018c 002B     		cmp	r3, #0
 382 018e 40F0E681 		bne	.L167
 383              		.loc 1 291 0 is_stmt 0 discriminator 4
 384 0192 F1EE10FA 		vmrs	APSR_nzcv, FPSCR
 385 0196 00F1E681 		bmi	.L33
 386              	.L156:
 387 019a B0EE670A 		vmov.f32	s0, s15
 388              	.LVL27:
 389              	.L34:
 390              		.loc 1 300 0 is_stmt 1
 391 019e 654A     		ldr	r2, .L175+64
 392 01a0 0123     		movs	r3, #1
 393 01a2 1370     		strb	r3, [r2]
 394              	.L36:
 395              		.loc 1 325 0
 396 01a4 FFF7FEFF 		bl	mc_interface_set_pid_speed
 397              	.LVL28:
 398              		.loc 1 328 0
 399 01a8 6B7F     		ldrb	r3, [r5, #29]	@ zero_extendqisi2
ARM GAS  /var/folders/sv/kgmgr77579zbf78p2zlhkdfr0000gn/T//ccySOtH9.s 			page 8


 400 01aa 002B     		cmp	r3, #0
 401 01ac 40F06481 		bne	.L42
 402              	.LVL29:
 403              	.L46:
 404              		.loc 1 342 0
 405 01b0 624B     		ldr	r3, .L175+72
 406 01b2 C3ED00AA 		vstr.32	s21, [r3]
 407              		.loc 1 344 0
 408 01b6 3BE7     		b	.L8
 409              	.LVL30:
 410              	.L151:
 411              	.LBE122:
 412              		.loc 1 259 0
 413 01b8 F1EE10FA 		vmrs	APSR_nzcv, FPSCR
 414 01bc 00F1CB81 		bmi	.L168
 415              		.loc 1 261 0
 416 01c0 DFED597A 		vldr.32	s15, .L175+52
 417 01c4 B4EEE78A 		vcmpe.f32	s16, s15
 418 01c8 F1EE10FA 		vmrs	APSR_nzcv, FPSCR
 419              		.loc 1 262 0
 420 01cc CCBF     		ite	gt
 421 01ce 0420     		movgt	r0, #4
 422              		.loc 1 264 0
 423 01d0 0120     		movle	r0, #1
 424 01d2 FFF7FEFF 		bl	led_external_set_state
 425              	.LVL31:
 426 01d6 A5E7     		b	.L21
 427              	.LVL32:
 428              	.L30:
 429              		.loc 1 351 0
 430 01d8 DDED037A 		vldr.32	s15, [sp, #12]
 431              	.LVL33:
 432              		.loc 1 347 0
 433 01dc 554B     		ldr	r3, .L175+64
 434              		.loc 1 351 0
 435 01de F5EEC07A 		vcmpe.f32	s15, #0
 436 01e2 F1EE10FA 		vmrs	APSR_nzcv, FPSCR
 437              		.loc 1 354 0
 438 01e6 B4BF     		ite	lt
 439 01e8 99ED1E8A 		vldrlt.32	s16, [r9, #120]
 440              	.LVL34:
 441              		.loc 1 352 0
 442 01ec 99ED1D8A 		vldrge.32	s16, [r9, #116]
 443              		.loc 1 347 0
 444 01f0 1A70     		strb	r2, [r3]
 445              	.LVL35:
 446              		.loc 1 354 0
 447 01f2 B8BF     		it	lt
 448 01f4 B0EEC88A 		vabslt.f32	s16, s16
 449 01f8 28EE278A 		vmul.f32	s16, s16, s15
 450              	.LVL36:
 451              		.loc 1 358 0
 452 01fc FFF7FEFF 		bl	mc_interface_get_rpm
 453              	.LVL37:
 454              		.loc 1 359 0
 455 0200 98F80030 		ldrb	r3, [r8]	@ zero_extendqisi2
 456              		.loc 1 358 0
ARM GAS  /var/folders/sv/kgmgr77579zbf78p2zlhkdfr0000gn/T//ccySOtH9.s 			page 9


 457 0204 F0EE40CA 		vmov.f32	s25, s0
 458              	.LVL38:
 459              		.loc 1 359 0
 460 0208 0BB1     		cbz	r3, .L50
 461              		.loc 1 360 0
 462 020a F1EE40CA 		vneg.f32	s25, s0
 463              	.LVL39:
 464              	.L50:
 465              		.loc 1 366 0
 466 020e 6B7F     		ldrb	r3, [r5, #29]	@ zero_extendqisi2
 467 0210 B0EE6CCA 		vmov.f32	s24, s25
 468 0214 002B     		cmp	r3, #0
 469 0216 3ED0     		beq	.L51
 470              	.LVL40:
 471 0218 4FF0000B 		mov	fp, #0
 472              	.LVL41:
 473              	.L58:
 474              	.LBB123:
 475              	.LBB124:
 476              		.loc 1 368 0
 477 021c 5846     		mov	r0, fp
 478 021e FFF7FEFF 		bl	comm_can_get_status_msg_index
 479              	.LVL42:
 480              		.loc 1 370 0
 481 0222 0368     		ldr	r3, [r0]
 482 0224 002B     		cmp	r3, #0
 483              	.LBE124:
 484              		.loc 1 367 0
 485 0226 0BF1010B 		add	fp, fp, #1
 486              	.LVL43:
 487              	.LBB131:
 488              		.loc 1 370 0
 489 022a 31DB     		blt	.L52
 490              	.LBB125:
 491              	.LBB126:
 492              	.LBB127:
 493              	.LBB128:
 494              		.loc 3 231 0 discriminator 1
 495 022c B36A     		ldr	r3, [r6, #40]
 496              	.LVL44:
 497              	.LBE128:
 498              	.LBE127:
 499              	.LBE126:
 500              	.LBE125:
 501              		.loc 1 370 0 discriminator 1
 502 022e 4268     		ldr	r2, [r0, #4]
 503 0230 9B1A     		subs	r3, r3, r2
 504 0232 07EE903A 		vmov	s15, r3	@ int
 505 0236 F8EE677A 		vcvt.f32.u32	s15, s15
 506              	.LBB129:
 507              		.loc 1 386 0 discriminator 1
 508 023a F0EEEA6A 		vabs.f32	s13, s21
 509              	.LBE129:
 510              		.loc 1 370 0 discriminator 1
 511 023e 87EE897A 		vdiv.f32	s14, s15, s18
 512 0242 B4EEE87A 		vcmpe.f32	s14, s17
 513 0246 F1EE10FA 		vmrs	APSR_nzcv, FPSCR
ARM GAS  /var/folders/sv/kgmgr77579zbf78p2zlhkdfr0000gn/T//ccySOtH9.s 			page 10


 514 024a 21D5     		bpl	.L52
 515              	.LBB130:
 516              		.loc 1 372 0
 517 024c 98F80030 		ldrb	r3, [r8]	@ zero_extendqisi2
 518              		.loc 1 371 0
 519 0250 D0ED027A 		vldr.32	s15, [r0, #8]
 520              	.LVL45:
 521              		.loc 1 372 0
 522 0254 0BB1     		cbz	r3, .L54
 523              		.loc 1 373 0
 524 0256 F1EE677A 		vneg.f32	s15, s15
 525              	.LVL46:
 526              	.L54:
 527              		.loc 1 382 0
 528 025a 90ED046A 		vldr.32	s12, [r0, #16]
 529              		.loc 1 381 0
 530 025e 90ED037A 		vldr.32	s14, [r0, #12]
 531              		.loc 1 377 0
 532 0262 F4EE4C7A 		vcmp.f32	s15, s24
 533 0266 F1EE10FA 		vmrs	APSR_nzcv, FPSCR
 534              		.loc 1 382 0
 535 026a B5EEC06A 		vcmpe.f32	s12, #0
 536              		.loc 1 377 0
 537 026e 48BF     		it	mi
 538 0270 B0EE67CA 		vmovmi.f32	s24, s15
 539              	.LVL47:
 540              		.loc 1 382 0
 541 0274 F1EE10FA 		vmrs	APSR_nzcv, FPSCR
 542              		.loc 1 383 0
 543 0278 48BF     		it	mi
 544 027a B1EE477A 		vnegmi.f32	s14, s14
 545              	.LVL48:
 546              		.loc 1 386 0
 547 027e F0EEC77A 		vabs.f32	s15, s14
 548              	.LVL49:
 549              		.loc 1 387 0
 550 0282 F4EE667A 		vcmp.f32	s15, s13
 551 0286 F1EE10FA 		vmrs	APSR_nzcv, FPSCR
 552 028a C8BF     		it	gt
 553 028c F0EE47AA 		vmovgt.f32	s21, s14
 554              	.LVL50:
 555              	.L52:
 556              	.LBE130:
 557              	.LBE131:
 558              		.loc 1 367 0 discriminator 2
 559 0290 BBF10A0F 		cmp	fp, #10
 560 0294 C2D1     		bne	.L58
 561              	.LVL51:
 562              	.L51:
 563              	.LBE123:
 564              		.loc 1 395 0
 565 0296 294B     		ldr	r3, .L175+72
 566              		.loc 1 394 0
 567 0298 D9ED017A 		vldr.32	s15, [r9, #4]
 568              		.loc 1 395 0
 569 029c 93ED00DA 		vldr.32	s26, [r3]
 570              		.loc 1 394 0
ARM GAS  /var/folders/sv/kgmgr77579zbf78p2zlhkdfr0000gn/T//ccySOtH9.s 			page 11


 571 02a0 99ED027A 		vldr.32	s14, [r9, #8]
 572              	.LVL52:
 573              		.loc 1 395 0
 574 02a4 F0EECD6A 		vabs.f32	s13, s26
 575 02a8 B0EEC86A 		vabs.f32	s12, s16
 576 02ac B4EEE66A 		vcmpe.f32	s12, s13
 577 02b0 F1EE10FA 		vmrs	APSR_nzcv, FPSCR
 578 02b4 CCBF     		ite	gt
 579 02b6 D5ED026A 		vldrgt.32	s13, [r5, #8]
 580 02ba D5ED036A 		vldrle.32	s13, [r5, #12]
 581              	.LVL53:
 582              		.loc 1 397 0
 583 02be 9FED206A 		vldr.32	s12, .L175+76
 584 02c2 F4EEC66A 		vcmpe.f32	s13, s12
 585 02c6 F1EE10FA 		vmrs	APSR_nzcv, FPSCR
 586 02ca 00F30581 		bgt	.L169
 587              	.LVL54:
 588              	.L62:
 589              		.loc 1 427 0
 590 02ce 1B4B     		ldr	r3, .L175+72
 591              		.loc 1 429 0
 592 02d0 B5EEC08A 		vcmpe.f32	s16, #0
 593 02d4 F1EE10FA 		vmrs	APSR_nzcv, FPSCR
 594              		.loc 1 427 0
 595 02d8 83ED008A 		vstr.32	s16, [r3]
 596              		.loc 1 429 0
 597 02dc 00F1C681 		bmi	.L170
 598              	.LVL55:
 599              	.LBB132:
 600              		.loc 1 444 0
 601 02e0 6B7F     		ldrb	r3, [r5, #29]	@ zero_extendqisi2
 602 02e2 002B     		cmp	r3, #0
 603 02e4 00F08980 		beq	.L79
 604 02e8 F0EE48AA 		vmov.f32	s21, s16
 605              	.LVL56:
 606 02ec 4FF0000B 		mov	fp, #0
 607 02f0 37E0     		b	.L86
 608              	.L176:
 609 02f2 00BF     		.align	2
 610              	.L175:
 611 02f4 00000000 		.word	ch
 612 02f8 28000000 		.word	.LC5
 613 02fc 00000000 		.word	.LANCHOR1
 614 0300 00000000 		.word	.LANCHOR2
 615 0304 00000000 		.word	.LANCHOR4
 616 0308 CDCC4C3E 		.word	1045220557
 617 030c 00000043 		.word	1124073472
 618 0310 00401C46 		.word	1176256512
 619 0314 CDCCCC3D 		.word	1036831949
 620 0318 00000000 		.word	.LANCHOR6
 621 031c 0000003C 		.word	1006632960
 622 0320 6F1283BA 		.word	3129152111
 623 0324 CDCCCCBE 		.word	3201092813
 624 0328 CDCCCC3E 		.word	1053609165
 625 032c 00000000 		.word	.LANCHOR7
 626 0330 00000000 		.word	.LANCHOR8
 627 0334 00000000 		.word	.LANCHOR9
ARM GAS  /var/folders/sv/kgmgr77579zbf78p2zlhkdfr0000gn/T//ccySOtH9.s 			page 12


 628 0338 00000000 		.word	.LANCHOR10
 629 033c 00000000 		.word	.LANCHOR11
 630 0340 0AD7233C 		.word	1008981770
 631 0344 00000000 		.word	.LANCHOR3
 632 0348 00000000 		.word	.LANCHOR5
 633 034c 00000000 		.word	0
 634              	.LVL57:
 635              	.L172:
 636              	.LBB102:
 637              	.LBB99:
 638              		.loc 1 463 0
 639 0350 B1EE6A0A 		vneg.f32	s0, s21
 640 0354 FFF7FEFF 		bl	comm_can_set_current
 641              	.LVL58:
 642              	.L80:
 643              	.LBE99:
 644              		.loc 1 445 0 discriminator 2
 645 0358 0BF1010B 		add	fp, fp, #1
 646              	.LVL59:
 647 035c BBF10A0F 		cmp	fp, #10
 648 0360 44D0     		beq	.L171
 649              	.LVL60:
 650              	.L86:
 651              	.LBB100:
 652              		.loc 1 446 0
 653 0362 5846     		mov	r0, fp
 654 0364 FFF7FEFF 		bl	comm_can_get_status_msg_index
 655              	.LVL61:
 656              		.loc 1 448 0
 657 0368 0168     		ldr	r1, [r0]
 658 036a 0029     		cmp	r1, #0
 659 036c F4DB     		blt	.L80
 660              	.LVL62:
 661              	.LBB94:
 662              	.LBB95:
 663              	.LBB96:
 664              	.LBB97:
 665              		.loc 3 231 0 discriminator 1
 666 036e B36A     		ldr	r3, [r6, #40]
 667              	.LVL63:
 668              	.LBE97:
 669              	.LBE96:
 670              	.LBE95:
 671              	.LBE94:
 672              		.loc 1 448 0 discriminator 1
 673 0370 4268     		ldr	r2, [r0, #4]
 674 0372 9B1A     		subs	r3, r3, r2
 675 0374 07EE903A 		vmov	s15, r3	@ int
 676 0378 F8EE677A 		vcvt.f32.u32	s15, s15
 677 037c 87EE897A 		vdiv.f32	s14, s15, s18
 678 0380 B4EEE87A 		vcmpe.f32	s14, s17
 679 0384 F1EE10FA 		vmrs	APSR_nzcv, FPSCR
 680 0388 E6D5     		bpl	.L80
 681              		.loc 1 449 0
 682 038a AB7F     		ldrb	r3, [r5, #30]	@ zero_extendqisi2
 683 038c 03B3     		cbz	r3, .L82
 684              	.LBB98:
ARM GAS  /var/folders/sv/kgmgr77579zbf78p2zlhkdfr0000gn/T//ccySOtH9.s 			page 13


 685              		.loc 1 451 0
 686 038e 98F80030 		ldrb	r3, [r8]	@ zero_extendqisi2
 687              		.loc 1 450 0
 688 0392 90ED020A 		vldr.32	s0, [r0, #8]
 689              	.LVL64:
 690              		.loc 1 451 0
 691 0396 0BB1     		cbz	r3, .L83
 692              		.loc 1 452 0
 693 0398 B1EE400A 		vneg.f32	s0, s0
 694              	.LVL65:
 695              	.L83:
 696              		.loc 1 456 0
 697 039c 1FED152A 		vldr.32	s4, .L175+88
 698 03a0 95ED081A 		vldr.32	s2, [r5, #32]
 699 03a4 0190     		str	r0, [sp, #4]
 700 03a6 30EE4C0A 		vsub.f32	s0, s0, s24
 701              	.LVL66:
 702 03aa F0EE420A 		vmov.f32	s1, s4
 703 03ae F0EE481A 		vmov.f32	s3, s16
 704 03b2 FFF7FEFF 		bl	utils_map
 705              	.LVL67:
 706              		.loc 1 457 0
 707 03b6 D9ED507A 		vldr.32	s15, [r9, #320]
 708 03ba 0198     		ldr	r0, [sp, #4]
 709 03bc B4EEE70A 		vcmpe.f32	s0, s15
 710 03c0 F1EE10FA 		vmrs	APSR_nzcv, FPSCR
 711              		.loc 1 456 0
 712 03c4 F0EE40AA 		vmov.f32	s21, s0
 713              	.LVL68:
 714 03c8 0168     		ldr	r1, [r0]
 715              	.LVL69:
 716              		.loc 1 458 0
 717 03ca 48BF     		it	mi
 718 03cc 5FED21AA 		vldrmi.32	s21, .L175+88
 719              	.LVL70:
 720              	.L82:
 721              	.LBE98:
 722              		.loc 1 462 0
 723 03d0 98F80030 		ldrb	r3, [r8]	@ zero_extendqisi2
 724              		.loc 1 463 0
 725 03d4 C8B2     		uxtb	r0, r1
 726              		.loc 1 462 0
 727 03d6 002B     		cmp	r3, #0
 728 03d8 BAD1     		bne	.L172
 729              		.loc 1 465 0
 730 03da B0EE6A0A 		vmov.f32	s0, s21
 731              	.LBE100:
 732              		.loc 1 445 0
 733 03de 0BF1010B 		add	fp, fp, #1
 734              	.LVL71:
 735              	.LBB101:
 736              		.loc 1 465 0
 737 03e2 FFF7FEFF 		bl	comm_can_set_current
 738              	.LVL72:
 739              	.LBE101:
 740              		.loc 1 445 0
 741 03e6 BBF10A0F 		cmp	fp, #10
ARM GAS  /var/folders/sv/kgmgr77579zbf78p2zlhkdfr0000gn/T//ccySOtH9.s 			page 14


 742 03ea BAD1     		bne	.L86
 743              	.L171:
 744              	.LBE102:
 745              		.loc 1 470 0
 746 03ec AB7F     		ldrb	r3, [r5, #30]	@ zero_extendqisi2
 747 03ee B84A     		ldr	r2, .L177
 748 03f0 002B     		cmp	r3, #0
 749 03f2 40F02181 		bne	.L173
 750              	.LBB103:
 751 03f6 B0EE6A8A 		vmov.f32	s16, s21
 752              	.LVL73:
 753              	.L79:
 754              	.LBE103:
 755              		.loc 1 479 0
 756 03fa 98F80030 		ldrb	r3, [r8]	@ zero_extendqisi2
 757 03fe 002B     		cmp	r3, #0
 758 0400 61D0     		beq	.L87
 759              		.loc 1 480 0
 760 0402 B1EE480A 		vneg.f32	s0, s16
 761 0406 FFF7FEFF 		bl	mc_interface_set_current
 762              	.LVL74:
 763 040a 11E6     		b	.L8
 764              	.LVL75:
 765              	.L31:
 766              	.LBE132:
 767              	.LBB133:
 768              		.loc 1 302 0
 769 040c 98F80030 		ldrb	r3, [r8]	@ zero_extendqisi2
 770              		.loc 1 307 0
 771 0410 95ED046A 		vldr.32	s12, [r5, #16]
 772 0414 DDED036A 		vldr.32	s13, [sp, #12]
 773 0418 DFEDAE4A 		vldr.32	s9, .L177+4
 774              		.loc 1 302 0
 775 041c 002B     		cmp	r3, #0
 776 041e 00F0B280 		beq	.L37
 777              		.loc 1 307 0
 778 0422 66EE266A 		vmul.f32	s13, s12, s13
 779              		.loc 1 303 0
 780 0426 AC4B     		ldr	r3, .L177+8
 781 0428 9FEDAC5A 		vldr.32	s10, .L177+12
 782 042c 93ED007A 		vldr.32	s14, [r3]
 783              		.loc 1 309 0
 784 0430 D5ED045A 		vldr.32	s11, [r5, #16]
 785              		.loc 1 307 0
 786 0434 A64A     		ldr	r2, .L177
 787 0436 86EEA40A 		vdiv.f32	s0, s13, s9
 788 043a B4EE457A 		vcmp.f32	s14, s10
 789 043e F1EE10FA 		vmrs	APSR_nzcv, FPSCR
 790 0442 C8BF     		it	gt
 791 0444 B0EE457A 		vmovgt.f32	s14, s10
 792 0448 37EE400A 		vsub.f32	s0, s14, s0
 793              		.loc 1 309 0
 794 044c 37EEE57A 		vsub.f32	s14, s15, s11
 795              		.loc 1 307 0
 796 0450 83ED000A 		vstr.32	s0, [r3]
 797              		.loc 1 309 0
 798 0454 B4EEC70A 		vcmpe.f32	s0, s14
ARM GAS  /var/folders/sv/kgmgr77579zbf78p2zlhkdfr0000gn/T//ccySOtH9.s 			page 15


 799 0458 F1EE10FA 		vmrs	APSR_nzcv, FPSCR
 800 045c 7FF5A2AE 		bpl	.L36
 801              		.loc 1 310 0
 802 0460 92ED040A 		vldr.32	s0, [r2, #16]
 803 0464 37EEC00A 		vsub.f32	s0, s15, s0
 804 0468 83ED000A 		vstr.32	s0, [r3]
 805              		.loc 1 325 0
 806 046c FFF7FEFF 		bl	mc_interface_set_pid_speed
 807              	.LVL76:
 808              		.loc 1 328 0
 809 0470 6B7F     		ldrb	r3, [r5, #29]	@ zero_extendqisi2
 810 0472 002B     		cmp	r3, #0
 811 0474 3FF49CAE 		beq	.L46
 812              	.L42:
 813              	.LBB113:
 814              		.loc 1 329 0
 815 0478 FFF7FEFF 		bl	mc_interface_get_tot_current_directional_filtered
 816              	.LVL77:
 817              	.LBB114:
 818              		.loc 1 331 0
 819 047c 4FF00009 		mov	r9, #0
 820              	.LVL78:
 821              	.LBE114:
 822              		.loc 1 329 0
 823 0480 B0EE408A 		vmov.f32	s16, s0
 824              	.LVL79:
 825 0484 03E0     		b	.L45
 826              	.LVL80:
 827              	.L43:
 828              	.LBB121:
 829              		.loc 1 331 0 discriminator 2
 830 0486 B9F10A0F 		cmp	r9, #10
 831 048a 3FF491AE 		beq	.L46
 832              	.LVL81:
 833              	.L45:
 834              	.LBB115:
 835              		.loc 1 332 0
 836 048e 4846     		mov	r0, r9
 837 0490 FFF7FEFF 		bl	comm_can_get_status_msg_index
 838              	.LVL82:
 839              		.loc 1 334 0
 840 0494 0268     		ldr	r2, [r0]
 841 0496 002A     		cmp	r2, #0
 842              	.LBE115:
 843              		.loc 1 331 0
 844 0498 09F10109 		add	r9, r9, #1
 845              	.LVL83:
 846              	.LBB120:
 847              		.loc 1 334 0
 848 049c F3DB     		blt	.L43
 849              		.loc 1 334 0 is_stmt 0 discriminator 1
 850 049e 4168     		ldr	r1, [r0, #4]
 851              	.LBB116:
 852              	.LBB117:
 853              	.LBB118:
 854              	.LBB119:
 855              		.loc 3 231 0 is_stmt 1 discriminator 1
ARM GAS  /var/folders/sv/kgmgr77579zbf78p2zlhkdfr0000gn/T//ccySOtH9.s 			page 16


 856 04a0 B36A     		ldr	r3, [r6, #40]
 857              	.LVL84:
 858              	.LBE119:
 859              	.LBE118:
 860              	.LBE117:
 861              	.LBE116:
 862              		.loc 1 334 0 discriminator 1
 863 04a2 5B1A     		subs	r3, r3, r1
 864 04a4 07EE903A 		vmov	s15, r3	@ int
 865 04a8 F8EE677A 		vcvt.f32.u32	s15, s15
 866 04ac 87EE897A 		vdiv.f32	s14, s15, s18
 867 04b0 B4EEE87A 		vcmpe.f32	s14, s17
 868 04b4 F1EE10FA 		vmrs	APSR_nzcv, FPSCR
 869 04b8 E5D5     		bpl	.L43
 870              		.loc 1 335 0
 871 04ba D0B2     		uxtb	r0, r2
 872              	.LVL85:
 873 04bc B0EE480A 		vmov.f32	s0, s16
 874 04c0 FFF7FEFF 		bl	comm_can_set_current
 875              	.LVL86:
 876 04c4 DFE7     		b	.L43
 877              	.LVL87:
 878              	.L87:
 879              	.LBE120:
 880              	.LBE121:
 881              	.LBE113:
 882              	.LBE133:
 883              	.LBB134:
 884              		.loc 1 482 0
 885 04c6 B0EE480A 		vmov.f32	s0, s16
 886 04ca FFF7FEFF 		bl	mc_interface_set_current
 887              	.LVL88:
 888 04ce AFE5     		b	.L8
 889              	.LVL89:
 890              	.L164:
 891              	.LBE134:
 892              		.loc 1 227 0
 893 04d0 0720     		movs	r0, #7
 894 04d2 FFF7FEFF 		bl	led_external_set_state
 895              	.LVL90:
 896              		.loc 1 228 0
 897 04d6 ABE5     		b	.L8
 898              	.LVL91:
 899              	.L169:
 900              	.LBB135:
 901              		.loc 1 398 0
 902 04d8 9FED7E6A 		vldr.32	s12, .L177+4
 903              		.loc 1 400 0
 904 04dc 8DED04DA 		vstr.32	s26, [sp, #16]
 905              		.loc 1 398 0
 906 04e0 B0EEC77A 		vabs.f32	s14, s14
 907              	.LVL92:
 908 04e4 77EE277A 		vadd.f32	s15, s14, s15
 909 04e8 66EE866A 		vmul.f32	s13, s13, s12
 910              	.LVL93:
 911              		.loc 1 402 0
 912 04ec B0EE480A 		vmov.f32	s0, s16
ARM GAS  /var/folders/sv/kgmgr77579zbf78p2zlhkdfr0000gn/T//ccySOtH9.s 			page 17


 913              		.loc 1 398 0
 914 04f0 C7EEA6DA 		vdiv.f32	s27, s15, s13
 915              	.LVL94:
 916              		.loc 1 402 0
 917 04f4 04A8     		add	r0, sp, #16
 918              	.LVL95:
 919 04f6 F0EE6D0A 		vmov.f32	s1, s27
 920 04fa FFF7FEFF 		bl	utils_step_towards
 921              	.LVL96:
 922              		.loc 1 403 0
 923 04fe DDED04BA 		vldr.32	s23, [sp, #16]
 924              		.loc 1 408 0
 925 0502 98F80030 		ldrb	r3, [r8]	@ zero_extendqisi2
 926              		.loc 1 407 0
 927 0506 CDED05BA 		vstr.32	s23, [sp, #20]
 928              		.loc 1 403 0
 929 050a B0EE6B8A 		vmov.f32	s16, s23
 930              	.LVL97:
 931              		.loc 1 408 0
 932 050e 002B     		cmp	r3, #0
 933 0510 70D0     		beq	.L64
 934              		.loc 1 409 0
 935 0512 7AEEAB7A 		vadd.f32	s15, s21, s23
 936 0516 F0EEE77A 		vabs.f32	s15, s15
 937 051a B4EEE7BA 		vcmpe.f32	s22, s15
 938 051e F1EE10FA 		vmrs	APSR_nzcv, FPSCR
 939 0522 00F1CA80 		bmi	.L174
 940              	.L65:
 941              	.LVL98:
 942              		.loc 1 420 0
 943 0526 B4EEC8DA 		vcmpe.f32	s26, s16
 944 052a F1EE10FA 		vmrs	APSR_nzcv, FPSCR
 945 052e 3FF7CEAE 		bgt	.L62
 946              	.LVL99:
 947              	.L69:
 948              		.loc 1 420 0 is_stmt 0 discriminator 3
 949 0532 DDED037A 		vldr.32	s15, [sp, #12]
 950 0536 9FED6A7A 		vldr.32	s14, .L177+16
 951 053a F0EEE77A 		vabs.f32	s15, s15
 952 053e F4EEC77A 		vcmpe.f32	s15, s14
 953 0542 F1EE10FA 		vmrs	APSR_nzcv, FPSCR
 954 0546 C8BF     		it	gt
 955 0548 B0EE6B8A 		vmovgt.f32	s16, s23
 956 054c BFE6     		b	.L62
 957              	.LVL100:
 958              	.L166:
 959              	.LBE135:
 960              		.loc 1 252 0 is_stmt 1
 961 054e 0520     		movs	r0, #5
 962 0550 FFF7FEFF 		bl	led_external_set_state
 963              	.LVL101:
 964 0554 E6E5     		b	.L21
 965              	.L168:
 966              		.loc 1 260 0
 967 0556 0320     		movs	r0, #3
 968 0558 FFF7FEFF 		bl	led_external_set_state
 969              	.LVL102:
ARM GAS  /var/folders/sv/kgmgr77579zbf78p2zlhkdfr0000gn/T//ccySOtH9.s 			page 18


 970 055c E2E5     		b	.L21
 971              	.LVL103:
 972              	.L167:
 973              	.LBB136:
 974              		.loc 1 291 0 discriminator 1
 975 055e F1EE10FA 		vmrs	APSR_nzcv, FPSCR
 976 0562 7FF71AAE 		ble	.L156
 977              	.L33:
 978              		.loc 1 292 0
 979 0566 99ED497A 		vldr.32	s14, [r9, #292]
 980 056a F0EEE77A 		vabs.f32	s15, s15
 981              	.LVL104:
 982 056e F4EEC77A 		vcmpe.f32	s15, s14
 983 0572 F1EE10FA 		vmrs	APSR_nzcv, FPSCR
 984 0576 3FF75BAD 		bgt	.L8
 985              		.loc 1 296 0
 986 057a 9FED580A 		vldr.32	s0, .L177+12
 987 057e 564B     		ldr	r3, .L177+8
 988 0580 83ED000A 		vstr.32	s0, [r3]
 989              	.LVL105:
 990 0584 0BE6     		b	.L34
 991              	.LVL106:
 992              	.L37:
 993              		.loc 1 317 0
 994 0586 66EE266A 		vmul.f32	s13, s12, s13
 995              		.loc 1 313 0
 996 058a 534B     		ldr	r3, .L177+8
 997 058c 9FED535A 		vldr.32	s10, .L177+12
 998 0590 93ED007A 		vldr.32	s14, [r3]
 999              		.loc 1 319 0
 1000 0594 D5ED045A 		vldr.32	s11, [r5, #16]
 1001              		.loc 1 317 0
 1002 0598 4D4A     		ldr	r2, .L177
 1003 059a 86EEA40A 		vdiv.f32	s0, s13, s9
 1004 059e B4EE457A 		vcmp.f32	s14, s10
 1005 05a2 F1EE10FA 		vmrs	APSR_nzcv, FPSCR
 1006 05a6 48BF     		it	mi
 1007 05a8 B0EE457A 		vmovmi.f32	s14, s10
 1008 05ac 30EE070A 		vadd.f32	s0, s0, s14
 1009              		.loc 1 319 0
 1010 05b0 37EEA57A 		vadd.f32	s14, s15, s11
 1011              		.loc 1 317 0
 1012 05b4 83ED000A 		vstr.32	s0, [r3]
 1013              		.loc 1 319 0
 1014 05b8 B4EEC70A 		vcmpe.f32	s0, s14
 1015 05bc F1EE10FA 		vmrs	APSR_nzcv, FPSCR
 1016 05c0 7FF7F0AD 		ble	.L36
 1017              		.loc 1 320 0
 1018 05c4 92ED040A 		vldr.32	s0, [r2, #16]
 1019 05c8 37EE800A 		vadd.f32	s0, s15, s0
 1020 05cc 83ED000A 		vstr.32	s0, [r3]
 1021 05d0 E8E5     		b	.L36
 1022              	.LVL107:
 1023              	.L165:
 1024              	.LBE136:
 1025              		.loc 1 231 0 discriminator 3
 1026 05d2 F0EEEA7A 		vabs.f32	s15, s21
ARM GAS  /var/folders/sv/kgmgr77579zbf78p2zlhkdfr0000gn/T//ccySOtH9.s 			page 19


 1027 05d6 B4EEE7BA 		vcmpe.f32	s22, s15
 1028 05da F1EE10FA 		vmrs	APSR_nzcv, FPSCR
 1029 05de 7FF75AAD 		ble	.L14
 1030              		.loc 1 233 0
 1031 05e2 98F800E0 		ldrb	lr, [r8]	@ zero_extendqisi2
 1032 05e6 3F49     		ldr	r1, .L177+20
 1033 05e8 BEF1000F 		cmp	lr, #0
 1034 05ec 6DD0     		beq	.L16
 1035              		.loc 1 234 0
 1036 05ee 0B70     		strb	r3, [r1]
 1037 05f0 1846     		mov	r0, r3
 1038 05f2 52E5     		b	.L13
 1039              	.LVL108:
 1040              	.L64:
 1041              	.LBB137:
 1042              		.loc 1 413 0
 1043 05f4 7BEEEA7A 		vsub.f32	s15, s23, s21
 1044 05f8 F0EEE77A 		vabs.f32	s15, s15
 1045 05fc B4EEE7BA 		vcmpe.f32	s22, s15
 1046 0600 F1EE10FA 		vmrs	APSR_nzcv, FPSCR
 1047 0604 8FD5     		bpl	.L65
 1048              		.loc 1 414 0
 1049 0606 7DEEAD0A 		vadd.f32	s1, s27, s27
 1050 060a B0EE6A0A 		vmov.f32	s0, s21
 1051 060e 05A8     		add	r0, sp, #20
 1052 0610 FFF7FEFF 		bl	utils_step_towards
 1053              	.LVL109:
 1054              	.L67:
 1055              		.loc 1 420 0
 1056 0614 B4EEEBDA 		vcmpe.f32	s26, s23
 1057 0618 F1EE10FA 		vmrs	APSR_nzcv, FPSCR
 1058              		.loc 1 419 0
 1059 061c DDED057A 		vldr.32	s15, [sp, #20]
 1060 0620 9DED048A 		vldr.32	s16, [sp, #16]
 1061              	.LVL110:
 1062              		.loc 1 420 0
 1063 0624 05DD     		ble	.L159
 1064              		.loc 1 420 0 is_stmt 0 discriminator 2
 1065 0626 F4EEC87A 		vcmpe.f32	s15, s16
 1066 062a F1EE10FA 		vmrs	APSR_nzcv, FPSCR
 1067 062e 7FF54EAE 		bpl	.L62
 1068              	.L159:
 1069              		.loc 1 419 0 is_stmt 1
 1070 0632 F0EE67BA 		vmov.f32	s23, s15
 1071              	.LVL111:
 1072 0636 7CE7     		b	.L69
 1073              	.LVL112:
 1074              	.L173:
 1075              	.LBE137:
 1076              	.LBB138:
 1077              	.LBB104:
 1078              		.loc 1 472 0
 1079 0638 9FED282A 		vldr.32	s4, .L177+12
 1080 063c 92ED081A 		vldr.32	s2, [r2, #32]
 1081 0640 F0EE481A 		vmov.f32	s3, s16
 1082 0644 3CEECC0A 		vsub.f32	s0, s25, s24
 1083              	.LVL113:
ARM GAS  /var/folders/sv/kgmgr77579zbf78p2zlhkdfr0000gn/T//ccySOtH9.s 			page 20


 1084 0648 F0EE420A 		vmov.f32	s1, s4
 1085 064c FFF7FEFF 		bl	utils_map
 1086              	.LVL114:
 1087              		.loc 1 473 0
 1088 0650 99ED507A 		vldr.32	s14, [r9, #320]
 1089              		.loc 1 474 0
 1090 0654 DFED217A 		vldr.32	s15, .L177+12
 1091 0658 B4EE470A 		vcmp.f32	s0, s14
 1092              		.loc 1 472 0
 1093 065c B0EE408A 		vmov.f32	s16, s0
 1094              	.LVL115:
 1095              		.loc 1 474 0
 1096 0660 F1EE10FA 		vmrs	APSR_nzcv, FPSCR
 1097 0664 48BF     		it	mi
 1098 0666 B0EE678A 		vmovmi.f32	s16, s15
 1099 066a C6E6     		b	.L79
 1100              	.LVL116:
 1101              	.L170:
 1102              	.LBE104:
 1103              	.LBE138:
 1104              		.loc 1 430 0
 1105 066c B0EE480A 		vmov.f32	s0, s16
 1106 0670 FFF7FEFF 		bl	mc_interface_set_brake_current
 1107              	.LVL117:
 1108              	.LBB139:
 1109              		.loc 1 433 0
 1110 0674 4FF00009 		mov	r9, #0
 1111              	.LVL118:
 1112 0678 03E0     		b	.L77
 1113              	.LVL119:
 1114              	.L75:
 1115              		.loc 1 433 0 is_stmt 0 discriminator 2
 1116 067a B9F10A0F 		cmp	r9, #10
 1117 067e 3FF4D7AC 		beq	.L8
 1118              	.LVL120:
 1119              	.L77:
 1120              	.LBB140:
 1121              		.loc 1 434 0 is_stmt 1
 1122 0682 4846     		mov	r0, r9
 1123 0684 FFF7FEFF 		bl	comm_can_get_status_msg_index
 1124              	.LVL121:
 1125              		.loc 1 436 0
 1126 0688 0268     		ldr	r2, [r0]
 1127 068a 002A     		cmp	r2, #0
 1128              	.LBE140:
 1129              		.loc 1 433 0
 1130 068c 09F10109 		add	r9, r9, #1
 1131              	.LVL122:
 1132              	.LBB145:
 1133              		.loc 1 436 0
 1134 0690 F3DB     		blt	.L75
 1135              		.loc 1 436 0 is_stmt 0 discriminator 1
 1136 0692 4168     		ldr	r1, [r0, #4]
 1137              	.LBB141:
 1138              	.LBB142:
 1139              	.LBB143:
 1140              	.LBB144:
ARM GAS  /var/folders/sv/kgmgr77579zbf78p2zlhkdfr0000gn/T//ccySOtH9.s 			page 21


 1141              		.loc 3 231 0 is_stmt 1 discriminator 1
 1142 0694 B36A     		ldr	r3, [r6, #40]
 1143              	.LVL123:
 1144              	.LBE144:
 1145              	.LBE143:
 1146              	.LBE142:
 1147              	.LBE141:
 1148              		.loc 1 436 0 discriminator 1
 1149 0696 5B1A     		subs	r3, r3, r1
 1150 0698 07EE903A 		vmov	s15, r3	@ int
 1151 069c F8EE677A 		vcvt.f32.u32	s15, s15
 1152 06a0 87EE897A 		vdiv.f32	s14, s15, s18
 1153 06a4 B4EEE87A 		vcmpe.f32	s14, s17
 1154 06a8 F1EE10FA 		vmrs	APSR_nzcv, FPSCR
 1155 06ac E5D5     		bpl	.L75
 1156              		.loc 1 437 0
 1157 06ae D0B2     		uxtb	r0, r2
 1158              	.LVL124:
 1159 06b0 B0EE480A 		vmov.f32	s0, s16
 1160 06b4 FFF7FEFF 		bl	comm_can_set_current_brake
 1161              	.LVL125:
 1162 06b8 DFE7     		b	.L75
 1163              	.LVL126:
 1164              	.L174:
 1165              	.LBE145:
 1166              	.LBE139:
 1167              	.LBB146:
 1168              		.loc 1 410 0
 1169 06ba 7DEEAD0A 		vadd.f32	s1, s27, s27
 1170 06be B1EE6A0A 		vneg.f32	s0, s21
 1171 06c2 05A8     		add	r0, sp, #20
 1172 06c4 FFF7FEFF 		bl	utils_step_towards
 1173              	.LVL127:
 1174 06c8 A4E7     		b	.L67
 1175              	.LVL128:
 1176              	.L16:
 1177              	.LBE146:
 1178              		.loc 1 236 0
 1179 06ca 0A70     		strb	r2, [r1]
 1180 06cc E5E4     		b	.L13
 1181              	.L178:
 1182 06ce 00BF     		.align	2
 1183              	.L177:
 1184 06d0 00000000 		.word	.LANCHOR2
 1185 06d4 00007A44 		.word	1148846080
 1186 06d8 00000000 		.word	.LANCHOR10
 1187 06dc 00000000 		.word	0
 1188 06e0 6F12833A 		.word	981668463
 1189 06e4 00000000 		.word	.LANCHOR5
 1190              	.LBE148:
 1191              		.cfi_endproc
 1192              	.LFE262:
 1193              		.size	output_thread, .-output_thread
 1194              		.section	.text.app_nunchuk_configure,"ax",%progbits
 1195              		.align	2
 1196              		.p2align 4,,15
 1197              		.global	app_nunchuk_configure
ARM GAS  /var/folders/sv/kgmgr77579zbf78p2zlhkdfr0000gn/T//ccySOtH9.s 			page 22


 1198              		.thumb
 1199              		.thumb_func
 1200              		.type	app_nunchuk_configure, %function
 1201              	app_nunchuk_configure:
 1202              	.LFB256:
 1203              		.loc 1 59 0
 1204              		.cfi_startproc
 1205              		@ args = 0, pretend = 0, frame = 0
 1206              		@ frame_needed = 0, uses_anonymous_args = 0
 1207              		@ link register save eliminated.
 1208              	.LVL129:
 1209 0000 30B4     		push	{r4, r5}
 1210              		.cfi_def_cfa_offset 8
 1211              		.cfi_offset 4, -8
 1212              		.cfi_offset 5, -4
 1213              		.loc 1 60 0
 1214 0002 0546     		mov	r5, r0
 1215 0004 0FCD     		ldmia	r5!, {r0, r1, r2, r3}
 1216              	.LVL130:
 1217 0006 064C     		ldr	r4, .L181
 1218 0008 0FC4     		stmia	r4!, {r0, r1, r2, r3}
 1219 000a 0FCD     		ldmia	r5!, {r0, r1, r2, r3}
 1220              	.LVL131:
 1221 000c 0FC4     		stmia	r4!, {r0, r1, r2, r3}
 1222 000e 2A68     		ldr	r2, [r5]
 1223 0010 2260     		str	r2, [r4]
 1224              		.loc 1 62 0
 1225 0012 044B     		ldr	r3, .L181+4
 1226 0014 0449     		ldr	r1, .L181+8
 1227 0016 0548     		ldr	r0, .L181+12
 1228 0018 0022     		movs	r2, #0
 1229              		.loc 1 67 0
 1230 001a 30BC     		pop	{r4, r5}
 1231              		.cfi_restore 5
 1232              		.cfi_restore 4
 1233              		.cfi_def_cfa_offset 0
 1234              	.LVL132:
 1235              		.loc 1 62 0
 1236 001c FFF7FEBF 		b	terminal_register_command_callback
 1237              	.LVL133:
 1238              	.L182:
 1239              		.align	2
 1240              	.L181:
 1241 0020 00000000 		.word	.LANCHOR2
 1242 0024 00000000 		.word	terminal_cmd_nunchuk_status
 1243 0028 38000000 		.word	.LC6
 1244 002c 5C000000 		.word	.LC7
 1245              		.cfi_endproc
 1246              	.LFE256:
 1247              		.size	app_nunchuk_configure, .-app_nunchuk_configure
 1248              		.section	.text.app_nunchuk_start,"ax",%progbits
 1249              		.align	2
 1250              		.p2align 4,,15
 1251              		.global	app_nunchuk_start
 1252              		.thumb
 1253              		.thumb_func
 1254              		.type	app_nunchuk_start, %function
ARM GAS  /var/folders/sv/kgmgr77579zbf78p2zlhkdfr0000gn/T//ccySOtH9.s 			page 23


 1255              	app_nunchuk_start:
 1256              	.LFB257:
 1257              		.loc 1 69 0
 1258              		.cfi_startproc
 1259              		@ args = 0, pretend = 0, frame = 0
 1260              		@ frame_needed = 0, uses_anonymous_args = 0
 1261 0000 10B5     		push	{r4, lr}
 1262              		.cfi_def_cfa_offset 8
 1263              		.cfi_offset 4, -8
 1264              		.cfi_offset 14, -4
 1265              		.loc 1 70 0
 1266 0002 094A     		ldr	r2, .L185
 1267              		.loc 1 71 0
 1268 0004 094B     		ldr	r3, .L185+4
 1269              		.loc 1 69 0
 1270 0006 82B0     		sub	sp, sp, #8
 1271              		.cfi_def_cfa_offset 16
 1272              		.loc 1 70 0
 1273 0008 8021     		movs	r1, #128
 1274              		.loc 1 71 0
 1275 000a 0024     		movs	r4, #0
 1276              		.loc 1 70 0
 1277 000c 5160     		str	r1, [r2, #4]
 1278              		.loc 1 71 0
 1279 000e 1C70     		strb	r4, [r3]
 1280              		.loc 1 72 0
 1281 0010 FFF7FEFF 		bl	hw_start_i2c
 1282              	.LVL134:
 1283              		.loc 1 73 0
 1284 0014 0094     		str	r4, [sp]
 1285 0016 064B     		ldr	r3, .L185+8
 1286 0018 0648     		ldr	r0, .L185+12
 1287 001a 4022     		movs	r2, #64
 1288 001c 4FF4B361 		mov	r1, #1432
 1289 0020 FFF7FEFF 		bl	chThdCreateStatic
 1290              	.LVL135:
 1291              		.loc 1 74 0
 1292 0024 02B0     		add	sp, sp, #8
 1293              		.cfi_def_cfa_offset 8
 1294              		@ sp needed
 1295 0026 10BD     		pop	{r4, pc}
 1296              	.L186:
 1297              		.align	2
 1298              	.L185:
 1299 0028 00000000 		.word	.LANCHOR4
 1300 002c 00000000 		.word	.LANCHOR12
 1301 0030 00000000 		.word	chuk_thread
 1302 0034 00000000 		.word	.LANCHOR13
 1303              		.cfi_endproc
 1304              	.LFE257:
 1305              		.size	app_nunchuk_start, .-app_nunchuk_start
 1306              		.section	.text.app_nunchuk_stop,"ax",%progbits
 1307              		.align	2
 1308              		.p2align 4,,15
 1309              		.global	app_nunchuk_stop
 1310              		.thumb
 1311              		.thumb_func
ARM GAS  /var/folders/sv/kgmgr77579zbf78p2zlhkdfr0000gn/T//ccySOtH9.s 			page 24


 1312              		.type	app_nunchuk_stop, %function
 1313              	app_nunchuk_stop:
 1314              	.LFB258:
 1315              		.loc 1 76 0
 1316              		.cfi_startproc
 1317              		@ args = 0, pretend = 0, frame = 0
 1318              		@ frame_needed = 0, uses_anonymous_args = 0
 1319              		.loc 1 77 0
 1320 0000 084B     		ldr	r3, .L199
 1321              		.loc 1 76 0
 1322 0002 10B5     		push	{r4, lr}
 1323              		.cfi_def_cfa_offset 8
 1324              		.cfi_offset 4, -8
 1325              		.cfi_offset 14, -4
 1326              		.loc 1 77 0
 1327 0004 0122     		movs	r2, #1
 1328              		.loc 1 79 0
 1329 0006 084C     		ldr	r4, .L199+4
 1330              		.loc 1 77 0
 1331 0008 1A70     		strb	r2, [r3]
 1332              		.loc 1 79 0
 1333 000a 2378     		ldrb	r3, [r4]	@ zero_extendqisi2
 1334 000c 1BB1     		cbz	r3, .L197
 1335 000e 06E0     		b	.L198
 1336              	.L193:
 1337              		.loc 1 84 0
 1338 0010 0A20     		movs	r0, #10
 1339 0012 FFF7FEFF 		bl	chThdSleep
 1340              	.LVL136:
 1341              	.L197:
 1342              		.loc 1 83 0
 1343 0016 2378     		ldrb	r3, [r4]	@ zero_extendqisi2
 1344 0018 002B     		cmp	r3, #0
 1345 001a F9D1     		bne	.L193
 1346 001c 10BD     		pop	{r4, pc}
 1347              	.L198:
 1348              		.loc 1 80 0
 1349 001e FFF7FEFF 		bl	hw_stop_i2c
 1350              	.LVL137:
 1351 0022 F8E7     		b	.L197
 1352              	.L200:
 1353              		.align	2
 1354              	.L199:
 1355 0024 00000000 		.word	.LANCHOR12
 1356 0028 00000000 		.word	.LANCHOR14
 1357              		.cfi_endproc
 1358              	.LFE258:
 1359              		.size	app_nunchuk_stop, .-app_nunchuk_stop
 1360              		.section	.text.app_nunchuk_get_decoded_chuk,"ax",%progbits
 1361              		.align	2
 1362              		.p2align 4,,15
 1363              		.global	app_nunchuk_get_decoded_chuk
 1364              		.thumb
 1365              		.thumb_func
 1366              		.type	app_nunchuk_get_decoded_chuk, %function
 1367              	app_nunchuk_get_decoded_chuk:
 1368              	.LFB259:
ARM GAS  /var/folders/sv/kgmgr77579zbf78p2zlhkdfr0000gn/T//ccySOtH9.s 			page 25


 1369              		.loc 1 88 0
 1370              		.cfi_startproc
 1371              		@ args = 0, pretend = 0, frame = 0
 1372              		@ frame_needed = 0, uses_anonymous_args = 0
 1373              		@ link register save eliminated.
 1374              		.loc 1 89 0
 1375 0000 064B     		ldr	r3, .L202
 1376 0002 9FED077A 		vldr.32	s14, .L202+4
 1377 0006 D3ED017A 		vldr.32	s15, [r3, #4]	@ int
 1378 000a 9FED060A 		vldr.32	s0, .L202+8
 1379 000e F8EEE77A 		vcvt.f32.s32	s15, s15
 1380 0012 77EEC77A 		vsub.f32	s15, s15, s14
 1381              		.loc 1 90 0
 1382 0016 27EE800A 		vmul.f32	s0, s15, s0
 1383 001a 7047     		bx	lr
 1384              	.L203:
 1385              		.align	2
 1386              	.L202:
 1387 001c 00000000 		.word	.LANCHOR4
 1388 0020 00000043 		.word	1124073472
 1389 0024 0000003C 		.word	1006632960
 1390              		.cfi_endproc
 1391              	.LFE259:
 1392              		.size	app_nunchuk_get_decoded_chuk, .-app_nunchuk_get_decoded_chuk
 1393              		.section	.text.app_nunchuk_update_output,"ax",%progbits
 1394              		.align	2
 1395              		.p2align 4,,15
 1396              		.global	app_nunchuk_update_output
 1397              		.thumb
 1398              		.thumb_func
 1399              		.type	app_nunchuk_update_output, %function
 1400              	app_nunchuk_update_output:
 1401              	.LFB260:
 1402              		.loc 1 92 0
 1403              		.cfi_startproc
 1404              		@ args = 0, pretend = 0, frame = 0
 1405              		@ frame_needed = 0, uses_anonymous_args = 0
 1406              	.LVL138:
 1407 0000 F0B5     		push	{r4, r5, r6, r7, lr}
 1408              		.cfi_def_cfa_offset 20
 1409              		.cfi_offset 4, -20
 1410              		.cfi_offset 5, -16
 1411              		.cfi_offset 6, -12
 1412              		.cfi_offset 7, -8
 1413              		.cfi_offset 14, -4
 1414              		.loc 1 93 0
 1415 0002 1649     		ldr	r1, .L209
 1416 0004 0B78     		ldrb	r3, [r1]	@ zero_extendqisi2
 1417              		.loc 1 92 0
 1418 0006 83B0     		sub	sp, sp, #12
 1419              		.cfi_def_cfa_offset 32
 1420              		.loc 1 92 0
 1421 0008 0446     		mov	r4, r0
 1422              		.loc 1 93 0
 1423 000a ABB1     		cbz	r3, .L207
 1424 000c 144E     		ldr	r6, .L209+4
 1425              	.LVL139:
ARM GAS  /var/folders/sv/kgmgr77579zbf78p2zlhkdfr0000gn/T//ccySOtH9.s 			page 26


 1426              	.L205:
 1427              		.loc 1 100 0
 1428 000e 154D     		ldr	r5, .L209+8
 1429 0010 0FCC     		ldmia	r4!, {r0, r1, r2, r3}
 1430              	.LVL140:
 1431 0012 0FC5     		stmia	r5!, {r0, r1, r2, r3}
 1432 0014 94E80300 		ldmia	r4, {r0, r1}
 1433              	.LBB149:
 1434              	.LBB150:
 1435              	.LBB151:
 1436              	.LBB152:
 1437              	.LBB153:
 1438              	.LBB154:
 1439              		.file 4 "ChibiOS_3.0.2/os/ext/CMSIS/include/core_cmFunc.h"
 1440              		.loc 4 546 0
 1441 0018 2023     		movs	r3, #32
 1442              	.LBE154:
 1443              	.LBE153:
 1444              	.LBE152:
 1445              	.LBE151:
 1446              	.LBE150:
 1447              	.LBE149:
 1448              		.loc 1 100 0
 1449 001a 85E80300 		stmia	r5, {r0, r1}
 1450              	.LVL141:
 1451              	.LBB174:
 1452              	.LBB173:
 1453              	.LBB158:
 1454              	.LBB157:
 1455              	.LBB156:
 1456              	.LBB155:
 1457              		.loc 4 546 0
 1458              		.syntax unified
 1459              	@ 546 "ChibiOS_3.0.2/os/ext/CMSIS/include/core_cmFunc.h" 1
 1460 001e 83F31188 		MSR basepri, r3
 1461              	@ 0 "" 2
 1462              	.LVL142:
 1463              		.thumb
 1464              		.syntax unified
 1465              	.LBE155:
 1466              	.LBE156:
 1467              	.LBE157:
 1468              	.LBE158:
 1469              	.LBB159:
 1470              	.LBB160:
 1471              		.loc 3 231 0
 1472 0022 114B     		ldr	r3, .L209+12
 1473              	.LBE160:
 1474              	.LBE159:
 1475              	.LBB162:
 1476              	.LBB163:
 1477              	.LBB164:
 1478              	.LBB165:
 1479              	.LBB166:
 1480              		.loc 4 546 0
 1481 0024 0022     		movs	r2, #0
 1482              	.LBE166:
ARM GAS  /var/folders/sv/kgmgr77579zbf78p2zlhkdfr0000gn/T//ccySOtH9.s 			page 27


 1483              	.LBE165:
 1484              	.LBE164:
 1485              	.LBE163:
 1486              	.LBE162:
 1487              	.LBB171:
 1488              	.LBB161:
 1489              		.loc 3 231 0
 1490 0026 9B6A     		ldr	r3, [r3, #40]
 1491              	.LVL143:
 1492              	.LBE161:
 1493              	.LBE171:
 1494              	.LBB172:
 1495              	.LBB170:
 1496              	.LBB169:
 1497              	.LBB168:
 1498              	.LBB167:
 1499              		.loc 4 546 0
 1500              		.syntax unified
 1501              	@ 546 "ChibiOS_3.0.2/os/ext/CMSIS/include/core_cmFunc.h" 1
 1502 0028 82F31188 		MSR basepri, r2
 1503              	@ 0 "" 2
 1504              	.LVL144:
 1505              		.thumb
 1506              		.syntax unified
 1507              	.LBE167:
 1508              	.LBE168:
 1509              	.LBE169:
 1510              	.LBE170:
 1511              	.LBE172:
 1512              	.LBE173:
 1513              	.LBE174:
 1514              		.loc 1 101 0
 1515 002c 3360     		str	r3, [r6]
 1516              		.loc 1 103 0
 1517 002e 03B0     		add	sp, sp, #12
 1518              		.cfi_remember_state
 1519              		.cfi_def_cfa_offset 20
 1520              		@ sp needed
 1521 0030 BDE8F040 		pop	{r4, r5, r6, r7, lr}
 1522              		.cfi_restore 14
 1523              		.cfi_restore 7
 1524              		.cfi_restore 6
 1525              		.cfi_restore 5
 1526              		.cfi_restore 4
 1527              		.cfi_def_cfa_offset 0
 1528              	.LVL145:
 1529              		.loc 1 102 0
 1530 0034 FFF7FEBF 		b	timeout_reset
 1531              	.LVL146:
 1532              	.L207:
 1533              		.cfi_restore_state
 1534              		.loc 1 94 0
 1535 0038 094E     		ldr	r6, .L209+4
 1536              		.loc 1 96 0
 1537 003a 0A4D     		ldr	r5, .L209+8
 1538 003c 03F0FF02 		and	r2, r3, #255
 1539              		.loc 1 95 0
ARM GAS  /var/folders/sv/kgmgr77579zbf78p2zlhkdfr0000gn/T//ccySOtH9.s 			page 28


 1540 0040 0120     		movs	r0, #1
 1541              	.LVL147:
 1542              		.loc 1 94 0
 1543 0042 3260     		str	r2, [r6]
 1544              		.loc 1 97 0
 1545 0044 0092     		str	r2, [sp]
 1546              		.loc 1 96 0
 1547 0046 8027     		movs	r7, #128
 1548              		.loc 1 95 0
 1549 0048 0870     		strb	r0, [r1]
 1550              		.loc 1 97 0
 1551 004a 084B     		ldr	r3, .L209+16
 1552 004c 0848     		ldr	r0, .L209+20
 1553              		.loc 1 96 0
 1554 004e 6F60     		str	r7, [r5, #4]
 1555              		.loc 1 97 0
 1556 0050 4022     		movs	r2, #64
 1557 0052 4FF4B361 		mov	r1, #1432
 1558 0056 FFF7FEFF 		bl	chThdCreateStatic
 1559              	.LVL148:
 1560 005a D8E7     		b	.L205
 1561              	.L210:
 1562              		.align	2
 1563              	.L209:
 1564 005c 00000000 		.word	.LANCHOR0
 1565 0060 00000000 		.word	.LANCHOR3
 1566 0064 00000000 		.word	.LANCHOR4
 1567 0068 00000000 		.word	ch
 1568 006c 00000000 		.word	output_thread
 1569 0070 00000000 		.word	.LANCHOR15
 1570              		.cfi_endproc
 1571              	.LFE260:
 1572              		.size	app_nunchuk_update_output, .-app_nunchuk_update_output
 1573              		.section	.text.chuk_thread,"ax",%progbits
 1574              		.align	2
 1575              		.p2align 4,,15
 1576              		.thumb
 1577              		.thumb_func
 1578              		.type	chuk_thread, %function
 1579              	chuk_thread:
 1580              	.LFB261:
 1581              		.loc 1 105 0
 1582              		.cfi_startproc
 1583              		@ args = 0, pretend = 0, frame = 48
 1584              		@ frame_needed = 0, uses_anonymous_args = 0
 1585              	.LVL149:
 1586 0000 2DE9F04F 		push	{r4, r5, r6, r7, r8, r9, r10, fp, lr}
 1587              		.cfi_def_cfa_offset 36
 1588              		.cfi_offset 4, -36
 1589              		.cfi_offset 5, -32
 1590              		.cfi_offset 6, -28
 1591              		.cfi_offset 7, -24
 1592              		.cfi_offset 8, -20
 1593              		.cfi_offset 9, -16
 1594              		.cfi_offset 10, -12
 1595              		.cfi_offset 11, -8
 1596              		.cfi_offset 14, -4
ARM GAS  /var/folders/sv/kgmgr77579zbf78p2zlhkdfr0000gn/T//ccySOtH9.s 			page 29


 1597              	.LBB175:
 1598              	.LBB176:
 1599              		.loc 2 135 0
 1600 0004 714B     		ldr	r3, .L229
 1601 0006 724A     		ldr	r2, .L229+4
 1602 0008 9B69     		ldr	r3, [r3, #24]
 1603              	.LBE176:
 1604              	.LBE175:
 1605              		.loc 1 109 0
 1606 000a DFF8DC91 		ldr	r9, .L229+28
 1607              	.LBB178:
 1608              	.LBB177:
 1609              		.loc 2 135 0
 1610 000e 9A61     		str	r2, [r3, #24]
 1611              	.LVL150:
 1612              	.LBE177:
 1613              	.LBE178:
 1614              		.loc 1 105 0
 1615 0010 91B0     		sub	sp, sp, #68
 1616              		.cfi_def_cfa_offset 104
 1617              		.loc 1 109 0
 1618 0012 0123     		movs	r3, #1
 1619              	.LBB179:
 1620              		.loc 1 124 0
 1621 0014 6F4F     		ldr	r7, .L229+8
 1622              	.LBE179:
 1623              		.loc 1 109 0
 1624 0016 89F80030 		strb	r3, [r9]
 1625              	.LVL151:
 1626              		.loc 1 118 0
 1627 001a FFF7FEFF 		bl	hw_start_i2c
 1628              	.LVL152:
 1629              		.loc 1 119 0
 1630 001e 6420     		movs	r0, #100
 1631 0020 FFF7FEFF 		bl	chThdSleep
 1632              	.LVL153:
 1633              	.LBB184:
 1634              		.loc 1 124 0
 1635 0024 3B78     		ldrb	r3, [r7]	@ zero_extendqisi2
 1636 0026 002B     		cmp	r3, #0
 1637 0028 40F0CE80 		bne	.L227
 1638 002c DFF8B081 		ldr	r8, .L229+20
 1639 0030 694E     		ldr	r6, .L229+12
 1640 0032 08F10604 		add	r4, r8, #6
 1641 0036 04AD     		add	r5, sp, #16
 1642 0038 0EE0     		b	.L212
 1643              	.LVL154:
 1644              	.L214:
 1645              		.loc 1 192 0
 1646 003a 0223     		movs	r3, #2
 1647 003c 3360     		str	r3, [r6]
 1648              		.loc 1 193 0
 1649 003e FFF7FEFF 		bl	hw_try_restore_i2c
 1650              	.LVL155:
 1651              		.loc 1 194 0
 1652 0042 4FF47A70 		mov	r0, #1000
 1653 0046 FFF7FEFF 		bl	chThdSleep
ARM GAS  /var/folders/sv/kgmgr77579zbf78p2zlhkdfr0000gn/T//ccySOtH9.s 			page 30


 1654              	.LVL156:
 1655              	.L218:
 1656              		.loc 1 197 0
 1657 004a 6420     		movs	r0, #100
 1658 004c FFF7FEFF 		bl	chThdSleep
 1659              	.LVL157:
 1660              		.loc 1 124 0
 1661 0050 3B78     		ldrb	r3, [r7]	@ zero_extendqisi2
 1662 0052 002B     		cmp	r3, #0
 1663 0054 40F08180 		bne	.L219
 1664              	.L212:
 1665              		.loc 1 130 0
 1666 0058 F022     		movs	r2, #240
 1667              		.loc 1 131 0
 1668 005a 5523     		movs	r3, #85
 1669              		.loc 1 132 0
 1670 005c 5F48     		ldr	r0, .L229+16
 1671              		.loc 1 130 0
 1672 005e 8DF81C20 		strb	r2, [sp, #28]
 1673              		.loc 1 131 0
 1674 0062 8DF81D30 		strb	r3, [sp, #29]
 1675              		.loc 1 133 0
 1676 0066 4FF0320A 		mov	r10, #50
 1677              		.loc 1 132 0
 1678 006a FFF7FEFF 		bl	i2cAcquireBus
 1679              	.LVL158:
 1680              		.loc 1 133 0
 1681 006e 0023     		movs	r3, #0
 1682 0070 0193     		str	r3, [sp, #4]
 1683 0072 0095     		str	r5, [sp]
 1684 0074 CDF808A0 		str	r10, [sp, #8]
 1685 0078 0223     		movs	r3, #2
 1686 007a 07AA     		add	r2, sp, #28
 1687 007c 5221     		movs	r1, #82
 1688 007e 5748     		ldr	r0, .L229+16
 1689 0080 FFF7FEFF 		bl	i2cMasterTransmitTimeout
 1690              	.LVL159:
 1691 0084 8346     		mov	fp, r0
 1692              	.LVL160:
 1693              		.loc 1 134 0
 1694 0086 5548     		ldr	r0, .L229+16
 1695              	.LVL161:
 1696 0088 FFF7FEFF 		bl	i2cReleaseBus
 1697              	.LVL162:
 1698              		.loc 1 137 0
 1699 008c BBF1000F 		cmp	fp, #0
 1700 0090 D3D1     		bne	.L214
 1701              		.loc 1 138 0
 1702 0092 FB23     		movs	r3, #251
 1703              		.loc 1 140 0
 1704 0094 5148     		ldr	r0, .L229+16
 1705              		.loc 1 139 0
 1706 0096 8DF81DB0 		strb	fp, [sp, #29]
 1707              		.loc 1 138 0
 1708 009a 8DF81C30 		strb	r3, [sp, #28]
 1709              		.loc 1 140 0
 1710 009e FFF7FEFF 		bl	i2cAcquireBus
ARM GAS  /var/folders/sv/kgmgr77579zbf78p2zlhkdfr0000gn/T//ccySOtH9.s 			page 31


 1711              	.LVL163:
 1712              		.loc 1 141 0
 1713 00a2 8DE82008 		stmia	sp, {r5, fp}
 1714 00a6 CDF808A0 		str	r10, [sp, #8]
 1715 00aa 0223     		movs	r3, #2
 1716 00ac 07AA     		add	r2, sp, #28
 1717 00ae 5221     		movs	r1, #82
 1718 00b0 4A48     		ldr	r0, .L229+16
 1719 00b2 FFF7FEFF 		bl	i2cMasterTransmitTimeout
 1720              	.LVL164:
 1721 00b6 8346     		mov	fp, r0
 1722              	.LVL165:
 1723              		.loc 1 142 0
 1724 00b8 4848     		ldr	r0, .L229+16
 1725              	.LVL166:
 1726 00ba FFF7FEFF 		bl	i2cReleaseBus
 1727              	.LVL167:
 1728              		.loc 1 146 0
 1729 00be BBF1000F 		cmp	fp, #0
 1730 00c2 BAD1     		bne	.L214
 1731              		.loc 1 148 0
 1732 00c4 4548     		ldr	r0, .L229+16
 1733              		.loc 1 147 0
 1734 00c6 8DF81CB0 		strb	fp, [sp, #28]
 1735              		.loc 1 148 0
 1736 00ca FFF7FEFF 		bl	i2cAcquireBus
 1737              	.LVL168:
 1738              		.loc 1 149 0
 1739 00ce 8DE82008 		stmia	sp, {r5, fp}
 1740 00d2 CDF808A0 		str	r10, [sp, #8]
 1741 00d6 0123     		movs	r3, #1
 1742 00d8 07AA     		add	r2, sp, #28
 1743 00da 5221     		movs	r1, #82
 1744 00dc 3F48     		ldr	r0, .L229+16
 1745 00de FFF7FEFF 		bl	i2cMasterTransmitTimeout
 1746              	.LVL169:
 1747 00e2 8346     		mov	fp, r0
 1748              	.LVL170:
 1749              		.loc 1 150 0
 1750 00e4 3D48     		ldr	r0, .L229+16
 1751              	.LVL171:
 1752 00e6 FFF7FEFF 		bl	i2cReleaseBus
 1753              	.LVL172:
 1754              		.loc 1 154 0
 1755 00ea BBF1000F 		cmp	fp, #0
 1756 00ee A4D1     		bne	.L214
 1757              		.loc 1 155 0
 1758 00f0 1E20     		movs	r0, #30
 1759 00f2 FFF7FEFF 		bl	chThdSleep
 1760              	.LVL173:
 1761              		.loc 1 157 0
 1762 00f6 3948     		ldr	r0, .L229+16
 1763 00f8 FFF7FEFF 		bl	i2cAcquireBus
 1764              	.LVL174:
 1765              		.loc 1 158 0
 1766 00fc CDF800A0 		str	r10, [sp]
 1767 0100 0623     		movs	r3, #6
ARM GAS  /var/folders/sv/kgmgr77579zbf78p2zlhkdfr0000gn/T//ccySOtH9.s 			page 32


 1768 0102 2A46     		mov	r2, r5
 1769 0104 5221     		movs	r1, #82
 1770 0106 3548     		ldr	r0, .L229+16
 1771 0108 FFF7FEFF 		bl	i2cMasterReceiveTimeout
 1772              	.LVL175:
 1773 010c 8246     		mov	r10, r0
 1774              	.LVL176:
 1775              		.loc 1 159 0
 1776 010e 3348     		ldr	r0, .L229+16
 1777              	.LVL177:
 1778 0110 FFF7FEFF 		bl	i2cReleaseBus
 1779              	.LVL178:
 1780              		.loc 1 163 0
 1781 0114 BAF1000F 		cmp	r10, #0
 1782 0118 8FD1     		bne	.L214
 1783 011a 314B     		ldr	r3, .L229+20
 1784 011c 2946     		mov	r1, r5
 1785 011e 0122     		movs	r2, #1
 1786              	.L216:
 1787              	.LVL179:
 1788              	.LBB180:
 1789              	.LBB181:
 1790              		.loc 1 168 0
 1791 0120 13F801EB 		ldrb	lr, [r3], #1	@ zero_extendqisi2
 1792              	.LVL180:
 1793 0124 11F8010B 		ldrb	r0, [r1], #1	@ zero_extendqisi2
 1794              		.loc 1 169 0
 1795 0128 8645     		cmp	lr, r0
 1796 012a 18BF     		it	ne
 1797 012c 0022     		movne	r2, #0
 1798              	.LVL181:
 1799              		.loc 1 167 0
 1800 012e 9C42     		cmp	r4, r3
 1801 0130 F6D1     		bne	.L216
 1802              	.LBE181:
 1803              		.loc 1 173 0
 1804 0132 95E80300 		ldmia	r5, {r0, r1}
 1805 0136 2B4B     		ldr	r3, .L229+24
 1806              	.LVL182:
 1807 0138 C8F80000 		str	r0, [r8]
 1808 013c 1980     		strh	r1, [r3]	@ movhi
 1809              		.loc 1 175 0
 1810 013e 9AB1     		cbz	r2, .L228
 1811              	.LVL183:
 1812              	.L217:
 1813              		.loc 1 188 0
 1814 0140 FFF7FEFF 		bl	timeout_has_timeout
 1815              	.LVL184:
 1816 0144 0028     		cmp	r0, #0
 1817 0146 80D0     		beq	.L218
 1818              		.loc 1 189 0
 1819 0148 0123     		movs	r3, #1
 1820              	.LBE180:
 1821              		.loc 1 197 0
 1822 014a 6420     		movs	r0, #100
 1823              	.LBB182:
 1824              		.loc 1 189 0
ARM GAS  /var/folders/sv/kgmgr77579zbf78p2zlhkdfr0000gn/T//ccySOtH9.s 			page 33


 1825 014c 3360     		str	r3, [r6]
 1826              	.LBE182:
 1827              		.loc 1 197 0
 1828 014e FFF7FEFF 		bl	chThdSleep
 1829              	.LVL185:
 1830              		.loc 1 124 0
 1831 0152 3B78     		ldrb	r3, [r7]	@ zero_extendqisi2
 1832 0154 002B     		cmp	r3, #0
 1833 0156 3FF47FAF 		beq	.L212
 1834              	.LVL186:
 1835              	.L219:
 1836              		.loc 1 125 0
 1837 015a 0023     		movs	r3, #0
 1838 015c 89F80030 		strb	r3, [r9]
 1839              		.loc 1 126 0
 1840 0160 3360     		str	r3, [r6]
 1841              	.LBE184:
 1842              		.loc 1 199 0
 1843 0162 11B0     		add	sp, sp, #68
 1844              		.cfi_remember_state
 1845              		.cfi_def_cfa_offset 36
 1846              		@ sp needed
 1847 0164 BDE8F08F 		pop	{r4, r5, r6, r7, r8, r9, r10, fp, pc}
 1848              	.LVL187:
 1849              	.L228:
 1850              		.cfi_restore_state
 1851              	.LBB185:
 1852              	.LBB183:
 1853              		.loc 1 179 0
 1854 0168 9DF81530 		ldrb	r3, [sp, #21]	@ zero_extendqisi2
 1855 016c 9DF812E0 		ldrb	lr, [sp, #18]	@ zero_extendqisi2
 1856              		.loc 1 180 0
 1857 0170 9DF81300 		ldrb	r0, [sp, #19]	@ zero_extendqisi2
 1858              		.loc 1 176 0
 1859 0174 3260     		str	r2, [r6]
 1860              		.loc 1 179 0
 1861 0176 C3F38102 		ubfx	r2, r3, #2, #2
 1862              	.LVL188:
 1863 017a 42EA8E0E 		orr	lr, r2, lr, lsl #2
 1864              		.loc 1 181 0
 1865 017e 9DF81410 		ldrb	r1, [sp, #20]	@ zero_extendqisi2
 1866              		.loc 1 179 0
 1867 0182 CDF830E0 		str	lr, [sp, #48]
 1868              		.loc 1 180 0
 1869 0186 C3F30112 		ubfx	r2, r3, #4, #2
 1870 018a 42EA8000 		orr	r0, r2, r0, lsl #2
 1871              		.loc 1 181 0
 1872 018e 9A09     		lsrs	r2, r3, #6
 1873 0190 42EA8101 		orr	r1, r2, r1, lsl #2
 1874              		.loc 1 182 0
 1875 0194 03F00102 		and	r2, r3, #1
 1876              		.loc 1 183 0
 1877 0198 C3F34003 		ubfx	r3, r3, #1, #1
 1878              		.loc 1 182 0
 1879 019c 82F00102 		eor	r2, r2, #1
 1880              		.loc 1 183 0
 1881 01a0 83F00103 		eor	r3, r3, #1
ARM GAS  /var/folders/sv/kgmgr77579zbf78p2zlhkdfr0000gn/T//ccySOtH9.s 			page 34


 1882              		.loc 1 177 0
 1883 01a4 9DF810C0 		ldrb	ip, [sp, #16]	@ zero_extendqisi2
 1884              		.loc 1 180 0
 1885 01a8 0D90     		str	r0, [sp, #52]
 1886              		.loc 1 178 0
 1887 01aa 9DF811E0 		ldrb	lr, [sp, #17]	@ zero_extendqisi2
 1888              		.loc 1 181 0
 1889 01ae 0E91     		str	r1, [sp, #56]
 1890              		.loc 1 185 0
 1891 01b0 0AA8     		add	r0, sp, #40
 1892              		.loc 1 182 0
 1893 01b2 8DF83D20 		strb	r2, [sp, #61]
 1894              		.loc 1 183 0
 1895 01b6 8DF83C30 		strb	r3, [sp, #60]
 1896              		.loc 1 177 0
 1897 01ba CDF828C0 		str	ip, [sp, #40]
 1898              		.loc 1 178 0
 1899 01be CDF82CE0 		str	lr, [sp, #44]
 1900              		.loc 1 185 0
 1901 01c2 FFF7FEFF 		bl	app_nunchuk_update_output
 1902              	.LVL189:
 1903 01c6 BBE7     		b	.L217
 1904              	.LVL190:
 1905              	.L227:
 1906 01c8 034E     		ldr	r6, .L229+12
 1907 01ca C6E7     		b	.L219
 1908              	.L230:
 1909              		.align	2
 1910              	.L229:
 1911 01cc 00000000 		.word	ch
 1912 01d0 6C000000 		.word	.LC8
 1913 01d4 00000000 		.word	.LANCHOR12
 1914 01d8 00000000 		.word	.LANCHOR1
 1915 01dc 00000000 		.word	I2CD2
 1916 01e0 00000000 		.word	.LANCHOR16
 1917 01e4 04000000 		.word	.LANCHOR16+4
 1918 01e8 00000000 		.word	.LANCHOR14
 1919              	.LBE183:
 1920              	.LBE185:
 1921              		.cfi_endproc
 1922              	.LFE261:
 1923              		.size	chuk_thread, .-chuk_thread
 1924              		.section	.bss.output_running,"aw",%nobits
 1925              		.set	.LANCHOR0,. + 0
 1926              		.type	output_running, %object
 1927              		.size	output_running, 1
 1928              	output_running:
 1929 0000 00       		.space	1
 1930              		.section	.bss.chuk_thread_wa,"aw",%nobits
 1931              		.align	3
 1932              		.set	.LANCHOR13,. + 0
 1933              		.type	chuk_thread_wa, %object
 1934              		.size	chuk_thread_wa, 1432
 1935              	chuk_thread_wa:
 1936 0000 00000000 		.space	1432
 1936      00000000 
 1936      00000000 
ARM GAS  /var/folders/sv/kgmgr77579zbf78p2zlhkdfr0000gn/T//ccySOtH9.s 			page 35


 1936      00000000 
 1936      00000000 
 1937              		.section	.bss.was_z.10553,"aw",%nobits
 1938              		.set	.LANCHOR6,. + 0
 1939              		.type	was_z.10553, %object
 1940              		.size	was_z.10553, 1
 1941              	was_z.10553:
 1942 0000 00       		.space	1
 1943              		.section	.bss.was_pid.10559,"aw",%nobits
 1944              		.set	.LANCHOR9,. + 0
 1945              		.type	was_pid.10559, %object
 1946              		.size	was_pid.10559, 1
 1947              	was_pid.10559:
 1948 0000 00       		.space	1
 1949              		.section	.bss.output_thread_wa,"aw",%nobits
 1950              		.align	3
 1951              		.set	.LANCHOR15,. + 0
 1952              		.type	output_thread_wa, %object
 1953              		.size	output_thread_wa, 1432
 1954              	output_thread_wa:
 1955 0000 00000000 		.space	1432
 1955      00000000 
 1955      00000000 
 1955      00000000 
 1955      00000000 
 1956              		.section	.bss.is_running,"aw",%nobits
 1957              		.set	.LANCHOR14,. + 0
 1958              		.type	is_running, %object
 1959              		.size	is_running, 1
 1960              	is_running:
 1961 0000 00       		.space	1
 1962              		.section	.bss.chuck_d,"aw",%nobits
 1963              		.align	2
 1964              		.set	.LANCHOR4,. + 0
 1965              		.type	chuck_d, %object
 1966              		.size	chuck_d, 24
 1967              	chuck_d:
 1968 0000 00000000 		.space	24
 1968      00000000 
 1968      00000000 
 1968      00000000 
 1968      00000000 
 1969              		.section	.bss.pid_rpm.10567,"aw",%nobits
 1970              		.align	2
 1971              		.set	.LANCHOR10,. + 0
 1972              		.type	pid_rpm.10567, %object
 1973              		.size	pid_rpm.10567, 4
 1974              	pid_rpm.10567:
 1975 0000 00000000 		.space	4
 1976              		.section	.bss.last_update_time,"aw",%nobits
 1977              		.align	2
 1978              		.set	.LANCHOR3,. + 0
 1979              		.type	last_update_time, %object
 1980              		.size	last_update_time, 4
 1981              	last_update_time:
 1982 0000 00000000 		.space	4
 1983              		.section	.rodata.str1.4,"aMS",%progbits,1
ARM GAS  /var/folders/sv/kgmgr77579zbf78p2zlhkdfr0000gn/T//ccySOtH9.s 			page 36


 1984              		.align	2
 1985              	.LC0:
 1986 0000 4F6E00   		.ascii	"On\000"
 1987 0003 00       		.space	1
 1988              	.LC1:
 1989 0004 4F666600 		.ascii	"Off\000"
 1990              	.LC2:
 1991 0008 4E756E63 		.ascii	"Nunchuk Status\000"
 1991      68756B20 
 1991      53746174 
 1991      757300
 1992 0017 00       		.space	1
 1993              	.LC3:
 1994 0018 4F757470 		.ascii	"Output: %s\000"
 1994      75743A20 
 1994      257300
 1995 0023 00       		.space	1
 1996              	.LC4:
 1997 0024 2000     		.ascii	" \000"
 1998 0026 0000     		.space	2
 1999              	.LC5:
 2000 0028 4E756E63 		.ascii	"Nunchuk output\000"
 2000      68756B20 
 2000      6F757470 
 2000      757400
 2001 0037 00       		.space	1
 2002              	.LC6:
 2003 0038 5072696E 		.ascii	"Print the status of the nunchuk app\000"
 2003      74207468 
 2003      65207374 
 2003      61747573 
 2003      206F6620 
 2004              	.LC7:
 2005 005c 6E756E63 		.ascii	"nunchuk_status\000"
 2005      68756B5F 
 2005      73746174 
 2005      757300
 2006 006b 00       		.space	1
 2007              	.LC8:
 2008 006c 4E756E63 		.ascii	"Nunchuk i2c\000"
 2008      68756B20 
 2008      69326300 
 2009              		.section	.bss.chuck_error,"aw",%nobits
 2010              		.align	2
 2011              		.set	.LANCHOR1,. + 0
 2012              		.type	chuck_error, %object
 2013              		.size	chuck_error, 4
 2014              	chuck_error:
 2015 0000 00000000 		.space	4
 2016              		.section	.bss.filter_ptr.10561,"aw",%nobits
 2017              		.align	2
 2018              		.set	.LANCHOR7,. + 0
 2019              		.type	filter_ptr.10561, %object
 2020              		.size	filter_ptr.10561, 4
 2021              	filter_ptr.10561:
 2022 0000 00000000 		.space	4
 2023              		.section	.bss.config,"aw",%nobits
ARM GAS  /var/folders/sv/kgmgr77579zbf78p2zlhkdfr0000gn/T//ccySOtH9.s 			page 37


 2024              		.align	2
 2025              		.set	.LANCHOR2,. + 0
 2026              		.type	config, %object
 2027              		.size	config, 36
 2028              	config:
 2029 0000 00000000 		.space	36
 2029      00000000 
 2029      00000000 
 2029      00000000 
 2029      00000000 
 2030              		.section	.bss.last_buffer.10540,"aw",%nobits
 2031              		.align	2
 2032              		.set	.LANCHOR16,. + 0
 2033              		.type	last_buffer.10540, %object
 2034              		.size	last_buffer.10540, 6
 2035              	last_buffer.10540:
 2036 0000 00000000 		.space	6
 2036      0000
 2037              		.section	.bss.filter_buffer.10560,"aw",%nobits
 2038              		.align	2
 2039              		.set	.LANCHOR8,. + 0
 2040              		.type	filter_buffer.10560, %object
 2041              		.size	filter_buffer.10560, 32
 2042              	filter_buffer.10560:
 2043 0000 00000000 		.space	32
 2043      00000000 
 2043      00000000 
 2043      00000000 
 2043      00000000 
 2044              		.section	.bss.is_reverse.10552,"aw",%nobits
 2045              		.set	.LANCHOR5,. + 0
 2046              		.type	is_reverse.10552, %object
 2047              		.size	is_reverse.10552, 1
 2048              	is_reverse.10552:
 2049 0000 00       		.space	1
 2050              		.section	.data.stop_now,"aw",%progbits
 2051              		.set	.LANCHOR12,. + 0
 2052              		.type	stop_now, %object
 2053              		.size	stop_now, 1
 2054              	stop_now:
 2055 0000 01       		.byte	1
 2056              		.section	.bss.prev_current.10555,"aw",%nobits
 2057              		.align	2
 2058              		.set	.LANCHOR11,. + 0
 2059              		.type	prev_current.10555, %object
 2060              		.size	prev_current.10555, 4
 2061              	prev_current.10555:
 2062 0000 00000000 		.space	4
 2063              		.text
 2064              	.Letext0:
 2065              		.file 5 "/usr/local/Cellar/gcc-arm-none-eabi/20160928/arm-none-eabi/include/machine/_default_types
 2066              		.file 6 "/usr/local/Cellar/gcc-arm-none-eabi/20160928/arm-none-eabi/include/sys/_stdint.h"
 2067              		.file 7 "/usr/local/Cellar/gcc-arm-none-eabi/20160928/lib/gcc/arm-none-eabi/5.4.1/include/stddef.h
 2068              		.file 8 "ChibiOS_3.0.2/os/rt/ports/ARMCMx/compilers/GCC/chtypes.h"
 2069              		.file 9 "ChibiOS_3.0.2/os/rt/include/chsystypes.h"
 2070              		.file 10 "ChibiOS_3.0.2/os/rt/include/chschd.h"
 2071              		.file 11 "ChibiOS_3.0.2/os/ext/CMSIS/ST/stm32f407xx.h"
ARM GAS  /var/folders/sv/kgmgr77579zbf78p2zlhkdfr0000gn/T//ccySOtH9.s 			page 38


 2072              		.file 12 "ChibiOS_3.0.2/os/rt/ports/ARMCMx/chcore.h"
 2073              		.file 13 "ChibiOS_3.0.2/os/rt/ports/ARMCMx/chcore_v7m.h"
 2074              		.file 14 "ChibiOS_3.0.2/os/rt/include/chtm.h"
 2075              		.file 15 "ChibiOS_3.0.2/os/rt/include/chsem.h"
 2076              		.file 16 "ChibiOS_3.0.2/os/rt/include/chmtx.h"
 2077              		.file 17 "./datatypes.h"
 2078              		.file 18 "ChibiOS_3.0.2/os/hal/ports/STM32/STM32F4xx/stm32_dma.h"
 2079              		.file 19 "ChibiOS_3.0.2/os/hal/include/i2c.h"
 2080              		.file 20 "ChibiOS_3.0.2/os/hal/ports/STM32/LLD/I2Cv1/i2c_lld.h"
 2081              		.file 21 "ChibiOS_3.0.2/os/rt/include/chsys.h"
 2082              		.file 22 "ChibiOS_3.0.2/os/ext/CMSIS/include/core_cm4.h"
 2083              		.file 23 "./commands.h"
 2084              		.file 24 "./utils.h"
 2085              		.file 25 "./comm_can.h"
 2086              		.file 26 "./mc_interface.h"
 2087              		.file 27 "ChibiOS_3.0.2/os/rt/include/chthreads.h"
 2088              		.file 28 "./timeout.h"
 2089              		.file 29 "./led_external.h"
 2090              		.file 30 "./terminal.h"
 2091              		.file 31 "hwconf/hw.h"