ARM GAS  /var/folders/sv/kgmgr77579zbf78p2zlhkdfr0000gn/T//cc0OGAIz.s 			page 1


   1              		.syntax unified
   2              		.cpu cortex-m4
   3              		.eabi_attribute 27, 1
   4              		.eabi_attribute 28, 1
   5              		.fpu fpv4-sp-d16
   6              		.eabi_attribute 20, 1
   7              		.eabi_attribute 21, 1
   8              		.eabi_attribute 23, 3
   9              		.eabi_attribute 24, 1
  10              		.eabi_attribute 25, 1
  11              		.eabi_attribute 26, 1
  12              		.eabi_attribute 30, 2
  13              		.eabi_attribute 34, 1
  14              		.eabi_attribute 18, 4
  15              		.thumb
  16              		.syntax unified
  17              		.file	"app_adc.c"
  18              		.text
  19              	.Ltext0:
  20              		.cfi_sections	.debug_frame
  21              		.section	.text.adc_thread,"ax",%progbits
  22              		.align	2
  23              		.p2align 4,,15
  24              		.thumb
  25              		.thumb_func
  26              		.type	adc_thread, %function
  27              	adc_thread:
  28              	.LFB263:
  29              		.file 1 "applications/app_adc.c"
  30              		.loc 1 88 0
  31              		.cfi_startproc
  32              		@ args = 0, pretend = 0, frame = 16
  33              		@ frame_needed = 0, uses_anonymous_args = 0
  34              	.LVL0:
  35 0000 2DE9F04F 		push	{r4, r5, r6, r7, r8, r9, r10, fp, lr}
  36              		.cfi_def_cfa_offset 36
  37              		.cfi_offset 4, -36
  38              		.cfi_offset 5, -32
  39              		.cfi_offset 6, -28
  40              		.cfi_offset 7, -24
  41              		.cfi_offset 8, -20
  42              		.cfi_offset 9, -16
  43              		.cfi_offset 10, -12
  44              		.cfi_offset 11, -8
  45              		.cfi_offset 14, -4
  46              	.LBB64:
  47              	.LBB65:
  48              		.file 2 "ChibiOS_3.0.2/os/rt/include/chregistry.h"
  49              		.loc 2 135 0
  50 0004 DFF82C83 		ldr	r8, .L216+80
  51              	.LBE65:
  52              	.LBE64:
  53              		.loc 1 94 0
  54 0008 DFF82CB3 		ldr	fp, .L216+84
  55              	.LBB69:
  56              	.LBB66:
  57              		.loc 2 135 0
ARM GAS  /var/folders/sv/kgmgr77579zbf78p2zlhkdfr0000gn/T//cc0OGAIz.s 			page 2


  58 000c D8F81820 		ldr	r2, [r8, #24]
  59              	.LBE66:
  60              	.LBE69:
  61              		.loc 1 94 0
  62 0010 9BF80030 		ldrb	r3, [fp]	@ zero_extendqisi2
  63              	.LBB70:
  64              	.LBB67:
  65              		.loc 2 135 0
  66 0014 B349     		ldr	r1, .L216
  67              	.LBE67:
  68              	.LBE70:
  69              		.loc 1 88 0
  70 0016 2DED088B 		vpush.64	{d8, d9, d10, d11}
  71              		.cfi_def_cfa_offset 68
  72              		.cfi_offset 80, -68
  73              		.cfi_offset 81, -64
  74              		.cfi_offset 82, -60
  75              		.cfi_offset 83, -56
  76              		.cfi_offset 84, -52
  77              		.cfi_offset 85, -48
  78              		.cfi_offset 86, -44
  79              		.cfi_offset 87, -40
  80              	.LBB71:
  81              	.LBB68:
  82              		.loc 2 135 0
  83 001a 9161     		str	r1, [r2, #24]
  84              	.LVL1:
  85              	.LBE68:
  86              	.LBE71:
  87              		.loc 1 88 0
  88 001c 85B0     		sub	sp, sp, #20
  89              		.cfi_def_cfa_offset 88
  90              		.loc 1 95 0
  91 001e 2022     		movs	r2, #32
  92              		.loc 1 94 0
  93 0020 002B     		cmp	r3, #0
  94 0022 00F08984 		beq	.L2
  95              		.loc 1 95 0
  96 0026 4021     		movs	r1, #64
  97 0028 AF48     		ldr	r0, .L216+4
  98              	.LVL2:
  99 002a FFF7FEFF 		bl	_pal_lld_setgroupmode
 100              	.LVL3:
 101              		.loc 1 96 0
 102 002e 2022     		movs	r2, #32
 103 0030 8021     		movs	r1, #128
 104 0032 AD48     		ldr	r0, .L216+4
 105 0034 FFF7FEFF 		bl	_pal_lld_setgroupmode
 106              	.LVL4:
 107              	.L3:
 108              		.loc 1 101 0
 109 0038 AC4A     		ldr	r2, .L216+8
 110 003a AD4C     		ldr	r4, .L216+12
 111              	.LBB72:
 112              		.loc 1 120 0
 113 003c DFEDAD9A 		vldr.32	s19, .L216+16
 114              		.loc 1 126 0
ARM GAS  /var/folders/sv/kgmgr77579zbf78p2zlhkdfr0000gn/T//cc0OGAIz.s 			page 3


 115 0040 9FEDAD9A 		vldr.32	s18, .L216+20
 116              	.LBB73:
 117              	.LBB74:
 118              	.LBB75:
 119              		.loc 1 476 0
 120 0044 9FEDAD8A 		vldr.32	s16, .L216+24
 121 0048 DFEDAD8A 		vldr.32	s17, .L216+28
 122              	.LBE75:
 123              	.LBE74:
 124              	.LBE73:
 125              	.LBE72:
 126              		.loc 1 101 0
 127 004c 0123     		movs	r3, #1
 128 004e 1370     		strb	r3, [r2]
 129              	.L4:
 130              	.LBB146:
 131              		.loc 1 105 0
 132 0050 236C     		ldr	r3, [r4, #64]
 133 0052 42F21075 		movw	r5, #10000
 134 0056 B5FBF3F5 		udiv	r5, r5, r3
 135              	.LVL5:
 136              		.loc 1 109 0
 137 005a 002D     		cmp	r5, #0
 138 005c 08BF     		it	eq
 139 005e 0125     		moveq	r5, #1
 140              	.LVL6:
 141              		.loc 1 111 0
 142 0060 2846     		mov	r0, r5
 143 0062 FFF7FEFF 		bl	chThdSleep
 144              	.LVL7:
 145              		.loc 1 113 0
 146 0066 A74B     		ldr	r3, .L216+32
 147 0068 1B78     		ldrb	r3, [r3]	@ zero_extendqisi2
 148 006a 002B     		cmp	r3, #0
 149 006c 40F03484 		bne	.L207
 150              		.loc 1 119 0
 151 0070 FFF7FEFF 		bl	mc_interface_get_fault
 152              	.LVL8:
 153 0074 18B1     		cbz	r0, .L7
 154              		.loc 1 120 0
 155 0076 DFF8C4A2 		ldr	r10, .L216+88
 156 007a CAED009A 		vstr.32	s19, [r10]
 157              	.L7:
 158              		.loc 1 124 0
 159 007e A24E     		ldr	r6, .L216+36
 160              		.loc 1 126 0
 161 0080 9FEDA20A 		vldr.32	s0, .L216+40
 162              		.loc 1 124 0
 163 0084 B38A     		ldrh	r3, [r6, #20]
 164              		.loc 1 128 0
 165 0086 A24A     		ldr	r2, .L216+44
 166              		.loc 1 124 0
 167 0088 9BB2     		uxth	r3, r3
 168              		.loc 1 126 0
 169 008a 07EE903A 		vmov	s15, r3	@ int
 170 008e B8EE677A 		vcvt.f32.u32	s14, s15
 171 0092 C7EE097A 		vdiv.f32	s15, s14, s18
ARM GAS  /var/folders/sv/kgmgr77579zbf78p2zlhkdfr0000gn/T//cc0OGAIz.s 			page 4


 172 0096 27EE800A 		vmul.f32	s0, s15, s0
 173              		.loc 1 128 0
 174 009a 82ED000A 		vstr.32	s0, [r2]
 175              		.loc 1 131 0
 176 009e 237F     		ldrb	r3, [r4, #28]	@ zero_extendqisi2
 177              		.loc 1 126 0
 178 00a0 8DED020A 		vstr.32	s0, [sp, #8]
 179              		.loc 1 131 0
 180 00a4 F3B1     		cbz	r3, .L8
 181              	.LBB84:
 182              		.loc 1 135 0
 183 00a6 9B4A     		ldr	r2, .L216+48
 184 00a8 9B4B     		ldr	r3, .L216+52
 185 00aa 1068     		ldr	r0, [r2]
 186              	.LBE84:
 187              		.loc 1 109 0
 188 00ac DFED917A 		vldr.32	s15, .L216+16
 189              	.LBB86:
 190              		.loc 1 135 0
 191 00b0 411C     		adds	r1, r0, #1
 192 00b2 03EB8003 		add	r3, r3, r0, lsl #2
 193              		.loc 1 136 0
 194 00b6 0429     		cmp	r1, #4
 195              		.loc 1 135 0
 196 00b8 83ED000A 		vstr.32	s0, [r3]
 197              		.loc 1 137 0
 198 00bc C8BF     		it	gt
 199 00be 0023     		movgt	r3, #0
 200              		.loc 1 135 0
 201 00c0 1160     		str	r1, [r2]
 202              		.loc 1 137 0
 203 00c2 C8BF     		it	gt
 204 00c4 1360     		strgt	r3, [r2]
 205              	.LVL9:
 206 00c6 944B     		ldr	r3, .L216+52
 207 00c8 03F11402 		add	r2, r3, #20
 208              	.LVL10:
 209              	.L10:
 210              	.LBB85:
 211              		.loc 1 142 0 discriminator 3
 212 00cc B3EC017A 		vldmia.32	r3!, {s14}
 213              		.loc 1 141 0 discriminator 3
 214 00d0 9A42     		cmp	r2, r3
 215              		.loc 1 142 0 discriminator 3
 216 00d2 77EE877A 		vadd.f32	s15, s15, s14
 217              		.loc 1 141 0 discriminator 3
 218 00d6 F9D1     		bne	.L10
 219              	.LBE85:
 220              		.loc 1 144 0
 221 00d8 B1EE047A 		vmov.f32	s14, #5.0e+0
 222 00dc 87EE870A 		vdiv.f32	s0, s15, s14
 223 00e0 8DED020A 		vstr.32	s0, [sp, #8]
 224              	.L8:
 225              	.LBE86:
 226              		.loc 1 148 0
 227 00e4 2378     		ldrb	r3, [r4]	@ zero_extendqisi2
 228 00e6 8249     		ldr	r1, .L216+12
ARM GAS  /var/folders/sv/kgmgr77579zbf78p2zlhkdfr0000gn/T//cc0OGAIz.s 			page 5


 229 00e8 DBB2     		uxtb	r3, r3
 230 00ea 0C2B     		cmp	r3, #12
 231 00ec 00F20E82 		bhi	.L11
 232 00f0 0122     		movs	r2, #1
 233 00f2 02FA03F3 		lsl	r3, r2, r3
 234 00f6 41F22422 		movw	r2, #4644
 235 00fa 1A40     		ands	r2, r2, r3
 236 00fc 002A     		cmp	r2, #0
 237 00fe 00F00582 		beq	.L11
 238              		.loc 1 154 0
 239 0102 D1ED047A 		vldr.32	s15, [r1, #16]
 240 0106 B4EEE70A 		vcmpe.f32	s0, s15
 241 010a F1EE10FA 		vmrs	APSR_nzcv, FPSCR
 242 010e 40F19183 		bpl	.L195
 243              		.loc 1 155 0
 244 0112 D1ED020A 		vldr.32	s1, [r1, #8]
 245 0116 DFED771A 		vldr.32	s3, .L216+16
 246 011a 91ED041A 		vldr.32	s2, [r1, #16]
 247 011e B6EE002A 		vmov.f32	s4, #5.0e-1
 248 0122 FFF7FEFF 		bl	utils_map
 249              	.LVL11:
 250 0126 8DED020A 		vstr.32	s0, [sp, #8]
 251              	.L14:
 252              		.loc 1 170 0
 253 012a 02A8     		add	r0, sp, #8
 254 012c F7EE000A 		vmov.f32	s1, #1.0e+0
 255 0130 9FED700A 		vldr.32	s0, .L216+16
 256 0134 FFF7FEFF 		bl	utils_truncate_number
 257              	.LVL12:
 258              		.loc 1 173 0
 259 0138 94F82030 		ldrb	r3, [r4, #32]	@ zero_extendqisi2
 260 013c 002B     		cmp	r3, #0
 261 013e 40F08082 		bne	.L15
 262 0142 DDED027A 		vldr.32	s15, [sp, #8]
 263              	.L16:
 264              		.loc 1 177 0
 265 0146 754B     		ldr	r3, .L216+56
 266              		.loc 1 183 0
 267 0148 9FED700A 		vldr.32	s0, .L216+40
 268              		.loc 1 177 0
 269 014c C3ED007A 		vstr.32	s15, [r3]
 270              		.loc 1 181 0
 271 0150 F389     		ldrh	r3, [r6, #14]
 272              		.loc 1 188 0
 273 0152 734A     		ldr	r2, .L216+60
 274              		.loc 1 181 0
 275 0154 9BB2     		uxth	r3, r3
 276              		.loc 1 183 0
 277 0156 07EE903A 		vmov	s15, r3	@ int
 278 015a B8EE677A 		vcvt.f32.u32	s14, s15
 279 015e C7EE097A 		vdiv.f32	s15, s14, s18
 280 0162 27EE800A 		vmul.f32	s0, s15, s0
 281              		.loc 1 188 0
 282 0166 82ED000A 		vstr.32	s0, [r2]
 283              		.loc 1 191 0
 284 016a 237F     		ldrb	r3, [r4, #28]	@ zero_extendqisi2
 285              		.loc 1 183 0
ARM GAS  /var/folders/sv/kgmgr77579zbf78p2zlhkdfr0000gn/T//cc0OGAIz.s 			page 6


 286 016c 8DED030A 		vstr.32	s0, [sp, #12]
 287              		.loc 1 191 0
 288 0170 F3B1     		cbz	r3, .L17
 289              	.LBB87:
 290              		.loc 1 195 0
 291 0172 6C4A     		ldr	r2, .L216+64
 292 0174 6C4B     		ldr	r3, .L216+68
 293 0176 1068     		ldr	r0, [r2]
 294              	.LBE87:
 295              		.loc 1 109 0
 296 0178 DFED5E7A 		vldr.32	s15, .L216+16
 297              	.LBB89:
 298              		.loc 1 195 0
 299 017c 411C     		adds	r1, r0, #1
 300 017e 03EB8003 		add	r3, r3, r0, lsl #2
 301              		.loc 1 196 0
 302 0182 0429     		cmp	r1, #4
 303              		.loc 1 195 0
 304 0184 83ED000A 		vstr.32	s0, [r3]
 305              		.loc 1 197 0
 306 0188 C8BF     		it	gt
 307 018a 0023     		movgt	r3, #0
 308              		.loc 1 195 0
 309 018c 1160     		str	r1, [r2]
 310              		.loc 1 197 0
 311 018e C8BF     		it	gt
 312 0190 1360     		strgt	r3, [r2]
 313              	.LVL13:
 314 0192 654B     		ldr	r3, .L216+68
 315 0194 03F11402 		add	r2, r3, #20
 316              	.LVL14:
 317              	.L19:
 318              	.LBB88:
 319              		.loc 1 202 0 discriminator 3
 320 0198 B3EC017A 		vldmia.32	r3!, {s14}
 321              		.loc 1 201 0 discriminator 3
 322 019c 9A42     		cmp	r2, r3
 323              		.loc 1 202 0 discriminator 3
 324 019e 77EE877A 		vadd.f32	s15, s15, s14
 325              		.loc 1 201 0 discriminator 3
 326 01a2 F9D1     		bne	.L19
 327              	.LBE88:
 328              		.loc 1 204 0
 329 01a4 B1EE047A 		vmov.f32	s14, #5.0e+0
 330 01a8 87EE870A 		vdiv.f32	s0, s15, s14
 331 01ac 8DED030A 		vstr.32	s0, [sp, #12]
 332              	.L17:
 333              	.LBE89:
 334              		.loc 1 208 0
 335 01b0 D4ED050A 		vldr.32	s1, [r4, #20]
 336 01b4 DFED4F1A 		vldr.32	s3, .L216+16
 337 01b8 94ED061A 		vldr.32	s2, [r4, #24]
 338 01bc B7EE002A 		vmov.f32	s4, #1.0e+0
 339 01c0 FFF7FEFF 		bl	utils_map
 340              	.LVL15:
 341 01c4 04A8     		add	r0, sp, #16
 342 01c6 20ED010A 		vstmdb.32	r0!, {s0}
ARM GAS  /var/folders/sv/kgmgr77579zbf78p2zlhkdfr0000gn/T//cc0OGAIz.s 			page 7


 343              		.loc 1 209 0
 344 01ca F7EE000A 		vmov.f32	s1, #1.0e+0
 345 01ce 9FED490A 		vldr.32	s0, .L216+16
 346 01d2 FFF7FEFF 		bl	utils_truncate_number
 347              	.LVL16:
 348              		.loc 1 212 0
 349 01d6 94F82130 		ldrb	r3, [r4, #33]	@ zero_extendqisi2
 350 01da 002B     		cmp	r3, #0
 351 01dc 40F02882 		bne	.L20
 352 01e0 DDED037A 		vldr.32	s15, [sp, #12]
 353              	.L21:
 354              		.loc 1 216 0
 355 01e4 514B     		ldr	r3, .L216+72
 356 01e6 C3ED007A 		vstr.32	s15, [r3]
 357              	.LVL17:
 358              		.loc 1 221 0
 359 01ea 9BF80030 		ldrb	r3, [fp]	@ zero_extendqisi2
 360 01ee 03F0FF02 		and	r2, r3, #255
 361 01f2 002B     		cmp	r3, #0
 362 01f4 00F00182 		beq	.L22
 363              		.loc 1 222 0
 364 01f8 3B4B     		ldr	r3, .L216+4
 365 01fa 1F69     		ldr	r7, [r3, #16]
 366              		.loc 1 223 0
 367 01fc A37F     		ldrb	r3, [r4, #30]	@ zero_extendqisi2
 368              		.loc 1 222 0
 369 01fe BF09     		lsrs	r7, r7, #6
 370              	.LVL18:
 371              		.loc 1 224 0
 372 0200 07F00107 		and	r7, r7, #1
 373              	.LVL19:
 374              		.loc 1 223 0
 375 0204 0BB9     		cbnz	r3, .L24
 376              		.loc 1 222 0
 377 0206 87F00107 		eor	r7, r7, #1
 378              	.LVL20:
 379              	.L24:
 380              		.loc 1 226 0
 381 020a 374B     		ldr	r3, .L216+4
 382 020c 1E69     		ldr	r6, [r3, #16]
 383              		.loc 1 227 0
 384 020e E37F     		ldrb	r3, [r4, #31]	@ zero_extendqisi2
 385              		.loc 1 226 0
 386 0210 F609     		lsrs	r6, r6, #7
 387              	.LVL21:
 388              		.loc 1 228 0
 389 0212 06F00106 		and	r6, r6, #1
 390              	.LVL22:
 391              		.loc 1 227 0
 392 0216 0BB9     		cbnz	r3, .L26
 393              	.LVL23:
 394              	.L202:
 395              		.loc 1 235 0
 396 0218 86F00106 		eor	r6, r6, #1
 397              	.L26:
 398              	.LVL24:
 399              		.loc 1 247 0
ARM GAS  /var/folders/sv/kgmgr77579zbf78p2zlhkdfr0000gn/T//cc0OGAIz.s 			page 8


 400 021c 2378     		ldrb	r3, [r4]	@ zero_extendqisi2
 401 021e DBB2     		uxtb	r3, r3
 402 0220 0D2B     		cmp	r3, #13
 403 0222 17D8     		bhi	.L31
 404 0224 0122     		movs	r2, #1
 405 0226 02FA03F3 		lsl	r3, r2, r3
 406 022a 42F24842 		movw	r2, #9288
 407 022e 1A40     		ands	r2, r2, r3
 408 0230 002A     		cmp	r2, #0
 409 0232 40F0CD82 		bne	.L32
 410 0236 41F22422 		movw	r2, #4644
 411 023a 1A40     		ands	r2, r2, r3
 412 023c 002A     		cmp	r2, #0
 413 023e 40F00683 		bne	.L33
 414 0242 13F0900F 		tst	r3, #144
 415 0246 05D0     		beq	.L31
 416              		.loc 1 259 0
 417 0248 9DED027A 		vldr.32	s14, [sp, #8]
 418 024c 77EE677A 		vsub.f32	s15, s14, s15
 419 0250 CDED027A 		vstr.32	s15, [sp, #8]
 420              	.L31:
 421              		.loc 1 277 0
 422 0254 94ED010A 		vldr.32	s0, [r4, #4]
 423              		.loc 1 285 0
 424 0258 DFF8E4A0 		ldr	r10, .L216+92
 425              		.loc 1 277 0
 426 025c DFF89090 		ldr	r9, .L216+12
 427 0260 02A8     		add	r0, sp, #8
 428 0262 F7EE000A 		vmov.f32	s1, #1.0e+0
 429 0266 FFF7FEFF 		bl	utils_deadband
 430              	.LVL25:
 431              		.loc 1 280 0
 432 026a D4ED090A 		vldr.32	s1, [r4, #36]
 433 026e 9DED020A 		vldr.32	s0, [sp, #8]
 434 0272 94ED0A1A 		vldr.32	s2, [r4, #40]
 435 0276 94F82C00 		ldrb	r0, [r4, #44]	@ zero_extendqisi2
 436 027a FFF7FEFF 		bl	utils_throttle_curve
 437              	.LVL26:
 438              		.loc 1 285 0
 439 027e DAED007A 		vldr.32	s15, [r10]
 440              		.loc 1 280 0
 441 0282 8DED020A 		vstr.32	s0, [sp, #8]
 442              		.loc 1 285 0
 443 0286 B0EEC07A 		vabs.f32	s14, s0
 444 028a F0EEE77A 		vabs.f32	s15, s15
 445 028e B4EEE77A 		vcmpe.f32	s14, s15
 446 0292 F1EE10FA 		vmrs	APSR_nzcv, FPSCR
 447 0296 CCBF     		ite	gt
 448 0298 99ED0C7A 		vldrgt.32	s14, [r9, #48]
 449 029c 99ED0D7A 		vldrle.32	s14, [r9, #52]
 450              	.LVL27:
 451              		.loc 1 287 0
 452 02a0 DFED237A 		vldr.32	s15, .L216+76
 453 02a4 B4EEE77A 		vcmpe.f32	s14, s15
 454 02a8 F1EE10FA 		vmrs	APSR_nzcv, FPSCR
 455 02ac 00F36982 		bgt	.L208
 456              	.LVL28:
ARM GAS  /var/folders/sv/kgmgr77579zbf78p2zlhkdfr0000gn/T//cc0OGAIz.s 			page 9


 457              	.L38:
 458              		.loc 1 297 0
 459 02b0 FFF7FEFF 		bl	mc_interface_get_configuration
 460              	.LVL29:
 461 02b4 8146     		mov	r9, r0
 462              	.LVL30:
 463              		.loc 1 298 0
 464 02b6 FFF7FEFF 		bl	mc_interface_get_rpm
 465              	.LVL31:
 466              		.loc 1 302 0
 467 02ba 2378     		ldrb	r3, [r4]	@ zero_extendqisi2
 468 02bc 013B     		subs	r3, r3, #1
 469 02be 0C2B     		cmp	r3, #12
 470 02c0 3FF6C6AE 		bhi	.L4
 471 02c4 DFE813F0 		tbh	[pc, r3, lsl #1]
 472              	.L42:
 473 02c8 0001     		.2byte	(.L41-.L42)/2
 474 02ca 0001     		.2byte	(.L41-.L42)/2
 475 02cc 0001     		.2byte	(.L41-.L42)/2
 476 02ce E000     		.2byte	(.L43-.L42)/2
 477 02d0 E000     		.2byte	(.L43-.L42)/2
 478 02d2 E000     		.2byte	(.L43-.L42)/2
 479 02d4 E000     		.2byte	(.L43-.L42)/2
 480 02d6 BE00     		.2byte	(.L44-.L42)/2
 481 02d8 BE00     		.2byte	(.L44-.L42)/2
 482 02da BE00     		.2byte	(.L44-.L42)/2
 483 02dc 3E00     		.2byte	(.L45-.L42)/2
 484 02de 3E00     		.2byte	(.L45-.L42)/2
 485 02e0 3E00     		.2byte	(.L45-.L42)/2
 486              		.p2align 1
 487              	.L217:
 488 02e2 00BF     		.align	2
 489              	.L216:
 490 02e4 00000000 		.word	.LC0
 491 02e8 00080240 		.word	1073874944
 492 02ec 00000000 		.word	.LANCHOR1
 493 02f0 00000000 		.word	.LANCHOR2
 494 02f4 00000000 		.word	0
 495 02f8 00F07F45 		.word	1166012416
 496 02fc 00401C46 		.word	1176256512
 497 0300 CDCCCC3D 		.word	1036831949
 498 0304 00000000 		.word	.LANCHOR3
 499 0308 00000000 		.word	ADC_Value
 500 030c 33335340 		.word	1079194419
 501 0310 00000000 		.word	.LANCHOR5
 502 0314 00000000 		.word	.LANCHOR6
 503 0318 00000000 		.word	.LANCHOR7
 504 031c 00000000 		.word	.LANCHOR8
 505 0320 00000000 		.word	.LANCHOR9
 506 0324 00000000 		.word	.LANCHOR10
 507 0328 00000000 		.word	.LANCHOR11
 508 032c 00000000 		.word	.LANCHOR12
 509 0330 0AD7233C 		.word	1008981770
 510 0334 00000000 		.word	ch
 511 0338 00000000 		.word	.LANCHOR0
 512 033c 00000000 		.word	.LANCHOR4
 513 0340 00000000 		.word	.LANCHOR13
ARM GAS  /var/folders/sv/kgmgr77579zbf78p2zlhkdfr0000gn/T//cc0OGAIz.s 			page 10


 514              	.L45:
 515              		.loc 1 361 0
 516 0344 DFF818A3 		ldr	r10, .L218+12
 517 0348 DFEDC27A 		vldr.32	s15, .L218
 518 034c 9AED007A 		vldr.32	s14, [r10]
 519              		.loc 1 355 0
 520 0350 DDED02AA 		vldr.32	s21, [sp, #8]
 521              	.LVL32:
 522              		.loc 1 361 0
 523 0354 B4EEE77A 		vcmpe.f32	s14, s15
 524 0358 F1EE10FA 		vmrs	APSR_nzcv, FPSCR
 525 035c 40F14282 		bpl	.L55
 526              		.loc 1 361 0 is_stmt 0 discriminator 1
 527 0360 627F     		ldrb	r2, [r4, #29]	@ zero_extendqisi2
 528 0362 002A     		cmp	r2, #0
 529 0364 00F03E82 		beq	.L55
 530 0368 F0EE6A7A 		vmov.f32	s15, s21
 531              		.loc 1 299 0 is_stmt 1
 532 036c 0026     		movs	r6, #0
 533              	.LVL33:
 534              	.L57:
 535              		.loc 1 373 0
 536 036e 9FEDBA7A 		vldr.32	s14, .L218+4
 537 0372 F0EEE77A 		vabs.f32	s15, s15
 538 0376 F4EEC77A 		vcmpe.f32	s15, s14
 539 037a F1EE10FA 		vmrs	APSR_nzcv, FPSCR
 540 037e 40F17182 		bpl	.L199
 541              		.loc 1 374 0
 542 0382 07EE905A 		vmov	s15, r5	@ int
 543 0386 9FEDB57A 		vldr.32	s14, .L218+8
 544 038a DAED006A 		vldr.32	s13, [r10]
 545 038e F8EEE77A 		vcvt.f32.s32	s15, s15
 546              		.loc 1 296 0
 547 0392 4FF00009 		mov	r9, #0
 548              	.LVL34:
 549              		.loc 1 374 0
 550 0396 67EE877A 		vmul.f32	s15, s15, s14
 551              		.loc 1 295 0
 552 039a 4D46     		mov	r5, r9
 553              	.LVL35:
 554              		.loc 1 374 0
 555 039c 87EE887A 		vdiv.f32	s14, s15, s16
 556 03a0 77EE267A 		vadd.f32	s15, s14, s13
 557 03a4 CAED007A 		vstr.32	s15, [r10]
 558              	.LVL36:
 559              	.L46:
 560              		.loc 1 383 0
 561 03a8 9AED007A 		vldr.32	s14, [r10]
 562 03ac DFEDA97A 		vldr.32	s15, .L218
 563 03b0 AB4A     		ldr	r2, .L218+12
 564 03b2 B4EEE77A 		vcmpe.f32	s14, s15
 565 03b6 F1EE10FA 		vmrs	APSR_nzcv, FPSCR
 566 03ba 40F1B480 		bpl	.L62
 567              		.loc 1 383 0 is_stmt 0 discriminator 1
 568 03be 617F     		ldrb	r1, [r4, #29]	@ zero_extendqisi2
 569 03c0 0029     		cmp	r1, #0
 570 03c2 00F0B080 		beq	.L62
ARM GAS  /var/folders/sv/kgmgr77579zbf78p2zlhkdfr0000gn/T//cc0OGAIz.s 			page 11


 571              	.LBB90:
 572              		.loc 1 385 0 is_stmt 1
 573 03c6 A749     		ldr	r1, .L218+16
 574 03c8 92ED007A 		vldr.32	s14, [r2]
 575 03cc D1ED007A 		vldr.32	s15, [r1]	@ int
 576 03d0 F8EEE77A 		vcvt.f32.s32	s15, s15
 577 03d4 F4EE477A 		vcmp.f32	s15, s14
 578 03d8 F1EE10FA 		vmrs	APSR_nzcv, FPSCR
 579              		.loc 1 386 0
 580 03dc 08BF     		it	eq
 581 03de C2ED009A 		vstreq.32	s19, [r2]
 582              		.loc 1 388 0
 583 03e2 DAED007A 		vldr.32	s15, [r10]
 584 03e6 FDEEE77A 		vcvt.s32.f32	s15, s15
 585 03ea C1ED007A 		vstr.32	s15, [r1]	@ int
 586              		.loc 1 389 0
 587 03ee FFF7FEFF 		bl	timeout_get_brake_current
 588              	.LVL37:
 589 03f2 FFF7FEFF 		bl	mc_interface_set_brake_current
 590              	.LVL38:
 591              		.loc 1 391 0
 592 03f6 94F83830 		ldrb	r3, [r4, #56]	@ zero_extendqisi2
 593 03fa 002B     		cmp	r3, #0
 594 03fc 3FF428AE 		beq	.L4
 595 0400 0025     		movs	r5, #0
 596              	.LVL39:
 597 0402 02E0     		b	.L68
 598              	.LVL40:
 599              	.L66:
 600              	.LBB91:
 601              		.loc 1 392 0 discriminator 2
 602 0404 0A2D     		cmp	r5, #10
 603 0406 3FF423AE 		beq	.L4
 604              	.LVL41:
 605              	.L68:
 606              	.LBB92:
 607              		.loc 1 393 0
 608 040a 2846     		mov	r0, r5
 609 040c FFF7FEFF 		bl	comm_can_get_status_msg_index
 610              	.LVL42:
 611              		.loc 1 395 0
 612 0410 0668     		ldr	r6, [r0]
 613 0412 002E     		cmp	r6, #0
 614              	.LBE92:
 615              		.loc 1 392 0
 616 0414 05F10105 		add	r5, r5, #1
 617              	.LVL43:
 618              	.LBB97:
 619              		.loc 1 395 0
 620 0418 F4DB     		blt	.L66
 621              		.loc 1 395 0 is_stmt 0 discriminator 1
 622 041a 4268     		ldr	r2, [r0, #4]
 623              	.LBB93:
 624              	.LBB94:
 625              	.LBB95:
 626              	.LBB96:
 627              		.file 3 "ChibiOS_3.0.2/os/rt/include/chvt.h"
ARM GAS  /var/folders/sv/kgmgr77579zbf78p2zlhkdfr0000gn/T//cc0OGAIz.s 			page 12


 628              		.loc 3 231 0 is_stmt 1 discriminator 1
 629 041c D8F82830 		ldr	r3, [r8, #40]
 630              	.LVL44:
 631              	.LBE96:
 632              	.LBE95:
 633              	.LBE94:
 634              	.LBE93:
 635              		.loc 1 395 0 discriminator 1
 636 0420 9B1A     		subs	r3, r3, r2
 637 0422 07EE903A 		vmov	s15, r3	@ int
 638 0426 F8EE677A 		vcvt.f32.u32	s15, s15
 639 042a 87EE887A 		vdiv.f32	s14, s15, s16
 640 042e B4EEE87A 		vcmpe.f32	s14, s17
 641 0432 F1EE10FA 		vmrs	APSR_nzcv, FPSCR
 642 0436 E5D5     		bpl	.L66
 643              		.loc 1 396 0
 644 0438 FFF7FEFF 		bl	timeout_get_brake_current
 645              	.LVL45:
 646 043c F0B2     		uxtb	r0, r6
 647 043e FFF7FEFF 		bl	comm_can_set_current_brake
 648              	.LVL46:
 649 0442 DFE7     		b	.L66
 650              	.LVL47:
 651              	.L44:
 652              	.LBE97:
 653              	.LBE91:
 654              	.LBE90:
 655              		.loc 1 342 0
 656 0444 9DED020A 		vldr.32	s0, [sp, #8]
 657 0448 DFED837A 		vldr.32	s15, .L218+4
 658 044c B0EEC07A 		vabs.f32	s14, s0
 659 0450 B4EEE77A 		vcmpe.f32	s14, s15
 660 0454 F1EE10FA 		vmrs	APSR_nzcv, FPSCR
 661 0458 00F10E82 		bmi	.L126
 662 045c DFF800A2 		ldr	r10, .L218+12
 663              	.L51:
 664              		.loc 1 346 0
 665 0460 9AED007A 		vldr.32	s14, [r10]
 666 0464 DFED7B7A 		vldr.32	s15, .L218
 667 0468 B4EEE77A 		vcmpe.f32	s14, s15
 668 046c F1EE10FA 		vmrs	APSR_nzcv, FPSCR
 669 0470 40F1CB81 		bpl	.L53
 670              		.loc 1 346 0 is_stmt 0 discriminator 1
 671 0474 627F     		ldrb	r2, [r4, #29]	@ zero_extendqisi2
 672 0476 002A     		cmp	r2, #0
 673 0478 00F0C781 		beq	.L53
 674              		.loc 1 299 0 is_stmt 1
 675 047c 0026     		movs	r6, #0
 676              	.LVL48:
 677              		.loc 1 296 0
 678 047e B146     		mov	r9, r6
 679              	.LVL49:
 680              		.loc 1 295 0
 681 0480 3546     		mov	r5, r6
 682              	.LVL50:
 683              		.loc 1 294 0
 684 0482 DFED79AA 		vldr.32	s21, .L218+20
ARM GAS  /var/folders/sv/kgmgr77579zbf78p2zlhkdfr0000gn/T//cc0OGAIz.s 			page 13


 685 0486 8FE7     		b	.L46
 686              	.LVL51:
 687              	.L43:
 688              		.loc 1 323 0
 689 0488 DDED027A 		vldr.32	s15, [sp, #8]
 690              		.loc 1 330 0
 691 048c 9FED727A 		vldr.32	s14, .L218+4
 692              		.loc 1 323 0
 693 0490 F5EEC07A 		vcmpe.f32	s15, #0
 694 0494 F1EE10FA 		vmrs	APSR_nzcv, FPSCR
 695              		.loc 1 330 0
 696 0498 F4EEC77A 		vcmpe.f32	s15, s14
 697              		.loc 1 326 0
 698 049c B9BF     		ittee	lt
 699 049e F0EEE7AA 		vabslt.f32	s21, s15
 700              	.LVL52:
 701              		.loc 1 327 0
 702 04a2 4FF00109 		movlt	r9, #1
 703              	.LVL53:
 704              		.loc 1 324 0
 705 04a6 F0EE67AA 		vmovge.f32	s21, s15
 706              	.LVL54:
 707              		.loc 1 296 0
 708 04aa 4FF00009 		movge	r9, #0
 709              	.LVL55:
 710              		.loc 1 330 0
 711 04ae F1EE10FA 		vmrs	APSR_nzcv, FPSCR
 712 04b2 00F1F481 		bmi	.L125
 713              		.loc 1 334 0
 714 04b6 2278     		ldrb	r2, [r4]	@ zero_extendqisi2
 715 04b8 DFF8A4A1 		ldr	r10, .L218+12
 716 04bc 042A     		cmp	r2, #4
 717 04be 00F00482 		beq	.L209
 718              	.L111:
 719              		.loc 1 299 0
 720 04c2 0026     		movs	r6, #0
 721              	.LVL56:
 722              		.loc 1 322 0
 723 04c4 0125     		movs	r5, #1
 724              	.LVL57:
 725 04c6 6FE7     		b	.L46
 726              	.LVL58:
 727              	.L41:
 728              		.loc 1 307 0
 729 04c8 DDED02AA 		vldr.32	s21, [sp, #8]
 730              	.LVL59:
 731              		.loc 1 313 0
 732 04cc DFED627A 		vldr.32	s15, .L218+4
 733 04d0 B0EEEA7A 		vabs.f32	s14, s21
 734 04d4 B4EEE77A 		vcmpe.f32	s14, s15
 735 04d8 F1EE10FA 		vmrs	APSR_nzcv, FPSCR
 736 04dc 40F1C681 		bpl	.L197
 737              		.loc 1 314 0
 738 04e0 07EE905A 		vmov	s15, r5	@ int
 739 04e4 9FED5D7A 		vldr.32	s14, .L218+8
 740 04e8 DFF874A1 		ldr	r10, .L218+12
 741 04ec F8EEE77A 		vcvt.f32.s32	s15, s15
ARM GAS  /var/folders/sv/kgmgr77579zbf78p2zlhkdfr0000gn/T//cc0OGAIz.s 			page 14


 742 04f0 DAED006A 		vldr.32	s13, [r10]
 743 04f4 27EE877A 		vmul.f32	s14, s15, s14
 744              		.loc 1 299 0
 745 04f8 0026     		movs	r6, #0
 746              	.LVL60:
 747              		.loc 1 314 0
 748 04fa C7EE087A 		vdiv.f32	s15, s14, s16
 749              		.loc 1 296 0
 750 04fe B146     		mov	r9, r6
 751              	.LVL61:
 752              		.loc 1 306 0
 753 0500 0125     		movs	r5, #1
 754              	.LVL62:
 755              		.loc 1 314 0
 756 0502 77EEA67A 		vadd.f32	s15, s15, s13
 757 0506 CAED007A 		vstr.32	s15, [r10]
 758 050a 4DE7     		b	.L46
 759              	.LVL63:
 760              	.L11:
 761              		.loc 1 165 0
 762 050c D4ED020A 		vldr.32	s1, [r4, #8]
 763 0510 DFED551A 		vldr.32	s3, .L218+20
 764 0514 94ED031A 		vldr.32	s2, [r4, #12]
 765 0518 B7EE002A 		vmov.f32	s4, #1.0e+0
 766 051c FFF7FEFF 		bl	utils_map
 767              	.LVL64:
 768 0520 8DED020A 		vstr.32	s0, [sp, #8]
 769              		.loc 1 166 0
 770 0524 01E6     		b	.L14
 771              	.LVL65:
 772              	.L62:
 773              		.loc 1 413 0
 774 0526 DFF858A1 		ldr	r10, .L218+44
 775              		.loc 1 405 0
 776 052a FFF7FEFF 		bl	timeout_reset
 777              	.LVL66:
 778              		.loc 1 413 0
 779 052e DAF80020 		ldr	r2, [r10]
 780 0532 0192     		str	r2, [sp, #4]
 781 0534 511C     		adds	r1, r2, #1
 782 0536 CAF80010 		str	r1, [r10]
 783 053a FFF7FEFF 		bl	mc_interface_get_rpm
 784              	.LVL67:
 785              		.loc 1 414 0
 786 053e DAF80010 		ldr	r1, [r10]
 787              		.loc 1 413 0
 788 0542 4A48     		ldr	r0, .L218+24
 789 0544 019A     		ldr	r2, [sp, #4]
 790 0546 494B     		ldr	r3, .L218+24
 791              		.loc 1 418 0
 792 0548 DFED477A 		vldr.32	s15, .L218+20
 793              		.loc 1 413 0
 794 054c 00EB8202 		add	r2, r0, r2, lsl #2
 795              		.loc 1 414 0
 796 0550 0729     		cmp	r1, #7
 797              		.loc 1 413 0
 798 0552 82ED000A 		vstr.32	s0, [r2]
ARM GAS  /var/folders/sv/kgmgr77579zbf78p2zlhkdfr0000gn/T//cc0OGAIz.s 			page 15


 799              		.loc 1 415 0
 800 0556 C4BF     		itt	gt
 801 0558 0022     		movgt	r2, #0
 802 055a CAF80020 		strgt	r2, [r10]
 803              	.LVL68:
 804 055e 03F12002 		add	r2, r3, #32
 805              	.LVL69:
 806              	.L71:
 807              	.LBB98:
 808              		.loc 1 420 0 discriminator 3
 809 0562 B3EC017A 		vldmia.32	r3!, {s14}
 810              		.loc 1 419 0 discriminator 3
 811 0566 9A42     		cmp	r2, r3
 812              		.loc 1 420 0 discriminator 3
 813 0568 77EE877A 		vadd.f32	s15, s15, s14
 814              	.LVL70:
 815              		.loc 1 419 0 discriminator 3
 816 056c F9D1     		bne	.L71
 817              	.LVL71:
 818              	.LBE98:
 819              		.loc 1 424 0
 820 056e 002D     		cmp	r5, #0
 821 0570 00F08880 		beq	.L72
 822              		.loc 1 424 0 is_stmt 0 discriminator 1
 823 0574 002F     		cmp	r7, #0
 824 0576 00F08580 		beq	.L72
 825              		.loc 1 424 0 discriminator 2
 826 057a 9DED027A 		vldr.32	s14, [sp, #8]
 827 057e DFED366A 		vldr.32	s13, .L218+4
 828 0582 B0EEC77A 		vabs.f32	s14, s14
 829 0586 B4EEE67A 		vcmpe.f32	s14, s13
 830 058a F1EE10FA 		vmrs	APSR_nzcv, FPSCR
 831 058e 79D5     		bpl	.L72
 832              	.LBB99:
 833              		.loc 1 427 0 is_stmt 1
 834 0590 374B     		ldr	r3, .L218+28
 835 0592 1A78     		ldrb	r2, [r3]	@ zero_extendqisi2
 836 0594 002A     		cmp	r2, #0
 837 0596 00F0D581 		beq	.L74
 838 059a 364B     		ldr	r3, .L218+32
 839 059c 93ED000A 		vldr.32	s0, [r3]
 840              	.LVL72:
 841              	.L75:
 842              		.loc 1 432 0
 843 05a0 FFF7FEFF 		bl	mc_interface_set_pid_speed
 844              	.LVL73:
 845              		.loc 1 435 0
 846 05a4 94F83830 		ldrb	r3, [r4, #56]	@ zero_extendqisi2
 847 05a8 002B     		cmp	r3, #0
 848 05aa 3FF451AD 		beq	.L4
 849              	.LBB100:
 850              		.loc 1 436 0
 851 05ae FFF7FEFF 		bl	mc_interface_get_tot_current_directional_filtered
 852              	.LVL74:
 853              	.LBB101:
 854              		.loc 1 438 0
 855 05b2 0025     		movs	r5, #0
ARM GAS  /var/folders/sv/kgmgr77579zbf78p2zlhkdfr0000gn/T//cc0OGAIz.s 			page 16


 856              	.LVL75:
 857              	.LBE101:
 858              		.loc 1 436 0
 859 05b4 B0EE40AA 		vmov.f32	s20, s0
 860              	.LVL76:
 861 05b8 02E0     		b	.L78
 862              	.LVL77:
 863              	.L76:
 864              	.LBB108:
 865              		.loc 1 438 0 discriminator 2
 866 05ba 0A2D     		cmp	r5, #10
 867 05bc 3FF448AD 		beq	.L4
 868              	.LVL78:
 869              	.L78:
 870              	.LBB102:
 871              		.loc 1 439 0
 872 05c0 2846     		mov	r0, r5
 873 05c2 FFF7FEFF 		bl	comm_can_get_status_msg_index
 874              	.LVL79:
 875              		.loc 1 441 0
 876 05c6 0268     		ldr	r2, [r0]
 877 05c8 002A     		cmp	r2, #0
 878              	.LBE102:
 879              		.loc 1 438 0
 880 05ca 05F10105 		add	r5, r5, #1
 881              	.LVL80:
 882              	.LBB107:
 883              		.loc 1 441 0
 884 05ce F4DB     		blt	.L76
 885              		.loc 1 441 0 is_stmt 0 discriminator 1
 886 05d0 4168     		ldr	r1, [r0, #4]
 887              	.LBB103:
 888              	.LBB104:
 889              	.LBB105:
 890              	.LBB106:
 891              		.loc 3 231 0 is_stmt 1 discriminator 1
 892 05d2 D8F82830 		ldr	r3, [r8, #40]
 893              	.LVL81:
 894              	.LBE106:
 895              	.LBE105:
 896              	.LBE104:
 897              	.LBE103:
 898              		.loc 1 441 0 discriminator 1
 899 05d6 5B1A     		subs	r3, r3, r1
 900 05d8 07EE903A 		vmov	s15, r3	@ int
 901 05dc F8EE677A 		vcvt.f32.u32	s15, s15
 902 05e0 87EE887A 		vdiv.f32	s14, s15, s16
 903 05e4 B4EEE87A 		vcmpe.f32	s14, s17
 904 05e8 F1EE10FA 		vmrs	APSR_nzcv, FPSCR
 905 05ec E5D5     		bpl	.L76
 906              		.loc 1 442 0
 907 05ee D0B2     		uxtb	r0, r2
 908              	.LVL82:
 909 05f0 B0EE4A0A 		vmov.f32	s0, s20
 910 05f4 FFF7FEFF 		bl	comm_can_set_current
 911              	.LVL83:
 912 05f8 DFE7     		b	.L76
ARM GAS  /var/folders/sv/kgmgr77579zbf78p2zlhkdfr0000gn/T//cc0OGAIz.s 			page 17


 913              	.LVL84:
 914              	.L22:
 915              	.LBE107:
 916              	.LBE108:
 917              	.LBE100:
 918              	.LBE99:
 919              		.loc 1 232 0
 920 05fa 2178     		ldrb	r1, [r4]	@ zero_extendqisi2
 921 05fc 1E4B     		ldr	r3, .L218+36
 922 05fe 0329     		cmp	r1, #3
 923 0600 00F0B280 		beq	.L27
 924              		.loc 1 233 0 discriminator 1
 925 0604 1978     		ldrb	r1, [r3]	@ zero_extendqisi2
 926              		.loc 1 232 0 discriminator 1
 927 0606 0629     		cmp	r1, #6
 928 0608 00F0AE80 		beq	.L27
 929              		.loc 1 234 0
 930 060c 1978     		ldrb	r1, [r3]	@ zero_extendqisi2
 931              		.loc 1 233 0
 932 060e 0A29     		cmp	r1, #10
 933 0610 00F0AA80 		beq	.L27
 934              		.loc 1 240 0
 935 0614 1949     		ldr	r1, .L218+40
 936 0616 0F69     		ldr	r7, [r1, #16]
 937              		.loc 1 241 0
 938 0618 9B7F     		ldrb	r3, [r3, #30]	@ zero_extendqisi2
 939              		.loc 1 240 0
 940 061a 7F09     		lsrs	r7, r7, #5
 941              	.LVL85:
 942              		.loc 1 241 0
 943 061c 03F0FF06 		and	r6, r3, #255
 944              		.loc 1 242 0
 945 0620 07F00107 		and	r7, r7, #1
 946              	.LVL86:
 947              		.loc 1 241 0
 948 0624 002B     		cmp	r3, #0
 949 0626 40F05F81 		bne	.L30
 950              		.loc 1 240 0
 951 062a 87F00107 		eor	r7, r7, #1
 952              	.LVL87:
 953 062e F5E5     		b	.L26
 954              	.LVL88:
 955              	.L20:
 956              		.loc 1 213 0
 957 0630 9DED037A 		vldr.32	s14, [sp, #12]
 958 0634 F7EE007A 		vmov.f32	s15, #1.0e+0
 959 0638 77EEC77A 		vsub.f32	s15, s15, s14
 960 063c CDED037A 		vstr.32	s15, [sp, #12]
 961 0640 D0E5     		b	.L21
 962              	.L15:
 963              		.loc 1 174 0
 964 0642 9DED027A 		vldr.32	s14, [sp, #8]
 965 0646 F7EE007A 		vmov.f32	s15, #1.0e+0
 966 064a 77EEC77A 		vsub.f32	s15, s15, s14
 967 064e CDED027A 		vstr.32	s15, [sp, #8]
 968 0652 78E5     		b	.L16
 969              	.L219:
ARM GAS  /var/folders/sv/kgmgr77579zbf78p2zlhkdfr0000gn/T//cc0OGAIz.s 			page 18


 970              		.align	2
 971              	.L218:
 972 0654 0000FA43 		.word	1140457472
 973 0658 6F12833A 		.word	981668463
 974 065c 00007A44 		.word	1148846080
 975 0660 00000000 		.word	.LANCHOR4
 976 0664 00000000 		.word	.LANCHOR15
 977 0668 00000000 		.word	0
 978 066c 00000000 		.word	.LANCHOR17
 979 0670 00000000 		.word	.LANCHOR18
 980 0674 00000000 		.word	.LANCHOR19
 981 0678 00000000 		.word	.LANCHOR2
 982 067c 00040240 		.word	1073873920
 983 0680 00000000 		.word	.LANCHOR16
 984              	.LVL89:
 985              	.L72:
 986              		.loc 1 450 0
 987 0684 B64B     		ldr	r3, .L220
 988 0686 0027     		movs	r7, #0
 989              	.LVL90:
 990 0688 1F70     		strb	r7, [r3]
 991              		.loc 1 453 0
 992 068a FFF7FEFF 		bl	mc_interface_get_rpm
 993              	.LVL91:
 994              		.loc 1 455 0
 995 068e 94F83830 		ldrb	r3, [r4, #56]	@ zero_extendqisi2
 996              		.loc 1 453 0
 997 0692 B0EE40BA 		vmov.f32	s22, s0
 998              	.LVL92:
 999 0696 B0EE40AA 		vmov.f32	s20, s0
 1000              		.loc 1 455 0
 1001 069a 2BB3     		cbz	r3, .L79
 1002              	.LVL93:
 1003              	.L82:
 1004              	.LBB109:
 1005              	.LBB110:
 1006              		.loc 1 457 0
 1007 069c 3846     		mov	r0, r7
 1008 069e FFF7FEFF 		bl	comm_can_get_status_msg_index
 1009              	.LVL94:
 1010              		.loc 1 459 0
 1011 06a2 0368     		ldr	r3, [r0]
 1012 06a4 002B     		cmp	r3, #0
 1013              	.LBE110:
 1014              		.loc 1 456 0
 1015 06a6 07F10107 		add	r7, r7, #1
 1016              	.LVL95:
 1017              	.LBB117:
 1018              		.loc 1 459 0
 1019 06aa 1BDB     		blt	.L80
 1020              	.LBB111:
 1021              	.LBB112:
 1022              	.LBB113:
 1023              	.LBB114:
 1024              		.loc 3 231 0 discriminator 1
 1025 06ac D8F82830 		ldr	r3, [r8, #40]
 1026              	.LVL96:
ARM GAS  /var/folders/sv/kgmgr77579zbf78p2zlhkdfr0000gn/T//cc0OGAIz.s 			page 19


 1027              	.LBE114:
 1028              	.LBE113:
 1029              	.LBE112:
 1030              	.LBE111:
 1031              		.loc 1 459 0 discriminator 1
 1032 06b0 4268     		ldr	r2, [r0, #4]
 1033 06b2 9B1A     		subs	r3, r3, r2
 1034 06b4 07EE903A 		vmov	s15, r3	@ int
 1035 06b8 F8EE677A 		vcvt.f32.u32	s15, s15
 1036              	.LBB115:
 1037              		.loc 1 462 0 discriminator 1
 1038 06bc F0EECA6A 		vabs.f32	s13, s20
 1039              	.LBE115:
 1040              		.loc 1 459 0 discriminator 1
 1041 06c0 87EE887A 		vdiv.f32	s14, s15, s16
 1042 06c4 B4EEE87A 		vcmpe.f32	s14, s17
 1043 06c8 F1EE10FA 		vmrs	APSR_nzcv, FPSCR
 1044 06cc 0AD5     		bpl	.L80
 1045              	.LBB116:
 1046              		.loc 1 460 0
 1047 06ce D0ED027A 		vldr.32	s15, [r0, #8]
 1048              	.LVL97:
 1049              		.loc 1 462 0
 1050 06d2 B0EEE77A 		vabs.f32	s14, s15
 1051              		.loc 1 463 0
 1052 06d6 B4EE667A 		vcmp.f32	s14, s13
 1053 06da F1EE10FA 		vmrs	APSR_nzcv, FPSCR
 1054 06de 48BF     		it	mi
 1055 06e0 B0EE67AA 		vmovmi.f32	s20, s15
 1056              	.LVL98:
 1057              	.L80:
 1058              	.LBE116:
 1059              	.LBE117:
 1060              		.loc 1 456 0 discriminator 2
 1061 06e4 0A2F     		cmp	r7, #10
 1062 06e6 D9D1     		bne	.L82
 1063              	.LVL99:
 1064              	.L79:
 1065              	.LBE109:
 1066              		.loc 1 470 0
 1067 06e8 16B1     		cbz	r6, .L86
 1068              		.loc 1 470 0 is_stmt 0 discriminator 1
 1069 06ea 94F83830 		ldrb	r3, [r4, #56]	@ zero_extendqisi2
 1070 06ee B3B9     		cbnz	r3, .L210
 1071              	.LVL100:
 1072              	.L86:
 1073              		.loc 1 482 0 is_stmt 1
 1074 06f0 002D     		cmp	r5, #0
 1075 06f2 3FF4ADAC 		beq	.L4
 1076              		.loc 1 483 0
 1077 06f6 B9F1000F 		cmp	r9, #0
 1078 06fa 40F0F780 		bne	.L211
 1079              	.LVL101:
 1080              	.LBB118:
 1081              		.loc 1 497 0
 1082 06fe F5EEC0AA 		vcmpe.f32	s21, #0
 1083 0702 F1EE10FA 		vmrs	APSR_nzcv, FPSCR
ARM GAS  /var/folders/sv/kgmgr77579zbf78p2zlhkdfr0000gn/T//cc0OGAIz.s 			page 20


 1084              		.loc 1 506 0
 1085 0706 94F83830 		ldrb	r3, [r4, #56]	@ zero_extendqisi2
 1086              		.loc 1 497 0
 1087 070a 00F13D81 		bmi	.L212
 1088              		.loc 1 506 0
 1089 070e 002B     		cmp	r3, #0
 1090 0710 40F09A81 		bne	.L213
 1091              	.LVL102:
 1092              	.L105:
 1093              		.loc 1 538 0
 1094 0714 B0EE6A0A 		vmov.f32	s0, s21
 1095 0718 FFF7FEFF 		bl	mc_interface_set_current_rel
 1096              	.LVL103:
 1097 071c 98E4     		b	.L4
 1098              	.LVL104:
 1099              	.L210:
 1100              	.LBE118:
 1101              	.LBB128:
 1102              		.loc 1 471 0
 1103 071e FFF7FEFF 		bl	mc_interface_get_duty_cycle_now
 1104              	.LVL105:
 1105              	.LBB82:
 1106              		.loc 1 473 0
 1107 0722 0026     		movs	r6, #0
 1108              	.LVL106:
 1109              	.LBE82:
 1110              		.loc 1 471 0
 1111 0724 F0EE40BA 		vmov.f32	s23, s0
 1112              	.LVL107:
 1113 0728 01E0     		b	.L89
 1114              	.LVL108:
 1115              	.L87:
 1116              	.LBB83:
 1117              		.loc 1 473 0 discriminator 2
 1118 072a 0A2E     		cmp	r6, #10
 1119 072c E0D0     		beq	.L86
 1120              	.LVL109:
 1121              	.L89:
 1122              	.LBB80:
 1123              		.loc 1 474 0
 1124 072e 3046     		mov	r0, r6
 1125 0730 FFF7FEFF 		bl	comm_can_get_status_msg_index
 1126              	.LVL110:
 1127              		.loc 1 476 0
 1128 0734 0268     		ldr	r2, [r0]
 1129 0736 002A     		cmp	r2, #0
 1130              	.LBE80:
 1131              		.loc 1 473 0
 1132 0738 06F10106 		add	r6, r6, #1
 1133              	.LVL111:
 1134              	.LBB81:
 1135              		.loc 1 476 0
 1136 073c F5DB     		blt	.L87
 1137              		.loc 1 476 0 is_stmt 0 discriminator 1
 1138 073e 4168     		ldr	r1, [r0, #4]
 1139              	.LBB76:
 1140              	.LBB77:
ARM GAS  /var/folders/sv/kgmgr77579zbf78p2zlhkdfr0000gn/T//cc0OGAIz.s 			page 21


 1141              	.LBB78:
 1142              	.LBB79:
 1143              		.loc 3 231 0 is_stmt 1 discriminator 1
 1144 0740 D8F82830 		ldr	r3, [r8, #40]
 1145              	.LVL112:
 1146              	.LBE79:
 1147              	.LBE78:
 1148              	.LBE77:
 1149              	.LBE76:
 1150              		.loc 1 476 0 discriminator 1
 1151 0744 5B1A     		subs	r3, r3, r1
 1152 0746 07EE903A 		vmov	s15, r3	@ int
 1153 074a F8EE677A 		vcvt.f32.u32	s15, s15
 1154 074e 87EE887A 		vdiv.f32	s14, s15, s16
 1155 0752 B4EEE87A 		vcmpe.f32	s14, s17
 1156 0756 F1EE10FA 		vmrs	APSR_nzcv, FPSCR
 1157 075a E6D5     		bpl	.L87
 1158              		.loc 1 477 0
 1159 075c D0B2     		uxtb	r0, r2
 1160              	.LVL113:
 1161 075e B0EE6B0A 		vmov.f32	s0, s23
 1162 0762 FFF7FEFF 		bl	comm_can_set_duty
 1163              	.LVL114:
 1164 0766 E0E7     		b	.L87
 1165              	.LVL115:
 1166              	.L27:
 1167              	.LBE81:
 1168              	.LBE83:
 1169              	.LBE128:
 1170              		.loc 1 235 0
 1171 0768 7E4B     		ldr	r3, .L220+4
 1172 076a 1E69     		ldr	r6, [r3, #16]
 1173              		.loc 1 236 0
 1174 076c E37F     		ldrb	r3, [r4, #31]	@ zero_extendqisi2
 1175              		.loc 1 235 0
 1176 076e 7609     		lsrs	r6, r6, #5
 1177              	.LVL116:
 1178              		.loc 1 236 0
 1179 0770 03F0FF07 		and	r7, r3, #255
 1180              		.loc 1 237 0
 1181 0774 06F00106 		and	r6, r6, #1
 1182              	.LVL117:
 1183              		.loc 1 236 0
 1184 0778 002B     		cmp	r3, #0
 1185 077a 3FF44DAD 		beq	.L202
 1186              	.LVL118:
 1187              		.loc 1 219 0
 1188 077e 0027     		movs	r7, #0
 1189 0780 4CE5     		b	.L26
 1190              	.LVL119:
 1191              	.L208:
 1192              	.LBB129:
 1193              		.loc 1 288 0
 1194 0782 DFF8F891 		ldr	r9, .L220+28
 1195              	.LBB130:
 1196              	.LBB131:
 1197              	.LBB132:
ARM GAS  /var/folders/sv/kgmgr77579zbf78p2zlhkdfr0000gn/T//cc0OGAIz.s 			page 22


 1198              	.LBB133:
 1199              		.loc 3 231 0
 1200 0786 D8F82820 		ldr	r2, [r8, #40]
 1201              	.LVL120:
 1202              	.LBE133:
 1203              	.LBE132:
 1204              	.LBE131:
 1205              	.LBE130:
 1206              		.loc 1 289 0
 1207 078a D9F80010 		ldr	r1, [r9]
 1208 078e 7648     		ldr	r0, .L220+8
 1209 0790 DFED760A 		vldr.32	s1, .L220+12
 1210 0794 511A     		subs	r1, r2, r1
 1211 0796 4FF47A72 		mov	r2, #1000
 1212              	.LVL121:
 1213 079a 02FB01F2 		mul	r2, r2, r1
 1214 079e 02F51C52 		add	r2, r2, #9984
 1215 07a2 0F32     		adds	r2, r2, #15
 1216 07a4 A0FB0232 		umull	r3, r2, r0, r2
 1217 07a8 520B     		lsrs	r2, r2, #13
 1218 07aa 07EE902A 		vmov	s15, r2	@ int
 1219 07ae 27EE207A 		vmul.f32	s14, s14, s1
 1220              	.LVL122:
 1221 07b2 F8EEE77A 		vcvt.f32.s32	s15, s15
 1222 07b6 6E48     		ldr	r0, .L220+16
 1223 07b8 C7EE870A 		vdiv.f32	s1, s15, s14
 1224 07bc FFF7FEFF 		bl	utils_step_towards
 1225              	.LVL123:
 1226              	.LBB134:
 1227              	.LBB135:
 1228              		.loc 3 231 0
 1229 07c0 D8F82820 		ldr	r2, [r8, #40]
 1230              	.LBE135:
 1231              	.LBE134:
 1232              		.loc 1 291 0
 1233 07c4 DAF80030 		ldr	r3, [r10]	@ float
 1234              		.loc 1 290 0
 1235 07c8 C9F80020 		str	r2, [r9]
 1236              		.loc 1 291 0
 1237 07cc 0293     		str	r3, [sp, #8]	@ float
 1238 07ce 6FE5     		b	.L38
 1239              	.L32:
 1240              	.LBE129:
 1241              		.loc 1 267 0
 1242 07d0 002E     		cmp	r6, #0
 1243 07d2 3FF43FAD 		beq	.L31
 1244              		.loc 1 268 0
 1245 07d6 DDED027A 		vldr.32	s15, [sp, #8]
 1246 07da F1EE677A 		vneg.f32	s15, s15
 1247 07de CDED027A 		vstr.32	s15, [sp, #8]
 1248 07e2 37E5     		b	.L31
 1249              	.LVL124:
 1250              	.L55:
 1251              	.LBB136:
 1252              		.loc 1 363 0
 1253 07e4 F5EEC0AA 		vcmpe.f32	s21, #0
 1254 07e8 F1EE10FA 		vmrs	APSR_nzcv, FPSCR
ARM GAS  /var/folders/sv/kgmgr77579zbf78p2zlhkdfr0000gn/T//cc0OGAIz.s 			page 23


 1255              		.loc 1 366 0
 1256 07ec B6BF     		itet	lt
 1257 07ee 99ED060A 		vldrlt.32	s0, [r9, #24]
 1258              		.loc 1 364 0
 1259 07f2 99ED070A 		vldrge.32	s0, [r9, #28]
 1260              		.loc 1 366 0
 1261 07f6 B0EEC00A 		vabslt.f32	s0, s0
 1262 07fa 20EE2A0A 		vmul.f32	s0, s0, s21
 1263              	.LVL125:
 1264              		.loc 1 369 0
 1265 07fe FFF7FEFF 		bl	mc_interface_set_pid_speed
 1266              	.LVL126:
 1267              		.loc 1 370 0
 1268 0802 0126     		movs	r6, #1
 1269              	.LVL127:
 1270 0804 DDED027A 		vldr.32	s15, [sp, #8]
 1271 0808 B1E5     		b	.L57
 1272              	.LVL128:
 1273              	.L53:
 1274              	.LBE136:
 1275              		.loc 1 347 0
 1276 080a D9ED161A 		vldr.32	s3, [r9, #88]
 1277 080e 99ED162A 		vldr.32	s4, [r9, #88]
 1278              		.loc 1 294 0
 1279 0812 DFED5CAA 		vldr.32	s21, .L220+36
 1280              		.loc 1 347 0
 1281 0816 F1EE611A 		vneg.f32	s3, s3
 1282 081a B7EE001A 		vmov.f32	s2, #1.0e+0
 1283 081e FFEE000A 		vmov.f32	s1, #-1.0e+0
 1284 0822 FFF7FEFF 		bl	utils_map
 1285              	.LVL129:
 1286              		.loc 1 296 0
 1287 0826 4FF00009 		mov	r9, #0
 1288              	.LVL130:
 1289              		.loc 1 347 0
 1290 082a FFF7FEFF 		bl	mc_interface_set_duty
 1291              	.LVL131:
 1292              		.loc 1 295 0
 1293 082e 4D46     		mov	r5, r9
 1294              	.LVL132:
 1295              		.loc 1 348 0
 1296 0830 0126     		movs	r6, #1
 1297              	.LVL133:
 1298 0832 B9E5     		b	.L46
 1299              	.LVL134:
 1300              	.L195:
 1301              		.loc 1 158 0
 1302 0834 D1ED040A 		vldr.32	s1, [r1, #16]
 1303 0838 91ED031A 		vldr.32	s2, [r1, #12]
 1304 083c B7EE002A 		vmov.f32	s4, #1.0e+0
 1305 0840 F6EE001A 		vmov.f32	s3, #5.0e-1
 1306 0844 FFF7FEFF 		bl	utils_map
 1307              	.LVL135:
 1308 0848 8DED020A 		vstr.32	s0, [sp, #8]
 1309 084c 6DE4     		b	.L14
 1310              	.LVL136:
 1311              	.L33:
ARM GAS  /var/folders/sv/kgmgr77579zbf78p2zlhkdfr0000gn/T//cc0OGAIz.s 			page 24


 1312              		.loc 1 254 0
 1313 084e DDED026A 		vldr.32	s13, [sp, #8]
 1314 0852 B0EE007A 		vmov.f32	s14, #2.0e+0
 1315 0856 FFEE007A 		vmov.f32	s15, #-1.0e+0
 1316 085a E6EE877A 		vfma.f32	s15, s13, s14
 1317 085e CDED027A 		vstr.32	s15, [sp, #8]
 1318              		.loc 1 255 0
 1319 0862 F7E4     		b	.L31
 1320              	.LVL137:
 1321              	.L199:
 1322              		.loc 1 296 0
 1323 0864 4FF00009 		mov	r9, #0
 1324              	.LVL138:
 1325              		.loc 1 295 0
 1326 0868 4D46     		mov	r5, r9
 1327              	.LVL139:
 1328 086a 9DE5     		b	.L46
 1329              	.LVL140:
 1330              	.L197:
 1331              		.loc 1 299 0
 1332 086c 0026     		movs	r6, #0
 1333              	.LVL141:
 1334              		.loc 1 296 0
 1335 086e B146     		mov	r9, r6
 1336              	.LVL142:
 1337              		.loc 1 306 0
 1338 0870 0125     		movs	r5, #1
 1339              	.LVL143:
 1340 0872 DFF80CA1 		ldr	r10, .L220+32
 1341 0876 97E5     		b	.L46
 1342              	.LVL144:
 1343              	.L126:
 1344              		.loc 1 343 0
 1345 0878 07EE905A 		vmov	s15, r5	@ int
 1346 087c 9FED3B7A 		vldr.32	s14, .L220+12
 1347 0880 DFF8FCA0 		ldr	r10, .L220+32
 1348 0884 F8EEE77A 		vcvt.f32.s32	s15, s15
 1349 0888 DAED006A 		vldr.32	s13, [r10]
 1350 088c 27EE877A 		vmul.f32	s14, s15, s14
 1351 0890 C7EE087A 		vdiv.f32	s15, s14, s16
 1352 0894 77EEA67A 		vadd.f32	s15, s15, s13
 1353 0898 CAED007A 		vstr.32	s15, [r10]
 1354 089c E0E5     		b	.L51
 1355              	.LVL145:
 1356              	.L125:
 1357              		.loc 1 331 0
 1358 089e 07EE905A 		vmov	s15, r5	@ int
 1359 08a2 9FED327A 		vldr.32	s14, .L220+12
 1360 08a6 DFF8D8A0 		ldr	r10, .L220+32
 1361 08aa F8EEE77A 		vcvt.f32.s32	s15, s15
 1362 08ae DAED006A 		vldr.32	s13, [r10]
 1363 08b2 27EE877A 		vmul.f32	s14, s15, s14
 1364 08b6 C7EE087A 		vdiv.f32	s15, s14, s16
 1365 08ba 77EEA67A 		vadd.f32	s15, s15, s13
 1366 08be CAED007A 		vstr.32	s15, [r10]
 1367              		.loc 1 334 0
 1368 08c2 2278     		ldrb	r2, [r4]	@ zero_extendqisi2
ARM GAS  /var/folders/sv/kgmgr77579zbf78p2zlhkdfr0000gn/T//cc0OGAIz.s 			page 25


 1369 08c4 042A     		cmp	r2, #4
 1370 08c6 7FF4FCAD 		bne	.L111
 1371              	.L209:
 1372              		.loc 1 334 0 is_stmt 0 discriminator 1
 1373 08ca 002E     		cmp	r6, #0
 1374 08cc 46D0     		beq	.L112
 1375              		.loc 1 335 0 is_stmt 1
 1376 08ce F1EE6AAA 		vneg.f32	s21, s21
 1377              	.LVL146:
 1378              		.loc 1 299 0
 1379 08d2 0026     		movs	r6, #0
 1380              	.LVL147:
 1381              		.loc 1 322 0
 1382 08d4 0125     		movs	r5, #1
 1383              	.LVL148:
 1384 08d6 67E5     		b	.L46
 1385              	.LVL149:
 1386              	.L207:
 1387              		.loc 1 114 0
 1388 08d8 264A     		ldr	r2, .L220+20
 1389 08da 0023     		movs	r3, #0
 1390 08dc 1370     		strb	r3, [r2]
 1391              	.LBE146:
 1392              		.loc 1 543 0
 1393 08de 05B0     		add	sp, sp, #20
 1394              		.cfi_remember_state
 1395              		.cfi_def_cfa_offset 68
 1396              		@ sp needed
 1397 08e0 BDEC088B 		vldm	sp!, {d8-d11}
 1398              		.cfi_restore 86
 1399              		.cfi_restore 87
 1400              		.cfi_restore 84
 1401              		.cfi_restore 85
 1402              		.cfi_restore 82
 1403              		.cfi_restore 83
 1404              		.cfi_restore 80
 1405              		.cfi_restore 81
 1406              		.cfi_def_cfa_offset 36
 1407 08e4 BDE8F08F 		pop	{r4, r5, r6, r7, r8, r9, r10, fp, pc}
 1408              	.LVL150:
 1409              	.L30:
 1410              		.cfi_restore_state
 1411              	.LBB147:
 1412              		.loc 1 220 0
 1413 08e8 1646     		mov	r6, r2
 1414 08ea 97E4     		b	.L26
 1415              	.LVL151:
 1416              	.L211:
 1417              		.loc 1 484 0
 1418 08ec B0EE6A0A 		vmov.f32	s0, s21
 1419 08f0 FFF7FEFF 		bl	mc_interface_set_brake_current_rel
 1420              	.LVL152:
 1421              	.LBB137:
 1422              		.loc 1 487 0
 1423 08f4 0025     		movs	r5, #0
 1424              	.LVL153:
 1425 08f6 02E0     		b	.L94
ARM GAS  /var/folders/sv/kgmgr77579zbf78p2zlhkdfr0000gn/T//cc0OGAIz.s 			page 26


 1426              	.LVL154:
 1427              	.L92:
 1428              		.loc 1 487 0 is_stmt 0 discriminator 2
 1429 08f8 0A2D     		cmp	r5, #10
 1430 08fa 3FF4A9AB 		beq	.L4
 1431              	.LVL155:
 1432              	.L94:
 1433              	.LBB138:
 1434              		.loc 1 488 0 is_stmt 1
 1435 08fe 2846     		mov	r0, r5
 1436 0900 FFF7FEFF 		bl	comm_can_get_status_msg_index
 1437              	.LVL156:
 1438              		.loc 1 490 0
 1439 0904 0268     		ldr	r2, [r0]
 1440 0906 002A     		cmp	r2, #0
 1441              	.LBE138:
 1442              		.loc 1 487 0
 1443 0908 05F10105 		add	r5, r5, #1
 1444              	.LVL157:
 1445              	.LBB143:
 1446              		.loc 1 490 0
 1447 090c F4DB     		blt	.L92
 1448              		.loc 1 490 0 is_stmt 0 discriminator 1
 1449 090e 4168     		ldr	r1, [r0, #4]
 1450              	.LBB139:
 1451              	.LBB140:
 1452              	.LBB141:
 1453              	.LBB142:
 1454              		.loc 3 231 0 is_stmt 1 discriminator 1
 1455 0910 D8F82830 		ldr	r3, [r8, #40]
 1456              	.LVL158:
 1457              	.LBE142:
 1458              	.LBE141:
 1459              	.LBE140:
 1460              	.LBE139:
 1461              		.loc 1 490 0 discriminator 1
 1462 0914 5B1A     		subs	r3, r3, r1
 1463 0916 07EE903A 		vmov	s15, r3	@ int
 1464 091a F8EE677A 		vcvt.f32.u32	s15, s15
 1465 091e 87EE887A 		vdiv.f32	s14, s15, s16
 1466 0922 B4EEE87A 		vcmpe.f32	s14, s17
 1467 0926 F1EE10FA 		vmrs	APSR_nzcv, FPSCR
 1468 092a E5D5     		bpl	.L92
 1469              		.loc 1 491 0
 1470 092c D0B2     		uxtb	r0, r2
 1471              	.LVL159:
 1472 092e B0EE6A0A 		vmov.f32	s0, s21
 1473 0932 FFF7FEFF 		bl	comm_can_set_current_brake_rel
 1474              	.LVL160:
 1475 0936 DFE7     		b	.L92
 1476              	.LVL161:
 1477              	.L2:
 1478              	.LBE143:
 1479              	.LBE137:
 1480              	.LBE147:
 1481              		.loc 1 98 0
 1482 0938 1146     		mov	r1, r2
ARM GAS  /var/folders/sv/kgmgr77579zbf78p2zlhkdfr0000gn/T//cc0OGAIz.s 			page 27


 1483 093a 0A48     		ldr	r0, .L220+4
 1484              	.LVL162:
 1485 093c FFF7FEFF 		bl	_pal_lld_setgroupmode
 1486              	.LVL163:
 1487 0940 FFF77ABB 		b	.L3
 1488              	.LVL164:
 1489              	.L74:
 1490              	.LBB148:
 1491              		.loc 1 422 0
 1492 0944 B4EE007A 		vmov.f32	s14, #1.25e-1
 1493 0948 67EE877A 		vmul.f32	s15, s15, s14
 1494              	.LVL165:
 1495              	.LBB144:
 1496              		.loc 1 429 0
 1497 094c 0A49     		ldr	r1, .L220+24
 1498              		.loc 1 428 0
 1499 094e 0122     		movs	r2, #1
 1500              		.loc 1 429 0
 1501 0950 B0EE670A 		vmov.f32	s0, s15
 1502 0954 C1ED007A 		vstr.32	s15, [r1]
 1503              		.loc 1 428 0
 1504 0958 1A70     		strb	r2, [r3]
 1505 095a 21E6     		b	.L75
 1506              	.LVL166:
 1507              	.L112:
 1508              	.LBE144:
 1509              		.loc 1 322 0
 1510 095c 0125     		movs	r5, #1
 1511              	.LVL167:
 1512 095e 23E5     		b	.L46
 1513              	.L221:
 1514              		.align	2
 1515              	.L220:
 1516 0960 00000000 		.word	.LANCHOR18
 1517 0964 00040240 		.word	1073873920
 1518 0968 5917B7D1 		.word	-776530087
 1519 096c 00007A44 		.word	1148846080
 1520 0970 00000000 		.word	.LANCHOR13
 1521 0974 00000000 		.word	.LANCHOR1
 1522 0978 00000000 		.word	.LANCHOR19
 1523 097c 00000000 		.word	.LANCHOR14
 1524 0980 00000000 		.word	.LANCHOR4
 1525 0984 00000000 		.word	0
 1526              	.LVL168:
 1527              	.L212:
 1528              	.LBB145:
 1529              		.loc 1 499 0
 1530 0988 F1EE6AAA 		vneg.f32	s21, s21
 1531              	.LVL169:
 1532              		.loc 1 501 0
 1533 098c B1EE4BBA 		vneg.f32	s22, s22
 1534              	.LVL170:
 1535              		.loc 1 502 0
 1536 0990 B1EE4AAA 		vneg.f32	s20, s20
 1537              	.LVL171:
 1538              		.loc 1 506 0
 1539 0994 002B     		cmp	r3, #0
ARM GAS  /var/folders/sv/kgmgr77579zbf78p2zlhkdfr0000gn/T//cc0OGAIz.s 			page 28


 1540 0996 59D0     		beq	.L118
 1541              		.loc 1 498 0
 1542 0998 0125     		movs	r5, #1
 1543              	.LVL172:
 1544              	.L107:
 1545              		.loc 1 498 0 is_stmt 0 discriminator 1
 1546 099a F0EE6ABA 		vmov.f32	s23, s21
 1547 099e 0026     		movs	r6, #0
 1548              	.LVL173:
 1549              	.L103:
 1550              	.LBB119:
 1551              	.LBB120:
 1552              		.loc 1 508 0 is_stmt 1
 1553 09a0 3046     		mov	r0, r6
 1554 09a2 FFF7FEFF 		bl	comm_can_get_status_msg_index
 1555              	.LVL174:
 1556              		.loc 1 510 0
 1557 09a6 0168     		ldr	r1, [r0]
 1558 09a8 0029     		cmp	r1, #0
 1559 09aa 30DB     		blt	.L98
 1560              	.LBB121:
 1561              	.LBB122:
 1562              	.LBB123:
 1563              	.LBB124:
 1564              		.loc 3 231 0 discriminator 1
 1565 09ac D8F82830 		ldr	r3, [r8, #40]
 1566              	.LVL175:
 1567              	.LBE124:
 1568              	.LBE123:
 1569              	.LBE122:
 1570              	.LBE121:
 1571              		.loc 1 510 0 discriminator 1
 1572 09b0 4268     		ldr	r2, [r0, #4]
 1573 09b2 9B1A     		subs	r3, r3, r2
 1574 09b4 07EE903A 		vmov	s15, r3	@ int
 1575 09b8 F8EE677A 		vcvt.f32.u32	s15, s15
 1576 09bc 87EE887A 		vdiv.f32	s14, s15, s16
 1577 09c0 B4EEE87A 		vcmpe.f32	s14, s17
 1578 09c4 F1EE10FA 		vmrs	APSR_nzcv, FPSCR
 1579 09c8 21D5     		bpl	.L98
 1580              		.loc 1 511 0
 1581 09ca 94F83930 		ldrb	r3, [r4, #57]	@ zero_extendqisi2
 1582              	.LBB125:
 1583              		.loc 1 518 0
 1584 09ce 1FED132A 		vldr.32	s4, .L220+36
 1585              	.LBE125:
 1586              		.loc 1 511 0
 1587 09d2 9BB1     		cbz	r3, .L100
 1588              	.LBB126:
 1589              		.loc 1 512 0
 1590 09d4 90ED020A 		vldr.32	s0, [r0, #8]
 1591              	.LVL176:
 1592              		.loc 1 513 0
 1593 09d8 0DB1     		cbz	r5, .L101
 1594              		.loc 1 514 0
 1595 09da B1EE400A 		vneg.f32	s0, s0
 1596              	.LVL177:
ARM GAS  /var/folders/sv/kgmgr77579zbf78p2zlhkdfr0000gn/T//cc0OGAIz.s 			page 29


 1597              	.L101:
 1598              		.loc 1 518 0
 1599 09de 94ED0F1A 		vldr.32	s2, [r4, #60]
 1600 09e2 0190     		str	r0, [sp, #4]
 1601 09e4 30EE4A0A 		vsub.f32	s0, s0, s20
 1602              	.LVL178:
 1603 09e8 F0EE420A 		vmov.f32	s1, s4
 1604 09ec F0EE6A1A 		vmov.f32	s3, s21
 1605 09f0 FFF7FEFF 		bl	utils_map
 1606              	.LVL179:
 1607 09f4 0198     		ldr	r0, [sp, #4]
 1608 09f6 0168     		ldr	r1, [r0]
 1609 09f8 F0EE40BA 		vmov.f32	s23, s0
 1610              	.LVL180:
 1611              	.L100:
 1612              	.LBE126:
 1613              		.loc 1 522 0
 1614 09fc B1EE6B0A 		vneg.f32	s0, s23
 1615 0a00 C8B2     		uxtb	r0, r1
 1616              		.loc 1 521 0
 1617 0a02 15B9     		cbnz	r5, .L203
 1618              		.loc 1 524 0
 1619 0a04 C8B2     		uxtb	r0, r1
 1620 0a06 B0EE6B0A 		vmov.f32	s0, s23
 1621              	.L203:
 1622 0a0a FFF7FEFF 		bl	comm_can_set_current_rel
 1623              	.LVL181:
 1624              	.L98:
 1625              	.LBE120:
 1626              		.loc 1 507 0 discriminator 2
 1627 0a0e 0136     		adds	r6, r6, #1
 1628              	.LVL182:
 1629 0a10 0A2E     		cmp	r6, #10
 1630 0a12 C5D1     		bne	.L103
 1631              	.LBE119:
 1632              		.loc 1 529 0
 1633 0a14 94F83930 		ldrb	r3, [r4, #57]	@ zero_extendqisi2
 1634 0a18 0F4A     		ldr	r2, .L222
 1635 0a1a 33B9     		cbnz	r3, .L214
 1636              	.L104:
 1637              		.loc 1 535 0
 1638 0a1c CDB1     		cbz	r5, .L215
 1639              	.LVL183:
 1640              	.L97:
 1641              		.loc 1 536 0
 1642 0a1e B1EE6B0A 		vneg.f32	s0, s23
 1643 0a22 FFF7FEFF 		bl	mc_interface_set_current_rel
 1644              	.LVL184:
 1645 0a26 FFF713BB 		b	.L4
 1646              	.LVL185:
 1647              	.L214:
 1648              	.LBB127:
 1649              		.loc 1 531 0
 1650 0a2a 9FED0C2A 		vldr.32	s4, .L222+4
 1651 0a2e 92ED0F1A 		vldr.32	s2, [r2, #60]
 1652 0a32 F0EE6A1A 		vmov.f32	s3, s21
 1653 0a36 3BEE4A0A 		vsub.f32	s0, s22, s20
ARM GAS  /var/folders/sv/kgmgr77579zbf78p2zlhkdfr0000gn/T//cc0OGAIz.s 			page 30


 1654              	.LVL186:
 1655 0a3a F0EE420A 		vmov.f32	s1, s4
 1656 0a3e FFF7FEFF 		bl	utils_map
 1657              	.LVL187:
 1658 0a42 F0EE40BA 		vmov.f32	s23, s0
 1659              	.LVL188:
 1660 0a46 E9E7     		b	.L104
 1661              	.LVL189:
 1662              	.L213:
 1663              	.LBE127:
 1664              		.loc 1 496 0
 1665 0a48 4D46     		mov	r5, r9
 1666              	.LVL190:
 1667 0a4a A6E7     		b	.L107
 1668              	.LVL191:
 1669              	.L118:
 1670              		.loc 1 500 0
 1671 0a4c F0EE6ABA 		vmov.f32	s23, s21
 1672 0a50 E5E7     		b	.L97
 1673              	.LVL192:
 1674              	.L215:
 1675 0a52 F0EE6BAA 		vmov.f32	s21, s23
 1676              	.LVL193:
 1677 0a56 5DE6     		b	.L105
 1678              	.L223:
 1679              		.align	2
 1680              	.L222:
 1681 0a58 00000000 		.word	.LANCHOR2
 1682 0a5c 00000000 		.word	0
 1683              	.LBE145:
 1684              	.LBE148:
 1685              		.cfi_endproc
 1686              	.LFE263:
 1687              		.size	adc_thread, .-adc_thread
 1688              		.section	.text.app_adc_configure,"ax",%progbits
 1689              		.align	2
 1690              		.p2align 4,,15
 1691              		.global	app_adc_configure
 1692              		.thumb
 1693              		.thumb_func
 1694              		.type	app_adc_configure, %function
 1695              	app_adc_configure:
 1696              	.LFB256:
 1697              		.loc 1 53 0
 1698              		.cfi_startproc
 1699              		@ args = 0, pretend = 0, frame = 0
 1700              		@ frame_needed = 0, uses_anonymous_args = 0
 1701              	.LVL194:
 1702 0000 08B5     		push	{r3, lr}
 1703              		.cfi_def_cfa_offset 8
 1704              		.cfi_offset 3, -8
 1705              		.cfi_offset 14, -4
 1706              		.loc 1 54 0
 1707 0002 0146     		mov	r1, r0
 1708 0004 4422     		movs	r2, #68
 1709 0006 0348     		ldr	r0, .L226
 1710              	.LVL195:
ARM GAS  /var/folders/sv/kgmgr77579zbf78p2zlhkdfr0000gn/T//cc0OGAIz.s 			page 31


 1711 0008 FFF7FEFF 		bl	memcpy
 1712              	.LVL196:
 1713              		.loc 1 55 0
 1714 000c 024B     		ldr	r3, .L226+4
 1715 000e 0022     		movs	r2, #0
 1716 0010 1A60     		str	r2, [r3]	@ float
 1717 0012 08BD     		pop	{r3, pc}
 1718              	.L227:
 1719              		.align	2
 1720              	.L226:
 1721 0014 00000000 		.word	.LANCHOR2
 1722 0018 00000000 		.word	.LANCHOR4
 1723              		.cfi_endproc
 1724              	.LFE256:
 1725              		.size	app_adc_configure, .-app_adc_configure
 1726              		.section	.text.app_adc_start,"ax",%progbits
 1727              		.align	2
 1728              		.p2align 4,,15
 1729              		.global	app_adc_start
 1730              		.thumb
 1731              		.thumb_func
 1732              		.type	app_adc_start, %function
 1733              	app_adc_start:
 1734              	.LFB257:
 1735              		.loc 1 58 0
 1736              		.cfi_startproc
 1737              		@ args = 0, pretend = 0, frame = 0
 1738              		@ frame_needed = 0, uses_anonymous_args = 0
 1739              	.LVL197:
 1740 0000 F0B5     		push	{r4, r5, r6, r7, lr}
 1741              		.cfi_def_cfa_offset 20
 1742              		.cfi_offset 4, -20
 1743              		.cfi_offset 5, -16
 1744              		.cfi_offset 6, -12
 1745              		.cfi_offset 7, -8
 1746              		.cfi_offset 14, -4
 1747 0002 83B0     		sub	sp, sp, #12
 1748              		.cfi_def_cfa_offset 32
 1749              		.loc 1 60 0
 1750 0004 0024     		movs	r4, #0
 1751              		.loc 1 59 0
 1752 0006 074E     		ldr	r6, .L230
 1753              		.loc 1 60 0
 1754 0008 074D     		ldr	r5, .L230+4
 1755              		.loc 1 61 0
 1756 000a 084B     		ldr	r3, .L230+8
 1757 000c 0094     		str	r4, [sp]
 1758              		.loc 1 58 0
 1759 000e 0746     		mov	r7, r0
 1760              		.loc 1 61 0
 1761 0010 4022     		movs	r2, #64
 1762 0012 4FF4B361 		mov	r1, #1432
 1763 0016 0648     		ldr	r0, .L230+12
 1764              	.LVL198:
 1765              		.loc 1 59 0
 1766 0018 3770     		strb	r7, [r6]
 1767              		.loc 1 60 0
ARM GAS  /var/folders/sv/kgmgr77579zbf78p2zlhkdfr0000gn/T//cc0OGAIz.s 			page 32


 1768 001a 2C70     		strb	r4, [r5]
 1769              		.loc 1 61 0
 1770 001c FFF7FEFF 		bl	chThdCreateStatic
 1771              	.LVL199:
 1772              		.loc 1 62 0
 1773 0020 03B0     		add	sp, sp, #12
 1774              		.cfi_def_cfa_offset 20
 1775              		@ sp needed
 1776 0022 F0BD     		pop	{r4, r5, r6, r7, pc}
 1777              	.L231:
 1778              		.align	2
 1779              	.L230:
 1780 0024 00000000 		.word	.LANCHOR0
 1781 0028 00000000 		.word	.LANCHOR3
 1782 002c 00000000 		.word	adc_thread
 1783 0030 00000000 		.word	.LANCHOR20
 1784              		.cfi_endproc
 1785              	.LFE257:
 1786              		.size	app_adc_start, .-app_adc_start
 1787              		.section	.text.app_adc_stop,"ax",%progbits
 1788              		.align	2
 1789              		.p2align 4,,15
 1790              		.global	app_adc_stop
 1791              		.thumb
 1792              		.thumb_func
 1793              		.type	app_adc_stop, %function
 1794              	app_adc_stop:
 1795              	.LFB258:
 1796              		.loc 1 64 0
 1797              		.cfi_startproc
 1798              		@ args = 0, pretend = 0, frame = 0
 1799              		@ frame_needed = 0, uses_anonymous_args = 0
 1800              		.loc 1 65 0
 1801 0000 064B     		ldr	r3, .L238
 1802              		.loc 1 64 0
 1803 0002 10B5     		push	{r4, lr}
 1804              		.cfi_def_cfa_offset 8
 1805              		.cfi_offset 4, -8
 1806              		.cfi_offset 14, -4
 1807              		.loc 1 65 0
 1808 0004 0122     		movs	r2, #1
 1809              		.loc 1 66 0
 1810 0006 064C     		ldr	r4, .L238+4
 1811              		.loc 1 65 0
 1812 0008 1A70     		strb	r2, [r3]
 1813              		.loc 1 66 0
 1814 000a 2378     		ldrb	r3, [r4]	@ zero_extendqisi2
 1815 000c 2BB1     		cbz	r3, .L232
 1816              	.L235:
 1817              		.loc 1 67 0
 1818 000e 0A20     		movs	r0, #10
 1819 0010 FFF7FEFF 		bl	chThdSleep
 1820              	.LVL200:
 1821              		.loc 1 66 0
 1822 0014 2378     		ldrb	r3, [r4]	@ zero_extendqisi2
 1823 0016 002B     		cmp	r3, #0
 1824 0018 F9D1     		bne	.L235
ARM GAS  /var/folders/sv/kgmgr77579zbf78p2zlhkdfr0000gn/T//cc0OGAIz.s 			page 33


 1825              	.L232:
 1826 001a 10BD     		pop	{r4, pc}
 1827              	.L239:
 1828              		.align	2
 1829              	.L238:
 1830 001c 00000000 		.word	.LANCHOR3
 1831 0020 00000000 		.word	.LANCHOR1
 1832              		.cfi_endproc
 1833              	.LFE258:
 1834              		.size	app_adc_stop, .-app_adc_stop
 1835              		.section	.text.app_adc_get_decoded_level,"ax",%progbits
 1836              		.align	2
 1837              		.p2align 4,,15
 1838              		.global	app_adc_get_decoded_level
 1839              		.thumb
 1840              		.thumb_func
 1841              		.type	app_adc_get_decoded_level, %function
 1842              	app_adc_get_decoded_level:
 1843              	.LFB259:
 1844              		.loc 1 71 0
 1845              		.cfi_startproc
 1846              		@ args = 0, pretend = 0, frame = 0
 1847              		@ frame_needed = 0, uses_anonymous_args = 0
 1848              		@ link register save eliminated.
 1849              		.loc 1 72 0
 1850 0000 014B     		ldr	r3, .L241
 1851 0002 93ED000A 		vldr.32	s0, [r3]
 1852              		.loc 1 73 0
 1853 0006 7047     		bx	lr
 1854              	.L242:
 1855              		.align	2
 1856              	.L241:
 1857 0008 00000000 		.word	.LANCHOR8
 1858              		.cfi_endproc
 1859              	.LFE259:
 1860              		.size	app_adc_get_decoded_level, .-app_adc_get_decoded_level
 1861              		.section	.text.app_adc_get_voltage,"ax",%progbits
 1862              		.align	2
 1863              		.p2align 4,,15
 1864              		.global	app_adc_get_voltage
 1865              		.thumb
 1866              		.thumb_func
 1867              		.type	app_adc_get_voltage, %function
 1868              	app_adc_get_voltage:
 1869              	.LFB260:
 1870              		.loc 1 75 0
 1871              		.cfi_startproc
 1872              		@ args = 0, pretend = 0, frame = 0
 1873              		@ frame_needed = 0, uses_anonymous_args = 0
 1874              		@ link register save eliminated.
 1875              		.loc 1 76 0
 1876 0000 014B     		ldr	r3, .L244
 1877 0002 93ED000A 		vldr.32	s0, [r3]
 1878              		.loc 1 77 0
 1879 0006 7047     		bx	lr
 1880              	.L245:
 1881              		.align	2
ARM GAS  /var/folders/sv/kgmgr77579zbf78p2zlhkdfr0000gn/T//cc0OGAIz.s 			page 34


 1882              	.L244:
 1883 0008 00000000 		.word	.LANCHOR5
 1884              		.cfi_endproc
 1885              	.LFE260:
 1886              		.size	app_adc_get_voltage, .-app_adc_get_voltage
 1887              		.section	.text.app_adc_get_decoded_level2,"ax",%progbits
 1888              		.align	2
 1889              		.p2align 4,,15
 1890              		.global	app_adc_get_decoded_level2
 1891              		.thumb
 1892              		.thumb_func
 1893              		.type	app_adc_get_decoded_level2, %function
 1894              	app_adc_get_decoded_level2:
 1895              	.LFB261:
 1896              		.loc 1 79 0
 1897              		.cfi_startproc
 1898              		@ args = 0, pretend = 0, frame = 0
 1899              		@ frame_needed = 0, uses_anonymous_args = 0
 1900              		@ link register save eliminated.
 1901              		.loc 1 80 0
 1902 0000 014B     		ldr	r3, .L247
 1903 0002 93ED000A 		vldr.32	s0, [r3]
 1904              		.loc 1 81 0
 1905 0006 7047     		bx	lr
 1906              	.L248:
 1907              		.align	2
 1908              	.L247:
 1909 0008 00000000 		.word	.LANCHOR12
 1910              		.cfi_endproc
 1911              	.LFE261:
 1912              		.size	app_adc_get_decoded_level2, .-app_adc_get_decoded_level2
 1913              		.section	.text.app_adc_get_voltage2,"ax",%progbits
 1914              		.align	2
 1915              		.p2align 4,,15
 1916              		.global	app_adc_get_voltage2
 1917              		.thumb
 1918              		.thumb_func
 1919              		.type	app_adc_get_voltage2, %function
 1920              	app_adc_get_voltage2:
 1921              	.LFB262:
 1922              		.loc 1 83 0
 1923              		.cfi_startproc
 1924              		@ args = 0, pretend = 0, frame = 0
 1925              		@ frame_needed = 0, uses_anonymous_args = 0
 1926              		@ link register save eliminated.
 1927              		.loc 1 84 0
 1928 0000 014B     		ldr	r3, .L250
 1929 0002 93ED000A 		vldr.32	s0, [r3]
 1930              		.loc 1 85 0
 1931 0006 7047     		bx	lr
 1932              	.L251:
 1933              		.align	2
 1934              	.L250:
 1935 0008 00000000 		.word	.LANCHOR9
 1936              		.cfi_endproc
 1937              	.LFE262:
 1938              		.size	app_adc_get_voltage2, .-app_adc_get_voltage2
ARM GAS  /var/folders/sv/kgmgr77579zbf78p2zlhkdfr0000gn/T//cc0OGAIz.s 			page 35


 1939              		.section	.bss.is_running,"aw",%nobits
 1940              		.set	.LANCHOR1,. + 0
 1941              		.type	is_running, %object
 1942              		.size	is_running, 1
 1943              	is_running:
 1944 0000 00       		.space	1
 1945              		.section	.bss.read_voltage2,"aw",%nobits
 1946              		.align	2
 1947              		.set	.LANCHOR9,. + 0
 1948              		.type	read_voltage2, %object
 1949              		.size	read_voltage2, 4
 1950              	read_voltage2:
 1951 0000 00000000 		.space	4
 1952              		.section	.bss.read_voltage,"aw",%nobits
 1953              		.align	2
 1954              		.set	.LANCHOR5,. + 0
 1955              		.type	read_voltage, %object
 1956              		.size	read_voltage, 4
 1957              	read_voltage:
 1958 0000 00000000 		.space	4
 1959              		.section	.bss.pulses_without_power_before.10332,"aw",%nobits
 1960              		.align	2
 1961              		.set	.LANCHOR15,. + 0
 1962              		.type	pulses_without_power_before.10332, %object
 1963              		.size	pulses_without_power_before.10332, 4
 1964              	pulses_without_power_before.10332:
 1965 0000 00000000 		.space	4
 1966              		.section	.bss.was_pid.10338,"aw",%nobits
 1967              		.set	.LANCHOR18,. + 0
 1968              		.type	was_pid.10338, %object
 1969              		.size	was_pid.10338, 1
 1970              	was_pid.10338:
 1971 0000 00       		.space	1
 1972              		.section	.bss.pwr_ramp.10306,"aw",%nobits
 1973              		.align	2
 1974              		.set	.LANCHOR13,. + 0
 1975              		.type	pwr_ramp.10306, %object
 1976              		.size	pwr_ramp.10306, 4
 1977              	pwr_ramp.10306:
 1978 0000 00000000 		.space	4
 1979              		.section	.bss.adc_thread_wa,"aw",%nobits
 1980              		.align	3
 1981              		.set	.LANCHOR20,. + 0
 1982              		.type	adc_thread_wa, %object
 1983              		.size	adc_thread_wa, 1432
 1984              	adc_thread_wa:
 1985 0000 00000000 		.space	1432
 1985      00000000 
 1985      00000000 
 1985      00000000 
 1985      00000000 
 1986              		.section	.bss.filter_buffer2.10285,"aw",%nobits
 1987              		.align	2
 1988              		.set	.LANCHOR11,. + 0
 1989              		.type	filter_buffer2.10285, %object
 1990              		.size	filter_buffer2.10285, 20
 1991              	filter_buffer2.10285:
ARM GAS  /var/folders/sv/kgmgr77579zbf78p2zlhkdfr0000gn/T//cc0OGAIz.s 			page 36


 1992 0000 00000000 		.space	20
 1992      00000000 
 1992      00000000 
 1992      00000000 
 1992      00000000 
 1993              		.section	.bss.ms_without_power,"aw",%nobits
 1994              		.align	2
 1995              		.set	.LANCHOR4,. + 0
 1996              		.type	ms_without_power, %object
 1997              		.size	ms_without_power, 4
 1998              	ms_without_power:
 1999 0000 00000000 		.space	4
 2000              		.section	.bss.filter_ptr.10340,"aw",%nobits
 2001              		.align	2
 2002              		.set	.LANCHOR16,. + 0
 2003              		.type	filter_ptr.10340, %object
 2004              		.size	filter_ptr.10340, 4
 2005              	filter_ptr.10340:
 2006 0000 00000000 		.space	4
 2007              		.section	.bss.decoded_level2,"aw",%nobits
 2008              		.align	2
 2009              		.set	.LANCHOR12,. + 0
 2010              		.type	decoded_level2, %object
 2011              		.size	decoded_level2, 4
 2012              	decoded_level2:
 2013 0000 00000000 		.space	4
 2014              		.section	.bss.filter_ptr.10273,"aw",%nobits
 2015              		.align	2
 2016              		.set	.LANCHOR6,. + 0
 2017              		.type	filter_ptr.10273, %object
 2018              		.size	filter_ptr.10273, 4
 2019              	filter_ptr.10273:
 2020 0000 00000000 		.space	4
 2021              		.section	.bss.pid_rpm.10346,"aw",%nobits
 2022              		.align	2
 2023              		.set	.LANCHOR19,. + 0
 2024              		.type	pid_rpm.10346, %object
 2025              		.size	pid_rpm.10346, 4
 2026              	pid_rpm.10346:
 2027 0000 00000000 		.space	4
 2028              		.section	.rodata.str1.4,"aMS",%progbits,1
 2029              		.align	2
 2030              	.LC0:
 2031 0000 4150505F 		.ascii	"APP_ADC\000"
 2031      41444300 
 2032              		.section	.bss.filter_buffer.10272,"aw",%nobits
 2033              		.align	2
 2034              		.set	.LANCHOR7,. + 0
 2035              		.type	filter_buffer.10272, %object
 2036              		.size	filter_buffer.10272, 20
 2037              	filter_buffer.10272:
 2038 0000 00000000 		.space	20
 2038      00000000 
 2038      00000000 
 2038      00000000 
 2038      00000000 
 2039              		.section	.bss.config,"aw",%nobits
ARM GAS  /var/folders/sv/kgmgr77579zbf78p2zlhkdfr0000gn/T//cc0OGAIz.s 			page 37


 2040              		.align	2
 2041              		.set	.LANCHOR2,. + 0
 2042              		.type	config, %object
 2043              		.size	config, 68
 2044              	config:
 2045 0000 00000000 		.space	68
 2045      00000000 
 2045      00000000 
 2045      00000000 
 2045      00000000 
 2046              		.section	.bss.last_time.10305,"aw",%nobits
 2047              		.align	2
 2048              		.set	.LANCHOR14,. + 0
 2049              		.type	last_time.10305, %object
 2050              		.size	last_time.10305, 4
 2051              	last_time.10305:
 2052 0000 00000000 		.space	4
 2053              		.section	.bss.use_rx_tx_as_buttons,"aw",%nobits
 2054              		.set	.LANCHOR0,. + 0
 2055              		.type	use_rx_tx_as_buttons, %object
 2056              		.size	use_rx_tx_as_buttons, 1
 2057              	use_rx_tx_as_buttons:
 2058 0000 00       		.space	1
 2059              		.section	.data.stop_now,"aw",%progbits
 2060              		.set	.LANCHOR3,. + 0
 2061              		.type	stop_now, %object
 2062              		.size	stop_now, 1
 2063              	stop_now:
 2064 0000 01       		.byte	1
 2065              		.section	.bss.filter_ptr2.10286,"aw",%nobits
 2066              		.align	2
 2067              		.set	.LANCHOR10,. + 0
 2068              		.type	filter_ptr2.10286, %object
 2069              		.size	filter_ptr2.10286, 4
 2070              	filter_ptr2.10286:
 2071 0000 00000000 		.space	4
 2072              		.section	.bss.decoded_level,"aw",%nobits
 2073              		.align	2
 2074              		.set	.LANCHOR8,. + 0
 2075              		.type	decoded_level, %object
 2076              		.size	decoded_level, 4
 2077              	decoded_level:
 2078 0000 00000000 		.space	4
 2079              		.section	.bss.filter_buffer.10339,"aw",%nobits
 2080              		.align	2
 2081              		.set	.LANCHOR17,. + 0
 2082              		.type	filter_buffer.10339, %object
 2083              		.size	filter_buffer.10339, 32
 2084              	filter_buffer.10339:
 2085 0000 00000000 		.space	32
 2085      00000000 
 2085      00000000 
 2085      00000000 
 2085      00000000 
 2086              		.text
 2087              	.Letext0:
 2088              		.file 4 "/usr/local/Cellar/gcc-arm-none-eabi/20160928/arm-none-eabi/include/machine/_default_types
ARM GAS  /var/folders/sv/kgmgr77579zbf78p2zlhkdfr0000gn/T//cc0OGAIz.s 			page 38


 2089              		.file 5 "/usr/local/Cellar/gcc-arm-none-eabi/20160928/arm-none-eabi/include/sys/_stdint.h"
 2090              		.file 6 "/usr/local/Cellar/gcc-arm-none-eabi/20160928/lib/gcc/arm-none-eabi/5.4.1/include/stddef.h
 2091              		.file 7 "ChibiOS_3.0.2/os/rt/ports/ARMCMx/compilers/GCC/chtypes.h"
 2092              		.file 8 "ChibiOS_3.0.2/os/rt/include/chsystypes.h"
 2093              		.file 9 "ChibiOS_3.0.2/os/rt/include/chschd.h"
 2094              		.file 10 "ChibiOS_3.0.2/os/rt/ports/ARMCMx/chcore.h"
 2095              		.file 11 "ChibiOS_3.0.2/os/rt/ports/ARMCMx/chcore_v7m.h"
 2096              		.file 12 "ChibiOS_3.0.2/os/rt/include/chtm.h"
 2097              		.file 13 "ChibiOS_3.0.2/os/rt/include/chsem.h"
 2098              		.file 14 "ChibiOS_3.0.2/os/rt/include/chmtx.h"
 2099              		.file 15 "./datatypes.h"
 2100              		.file 16 "ChibiOS_3.0.2/os/hal/ports/STM32/LLD/GPIOv2/pal_lld.h"
 2101              		.file 17 "ChibiOS_3.0.2/os/ext/CMSIS/include/core_cm4.h"
 2102              		.file 18 "./mc_interface.h"
 2103              		.file 19 "./comm_can.h"
 2104              		.file 20 "./timeout.h"
 2105              		.file 21 "./utils.h"
 2106              		.file 22 "ChibiOS_3.0.2/os/rt/include/chthreads.h"