ARM GAS  /var/folders/sv/kgmgr77579zbf78p2zlhkdfr0000gn/T//cczEpVXo.s 			page 1


   1              		.syntax unified
   2              		.cpu cortex-m4
   3              		.eabi_attribute 27, 1
   4              		.eabi_attribute 28, 1
   5              		.fpu fpv4-sp-d16
   6              		.eabi_attribute 20, 1
   7              		.eabi_attribute 21, 1
   8              		.eabi_attribute 23, 3
   9              		.eabi_attribute 24, 1
  10              		.eabi_attribute 25, 1
  11              		.eabi_attribute 26, 1
  12              		.eabi_attribute 30, 2
  13              		.eabi_attribute 34, 1
  14              		.eabi_attribute 18, 4
  15              		.thumb
  16              		.syntax unified
  17              		.file	"app_custom.c"
  18              		.text
  19              	.Ltext0:
  20              		.cfi_sections	.debug_frame
  21              		.section	.text.terminal_cmd_test,"ax",%progbits
  22              		.align	2
  23              		.p2align 4,,15
  24              		.thumb
  25              		.thumb_func
  26              		.type	terminal_cmd_test, %function
  27              	terminal_cmd_test:
  28              	.LFB260:
  29              		.file 1 "applications/app_test.c"
  30              		.loc 1 79 0
  31              		.cfi_startproc
  32              		@ args = 0, pretend = 0, frame = 0
  33              		@ frame_needed = 0, uses_anonymous_args = 0
  34              	.LVL0:
  35 0000 08B5     		push	{r3, lr}
  36              		.cfi_def_cfa_offset 8
  37              		.cfi_offset 3, -8
  38              		.cfi_offset 14, -4
  39              		.loc 1 83 0
  40 0002 0448     		ldr	r0, .L3
  41              	.LVL1:
  42 0004 FFF7FEFF 		bl	commands_printf
  43              	.LVL2:
  44              		.loc 1 84 0
  45 0008 0348     		ldr	r0, .L3+4
  46              		.loc 1 85 0
  47 000a BDE80840 		pop	{r3, lr}
  48              		.cfi_restore 14
  49              		.cfi_restore 3
  50              		.cfi_def_cfa_offset 0
  51              		.loc 1 84 0
  52 000e FFF7FEBF 		b	commands_printf
  53              	.LVL3:
  54              	.L4:
  55 0012 00BF     		.align	2
  56              	.L3:
  57 0014 00000000 		.word	.LC0
ARM GAS  /var/folders/sv/kgmgr77579zbf78p2zlhkdfr0000gn/T//cczEpVXo.s 			page 2


  58 0018 14000000 		.word	.LC1
  59              		.cfi_endproc
  60              	.LFE260:
  61              		.size	terminal_cmd_test, .-terminal_cmd_test
  62              		.global	__aeabi_f2d
  63              		.section	.text.test_thread,"ax",%progbits
  64              		.align	2
  65              		.p2align 4,,15
  66              		.thumb
  67              		.thumb_func
  68              		.type	test_thread, %function
  69              	test_thread:
  70              	.LFB259:
  71              		.loc 1 44 0
  72              		.cfi_startproc
  73              		@ args = 0, pretend = 0, frame = 0
  74              		@ frame_needed = 0, uses_anonymous_args = 0
  75              	.LVL4:
  76 0000 70B5     		push	{r4, r5, r6, lr}
  77              		.cfi_def_cfa_offset 16
  78              		.cfi_offset 4, -16
  79              		.cfi_offset 5, -12
  80              		.cfi_offset 6, -8
  81              		.cfi_offset 14, -4
  82              	.LBB41:
  83              	.LBB42:
  84              		.file 2 "ChibiOS_3.0.2/os/rt/include/chregistry.h"
  85              		.loc 2 135 0
  86 0002 174C     		ldr	r4, .L13
  87 0004 174A     		ldr	r2, .L13+4
  88 0006 A369     		ldr	r3, [r4, #24]
  89              	.LBE42:
  90              	.LBE41:
  91              		.loc 1 49 0
  92 0008 1748     		ldr	r0, .L13+8
  93              	.LVL5:
  94              	.LBB44:
  95              	.LBB43:
  96              		.loc 2 135 0
  97 000a 9A61     		str	r2, [r3, #24]
  98              	.LVL6:
  99              	.LBE43:
 100              	.LBE44:
 101              		.loc 1 49 0
 102 000c FFF7FEFF 		bl	commands_printf
 103              	.LVL7:
 104              	.LBB45:
 105              	.LBB46:
 106              	.LBB47:
 107              	.LBB48:
 108              	.LBB49:
 109              	.LBB50:
 110              		.file 3 "ChibiOS_3.0.2/os/ext/CMSIS/include/core_cmFunc.h"
 111              		.loc 3 546 0
 112 0010 2023     		movs	r3, #32
 113              		.syntax unified
 114              	@ 546 "ChibiOS_3.0.2/os/ext/CMSIS/include/core_cmFunc.h" 1
ARM GAS  /var/folders/sv/kgmgr77579zbf78p2zlhkdfr0000gn/T//cczEpVXo.s 			page 3


 115 0012 83F31188 		MSR basepri, r3
 116              	@ 0 "" 2
 117              	.LVL8:
 118              		.thumb
 119              		.syntax unified
 120              	.LBE50:
 121              	.LBE49:
 122              	.LBE48:
 123              	.LBE47:
 124              	.LBB51:
 125              	.LBB52:
 126              	.LBB53:
 127              	.LBB54:
 128              	.LBB55:
 129 0016 0023     		movs	r3, #0
 130              	.LBE55:
 131              	.LBE54:
 132              	.LBE53:
 133              	.LBE52:
 134              	.LBE51:
 135              	.LBB60:
 136              	.LBB61:
 137              		.file 4 "ChibiOS_3.0.2/os/rt/include/chvt.h"
 138              		.loc 4 231 0
 139 0018 A46A     		ldr	r4, [r4, #40]
 140              	.LVL9:
 141              	.LBE61:
 142              	.LBE60:
 143              	.LBB62:
 144              	.LBB59:
 145              	.LBB58:
 146              	.LBB57:
 147              	.LBB56:
 148              		.loc 3 546 0
 149              		.syntax unified
 150              	@ 546 "ChibiOS_3.0.2/os/ext/CMSIS/include/core_cmFunc.h" 1
 151 001a 83F31188 		MSR basepri, r3
 152              	@ 0 "" 2
 153              	.LVL10:
 154              		.thumb
 155              		.syntax unified
 156              	.LBE56:
 157              	.LBE57:
 158              	.LBE58:
 159              	.LBE59:
 160              	.LBE62:
 161              	.LBE46:
 162              	.LBE45:
 163              		.loc 1 53 0
 164 001e 134E     		ldr	r6, .L13+12
 165              		.loc 1 60 0
 166 0020 134D     		ldr	r5, .L13+16
 167              		.loc 1 53 0
 168 0022 0123     		movs	r3, #1
 169 0024 3370     		strb	r3, [r6]
 170              	.LVL11:
 171              		.loc 1 60 0
ARM GAS  /var/folders/sv/kgmgr77579zbf78p2zlhkdfr0000gn/T//cczEpVXo.s 			page 4


 172 0026 2B78     		ldrb	r3, [r5]	@ zero_extendqisi2
 173              	.LVL12:
 174 0028 B3B9     		cbnz	r3, .L7
 175 002a 04F59C54 		add	r4, r4, #4992
 176              	.LVL13:
 177 002e 0834     		adds	r4, r4, #8
 178              	.LVL14:
 179              	.L8:
 180              		.loc 1 66 0
 181 0030 FFF7FEFF 		bl	mc_interface_get_pid_pos_now
 182              	.LVL15:
 183 0034 10EE100A 		vmov	r0, s0
 184 0038 FFF7FEFF 		bl	__aeabi_f2d
 185              	.LVL16:
 186 003c 0246     		mov	r2, r0
 187 003e 0B46     		mov	r3, r1
 188 0040 0C48     		ldr	r0, .L13+20
 189 0042 FFF7FEFF 		bl	commands_printf
 190              	.LVL17:
 191              		.loc 1 72 0
 192 0046 2046     		mov	r0, r4
 193 0048 FFF7FEFF 		bl	chThdSleepUntil
 194              	.LVL18:
 195              		.loc 1 60 0
 196 004c 2B78     		ldrb	r3, [r5]	@ zero_extendqisi2
 197              		.loc 1 57 0
 198 004e 04F59C54 		add	r4, r4, #4992
 199              	.LVL19:
 200 0052 0834     		adds	r4, r4, #8
 201              	.LVL20:
 202              		.loc 1 60 0
 203 0054 002B     		cmp	r3, #0
 204 0056 EBD0     		beq	.L8
 205              	.LVL21:
 206              	.L7:
 207              		.loc 1 61 0
 208 0058 0023     		movs	r3, #0
 209 005a 3370     		strb	r3, [r6]
 210              		.loc 1 62 0
 211 005c 70BD     		pop	{r4, r5, r6, pc}
 212              	.L14:
 213 005e 00BF     		.align	2
 214              	.L13:
 215 0060 00000000 		.word	ch
 216 0064 18000000 		.word	.LC2
 217 0068 24000000 		.word	.LC3
 218 006c 00000000 		.word	.LANCHOR0
 219 0070 00000000 		.word	.LANCHOR1
 220 0074 38000000 		.word	.LC4
 221              		.cfi_endproc
 222              	.LFE259:
 223              		.size	test_thread, .-test_thread
 224              		.section	.text.app_custom_configure,"ax",%progbits
 225              		.align	2
 226              		.p2align 4,,15
 227              		.global	app_custom_configure
 228              		.thumb
ARM GAS  /var/folders/sv/kgmgr77579zbf78p2zlhkdfr0000gn/T//cczEpVXo.s 			page 5


 229              		.thumb_func
 230              		.type	app_custom_configure, %function
 231              	app_custom_configure:
 232              	.LFB256:
 233              		.loc 1 21 0
 234              		.cfi_startproc
 235              		@ args = 0, pretend = 0, frame = 0
 236              		@ frame_needed = 0, uses_anonymous_args = 0
 237              		@ link register save eliminated.
 238              	.LVL22:
 239              		.loc 1 23 0
 240 0000 024B     		ldr	r3, .L16
 241 0002 0349     		ldr	r1, .L16+4
 242 0004 0348     		ldr	r0, .L16+8
 243              	.LVL23:
 244 0006 0022     		movs	r2, #0
 245 0008 FFF7FEBF 		b	terminal_register_command_callback
 246              	.LVL24:
 247              	.L17:
 248              		.align	2
 249              	.L16:
 250 000c 00000000 		.word	terminal_cmd_test
 251 0010 48000000 		.word	.LC5
 252 0014 58000000 		.word	.LC6
 253              		.cfi_endproc
 254              	.LFE256:
 255              		.size	app_custom_configure, .-app_custom_configure
 256              		.section	.text.app_custom_start,"ax",%progbits
 257              		.align	2
 258              		.p2align 4,,15
 259              		.global	app_custom_start
 260              		.thumb
 261              		.thumb_func
 262              		.type	app_custom_start, %function
 263              	app_custom_start:
 264              	.LFB257:
 265              		.loc 1 30 0
 266              		.cfi_startproc
 267              		@ args = 0, pretend = 0, frame = 0
 268              		@ frame_needed = 0, uses_anonymous_args = 0
 269 0000 30B5     		push	{r4, r5, lr}
 270              		.cfi_def_cfa_offset 12
 271              		.cfi_offset 4, -12
 272              		.cfi_offset 5, -8
 273              		.cfi_offset 14, -4
 274 0002 83B0     		sub	sp, sp, #12
 275              		.cfi_def_cfa_offset 24
 276              		.loc 1 32 0
 277 0004 0024     		movs	r4, #0
 278 0006 064D     		ldr	r5, .L20
 279              		.loc 1 33 0
 280 0008 064B     		ldr	r3, .L20+4
 281 000a 0094     		str	r4, [sp]
 282 000c 4022     		movs	r2, #64
 283 000e 40F69811 		movw	r1, #2456
 284 0012 0548     		ldr	r0, .L20+8
 285              		.loc 1 32 0
ARM GAS  /var/folders/sv/kgmgr77579zbf78p2zlhkdfr0000gn/T//cczEpVXo.s 			page 6


 286 0014 2C70     		strb	r4, [r5]
 287              		.loc 1 33 0
 288 0016 FFF7FEFF 		bl	chThdCreateStatic
 289              	.LVL25:
 290              		.loc 1 35 0
 291 001a 03B0     		add	sp, sp, #12
 292              		.cfi_def_cfa_offset 12
 293              		@ sp needed
 294 001c 30BD     		pop	{r4, r5, pc}
 295              	.L21:
 296 001e 00BF     		.align	2
 297              	.L20:
 298 0020 00000000 		.word	.LANCHOR1
 299 0024 00000000 		.word	test_thread
 300 0028 00000000 		.word	.LANCHOR2
 301              		.cfi_endproc
 302              	.LFE257:
 303              		.size	app_custom_start, .-app_custom_start
 304              		.section	.text.app_custom_stop,"ax",%progbits
 305              		.align	2
 306              		.p2align 4,,15
 307              		.global	app_custom_stop
 308              		.thumb
 309              		.thumb_func
 310              		.type	app_custom_stop, %function
 311              	app_custom_stop:
 312              	.LFB258:
 313              		.loc 1 37 0
 314              		.cfi_startproc
 315              		@ args = 0, pretend = 0, frame = 0
 316              		@ frame_needed = 0, uses_anonymous_args = 0
 317              		.loc 1 38 0
 318 0000 064B     		ldr	r3, .L28
 319              		.loc 1 37 0
 320 0002 10B5     		push	{r4, lr}
 321              		.cfi_def_cfa_offset 8
 322              		.cfi_offset 4, -8
 323              		.cfi_offset 14, -4
 324              		.loc 1 38 0
 325 0004 0122     		movs	r2, #1
 326              		.loc 1 39 0
 327 0006 064C     		ldr	r4, .L28+4
 328              		.loc 1 38 0
 329 0008 1A70     		strb	r2, [r3]
 330              		.loc 1 39 0
 331 000a 2378     		ldrb	r3, [r4]	@ zero_extendqisi2
 332 000c 2BB1     		cbz	r3, .L22
 333              	.L25:
 334              		.loc 1 40 0
 335 000e 0A20     		movs	r0, #10
 336 0010 FFF7FEFF 		bl	chThdSleep
 337              	.LVL26:
 338              		.loc 1 39 0
 339 0014 2378     		ldrb	r3, [r4]	@ zero_extendqisi2
 340 0016 002B     		cmp	r3, #0
 341 0018 F9D1     		bne	.L25
 342              	.L22:
ARM GAS  /var/folders/sv/kgmgr77579zbf78p2zlhkdfr0000gn/T//cczEpVXo.s 			page 7


 343 001a 10BD     		pop	{r4, pc}
 344              	.L29:
 345              		.align	2
 346              	.L28:
 347 001c 00000000 		.word	.LANCHOR1
 348 0020 00000000 		.word	.LANCHOR0
 349              		.cfi_endproc
 350              	.LFE258:
 351              		.size	app_custom_stop, .-app_custom_stop
 352              		.section	.bss.is_running,"aw",%nobits
 353              		.set	.LANCHOR0,. + 0
 354              		.type	is_running, %object
 355              		.size	is_running, 1
 356              	is_running:
 357 0000 00       		.space	1
 358              		.section	.rodata.str1.4,"aMS",%progbits,1
 359              		.align	2
 360              	.LC0:
 361 0000 54686973 		.ascii	"This is not a test\000"
 361      20697320 
 361      6E6F7420 
 361      61207465 
 361      737400
 362 0013 00       		.space	1
 363              	.LC1:
 364 0014 2000     		.ascii	" \000"
 365 0016 0000     		.space	2
 366              	.LC2:
 367 0018 4150505F 		.ascii	"APP_TEST\000"
 367      54455354 
 367      00
 368 0021 000000   		.space	3
 369              	.LC3:
 370 0024 52657374 		.ascii	"Restarted thread\000"
 370      61727465 
 370      64207468 
 370      72656164 
 370      00
 371 0035 000000   		.space	3
 372              	.LC4:
 373 0038 506F7369 		.ascii	"Position: %.2f\000"
 373      74696F6E 
 373      3A20252E 
 373      326600
 374 0047 00       		.space	1
 375              	.LC5:
 376 0048 5072696E 		.ascii	"Print some shit\000"
 376      7420736F 
 376      6D652073 
 376      68697400 
 377              	.LC6:
 378 0058 74657374 		.ascii	"test\000"
 378      00
 379              		.section	.data.stop_now,"aw",%progbits
 380              		.set	.LANCHOR1,. + 0
 381              		.type	stop_now, %object
 382              		.size	stop_now, 1
ARM GAS  /var/folders/sv/kgmgr77579zbf78p2zlhkdfr0000gn/T//cczEpVXo.s 			page 8


 383              	stop_now:
 384 0000 01       		.byte	1
 385              		.section	.bss.test_thread_wa,"aw",%nobits
 386              		.align	3
 387              		.set	.LANCHOR2,. + 0
 388              		.type	test_thread_wa, %object
 389              		.size	test_thread_wa, 2456
 390              	test_thread_wa:
 391 0000 00000000 		.space	2456
 391      00000000 
 391      00000000 
 391      00000000 
 391      00000000 
 392              		.text
 393              	.Letext0:
 394              		.file 5 "/usr/local/Cellar/gcc-arm-none-eabi/20160928/arm-none-eabi/include/machine/_default_types
 395              		.file 6 "/usr/local/Cellar/gcc-arm-none-eabi/20160928/arm-none-eabi/include/sys/_stdint.h"
 396              		.file 7 "/usr/local/Cellar/gcc-arm-none-eabi/20160928/lib/gcc/arm-none-eabi/5.4.1/include/stddef.h
 397              		.file 8 "ChibiOS_3.0.2/os/rt/ports/ARMCMx/compilers/GCC/chtypes.h"
 398              		.file 9 "ChibiOS_3.0.2/os/rt/include/chsystypes.h"
 399              		.file 10 "ChibiOS_3.0.2/os/rt/include/chschd.h"
 400              		.file 11 "ChibiOS_3.0.2/os/rt/ports/ARMCMx/chcore.h"
 401              		.file 12 "ChibiOS_3.0.2/os/rt/ports/ARMCMx/chcore_v7m.h"
 402              		.file 13 "ChibiOS_3.0.2/os/rt/include/chtm.h"
 403              		.file 14 "ChibiOS_3.0.2/os/rt/include/chsem.h"
 404              		.file 15 "ChibiOS_3.0.2/os/rt/include/chmtx.h"
 405              		.file 16 "./datatypes.h"
 406              		.file 17 "ChibiOS_3.0.2/os/rt/include/chsys.h"
 407              		.file 18 "./commands.h"
 408              		.file 19 "./mc_interface.h"
 409              		.file 20 "ChibiOS_3.0.2/os/rt/include/chthreads.h"
 410              		.file 21 "./terminal.h"
 411              		.file 22 "ChibiOS_3.0.2/os/ext/CMSIS/include/core_cm4.h"