ARM GAS  /var/folders/sv/kgmgr77579zbf78p2zlhkdfr0000gn/T//cclQOad7.s 			page 1


   1              		.syntax unified
   2              		.cpu cortex-m4
   3              		.eabi_attribute 27, 1
   4              		.eabi_attribute 28, 1
   5              		.fpu fpv4-sp-d16
   6              		.eabi_attribute 20, 1
   7              		.eabi_attribute 21, 1
   8              		.eabi_attribute 23, 3
   9              		.eabi_attribute 24, 1
  10              		.eabi_attribute 25, 1
  11              		.eabi_attribute 26, 1
  12              		.eabi_attribute 30, 2
  13              		.eabi_attribute 34, 1
  14              		.eabi_attribute 18, 4
  15              		.thumb
  16              		.syntax unified
  17              		.file	"buffer.c"
  18              		.text
  19              	.Ltext0:
  20              		.cfi_sections	.debug_frame
  21              		.section	.text.buffer_append_int16,"ax",%progbits
  22              		.align	2
  23              		.p2align 4,,15
  24              		.global	buffer_append_int16
  25              		.thumb
  26              		.thumb_func
  27              		.type	buffer_append_int16, %function
  28              	buffer_append_int16:
  29              	.LFB0:
  30              		.file 1 "buffer.c"
  31              		.loc 1 24 0
  32              		.cfi_startproc
  33              		@ args = 0, pretend = 0, frame = 0
  34              		@ frame_needed = 0, uses_anonymous_args = 0
  35              		@ link register save eliminated.
  36              	.LVL0:
  37              		.loc 1 25 0
  38 0000 1368     		ldr	r3, [r2]
  39              		.loc 1 24 0
  40 0002 30B4     		push	{r4, r5}
  41              		.cfi_def_cfa_offset 8
  42              		.cfi_offset 4, -8
  43              		.cfi_offset 5, -4
  44              		.loc 1 25 0
  45 0004 5D1C     		adds	r5, r3, #1
  46 0006 0C12     		asrs	r4, r1, #8
  47 0008 1560     		str	r5, [r2]
  48 000a C454     		strb	r4, [r0, r3]
  49              		.loc 1 26 0
  50 000c 1368     		ldr	r3, [r2]
  51 000e 5C1C     		adds	r4, r3, #1
  52 0010 1460     		str	r4, [r2]
  53 0012 C154     		strb	r1, [r0, r3]
  54              		.loc 1 27 0
  55 0014 30BC     		pop	{r4, r5}
  56              		.cfi_restore 5
  57              		.cfi_restore 4
ARM GAS  /var/folders/sv/kgmgr77579zbf78p2zlhkdfr0000gn/T//cclQOad7.s 			page 2


  58              		.cfi_def_cfa_offset 0
  59 0016 7047     		bx	lr
  60              		.cfi_endproc
  61              	.LFE0:
  62              		.size	buffer_append_int16, .-buffer_append_int16
  63              		.section	.text.buffer_append_uint16,"ax",%progbits
  64              		.align	2
  65              		.p2align 4,,15
  66              		.global	buffer_append_uint16
  67              		.thumb
  68              		.thumb_func
  69              		.type	buffer_append_uint16, %function
  70              	buffer_append_uint16:
  71              	.LFB1:
  72              		.loc 1 29 0
  73              		.cfi_startproc
  74              		@ args = 0, pretend = 0, frame = 0
  75              		@ frame_needed = 0, uses_anonymous_args = 0
  76              		@ link register save eliminated.
  77              	.LVL1:
  78              		.loc 1 30 0
  79 0000 1368     		ldr	r3, [r2]
  80              		.loc 1 29 0
  81 0002 30B4     		push	{r4, r5}
  82              		.cfi_def_cfa_offset 8
  83              		.cfi_offset 4, -8
  84              		.cfi_offset 5, -4
  85              		.loc 1 30 0
  86 0004 5D1C     		adds	r5, r3, #1
  87 0006 0C0A     		lsrs	r4, r1, #8
  88 0008 1560     		str	r5, [r2]
  89 000a C454     		strb	r4, [r0, r3]
  90              		.loc 1 31 0
  91 000c 1368     		ldr	r3, [r2]
  92 000e 5C1C     		adds	r4, r3, #1
  93 0010 1460     		str	r4, [r2]
  94 0012 C154     		strb	r1, [r0, r3]
  95              		.loc 1 32 0
  96 0014 30BC     		pop	{r4, r5}
  97              		.cfi_restore 5
  98              		.cfi_restore 4
  99              		.cfi_def_cfa_offset 0
 100 0016 7047     		bx	lr
 101              		.cfi_endproc
 102              	.LFE1:
 103              		.size	buffer_append_uint16, .-buffer_append_uint16
 104              		.section	.text.buffer_append_int32,"ax",%progbits
 105              		.align	2
 106              		.p2align 4,,15
 107              		.global	buffer_append_int32
 108              		.thumb
 109              		.thumb_func
 110              		.type	buffer_append_int32, %function
 111              	buffer_append_int32:
 112              	.LFB2:
 113              		.loc 1 34 0
 114              		.cfi_startproc
ARM GAS  /var/folders/sv/kgmgr77579zbf78p2zlhkdfr0000gn/T//cclQOad7.s 			page 3


 115              		@ args = 0, pretend = 0, frame = 0
 116              		@ frame_needed = 0, uses_anonymous_args = 0
 117              		@ link register save eliminated.
 118              	.LVL2:
 119              		.loc 1 35 0
 120 0000 1368     		ldr	r3, [r2]
 121              		.loc 1 34 0
 122 0002 30B4     		push	{r4, r5}
 123              		.cfi_def_cfa_offset 8
 124              		.cfi_offset 4, -8
 125              		.cfi_offset 5, -4
 126              		.loc 1 35 0
 127 0004 5D1C     		adds	r5, r3, #1
 128 0006 0C16     		asrs	r4, r1, #24
 129 0008 1560     		str	r5, [r2]
 130 000a C454     		strb	r4, [r0, r3]
 131              		.loc 1 36 0
 132 000c 1368     		ldr	r3, [r2]
 133 000e 0C14     		asrs	r4, r1, #16
 134 0010 5D1C     		adds	r5, r3, #1
 135 0012 1560     		str	r5, [r2]
 136 0014 C454     		strb	r4, [r0, r3]
 137              		.loc 1 37 0
 138 0016 1368     		ldr	r3, [r2]
 139 0018 0C12     		asrs	r4, r1, #8
 140 001a 5D1C     		adds	r5, r3, #1
 141 001c 1560     		str	r5, [r2]
 142 001e C454     		strb	r4, [r0, r3]
 143              		.loc 1 38 0
 144 0020 1368     		ldr	r3, [r2]
 145 0022 5C1C     		adds	r4, r3, #1
 146 0024 1460     		str	r4, [r2]
 147 0026 C154     		strb	r1, [r0, r3]
 148              		.loc 1 39 0
 149 0028 30BC     		pop	{r4, r5}
 150              		.cfi_restore 5
 151              		.cfi_restore 4
 152              		.cfi_def_cfa_offset 0
 153 002a 7047     		bx	lr
 154              		.cfi_endproc
 155              	.LFE2:
 156              		.size	buffer_append_int32, .-buffer_append_int32
 157              		.section	.text.buffer_append_uint32,"ax",%progbits
 158              		.align	2
 159              		.p2align 4,,15
 160              		.global	buffer_append_uint32
 161              		.thumb
 162              		.thumb_func
 163              		.type	buffer_append_uint32, %function
 164              	buffer_append_uint32:
 165              	.LFB3:
 166              		.loc 1 41 0
 167              		.cfi_startproc
 168              		@ args = 0, pretend = 0, frame = 0
 169              		@ frame_needed = 0, uses_anonymous_args = 0
 170              		@ link register save eliminated.
 171              	.LVL3:
ARM GAS  /var/folders/sv/kgmgr77579zbf78p2zlhkdfr0000gn/T//cclQOad7.s 			page 4


 172              		.loc 1 42 0
 173 0000 1368     		ldr	r3, [r2]
 174              		.loc 1 41 0
 175 0002 30B4     		push	{r4, r5}
 176              		.cfi_def_cfa_offset 8
 177              		.cfi_offset 4, -8
 178              		.cfi_offset 5, -4
 179              		.loc 1 42 0
 180 0004 5D1C     		adds	r5, r3, #1
 181 0006 0C0E     		lsrs	r4, r1, #24
 182 0008 1560     		str	r5, [r2]
 183 000a C454     		strb	r4, [r0, r3]
 184              		.loc 1 43 0
 185 000c 1368     		ldr	r3, [r2]
 186 000e 0C0C     		lsrs	r4, r1, #16
 187 0010 5D1C     		adds	r5, r3, #1
 188 0012 1560     		str	r5, [r2]
 189 0014 C454     		strb	r4, [r0, r3]
 190              		.loc 1 44 0
 191 0016 1368     		ldr	r3, [r2]
 192 0018 0C0A     		lsrs	r4, r1, #8
 193 001a 5D1C     		adds	r5, r3, #1
 194 001c 1560     		str	r5, [r2]
 195 001e C454     		strb	r4, [r0, r3]
 196              		.loc 1 45 0
 197 0020 1368     		ldr	r3, [r2]
 198 0022 5C1C     		adds	r4, r3, #1
 199 0024 1460     		str	r4, [r2]
 200 0026 C154     		strb	r1, [r0, r3]
 201              		.loc 1 46 0
 202 0028 30BC     		pop	{r4, r5}
 203              		.cfi_restore 5
 204              		.cfi_restore 4
 205              		.cfi_def_cfa_offset 0
 206 002a 7047     		bx	lr
 207              		.cfi_endproc
 208              	.LFE3:
 209              		.size	buffer_append_uint32, .-buffer_append_uint32
 210              		.section	.text.buffer_append_float16,"ax",%progbits
 211              		.align	2
 212              		.p2align 4,,15
 213              		.global	buffer_append_float16
 214              		.thumb
 215              		.thumb_func
 216              		.type	buffer_append_float16, %function
 217              	buffer_append_float16:
 218              	.LFB4:
 219              		.loc 1 48 0
 220              		.cfi_startproc
 221              		@ args = 0, pretend = 0, frame = 8
 222              		@ frame_needed = 0, uses_anonymous_args = 0
 223              		@ link register save eliminated.
 224              	.LVL4:
 225 0000 30B4     		push	{r4, r5}
 226              		.cfi_def_cfa_offset 8
 227              		.cfi_offset 4, -8
 228              		.cfi_offset 5, -4
ARM GAS  /var/folders/sv/kgmgr77579zbf78p2zlhkdfr0000gn/T//cclQOad7.s 			page 5


 229              		.loc 1 49 0
 230 0002 60EE200A 		vmul.f32	s1, s0, s1
 231              	.LVL5:
 232              		.loc 1 48 0
 233 0006 82B0     		sub	sp, sp, #8
 234              		.cfi_def_cfa_offset 16
 235              		.loc 1 49 0
 236 0008 FDEEE07A 		vcvt.s32.f32	s15, s1
 237              	.LBB6:
 238              	.LBB7:
 239              		.loc 1 25 0
 240 000c 0A68     		ldr	r2, [r1]
 241              	.LBE7:
 242              	.LBE6:
 243              		.loc 1 49 0
 244 000e CDED017A 		vstr.32	s15, [sp, #4]	@ int
 245 0012 BDF90430 		ldrsh	r3, [sp, #4]
 246              	.LVL6:
 247              	.LBB9:
 248              	.LBB8:
 249              		.loc 1 25 0
 250 0016 551C     		adds	r5, r2, #1
 251 0018 1C12     		asrs	r4, r3, #8
 252 001a 0D60     		str	r5, [r1]
 253 001c 8454     		strb	r4, [r0, r2]
 254              		.loc 1 26 0
 255 001e 0A68     		ldr	r2, [r1]
 256 0020 541C     		adds	r4, r2, #1
 257 0022 0C60     		str	r4, [r1]
 258 0024 8354     		strb	r3, [r0, r2]
 259              	.LVL7:
 260              	.LBE8:
 261              	.LBE9:
 262              		.loc 1 50 0
 263 0026 02B0     		add	sp, sp, #8
 264              		.cfi_def_cfa_offset 8
 265              		@ sp needed
 266 0028 30BC     		pop	{r4, r5}
 267              		.cfi_restore 5
 268              		.cfi_restore 4
 269              		.cfi_def_cfa_offset 0
 270 002a 7047     		bx	lr
 271              		.cfi_endproc
 272              	.LFE4:
 273              		.size	buffer_append_float16, .-buffer_append_float16
 274              		.section	.text.buffer_append_float32,"ax",%progbits
 275              		.align	2
 276              		.p2align 4,,15
 277              		.global	buffer_append_float32
 278              		.thumb
 279              		.thumb_func
 280              		.type	buffer_append_float32, %function
 281              	buffer_append_float32:
 282              	.LFB5:
 283              		.loc 1 52 0
 284              		.cfi_startproc
 285              		@ args = 0, pretend = 0, frame = 0
ARM GAS  /var/folders/sv/kgmgr77579zbf78p2zlhkdfr0000gn/T//cclQOad7.s 			page 6


 286              		@ frame_needed = 0, uses_anonymous_args = 0
 287              		@ link register save eliminated.
 288              	.LVL8:
 289              		.loc 1 53 0
 290 0000 60EE200A 		vmul.f32	s1, s0, s1
 291              	.LVL9:
 292 0004 0A46     		mov	r2, r1
 293 0006 FDEEE07A 		vcvt.s32.f32	s15, s1
 294 000a 17EE901A 		vmov	r1, s15	@ int
 295              	.LVL10:
 296 000e FFF7FEBF 		b	buffer_append_int32
 297              	.LVL11:
 298              		.cfi_endproc
 299              	.LFE5:
 300              		.size	buffer_append_float32, .-buffer_append_float32
 301 0012 00BF     		.section	.text.buffer_append_float32_auto,"ax",%progbits
 302              		.align	2
 303              		.p2align 4,,15
 304              		.global	buffer_append_float32_auto
 305              		.thumb
 306              		.thumb_func
 307              		.type	buffer_append_float32_auto, %function
 308              	buffer_append_float32_auto:
 309              	.LFB6:
 310              		.loc 1 96 0
 311              		.cfi_startproc
 312              		@ args = 0, pretend = 0, frame = 8
 313              		@ frame_needed = 0, uses_anonymous_args = 0
 314              	.LVL12:
 315 0000 70B5     		push	{r4, r5, r6, lr}
 316              		.cfi_def_cfa_offset 16
 317              		.cfi_offset 4, -16
 318              		.cfi_offset 5, -12
 319              		.cfi_offset 6, -8
 320              		.cfi_offset 14, -4
 321 0002 82B0     		sub	sp, sp, #8
 322              		.cfi_def_cfa_offset 24
 323              		.loc 1 97 0
 324 0004 02AB     		add	r3, sp, #8
 325 0006 0024     		movs	r4, #0
 326 0008 43F8044D 		str	r4, [r3, #-4]!
 327              		.loc 1 96 0
 328 000c 0546     		mov	r5, r0
 329              		.loc 1 98 0
 330 000e 1846     		mov	r0, r3
 331              	.LVL13:
 332              		.loc 1 96 0
 333 0010 0E46     		mov	r6, r1
 334              		.loc 1 98 0
 335 0012 FFF7FEFF 		bl	frexpf
 336              	.LVL14:
 337              		.loc 1 102 0
 338 0016 B6EE007A 		vmov.f32	s14, #5.0e-1
 339              		.loc 1 99 0
 340 001a F0EEC07A 		vabs.f32	s15, s0
 341              	.LVL15:
 342              		.loc 1 102 0
ARM GAS  /var/folders/sv/kgmgr77579zbf78p2zlhkdfr0000gn/T//cclQOad7.s 			page 7


 343 001e F4EEC77A 		vcmpe.f32	s15, s14
 344 0022 F1EE10FA 		vmrs	APSR_nzcv, FPSCR
 345 0026 13DA     		bge	.L13
 346 0028 0198     		ldr	r0, [sp, #4]
 347              	.LVL16:
 348              	.L14:
 349              		.loc 1 107 0
 350 002a C305     		lsls	r3, r0, #23
 351 002c 03F0FF43 		and	r3, r3, #2139095040
 352              		.loc 1 108 0
 353 0030 B5EEC00A 		vcmpe.f32	s0, #0
 354              		.loc 1 107 0
 355 0034 43EA0401 		orr	r1, r3, r4
 356              	.LVL17:
 357              		.loc 1 108 0
 358 0038 F1EE10FA 		vmrs	APSR_nzcv, FPSCR
 359              		.loc 1 109 0
 360 003c 48BF     		it	mi
 361 003e 41F00041 		orrmi	r1, r1, #-2147483648
 362              	.LVL18:
 363              		.loc 1 112 0
 364 0042 3246     		mov	r2, r6
 365 0044 2846     		mov	r0, r5
 366              		.loc 1 113 0
 367 0046 02B0     		add	sp, sp, #8
 368              		.cfi_remember_state
 369              		.cfi_def_cfa_offset 16
 370              		@ sp needed
 371 0048 BDE87040 		pop	{r4, r5, r6, lr}
 372              		.cfi_restore 14
 373              		.cfi_restore 6
 374              		.cfi_restore 5
 375              		.cfi_restore 4
 376              		.cfi_def_cfa_offset 0
 377              	.LVL19:
 378              		.loc 1 112 0
 379 004c FFF7FEBF 		b	buffer_append_uint32
 380              	.LVL20:
 381              	.L13:
 382              		.cfi_restore_state
 383 0050 77EEC77A 		vsub.f32	s15, s15, s14
 384              	.LVL21:
 385 0054 9FED077A 		vldr.32	s14, .L20
 386              		.loc 1 104 0
 387 0058 019B     		ldr	r3, [sp, #4]
 388 005a 77EEA77A 		vadd.f32	s15, s15, s15
 389 005e 03F17E00 		add	r0, r3, #126
 390 0062 67EE877A 		vmul.f32	s15, s15, s14
 391 0066 FCEEE77A 		vcvt.u32.f32	s15, s15
 392 006a 17EE904A 		vmov	r4, s15	@ int
 393 006e C4F31604 		ubfx	r4, r4, #0, #23
 394 0072 DAE7     		b	.L14
 395              	.L21:
 396              		.align	2
 397              	.L20:
 398 0074 0000004B 		.word	1258291200
 399              		.cfi_endproc
ARM GAS  /var/folders/sv/kgmgr77579zbf78p2zlhkdfr0000gn/T//cclQOad7.s 			page 8


 400              	.LFE6:
 401              		.size	buffer_append_float32_auto, .-buffer_append_float32_auto
 402              		.section	.text.buffer_get_int16,"ax",%progbits
 403              		.align	2
 404              		.p2align 4,,15
 405              		.global	buffer_get_int16
 406              		.thumb
 407              		.thumb_func
 408              		.type	buffer_get_int16, %function
 409              	buffer_get_int16:
 410              	.LFB7:
 411              		.loc 1 115 0
 412              		.cfi_startproc
 413              		@ args = 0, pretend = 0, frame = 0
 414              		@ frame_needed = 0, uses_anonymous_args = 0
 415              		@ link register save eliminated.
 416              	.LVL22:
 417              		.loc 1 116 0
 418 0000 0B68     		ldr	r3, [r1]
 419              		.loc 1 117 0
 420 0002 C218     		adds	r2, r0, r3
 421              		.loc 1 116 0
 422 0004 C05C     		ldrb	r0, [r0, r3]	@ zero_extendqisi2
 423              	.LVL23:
 424 0006 5278     		ldrb	r2, [r2, #1]	@ zero_extendqisi2
 425              		.loc 1 118 0
 426 0008 0233     		adds	r3, r3, #2
 427              		.loc 1 116 0
 428 000a 42EA0020 		orr	r0, r2, r0, lsl #8
 429              	.LVL24:
 430              		.loc 1 118 0
 431 000e 0B60     		str	r3, [r1]
 432              		.loc 1 120 0
 433 0010 00B2     		sxth	r0, r0
 434 0012 7047     		bx	lr
 435              		.cfi_endproc
 436              	.LFE7:
 437              		.size	buffer_get_int16, .-buffer_get_int16
 438              		.section	.text.buffer_get_uint16,"ax",%progbits
 439              		.align	2
 440              		.p2align 4,,15
 441              		.global	buffer_get_uint16
 442              		.thumb
 443              		.thumb_func
 444              		.type	buffer_get_uint16, %function
 445              	buffer_get_uint16:
 446              	.LFB8:
 447              		.loc 1 122 0
 448              		.cfi_startproc
 449              		@ args = 0, pretend = 0, frame = 0
 450              		@ frame_needed = 0, uses_anonymous_args = 0
 451              		@ link register save eliminated.
 452              	.LVL25:
 453              		.loc 1 123 0
 454 0000 0B68     		ldr	r3, [r1]
 455              		.loc 1 124 0
 456 0002 C218     		adds	r2, r0, r3
ARM GAS  /var/folders/sv/kgmgr77579zbf78p2zlhkdfr0000gn/T//cclQOad7.s 			page 9


 457              		.loc 1 123 0
 458 0004 C05C     		ldrb	r0, [r0, r3]	@ zero_extendqisi2
 459              	.LVL26:
 460 0006 5278     		ldrb	r2, [r2, #1]	@ zero_extendqisi2
 461              	.LVL27:
 462              		.loc 1 125 0
 463 0008 0233     		adds	r3, r3, #2
 464 000a 0B60     		str	r3, [r1]
 465              		.loc 1 127 0
 466 000c 42EA0020 		orr	r0, r2, r0, lsl #8
 467              	.LVL28:
 468 0010 7047     		bx	lr
 469              		.cfi_endproc
 470              	.LFE8:
 471              		.size	buffer_get_uint16, .-buffer_get_uint16
 472 0012 00BF     		.section	.text.buffer_get_int32,"ax",%progbits
 473              		.align	2
 474              		.p2align 4,,15
 475              		.global	buffer_get_int32
 476              		.thumb
 477              		.thumb_func
 478              		.type	buffer_get_int32, %function
 479              	buffer_get_int32:
 480              	.LFB9:
 481              		.loc 1 129 0
 482              		.cfi_startproc
 483              		@ args = 0, pretend = 0, frame = 0
 484              		@ frame_needed = 0, uses_anonymous_args = 0
 485              		@ link register save eliminated.
 486              	.LVL29:
 487 0000 70B4     		push	{r4, r5, r6}
 488              		.cfi_def_cfa_offset 12
 489              		.cfi_offset 4, -12
 490              		.cfi_offset 5, -8
 491              		.cfi_offset 6, -4
 492              		.loc 1 130 0
 493 0002 0C68     		ldr	r4, [r1]
 494              		.loc 1 133 0
 495 0004 0519     		adds	r5, r0, r4
 496              		.loc 1 130 0
 497 0006 035D     		ldrb	r3, [r0, r4]	@ zero_extendqisi2
 498 0008 EA78     		ldrb	r2, [r5, #3]	@ zero_extendqisi2
 499 000a 6E78     		ldrb	r6, [r5, #1]	@ zero_extendqisi2
 500 000c A878     		ldrb	r0, [r5, #2]	@ zero_extendqisi2
 501              	.LVL30:
 502 000e 42EA0363 		orr	r3, r2, r3, lsl #24
 503              		.loc 1 134 0
 504 0012 0434     		adds	r4, r4, #4
 505              		.loc 1 130 0
 506 0014 43EA0643 		orr	r3, r3, r6, lsl #16
 507              	.LVL31:
 508              		.loc 1 134 0
 509 0018 0C60     		str	r4, [r1]
 510              		.loc 1 136 0
 511 001a 43EA0020 		orr	r0, r3, r0, lsl #8
 512              	.LVL32:
 513 001e 70BC     		pop	{r4, r5, r6}
ARM GAS  /var/folders/sv/kgmgr77579zbf78p2zlhkdfr0000gn/T//cclQOad7.s 			page 10


 514              		.cfi_restore 6
 515              		.cfi_restore 5
 516              		.cfi_restore 4
 517              		.cfi_def_cfa_offset 0
 518 0020 7047     		bx	lr
 519              		.cfi_endproc
 520              	.LFE9:
 521              		.size	buffer_get_int32, .-buffer_get_int32
 522 0022 00BF     		.section	.text.buffer_get_uint32,"ax",%progbits
 523              		.align	2
 524              		.p2align 4,,15
 525              		.global	buffer_get_uint32
 526              		.thumb
 527              		.thumb_func
 528              		.type	buffer_get_uint32, %function
 529              	buffer_get_uint32:
 530              	.LFB10:
 531              		.loc 1 138 0
 532              		.cfi_startproc
 533              		@ args = 0, pretend = 0, frame = 0
 534              		@ frame_needed = 0, uses_anonymous_args = 0
 535              		@ link register save eliminated.
 536              	.LVL33:
 537 0000 70B4     		push	{r4, r5, r6}
 538              		.cfi_def_cfa_offset 12
 539              		.cfi_offset 4, -12
 540              		.cfi_offset 5, -8
 541              		.cfi_offset 6, -4
 542              		.loc 1 139 0
 543 0002 0C68     		ldr	r4, [r1]
 544              		.loc 1 142 0
 545 0004 0519     		adds	r5, r0, r4
 546              		.loc 1 139 0
 547 0006 035D     		ldrb	r3, [r0, r4]	@ zero_extendqisi2
 548 0008 EA78     		ldrb	r2, [r5, #3]	@ zero_extendqisi2
 549 000a 6E78     		ldrb	r6, [r5, #1]	@ zero_extendqisi2
 550 000c A878     		ldrb	r0, [r5, #2]	@ zero_extendqisi2
 551              	.LVL34:
 552 000e 42EA0363 		orr	r3, r2, r3, lsl #24
 553              		.loc 1 143 0
 554 0012 0434     		adds	r4, r4, #4
 555              		.loc 1 139 0
 556 0014 43EA0643 		orr	r3, r3, r6, lsl #16
 557              	.LVL35:
 558              		.loc 1 143 0
 559 0018 0C60     		str	r4, [r1]
 560              		.loc 1 145 0
 561 001a 43EA0020 		orr	r0, r3, r0, lsl #8
 562              	.LVL36:
 563 001e 70BC     		pop	{r4, r5, r6}
 564              		.cfi_restore 6
 565              		.cfi_restore 5
 566              		.cfi_restore 4
 567              		.cfi_def_cfa_offset 0
 568 0020 7047     		bx	lr
 569              		.cfi_endproc
 570              	.LFE10:
ARM GAS  /var/folders/sv/kgmgr77579zbf78p2zlhkdfr0000gn/T//cclQOad7.s 			page 11


 571              		.size	buffer_get_uint32, .-buffer_get_uint32
 572 0022 00BF     		.section	.text.buffer_get_float16,"ax",%progbits
 573              		.align	2
 574              		.p2align 4,,15
 575              		.global	buffer_get_float16
 576              		.thumb
 577              		.thumb_func
 578              		.type	buffer_get_float16, %function
 579              	buffer_get_float16:
 580              	.LFB11:
 581              		.loc 1 147 0
 582              		.cfi_startproc
 583              		@ args = 0, pretend = 0, frame = 0
 584              		@ frame_needed = 0, uses_anonymous_args = 0
 585              		@ link register save eliminated.
 586              	.LVL37:
 587              	.LBB10:
 588              	.LBB11:
 589              		.loc 1 116 0
 590 0000 0A68     		ldr	r2, [r1]
 591              		.loc 1 117 0
 592 0002 8318     		adds	r3, r0, r2
 593              		.loc 1 116 0
 594 0004 805C     		ldrb	r0, [r0, r2]	@ zero_extendqisi2
 595              	.LVL38:
 596 0006 5B78     		ldrb	r3, [r3, #1]	@ zero_extendqisi2
 597 0008 43EA0023 		orr	r3, r3, r0, lsl #8
 598 000c 1BB2     		sxth	r3, r3
 599              	.LVL39:
 600              	.LBE11:
 601              	.LBE10:
 602              		.loc 1 148 0
 603 000e 07EE903A 		vmov	s15, r3	@ int
 604 0012 F8EEE77A 		vcvt.f32.s32	s15, s15
 605              	.LBB13:
 606              	.LBB12:
 607              		.loc 1 118 0
 608 0016 0232     		adds	r2, r2, #2
 609 0018 0A60     		str	r2, [r1]
 610              	.LVL40:
 611              	.LBE12:
 612              	.LBE13:
 613              		.loc 1 149 0
 614 001a 87EE800A 		vdiv.f32	s0, s15, s0
 615              	.LVL41:
 616 001e 7047     		bx	lr
 617              		.cfi_endproc
 618              	.LFE11:
 619              		.size	buffer_get_float16, .-buffer_get_float16
 620              		.section	.text.buffer_get_float32,"ax",%progbits
 621              		.align	2
 622              		.p2align 4,,15
 623              		.global	buffer_get_float32
 624              		.thumb
 625              		.thumb_func
 626              		.type	buffer_get_float32, %function
 627              	buffer_get_float32:
ARM GAS  /var/folders/sv/kgmgr77579zbf78p2zlhkdfr0000gn/T//cclQOad7.s 			page 12


 628              	.LFB12:
 629              		.loc 1 151 0
 630              		.cfi_startproc
 631              		@ args = 0, pretend = 0, frame = 0
 632              		@ frame_needed = 0, uses_anonymous_args = 0
 633              	.LVL42:
 634 0000 08B5     		push	{r3, lr}
 635              		.cfi_def_cfa_offset 8
 636              		.cfi_offset 3, -8
 637              		.cfi_offset 14, -4
 638              		.loc 1 152 0
 639 0002 FFF7FEFF 		bl	buffer_get_int32
 640              	.LVL43:
 641 0006 07EE900A 		vmov	s15, r0	@ int
 642 000a F8EEE77A 		vcvt.f32.s32	s15, s15
 643              		.loc 1 153 0
 644 000e 87EE800A 		vdiv.f32	s0, s15, s0
 645 0012 08BD     		pop	{r3, pc}
 646              		.cfi_endproc
 647              	.LFE12:
 648              		.size	buffer_get_float32, .-buffer_get_float32
 649              		.section	.text.buffer_get_float32_auto,"ax",%progbits
 650              		.align	2
 651              		.p2align 4,,15
 652              		.global	buffer_get_float32_auto
 653              		.thumb
 654              		.thumb_func
 655              		.type	buffer_get_float32_auto, %function
 656              	buffer_get_float32_auto:
 657              	.LFB13:
 658              		.loc 1 155 0
 659              		.cfi_startproc
 660              		@ args = 0, pretend = 0, frame = 0
 661              		@ frame_needed = 0, uses_anonymous_args = 0
 662              	.LVL44:
 663 0000 08B5     		push	{r3, lr}
 664              		.cfi_def_cfa_offset 8
 665              		.cfi_offset 3, -8
 666              		.cfi_offset 14, -4
 667              		.loc 1 156 0
 668 0002 FFF7FEFF 		bl	buffer_get_uint32
 669              	.LVL45:
 670 0006 0346     		mov	r3, r0
 671              	.LVL46:
 672              		.loc 1 158 0
 673 0008 C0F3C750 		ubfx	r0, r0, #23, #8
 674              	.LVL47:
 675              		.loc 1 159 0
 676 000c C3F31602 		ubfx	r2, r3, #0, #23
 677              	.LVL48:
 678              		.loc 1 160 0
 679 0010 03F00043 		and	r3, r3, #-2147483648
 680              	.LVL49:
 681              		.loc 1 163 0
 682 0014 00B9     		cbnz	r0, .L32
 683              		.loc 1 163 0 is_stmt 0 discriminator 1
 684 0016 8AB1     		cbz	r2, .L35
ARM GAS  /var/folders/sv/kgmgr77579zbf78p2zlhkdfr0000gn/T//cclQOad7.s 			page 13


 685              	.L32:
 686              		.loc 1 164 0 is_stmt 1
 687 0018 07EE902A 		vmov	s15, r2	@ int
 688 001c 9FED097A 		vldr.32	s14, .L40
 689 0020 F8EEE77A 		vcvt.f32.s32	s15, s15
 690 0024 B6EE000A 		vmov.f32	s0, #5.0e-1
 691 0028 A7EE870A 		vfma.f32	s0, s15, s14
 692              	.LVL50:
 693              		.loc 1 165 0
 694 002c 7E38     		subs	r0, r0, #126
 695              	.LVL51:
 696              	.L33:
 697              		.loc 1 168 0
 698 002e 0BB1     		cbz	r3, .L34
 699              		.loc 1 169 0
 700 0030 B1EE400A 		vneg.f32	s0, s0
 701              	.LVL52:
 702              	.L34:
 703              		.loc 1 173 0
 704 0034 BDE80840 		pop	{r3, lr}
 705              		.cfi_remember_state
 706              		.cfi_restore 14
 707              		.cfi_restore 3
 708              		.cfi_def_cfa_offset 0
 709              	.LVL53:
 710              		.loc 1 172 0
 711 0038 FFF7FEBF 		b	ldexpf
 712              	.LVL54:
 713              	.L35:
 714              		.cfi_restore_state
 715              		.loc 1 162 0
 716 003c 9FED020A 		vldr.32	s0, .L40+4
 717 0040 F5E7     		b	.L33
 718              	.L41:
 719 0042 00BF     		.align	2
 720              	.L40:
 721 0044 00008033 		.word	864026624
 722 0048 00000000 		.word	0
 723              		.cfi_endproc
 724              	.LFE13:
 725              		.size	buffer_get_float32_auto, .-buffer_get_float32_auto
 726              		.text
 727              	.Letext0:
 728              		.file 2 "/usr/local/Cellar/gcc-arm-none-eabi/20160928/arm-none-eabi/include/machine/_default_types
 729              		.file 3 "/usr/local/Cellar/gcc-arm-none-eabi/20160928/arm-none-eabi/include/sys/_stdint.h"
 730              		.file 4 "/usr/local/Cellar/gcc-arm-none-eabi/20160928/arm-none-eabi/include/math.h"