ARM GAS  /var/folders/sv/kgmgr77579zbf78p2zlhkdfr0000gn/T//ccMuP6SP.s 			page 1


   1              		.syntax unified
   2              		.cpu cortex-m4
   3              		.eabi_attribute 27, 1
   4              		.eabi_attribute 28, 1
   5              		.fpu fpv4-sp-d16
   6              		.eabi_attribute 20, 1
   7              		.eabi_attribute 21, 1
   8              		.eabi_attribute 23, 3
   9              		.eabi_attribute 24, 1
  10              		.eabi_attribute 25, 1
  11              		.eabi_attribute 26, 1
  12              		.eabi_attribute 30, 2
  13              		.eabi_attribute 34, 1
  14              		.eabi_attribute 18, 4
  15              		.thumb
  16              		.syntax unified
  17              		.file	"commands.c"
  18              		.text
  19              	.Ltext0:
  20              		.cfi_sections	.debug_frame
  21              		.section	.text.detect_thread,"ax",%progbits
  22              		.align	2
  23              		.p2align 4,,15
  24              		.thumb
  25              		.thumb_func
  26              		.type	detect_thread, %function
  27              	detect_thread:
  28              	.LFB268:
  29              		.file 1 "commands.c"
  30              		.loc 1 997 0
  31              		.cfi_startproc
  32              		@ args = 0, pretend = 0, frame = 16
  33              		@ frame_needed = 0, uses_anonymous_args = 0
  34              	.LVL0:
  35 0000 2DE9F04F 		push	{r4, r5, r6, r7, r8, r9, r10, fp, lr}
  36              		.cfi_def_cfa_offset 36
  37              		.cfi_offset 4, -36
  38              		.cfi_offset 5, -32
  39              		.cfi_offset 6, -28
  40              		.cfi_offset 7, -24
  41              		.cfi_offset 8, -20
  42              		.cfi_offset 9, -16
  43              		.cfi_offset 10, -12
  44              		.cfi_offset 11, -8
  45              		.cfi_offset 14, -4
  46              	.LBB66:
  47              	.LBB67:
  48              		.file 2 "ChibiOS_3.0.2/os/rt/include/chregistry.h"
  49              		.loc 2 135 0
  50 0004 324B     		ldr	r3, .L12
  51              	.LBE67:
  52              	.LBE66:
  53              		.loc 1 1002 0
  54 0006 334A     		ldr	r2, .L12+4
  55              	.LBB70:
  56              	.LBB68:
  57              		.loc 2 135 0
ARM GAS  /var/folders/sv/kgmgr77579zbf78p2zlhkdfr0000gn/T//ccMuP6SP.s 			page 2


  58 0008 9B69     		ldr	r3, [r3, #24]
  59 000a 3349     		ldr	r1, .L12+8
  60 000c DFF8DCB0 		ldr	fp, .L12+28
  61 0010 DFF8ECA0 		ldr	r10, .L12+48
  62 0014 DFF8EC90 		ldr	r9, .L12+52
  63 0018 DFF8EC80 		ldr	r8, .L12+56
  64 001c 2F4C     		ldr	r4, .L12+12
  65 001e 304F     		ldr	r7, .L12+16
  66              	.LBE68:
  67              	.LBE70:
  68              		.loc 1 997 0
  69 0020 2DED028B 		vpush.64	{d8}
  70              		.cfi_def_cfa_offset 44
  71              		.cfi_offset 80, -44
  72              		.cfi_offset 81, -40
  73 0024 9FED2F8A 		vldr.32	s16, .L12+20
  74              	.LBB71:
  75              		.loc 1 1010 0
  76 0028 DFED2F8A 		vldr.32	s17, .L12+24
  77              	.LBE71:
  78              	.LBB74:
  79              	.LBB69:
  80              		.loc 2 135 0
  81 002c 9961     		str	r1, [r3, #24]
  82              	.LVL1:
  83              	.LBE69:
  84              	.LBE74:
  85              		.loc 1 997 0
  86 002e 85B0     		sub	sp, sp, #20
  87              		.cfi_def_cfa_offset 64
  88              		.loc 1 1002 0
  89 0030 1360     		str	r3, [r2]
  90              	.LVL2:
  91              	.L6:
  92              	.LBB75:
  93              		.loc 1 1007 0
  94 0032 2E4E     		ldr	r6, .L12+28
  95 0034 2E4D     		ldr	r5, .L12+32
  96              		.loc 1 1005 0
  97 0036 0120     		movs	r0, #1
  98 0038 FFF7FEFF 		bl	chEvtWaitAny
  99              	.LVL3:
 100              		.loc 1 1007 0
 101 003c 3146     		mov	r1, r6
 102 003e 2846     		mov	r0, r5
 103 0040 274B     		ldr	r3, .L12+16
 104 0042 2C4A     		ldr	r2, .L12+36
 105 0044 9AED001A 		vldr.32	s2, [r10]
 106 0048 D9ED000A 		vldr.32	s1, [r9]
 107 004c 98ED000A 		vldr.32	s0, [r8]
 108 0050 FFF7FEFF 		bl	conf_general_detect_motor_param
 109              	.LVL4:
 110 0054 68B3     		cbz	r0, .L2
 111 0056 D5ED007A 		vldr.32	s15, [r5]
 112 005a 67EE887A 		vmul.f32	s15, s15, s16
 113 005e FDEEE77A 		vcvt.s32.f32	s15, s15
 114 0062 CDED017A 		vstr.32	s15, [sp, #4]	@ int
ARM GAS  /var/folders/sv/kgmgr77579zbf78p2zlhkdfr0000gn/T//ccMuP6SP.s 			page 3


 115              	.L3:
 116              		.loc 1 1015 0
 117 0066 0120     		movs	r0, #1
 118 0068 1823     		movs	r3, #24
 119              		.loc 1 1016 0
 120 006a 03AA     		add	r2, sp, #12
 121 006c 0199     		ldr	r1, [sp, #4]
 122              		.loc 1 1015 0
 123 006e 0390     		str	r0, [sp, #12]
 124              		.loc 1 1016 0
 125 0070 1A48     		ldr	r0, .L12+12
 126              		.loc 1 1015 0
 127 0072 2370     		strb	r3, [r4]
 128              		.loc 1 1016 0
 129 0074 FFF7FEFF 		bl	buffer_append_int32
 130              	.LVL5:
 131              		.loc 1 1017 0
 132 0078 DBED007A 		vldr.32	s15, [fp]
 133 007c 1748     		ldr	r0, .L12+12
 134 007e 67EE887A 		vmul.f32	s15, s15, s16
 135 0082 03AA     		add	r2, sp, #12
 136 0084 FDEEE77A 		vcvt.s32.f32	s15, s15
 137 0088 17EE901A 		vmov	r1, s15	@ int
 138 008c FFF7FEFF 		bl	buffer_append_int32
 139              	.LVL6:
 140              		.loc 1 1022 0
 141 0090 1949     		ldr	r1, .L12+40
 142              		.loc 1 1018 0
 143 0092 184A     		ldr	r2, .L12+36
 144 0094 039B     		ldr	r3, [sp, #12]
 145              		.loc 1 1022 0
 146 0096 0D68     		ldr	r5, [r1]
 147              		.loc 1 1020 0
 148 0098 3E68     		ldr	r6, [r7]
 149              		.loc 1 1018 0
 150 009a 03CA     		ldmia	r2!, {r0, r1}
 151 009c E218     		adds	r2, r4, r3
 152 009e E050     		str	r0, [r4, r3]	@ unaligned
 153              		.loc 1 1020 0
 154 00a0 0933     		adds	r3, r3, #9
 155              		.loc 1 1018 0
 156 00a2 5160     		str	r1, [r2, #4]	@ unaligned
 157              		.loc 1 1023 0
 158 00a4 0D48     		ldr	r0, .L12+12
 159              		.loc 1 1020 0
 160 00a6 0393     		str	r3, [sp, #12]
 161              		.loc 1 1023 0
 162 00a8 1946     		mov	r1, r3
 163              		.loc 1 1020 0
 164 00aa 1672     		strb	r6, [r2, #8]
 165              		.loc 1 1022 0
 166 00ac 3DB1     		cbz	r5, .L4
 167              		.loc 1 1023 0
 168 00ae A847     		blx	r5
 169              	.LVL7:
 170 00b0 BFE7     		b	.L6
 171              	.L2:
ARM GAS  /var/folders/sv/kgmgr77579zbf78p2zlhkdfr0000gn/T//ccMuP6SP.s 			page 4


 172              		.loc 1 1010 0
 173 00b2 C5ED008A 		vstr.32	s17, [r5]
 174              		.loc 1 1011 0
 175 00b6 C6ED008A 		vstr.32	s17, [r6]
 176 00ba 0190     		str	r0, [sp, #4]
 177 00bc D3E7     		b	.L3
 178              	.L4:
 179              	.LVL8:
 180              	.LBB72:
 181              	.LBB73:
 182              		.loc 1 91 0
 183 00be 1946     		mov	r1, r3
 184              		.loc 1 90 0
 185 00c0 0E4B     		ldr	r3, .L12+44
 186              		.loc 1 91 0
 187 00c2 0648     		ldr	r0, .L12+12
 188              		.loc 1 90 0
 189 00c4 1B68     		ldr	r3, [r3]
 190 00c6 002B     		cmp	r3, #0
 191 00c8 B3D0     		beq	.L6
 192              		.loc 1 91 0
 193 00ca 9847     		blx	r3
 194              	.LVL9:
 195              	.LBE73:
 196              	.LBE72:
 197              	.LBE75:
 198              		.loc 1 1027 0
 199 00cc B1E7     		b	.L6
 200              	.L13:
 201 00ce 00BF     		.align	2
 202              	.L12:
 203 00d0 00000000 		.word	ch
 204 00d4 00000000 		.word	.LANCHOR0
 205 00d8 00000000 		.word	.LC0
 206 00dc 00000000 		.word	.LANCHOR8
 207 00e0 00000000 		.word	.LANCHOR1
 208 00e4 00007A44 		.word	1148846080
 209 00e8 00000000 		.word	0
 210 00ec 00000000 		.word	.LANCHOR3
 211 00f0 00000000 		.word	.LANCHOR4
 212 00f4 00000000 		.word	.LANCHOR2
 213 00f8 00000000 		.word	.LANCHOR9
 214 00fc 00000000 		.word	.LANCHOR10
 215 0100 00000000 		.word	.LANCHOR5
 216 0104 00000000 		.word	.LANCHOR6
 217 0108 00000000 		.word	.LANCHOR7
 218              		.cfi_endproc
 219              	.LFE268:
 220              		.size	detect_thread, .-detect_thread
 221              		.section	.text.commands_init,"ax",%progbits
 222              		.align	2
 223              		.p2align 4,,15
 224              		.global	commands_init
 225              		.thumb
 226              		.thumb_func
 227              		.type	commands_init, %function
 228              	commands_init:
ARM GAS  /var/folders/sv/kgmgr77579zbf78p2zlhkdfr0000gn/T//ccMuP6SP.s 			page 5


 229              	.LFB257:
 230              		.loc 1 66 0
 231              		.cfi_startproc
 232              		@ args = 0, pretend = 0, frame = 0
 233              		@ frame_needed = 0, uses_anonymous_args = 0
 234 0000 00B5     		push	{lr}
 235              		.cfi_def_cfa_offset 4
 236              		.cfi_offset 14, -4
 237 0002 83B0     		sub	sp, sp, #12
 238              		.cfi_def_cfa_offset 16
 239              		.loc 1 67 0
 240 0004 0023     		movs	r3, #0
 241 0006 0093     		str	r3, [sp]
 242 0008 4022     		movs	r2, #64
 243 000a 044B     		ldr	r3, .L16
 244 000c 0448     		ldr	r0, .L16+4
 245 000e 40F69811 		movw	r1, #2456
 246 0012 FFF7FEFF 		bl	chThdCreateStatic
 247              	.LVL10:
 248              		.loc 1 68 0
 249 0016 03B0     		add	sp, sp, #12
 250              		.cfi_def_cfa_offset 4
 251              		@ sp needed
 252 0018 5DF804FB 		ldr	pc, [sp], #4
 253              	.L17:
 254              		.align	2
 255              	.L16:
 256 001c 00000000 		.word	detect_thread
 257 0020 00000000 		.word	.LANCHOR11
 258              		.cfi_endproc
 259              	.LFE257:
 260              		.size	commands_init, .-commands_init
 261              		.section	.text.commands_set_send_func,"ax",%progbits
 262              		.align	2
 263              		.p2align 4,,15
 264              		.global	commands_set_send_func
 265              		.thumb
 266              		.thumb_func
 267              		.type	commands_set_send_func, %function
 268              	commands_set_send_func:
 269              	.LFB258:
 270              		.loc 1 76 0
 271              		.cfi_startproc
 272              		@ args = 0, pretend = 0, frame = 0
 273              		@ frame_needed = 0, uses_anonymous_args = 0
 274              		@ link register save eliminated.
 275              	.LVL11:
 276              		.loc 1 77 0
 277 0000 014B     		ldr	r3, .L19
 278 0002 1860     		str	r0, [r3]
 279 0004 7047     		bx	lr
 280              	.L20:
 281 0006 00BF     		.align	2
 282              	.L19:
 283 0008 00000000 		.word	.LANCHOR10
 284              		.cfi_endproc
 285              	.LFE258:
ARM GAS  /var/folders/sv/kgmgr77579zbf78p2zlhkdfr0000gn/T//ccMuP6SP.s 			page 6


 286              		.size	commands_set_send_func, .-commands_set_send_func
 287              		.section	.text.commands_send_packet,"ax",%progbits
 288              		.align	2
 289              		.p2align 4,,15
 290              		.global	commands_send_packet
 291              		.thumb
 292              		.thumb_func
 293              		.type	commands_send_packet, %function
 294              	commands_send_packet:
 295              	.LFB259:
 296              		.loc 1 89 0
 297              		.cfi_startproc
 298              		@ args = 0, pretend = 0, frame = 0
 299              		@ frame_needed = 0, uses_anonymous_args = 0
 300              		@ link register save eliminated.
 301              	.LVL12:
 302              		.loc 1 90 0
 303 0000 024B     		ldr	r3, .L23
 304 0002 1B68     		ldr	r3, [r3]
 305 0004 03B1     		cbz	r3, .L21
 306              		.loc 1 91 0
 307 0006 1847     		bx	r3	@ indirect register sibling call
 308              	.LVL13:
 309              	.L21:
 310 0008 7047     		bx	lr
 311              	.L24:
 312 000a 00BF     		.align	2
 313              	.L23:
 314 000c 00000000 		.word	.LANCHOR10
 315              		.cfi_endproc
 316              	.LFE259:
 317              		.size	commands_send_packet, .-commands_send_packet
 318              		.section	.text.commands_printf,"ax",%progbits
 319              		.align	2
 320              		.p2align 4,,15
 321              		.global	commands_printf
 322              		.thumb
 323              		.thumb_func
 324              		.type	commands_printf, %function
 325              	commands_printf:
 326              	.LFB261:
 327              		.loc 1 858 0
 328              		.cfi_startproc
 329              		@ args = 4, pretend = 16, frame = 8
 330              		@ frame_needed = 0, uses_anonymous_args = 1
 331              	.LVL14:
 332 0000 0FB4     		push	{r0, r1, r2, r3}
 333              		.cfi_def_cfa_offset 16
 334              		.cfi_offset 0, -16
 335              		.cfi_offset 1, -12
 336              		.cfi_offset 2, -8
 337              		.cfi_offset 3, -4
 338 0002 00B5     		push	{lr}
 339              		.cfi_def_cfa_offset 20
 340              		.cfi_offset 14, -20
 341 0004 83B0     		sub	sp, sp, #12
 342              		.cfi_def_cfa_offset 32
ARM GAS  /var/folders/sv/kgmgr77579zbf78p2zlhkdfr0000gn/T//ccMuP6SP.s 			page 7


 343              		.loc 1 858 0
 344 0006 04AB     		add	r3, sp, #16
 345              		.loc 1 864 0
 346 0008 0C48     		ldr	r0, .L33
 347              		.loc 1 858 0
 348 000a 53F8042B 		ldr	r2, [r3], #4
 349              		.loc 1 860 0
 350 000e 0193     		str	r3, [sp, #4]
 351              		.loc 1 864 0
 352 0010 1521     		movs	r1, #21
 353 0012 00F8011B 		strb	r1, [r0], #1
 354              		.loc 1 865 0
 355 0016 FE21     		movs	r1, #254
 356 0018 FFF7FEFF 		bl	vsnprintf
 357              	.LVL15:
 358              		.loc 1 868 0
 359 001c 0028     		cmp	r0, #0
 360 001e 08DD     		ble	.L25
 361              	.LVL16:
 362              	.LBB76:
 363              	.LBB77:
 364              		.loc 1 90 0
 365 0020 074B     		ldr	r3, .L33+4
 366 0022 1B68     		ldr	r3, [r3]
 367              	.LBE77:
 368              	.LBE76:
 369              		.loc 1 869 0
 370 0024 FD28     		cmp	r0, #253
 371 0026 D4BF     		ite	le
 372 0028 411C     		addle	r1, r0, #1
 373 002a FF21     		movgt	r1, #255
 374              	.LVL17:
 375              	.LBB79:
 376              	.LBB78:
 377              		.loc 1 90 0
 378 002c 0BB1     		cbz	r3, .L25
 379              		.loc 1 91 0
 380 002e 0348     		ldr	r0, .L33
 381              	.LVL18:
 382 0030 9847     		blx	r3
 383              	.LVL19:
 384              	.L25:
 385              	.LBE78:
 386              	.LBE79:
 387              		.loc 1 871 0
 388 0032 03B0     		add	sp, sp, #12
 389              		.cfi_def_cfa_offset 20
 390              		@ sp needed
 391 0034 5DF804EB 		ldr	lr, [sp], #4
 392              		.cfi_restore 14
 393              		.cfi_def_cfa_offset 16
 394 0038 04B0     		add	sp, sp, #16
 395              		.cfi_restore 3
 396              		.cfi_restore 2
 397              		.cfi_restore 1
 398              		.cfi_restore 0
 399              		.cfi_def_cfa_offset 0
ARM GAS  /var/folders/sv/kgmgr77579zbf78p2zlhkdfr0000gn/T//ccMuP6SP.s 			page 8


 400 003a 7047     		bx	lr
 401              	.L34:
 402              		.align	2
 403              	.L33:
 404 003c 00000000 		.word	.LANCHOR12
 405 0040 00000000 		.word	.LANCHOR10
 406              		.cfi_endproc
 407              	.LFE261:
 408              		.size	commands_printf, .-commands_printf
 409              		.section	.text.commands_send_rotor_pos,"ax",%progbits
 410              		.align	2
 411              		.p2align 4,,15
 412              		.global	commands_send_rotor_pos
 413              		.thumb
 414              		.thumb_func
 415              		.type	commands_send_rotor_pos, %function
 416              	commands_send_rotor_pos:
 417              	.LFB262:
 418              		.loc 1 873 0
 419              		.cfi_startproc
 420              		@ args = 0, pretend = 0, frame = 16
 421              		@ frame_needed = 0, uses_anonymous_args = 0
 422              	.LVL20:
 423 0000 10B5     		push	{r4, lr}
 424              		.cfi_def_cfa_offset 8
 425              		.cfi_offset 4, -8
 426              		.cfi_offset 14, -4
 427              		.loc 1 878 0
 428 0002 DFED0D7A 		vldr.32	s15, .L41
 429 0006 20EE270A 		vmul.f32	s0, s0, s15
 430              	.LVL21:
 431              		.loc 1 873 0
 432 000a 84B0     		sub	sp, sp, #16
 433              		.cfi_def_cfa_offset 24
 434              		.loc 1 878 0
 435 000c FDEEC07A 		vcvt.s32.f32	s15, s0
 436              		.loc 1 877 0
 437 0010 1623     		movs	r3, #22
 438              		.loc 1 878 0
 439 0012 17EE901A 		vmov	r1, s15	@ int
 440 0016 02A8     		add	r0, sp, #8
 441              		.loc 1 877 0
 442 0018 0124     		movs	r4, #1
 443              		.loc 1 878 0
 444 001a 01AA     		add	r2, sp, #4
 445              		.loc 1 877 0
 446 001c 8DF80830 		strb	r3, [sp, #8]
 447 0020 0194     		str	r4, [sp, #4]
 448              		.loc 1 878 0
 449 0022 FFF7FEFF 		bl	buffer_append_int32
 450              	.LVL22:
 451              	.LBB80:
 452              	.LBB81:
 453              		.loc 1 90 0
 454 0026 054B     		ldr	r3, .L41+4
 455              	.LBE81:
 456              	.LBE80:
ARM GAS  /var/folders/sv/kgmgr77579zbf78p2zlhkdfr0000gn/T//ccMuP6SP.s 			page 9


 457              		.loc 1 880 0
 458 0028 0199     		ldr	r1, [sp, #4]
 459              	.LVL23:
 460              	.LBB83:
 461              	.LBB82:
 462              		.loc 1 90 0
 463 002a 1B68     		ldr	r3, [r3]
 464 002c 0BB1     		cbz	r3, .L35
 465              		.loc 1 91 0
 466 002e 02A8     		add	r0, sp, #8
 467              	.LVL24:
 468 0030 9847     		blx	r3
 469              	.LVL25:
 470              	.L35:
 471              	.LBE82:
 472              	.LBE83:
 473              		.loc 1 881 0
 474 0032 04B0     		add	sp, sp, #16
 475              		.cfi_def_cfa_offset 8
 476              		@ sp needed
 477 0034 10BD     		pop	{r4, pc}
 478              	.L42:
 479 0036 00BF     		.align	2
 480              	.L41:
 481 0038 0050C347 		.word	1203982336
 482 003c 00000000 		.word	.LANCHOR10
 483              		.cfi_endproc
 484              	.LFE262:
 485              		.size	commands_send_rotor_pos, .-commands_send_rotor_pos
 486              		.section	.text.commands_send_experiment_samples,"ax",%progbits
 487              		.align	2
 488              		.p2align 4,,15
 489              		.global	commands_send_experiment_samples
 490              		.thumb
 491              		.thumb_func
 492              		.type	commands_send_experiment_samples, %function
 493              	commands_send_experiment_samples:
 494              	.LFB263:
 495              		.loc 1 883 0
 496              		.cfi_startproc
 497              		@ args = 0, pretend = 0, frame = 8
 498              		@ frame_needed = 1, uses_anonymous_args = 0
 499              	.LVL26:
 500              		.loc 1 884 0
 501 0000 8B00     		lsls	r3, r1, #2
 502 0002 FF2B     		cmp	r3, #255
 503 0004 34DC     		bgt	.L55
 504              	.LVL27:
 505              		.loc 1 883 0
 506 0006 2DE9F043 		push	{r4, r5, r6, r7, r8, r9, lr}
 507              		.cfi_def_cfa_offset 28
 508              		.cfi_offset 4, -28
 509              		.cfi_offset 5, -24
 510              		.cfi_offset 6, -20
 511              		.cfi_offset 7, -16
 512              		.cfi_offset 8, -12
 513              		.cfi_offset 9, -8
ARM GAS  /var/folders/sv/kgmgr77579zbf78p2zlhkdfr0000gn/T//ccMuP6SP.s 			page 10


 514              		.cfi_offset 14, -4
 515 000a 2DED028B 		vpush.64	{d8}
 516              		.cfi_def_cfa_offset 36
 517              		.cfi_offset 80, -36
 518              		.cfi_offset 81, -32
 519              		.loc 1 888 0
 520 000e 0833     		adds	r3, r3, #8
 521              	.LVL28:
 522              		.loc 1 883 0
 523 0010 83B0     		sub	sp, sp, #12
 524              		.cfi_def_cfa_offset 48
 525              		.loc 1 888 0
 526 0012 23F00703 		bic	r3, r3, #7
 527              	.LVL29:
 528              		.loc 1 883 0
 529 0016 0E46     		mov	r6, r1
 530 0018 00AF     		add	r7, sp, #0
 531              		.cfi_def_cfa_register 7
 532 001a E946     		mov	r9, sp
 533              		.loc 1 888 0
 534 001c ADEB030D 		sub	sp, sp, r3
 535              		.loc 1 891 0
 536 0020 0121     		movs	r1, #1
 537              	.LVL30:
 538 0022 1723     		movs	r3, #23
 539              	.LBB84:
 540              		.loc 1 893 0
 541 0024 002E     		cmp	r6, #0
 542              	.LBE84:
 543              		.loc 1 891 0
 544 0026 8DF80030 		strb	r3, [sp]
 545              		.loc 1 888 0
 546 002a E846     		mov	r8, sp
 547              	.LVL31:
 548              		.loc 1 891 0
 549 002c 7960     		str	r1, [r7, #4]
 550              	.LBB85:
 551              		.loc 1 893 0
 552 002e 13DD     		ble	.L45
 553              		.loc 1 894 0 discriminator 3
 554 0030 9FED108A 		vldr.32	s16, .L56
 555 0034 0546     		mov	r5, r0
 556              		.loc 1 893 0 discriminator 3
 557 0036 0024     		movs	r4, #0
 558              	.LVL32:
 559              	.L46:
 560              		.loc 1 894 0 discriminator 3
 561 0038 F5EC017A 		vldmia.32	r5!, {s15}
 562 003c 67EE887A 		vmul.f32	s15, s15, s16
 563              		.loc 1 893 0 discriminator 3
 564 0040 0134     		adds	r4, r4, #1
 565              	.LVL33:
 566              		.loc 1 894 0 discriminator 3
 567 0042 FDEEE77A 		vcvt.s32.f32	s15, s15
 568 0046 3A1D     		adds	r2, r7, #4
 569 0048 17EE901A 		vmov	r1, s15	@ int
 570 004c 4046     		mov	r0, r8
ARM GAS  /var/folders/sv/kgmgr77579zbf78p2zlhkdfr0000gn/T//ccMuP6SP.s 			page 11


 571 004e FFF7FEFF 		bl	buffer_append_int32
 572              	.LVL34:
 573              		.loc 1 893 0 discriminator 3
 574 0052 A642     		cmp	r6, r4
 575 0054 F0D1     		bne	.L46
 576 0056 7968     		ldr	r1, [r7, #4]
 577              	.LVL35:
 578              	.L45:
 579              	.LBE85:
 580              	.LBB86:
 581              	.LBB87:
 582              		.loc 1 90 0
 583 0058 074B     		ldr	r3, .L56+4
 584 005a 1B68     		ldr	r3, [r3]
 585 005c 0BB1     		cbz	r3, .L47
 586              		.loc 1 91 0
 587 005e 4046     		mov	r0, r8
 588 0060 9847     		blx	r3
 589              	.LVL36:
 590              	.L47:
 591              	.LBE87:
 592              	.LBE86:
 593              		.loc 1 898 0
 594 0062 0C37     		adds	r7, r7, #12
 595              		.cfi_def_cfa_offset 36
 596 0064 CD46     		mov	sp, r9
 597 0066 BD46     		mov	sp, r7
 598              		.cfi_def_cfa_register 13
 599              		@ sp needed
 600 0068 BDEC028B 		vldm	sp!, {d8}
 601              		.cfi_restore 80
 602              		.cfi_restore 81
 603              		.cfi_def_cfa_offset 28
 604 006c BDE8F083 		pop	{r4, r5, r6, r7, r8, r9, pc}
 605              	.LVL37:
 606              	.L55:
 607              		.cfi_def_cfa_offset 0
 608              		.cfi_restore 4
 609              		.cfi_restore 5
 610              		.cfi_restore 6
 611              		.cfi_restore 7
 612              		.cfi_restore 8
 613              		.cfi_restore 9
 614              		.cfi_restore 14
 615 0070 7047     		bx	lr
 616              	.L57:
 617 0072 00BF     		.align	2
 618              	.L56:
 619 0074 00401C46 		.word	1176256512
 620 0078 00000000 		.word	.LANCHOR10
 621              		.cfi_endproc
 622              	.LFE263:
 623              		.size	commands_send_experiment_samples, .-commands_send_experiment_samples
 624              		.section	.text.commands_get_disp_pos_mode,"ax",%progbits
 625              		.align	2
 626              		.p2align 4,,15
 627              		.global	commands_get_disp_pos_mode
ARM GAS  /var/folders/sv/kgmgr77579zbf78p2zlhkdfr0000gn/T//ccMuP6SP.s 			page 12


 628              		.thumb
 629              		.thumb_func
 630              		.type	commands_get_disp_pos_mode, %function
 631              	commands_get_disp_pos_mode:
 632              	.LFB264:
 633              		.loc 1 900 0
 634              		.cfi_startproc
 635              		@ args = 0, pretend = 0, frame = 0
 636              		@ frame_needed = 0, uses_anonymous_args = 0
 637              		@ link register save eliminated.
 638              		.loc 1 901 0
 639 0000 014B     		ldr	r3, .L59
 640              		.loc 1 902 0
 641 0002 1878     		ldrb	r0, [r3]	@ zero_extendqisi2
 642 0004 7047     		bx	lr
 643              	.L60:
 644 0006 00BF     		.align	2
 645              	.L59:
 646 0008 00000000 		.word	.LANCHOR13
 647              		.cfi_endproc
 648              	.LFE264:
 649              		.size	commands_get_disp_pos_mode, .-commands_get_disp_pos_mode
 650              		.section	.text.commands_set_app_data_handler,"ax",%progbits
 651              		.align	2
 652              		.p2align 4,,15
 653              		.global	commands_set_app_data_handler
 654              		.thumb
 655              		.thumb_func
 656              		.type	commands_set_app_data_handler, %function
 657              	commands_set_app_data_handler:
 658              	.LFB265:
 659              		.loc 1 904 0
 660              		.cfi_startproc
 661              		@ args = 0, pretend = 0, frame = 0
 662              		@ frame_needed = 0, uses_anonymous_args = 0
 663              		@ link register save eliminated.
 664              	.LVL38:
 665              		.loc 1 905 0
 666 0000 014B     		ldr	r3, .L62
 667 0002 1860     		str	r0, [r3]
 668 0004 7047     		bx	lr
 669              	.L63:
 670 0006 00BF     		.align	2
 671              	.L62:
 672 0008 00000000 		.word	.LANCHOR14
 673              		.cfi_endproc
 674              	.LFE265:
 675              		.size	commands_set_app_data_handler, .-commands_set_app_data_handler
 676              		.section	.text.commands_send_app_data,"ax",%progbits
 677              		.align	2
 678              		.p2align 4,,15
 679              		.global	commands_send_app_data
 680              		.thumb
 681              		.thumb_func
 682              		.type	commands_send_app_data, %function
 683              	commands_send_app_data:
 684              	.LFB266:
ARM GAS  /var/folders/sv/kgmgr77579zbf78p2zlhkdfr0000gn/T//ccMuP6SP.s 			page 13


 685              		.loc 1 908 0
 686              		.cfi_startproc
 687              		@ args = 0, pretend = 0, frame = 0
 688              		@ frame_needed = 0, uses_anonymous_args = 0
 689              	.LVL39:
 690 0000 70B5     		push	{r4, r5, r6, lr}
 691              		.cfi_def_cfa_offset 16
 692              		.cfi_offset 4, -16
 693              		.cfi_offset 5, -12
 694              		.cfi_offset 6, -8
 695              		.cfi_offset 14, -4
 696              		.loc 1 911 0
 697 0002 0A4D     		ldr	r5, .L67
 698              		.loc 1 908 0
 699 0004 0246     		mov	r2, r0
 700              		.loc 1 911 0
 701 0006 2846     		mov	r0, r5
 702              	.LVL40:
 703 0008 2423     		movs	r3, #36
 704              		.loc 1 908 0
 705 000a 0C46     		mov	r4, r1
 706              		.loc 1 911 0
 707 000c 00F8013B 		strb	r3, [r0], #1
 708              		.loc 1 912 0
 709 0010 1146     		mov	r1, r2
 710              	.LVL41:
 711 0012 2246     		mov	r2, r4
 712              	.LVL42:
 713 0014 FFF7FEFF 		bl	memcpy
 714              	.LVL43:
 715              	.LBB88:
 716              	.LBB89:
 717              		.loc 1 90 0
 718 0018 054B     		ldr	r3, .L67+4
 719 001a 1B68     		ldr	r3, [r3]
 720              	.LVL44:
 721 001c 23B1     		cbz	r3, .L64
 722 001e 611C     		adds	r1, r4, #1
 723              	.LVL45:
 724              		.loc 1 91 0
 725 0020 2846     		mov	r0, r5
 726              	.LBE89:
 727              	.LBE88:
 728              		.loc 1 916 0
 729 0022 BDE87040 		pop	{r4, r5, r6, lr}
 730              		.cfi_remember_state
 731              		.cfi_restore 14
 732              		.cfi_restore 6
 733              		.cfi_restore 5
 734              		.cfi_restore 4
 735              		.cfi_def_cfa_offset 0
 736              	.LVL46:
 737              	.LBB91:
 738              	.LBB90:
 739              		.loc 1 91 0
 740 0026 1847     		bx	r3	@ indirect register sibling call
 741              	.LVL47:
ARM GAS  /var/folders/sv/kgmgr77579zbf78p2zlhkdfr0000gn/T//ccMuP6SP.s 			page 14


 742              	.L64:
 743              		.cfi_restore_state
 744 0028 70BD     		pop	{r4, r5, r6, pc}
 745              	.LVL48:
 746              	.L68:
 747 002a 00BF     		.align	2
 748              	.L67:
 749 002c 00000000 		.word	.LANCHOR8
 750 0030 00000000 		.word	.LANCHOR10
 751              	.LBE90:
 752              	.LBE91:
 753              		.cfi_endproc
 754              	.LFE266:
 755              		.size	commands_send_app_data, .-commands_send_app_data
 756              		.section	.text.commands_send_appconf,"ax",%progbits
 757              		.align	2
 758              		.p2align 4,,15
 759              		.global	commands_send_appconf
 760              		.thumb
 761              		.thumb_func
 762              		.type	commands_send_appconf, %function
 763              	commands_send_appconf:
 764              	.LFB267:
 765              		.loc 1 918 0
 766              		.cfi_startproc
 767              		@ args = 0, pretend = 0, frame = 8
 768              		@ frame_needed = 0, uses_anonymous_args = 0
 769              	.LVL49:
 770 0000 F0B5     		push	{r4, r5, r6, r7, lr}
 771              		.cfi_def_cfa_offset 20
 772              		.cfi_offset 4, -20
 773              		.cfi_offset 5, -16
 774              		.cfi_offset 6, -12
 775              		.cfi_offset 7, -8
 776              		.cfi_offset 14, -4
 777              		.loc 1 920 0
 778 0002 AF4D     		ldr	r5, .L75
 779              		.loc 1 918 0
 780 0004 83B0     		sub	sp, sp, #12
 781              		.cfi_def_cfa_offset 32
 782              		.loc 1 921 0
 783 0006 02AE     		add	r6, sp, #8
 784              		.loc 1 920 0
 785 0008 2870     		strb	r0, [r5]
 786              		.loc 1 921 0
 787 000a 0222     		movs	r2, #2
 788 000c 46F8042D 		str	r2, [r6, #-4]!
 789 0010 0B78     		ldrb	r3, [r1]	@ zero_extendqisi2
 790 0012 6B70     		strb	r3, [r5, #1]
 791              		.loc 1 918 0
 792 0014 0C46     		mov	r4, r1
 793              		.loc 1 922 0
 794 0016 3246     		mov	r2, r6
 795 0018 4968     		ldr	r1, [r1, #4]
 796              	.LVL50:
 797 001a 2846     		mov	r0, r5
 798              	.LVL51:
ARM GAS  /var/folders/sv/kgmgr77579zbf78p2zlhkdfr0000gn/T//ccMuP6SP.s 			page 15


 799 001c FFF7FEFF 		bl	buffer_append_uint32
 800              	.LVL52:
 801              		.loc 1 923 0
 802 0020 3146     		mov	r1, r6
 803 0022 94ED020A 		vldr.32	s0, [r4, #8]
 804 0026 2846     		mov	r0, r5
 805 0028 FFF7FEFF 		bl	buffer_append_float32_auto
 806              	.LVL53:
 807              		.loc 1 924 0
 808 002c 019B     		ldr	r3, [sp, #4]
 809 002e 227B     		ldrb	r2, [r4, #12]	@ zero_extendqisi2
 810 0030 EA54     		strb	r2, [r5, r3]
 811              		.loc 1 925 0
 812 0032 2846     		mov	r0, r5
 813              		.loc 1 924 0
 814 0034 0133     		adds	r3, r3, #1
 815              		.loc 1 925 0
 816 0036 3246     		mov	r2, r6
 817 0038 218A     		ldrh	r1, [r4, #16]
 818              		.loc 1 924 0
 819 003a 0193     		str	r3, [sp, #4]
 820              		.loc 1 925 0
 821 003c FFF7FEFF 		bl	buffer_append_uint16
 822              	.LVL54:
 823              		.loc 1 926 0
 824 0040 019B     		ldr	r3, [sp, #4]
 825 0042 227D     		ldrb	r2, [r4, #20]	@ zero_extendqisi2
 826 0044 EA54     		strb	r2, [r5, r3]
 827              		.loc 1 928 0
 828 0046 EA18     		adds	r2, r5, r3
 829 0048 617D     		ldrb	r1, [r4, #21]	@ zero_extendqisi2
 830 004a 5170     		strb	r1, [r2, #1]
 831              		.loc 1 930 0
 832 004c 217E     		ldrb	r1, [r4, #24]	@ zero_extendqisi2
 833 004e 9170     		strb	r1, [r2, #2]
 834 0050 0333     		adds	r3, r3, #3
 835              		.loc 1 931 0
 836 0052 3146     		mov	r1, r6
 837 0054 94ED070A 		vldr.32	s0, [r4, #28]
 838              		.loc 1 930 0
 839 0058 0193     		str	r3, [sp, #4]
 840              		.loc 1 931 0
 841 005a 2846     		mov	r0, r5
 842 005c FFF7FEFF 		bl	buffer_append_float32_auto
 843              	.LVL55:
 844              		.loc 1 932 0
 845 0060 3146     		mov	r1, r6
 846 0062 94ED080A 		vldr.32	s0, [r4, #32]
 847 0066 2846     		mov	r0, r5
 848 0068 FFF7FEFF 		bl	buffer_append_float32_auto
 849              	.LVL56:
 850              		.loc 1 933 0
 851 006c 3146     		mov	r1, r6
 852 006e 94ED090A 		vldr.32	s0, [r4, #36]
 853 0072 2846     		mov	r0, r5
 854 0074 FFF7FEFF 		bl	buffer_append_float32_auto
 855              	.LVL57:
ARM GAS  /var/folders/sv/kgmgr77579zbf78p2zlhkdfr0000gn/T//ccMuP6SP.s 			page 16


 856              		.loc 1 934 0
 857 0078 3146     		mov	r1, r6
 858 007a 94ED0A0A 		vldr.32	s0, [r4, #40]
 859 007e 2846     		mov	r0, r5
 860 0080 FFF7FEFF 		bl	buffer_append_float32_auto
 861              	.LVL58:
 862              		.loc 1 935 0
 863 0084 3146     		mov	r1, r6
 864 0086 94ED0B0A 		vldr.32	s0, [r4, #44]
 865 008a 2846     		mov	r0, r5
 866 008c FFF7FEFF 		bl	buffer_append_float32_auto
 867              	.LVL59:
 868              		.loc 1 936 0
 869 0090 019B     		ldr	r3, [sp, #4]
 870 0092 94F83020 		ldrb	r2, [r4, #48]	@ zero_extendqisi2
 871 0096 EA54     		strb	r2, [r5, r3]
 872              		.loc 1 937 0
 873 0098 EA18     		adds	r2, r5, r3
 874 009a 94F83110 		ldrb	r1, [r4, #49]	@ zero_extendqisi2
 875 009e 5170     		strb	r1, [r2, #1]
 876 00a0 0233     		adds	r3, r3, #2
 877              		.loc 1 938 0
 878 00a2 3146     		mov	r1, r6
 879 00a4 94ED0D0A 		vldr.32	s0, [r4, #52]
 880              		.loc 1 937 0
 881 00a8 0193     		str	r3, [sp, #4]
 882              		.loc 1 938 0
 883 00aa 2846     		mov	r0, r5
 884 00ac FFF7FEFF 		bl	buffer_append_float32_auto
 885              	.LVL60:
 886              		.loc 1 939 0
 887 00b0 3146     		mov	r1, r6
 888 00b2 94ED0E0A 		vldr.32	s0, [r4, #56]
 889 00b6 2846     		mov	r0, r5
 890 00b8 FFF7FEFF 		bl	buffer_append_float32_auto
 891              	.LVL61:
 892              		.loc 1 940 0
 893 00bc 019B     		ldr	r3, [sp, #4]
 894 00be 94F83C20 		ldrb	r2, [r4, #60]	@ zero_extendqisi2
 895 00c2 EA54     		strb	r2, [r5, r3]
 896              		.loc 1 941 0
 897 00c4 3146     		mov	r1, r6
 898              		.loc 1 940 0
 899 00c6 0133     		adds	r3, r3, #1
 900              		.loc 1 941 0
 901 00c8 94ED100A 		vldr.32	s0, [r4, #64]
 902              		.loc 1 940 0
 903 00cc 0193     		str	r3, [sp, #4]
 904              		.loc 1 941 0
 905 00ce 2846     		mov	r0, r5
 906 00d0 FFF7FEFF 		bl	buffer_append_float32_auto
 907              	.LVL62:
 908              		.loc 1 942 0
 909 00d4 3146     		mov	r1, r6
 910 00d6 94ED110A 		vldr.32	s0, [r4, #68]
 911 00da 2846     		mov	r0, r5
 912 00dc FFF7FEFF 		bl	buffer_append_float32_auto
ARM GAS  /var/folders/sv/kgmgr77579zbf78p2zlhkdfr0000gn/T//ccMuP6SP.s 			page 17


 913              	.LVL63:
 914              		.loc 1 943 0
 915 00e0 019B     		ldr	r3, [sp, #4]
 916 00e2 94F84820 		ldrb	r2, [r4, #72]	@ zero_extendqisi2
 917 00e6 EA54     		strb	r2, [r5, r3]
 918              		.loc 1 944 0
 919 00e8 EA18     		adds	r2, r5, r3
 920 00ea 94F84910 		ldrb	r1, [r4, #73]	@ zero_extendqisi2
 921 00ee 5170     		strb	r1, [r2, #1]
 922 00f0 0233     		adds	r3, r3, #2
 923              		.loc 1 945 0
 924 00f2 3146     		mov	r1, r6
 925 00f4 94ED130A 		vldr.32	s0, [r4, #76]
 926              		.loc 1 944 0
 927 00f8 0193     		str	r3, [sp, #4]
 928              		.loc 1 945 0
 929 00fa 2846     		mov	r0, r5
 930 00fc FFF7FEFF 		bl	buffer_append_float32_auto
 931              	.LVL64:
 932              		.loc 1 947 0
 933 0100 019B     		ldr	r3, [sp, #4]
 934 0102 94F85020 		ldrb	r2, [r4, #80]	@ zero_extendqisi2
 935 0106 EA54     		strb	r2, [r5, r3]
 936              		.loc 1 948 0
 937 0108 3146     		mov	r1, r6
 938              		.loc 1 947 0
 939 010a 0133     		adds	r3, r3, #1
 940              		.loc 1 948 0
 941 010c 94ED150A 		vldr.32	s0, [r4, #84]
 942              		.loc 1 947 0
 943 0110 0193     		str	r3, [sp, #4]
 944              		.loc 1 948 0
 945 0112 2846     		mov	r0, r5
 946 0114 FFF7FEFF 		bl	buffer_append_float32_auto
 947              	.LVL65:
 948              		.loc 1 949 0
 949 0118 3146     		mov	r1, r6
 950 011a 94ED160A 		vldr.32	s0, [r4, #88]
 951 011e 2846     		mov	r0, r5
 952 0120 FFF7FEFF 		bl	buffer_append_float32_auto
 953              	.LVL66:
 954              		.loc 1 950 0
 955 0124 3146     		mov	r1, r6
 956 0126 94ED170A 		vldr.32	s0, [r4, #92]
 957 012a 2846     		mov	r0, r5
 958 012c FFF7FEFF 		bl	buffer_append_float32_auto
 959              	.LVL67:
 960              		.loc 1 951 0
 961 0130 3146     		mov	r1, r6
 962 0132 94ED180A 		vldr.32	s0, [r4, #96]
 963 0136 2846     		mov	r0, r5
 964 0138 FFF7FEFF 		bl	buffer_append_float32_auto
 965              	.LVL68:
 966              		.loc 1 952 0
 967 013c 3146     		mov	r1, r6
 968 013e 94ED190A 		vldr.32	s0, [r4, #100]
 969 0142 2846     		mov	r0, r5
ARM GAS  /var/folders/sv/kgmgr77579zbf78p2zlhkdfr0000gn/T//ccMuP6SP.s 			page 18


 970 0144 FFF7FEFF 		bl	buffer_append_float32_auto
 971              	.LVL69:
 972              		.loc 1 953 0
 973 0148 3146     		mov	r1, r6
 974 014a 94ED1A0A 		vldr.32	s0, [r4, #104]
 975 014e 2846     		mov	r0, r5
 976 0150 FFF7FEFF 		bl	buffer_append_float32_auto
 977              	.LVL70:
 978              		.loc 1 954 0
 979 0154 019B     		ldr	r3, [sp, #4]
 980 0156 94F86C20 		ldrb	r2, [r4, #108]	@ zero_extendqisi2
 981 015a EA54     		strb	r2, [r5, r3]
 982              		.loc 1 955 0
 983 015c EA18     		adds	r2, r5, r3
 984 015e 94F86D10 		ldrb	r1, [r4, #109]	@ zero_extendqisi2
 985 0162 5170     		strb	r1, [r2, #1]
 986              		.loc 1 956 0
 987 0164 94F86E10 		ldrb	r1, [r4, #110]	@ zero_extendqisi2
 988 0168 9170     		strb	r1, [r2, #2]
 989              		.loc 1 957 0
 990 016a 94F86F10 		ldrb	r1, [r4, #111]	@ zero_extendqisi2
 991 016e D170     		strb	r1, [r2, #3]
 992              		.loc 1 958 0
 993 0170 94F87010 		ldrb	r1, [r4, #112]	@ zero_extendqisi2
 994 0174 1171     		strb	r1, [r2, #4]
 995              		.loc 1 959 0
 996 0176 94F87110 		ldrb	r1, [r4, #113]	@ zero_extendqisi2
 997 017a 5171     		strb	r1, [r2, #5]
 998 017c 0633     		adds	r3, r3, #6
 999              		.loc 1 960 0
 1000 017e 3146     		mov	r1, r6
 1001 0180 94ED1D0A 		vldr.32	s0, [r4, #116]
 1002              		.loc 1 959 0
 1003 0184 0193     		str	r3, [sp, #4]
 1004              		.loc 1 960 0
 1005 0186 2846     		mov	r0, r5
 1006 0188 FFF7FEFF 		bl	buffer_append_float32_auto
 1007              	.LVL71:
 1008              		.loc 1 961 0
 1009 018c 3146     		mov	r1, r6
 1010 018e 94ED1E0A 		vldr.32	s0, [r4, #120]
 1011 0192 2846     		mov	r0, r5
 1012 0194 FFF7FEFF 		bl	buffer_append_float32_auto
 1013              	.LVL72:
 1014              		.loc 1 962 0
 1015 0198 019B     		ldr	r3, [sp, #4]
 1016 019a 94F87C20 		ldrb	r2, [r4, #124]	@ zero_extendqisi2
 1017 019e EA54     		strb	r2, [r5, r3]
 1018              		.loc 1 963 0
 1019 01a0 3146     		mov	r1, r6
 1020              		.loc 1 962 0
 1021 01a2 0133     		adds	r3, r3, #1
 1022              		.loc 1 963 0
 1023 01a4 94ED200A 		vldr.32	s0, [r4, #128]
 1024              		.loc 1 962 0
 1025 01a8 0193     		str	r3, [sp, #4]
 1026              		.loc 1 963 0
ARM GAS  /var/folders/sv/kgmgr77579zbf78p2zlhkdfr0000gn/T//ccMuP6SP.s 			page 19


 1027 01aa 2846     		mov	r0, r5
 1028 01ac FFF7FEFF 		bl	buffer_append_float32_auto
 1029              	.LVL73:
 1030              		.loc 1 964 0
 1031 01b0 3146     		mov	r1, r6
 1032 01b2 94ED210A 		vldr.32	s0, [r4, #132]
 1033 01b6 2846     		mov	r0, r5
 1034 01b8 FFF7FEFF 		bl	buffer_append_float32_auto
 1035              	.LVL74:
 1036              		.loc 1 965 0
 1037 01bc 019B     		ldr	r3, [sp, #4]
 1038 01be 94F88820 		ldrb	r2, [r4, #136]	@ zero_extendqisi2
 1039 01c2 EA54     		strb	r2, [r5, r3]
 1040              		.loc 1 966 0
 1041 01c4 EA18     		adds	r2, r5, r3
 1042 01c6 94F88910 		ldrb	r1, [r4, #137]	@ zero_extendqisi2
 1043 01ca 5170     		strb	r1, [r2, #1]
 1044 01cc 0233     		adds	r3, r3, #2
 1045              		.loc 1 967 0
 1046 01ce 94ED230A 		vldr.32	s0, [r4, #140]
 1047              		.loc 1 966 0
 1048 01d2 0193     		str	r3, [sp, #4]
 1049              		.loc 1 967 0
 1050 01d4 3146     		mov	r1, r6
 1051 01d6 2846     		mov	r0, r5
 1052 01d8 FFF7FEFF 		bl	buffer_append_float32_auto
 1053              	.LVL75:
 1054              		.loc 1 968 0
 1055 01dc 3246     		mov	r2, r6
 1056 01de B4F89010 		ldrh	r1, [r4, #144]
 1057 01e2 2846     		mov	r0, r5
 1058 01e4 FFF7FEFF 		bl	buffer_append_uint16
 1059              	.LVL76:
 1060              		.loc 1 970 0
 1061 01e8 3246     		mov	r2, r6
 1062 01ea D4F89410 		ldr	r1, [r4, #148]
 1063 01ee 2846     		mov	r0, r5
 1064 01f0 FFF7FEFF 		bl	buffer_append_uint32
 1065              	.LVL77:
 1066              		.loc 1 972 0
 1067 01f4 019B     		ldr	r3, [sp, #4]
 1068 01f6 94F89820 		ldrb	r2, [r4, #152]	@ zero_extendqisi2
 1069 01fa EA54     		strb	r2, [r5, r3]
 1070              		.loc 1 973 0
 1071 01fc 3146     		mov	r1, r6
 1072              		.loc 1 972 0
 1073 01fe 0133     		adds	r3, r3, #1
 1074              		.loc 1 973 0
 1075 0200 94ED270A 		vldr.32	s0, [r4, #156]
 1076              		.loc 1 972 0
 1077 0204 0193     		str	r3, [sp, #4]
 1078              		.loc 1 973 0
 1079 0206 2846     		mov	r0, r5
 1080 0208 FFF7FEFF 		bl	buffer_append_float32_auto
 1081              	.LVL78:
 1082              		.loc 1 974 0
 1083 020c 3146     		mov	r1, r6
ARM GAS  /var/folders/sv/kgmgr77579zbf78p2zlhkdfr0000gn/T//ccMuP6SP.s 			page 20


 1084 020e 94ED280A 		vldr.32	s0, [r4, #160]
 1085 0212 2846     		mov	r0, r5
 1086 0214 FFF7FEFF 		bl	buffer_append_float32_auto
 1087              	.LVL79:
 1088              		.loc 1 975 0
 1089 0218 3146     		mov	r1, r6
 1090 021a 94ED290A 		vldr.32	s0, [r4, #164]
 1091 021e 2846     		mov	r0, r5
 1092 0220 FFF7FEFF 		bl	buffer_append_float32_auto
 1093              	.LVL80:
 1094              		.loc 1 976 0
 1095 0224 3146     		mov	r1, r6
 1096 0226 94ED2A0A 		vldr.32	s0, [r4, #168]
 1097 022a 2846     		mov	r0, r5
 1098 022c FFF7FEFF 		bl	buffer_append_float32_auto
 1099              	.LVL81:
 1100              		.loc 1 977 0
 1101 0230 3146     		mov	r1, r6
 1102 0232 94ED2B0A 		vldr.32	s0, [r4, #172]
 1103 0236 2846     		mov	r0, r5
 1104 0238 FFF7FEFF 		bl	buffer_append_float32_auto
 1105              	.LVL82:
 1106              		.loc 1 978 0
 1107 023c 3146     		mov	r1, r6
 1108 023e 94ED2C0A 		vldr.32	s0, [r4, #176]
 1109 0242 2846     		mov	r0, r5
 1110 0244 FFF7FEFF 		bl	buffer_append_float32_auto
 1111              	.LVL83:
 1112              		.loc 1 979 0
 1113 0248 019B     		ldr	r3, [sp, #4]
 1114 024a 94F8B420 		ldrb	r2, [r4, #180]	@ zero_extendqisi2
 1115 024e EA54     		strb	r2, [r5, r3]
 1116              		.loc 1 980 0
 1117 0250 EA18     		adds	r2, r5, r3
 1118 0252 94F8B510 		ldrb	r1, [r4, #181]	@ zero_extendqisi2
 1119 0256 5170     		strb	r1, [r2, #1]
 1120              		.loc 1 981 0
 1121 0258 94F8B610 		ldrb	r1, [r4, #182]	@ zero_extendqisi2
 1122 025c 9170     		strb	r1, [r2, #2]
 1123 025e 0333     		adds	r3, r3, #3
 1124              		.loc 1 982 0
 1125 0260 3146     		mov	r1, r6
 1126 0262 2846     		mov	r0, r5
 1127 0264 94ED2E0A 		vldr.32	s0, [r4, #184]
 1128              		.loc 1 981 0
 1129 0268 0193     		str	r3, [sp, #4]
 1130              		.loc 1 982 0
 1131 026a FFF7FEFF 		bl	buffer_append_float32_auto
 1132              	.LVL84:
 1133              		.loc 1 984 0
 1134 026e 0199     		ldr	r1, [sp, #4]
 1135 0270 94F8BC30 		ldrb	r3, [r4, #188]	@ zero_extendqisi2
 1136 0274 6B54     		strb	r3, [r5, r1]
 1137              		.loc 1 985 0
 1138 0276 6B18     		adds	r3, r5, r1
 1139 0278 94F8BD20 		ldrb	r2, [r4, #189]	@ zero_extendqisi2
 1140 027c 5A70     		strb	r2, [r3, #1]
ARM GAS  /var/folders/sv/kgmgr77579zbf78p2zlhkdfr0000gn/T//ccMuP6SP.s 			page 21


 1141              		.loc 1 986 0
 1142 027e 94F8BE20 		ldrb	r2, [r4, #190]	@ zero_extendqisi2
 1143 0282 9A70     		strb	r2, [r3, #2]
 1144              		.loc 1 987 0
 1145 0284 94F8BF20 		ldrb	r2, [r4, #191]	@ zero_extendqisi2
 1146 0288 DA70     		strb	r2, [r3, #3]
 1147              		.loc 1 988 0
 1148 028a 94F8C020 		ldrb	r2, [r4, #192]	@ zero_extendqisi2
 1149 028e 1A71     		strb	r2, [r3, #4]
 1150              		.loc 1 989 0
 1151 0290 94F8C120 		ldrb	r2, [r4, #193]	@ zero_extendqisi2
 1152 0294 5A71     		strb	r2, [r3, #5]
 1153              		.loc 1 990 0
 1154 0296 2046     		mov	r0, r4
 1155 0298 8A1D     		adds	r2, r1, #6
 1156 029a 30F8C27F 		ldrh	r7, [r0, #194]!	@ unaligned
 1157              	.LBB92:
 1158              	.LBB93:
 1159              		.loc 1 90 0
 1160 029e 094E     		ldr	r6, .L75+4
 1161              	.LBE93:
 1162              	.LBE92:
 1163              		.loc 1 990 0
 1164 02a0 8078     		ldrb	r0, [r0, #2]	@ zero_extendqisi2
 1165 02a2 AF52     		strh	r7, [r5, r2]	@ unaligned
 1166 02a4 2A44     		add	r2, r2, r5
 1167              	.LBB96:
 1168              	.LBB94:
 1169              		.loc 1 90 0
 1170 02a6 3668     		ldr	r6, [r6]
 1171              	.LBE94:
 1172              	.LBE96:
 1173              		.loc 1 990 0
 1174 02a8 9070     		strb	r0, [r2, #2]
 1175              		.loc 1 992 0
 1176 02aa 94F8C520 		ldrb	r2, [r4, #197]	@ zero_extendqisi2
 1177 02ae 5A72     		strb	r2, [r3, #9]
 1178              	.LVL85:
 1179 02b0 0A31     		adds	r1, r1, #10
 1180              	.LVL86:
 1181 02b2 0191     		str	r1, [sp, #4]
 1182              	.LBB97:
 1183              	.LBB95:
 1184              		.loc 1 90 0
 1185 02b4 0EB1     		cbz	r6, .L69
 1186              		.loc 1 91 0
 1187 02b6 2846     		mov	r0, r5
 1188 02b8 B047     		blx	r6
 1189              	.LVL87:
 1190              	.L69:
 1191              	.LBE95:
 1192              	.LBE97:
 1193              		.loc 1 995 0
 1194 02ba 03B0     		add	sp, sp, #12
 1195              		.cfi_def_cfa_offset 20
 1196              		@ sp needed
 1197 02bc F0BD     		pop	{r4, r5, r6, r7, pc}
ARM GAS  /var/folders/sv/kgmgr77579zbf78p2zlhkdfr0000gn/T//ccMuP6SP.s 			page 22


 1198              	.LVL88:
 1199              	.L76:
 1200 02be 00BF     		.align	2
 1201              	.L75:
 1202 02c0 00000000 		.word	.LANCHOR8
 1203 02c4 00000000 		.word	.LANCHOR10
 1204              		.cfi_endproc
 1205              	.LFE267:
 1206              		.size	commands_send_appconf, .-commands_send_appconf
 1207              		.section	.text.commands_process_packet,"ax",%progbits
 1208              		.align	2
 1209              		.p2align 4,,15
 1210              		.global	commands_process_packet
 1211              		.thumb
 1212              		.thumb_func
 1213              		.type	commands_process_packet, %function
 1214              	commands_process_packet:
 1215              	.LFB260:
 1216              		.loc 1 104 0
 1217              		.cfi_startproc
 1218              		@ args = 0, pretend = 0, frame = 216
 1219              		@ frame_needed = 0, uses_anonymous_args = 0
 1220              	.LVL89:
 1221              		.loc 1 105 0
 1222 0000 B1B3     		cbz	r1, .L189
 1223              		.loc 1 104 0
 1224 0002 2DE9F047 		push	{r4, r5, r6, r7, r8, r9, r10, lr}
 1225              		.cfi_def_cfa_offset 32
 1226              		.cfi_offset 4, -32
 1227              		.cfi_offset 5, -28
 1228              		.cfi_offset 6, -24
 1229              		.cfi_offset 7, -20
 1230              		.cfi_offset 8, -16
 1231              		.cfi_offset 9, -12
 1232              		.cfi_offset 10, -8
 1233              		.cfi_offset 14, -4
 1234 0006 2DED048B 		vpush.64	{d8, d9}
 1235              		.cfi_def_cfa_offset 48
 1236              		.cfi_offset 80, -48
 1237              		.cfi_offset 81, -44
 1238              		.cfi_offset 82, -40
 1239              		.cfi_offset 83, -36
 1240              		.loc 1 117 0
 1241 000a 0446     		mov	r4, r0
 1242              		.loc 1 104 0
 1243 000c B6B0     		sub	sp, sp, #216
 1244              		.cfi_def_cfa_offset 264
 1245              		.loc 1 117 0
 1246 000e 14F8018B 		ldrb	r8, [r4], #1	@ zero_extendqisi2
 1247              	.LVL90:
 1248              		.loc 1 110 0
 1249 0012 0023     		movs	r3, #0
 1250 0014 0746     		mov	r7, r0
 1251 0016 0293     		str	r3, [sp, #8]
 1252              		.loc 1 119 0
 1253 0018 4D1E     		subs	r5, r1, #1
 1254              	.LVL91:
ARM GAS  /var/folders/sv/kgmgr77579zbf78p2zlhkdfr0000gn/T//ccMuP6SP.s 			page 23


 1255              		.loc 1 121 0
 1256 001a B8F1250F 		cmp	r8, #37
 1257 001e 70D8     		bhi	.L77
 1258 0020 DFE818F0 		tbh	[pc, r8, lsl #1]
 1259              	.L81:
 1260 0024 850A     		.2byte	(.L80-.L81)/2
 1261 0026 810A     		.2byte	(.L82-.L81)/2
 1262 0028 6B0A     		.2byte	(.L83-.L81)/2
 1263 002a 4E0A     		.2byte	(.L84-.L81)/2
 1264 002c A809     		.2byte	(.L85-.L81)/2
 1265 002e 9609     		.2byte	(.L86-.L81)/2
 1266 0030 8409     		.2byte	(.L87-.L81)/2
 1267 0032 7209     		.2byte	(.L88-.L81)/2
 1268 0034 6409     		.2byte	(.L89-.L81)/2
 1269 0036 5209     		.2byte	(.L90-.L81)/2
 1270 0038 4609     		.2byte	(.L91-.L81)/2
 1271 003a 7400     		.2byte	(.L92-.L81)/2
 1272 003c 6F00     		.2byte	(.L77-.L81)/2
 1273 003e 6E06     		.2byte	(.L93-.L81)/2
 1274 0040 4004     		.2byte	(.L94-.L81)/2
 1275 0042 4004     		.2byte	(.L94-.L81)/2
 1276 0044 6E02     		.2byte	(.L95-.L81)/2
 1277 0046 4902     		.2byte	(.L96-.L81)/2
 1278 0048 4902     		.2byte	(.L96-.L81)/2
 1279 004a 2A04     		.2byte	(.L97-.L81)/2
 1280 004c 2404     		.2byte	(.L98-.L81)/2
 1281 004e 6F00     		.2byte	(.L77-.L81)/2
 1282 0050 6F00     		.2byte	(.L77-.L81)/2
 1283 0052 6F00     		.2byte	(.L77-.L81)/2
 1284 0054 2402     		.2byte	(.L99-.L81)/2
 1285 0056 D401     		.2byte	(.L100-.L81)/2
 1286 0058 2700     		.2byte	(.L101-.L81)/2
 1287 005a 4F01     		.2byte	(.L102-.L81)/2
 1288 005c FE00     		.2byte	(.L103-.L81)/2
 1289 005e FC00     		.2byte	(.L104-.L81)/2
 1290 0060 8B00     		.2byte	(.L105-.L81)/2
 1291 0062 8E00     		.2byte	(.L106-.L81)/2
 1292 0064 CA00     		.2byte	(.L107-.L81)/2
 1293 0066 BC00     		.2byte	(.L108-.L81)/2
 1294 0068 000B     		.2byte	(.L109-.L81)/2
 1295 006a BF0A     		.2byte	(.L110-.L81)/2
 1296 006c B70A     		.2byte	(.L111-.L81)/2
 1297 006e A30A     		.2byte	(.L112-.L81)/2
 1298              	.LVL92:
 1299              		.p2align 1
 1300              	.L189:
 1301              		.cfi_def_cfa_offset 0
 1302              		.cfi_restore 4
 1303              		.cfi_restore 5
 1304              		.cfi_restore 6
 1305              		.cfi_restore 7
 1306              		.cfi_restore 8
 1307              		.cfi_restore 9
 1308              		.cfi_restore 10
 1309              		.cfi_restore 14
 1310              		.cfi_restore 80
 1311              		.cfi_restore 81
ARM GAS  /var/folders/sv/kgmgr77579zbf78p2zlhkdfr0000gn/T//ccMuP6SP.s 			page 24


 1312              		.cfi_restore 82
 1313              		.cfi_restore 83
 1314 0070 7047     		bx	lr
 1315              	.LVL93:
 1316              	.L101:
 1317              		.cfi_def_cfa_offset 264
 1318              		.cfi_offset 4, -32
 1319              		.cfi_offset 5, -28
 1320              		.cfi_offset 6, -24
 1321              		.cfi_offset 7, -20
 1322              		.cfi_offset 8, -16
 1323              		.cfi_offset 9, -12
 1324              		.cfi_offset 10, -8
 1325              		.cfi_offset 14, -4
 1326              		.cfi_offset 80, -48
 1327              		.cfi_offset 81, -44
 1328              		.cfi_offset 82, -40
 1329              		.cfi_offset 83, -36
 1330              	.LBB98:
 1331              		.loc 1 677 0
 1332 0072 02A9     		add	r1, sp, #8
 1333 0074 2046     		mov	r0, r4
 1334 0076 9FEDC80A 		vldr.32	s0, .L205
 1335              		.loc 1 682 0
 1336 007a C84D     		ldr	r5, .L205+4
 1337              	.LVL94:
 1338 007c C84E     		ldr	r6, .L205+8
 1339              		.loc 1 677 0
 1340 007e FFF7FEFF 		bl	buffer_get_float32
 1341              	.LVL95:
 1342              		.loc 1 678 0
 1343 0082 02A9     		add	r1, sp, #8
 1344              		.loc 1 677 0
 1345 0084 B0EE408A 		vmov.f32	s16, s0
 1346              	.LVL96:
 1347              		.loc 1 678 0
 1348 0088 2046     		mov	r0, r4
 1349 008a 9FEDC30A 		vldr.32	s0, .L205
 1350              	.LVL97:
 1351 008e FFF7FEFF 		bl	buffer_get_float32
 1352              	.LVL98:
 1353              		.loc 1 679 0
 1354 0092 02A9     		add	r1, sp, #8
 1355              		.loc 1 678 0
 1356 0094 B0EE409A 		vmov.f32	s18, s0
 1357              	.LVL99:
 1358              		.loc 1 679 0
 1359 0098 2046     		mov	r0, r4
 1360 009a 9FEDBF0A 		vldr.32	s0, .L205
 1361              	.LVL100:
 1362 009e FFF7FEFF 		bl	buffer_get_float32
 1363              	.LVL101:
 1364              		.loc 1 680 0
 1365 00a2 2046     		mov	r0, r4
 1366              		.loc 1 679 0
 1367 00a4 F0EE408A 		vmov.f32	s17, s0
 1368              	.LVL102:
ARM GAS  /var/folders/sv/kgmgr77579zbf78p2zlhkdfr0000gn/T//ccMuP6SP.s 			page 25


 1369              		.loc 1 680 0
 1370 00a8 02A9     		add	r1, sp, #8
 1371 00aa 9FEDBE0A 		vldr.32	s0, .L205+12
 1372              	.LVL103:
 1373 00ae FFF7FEFF 		bl	buffer_get_float32
 1374              	.LVL104:
 1375              		.loc 1 682 0
 1376 00b2 2B68     		ldr	r3, [r5]
 1377 00b4 3360     		str	r3, [r6]
 1378              		.loc 1 685 0
 1379 00b6 F0EE401A 		vmov.f32	s3, s0
 1380 00ba B0EE491A 		vmov.f32	s2, s18
 1381 00be F0EE680A 		vmov.f32	s1, s17
 1382 00c2 B0EE480A 		vmov.f32	s0, s16
 1383              	.LVL105:
 1384 00c6 04A8     		add	r0, sp, #16
 1385 00c8 FFF7FEFF 		bl	conf_general_measure_flux_linkage
 1386              	.LVL106:
 1387              		.loc 1 687 0
 1388 00cc 0028     		cmp	r0, #0
 1389 00ce 41F0B582 		bne	.L199
 1390              		.loc 1 688 0
 1391 00d2 DFEDB57A 		vldr.32	s15, .L205+16
 1392 00d6 B0EE670A 		vmov.f32	s0, s15
 1393 00da CDED047A 		vstr.32	s15, [sp, #16]
 1394              	.L126:
 1395              		.loc 1 692 0
 1396 00de B34C     		ldr	r4, .L205+20
 1397              	.LVL107:
 1398              		.loc 1 693 0
 1399 00e0 DFEDB30A 		vldr.32	s1, .L205+24
 1400              		.loc 1 692 0
 1401 00e4 0123     		movs	r3, #1
 1402 00e6 1A22     		movs	r2, #26
 1403              		.loc 1 693 0
 1404 00e8 02A9     		add	r1, sp, #8
 1405 00ea 2046     		mov	r0, r4
 1406              	.LVL108:
 1407              		.loc 1 692 0
 1408 00ec 0293     		str	r3, [sp, #8]
 1409 00ee 2270     		strb	r2, [r4]
 1410              		.loc 1 693 0
 1411 00f0 FFF7FEFF 		bl	buffer_append_float32
 1412              	.LVL109:
 1413              		.loc 1 694 0
 1414 00f4 3368     		ldr	r3, [r6]
 1415 00f6 002B     		cmp	r3, #0
 1416 00f8 00F0B281 		beq	.L127
 1417              	.LVL110:
 1418              	.L193:
 1419              		.loc 1 695 0
 1420 00fc 2046     		mov	r0, r4
 1421 00fe 0299     		ldr	r1, [sp, #8]
 1422 0100 9847     		blx	r3
 1423              	.LVL111:
 1424              	.L77:
 1425              	.LBE98:
ARM GAS  /var/folders/sv/kgmgr77579zbf78p2zlhkdfr0000gn/T//ccMuP6SP.s 			page 26


 1426              		.loc 1 856 0
 1427 0102 36B0     		add	sp, sp, #216
 1428              		.cfi_remember_state
 1429              		.cfi_def_cfa_offset 48
 1430              		@ sp needed
 1431 0104 BDEC048B 		vldm	sp!, {d8-d9}
 1432              		.cfi_restore 82
 1433              		.cfi_restore 83
 1434              		.cfi_restore 80
 1435              		.cfi_restore 81
 1436              		.cfi_def_cfa_offset 32
 1437 0108 BDE8F087 		pop	{r4, r5, r6, r7, r8, r9, r10, pc}
 1438              	.LVL112:
 1439              	.L92:
 1440              		.cfi_restore_state
 1441              		.loc 1 224 0
 1442 010c FFF7FEFF 		bl	mc_interface_get_configuration
 1443              	.LVL113:
 1444 0110 A84B     		ldr	r3, .L205+28
 1445 0112 0146     		mov	r1, r0
 1446 0114 4FF4BA72 		mov	r2, #372
 1447 0118 1846     		mov	r0, r3
 1448 011a FFF7FEFF 		bl	memcpy
 1449              	.LVL114:
 1450              		.loc 1 227 0
 1451 011e A649     		ldr	r1, .L205+32
 1452 0120 7B78     		ldrb	r3, [r7, #1]	@ zero_extendqisi2
 1453              		.loc 1 229 0
 1454 0122 8278     		ldrb	r2, [r0, #2]	@ zero_extendqisi2
 1455              		.loc 1 227 0
 1456 0124 0B70     		strb	r3, [r1]
 1457 0126 0121     		movs	r1, #1
 1458 0128 0291     		str	r1, [sp, #8]
 1459              		.loc 1 229 0
 1460 012a 32B9     		cbnz	r2, .L105
 1461              		.loc 1 230 0
 1462 012c 002B     		cmp	r3, #0
 1463 012e 01F09382 		beq	.L200
 1464              		.loc 1 232 0
 1465 0132 012B     		cmp	r3, #1
 1466 0134 01D1     		bne	.L105
 1467              		.loc 1 233 0
 1468 0136 FFF7FEFF 		bl	mcpwm_set_detect
 1469              	.LVL115:
 1470              	.L105:
 1471              		.loc 1 793 0
 1472 013a FFF7FEFF 		bl	timeout_reset
 1473              	.LVL116:
 1474              		.loc 1 794 0
 1475 013e E0E7     		b	.L77
 1476              	.L106:
 1477              		.loc 1 798 0
 1478 0140 36AD     		add	r5, sp, #216
 1479              	.LVL117:
 1480 0142 9A4C     		ldr	r4, .L205+20
 1481              	.LVL118:
 1482              		.loc 1 799 0
ARM GAS  /var/folders/sv/kgmgr77579zbf78p2zlhkdfr0000gn/T//ccMuP6SP.s 			page 27


 1483 0144 9FED978A 		vldr.32	s16, .L205+12
 1484              		.loc 1 798 0
 1485 0148 1F23     		movs	r3, #31
 1486 014a 0122     		movs	r2, #1
 1487 014c 2370     		strb	r3, [r4]
 1488 014e 45F8D02D 		str	r2, [r5, #-208]!
 1489              		.loc 1 799 0
 1490 0152 FFF7FEFF 		bl	app_ppm_get_decoded_level
 1491              	.LVL119:
 1492 0156 20EE080A 		vmul.f32	s0, s0, s16
 1493 015a 2A46     		mov	r2, r5
 1494 015c FDEEC07A 		vcvt.s32.f32	s15, s0
 1495 0160 2046     		mov	r0, r4
 1496 0162 17EE901A 		vmov	r1, s15	@ int
 1497 0166 FFF7FEFF 		bl	buffer_append_int32
 1498              	.LVL120:
 1499              		.loc 1 800 0
 1500 016a 0020     		movs	r0, #0
 1501 016c FFF7FEFF 		bl	servodec_get_last_pulse_len
 1502              	.LVL121:
 1503 0170 20EE080A 		vmul.f32	s0, s0, s16
 1504              	.L196:
 1505              		.loc 1 817 0
 1506 0174 FDEEC07A 		vcvt.s32.f32	s15, s0
 1507 0178 2A46     		mov	r2, r5
 1508 017a 17EE901A 		vmov	r1, s15	@ int
 1509 017e 2046     		mov	r0, r4
 1510 0180 FFF7FEFF 		bl	buffer_append_int32
 1511              	.LVL122:
 1512              	.LBB103:
 1513              	.LBB104:
 1514              		.loc 1 90 0
 1515 0184 854B     		ldr	r3, .L205+4
 1516              	.LBE104:
 1517              	.LBE103:
 1518              		.loc 1 818 0
 1519 0186 0299     		ldr	r1, [sp, #8]
 1520              	.LVL123:
 1521              	.LBB106:
 1522              	.LBB105:
 1523              		.loc 1 90 0
 1524 0188 1B68     		ldr	r3, [r3]
 1525 018a 002B     		cmp	r3, #0
 1526 018c B9D0     		beq	.L77
 1527              	.LVL124:
 1528              	.L191:
 1529              	.LBE105:
 1530              	.LBE106:
 1531              		.loc 1 839 0
 1532 018e 2046     		mov	r0, r4
 1533 0190 9847     		blx	r3
 1534              	.LVL125:
 1535              		.loc 1 856 0
 1536 0192 36B0     		add	sp, sp, #216
 1537              		.cfi_remember_state
 1538              		.cfi_def_cfa_offset 48
 1539              		@ sp needed
ARM GAS  /var/folders/sv/kgmgr77579zbf78p2zlhkdfr0000gn/T//ccMuP6SP.s 			page 28


 1540 0194 BDEC048B 		vldm	sp!, {d8-d9}
 1541              		.cfi_restore 80
 1542              		.cfi_restore 81
 1543              		.cfi_restore 82
 1544              		.cfi_restore 83
 1545              		.cfi_def_cfa_offset 32
 1546 0198 BDE8F087 		pop	{r4, r5, r6, r7, r8, r9, r10, pc}
 1547              	.LVL126:
 1548              	.L108:
 1549              		.cfi_restore_state
 1550              		.loc 1 816 0
 1551 019c 36AD     		add	r5, sp, #216
 1552              	.LVL127:
 1553 019e 834C     		ldr	r4, .L205+20
 1554              	.LVL128:
 1555 01a0 0122     		movs	r2, #1
 1556 01a2 2123     		movs	r3, #33
 1557 01a4 45F8D02D 		str	r2, [r5, #-208]!
 1558 01a8 2370     		strb	r3, [r4]
 1559              		.loc 1 817 0
 1560 01aa FFF7FEFF 		bl	app_nunchuk_get_decoded_chuk
 1561              	.LVL129:
 1562 01ae DFED7D7A 		vldr.32	s15, .L205+12
 1563 01b2 20EE270A 		vmul.f32	s0, s0, s15
 1564 01b6 DDE7     		b	.L196
 1565              	.LVL130:
 1566              	.L107:
 1567              		.loc 1 806 0
 1568 01b8 36AD     		add	r5, sp, #216
 1569              	.LVL131:
 1570 01ba 7C4C     		ldr	r4, .L205+20
 1571              	.LVL132:
 1572              		.loc 1 807 0
 1573 01bc 9FED798A 		vldr.32	s16, .L205+12
 1574              		.loc 1 806 0
 1575 01c0 2023     		movs	r3, #32
 1576 01c2 0122     		movs	r2, #1
 1577 01c4 2370     		strb	r3, [r4]
 1578 01c6 45F8D02D 		str	r2, [r5, #-208]!
 1579              		.loc 1 807 0
 1580 01ca FFF7FEFF 		bl	app_adc_get_decoded_level
 1581              	.LVL133:
 1582 01ce 20EE080A 		vmul.f32	s0, s0, s16
 1583 01d2 2A46     		mov	r2, r5
 1584 01d4 FDEEC07A 		vcvt.s32.f32	s15, s0
 1585 01d8 2046     		mov	r0, r4
 1586 01da 17EE901A 		vmov	r1, s15	@ int
 1587 01de FFF7FEFF 		bl	buffer_append_int32
 1588              	.LVL134:
 1589              		.loc 1 808 0
 1590 01e2 FFF7FEFF 		bl	app_adc_get_voltage
 1591              	.LVL135:
 1592 01e6 20EE080A 		vmul.f32	s0, s0, s16
 1593 01ea 2A46     		mov	r2, r5
 1594 01ec FDEEC07A 		vcvt.s32.f32	s15, s0
 1595 01f0 2046     		mov	r0, r4
 1596 01f2 17EE901A 		vmov	r1, s15	@ int
ARM GAS  /var/folders/sv/kgmgr77579zbf78p2zlhkdfr0000gn/T//ccMuP6SP.s 			page 29


 1597 01f6 FFF7FEFF 		bl	buffer_append_int32
 1598              	.LVL136:
 1599              		.loc 1 809 0
 1600 01fa FFF7FEFF 		bl	app_adc_get_decoded_level2
 1601              	.LVL137:
 1602 01fe 20EE080A 		vmul.f32	s0, s0, s16
 1603 0202 2A46     		mov	r2, r5
 1604 0204 FDEEC07A 		vcvt.s32.f32	s15, s0
 1605 0208 2046     		mov	r0, r4
 1606 020a 17EE901A 		vmov	r1, s15	@ int
 1607 020e FFF7FEFF 		bl	buffer_append_int32
 1608              	.LVL138:
 1609              		.loc 1 810 0
 1610 0212 FFF7FEFF 		bl	app_adc_get_voltage2
 1611              	.LVL139:
 1612 0216 20EE080A 		vmul.f32	s0, s0, s16
 1613 021a ABE7     		b	.L196
 1614              	.LVL140:
 1615              	.L104:
 1616              	.LBB107:
 1617              	.LBB108:
 1618              		.file 3 "ChibiOS_3.0.2/os/ext/CMSIS/include/core_cmFunc.h"
 1619              		.loc 3 342 0
 1620              		.syntax unified
 1621              	@ 342 "ChibiOS_3.0.2/os/ext/CMSIS/include/core_cmFunc.h" 1
 1622 021c 72B6     		cpsid i
 1623              	@ 0 "" 2
 1624              		.thumb
 1625              		.syntax unified
 1626              	.L135:
 1627 021e FEE7     		b	.L135
 1628              	.L103:
 1629              	.LBE108:
 1630              	.LBE107:
 1631              		.loc 1 746 0
 1632 0220 FFF7FEFF 		bl	mc_interface_get_configuration
 1633              	.LVL141:
 1634 0224 634D     		ldr	r5, .L205+28
 1635              	.LVL142:
 1636 0226 0146     		mov	r1, r0
 1637 0228 4FF4BA72 		mov	r2, #372
 1638 022c 2846     		mov	r0, r5
 1639 022e FFF7FEFF 		bl	memcpy
 1640              	.LVL143:
 1641              		.loc 1 748 0
 1642 0232 95F85C81 		ldrb	r8, [r5, #348]	@ zero_extendqisi2
 1643              	.LVL144:
 1644 0236 B8F1000F 		cmp	r8, #0
 1645 023a 41F04D82 		bne	.L132
 1646              	.LBB109:
 1647              		.loc 1 749 0
 1648 023e 4FF4BA72 		mov	r2, #372
 1649 0242 2946     		mov	r1, r5
 1650 0244 5D48     		ldr	r0, .L205+36
 1651              		.loc 1 753 0
 1652 0246 554E     		ldr	r6, .L205+4
 1653 0248 554F     		ldr	r7, .L205+8
ARM GAS  /var/folders/sv/kgmgr77579zbf78p2zlhkdfr0000gn/T//ccMuP6SP.s 			page 30


 1654              		.loc 1 749 0
 1655 024a FFF7FEFF 		bl	memcpy
 1656              	.LVL145:
 1657              		.loc 1 750 0
 1658 024e 36A9     		add	r1, sp, #216
 1659              		.loc 1 751 0
 1660 0250 2046     		mov	r0, r4
 1661              		.loc 1 750 0
 1662 0252 41F8D08D 		str	r8, [r1, #-208]!
 1663              		.loc 1 751 0
 1664 0256 9FED500A 		vldr.32	s0, .L205
 1665              		.loc 1 756 0
 1666 025a 594C     		ldr	r4, .L205+40
 1667              	.LVL146:
 1668              		.loc 1 751 0
 1669 025c FFF7FEFF 		bl	buffer_get_float32
 1670              	.LVL147:
 1671              		.loc 1 753 0
 1672 0260 3368     		ldr	r3, [r6]
 1673              		.loc 1 757 0
 1674 0262 5849     		ldr	r1, .L205+44
 1675              		.loc 1 753 0
 1676 0264 3B60     		str	r3, [r7]
 1677              		.loc 1 755 0
 1678 0266 0322     		movs	r2, #3
 1679              		.loc 1 758 0
 1680 0268 574B     		ldr	r3, .L205+48
 1681              		.loc 1 757 0
 1682 026a C5F8A410 		str	r1, [r5, #164]	@ float
 1683              		.loc 1 759 0
 1684 026e 2846     		mov	r0, r5
 1685              		.loc 1 751 0
 1686 0270 B0EE408A 		vmov.f32	s16, s0
 1687              	.LVL148:
 1688              		.loc 1 755 0
 1689 0274 AA70     		strb	r2, [r5, #2]
 1690              		.loc 1 758 0
 1691 0276 C5F8A830 		str	r3, [r5, #168]	@ float
 1692              		.loc 1 756 0
 1693 027a C5F8AC40 		str	r4, [r5, #172]	@ float
 1694              		.loc 1 759 0
 1695 027e FFF7FEFF 		bl	mc_interface_set_configuration
 1696              	.LVL149:
 1697              		.loc 1 762 0
 1698 0282 B0EE480A 		vmov.f32	s0, s16
 1699 0286 04A8     		add	r0, sp, #16
 1700 0288 FFF7FEFF 		bl	mcpwm_foc_hall_detect
 1701              	.LVL150:
 1702 028c 0446     		mov	r4, r0
 1703              	.LVL151:
 1704              		.loc 1 763 0
 1705 028e 4B48     		ldr	r0, .L205+36
 1706 0290 FFF7FEFF 		bl	mc_interface_set_configuration
 1707              	.LVL152:
 1708              		.loc 1 766 0
 1709 0294 454A     		ldr	r2, .L205+20
 1710              		.loc 1 771 0
ARM GAS  /var/folders/sv/kgmgr77579zbf78p2zlhkdfr0000gn/T//ccMuP6SP.s 			page 31


 1711 0296 3F68     		ldr	r7, [r7]
 1712              		.loc 1 766 0
 1713 0298 1546     		mov	r5, r2
 1714              		.loc 1 767 0
 1715 029a 04AB     		add	r3, sp, #16
 1716 029c 03CB     		ldmia	r3!, {r0, r1}
 1717              		.loc 1 766 0
 1718 029e 1C23     		movs	r3, #28
 1719 02a0 05F8013B 		strb	r3, [r5], #1
 1720              		.loc 1 769 0
 1721 02a4 84F00104 		eor	r4, r4, #1
 1722              	.LVL153:
 1723 02a8 0A23     		movs	r3, #10
 1724              		.loc 1 767 0
 1725 02aa C2F80100 		str	r0, [r2, #1]	@ unaligned
 1726              		.loc 1 769 0
 1727 02ae 0293     		str	r3, [sp, #8]
 1728              		.loc 1 767 0
 1729 02b0 6960     		str	r1, [r5, #4]	@ unaligned
 1730              		.loc 1 769 0
 1731 02b2 5472     		strb	r4, [r2, #9]
 1732              		.loc 1 771 0
 1733 02b4 002F     		cmp	r7, #0
 1734 02b6 01F00682 		beq	.L133
 1735              		.loc 1 772 0
 1736 02ba 1946     		mov	r1, r3
 1737 02bc 1046     		mov	r0, r2
 1738 02be B847     		blx	r7
 1739              	.LVL154:
 1740 02c0 1FE7     		b	.L77
 1741              	.LVL155:
 1742              	.L102:
 1743              	.LBE109:
 1744              		.loc 1 703 0
 1745 02c2 FFF7FEFF 		bl	encoder_is_configured
 1746              	.LVL156:
 1747 02c6 0646     		mov	r6, r0
 1748 02c8 0028     		cmp	r0, #0
 1749 02ca 01F0DA81 		beq	.L129
 1750              	.LBB112:
 1751              		.loc 1 704 0
 1752 02ce FFF7FEFF 		bl	mc_interface_get_configuration
 1753              	.LVL157:
 1754 02d2 384D     		ldr	r5, .L205+28
 1755              	.LVL158:
 1756              		.loc 1 707 0
 1757 02d4 DFF8C480 		ldr	r8, .L205+4
 1758              	.LVL159:
 1759 02d8 DFF8C490 		ldr	r9, .L205+8
 1760              		.loc 1 725 0
 1761 02dc 334E     		ldr	r6, .L205+20
 1762              		.loc 1 709 0
 1763 02de 36AF     		add	r7, sp, #216
 1764              		.loc 1 704 0
 1765 02e0 0146     		mov	r1, r0
 1766 02e2 4FF4BA72 		mov	r2, #372
 1767 02e6 2846     		mov	r0, r5
ARM GAS  /var/folders/sv/kgmgr77579zbf78p2zlhkdfr0000gn/T//ccMuP6SP.s 			page 32


 1768 02e8 FFF7FEFF 		bl	memcpy
 1769              	.LVL160:
 1770              		.loc 1 709 0
 1771 02ec 4FF0000A 		mov	r10, #0
 1772              		.loc 1 705 0
 1773 02f0 4FF4BA72 		mov	r2, #372
 1774 02f4 2946     		mov	r1, r5
 1775 02f6 3148     		ldr	r0, .L205+36
 1776 02f8 FFF7FEFF 		bl	memcpy
 1777              	.LVL161:
 1778              		.loc 1 709 0
 1779 02fc 47F8D0AD 		str	r10, [r7, #-208]!
 1780              		.loc 1 710 0
 1781 0300 2046     		mov	r0, r4
 1782              		.loc 1 707 0
 1783 0302 D8F80030 		ldr	r3, [r8]
 1784              		.loc 1 710 0
 1785 0306 9FED240A 		vldr.32	s0, .L205
 1786              		.loc 1 707 0
 1787 030a C9F80030 		str	r3, [r9]
 1788              		.loc 1 710 0
 1789 030e 3946     		mov	r1, r7
 1790 0310 FFF7FEFF 		bl	buffer_get_float32
 1791              	.LVL162:
 1792              		.loc 1 713 0
 1793 0314 2A4B     		ldr	r3, .L205+40
 1794              		.loc 1 714 0
 1795 0316 2B4A     		ldr	r2, .L205+44
 1796              		.loc 1 713 0
 1797 0318 C5F8AC30 		str	r3, [r5, #172]	@ float
 1798              		.loc 1 712 0
 1799 031c 0321     		movs	r1, #3
 1800              		.loc 1 715 0
 1801 031e 2A4B     		ldr	r3, .L205+48
 1802              		.loc 1 712 0
 1803 0320 A970     		strb	r1, [r5, #2]
 1804              		.loc 1 716 0
 1805 0322 2846     		mov	r0, r5
 1806              		.loc 1 710 0
 1807 0324 B0EE408A 		vmov.f32	s16, s0
 1808              	.LVL163:
 1809              		.loc 1 714 0
 1810 0328 C5F8A420 		str	r2, [r5, #164]	@ float
 1811              		.loc 1 715 0
 1812 032c C5F8A830 		str	r3, [r5, #168]	@ float
 1813              		.loc 1 716 0
 1814 0330 FFF7FEFF 		bl	mc_interface_set_configuration
 1815              	.LVL164:
 1816              		.loc 1 720 0
 1817 0334 36AB     		add	r3, sp, #216
 1818              		.loc 1 721 0
 1819 0336 B0EE480A 		vmov.f32	s0, s16
 1820              		.loc 1 720 0
 1821 033a 03F8D1AD 		strb	r10, [r3, #-209]!
 1822              		.loc 1 721 0
 1823 033e 04AA     		add	r2, sp, #16
 1824 0340 03A9     		add	r1, sp, #12
ARM GAS  /var/folders/sv/kgmgr77579zbf78p2zlhkdfr0000gn/T//ccMuP6SP.s 			page 33


 1825              		.loc 1 718 0
 1826 0342 0024     		movs	r4, #0
 1827              	.LVL165:
 1828              		.loc 1 721 0
 1829 0344 5046     		mov	r0, r10
 1830              		.loc 1 718 0
 1831 0346 0394     		str	r4, [sp, #12]	@ float
 1832              		.loc 1 719 0
 1833 0348 0494     		str	r4, [sp, #16]	@ float
 1834              		.loc 1 721 0
 1835 034a FFF7FEFF 		bl	mcpwm_foc_encoder_detect
 1836              	.LVL166:
 1837              		.loc 1 722 0
 1838 034e 1B48     		ldr	r0, .L205+36
 1839 0350 FFF7FEFF 		bl	mc_interface_set_configuration
 1840              	.LVL167:
 1841              		.loc 1 725 0
 1842 0354 1B22     		movs	r2, #27
 1843 0356 0123     		movs	r3, #1
 1844              		.loc 1 726 0
 1845 0358 3946     		mov	r1, r7
 1846 035a 3046     		mov	r0, r6
 1847 035c DFED110A 		vldr.32	s1, .L205+12
 1848 0360 9DED030A 		vldr.32	s0, [sp, #12]
 1849              		.loc 1 725 0
 1850 0364 3270     		strb	r2, [r6]
 1851 0366 0293     		str	r3, [sp, #8]
 1852              		.loc 1 726 0
 1853 0368 FFF7FEFF 		bl	buffer_append_float32
 1854              	.LVL168:
 1855              		.loc 1 727 0
 1856 036c 3946     		mov	r1, r7
 1857 036e 3046     		mov	r0, r6
 1858 0370 DFED0C0A 		vldr.32	s1, .L205+12
 1859 0374 9DED040A 		vldr.32	s0, [sp, #16]
 1860 0378 FFF7FEFF 		bl	buffer_append_float32
 1861              	.LVL169:
 1862              		.loc 1 728 0
 1863 037c 0299     		ldr	r1, [sp, #8]
 1864 037e 9DF80720 		ldrb	r2, [sp, #7]	@ zero_extendqisi2
 1865              		.loc 1 729 0
 1866 0382 D9F80030 		ldr	r3, [r9]
 1867              		.loc 1 728 0
 1868 0386 7254     		strb	r2, [r6, r1]
 1869 0388 0131     		adds	r1, r1, #1
 1870 038a 0291     		str	r1, [sp, #8]
 1871              		.loc 1 729 0
 1872 038c 002B     		cmp	r3, #0
 1873 038e 01F07181 		beq	.L201
 1874              	.L194:
 1875              	.LBB113:
 1876              	.LBB114:
 1877              		.loc 1 91 0
 1878 0392 3046     		mov	r0, r6
 1879 0394 9847     		blx	r3
 1880              	.LVL170:
 1881 0396 B4E6     		b	.L77
ARM GAS  /var/folders/sv/kgmgr77579zbf78p2zlhkdfr0000gn/T//ccMuP6SP.s 			page 34


 1882              	.L206:
 1883              		.align	2
 1884              	.L205:
 1885 0398 00007A44 		.word	1148846080
 1886 039c 00000000 		.word	.LANCHOR10
 1887 03a0 00000000 		.word	.LANCHOR9
 1888 03a4 00247449 		.word	1232348160
 1889 03a8 00000000 		.word	0
 1890 03ac 00000000 		.word	.LANCHOR8
 1891 03b0 8096184B 		.word	1259902592
 1892 03b4 00000000 		.word	.LANCHOR15
 1893 03b8 00000000 		.word	.LANCHOR13
 1894 03bc 00000000 		.word	.LANCHOR16
 1895 03c0 00401C46 		.word	1176256512
 1896 03c4 0AD7233C 		.word	1008981770
 1897 03c8 00002041 		.word	1092616192
 1898              	.LVL171:
 1899              	.L100:
 1900              	.LBE114:
 1901              	.LBE113:
 1902              	.LBE112:
 1903              	.LBB117:
 1904              		.loc 1 645 0
 1905 03cc FFF7FEFF 		bl	mc_interface_get_configuration
 1906              	.LVL172:
 1907 03d0 3F4C     		ldr	r4, .L207
 1908              	.LVL173:
 1909              		.loc 1 648 0
 1910 03d2 404D     		ldr	r5, .L207+4
 1911              	.LVL174:
 1912              		.loc 1 653 0
 1913 03d4 9FED408A 		vldr.32	s16, .L207+8
 1914              		.loc 1 648 0
 1915 03d8 404E     		ldr	r6, .L207+12
 1916              		.loc 1 645 0
 1917 03da 0146     		mov	r1, r0
 1918 03dc 4FF4BA72 		mov	r2, #372
 1919 03e0 2046     		mov	r0, r4
 1920 03e2 FFF7FEFF 		bl	memcpy
 1921              	.LVL175:
 1922              		.loc 1 646 0
 1923 03e6 2146     		mov	r1, r4
 1924 03e8 4FF4BA72 		mov	r2, #372
 1925 03ec 3C48     		ldr	r0, .L207+16
 1926 03ee FFF7FEFF 		bl	memcpy
 1927              	.LVL176:
 1928              		.loc 1 650 0
 1929 03f2 0322     		movs	r2, #3
 1930              		.loc 1 651 0
 1931 03f4 2046     		mov	r0, r4
 1932              		.loc 1 648 0
 1933 03f6 2B68     		ldr	r3, [r5]
 1934              		.loc 1 650 0
 1935 03f8 A270     		strb	r2, [r4, #2]
 1936              		.loc 1 648 0
 1937 03fa 3360     		str	r3, [r6]
 1938              		.loc 1 651 0
ARM GAS  /var/folders/sv/kgmgr77579zbf78p2zlhkdfr0000gn/T//ccMuP6SP.s 			page 35


 1939 03fc FFF7FEFF 		bl	mc_interface_set_configuration
 1940              	.LVL177:
 1941              		.loc 1 654 0
 1942 0400 36A9     		add	r1, sp, #216
 1943 0402 18EE103A 		vmov	r3, s16
 1944              		.loc 1 655 0
 1945 0406 03A8     		add	r0, sp, #12
 1946              		.loc 1 654 0
 1947 0408 41F8C83D 		str	r3, [r1, #-200]!	@ float
 1948              		.loc 1 653 0
 1949 040c 8DED038A 		vstr.32	s16, [sp, #12]
 1950              		.loc 1 655 0
 1951 0410 FFF7FEFF 		bl	mcpwm_foc_measure_res_ind
 1952              	.LVL178:
 1953 0414 0446     		mov	r4, r0
 1954              	.LVL179:
 1955              		.loc 1 656 0
 1956 0416 3248     		ldr	r0, .L207+16
 1957 0418 FFF7FEFF 		bl	mc_interface_set_configuration
 1958              	.LVL180:
 1959              		.loc 1 658 0
 1960 041c 002C     		cmp	r4, #0
 1961 041e 41F00981 		bne	.L202
 1962              		.loc 1 660 0
 1963 0422 B0EE480A 		vmov.f32	s0, s16
 1964              		.loc 1 659 0
 1965 0426 8DED038A 		vstr.32	s16, [sp, #12]
 1966              		.loc 1 660 0
 1967 042a 8DED048A 		vstr.32	s16, [sp, #16]
 1968              	.L122:
 1969              		.loc 1 664 0
 1970 042e 36AF     		add	r7, sp, #216
 1971              	.LVL181:
 1972 0430 0123     		movs	r3, #1
 1973 0432 47F8D03D 		str	r3, [r7, #-208]!
 1974 0436 2B4C     		ldr	r4, .L207+20
 1975              	.LVL182:
 1976              		.loc 1 665 0
 1977 0438 DFED2B0A 		vldr.32	s1, .L207+24
 1978              		.loc 1 664 0
 1979 043c 1923     		movs	r3, #25
 1980              		.loc 1 665 0
 1981 043e 3946     		mov	r1, r7
 1982 0440 2046     		mov	r0, r4
 1983              		.loc 1 664 0
 1984 0442 2370     		strb	r3, [r4]
 1985              		.loc 1 665 0
 1986 0444 FFF7FEFF 		bl	buffer_append_float32
 1987              	.LVL183:
 1988              		.loc 1 666 0
 1989 0448 3946     		mov	r1, r7
 1990 044a 2046     		mov	r0, r4
 1991 044c DFED270A 		vldr.32	s1, .L207+28
 1992 0450 9DED040A 		vldr.32	s0, [sp, #16]
 1993 0454 FFF7FEFF 		bl	buffer_append_float32
 1994              	.LVL184:
 1995              		.loc 1 667 0
ARM GAS  /var/folders/sv/kgmgr77579zbf78p2zlhkdfr0000gn/T//ccMuP6SP.s 			page 36


 1996 0458 3368     		ldr	r3, [r6]
 1997 045a 002B     		cmp	r3, #0
 1998 045c 7FF44EAE 		bne	.L193
 1999              	.L127:
 2000              	.LBE117:
 2001              	.LBB118:
 2002              	.LBB99:
 2003              	.LBB100:
 2004              		.loc 1 90 0
 2005 0460 2B68     		ldr	r3, [r5]
 2006              	.LBE100:
 2007              	.LBE99:
 2008              		.loc 1 697 0
 2009 0462 0299     		ldr	r1, [sp, #8]
 2010              	.LVL185:
 2011              	.LBB102:
 2012              	.LBB101:
 2013              		.loc 1 90 0
 2014 0464 002B     		cmp	r3, #0
 2015 0466 7FF492AE 		bne	.L191
 2016 046a 4AE6     		b	.L77
 2017              	.LVL186:
 2018              	.L99:
 2019              	.LBE101:
 2020              	.LBE102:
 2021              	.LBE118:
 2022              		.loc 1 635 0
 2023 046c 02A9     		add	r1, sp, #8
 2024 046e 2046     		mov	r0, r4
 2025 0470 9FED1E0A 		vldr.32	s0, .L207+28
 2026 0474 FFF7FEFF 		bl	buffer_get_float32
 2027              	.LVL187:
 2028 0478 1D4B     		ldr	r3, .L207+32
 2029              		.loc 1 636 0
 2030 047a 02A9     		add	r1, sp, #8
 2031              		.loc 1 635 0
 2032 047c 83ED000A 		vstr.32	s0, [r3]
 2033              		.loc 1 636 0
 2034 0480 2046     		mov	r0, r4
 2035 0482 9FED1A0A 		vldr.32	s0, .L207+28
 2036 0486 FFF7FEFF 		bl	buffer_get_float32
 2037              	.LVL188:
 2038 048a 1A4B     		ldr	r3, .L207+36
 2039              		.loc 1 637 0
 2040 048c 02A9     		add	r1, sp, #8
 2041 048e 2046     		mov	r0, r4
 2042              		.loc 1 636 0
 2043 0490 83ED000A 		vstr.32	s0, [r3]
 2044              		.loc 1 637 0
 2045 0494 9FED150A 		vldr.32	s0, .L207+28
 2046 0498 FFF7FEFF 		bl	buffer_get_float32
 2047              	.LVL189:
 2048 049c 1649     		ldr	r1, .L207+40
 2049              		.loc 1 639 0
 2050 049e 0D4A     		ldr	r2, .L207+4
 2051              		.loc 1 641 0
 2052 04a0 1648     		ldr	r0, .L207+44
ARM GAS  /var/folders/sv/kgmgr77579zbf78p2zlhkdfr0000gn/T//ccMuP6SP.s 			page 37


 2053              		.loc 1 639 0
 2054 04a2 0E4B     		ldr	r3, .L207+12
 2055 04a4 1268     		ldr	r2, [r2]
 2056              		.loc 1 637 0
 2057 04a6 81ED000A 		vstr.32	s0, [r1]
 2058              		.loc 1 641 0
 2059 04aa 0068     		ldr	r0, [r0]
 2060              		.loc 1 639 0
 2061 04ac 1A60     		str	r2, [r3]
 2062              		.loc 1 641 0
 2063 04ae 0121     		movs	r1, #1
 2064 04b0 FFF7FEFF 		bl	chEvtSignal
 2065              	.LVL190:
 2066              		.loc 1 642 0
 2067 04b4 25E6     		b	.L77
 2068              	.L96:
 2069              		.loc 1 607 0
 2070 04b6 B8F1110F 		cmp	r8, #17
 2071 04ba 01F0D180 		beq	.L203
 2072              		.loc 1 610 0
 2073 04be 04AC     		add	r4, sp, #16
 2074              	.LVL191:
 2075 04c0 2046     		mov	r0, r4
 2076              	.LVL192:
 2077 04c2 FFF7FEFF 		bl	conf_general_get_default_app_configuration
 2078              	.LVL193:
 2079              	.L120:
 2080              		.loc 1 613 0
 2081 04c6 2146     		mov	r1, r4
 2082 04c8 4046     		mov	r0, r8
 2083 04ca FFF7FEFF 		bl	commands_send_appconf
 2084              	.LVL194:
 2085              		.loc 1 614 0
 2086 04ce 18E6     		b	.L77
 2087              	.L208:
 2088              		.align	2
 2089              	.L207:
 2090 04d0 00000000 		.word	.LANCHOR15
 2091 04d4 00000000 		.word	.LANCHOR10
 2092 04d8 00000000 		.word	0
 2093 04dc 00000000 		.word	.LANCHOR9
 2094 04e0 00000000 		.word	.LANCHOR16
 2095 04e4 00000000 		.word	.LANCHOR8
 2096 04e8 00247449 		.word	1232348160
 2097 04ec 00007A44 		.word	1148846080
 2098 04f0 00000000 		.word	.LANCHOR7
 2099 04f4 00000000 		.word	.LANCHOR6
 2100 04f8 00000000 		.word	.LANCHOR5
 2101 04fc 00000000 		.word	.LANCHOR0
 2102              	.LVL195:
 2103              	.L95:
 2104              		.loc 1 519 0
 2105 0500 FFF7FEFF 		bl	app_get_configuration
 2106              	.LVL196:
 2107 0504 C822     		movs	r2, #200
 2108 0506 0146     		mov	r1, r0
 2109 0508 04A8     		add	r0, sp, #16
ARM GAS  /var/folders/sv/kgmgr77579zbf78p2zlhkdfr0000gn/T//ccMuP6SP.s 			page 38


 2110              		.loc 1 522 0
 2111 050a 0125     		movs	r5, #1
 2112              	.LVL197:
 2113              		.loc 1 519 0
 2114 050c FFF7FEFF 		bl	memcpy
 2115              	.LVL198:
 2116              		.loc 1 522 0
 2117 0510 7B78     		ldrb	r3, [r7, #1]	@ zero_extendqisi2
 2118 0512 8DF81030 		strb	r3, [sp, #16]
 2119              		.loc 1 523 0
 2120 0516 02A9     		add	r1, sp, #8
 2121 0518 2046     		mov	r0, r4
 2122              		.loc 1 522 0
 2123 051a 0295     		str	r5, [sp, #8]
 2124              		.loc 1 523 0
 2125 051c FFF7FEFF 		bl	buffer_get_uint32
 2126              	.LVL199:
 2127              		.loc 1 524 0
 2128 0520 02A9     		add	r1, sp, #8
 2129              		.loc 1 523 0
 2130 0522 0590     		str	r0, [sp, #20]
 2131              		.loc 1 524 0
 2132 0524 2046     		mov	r0, r4
 2133 0526 FFF7FEFF 		bl	buffer_get_float32_auto
 2134              	.LVL200:
 2135              		.loc 1 525 0
 2136 052a 029B     		ldr	r3, [sp, #8]
 2137 052c E25C     		ldrb	r2, [r4, r3]	@ zero_extendqisi2
 2138              		.loc 1 524 0
 2139 052e 8DED060A 		vstr.32	s0, [sp, #24]
 2140              		.loc 1 525 0
 2141 0532 0032     		adds	r2, r2, #0
 2142 0534 18BF     		it	ne
 2143 0536 0122     		movne	r2, #1
 2144 0538 2B44     		add	r3, r3, r5
 2145              		.loc 1 526 0
 2146 053a 02A9     		add	r1, sp, #8
 2147 053c 2046     		mov	r0, r4
 2148              		.loc 1 525 0
 2149 053e 8DF81C20 		strb	r2, [sp, #28]
 2150 0542 0293     		str	r3, [sp, #8]
 2151              		.loc 1 526 0
 2152 0544 FFF7FEFF 		bl	buffer_get_uint16
 2153              	.LVL201:
 2154              		.loc 1 527 0
 2155 0548 029B     		ldr	r3, [sp, #8]
 2156              		.loc 1 526 0
 2157 054a 0890     		str	r0, [sp, #32]
 2158              		.loc 1 529 0
 2159 054c 9A1C     		adds	r2, r3, #2
 2160              		.loc 1 527 0
 2161 054e 5919     		adds	r1, r3, r5
 2162              		.loc 1 531 0
 2163 0550 A05C     		ldrb	r0, [r4, r2]	@ zero_extendqisi2
 2164              		.loc 1 529 0
 2165 0552 615C     		ldrb	r1, [r4, r1]	@ zero_extendqisi2
 2166              		.loc 1 527 0
ARM GAS  /var/folders/sv/kgmgr77579zbf78p2zlhkdfr0000gn/T//ccMuP6SP.s 			page 39


 2167 0554 E25C     		ldrb	r2, [r4, r3]	@ zero_extendqisi2
 2168              		.loc 1 529 0
 2169 0556 8DF82510 		strb	r1, [sp, #37]
 2170              		.loc 1 531 0
 2171 055a 0333     		adds	r3, r3, #3
 2172              		.loc 1 532 0
 2173 055c 02A9     		add	r1, sp, #8
 2174              		.loc 1 531 0
 2175 055e 8DF82800 		strb	r0, [sp, #40]
 2176              		.loc 1 532 0
 2177 0562 2046     		mov	r0, r4
 2178              		.loc 1 527 0
 2179 0564 8DF82420 		strb	r2, [sp, #36]
 2180              		.loc 1 531 0
 2181 0568 0293     		str	r3, [sp, #8]
 2182              		.loc 1 532 0
 2183 056a FFF7FEFF 		bl	buffer_get_float32_auto
 2184              	.LVL202:
 2185              		.loc 1 533 0
 2186 056e 2046     		mov	r0, r4
 2187 0570 02A9     		add	r1, sp, #8
 2188              		.loc 1 532 0
 2189 0572 8DED0B0A 		vstr.32	s0, [sp, #44]
 2190              		.loc 1 533 0
 2191 0576 FFF7FEFF 		bl	buffer_get_float32_auto
 2192              	.LVL203:
 2193              		.loc 1 534 0
 2194 057a 2046     		mov	r0, r4
 2195 057c 02A9     		add	r1, sp, #8
 2196              		.loc 1 533 0
 2197 057e 8DED0C0A 		vstr.32	s0, [sp, #48]
 2198              		.loc 1 534 0
 2199 0582 FFF7FEFF 		bl	buffer_get_float32_auto
 2200              	.LVL204:
 2201              		.loc 1 535 0
 2202 0586 2046     		mov	r0, r4
 2203 0588 02A9     		add	r1, sp, #8
 2204              		.loc 1 534 0
 2205 058a 8DED0D0A 		vstr.32	s0, [sp, #52]
 2206              		.loc 1 535 0
 2207 058e FFF7FEFF 		bl	buffer_get_float32_auto
 2208              	.LVL205:
 2209              		.loc 1 536 0
 2210 0592 2046     		mov	r0, r4
 2211 0594 02A9     		add	r1, sp, #8
 2212              		.loc 1 535 0
 2213 0596 8DED0E0A 		vstr.32	s0, [sp, #56]
 2214              		.loc 1 536 0
 2215 059a FFF7FEFF 		bl	buffer_get_float32_auto
 2216              	.LVL206:
 2217              		.loc 1 537 0
 2218 059e 029B     		ldr	r3, [sp, #8]
 2219 05a0 5919     		adds	r1, r3, r5
 2220 05a2 E25C     		ldrb	r2, [r4, r3]	@ zero_extendqisi2
 2221              		.loc 1 538 0
 2222 05a4 605C     		ldrb	r0, [r4, r1]	@ zero_extendqisi2
 2223              		.loc 1 536 0
ARM GAS  /var/folders/sv/kgmgr77579zbf78p2zlhkdfr0000gn/T//ccMuP6SP.s 			page 40


 2224 05a6 8DED0F0A 		vstr.32	s0, [sp, #60]
 2225              		.loc 1 537 0
 2226 05aa 0032     		adds	r2, r2, #0
 2227 05ac 18BF     		it	ne
 2228 05ae 0122     		movne	r2, #1
 2229              		.loc 1 538 0
 2230 05b0 0030     		adds	r0, r0, #0
 2231 05b2 18BF     		it	ne
 2232 05b4 0120     		movne	r0, #1
 2233 05b6 0233     		adds	r3, r3, #2
 2234              		.loc 1 539 0
 2235 05b8 02A9     		add	r1, sp, #8
 2236              		.loc 1 538 0
 2237 05ba 8DF84100 		strb	r0, [sp, #65]
 2238              		.loc 1 539 0
 2239 05be 2046     		mov	r0, r4
 2240              		.loc 1 537 0
 2241 05c0 8DF84020 		strb	r2, [sp, #64]
 2242              		.loc 1 538 0
 2243 05c4 0293     		str	r3, [sp, #8]
 2244              		.loc 1 539 0
 2245 05c6 FFF7FEFF 		bl	buffer_get_float32_auto
 2246              	.LVL207:
 2247              		.loc 1 540 0
 2248 05ca 2046     		mov	r0, r4
 2249 05cc 02A9     		add	r1, sp, #8
 2250              		.loc 1 539 0
 2251 05ce 8DED110A 		vstr.32	s0, [sp, #68]
 2252              		.loc 1 540 0
 2253 05d2 FFF7FEFF 		bl	buffer_get_float32_auto
 2254              	.LVL208:
 2255              		.loc 1 541 0
 2256 05d6 029B     		ldr	r3, [sp, #8]
 2257              		.loc 1 542 0
 2258 05d8 2046     		mov	r0, r4
 2259              		.loc 1 541 0
 2260 05da 5A19     		adds	r2, r3, r5
 2261              		.loc 1 542 0
 2262 05dc 02A9     		add	r1, sp, #8
 2263              		.loc 1 541 0
 2264 05de E35C     		ldrb	r3, [r4, r3]	@ zero_extendqisi2
 2265 05e0 8DF84C30 		strb	r3, [sp, #76]
 2266 05e4 0292     		str	r2, [sp, #8]
 2267              		.loc 1 540 0
 2268 05e6 8DED120A 		vstr.32	s0, [sp, #72]
 2269              		.loc 1 542 0
 2270 05ea FFF7FEFF 		bl	buffer_get_float32_auto
 2271              	.LVL209:
 2272              		.loc 1 543 0
 2273 05ee 2046     		mov	r0, r4
 2274 05f0 02A9     		add	r1, sp, #8
 2275              		.loc 1 542 0
 2276 05f2 8DED140A 		vstr.32	s0, [sp, #80]
 2277              		.loc 1 543 0
 2278 05f6 FFF7FEFF 		bl	buffer_get_float32_auto
 2279              	.LVL210:
 2280              		.loc 1 544 0
ARM GAS  /var/folders/sv/kgmgr77579zbf78p2zlhkdfr0000gn/T//ccMuP6SP.s 			page 41


 2281 05fa 029B     		ldr	r3, [sp, #8]
 2282 05fc 5919     		adds	r1, r3, r5
 2283 05fe E25C     		ldrb	r2, [r4, r3]	@ zero_extendqisi2
 2284              		.loc 1 545 0
 2285 0600 605C     		ldrb	r0, [r4, r1]	@ zero_extendqisi2
 2286              		.loc 1 543 0
 2287 0602 8DED150A 		vstr.32	s0, [sp, #84]
 2288              		.loc 1 544 0
 2289 0606 0032     		adds	r2, r2, #0
 2290 0608 18BF     		it	ne
 2291 060a 0122     		movne	r2, #1
 2292              		.loc 1 545 0
 2293 060c 0030     		adds	r0, r0, #0
 2294 060e 18BF     		it	ne
 2295 0610 0120     		movne	r0, #1
 2296 0612 0233     		adds	r3, r3, #2
 2297              		.loc 1 546 0
 2298 0614 02A9     		add	r1, sp, #8
 2299              		.loc 1 545 0
 2300 0616 8DF85900 		strb	r0, [sp, #89]
 2301              		.loc 1 546 0
 2302 061a 2046     		mov	r0, r4
 2303              		.loc 1 544 0
 2304 061c 8DF85820 		strb	r2, [sp, #88]
 2305              		.loc 1 545 0
 2306 0620 0293     		str	r3, [sp, #8]
 2307              		.loc 1 546 0
 2308 0622 FFF7FEFF 		bl	buffer_get_float32_auto
 2309              	.LVL211:
 2310              		.loc 1 548 0
 2311 0626 029B     		ldr	r3, [sp, #8]
 2312              		.loc 1 549 0
 2313 0628 2046     		mov	r0, r4
 2314              		.loc 1 548 0
 2315 062a 5A19     		adds	r2, r3, r5
 2316              		.loc 1 549 0
 2317 062c 02A9     		add	r1, sp, #8
 2318              		.loc 1 548 0
 2319 062e E35C     		ldrb	r3, [r4, r3]	@ zero_extendqisi2
 2320 0630 8DF86030 		strb	r3, [sp, #96]
 2321 0634 0292     		str	r2, [sp, #8]
 2322              		.loc 1 546 0
 2323 0636 8DED170A 		vstr.32	s0, [sp, #92]
 2324              		.loc 1 549 0
 2325 063a FFF7FEFF 		bl	buffer_get_float32_auto
 2326              	.LVL212:
 2327              		.loc 1 550 0
 2328 063e 2046     		mov	r0, r4
 2329 0640 02A9     		add	r1, sp, #8
 2330              		.loc 1 549 0
 2331 0642 8DED190A 		vstr.32	s0, [sp, #100]
 2332              		.loc 1 550 0
 2333 0646 FFF7FEFF 		bl	buffer_get_float32_auto
 2334              	.LVL213:
 2335              		.loc 1 551 0
 2336 064a 2046     		mov	r0, r4
 2337 064c 02A9     		add	r1, sp, #8
ARM GAS  /var/folders/sv/kgmgr77579zbf78p2zlhkdfr0000gn/T//ccMuP6SP.s 			page 42


 2338              		.loc 1 550 0
 2339 064e 8DED1A0A 		vstr.32	s0, [sp, #104]
 2340              		.loc 1 551 0
 2341 0652 FFF7FEFF 		bl	buffer_get_float32_auto
 2342              	.LVL214:
 2343              		.loc 1 552 0
 2344 0656 2046     		mov	r0, r4
 2345 0658 02A9     		add	r1, sp, #8
 2346              		.loc 1 551 0
 2347 065a 8DED1B0A 		vstr.32	s0, [sp, #108]
 2348              		.loc 1 552 0
 2349 065e FFF7FEFF 		bl	buffer_get_float32_auto
 2350              	.LVL215:
 2351              		.loc 1 553 0
 2352 0662 2046     		mov	r0, r4
 2353 0664 02A9     		add	r1, sp, #8
 2354              		.loc 1 552 0
 2355 0666 8DED1C0A 		vstr.32	s0, [sp, #112]
 2356              		.loc 1 553 0
 2357 066a FFF7FEFF 		bl	buffer_get_float32_auto
 2358              	.LVL216:
 2359              		.loc 1 554 0
 2360 066e 2046     		mov	r0, r4
 2361 0670 02A9     		add	r1, sp, #8
 2362              		.loc 1 553 0
 2363 0672 8DED1D0A 		vstr.32	s0, [sp, #116]
 2364              		.loc 1 554 0
 2365 0676 FFF7FEFF 		bl	buffer_get_float32_auto
 2366              	.LVL217:
 2367              		.loc 1 555 0
 2368 067a 029B     		ldr	r3, [sp, #8]
 2369 067c 5E19     		adds	r6, r3, r5
 2370              		.loc 1 556 0
 2371 067e 981C     		adds	r0, r3, #2
 2372 0680 14F806E0 		ldrb	lr, [r4, r6]	@ zero_extendqisi2
 2373              		.loc 1 557 0
 2374 0684 275C     		ldrb	r7, [r4, r0]	@ zero_extendqisi2
 2375 0686 D91C     		adds	r1, r3, #3
 2376              		.loc 1 558 0
 2377 0688 1A1D     		adds	r2, r3, #4
 2378              		.loc 1 556 0
 2379 068a 1EF1000E 		adds	lr, lr, #0
 2380              		.loc 1 558 0
 2381 068e 665C     		ldrb	r6, [r4, r1]	@ zero_extendqisi2
 2382              		.loc 1 559 0
 2383 0690 A15C     		ldrb	r1, [r4, r2]	@ zero_extendqisi2
 2384              		.loc 1 555 0
 2385 0692 E25C     		ldrb	r2, [r4, r3]	@ zero_extendqisi2
 2386              		.loc 1 559 0
 2387 0694 03F10500 		add	r0, r3, #5
 2388              		.loc 1 556 0
 2389 0698 18BF     		it	ne
 2390 069a 4FF0010E 		movne	lr, #1
 2391              		.loc 1 557 0
 2392 069e 0037     		adds	r7, r7, #0
 2393              		.loc 1 560 0
 2394 06a0 205C     		ldrb	r0, [r4, r0]	@ zero_extendqisi2
ARM GAS  /var/folders/sv/kgmgr77579zbf78p2zlhkdfr0000gn/T//ccMuP6SP.s 			page 43


 2395              		.loc 1 556 0
 2396 06a2 8DF87DE0 		strb	lr, [sp, #125]
 2397              		.loc 1 557 0
 2398 06a6 18BF     		it	ne
 2399 06a8 0127     		movne	r7, #1
 2400              		.loc 1 558 0
 2401 06aa 0036     		adds	r6, r6, #0
 2402 06ac 18BF     		it	ne
 2403 06ae 0126     		movne	r6, #1
 2404              		.loc 1 559 0
 2405 06b0 0031     		adds	r1, r1, #0
 2406 06b2 18BF     		it	ne
 2407 06b4 0121     		movne	r1, #1
 2408              		.loc 1 560 0
 2409 06b6 0030     		adds	r0, r0, #0
 2410 06b8 18BF     		it	ne
 2411 06ba 0120     		movne	r0, #1
 2412              		.loc 1 555 0
 2413 06bc 0032     		adds	r2, r2, #0
 2414 06be 18BF     		it	ne
 2415 06c0 0122     		movne	r2, #1
 2416              		.loc 1 560 0
 2417 06c2 0633     		adds	r3, r3, #6
 2418              		.loc 1 559 0
 2419 06c4 8DF88010 		strb	r1, [sp, #128]
 2420              		.loc 1 560 0
 2421 06c8 8DF88100 		strb	r0, [sp, #129]
 2422              		.loc 1 561 0
 2423 06cc 02A9     		add	r1, sp, #8
 2424 06ce 2046     		mov	r0, r4
 2425              		.loc 1 555 0
 2426 06d0 8DF87C20 		strb	r2, [sp, #124]
 2427              		.loc 1 560 0
 2428 06d4 0293     		str	r3, [sp, #8]
 2429              		.loc 1 557 0
 2430 06d6 8DF87E70 		strb	r7, [sp, #126]
 2431              		.loc 1 558 0
 2432 06da 8DF87F60 		strb	r6, [sp, #127]
 2433              		.loc 1 554 0
 2434 06de 8DED1E0A 		vstr.32	s0, [sp, #120]
 2435              		.loc 1 561 0
 2436 06e2 FFF7FEFF 		bl	buffer_get_float32_auto
 2437              	.LVL218:
 2438              		.loc 1 562 0
 2439 06e6 2046     		mov	r0, r4
 2440 06e8 02A9     		add	r1, sp, #8
 2441              		.loc 1 561 0
 2442 06ea 8DED210A 		vstr.32	s0, [sp, #132]
 2443              		.loc 1 562 0
 2444 06ee FFF7FEFF 		bl	buffer_get_float32_auto
 2445              	.LVL219:
 2446              		.loc 1 563 0
 2447 06f2 029B     		ldr	r3, [sp, #8]
 2448              		.loc 1 564 0
 2449 06f4 2046     		mov	r0, r4
 2450              		.loc 1 563 0
 2451 06f6 5A19     		adds	r2, r3, r5
ARM GAS  /var/folders/sv/kgmgr77579zbf78p2zlhkdfr0000gn/T//ccMuP6SP.s 			page 44


 2452              		.loc 1 564 0
 2453 06f8 02A9     		add	r1, sp, #8
 2454              		.loc 1 563 0
 2455 06fa E35C     		ldrb	r3, [r4, r3]	@ zero_extendqisi2
 2456 06fc 8DF88C30 		strb	r3, [sp, #140]
 2457 0700 0292     		str	r2, [sp, #8]
 2458              		.loc 1 562 0
 2459 0702 8DED220A 		vstr.32	s0, [sp, #136]
 2460              		.loc 1 564 0
 2461 0706 FFF7FEFF 		bl	buffer_get_float32_auto
 2462              	.LVL220:
 2463              		.loc 1 565 0
 2464 070a 2046     		mov	r0, r4
 2465 070c 02A9     		add	r1, sp, #8
 2466              		.loc 1 564 0
 2467 070e 8DED240A 		vstr.32	s0, [sp, #144]
 2468              		.loc 1 565 0
 2469 0712 FFF7FEFF 		bl	buffer_get_float32_auto
 2470              	.LVL221:
 2471              		.loc 1 566 0
 2472 0716 029B     		ldr	r3, [sp, #8]
 2473 0718 5919     		adds	r1, r3, r5
 2474 071a E25C     		ldrb	r2, [r4, r3]	@ zero_extendqisi2
 2475              		.loc 1 567 0
 2476 071c 605C     		ldrb	r0, [r4, r1]	@ zero_extendqisi2
 2477              		.loc 1 565 0
 2478 071e 8DED250A 		vstr.32	s0, [sp, #148]
 2479              		.loc 1 566 0
 2480 0722 0032     		adds	r2, r2, #0
 2481 0724 18BF     		it	ne
 2482 0726 0122     		movne	r2, #1
 2483              		.loc 1 567 0
 2484 0728 0030     		adds	r0, r0, #0
 2485 072a 18BF     		it	ne
 2486 072c 0120     		movne	r0, #1
 2487 072e 0233     		adds	r3, r3, #2
 2488              		.loc 1 568 0
 2489 0730 02A9     		add	r1, sp, #8
 2490              		.loc 1 567 0
 2491 0732 8DF89900 		strb	r0, [sp, #153]
 2492              		.loc 1 568 0
 2493 0736 2046     		mov	r0, r4
 2494              		.loc 1 566 0
 2495 0738 8DF89820 		strb	r2, [sp, #152]
 2496              		.loc 1 567 0
 2497 073c 0293     		str	r3, [sp, #8]
 2498              		.loc 1 568 0
 2499 073e FFF7FEFF 		bl	buffer_get_float32_auto
 2500              	.LVL222:
 2501              		.loc 1 569 0
 2502 0742 02A9     		add	r1, sp, #8
 2503 0744 2046     		mov	r0, r4
 2504              		.loc 1 568 0
 2505 0746 8DED270A 		vstr.32	s0, [sp, #156]
 2506              		.loc 1 569 0
 2507 074a FFF7FEFF 		bl	buffer_get_uint16
 2508              	.LVL223:
ARM GAS  /var/folders/sv/kgmgr77579zbf78p2zlhkdfr0000gn/T//ccMuP6SP.s 			page 45


 2509              		.loc 1 571 0
 2510 074e 02A9     		add	r1, sp, #8
 2511              		.loc 1 569 0
 2512 0750 2890     		str	r0, [sp, #160]
 2513              		.loc 1 571 0
 2514 0752 2046     		mov	r0, r4
 2515 0754 FFF7FEFF 		bl	buffer_get_uint32
 2516              	.LVL224:
 2517              		.loc 1 573 0
 2518 0758 029B     		ldr	r3, [sp, #8]
 2519              		.loc 1 571 0
 2520 075a 2990     		str	r0, [sp, #164]
 2521              		.loc 1 573 0
 2522 075c 5A19     		adds	r2, r3, r5
 2523              		.loc 1 574 0
 2524 075e 2046     		mov	r0, r4
 2525              		.loc 1 573 0
 2526 0760 E35C     		ldrb	r3, [r4, r3]	@ zero_extendqisi2
 2527 0762 8DF8A830 		strb	r3, [sp, #168]
 2528              		.loc 1 574 0
 2529 0766 02A9     		add	r1, sp, #8
 2530              		.loc 1 573 0
 2531 0768 0292     		str	r2, [sp, #8]
 2532              		.loc 1 574 0
 2533 076a FFF7FEFF 		bl	buffer_get_float32_auto
 2534              	.LVL225:
 2535              		.loc 1 575 0
 2536 076e 2046     		mov	r0, r4
 2537 0770 02A9     		add	r1, sp, #8
 2538              		.loc 1 574 0
 2539 0772 8DED2B0A 		vstr.32	s0, [sp, #172]
 2540              		.loc 1 575 0
 2541 0776 FFF7FEFF 		bl	buffer_get_float32_auto
 2542              	.LVL226:
 2543              		.loc 1 576 0
 2544 077a 2046     		mov	r0, r4
 2545 077c 02A9     		add	r1, sp, #8
 2546              		.loc 1 575 0
 2547 077e 8DED2C0A 		vstr.32	s0, [sp, #176]
 2548              		.loc 1 576 0
 2549 0782 FFF7FEFF 		bl	buffer_get_float32_auto
 2550              	.LVL227:
 2551              		.loc 1 577 0
 2552 0786 2046     		mov	r0, r4
 2553 0788 02A9     		add	r1, sp, #8
 2554              		.loc 1 576 0
 2555 078a 8DED2D0A 		vstr.32	s0, [sp, #180]
 2556              		.loc 1 577 0
 2557 078e FFF7FEFF 		bl	buffer_get_float32_auto
 2558              	.LVL228:
 2559              		.loc 1 578 0
 2560 0792 2046     		mov	r0, r4
 2561 0794 02A9     		add	r1, sp, #8
 2562              		.loc 1 577 0
 2563 0796 8DED2E0A 		vstr.32	s0, [sp, #184]
 2564              		.loc 1 578 0
 2565 079a FFF7FEFF 		bl	buffer_get_float32_auto
ARM GAS  /var/folders/sv/kgmgr77579zbf78p2zlhkdfr0000gn/T//ccMuP6SP.s 			page 46


 2566              	.LVL229:
 2567              		.loc 1 579 0
 2568 079e 2046     		mov	r0, r4
 2569 07a0 02A9     		add	r1, sp, #8
 2570              		.loc 1 578 0
 2571 07a2 8DED2F0A 		vstr.32	s0, [sp, #188]
 2572              		.loc 1 579 0
 2573 07a6 FFF7FEFF 		bl	buffer_get_float32_auto
 2574              	.LVL230:
 2575              		.loc 1 580 0
 2576 07aa 029B     		ldr	r3, [sp, #8]
 2577 07ac 5919     		adds	r1, r3, r5
 2578              		.loc 1 581 0
 2579 07ae 9A1C     		adds	r2, r3, #2
 2580 07b0 665C     		ldrb	r6, [r4, r1]	@ zero_extendqisi2
 2581              		.loc 1 582 0
 2582 07b2 A25C     		ldrb	r2, [r4, r2]	@ zero_extendqisi2
 2583              		.loc 1 580 0
 2584 07b4 E15C     		ldrb	r1, [r4, r3]	@ zero_extendqisi2
 2585 07b6 8DF8C410 		strb	r1, [sp, #196]
 2586              		.loc 1 581 0
 2587 07ba 0036     		adds	r6, r6, #0
 2588 07bc 18BF     		it	ne
 2589 07be 0126     		movne	r6, #1
 2590              		.loc 1 582 0
 2591 07c0 0032     		adds	r2, r2, #0
 2592 07c2 18BF     		it	ne
 2593 07c4 0122     		movne	r2, #1
 2594 07c6 0333     		adds	r3, r3, #3
 2595              		.loc 1 583 0
 2596 07c8 2046     		mov	r0, r4
 2597 07ca 02A9     		add	r1, sp, #8
 2598              		.loc 1 581 0
 2599 07cc 8DF8C560 		strb	r6, [sp, #197]
 2600              		.loc 1 582 0
 2601 07d0 8DF8C620 		strb	r2, [sp, #198]
 2602 07d4 0293     		str	r3, [sp, #8]
 2603              		.loc 1 579 0
 2604 07d6 8DED300A 		vstr.32	s0, [sp, #192]
 2605              		.loc 1 583 0
 2606 07da FFF7FEFF 		bl	buffer_get_float32_auto
 2607              	.LVL231:
 2608              		.loc 1 585 0
 2609 07de 029B     		ldr	r3, [sp, #8]
 2610              		.loc 1 583 0
 2611 07e0 8DED320A 		vstr.32	s0, [sp, #200]
 2612              		.loc 1 585 0
 2613 07e4 5A19     		adds	r2, r3, r5
 2614              		.loc 1 586 0
 2615 07e6 9F1C     		adds	r7, r3, #2
 2616              		.loc 1 587 0
 2617 07e8 D81C     		adds	r0, r3, #3
 2618              		.loc 1 588 0
 2619 07ea 191D     		adds	r1, r3, #4
 2620              		.loc 1 589 0
 2621 07ec 5E1D     		adds	r6, r3, #5
 2622              		.loc 1 586 0
ARM GAS  /var/folders/sv/kgmgr77579zbf78p2zlhkdfr0000gn/T//ccMuP6SP.s 			page 47


 2623 07ee A25C     		ldrb	r2, [r4, r2]	@ zero_extendqisi2
 2624              		.loc 1 588 0
 2625 07f0 205C     		ldrb	r0, [r4, r0]	@ zero_extendqisi2
 2626              		.loc 1 589 0
 2627 07f2 615C     		ldrb	r1, [r4, r1]	@ zero_extendqisi2
 2628              		.loc 1 587 0
 2629 07f4 E75D     		ldrb	r7, [r4, r7]	@ zero_extendqisi2
 2630              		.loc 1 590 0
 2631 07f6 A65D     		ldrb	r6, [r4, r6]	@ zero_extendqisi2
 2632              		.loc 1 586 0
 2633 07f8 8DF8CD20 		strb	r2, [sp, #205]
 2634              		.loc 1 593 0
 2635 07fc E218     		adds	r2, r4, r3
 2636              		.loc 1 587 0
 2637 07fe 8DF8CE70 		strb	r7, [sp, #206]
 2638              		.loc 1 593 0
 2639 0802 527A     		ldrb	r2, [r2, #9]	@ zero_extendqisi2
 2640              		.loc 1 588 0
 2641 0804 8DF8CF00 		strb	r0, [sp, #207]
 2642              		.loc 1 589 0
 2643 0808 8DF8D010 		strb	r1, [sp, #208]
 2644              		.loc 1 590 0
 2645 080c 981D     		adds	r0, r3, #6
 2646              		.loc 1 591 0
 2647 080e 2118     		adds	r1, r4, r0
 2648              		.loc 1 585 0
 2649 0810 E45C     		ldrb	r4, [r4, r3]	@ zero_extendqisi2
 2650              	.LVL232:
 2651 0812 8DF8CC40 		strb	r4, [sp, #204]
 2652              		.loc 1 590 0
 2653 0816 0290     		str	r0, [sp, #8]
 2654 0818 8DF8D160 		strb	r6, [sp, #209]
 2655              		.loc 1 593 0
 2656 081c 0032     		adds	r2, r2, #0
 2657              		.loc 1 591 0
 2658 081e 8878     		ldrb	r0, [r1, #2]	@ zero_extendqisi2
 2659 0820 0988     		ldrh	r1, [r1]	@ unaligned
 2660 0822 8DF8D400 		strb	r0, [sp, #212]
 2661              		.loc 1 593 0
 2662 0826 18BF     		it	ne
 2663 0828 0122     		movne	r2, #1
 2664 082a 0A33     		adds	r3, r3, #10
 2665              		.loc 1 595 0
 2666 082c 04A8     		add	r0, sp, #16
 2667              		.loc 1 593 0
 2668 082e 8DF8D520 		strb	r2, [sp, #213]
 2669 0832 0293     		str	r3, [sp, #8]
 2670              		.loc 1 591 0
 2671 0834 ADF8D210 		strh	r1, [sp, #210]	@ unaligned
 2672              		.loc 1 595 0
 2673 0838 FFF7FEFF 		bl	conf_general_store_app_configuration
 2674              	.LVL233:
 2675              		.loc 1 596 0
 2676 083c 04A8     		add	r0, sp, #16
 2677 083e FFF7FEFF 		bl	app_set_configuration
 2678              	.LVL234:
 2679              		.loc 1 597 0
ARM GAS  /var/folders/sv/kgmgr77579zbf78p2zlhkdfr0000gn/T//ccMuP6SP.s 			page 48


 2680 0842 9DED060A 		vldr.32	s0, [sp, #24]
 2681 0846 0598     		ldr	r0, [sp, #20]
 2682 0848 FFF7FEFF 		bl	timeout_configure
 2683              	.LVL235:
 2684              		.loc 1 598 0
 2685 084c 4FF4FA60 		mov	r0, #2000
 2686 0850 FFF7FEFF 		bl	chThdSleep
 2687              	.LVL236:
 2688              	.LBB119:
 2689              	.LBB120:
 2690              		.loc 1 90 0
 2691 0854 114B     		ldr	r3, .L209
 2692              	.LBE120:
 2693              	.LBE119:
 2694              		.loc 1 601 0
 2695 0856 1248     		ldr	r0, .L209+4
 2696              	.LBB123:
 2697              	.LBB121:
 2698              		.loc 1 90 0
 2699 0858 1B68     		ldr	r3, [r3]
 2700              	.LBE121:
 2701              	.LBE123:
 2702              		.loc 1 601 0
 2703 085a 0295     		str	r5, [sp, #8]
 2704 085c 1022     		movs	r2, #16
 2705 085e 0270     		strb	r2, [r0]
 2706              	.LVL237:
 2707              	.LBB124:
 2708              	.LBB122:
 2709              		.loc 1 90 0
 2710 0860 002B     		cmp	r3, #0
 2711 0862 3FF44EAC 		beq	.L77
 2712              		.loc 1 91 0
 2713 0866 2946     		mov	r1, r5
 2714 0868 9847     		blx	r3
 2715              	.LVL238:
 2716 086a 4AE4     		b	.L77
 2717              	.LVL239:
 2718              	.L98:
 2719              	.LBE122:
 2720              	.LBE124:
 2721              		.loc 1 629 0
 2722 086c 0023     		movs	r3, #0
 2723 086e 6355     		strb	r3, [r4, r5]
 2724              		.loc 1 630 0
 2725 0870 2046     		mov	r0, r4
 2726 0872 FFF7FEFF 		bl	terminal_process_string
 2727              	.LVL240:
 2728              		.loc 1 631 0
 2729 0876 44E4     		b	.L77
 2730              	.L97:
 2731              	.LBB125:
 2732              		.loc 1 622 0
 2733 0878 36A9     		add	r1, sp, #216
 2734 087a 0123     		movs	r3, #1
 2735 087c 41F8D03D 		str	r3, [r1, #-208]!
 2736              		.loc 1 623 0
ARM GAS  /var/folders/sv/kgmgr77579zbf78p2zlhkdfr0000gn/T//ccMuP6SP.s 			page 49


 2737 0880 2046     		mov	r0, r4
 2738              		.loc 1 622 0
 2739 0882 7D78     		ldrb	r5, [r7, #1]	@ zero_extendqisi2
 2740              	.LVL241:
 2741              		.loc 1 623 0
 2742 0884 FFF7FEFF 		bl	buffer_get_uint16
 2743              	.LVL242:
 2744              		.loc 1 624 0
 2745 0888 029B     		ldr	r3, [sp, #8]
 2746              		.loc 1 625 0
 2747 088a 0146     		mov	r1, r0
 2748 088c E25C     		ldrb	r2, [r4, r3]	@ zero_extendqisi2
 2749 088e 2846     		mov	r0, r5
 2750              	.LVL243:
 2751              		.loc 1 624 0
 2752 0890 0133     		adds	r3, r3, #1
 2753 0892 0293     		str	r3, [sp, #8]
 2754              	.LVL244:
 2755              		.loc 1 625 0
 2756 0894 FFF7FEFF 		bl	mc_interface_sample_print_data
 2757              	.LVL245:
 2758              	.LBE125:
 2759              		.loc 1 626 0
 2760 0898 33E4     		b	.L77
 2761              	.L210:
 2762 089a 00BF     		.align	2
 2763              	.L209:
 2764 089c 00000000 		.word	.LANCHOR10
 2765 08a0 00000000 		.word	.LANCHOR8
 2766              	.LVL246:
 2767              	.L94:
 2768              		.loc 1 404 0
 2769 08a4 B8F10E0F 		cmp	r8, #14
 2770 08a8 00F0CC86 		beq	.L204
 2771              		.loc 1 407 0
 2772 08ac F148     		ldr	r0, .L211
 2773 08ae FFF7FEFF 		bl	conf_general_get_default_mc_configuration
 2774              	.LVL247:
 2775              	.L118:
 2776              		.loc 1 416 0
 2777 08b2 36AE     		add	r6, sp, #216
 2778              		.loc 1 413 0
 2779 08b4 EF4D     		ldr	r5, .L211
 2780              	.LVL248:
 2781              		.loc 1 411 0
 2782 08b6 F04C     		ldr	r4, .L211+4
 2783              	.LVL249:
 2784              		.loc 1 415 0
 2785 08b8 AA78     		ldrb	r2, [r5, #2]	@ zero_extendqisi2
 2786              		.loc 1 414 0
 2787 08ba 6F78     		ldrb	r7, [r5, #1]	@ zero_extendqisi2
 2788              	.LVL250:
 2789              		.loc 1 418 0
 2790 08bc 95ED010A 		vldr.32	s0, [r5, #4]
 2791              		.loc 1 415 0
 2792 08c0 E270     		strb	r2, [r4, #3]
 2793              		.loc 1 416 0
ARM GAS  /var/folders/sv/kgmgr77579zbf78p2zlhkdfr0000gn/T//ccMuP6SP.s 			page 50


 2794 08c2 0523     		movs	r3, #5
 2795 08c4 46F8D03D 		str	r3, [r6, #-208]!
 2796              		.loc 1 413 0
 2797 08c8 2B78     		ldrb	r3, [r5]	@ zero_extendqisi2
 2798 08ca 6370     		strb	r3, [r4, #1]
 2799              		.loc 1 418 0
 2800 08cc 3146     		mov	r1, r6
 2801              		.loc 1 416 0
 2802 08ce EB78     		ldrb	r3, [r5, #3]	@ zero_extendqisi2
 2803 08d0 2371     		strb	r3, [r4, #4]
 2804              		.loc 1 418 0
 2805 08d2 2046     		mov	r0, r4
 2806              		.loc 1 414 0
 2807 08d4 A770     		strb	r7, [r4, #2]
 2808              		.loc 1 411 0
 2809 08d6 84F80080 		strb	r8, [r4]
 2810              		.loc 1 418 0
 2811 08da FFF7FEFF 		bl	buffer_append_float32_auto
 2812              	.LVL251:
 2813              		.loc 1 419 0
 2814 08de 3146     		mov	r1, r6
 2815 08e0 95ED020A 		vldr.32	s0, [r5, #8]
 2816 08e4 2046     		mov	r0, r4
 2817 08e6 FFF7FEFF 		bl	buffer_append_float32_auto
 2818              	.LVL252:
 2819              		.loc 1 420 0
 2820 08ea 3146     		mov	r1, r6
 2821 08ec 95ED030A 		vldr.32	s0, [r5, #12]
 2822 08f0 2046     		mov	r0, r4
 2823 08f2 FFF7FEFF 		bl	buffer_append_float32_auto
 2824              	.LVL253:
 2825              		.loc 1 421 0
 2826 08f6 3146     		mov	r1, r6
 2827 08f8 95ED040A 		vldr.32	s0, [r5, #16]
 2828 08fc 2046     		mov	r0, r4
 2829 08fe FFF7FEFF 		bl	buffer_append_float32_auto
 2830              	.LVL254:
 2831              		.loc 1 422 0
 2832 0902 3146     		mov	r1, r6
 2833 0904 95ED050A 		vldr.32	s0, [r5, #20]
 2834 0908 2046     		mov	r0, r4
 2835 090a FFF7FEFF 		bl	buffer_append_float32_auto
 2836              	.LVL255:
 2837              		.loc 1 423 0
 2838 090e 3146     		mov	r1, r6
 2839 0910 95ED060A 		vldr.32	s0, [r5, #24]
 2840 0914 2046     		mov	r0, r4
 2841 0916 FFF7FEFF 		bl	buffer_append_float32_auto
 2842              	.LVL256:
 2843              		.loc 1 424 0
 2844 091a 3146     		mov	r1, r6
 2845 091c 95ED070A 		vldr.32	s0, [r5, #28]
 2846 0920 2046     		mov	r0, r4
 2847 0922 FFF7FEFF 		bl	buffer_append_float32_auto
 2848              	.LVL257:
 2849              		.loc 1 425 0
 2850 0926 3146     		mov	r1, r6
ARM GAS  /var/folders/sv/kgmgr77579zbf78p2zlhkdfr0000gn/T//ccMuP6SP.s 			page 51


 2851 0928 95ED080A 		vldr.32	s0, [r5, #32]
 2852 092c 2046     		mov	r0, r4
 2853 092e FFF7FEFF 		bl	buffer_append_float32_auto
 2854              	.LVL258:
 2855              		.loc 1 426 0
 2856 0932 3146     		mov	r1, r6
 2857 0934 95ED090A 		vldr.32	s0, [r5, #36]
 2858 0938 2046     		mov	r0, r4
 2859 093a FFF7FEFF 		bl	buffer_append_float32_auto
 2860              	.LVL259:
 2861              		.loc 1 427 0
 2862 093e 3146     		mov	r1, r6
 2863 0940 95ED0A0A 		vldr.32	s0, [r5, #40]
 2864 0944 2046     		mov	r0, r4
 2865 0946 FFF7FEFF 		bl	buffer_append_float32_auto
 2866              	.LVL260:
 2867              		.loc 1 428 0
 2868 094a 3146     		mov	r1, r6
 2869 094c 95ED0B0A 		vldr.32	s0, [r5, #44]
 2870 0950 2046     		mov	r0, r4
 2871 0952 FFF7FEFF 		bl	buffer_append_float32_auto
 2872              	.LVL261:
 2873              		.loc 1 429 0
 2874 0956 3146     		mov	r1, r6
 2875 0958 95ED0C0A 		vldr.32	s0, [r5, #48]
 2876 095c 2046     		mov	r0, r4
 2877 095e FFF7FEFF 		bl	buffer_append_float32_auto
 2878              	.LVL262:
 2879              		.loc 1 430 0
 2880 0962 3146     		mov	r1, r6
 2881 0964 95ED0D0A 		vldr.32	s0, [r5, #52]
 2882 0968 2046     		mov	r0, r4
 2883 096a FFF7FEFF 		bl	buffer_append_float32_auto
 2884              	.LVL263:
 2885              		.loc 1 431 0
 2886 096e 3146     		mov	r1, r6
 2887 0970 95ED0E0A 		vldr.32	s0, [r5, #56]
 2888 0974 2046     		mov	r0, r4
 2889 0976 FFF7FEFF 		bl	buffer_append_float32_auto
 2890              	.LVL264:
 2891              		.loc 1 432 0
 2892 097a 029B     		ldr	r3, [sp, #8]
 2893 097c 95F83C20 		ldrb	r2, [r5, #60]	@ zero_extendqisi2
 2894 0980 E254     		strb	r2, [r4, r3]
 2895              		.loc 1 433 0
 2896 0982 95ED100A 		vldr.32	s0, [r5, #64]
 2897              		.loc 1 432 0
 2898 0986 0133     		adds	r3, r3, #1
 2899              		.loc 1 433 0
 2900 0988 3146     		mov	r1, r6
 2901 098a 2046     		mov	r0, r4
 2902              		.loc 1 432 0
 2903 098c 0293     		str	r3, [sp, #8]
 2904              		.loc 1 433 0
 2905 098e FFF7FEFF 		bl	buffer_append_float32_auto
 2906              	.LVL265:
 2907              		.loc 1 434 0
ARM GAS  /var/folders/sv/kgmgr77579zbf78p2zlhkdfr0000gn/T//ccMuP6SP.s 			page 52


 2908 0992 3146     		mov	r1, r6
 2909 0994 95ED110A 		vldr.32	s0, [r5, #68]
 2910 0998 2046     		mov	r0, r4
 2911 099a FFF7FEFF 		bl	buffer_append_float32_auto
 2912              	.LVL266:
 2913              		.loc 1 435 0
 2914 099e 3146     		mov	r1, r6
 2915 09a0 95ED120A 		vldr.32	s0, [r5, #72]
 2916 09a4 2046     		mov	r0, r4
 2917 09a6 FFF7FEFF 		bl	buffer_append_float32_auto
 2918              	.LVL267:
 2919              		.loc 1 436 0
 2920 09aa 3146     		mov	r1, r6
 2921 09ac 95ED130A 		vldr.32	s0, [r5, #76]
 2922 09b0 2046     		mov	r0, r4
 2923 09b2 FFF7FEFF 		bl	buffer_append_float32_auto
 2924              	.LVL268:
 2925              		.loc 1 437 0
 2926 09b6 3146     		mov	r1, r6
 2927 09b8 95ED140A 		vldr.32	s0, [r5, #80]
 2928 09bc 2046     		mov	r0, r4
 2929 09be FFF7FEFF 		bl	buffer_append_float32_auto
 2930              	.LVL269:
 2931              		.loc 1 438 0
 2932 09c2 3146     		mov	r1, r6
 2933 09c4 95ED150A 		vldr.32	s0, [r5, #84]
 2934 09c8 2046     		mov	r0, r4
 2935 09ca FFF7FEFF 		bl	buffer_append_float32_auto
 2936              	.LVL270:
 2937              		.loc 1 439 0
 2938 09ce 3146     		mov	r1, r6
 2939 09d0 95ED160A 		vldr.32	s0, [r5, #88]
 2940 09d4 2046     		mov	r0, r4
 2941 09d6 FFF7FEFF 		bl	buffer_append_float32_auto
 2942              	.LVL271:
 2943              		.loc 1 440 0
 2944 09da 3146     		mov	r1, r6
 2945 09dc 95ED170A 		vldr.32	s0, [r5, #92]
 2946 09e0 2046     		mov	r0, r4
 2947 09e2 FFF7FEFF 		bl	buffer_append_float32_auto
 2948              	.LVL272:
 2949              		.loc 1 441 0
 2950 09e6 3146     		mov	r1, r6
 2951 09e8 95ED180A 		vldr.32	s0, [r5, #96]
 2952 09ec 2046     		mov	r0, r4
 2953 09ee FFF7FEFF 		bl	buffer_append_float32_auto
 2954              	.LVL273:
 2955              		.loc 1 443 0
 2956 09f2 3146     		mov	r1, r6
 2957 09f4 95ED1F0A 		vldr.32	s0, [r5, #124]
 2958 09f8 2046     		mov	r0, r4
 2959 09fa FFF7FEFF 		bl	buffer_append_float32_auto
 2960              	.LVL274:
 2961              		.loc 1 444 0
 2962 09fe 3146     		mov	r1, r6
 2963 0a00 95ED200A 		vldr.32	s0, [r5, #128]
 2964 0a04 2046     		mov	r0, r4
ARM GAS  /var/folders/sv/kgmgr77579zbf78p2zlhkdfr0000gn/T//ccMuP6SP.s 			page 53


 2965 0a06 FFF7FEFF 		bl	buffer_append_float32_auto
 2966              	.LVL275:
 2967              		.loc 1 445 0
 2968 0a0a 3146     		mov	r1, r6
 2969 0a0c 95ED210A 		vldr.32	s0, [r5, #132]
 2970 0a10 2046     		mov	r0, r4
 2971 0a12 FFF7FEFF 		bl	buffer_append_float32_auto
 2972              	.LVL276:
 2973              		.loc 1 446 0
 2974 0a16 3146     		mov	r1, r6
 2975 0a18 95ED220A 		vldr.32	s0, [r5, #136]
 2976 0a1c 2046     		mov	r0, r4
 2977 0a1e FFF7FEFF 		bl	buffer_append_float32_auto
 2978              	.LVL277:
 2979              		.loc 1 447 0
 2980 0a22 3146     		mov	r1, r6
 2981 0a24 95ED230A 		vldr.32	s0, [r5, #140]
 2982 0a28 2046     		mov	r0, r4
 2983 0a2a FFF7FEFF 		bl	buffer_append_float32_auto
 2984              	.LVL278:
 2985              		.loc 1 448 0
 2986 0a2e 3146     		mov	r1, r6
 2987 0a30 95ED240A 		vldr.32	s0, [r5, #144]
 2988 0a34 2046     		mov	r0, r4
 2989 0a36 FFF7FEFF 		bl	buffer_append_float32_auto
 2990              	.LVL279:
 2991              		.loc 1 449 0
 2992 0a3a 3146     		mov	r1, r6
 2993 0a3c 95ED250A 		vldr.32	s0, [r5, #148]
 2994 0a40 2046     		mov	r0, r4
 2995 0a42 FFF7FEFF 		bl	buffer_append_float32_auto
 2996              	.LVL280:
 2997              		.loc 1 451 0
 2998 0a46 029B     		ldr	r3, [sp, #8]
 2999              		.loc 1 453 0
 3000 0a48 95ED280A 		vldr.32	s0, [r5, #160]
 3001              		.loc 1 451 0
 3002 0a4c 05F19802 		add	r2, r5, #152
 3003 0a50 03CA     		ldmia	r2!, {r0, r1}
 3004 0a52 E218     		adds	r2, r4, r3
 3005 0a54 E050     		str	r0, [r4, r3]	@ unaligned
 3006              		.loc 1 452 0
 3007 0a56 0833     		adds	r3, r3, #8
 3008              		.loc 1 451 0
 3009 0a58 5160     		str	r1, [r2, #4]	@ unaligned
 3010              		.loc 1 453 0
 3011 0a5a 2046     		mov	r0, r4
 3012 0a5c 3146     		mov	r1, r6
 3013              		.loc 1 452 0
 3014 0a5e 0293     		str	r3, [sp, #8]
 3015              		.loc 1 453 0
 3016 0a60 FFF7FEFF 		bl	buffer_append_float32_auto
 3017              	.LVL281:
 3018              		.loc 1 455 0
 3019 0a64 3146     		mov	r1, r6
 3020 0a66 95ED290A 		vldr.32	s0, [r5, #164]
 3021 0a6a 2046     		mov	r0, r4
ARM GAS  /var/folders/sv/kgmgr77579zbf78p2zlhkdfr0000gn/T//ccMuP6SP.s 			page 54


 3022 0a6c FFF7FEFF 		bl	buffer_append_float32_auto
 3023              	.LVL282:
 3024              		.loc 1 456 0
 3025 0a70 3146     		mov	r1, r6
 3026 0a72 95ED2A0A 		vldr.32	s0, [r5, #168]
 3027 0a76 2046     		mov	r0, r4
 3028 0a78 FFF7FEFF 		bl	buffer_append_float32_auto
 3029              	.LVL283:
 3030              		.loc 1 457 0
 3031 0a7c 3146     		mov	r1, r6
 3032 0a7e 95ED2B0A 		vldr.32	s0, [r5, #172]
 3033 0a82 2046     		mov	r0, r4
 3034 0a84 FFF7FEFF 		bl	buffer_append_float32_auto
 3035              	.LVL284:
 3036              		.loc 1 458 0
 3037 0a88 3146     		mov	r1, r6
 3038 0a8a 95ED2C0A 		vldr.32	s0, [r5, #176]
 3039 0a8e 2046     		mov	r0, r4
 3040 0a90 FFF7FEFF 		bl	buffer_append_float32_auto
 3041              	.LVL285:
 3042              		.loc 1 459 0
 3043 0a94 029B     		ldr	r3, [sp, #8]
 3044 0a96 95F8B820 		ldrb	r2, [r5, #184]	@ zero_extendqisi2
 3045 0a9a E254     		strb	r2, [r4, r3]
 3046              		.loc 1 460 0
 3047 0a9c 95ED2D0A 		vldr.32	s0, [r5, #180]
 3048              		.loc 1 459 0
 3049 0aa0 0133     		adds	r3, r3, #1
 3050              		.loc 1 460 0
 3051 0aa2 3146     		mov	r1, r6
 3052 0aa4 2046     		mov	r0, r4
 3053              		.loc 1 459 0
 3054 0aa6 0293     		str	r3, [sp, #8]
 3055              		.loc 1 460 0
 3056 0aa8 FFF7FEFF 		bl	buffer_append_float32_auto
 3057              	.LVL286:
 3058              		.loc 1 461 0
 3059 0aac 3146     		mov	r1, r6
 3060 0aae 95ED2F0A 		vldr.32	s0, [r5, #188]
 3061 0ab2 2046     		mov	r0, r4
 3062 0ab4 FFF7FEFF 		bl	buffer_append_float32_auto
 3063              	.LVL287:
 3064              		.loc 1 462 0
 3065 0ab8 029B     		ldr	r3, [sp, #8]
 3066 0aba 95F8F820 		ldrb	r2, [r5, #248]	@ zero_extendqisi2
 3067 0abe E254     		strb	r2, [r4, r3]
 3068              		.loc 1 463 0
 3069 0ac0 95ED350A 		vldr.32	s0, [r5, #212]
 3070              		.loc 1 462 0
 3071 0ac4 0133     		adds	r3, r3, #1
 3072              		.loc 1 463 0
 3073 0ac6 3146     		mov	r1, r6
 3074 0ac8 2046     		mov	r0, r4
 3075              		.loc 1 462 0
 3076 0aca 0293     		str	r3, [sp, #8]
 3077              		.loc 1 463 0
 3078 0acc FFF7FEFF 		bl	buffer_append_float32_auto
ARM GAS  /var/folders/sv/kgmgr77579zbf78p2zlhkdfr0000gn/T//ccMuP6SP.s 			page 55


 3079              	.LVL288:
 3080              		.loc 1 464 0
 3081 0ad0 3146     		mov	r1, r6
 3082 0ad2 95ED360A 		vldr.32	s0, [r5, #216]
 3083 0ad6 2046     		mov	r0, r4
 3084 0ad8 FFF7FEFF 		bl	buffer_append_float32_auto
 3085              	.LVL289:
 3086              		.loc 1 465 0
 3087 0adc 3146     		mov	r1, r6
 3088 0ade 95ED300A 		vldr.32	s0, [r5, #192]
 3089 0ae2 2046     		mov	r0, r4
 3090 0ae4 FFF7FEFF 		bl	buffer_append_float32_auto
 3091              	.LVL290:
 3092              		.loc 1 466 0
 3093 0ae8 3146     		mov	r1, r6
 3094 0aea 95ED310A 		vldr.32	s0, [r5, #196]
 3095 0aee 2046     		mov	r0, r4
 3096 0af0 FFF7FEFF 		bl	buffer_append_float32_auto
 3097              	.LVL291:
 3098              		.loc 1 467 0
 3099 0af4 3146     		mov	r1, r6
 3100 0af6 95ED320A 		vldr.32	s0, [r5, #200]
 3101 0afa 2046     		mov	r0, r4
 3102 0afc FFF7FEFF 		bl	buffer_append_float32_auto
 3103              	.LVL292:
 3104              		.loc 1 468 0
 3105 0b00 3146     		mov	r1, r6
 3106 0b02 95ED330A 		vldr.32	s0, [r5, #204]
 3107 0b06 2046     		mov	r0, r4
 3108 0b08 FFF7FEFF 		bl	buffer_append_float32_auto
 3109              	.LVL293:
 3110              		.loc 1 469 0
 3111 0b0c 3146     		mov	r1, r6
 3112 0b0e 95ED340A 		vldr.32	s0, [r5, #208]
 3113 0b12 2046     		mov	r0, r4
 3114 0b14 FFF7FEFF 		bl	buffer_append_float32_auto
 3115              	.LVL294:
 3116              		.loc 1 470 0
 3117 0b18 3146     		mov	r1, r6
 3118 0b1a 95ED370A 		vldr.32	s0, [r5, #220]
 3119 0b1e 2046     		mov	r0, r4
 3120 0b20 FFF7FEFF 		bl	buffer_append_float32_auto
 3121              	.LVL295:
 3122              		.loc 1 471 0
 3123 0b24 3146     		mov	r1, r6
 3124 0b26 95ED380A 		vldr.32	s0, [r5, #224]
 3125 0b2a 2046     		mov	r0, r4
 3126 0b2c FFF7FEFF 		bl	buffer_append_float32_auto
 3127              	.LVL296:
 3128              		.loc 1 472 0
 3129 0b30 3146     		mov	r1, r6
 3130 0b32 95ED390A 		vldr.32	s0, [r5, #228]
 3131 0b36 2046     		mov	r0, r4
 3132 0b38 FFF7FEFF 		bl	buffer_append_float32_auto
 3133              	.LVL297:
 3134              		.loc 1 473 0
 3135 0b3c 3146     		mov	r1, r6
ARM GAS  /var/folders/sv/kgmgr77579zbf78p2zlhkdfr0000gn/T//ccMuP6SP.s 			page 56


 3136 0b3e 95ED3A0A 		vldr.32	s0, [r5, #232]
 3137 0b42 2046     		mov	r0, r4
 3138 0b44 FFF7FEFF 		bl	buffer_append_float32_auto
 3139              	.LVL298:
 3140              		.loc 1 474 0
 3141 0b48 3146     		mov	r1, r6
 3142 0b4a 95ED3B0A 		vldr.32	s0, [r5, #236]
 3143 0b4e 2046     		mov	r0, r4
 3144 0b50 FFF7FEFF 		bl	buffer_append_float32_auto
 3145              	.LVL299:
 3146              		.loc 1 475 0
 3147 0b54 3146     		mov	r1, r6
 3148 0b56 95ED3C0A 		vldr.32	s0, [r5, #240]
 3149 0b5a 2046     		mov	r0, r4
 3150 0b5c FFF7FEFF 		bl	buffer_append_float32_auto
 3151              	.LVL300:
 3152              		.loc 1 476 0
 3153 0b60 3146     		mov	r1, r6
 3154 0b62 95ED3D0A 		vldr.32	s0, [r5, #244]
 3155 0b66 2046     		mov	r0, r4
 3156 0b68 FFF7FEFF 		bl	buffer_append_float32_auto
 3157              	.LVL301:
 3158              		.loc 1 477 0
 3159 0b6c 2A46     		mov	r2, r5
 3160 0b6e 029B     		ldr	r3, [sp, #8]
 3161 0b70 52F8F91F 		ldr	r1, [r2, #249]!	@ unaligned
 3162 0b74 E150     		str	r1, [r4, r3]	@ unaligned
 3163 0b76 5768     		ldr	r7, [r2, #4]	@ unaligned
 3164              		.loc 1 479 0
 3165 0b78 95ED410A 		vldr.32	s0, [r5, #260]
 3166              		.loc 1 477 0
 3167 0b7c E218     		adds	r2, r4, r3
 3168              		.loc 1 479 0
 3169 0b7e 3146     		mov	r1, r6
 3170              		.loc 1 478 0
 3171 0b80 0833     		adds	r3, r3, #8
 3172              		.loc 1 477 0
 3173 0b82 5760     		str	r7, [r2, #4]	@ unaligned
 3174              		.loc 1 479 0
 3175 0b84 2046     		mov	r0, r4
 3176              		.loc 1 478 0
 3177 0b86 0293     		str	r3, [sp, #8]
 3178              		.loc 1 479 0
 3179 0b88 FFF7FEFF 		bl	buffer_append_float32_auto
 3180              	.LVL302:
 3181              		.loc 1 480 0
 3182 0b8c 029B     		ldr	r3, [sp, #8]
 3183 0b8e 95F80821 		ldrb	r2, [r5, #264]	@ zero_extendqisi2
 3184 0b92 E254     		strb	r2, [r4, r3]
 3185              		.loc 1 481 0
 3186 0b94 E218     		adds	r2, r4, r3
 3187 0b96 95F80971 		ldrb	r7, [r5, #265]	@ zero_extendqisi2
 3188              		.loc 1 482 0
 3189 0b9a 95ED430A 		vldr.32	s0, [r5, #268]
 3190              		.loc 1 481 0
 3191 0b9e 5770     		strb	r7, [r2, #1]
 3192 0ba0 0233     		adds	r3, r3, #2
ARM GAS  /var/folders/sv/kgmgr77579zbf78p2zlhkdfr0000gn/T//ccMuP6SP.s 			page 57


 3193              		.loc 1 482 0
 3194 0ba2 3146     		mov	r1, r6
 3195 0ba4 2046     		mov	r0, r4
 3196              		.loc 1 481 0
 3197 0ba6 0293     		str	r3, [sp, #8]
 3198              		.loc 1 482 0
 3199 0ba8 FFF7FEFF 		bl	buffer_append_float32_auto
 3200              	.LVL303:
 3201              		.loc 1 483 0
 3202 0bac 029B     		ldr	r3, [sp, #8]
 3203 0bae 95F81021 		ldrb	r2, [r5, #272]	@ zero_extendqisi2
 3204 0bb2 E254     		strb	r2, [r4, r3]
 3205              		.loc 1 484 0
 3206 0bb4 95ED450A 		vldr.32	s0, [r5, #276]
 3207              		.loc 1 483 0
 3208 0bb8 0133     		adds	r3, r3, #1
 3209              		.loc 1 484 0
 3210 0bba 3146     		mov	r1, r6
 3211 0bbc 2046     		mov	r0, r4
 3212              		.loc 1 483 0
 3213 0bbe 0293     		str	r3, [sp, #8]
 3214              		.loc 1 484 0
 3215 0bc0 FFF7FEFF 		bl	buffer_append_float32_auto
 3216              	.LVL304:
 3217              		.loc 1 486 0
 3218 0bc4 3146     		mov	r1, r6
 3219 0bc6 95ED460A 		vldr.32	s0, [r5, #280]
 3220 0bca 2046     		mov	r0, r4
 3221 0bcc FFF7FEFF 		bl	buffer_append_float32_auto
 3222              	.LVL305:
 3223              		.loc 1 487 0
 3224 0bd0 3146     		mov	r1, r6
 3225 0bd2 95ED470A 		vldr.32	s0, [r5, #284]
 3226 0bd6 2046     		mov	r0, r4
 3227 0bd8 FFF7FEFF 		bl	buffer_append_float32_auto
 3228              	.LVL306:
 3229              		.loc 1 488 0
 3230 0bdc 3146     		mov	r1, r6
 3231 0bde 95ED480A 		vldr.32	s0, [r5, #288]
 3232 0be2 2046     		mov	r0, r4
 3233 0be4 FFF7FEFF 		bl	buffer_append_float32_auto
 3234              	.LVL307:
 3235              		.loc 1 489 0
 3236 0be8 3146     		mov	r1, r6
 3237 0bea 95ED490A 		vldr.32	s0, [r5, #292]
 3238 0bee 2046     		mov	r0, r4
 3239 0bf0 FFF7FEFF 		bl	buffer_append_float32_auto
 3240              	.LVL308:
 3241              		.loc 1 490 0
 3242 0bf4 029B     		ldr	r3, [sp, #8]
 3243 0bf6 95F82821 		ldrb	r2, [r5, #296]	@ zero_extendqisi2
 3244 0bfa E254     		strb	r2, [r4, r3]
 3245              		.loc 1 492 0
 3246 0bfc 95ED4B0A 		vldr.32	s0, [r5, #300]
 3247              		.loc 1 490 0
 3248 0c00 0133     		adds	r3, r3, #1
 3249              		.loc 1 492 0
ARM GAS  /var/folders/sv/kgmgr77579zbf78p2zlhkdfr0000gn/T//ccMuP6SP.s 			page 58


 3250 0c02 3146     		mov	r1, r6
 3251 0c04 2046     		mov	r0, r4
 3252              		.loc 1 490 0
 3253 0c06 0293     		str	r3, [sp, #8]
 3254              		.loc 1 492 0
 3255 0c08 FFF7FEFF 		bl	buffer_append_float32_auto
 3256              	.LVL309:
 3257              		.loc 1 493 0
 3258 0c0c 3146     		mov	r1, r6
 3259 0c0e 95ED4C0A 		vldr.32	s0, [r5, #304]
 3260 0c12 2046     		mov	r0, r4
 3261 0c14 FFF7FEFF 		bl	buffer_append_float32_auto
 3262              	.LVL310:
 3263              		.loc 1 494 0
 3264 0c18 3146     		mov	r1, r6
 3265 0c1a 95ED4D0A 		vldr.32	s0, [r5, #308]
 3266 0c1e 2046     		mov	r0, r4
 3267 0c20 FFF7FEFF 		bl	buffer_append_float32_auto
 3268              	.LVL311:
 3269              		.loc 1 495 0
 3270 0c24 3146     		mov	r1, r6
 3271 0c26 95ED4E0A 		vldr.32	s0, [r5, #312]
 3272 0c2a 2046     		mov	r0, r4
 3273 0c2c FFF7FEFF 		bl	buffer_append_float32_auto
 3274              	.LVL312:
 3275              		.loc 1 497 0
 3276 0c30 3146     		mov	r1, r6
 3277 0c32 95ED4F0A 		vldr.32	s0, [r5, #316]
 3278 0c36 2046     		mov	r0, r4
 3279 0c38 FFF7FEFF 		bl	buffer_append_float32_auto
 3280              	.LVL313:
 3281              		.loc 1 498 0
 3282 0c3c 3146     		mov	r1, r6
 3283 0c3e 95ED500A 		vldr.32	s0, [r5, #320]
 3284 0c42 2046     		mov	r0, r4
 3285 0c44 FFF7FEFF 		bl	buffer_append_float32_auto
 3286              	.LVL314:
 3287              		.loc 1 499 0
 3288 0c48 3146     		mov	r1, r6
 3289 0c4a 95ED510A 		vldr.32	s0, [r5, #324]
 3290 0c4e 2046     		mov	r0, r4
 3291 0c50 FFF7FEFF 		bl	buffer_append_float32_auto
 3292              	.LVL315:
 3293              		.loc 1 500 0
 3294 0c54 95ED520A 		vldr.32	s0, [r5, #328]
 3295 0c58 3146     		mov	r1, r6
 3296 0c5a 2046     		mov	r0, r4
 3297 0c5c FFF7FEFF 		bl	buffer_append_float32_auto
 3298              	.LVL316:
 3299              		.loc 1 502 0
 3300 0c60 3246     		mov	r2, r6
 3301 0c62 D5F84C11 		ldr	r1, [r5, #332]
 3302 0c66 2046     		mov	r0, r4
 3303 0c68 FFF7FEFF 		bl	buffer_append_int32
 3304              	.LVL317:
 3305              		.loc 1 503 0
 3306 0c6c 3146     		mov	r1, r6
ARM GAS  /var/folders/sv/kgmgr77579zbf78p2zlhkdfr0000gn/T//ccMuP6SP.s 			page 59


 3307 0c6e 95ED540A 		vldr.32	s0, [r5, #336]
 3308 0c72 03E0     		b	.L212
 3309              	.L213:
 3310              		.align	2
 3311              	.L211:
 3312 0c74 00000000 		.word	.LANCHOR15
 3313 0c78 00000000 		.word	.LANCHOR8
 3314              	.L212:
 3315 0c7c 2046     		mov	r0, r4
 3316 0c7e FFF7FEFF 		bl	buffer_append_float32_auto
 3317              	.LVL318:
 3318              		.loc 1 504 0
 3319 0c82 95ED550A 		vldr.32	s0, [r5, #340]
 3320 0c86 3146     		mov	r1, r6
 3321 0c88 2046     		mov	r0, r4
 3322 0c8a FFF7FEFF 		bl	buffer_append_float32_auto
 3323              	.LVL319:
 3324              		.loc 1 505 0
 3325 0c8e 3246     		mov	r2, r6
 3326 0c90 D5F85811 		ldr	r1, [r5, #344]
 3327 0c94 2046     		mov	r0, r4
 3328 0c96 FFF7FEFF 		bl	buffer_append_uint32
 3329              	.LVL320:
 3330              		.loc 1 506 0
 3331 0c9a 029B     		ldr	r3, [sp, #8]
 3332 0c9c 95F85C21 		ldrb	r2, [r5, #348]	@ zero_extendqisi2
 3333 0ca0 E254     		strb	r2, [r4, r3]
 3334              		.loc 1 507 0
 3335 0ca2 E218     		adds	r2, r4, r3
 3336 0ca4 95F85D01 		ldrb	r0, [r5, #349]	@ zero_extendqisi2
 3337 0ca8 5070     		strb	r0, [r2, #1]
 3338              		.loc 1 509 0
 3339 0caa 0433     		adds	r3, r3, #4
 3340              		.loc 1 510 0
 3341 0cac 95ED590A 		vldr.32	s0, [r5, #356]
 3342              		.loc 1 508 0
 3343 0cb0 95F85E71 		ldrb	r7, [r5, #350]	@ zero_extendqisi2
 3344              		.loc 1 509 0
 3345 0cb4 0293     		str	r3, [sp, #8]
 3346              		.loc 1 510 0
 3347 0cb6 3146     		mov	r1, r6
 3348              		.loc 1 509 0
 3349 0cb8 D5F86031 		ldr	r3, [r5, #352]
 3350 0cbc D370     		strb	r3, [r2, #3]
 3351              		.loc 1 510 0
 3352 0cbe 2046     		mov	r0, r4
 3353              		.loc 1 508 0
 3354 0cc0 9770     		strb	r7, [r2, #2]
 3355              		.loc 1 510 0
 3356 0cc2 FFF7FEFF 		bl	buffer_append_float32_auto
 3357              	.LVL321:
 3358              		.loc 1 511 0
 3359 0cc6 3146     		mov	r1, r6
 3360 0cc8 95ED5A0A 		vldr.32	s0, [r5, #360]
 3361 0ccc 2046     		mov	r0, r4
 3362 0cce FFF7FEFF 		bl	buffer_append_float32_auto
 3363              	.LVL322:
ARM GAS  /var/folders/sv/kgmgr77579zbf78p2zlhkdfr0000gn/T//ccMuP6SP.s 			page 60


 3364              		.loc 1 512 0
 3365 0cd2 3146     		mov	r1, r6
 3366 0cd4 95ED5B0A 		vldr.32	s0, [r5, #364]
 3367 0cd8 2046     		mov	r0, r4
 3368 0cda FFF7FEFF 		bl	buffer_append_float32_auto
 3369              	.LVL323:
 3370              		.loc 1 513 0
 3371 0cde 3146     		mov	r1, r6
 3372 0ce0 95ED5C0A 		vldr.32	s0, [r5, #368]
 3373 0ce4 2046     		mov	r0, r4
 3374 0ce6 FFF7FEFF 		bl	buffer_append_float32_auto
 3375              	.LVL324:
 3376              	.LBB126:
 3377              	.LBB127:
 3378              		.loc 1 90 0
 3379 0cea 044B     		ldr	r3, .L214
 3380              	.LBE127:
 3381              	.LBE126:
 3382              		.loc 1 515 0
 3383 0cec 0299     		ldr	r1, [sp, #8]
 3384              	.LVL325:
 3385              	.LBB129:
 3386              	.LBB128:
 3387              		.loc 1 90 0
 3388 0cee 1B68     		ldr	r3, [r3]
 3389 0cf0 002B     		cmp	r3, #0
 3390 0cf2 7FF44CAA 		bne	.L191
 3391 0cf6 FFF704BA 		b	.L77
 3392              	.L215:
 3393 0cfa 00BF     		.align	2
 3394              	.L214:
 3395 0cfc 00000000 		.word	.LANCHOR10
 3396              	.LVL326:
 3397              	.L93:
 3398              	.LBE128:
 3399              	.LBE129:
 3400              		.loc 1 248 0
 3401 0d00 FFF7FEFF 		bl	mc_interface_get_configuration
 3402              	.LVL327:
 3403 0d04 E54D     		ldr	r5, .L216
 3404              	.LVL328:
 3405              		.loc 1 254 0
 3406 0d06 36AE     		add	r6, sp, #216
 3407              		.loc 1 248 0
 3408 0d08 0146     		mov	r1, r0
 3409 0d0a 4FF4BA72 		mov	r2, #372
 3410 0d0e 2846     		mov	r0, r5
 3411 0d10 FFF7FEFF 		bl	memcpy
 3412              	.LVL329:
 3413              		.loc 1 254 0
 3414 0d14 0423     		movs	r3, #4
 3415 0d16 46F8D03D 		str	r3, [r6, #-208]!
 3416              		.loc 1 251 0
 3417 0d1a 7978     		ldrb	r1, [r7, #1]	@ zero_extendqisi2
 3418              		.loc 1 252 0
 3419 0d1c 97F802E0 		ldrb	lr, [r7, #2]	@ zero_extendqisi2
 3420              		.loc 1 253 0
ARM GAS  /var/folders/sv/kgmgr77579zbf78p2zlhkdfr0000gn/T//ccMuP6SP.s 			page 61


 3421 0d20 FA78     		ldrb	r2, [r7, #3]	@ zero_extendqisi2
 3422              		.loc 1 254 0
 3423 0d22 3B79     		ldrb	r3, [r7, #4]	@ zero_extendqisi2
 3424              		.loc 1 251 0
 3425 0d24 2970     		strb	r1, [r5]
 3426              		.loc 1 256 0
 3427 0d26 2046     		mov	r0, r4
 3428 0d28 3146     		mov	r1, r6
 3429              		.loc 1 252 0
 3430 0d2a 85F801E0 		strb	lr, [r5, #1]
 3431              		.loc 1 253 0
 3432 0d2e AA70     		strb	r2, [r5, #2]
 3433              		.loc 1 254 0
 3434 0d30 EB70     		strb	r3, [r5, #3]
 3435              		.loc 1 256 0
 3436 0d32 FFF7FEFF 		bl	buffer_get_float32_auto
 3437              	.LVL330:
 3438              		.loc 1 257 0
 3439 0d36 3146     		mov	r1, r6
 3440 0d38 2046     		mov	r0, r4
 3441              		.loc 1 256 0
 3442 0d3a 85ED010A 		vstr.32	s0, [r5, #4]
 3443              		.loc 1 257 0
 3444 0d3e FFF7FEFF 		bl	buffer_get_float32_auto
 3445              	.LVL331:
 3446              		.loc 1 258 0
 3447 0d42 3146     		mov	r1, r6
 3448 0d44 2046     		mov	r0, r4
 3449              		.loc 1 257 0
 3450 0d46 85ED020A 		vstr.32	s0, [r5, #8]
 3451              		.loc 1 258 0
 3452 0d4a FFF7FEFF 		bl	buffer_get_float32_auto
 3453              	.LVL332:
 3454              		.loc 1 259 0
 3455 0d4e 3146     		mov	r1, r6
 3456 0d50 2046     		mov	r0, r4
 3457              		.loc 1 258 0
 3458 0d52 85ED030A 		vstr.32	s0, [r5, #12]
 3459              		.loc 1 259 0
 3460 0d56 FFF7FEFF 		bl	buffer_get_float32_auto
 3461              	.LVL333:
 3462              		.loc 1 260 0
 3463 0d5a 3146     		mov	r1, r6
 3464 0d5c 2046     		mov	r0, r4
 3465              		.loc 1 259 0
 3466 0d5e 85ED040A 		vstr.32	s0, [r5, #16]
 3467              		.loc 1 260 0
 3468 0d62 FFF7FEFF 		bl	buffer_get_float32_auto
 3469              	.LVL334:
 3470              		.loc 1 261 0
 3471 0d66 3146     		mov	r1, r6
 3472 0d68 2046     		mov	r0, r4
 3473              		.loc 1 260 0
 3474 0d6a 85ED050A 		vstr.32	s0, [r5, #20]
 3475              		.loc 1 261 0
 3476 0d6e FFF7FEFF 		bl	buffer_get_float32_auto
 3477              	.LVL335:
ARM GAS  /var/folders/sv/kgmgr77579zbf78p2zlhkdfr0000gn/T//ccMuP6SP.s 			page 62


 3478              		.loc 1 262 0
 3479 0d72 3146     		mov	r1, r6
 3480 0d74 2046     		mov	r0, r4
 3481              		.loc 1 261 0
 3482 0d76 85ED060A 		vstr.32	s0, [r5, #24]
 3483              		.loc 1 262 0
 3484 0d7a FFF7FEFF 		bl	buffer_get_float32_auto
 3485              	.LVL336:
 3486              		.loc 1 263 0
 3487 0d7e 3146     		mov	r1, r6
 3488 0d80 2046     		mov	r0, r4
 3489              		.loc 1 262 0
 3490 0d82 85ED070A 		vstr.32	s0, [r5, #28]
 3491              		.loc 1 263 0
 3492 0d86 FFF7FEFF 		bl	buffer_get_float32_auto
 3493              	.LVL337:
 3494              		.loc 1 264 0
 3495 0d8a 3146     		mov	r1, r6
 3496 0d8c 2046     		mov	r0, r4
 3497              		.loc 1 263 0
 3498 0d8e 85ED080A 		vstr.32	s0, [r5, #32]
 3499              		.loc 1 264 0
 3500 0d92 FFF7FEFF 		bl	buffer_get_float32_auto
 3501              	.LVL338:
 3502              		.loc 1 265 0
 3503 0d96 3146     		mov	r1, r6
 3504 0d98 2046     		mov	r0, r4
 3505              		.loc 1 264 0
 3506 0d9a 85ED090A 		vstr.32	s0, [r5, #36]
 3507              		.loc 1 265 0
 3508 0d9e FFF7FEFF 		bl	buffer_get_float32_auto
 3509              	.LVL339:
 3510              		.loc 1 266 0
 3511 0da2 3146     		mov	r1, r6
 3512 0da4 2046     		mov	r0, r4
 3513              		.loc 1 265 0
 3514 0da6 85ED0A0A 		vstr.32	s0, [r5, #40]
 3515              		.loc 1 266 0
 3516 0daa FFF7FEFF 		bl	buffer_get_float32_auto
 3517              	.LVL340:
 3518              		.loc 1 267 0
 3519 0dae 3146     		mov	r1, r6
 3520 0db0 2046     		mov	r0, r4
 3521              		.loc 1 266 0
 3522 0db2 85ED0B0A 		vstr.32	s0, [r5, #44]
 3523              		.loc 1 267 0
 3524 0db6 FFF7FEFF 		bl	buffer_get_float32_auto
 3525              	.LVL341:
 3526              		.loc 1 268 0
 3527 0dba 3146     		mov	r1, r6
 3528 0dbc 2046     		mov	r0, r4
 3529              		.loc 1 267 0
 3530 0dbe 85ED0C0A 		vstr.32	s0, [r5, #48]
 3531              		.loc 1 268 0
 3532 0dc2 FFF7FEFF 		bl	buffer_get_float32_auto
 3533              	.LVL342:
 3534              		.loc 1 269 0
ARM GAS  /var/folders/sv/kgmgr77579zbf78p2zlhkdfr0000gn/T//ccMuP6SP.s 			page 63


 3535 0dc6 3146     		mov	r1, r6
 3536 0dc8 2046     		mov	r0, r4
 3537              		.loc 1 268 0
 3538 0dca 85ED0D0A 		vstr.32	s0, [r5, #52]
 3539              		.loc 1 269 0
 3540 0dce FFF7FEFF 		bl	buffer_get_float32_auto
 3541              	.LVL343:
 3542              		.loc 1 270 0
 3543 0dd2 029B     		ldr	r3, [sp, #8]
 3544              		.loc 1 269 0
 3545 0dd4 85ED0E0A 		vstr.32	s0, [r5, #56]
 3546              		.loc 1 270 0
 3547 0dd8 E25C     		ldrb	r2, [r4, r3]	@ zero_extendqisi2
 3548 0dda 0032     		adds	r2, r2, #0
 3549 0ddc 18BF     		it	ne
 3550 0dde 0122     		movne	r2, #1
 3551 0de0 0133     		adds	r3, r3, #1
 3552              		.loc 1 271 0
 3553 0de2 3146     		mov	r1, r6
 3554 0de4 2046     		mov	r0, r4
 3555              		.loc 1 270 0
 3556 0de6 85F83C20 		strb	r2, [r5, #60]
 3557 0dea 0293     		str	r3, [sp, #8]
 3558              		.loc 1 271 0
 3559 0dec FFF7FEFF 		bl	buffer_get_float32_auto
 3560              	.LVL344:
 3561              		.loc 1 272 0
 3562 0df0 3146     		mov	r1, r6
 3563 0df2 2046     		mov	r0, r4
 3564              		.loc 1 271 0
 3565 0df4 85ED100A 		vstr.32	s0, [r5, #64]
 3566              		.loc 1 272 0
 3567 0df8 FFF7FEFF 		bl	buffer_get_float32_auto
 3568              	.LVL345:
 3569              		.loc 1 273 0
 3570 0dfc 3146     		mov	r1, r6
 3571 0dfe 2046     		mov	r0, r4
 3572              		.loc 1 272 0
 3573 0e00 85ED110A 		vstr.32	s0, [r5, #68]
 3574              		.loc 1 273 0
 3575 0e04 FFF7FEFF 		bl	buffer_get_float32_auto
 3576              	.LVL346:
 3577              		.loc 1 274 0
 3578 0e08 3146     		mov	r1, r6
 3579 0e0a 2046     		mov	r0, r4
 3580              		.loc 1 273 0
 3581 0e0c 85ED120A 		vstr.32	s0, [r5, #72]
 3582              		.loc 1 274 0
 3583 0e10 FFF7FEFF 		bl	buffer_get_float32_auto
 3584              	.LVL347:
 3585              		.loc 1 275 0
 3586 0e14 3146     		mov	r1, r6
 3587 0e16 2046     		mov	r0, r4
 3588              		.loc 1 274 0
 3589 0e18 85ED130A 		vstr.32	s0, [r5, #76]
 3590              		.loc 1 275 0
 3591 0e1c FFF7FEFF 		bl	buffer_get_float32_auto
ARM GAS  /var/folders/sv/kgmgr77579zbf78p2zlhkdfr0000gn/T//ccMuP6SP.s 			page 64


 3592              	.LVL348:
 3593              		.loc 1 276 0
 3594 0e20 3146     		mov	r1, r6
 3595 0e22 2046     		mov	r0, r4
 3596              		.loc 1 275 0
 3597 0e24 85ED140A 		vstr.32	s0, [r5, #80]
 3598              		.loc 1 276 0
 3599 0e28 FFF7FEFF 		bl	buffer_get_float32_auto
 3600              	.LVL349:
 3601              		.loc 1 277 0
 3602 0e2c 3146     		mov	r1, r6
 3603 0e2e 2046     		mov	r0, r4
 3604              		.loc 1 276 0
 3605 0e30 85ED150A 		vstr.32	s0, [r5, #84]
 3606              		.loc 1 277 0
 3607 0e34 FFF7FEFF 		bl	buffer_get_float32_auto
 3608              	.LVL350:
 3609              		.loc 1 278 0
 3610 0e38 3146     		mov	r1, r6
 3611 0e3a 2046     		mov	r0, r4
 3612              		.loc 1 277 0
 3613 0e3c 85ED160A 		vstr.32	s0, [r5, #88]
 3614              		.loc 1 278 0
 3615 0e40 FFF7FEFF 		bl	buffer_get_float32_auto
 3616              	.LVL351:
 3617              		.loc 1 279 0
 3618 0e44 3146     		mov	r1, r6
 3619 0e46 2046     		mov	r0, r4
 3620              		.loc 1 278 0
 3621 0e48 85ED170A 		vstr.32	s0, [r5, #92]
 3622              		.loc 1 279 0
 3623 0e4c FFF7FEFF 		bl	buffer_get_float32_auto
 3624              	.LVL352:
 3625              		.loc 1 283 0
 3626 0e50 E868     		ldr	r0, [r5, #12]	@ float
 3627              		.loc 1 281 0
 3628 0e52 6A68     		ldr	r2, [r5, #4]	@ float
 3629              		.loc 1 282 0
 3630 0e54 AB68     		ldr	r3, [r5, #8]	@ float
 3631              		.loc 1 284 0
 3632 0e56 2F69     		ldr	r7, [r5, #16]	@ float
 3633              		.loc 1 283 0
 3634 0e58 E866     		str	r0, [r5, #108]	@ float
 3635              		.loc 1 288 0
 3636 0e5a 3146     		mov	r1, r6
 3637 0e5c 2046     		mov	r0, r4
 3638              		.loc 1 281 0
 3639 0e5e 6A66     		str	r2, [r5, #100]	@ float
 3640              		.loc 1 285 0
 3641 0e60 6A67     		str	r2, [r5, #116]	@ float
 3642              		.loc 1 282 0
 3643 0e62 AB66     		str	r3, [r5, #104]	@ float
 3644              		.loc 1 286 0
 3645 0e64 AB67     		str	r3, [r5, #120]	@ float
 3646              		.loc 1 284 0
 3647 0e66 2F67     		str	r7, [r5, #112]	@ float
 3648              		.loc 1 279 0
ARM GAS  /var/folders/sv/kgmgr77579zbf78p2zlhkdfr0000gn/T//ccMuP6SP.s 			page 65


 3649 0e68 85ED180A 		vstr.32	s0, [r5, #96]
 3650              		.loc 1 288 0
 3651 0e6c FFF7FEFF 		bl	buffer_get_float32_auto
 3652              	.LVL353:
 3653              		.loc 1 289 0
 3654 0e70 3146     		mov	r1, r6
 3655 0e72 2046     		mov	r0, r4
 3656              		.loc 1 288 0
 3657 0e74 85ED1F0A 		vstr.32	s0, [r5, #124]
 3658              		.loc 1 289 0
 3659 0e78 FFF7FEFF 		bl	buffer_get_float32_auto
 3660              	.LVL354:
 3661              		.loc 1 290 0
 3662 0e7c 3146     		mov	r1, r6
 3663 0e7e 2046     		mov	r0, r4
 3664              		.loc 1 289 0
 3665 0e80 85ED200A 		vstr.32	s0, [r5, #128]
 3666              		.loc 1 290 0
 3667 0e84 FFF7FEFF 		bl	buffer_get_float32_auto
 3668              	.LVL355:
 3669              		.loc 1 291 0
 3670 0e88 3146     		mov	r1, r6
 3671 0e8a 2046     		mov	r0, r4
 3672              		.loc 1 290 0
 3673 0e8c 85ED210A 		vstr.32	s0, [r5, #132]
 3674              		.loc 1 291 0
 3675 0e90 FFF7FEFF 		bl	buffer_get_float32_auto
 3676              	.LVL356:
 3677              		.loc 1 292 0
 3678 0e94 3146     		mov	r1, r6
 3679 0e96 2046     		mov	r0, r4
 3680              		.loc 1 291 0
 3681 0e98 85ED220A 		vstr.32	s0, [r5, #136]
 3682              		.loc 1 292 0
 3683 0e9c FFF7FEFF 		bl	buffer_get_float32_auto
 3684              	.LVL357:
 3685              		.loc 1 293 0
 3686 0ea0 3146     		mov	r1, r6
 3687 0ea2 2046     		mov	r0, r4
 3688              		.loc 1 292 0
 3689 0ea4 85ED230A 		vstr.32	s0, [r5, #140]
 3690              		.loc 1 293 0
 3691 0ea8 FFF7FEFF 		bl	buffer_get_float32_auto
 3692              	.LVL358:
 3693              		.loc 1 294 0
 3694 0eac 3146     		mov	r1, r6
 3695 0eae 2046     		mov	r0, r4
 3696              		.loc 1 293 0
 3697 0eb0 85ED240A 		vstr.32	s0, [r5, #144]
 3698              		.loc 1 294 0
 3699 0eb4 FFF7FEFF 		bl	buffer_get_float32_auto
 3700              	.LVL359:
 3701              		.loc 1 296 0
 3702 0eb8 029B     		ldr	r3, [sp, #8]
 3703              		.loc 1 294 0
 3704 0eba 85ED250A 		vstr.32	s0, [r5, #148]
 3705              		.loc 1 296 0
ARM GAS  /var/folders/sv/kgmgr77579zbf78p2zlhkdfr0000gn/T//ccMuP6SP.s 			page 66


 3706 0ebe E118     		adds	r1, r4, r3
 3707 0ec0 05F19802 		add	r2, r5, #152
 3708 0ec4 0868     		ldr	r0, [r1]	@ unaligned
 3709 0ec6 4968     		ldr	r1, [r1, #4]	@ unaligned
 3710              		.loc 1 297 0
 3711 0ec8 0833     		adds	r3, r3, #8
 3712              		.loc 1 296 0
 3713 0eca 03C2     		stmia	r2!, {r0, r1}
 3714              		.loc 1 298 0
 3715 0ecc 3146     		mov	r1, r6
 3716 0ece 2046     		mov	r0, r4
 3717              		.loc 1 297 0
 3718 0ed0 0293     		str	r3, [sp, #8]
 3719              		.loc 1 298 0
 3720 0ed2 FFF7FEFF 		bl	buffer_get_float32_auto
 3721              	.LVL360:
 3722              		.loc 1 300 0
 3723 0ed6 3146     		mov	r1, r6
 3724 0ed8 2046     		mov	r0, r4
 3725              		.loc 1 298 0
 3726 0eda 85ED280A 		vstr.32	s0, [r5, #160]
 3727              		.loc 1 300 0
 3728 0ede FFF7FEFF 		bl	buffer_get_float32_auto
 3729              	.LVL361:
 3730              		.loc 1 301 0
 3731 0ee2 3146     		mov	r1, r6
 3732 0ee4 2046     		mov	r0, r4
 3733              		.loc 1 300 0
 3734 0ee6 85ED290A 		vstr.32	s0, [r5, #164]
 3735              		.loc 1 301 0
 3736 0eea FFF7FEFF 		bl	buffer_get_float32_auto
 3737              	.LVL362:
 3738              		.loc 1 302 0
 3739 0eee 3146     		mov	r1, r6
 3740 0ef0 2046     		mov	r0, r4
 3741              		.loc 1 301 0
 3742 0ef2 85ED2A0A 		vstr.32	s0, [r5, #168]
 3743              		.loc 1 302 0
 3744 0ef6 FFF7FEFF 		bl	buffer_get_float32_auto
 3745              	.LVL363:
 3746              		.loc 1 303 0
 3747 0efa 3146     		mov	r1, r6
 3748 0efc 2046     		mov	r0, r4
 3749              		.loc 1 302 0
 3750 0efe 85ED2B0A 		vstr.32	s0, [r5, #172]
 3751              		.loc 1 303 0
 3752 0f02 FFF7FEFF 		bl	buffer_get_float32_auto
 3753              	.LVL364:
 3754              		.loc 1 304 0
 3755 0f06 029B     		ldr	r3, [sp, #8]
 3756              		.loc 1 303 0
 3757 0f08 85ED2C0A 		vstr.32	s0, [r5, #176]
 3758              		.loc 1 304 0
 3759 0f0c E25C     		ldrb	r2, [r4, r3]	@ zero_extendqisi2
 3760 0f0e 0032     		adds	r2, r2, #0
 3761 0f10 18BF     		it	ne
 3762 0f12 0122     		movne	r2, #1
ARM GAS  /var/folders/sv/kgmgr77579zbf78p2zlhkdfr0000gn/T//ccMuP6SP.s 			page 67


 3763 0f14 0133     		adds	r3, r3, #1
 3764              		.loc 1 305 0
 3765 0f16 3146     		mov	r1, r6
 3766 0f18 2046     		mov	r0, r4
 3767              		.loc 1 304 0
 3768 0f1a 85F8B820 		strb	r2, [r5, #184]
 3769 0f1e 0293     		str	r3, [sp, #8]
 3770              		.loc 1 305 0
 3771 0f20 FFF7FEFF 		bl	buffer_get_float32_auto
 3772              	.LVL365:
 3773              		.loc 1 306 0
 3774 0f24 3146     		mov	r1, r6
 3775 0f26 2046     		mov	r0, r4
 3776              		.loc 1 305 0
 3777 0f28 85ED2D0A 		vstr.32	s0, [r5, #180]
 3778              		.loc 1 306 0
 3779 0f2c FFF7FEFF 		bl	buffer_get_float32_auto
 3780              	.LVL366:
 3781              		.loc 1 307 0
 3782 0f30 029B     		ldr	r3, [sp, #8]
 3783              		.loc 1 306 0
 3784 0f32 85ED2F0A 		vstr.32	s0, [r5, #188]
 3785              		.loc 1 307 0
 3786 0f36 E25C     		ldrb	r2, [r4, r3]	@ zero_extendqisi2
 3787 0f38 85F8F820 		strb	r2, [r5, #248]
 3788 0f3c 0133     		adds	r3, r3, #1
 3789              		.loc 1 308 0
 3790 0f3e 3146     		mov	r1, r6
 3791 0f40 2046     		mov	r0, r4
 3792              		.loc 1 307 0
 3793 0f42 0293     		str	r3, [sp, #8]
 3794              		.loc 1 308 0
 3795 0f44 FFF7FEFF 		bl	buffer_get_float32_auto
 3796              	.LVL367:
 3797              		.loc 1 309 0
 3798 0f48 3146     		mov	r1, r6
 3799 0f4a 2046     		mov	r0, r4
 3800              		.loc 1 308 0
 3801 0f4c 85ED350A 		vstr.32	s0, [r5, #212]
 3802              		.loc 1 309 0
 3803 0f50 FFF7FEFF 		bl	buffer_get_float32_auto
 3804              	.LVL368:
 3805              		.loc 1 310 0
 3806 0f54 3146     		mov	r1, r6
 3807 0f56 2046     		mov	r0, r4
 3808              		.loc 1 309 0
 3809 0f58 85ED360A 		vstr.32	s0, [r5, #216]
 3810              		.loc 1 310 0
 3811 0f5c FFF7FEFF 		bl	buffer_get_float32_auto
 3812              	.LVL369:
 3813              		.loc 1 311 0
 3814 0f60 3146     		mov	r1, r6
 3815 0f62 2046     		mov	r0, r4
 3816              		.loc 1 310 0
 3817 0f64 85ED300A 		vstr.32	s0, [r5, #192]
 3818              		.loc 1 311 0
 3819 0f68 FFF7FEFF 		bl	buffer_get_float32_auto
ARM GAS  /var/folders/sv/kgmgr77579zbf78p2zlhkdfr0000gn/T//ccMuP6SP.s 			page 68


 3820              	.LVL370:
 3821              		.loc 1 312 0
 3822 0f6c 3146     		mov	r1, r6
 3823 0f6e 2046     		mov	r0, r4
 3824              		.loc 1 311 0
 3825 0f70 85ED310A 		vstr.32	s0, [r5, #196]
 3826              		.loc 1 312 0
 3827 0f74 FFF7FEFF 		bl	buffer_get_float32_auto
 3828              	.LVL371:
 3829              		.loc 1 313 0
 3830 0f78 3146     		mov	r1, r6
 3831 0f7a 2046     		mov	r0, r4
 3832              		.loc 1 312 0
 3833 0f7c 85ED320A 		vstr.32	s0, [r5, #200]
 3834              		.loc 1 313 0
 3835 0f80 FFF7FEFF 		bl	buffer_get_float32_auto
 3836              	.LVL372:
 3837              		.loc 1 314 0
 3838 0f84 3146     		mov	r1, r6
 3839 0f86 2046     		mov	r0, r4
 3840              		.loc 1 313 0
 3841 0f88 85ED330A 		vstr.32	s0, [r5, #204]
 3842              		.loc 1 314 0
 3843 0f8c FFF7FEFF 		bl	buffer_get_float32_auto
 3844              	.LVL373:
 3845              		.loc 1 315 0
 3846 0f90 3146     		mov	r1, r6
 3847 0f92 2046     		mov	r0, r4
 3848              		.loc 1 314 0
 3849 0f94 85ED340A 		vstr.32	s0, [r5, #208]
 3850              		.loc 1 315 0
 3851 0f98 FFF7FEFF 		bl	buffer_get_float32_auto
 3852              	.LVL374:
 3853              		.loc 1 316 0
 3854 0f9c 3146     		mov	r1, r6
 3855 0f9e 2046     		mov	r0, r4
 3856              		.loc 1 315 0
 3857 0fa0 85ED370A 		vstr.32	s0, [r5, #220]
 3858              		.loc 1 316 0
 3859 0fa4 FFF7FEFF 		bl	buffer_get_float32_auto
 3860              	.LVL375:
 3861              		.loc 1 317 0
 3862 0fa8 3146     		mov	r1, r6
 3863 0faa 2046     		mov	r0, r4
 3864              		.loc 1 316 0
 3865 0fac 85ED380A 		vstr.32	s0, [r5, #224]
 3866              		.loc 1 317 0
 3867 0fb0 FFF7FEFF 		bl	buffer_get_float32_auto
 3868              	.LVL376:
 3869              		.loc 1 318 0
 3870 0fb4 3146     		mov	r1, r6
 3871 0fb6 2046     		mov	r0, r4
 3872              		.loc 1 317 0
 3873 0fb8 85ED390A 		vstr.32	s0, [r5, #228]
 3874              		.loc 1 318 0
 3875 0fbc FFF7FEFF 		bl	buffer_get_float32_auto
 3876              	.LVL377:
ARM GAS  /var/folders/sv/kgmgr77579zbf78p2zlhkdfr0000gn/T//ccMuP6SP.s 			page 69


 3877              		.loc 1 319 0
 3878 0fc0 3146     		mov	r1, r6
 3879 0fc2 2046     		mov	r0, r4
 3880              		.loc 1 318 0
 3881 0fc4 85ED3A0A 		vstr.32	s0, [r5, #232]
 3882              		.loc 1 319 0
 3883 0fc8 FFF7FEFF 		bl	buffer_get_float32_auto
 3884              	.LVL378:
 3885              		.loc 1 320 0
 3886 0fcc 3146     		mov	r1, r6
 3887 0fce 2046     		mov	r0, r4
 3888              		.loc 1 319 0
 3889 0fd0 85ED3B0A 		vstr.32	s0, [r5, #236]
 3890              		.loc 1 320 0
 3891 0fd4 FFF7FEFF 		bl	buffer_get_float32_auto
 3892              	.LVL379:
 3893              		.loc 1 321 0
 3894 0fd8 3146     		mov	r1, r6
 3895 0fda 2046     		mov	r0, r4
 3896              		.loc 1 320 0
 3897 0fdc 85ED3C0A 		vstr.32	s0, [r5, #240]
 3898              		.loc 1 321 0
 3899 0fe0 FFF7FEFF 		bl	buffer_get_float32_auto
 3900              	.LVL380:
 3901              		.loc 1 322 0
 3902 0fe4 029B     		ldr	r3, [sp, #8]
 3903              		.loc 1 321 0
 3904 0fe6 85ED3D0A 		vstr.32	s0, [r5, #244]
 3905              		.loc 1 322 0
 3906 0fea E218     		adds	r2, r4, r3
 3907              		.loc 1 324 0
 3908 0fec 3146     		mov	r1, r6
 3909              		.loc 1 322 0
 3910 0fee 1768     		ldr	r7, [r2]	@ unaligned
 3911 0ff0 5268     		ldr	r2, [r2, #4]	@ unaligned
 3912 0ff2 C5F8FD20 		str	r2, [r5, #253]	@ unaligned
 3913              		.loc 1 323 0
 3914 0ff6 0833     		adds	r3, r3, #8
 3915              		.loc 1 324 0
 3916 0ff8 2046     		mov	r0, r4
 3917              		.loc 1 322 0
 3918 0ffa C5F8F970 		str	r7, [r5, #249]	@ unaligned
 3919              		.loc 1 323 0
 3920 0ffe 0293     		str	r3, [sp, #8]
 3921              		.loc 1 324 0
 3922 1000 FFF7FEFF 		bl	buffer_get_float32_auto
 3923              	.LVL381:
 3924              		.loc 1 325 0
 3925 1004 029B     		ldr	r3, [sp, #8]
 3926              		.loc 1 324 0
 3927 1006 85ED410A 		vstr.32	s0, [r5, #260]
 3928              		.loc 1 325 0
 3929 100a E25C     		ldrb	r2, [r4, r3]	@ zero_extendqisi2
 3930 100c 0032     		adds	r2, r2, #0
 3931 100e 03F10101 		add	r1, r3, #1
 3932 1012 18BF     		it	ne
 3933 1014 0122     		movne	r2, #1
ARM GAS  /var/folders/sv/kgmgr77579zbf78p2zlhkdfr0000gn/T//ccMuP6SP.s 			page 70


 3934 1016 85F80821 		strb	r2, [r5, #264]
 3935              		.loc 1 326 0
 3936 101a 625C     		ldrb	r2, [r4, r1]	@ zero_extendqisi2
 3937 101c 0032     		adds	r2, r2, #0
 3938 101e 18BF     		it	ne
 3939 1020 0122     		movne	r2, #1
 3940 1022 0233     		adds	r3, r3, #2
 3941              		.loc 1 327 0
 3942 1024 3146     		mov	r1, r6
 3943 1026 2046     		mov	r0, r4
 3944              		.loc 1 326 0
 3945 1028 85F80921 		strb	r2, [r5, #265]
 3946 102c 0293     		str	r3, [sp, #8]
 3947              		.loc 1 327 0
 3948 102e FFF7FEFF 		bl	buffer_get_float32_auto
 3949              	.LVL382:
 3950              		.loc 1 328 0
 3951 1032 029B     		ldr	r3, [sp, #8]
 3952              		.loc 1 327 0
 3953 1034 85ED430A 		vstr.32	s0, [r5, #268]
 3954              		.loc 1 328 0
 3955 1038 E25C     		ldrb	r2, [r4, r3]	@ zero_extendqisi2
 3956 103a 0032     		adds	r2, r2, #0
 3957 103c 18BF     		it	ne
 3958 103e 0122     		movne	r2, #1
 3959 1040 0133     		adds	r3, r3, #1
 3960              		.loc 1 329 0
 3961 1042 3146     		mov	r1, r6
 3962 1044 2046     		mov	r0, r4
 3963              		.loc 1 328 0
 3964 1046 85F81021 		strb	r2, [r5, #272]
 3965 104a 0293     		str	r3, [sp, #8]
 3966              		.loc 1 329 0
 3967 104c FFF7FEFF 		bl	buffer_get_float32_auto
 3968              	.LVL383:
 3969              		.loc 1 331 0
 3970 1050 3146     		mov	r1, r6
 3971 1052 2046     		mov	r0, r4
 3972              		.loc 1 329 0
 3973 1054 85ED450A 		vstr.32	s0, [r5, #276]
 3974              		.loc 1 331 0
 3975 1058 FFF7FEFF 		bl	buffer_get_float32_auto
 3976              	.LVL384:
 3977              		.loc 1 332 0
 3978 105c 3146     		mov	r1, r6
 3979 105e 2046     		mov	r0, r4
 3980              		.loc 1 331 0
 3981 1060 85ED460A 		vstr.32	s0, [r5, #280]
 3982              		.loc 1 332 0
 3983 1064 FFF7FEFF 		bl	buffer_get_float32_auto
 3984              	.LVL385:
 3985              		.loc 1 333 0
 3986 1068 3146     		mov	r1, r6
 3987 106a 2046     		mov	r0, r4
 3988              		.loc 1 332 0
 3989 106c 85ED470A 		vstr.32	s0, [r5, #284]
 3990              		.loc 1 333 0
ARM GAS  /var/folders/sv/kgmgr77579zbf78p2zlhkdfr0000gn/T//ccMuP6SP.s 			page 71


 3991 1070 FFF7FEFF 		bl	buffer_get_float32_auto
 3992              	.LVL386:
 3993              		.loc 1 334 0
 3994 1074 3146     		mov	r1, r6
 3995 1076 2046     		mov	r0, r4
 3996              		.loc 1 333 0
 3997 1078 85ED480A 		vstr.32	s0, [r5, #288]
 3998              		.loc 1 334 0
 3999 107c FFF7FEFF 		bl	buffer_get_float32_auto
 4000              	.LVL387:
 4001              		.loc 1 335 0
 4002 1080 029B     		ldr	r3, [sp, #8]
 4003              		.loc 1 334 0
 4004 1082 85ED490A 		vstr.32	s0, [r5, #292]
 4005              		.loc 1 335 0
 4006 1086 E25C     		ldrb	r2, [r4, r3]	@ zero_extendqisi2
 4007 1088 0032     		adds	r2, r2, #0
 4008 108a 18BF     		it	ne
 4009 108c 0122     		movne	r2, #1
 4010 108e 0133     		adds	r3, r3, #1
 4011              		.loc 1 337 0
 4012 1090 3146     		mov	r1, r6
 4013 1092 2046     		mov	r0, r4
 4014              		.loc 1 335 0
 4015 1094 85F82821 		strb	r2, [r5, #296]
 4016 1098 18E0     		b	.L217
 4017              	.L218:
 4018 109a 00BF     		.align	2
 4019              	.L216:
 4020 109c 00000000 		.word	.LANCHOR15
 4021 10a0 0000C842 		.word	1120403456
 4022 10a4 0000C8C2 		.word	3267887104
 4023 10a8 00001643 		.word	1125515264
 4024 10ac 00006442 		.word	1113849856
 4025 10b0 00504348 		.word	1212370944
 4026 10b4 005043C8 		.word	3359854592
 4027 10b8 CDCCCC3D 		.word	1036831949
 4028 10bc 3333733F 		.word	1064514355
 4029 10c0 00000000 		.word	0
 4030 10c4 0000DC42 		.word	1121714176
 4031 10c8 000020C2 		.word	3256877056
 4032              	.L217:
 4033 10cc 0293     		str	r3, [sp, #8]
 4034              		.loc 1 337 0
 4035 10ce FFF7FEFF 		bl	buffer_get_float32_auto
 4036              	.LVL388:
 4037              		.loc 1 338 0
 4038 10d2 3146     		mov	r1, r6
 4039 10d4 2046     		mov	r0, r4
 4040              		.loc 1 337 0
 4041 10d6 85ED4B0A 		vstr.32	s0, [r5, #300]
 4042              		.loc 1 338 0
 4043 10da FFF7FEFF 		bl	buffer_get_float32_auto
 4044              	.LVL389:
 4045              		.loc 1 339 0
 4046 10de 3146     		mov	r1, r6
 4047 10e0 2046     		mov	r0, r4
ARM GAS  /var/folders/sv/kgmgr77579zbf78p2zlhkdfr0000gn/T//ccMuP6SP.s 			page 72


 4048              		.loc 1 338 0
 4049 10e2 85ED4C0A 		vstr.32	s0, [r5, #304]
 4050              		.loc 1 339 0
 4051 10e6 FFF7FEFF 		bl	buffer_get_float32_auto
 4052              	.LVL390:
 4053              		.loc 1 340 0
 4054 10ea 3146     		mov	r1, r6
 4055 10ec 2046     		mov	r0, r4
 4056              		.loc 1 339 0
 4057 10ee 85ED4D0A 		vstr.32	s0, [r5, #308]
 4058              		.loc 1 340 0
 4059 10f2 FFF7FEFF 		bl	buffer_get_float32_auto
 4060              	.LVL391:
 4061              		.loc 1 342 0
 4062 10f6 3146     		mov	r1, r6
 4063 10f8 2046     		mov	r0, r4
 4064              		.loc 1 340 0
 4065 10fa 85ED4E0A 		vstr.32	s0, [r5, #312]
 4066              		.loc 1 342 0
 4067 10fe FFF7FEFF 		bl	buffer_get_float32_auto
 4068              	.LVL392:
 4069              		.loc 1 343 0
 4070 1102 3146     		mov	r1, r6
 4071 1104 2046     		mov	r0, r4
 4072              		.loc 1 342 0
 4073 1106 85ED4F0A 		vstr.32	s0, [r5, #316]
 4074              		.loc 1 343 0
 4075 110a FFF7FEFF 		bl	buffer_get_float32_auto
 4076              	.LVL393:
 4077              		.loc 1 344 0
 4078 110e 3146     		mov	r1, r6
 4079 1110 2046     		mov	r0, r4
 4080              		.loc 1 343 0
 4081 1112 85ED500A 		vstr.32	s0, [r5, #320]
 4082              		.loc 1 344 0
 4083 1116 FFF7FEFF 		bl	buffer_get_float32_auto
 4084              	.LVL394:
 4085              		.loc 1 345 0
 4086 111a 3146     		mov	r1, r6
 4087 111c 2046     		mov	r0, r4
 4088              		.loc 1 344 0
 4089 111e 85ED510A 		vstr.32	s0, [r5, #324]
 4090              		.loc 1 345 0
 4091 1122 FFF7FEFF 		bl	buffer_get_float32_auto
 4092              	.LVL395:
 4093              		.loc 1 347 0
 4094 1126 3146     		mov	r1, r6
 4095 1128 2046     		mov	r0, r4
 4096              		.loc 1 345 0
 4097 112a 85ED520A 		vstr.32	s0, [r5, #328]
 4098              		.loc 1 347 0
 4099 112e FFF7FEFF 		bl	buffer_get_int32
 4100              	.LVL396:
 4101              		.loc 1 348 0
 4102 1132 3146     		mov	r1, r6
 4103              		.loc 1 347 0
 4104 1134 C5F84C01 		str	r0, [r5, #332]
ARM GAS  /var/folders/sv/kgmgr77579zbf78p2zlhkdfr0000gn/T//ccMuP6SP.s 			page 73


 4105              		.loc 1 348 0
 4106 1138 2046     		mov	r0, r4
 4107 113a FFF7FEFF 		bl	buffer_get_float32_auto
 4108              	.LVL397:
 4109              		.loc 1 349 0
 4110 113e 3146     		mov	r1, r6
 4111 1140 2046     		mov	r0, r4
 4112              		.loc 1 348 0
 4113 1142 85ED540A 		vstr.32	s0, [r5, #336]
 4114              		.loc 1 349 0
 4115 1146 FFF7FEFF 		bl	buffer_get_float32_auto
 4116              	.LVL398:
 4117              		.loc 1 350 0
 4118 114a 3146     		mov	r1, r6
 4119 114c 2046     		mov	r0, r4
 4120              		.loc 1 349 0
 4121 114e 85ED550A 		vstr.32	s0, [r5, #340]
 4122              		.loc 1 350 0
 4123 1152 FFF7FEFF 		bl	buffer_get_uint32
 4124              	.LVL399:
 4125              		.loc 1 351 0
 4126 1156 029B     		ldr	r3, [sp, #8]
 4127              		.loc 1 350 0
 4128 1158 C5F85801 		str	r0, [r5, #344]
 4129              		.loc 1 351 0
 4130 115c E25C     		ldrb	r2, [r4, r3]	@ zero_extendqisi2
 4131 115e 85F85C21 		strb	r2, [r5, #348]
 4132 1162 5A1C     		adds	r2, r3, #1
 4133              		.loc 1 352 0
 4134 1164 991C     		adds	r1, r3, #2
 4135 1166 A25C     		ldrb	r2, [r4, r2]	@ zero_extendqisi2
 4136 1168 0032     		adds	r2, r2, #0
 4137 116a 18BF     		it	ne
 4138 116c 0122     		movne	r2, #1
 4139 116e 85F85D21 		strb	r2, [r5, #349]
 4140              		.loc 1 353 0
 4141 1172 625C     		ldrb	r2, [r4, r1]	@ zero_extendqisi2
 4142 1174 85F85E21 		strb	r2, [r5, #350]
 4143 1178 DA1C     		adds	r2, r3, #3
 4144              		.loc 1 355 0
 4145 117a 3146     		mov	r1, r6
 4146              		.loc 1 354 0
 4147 117c A25C     		ldrb	r2, [r4, r2]	@ zero_extendqisi2
 4148 117e C5F86021 		str	r2, [r5, #352]
 4149 1182 0433     		adds	r3, r3, #4
 4150              		.loc 1 355 0
 4151 1184 2046     		mov	r0, r4
 4152              		.loc 1 354 0
 4153 1186 0293     		str	r3, [sp, #8]
 4154              		.loc 1 355 0
 4155 1188 FFF7FEFF 		bl	buffer_get_float32_auto
 4156              	.LVL400:
 4157              		.loc 1 356 0
 4158 118c 3146     		mov	r1, r6
 4159 118e 2046     		mov	r0, r4
 4160              		.loc 1 355 0
 4161 1190 85ED590A 		vstr.32	s0, [r5, #356]
ARM GAS  /var/folders/sv/kgmgr77579zbf78p2zlhkdfr0000gn/T//ccMuP6SP.s 			page 74


 4162              		.loc 1 356 0
 4163 1194 FFF7FEFF 		bl	buffer_get_float32_auto
 4164              	.LVL401:
 4165              		.loc 1 357 0
 4166 1198 3146     		mov	r1, r6
 4167 119a 2046     		mov	r0, r4
 4168              		.loc 1 356 0
 4169 119c 85ED5A0A 		vstr.32	s0, [r5, #360]
 4170              		.loc 1 357 0
 4171 11a0 FFF7FEFF 		bl	buffer_get_float32_auto
 4172              	.LVL402:
 4173              		.loc 1 358 0
 4174 11a4 3146     		mov	r1, r6
 4175 11a6 2046     		mov	r0, r4
 4176              		.loc 1 357 0
 4177 11a8 85ED5B0A 		vstr.32	s0, [r5, #364]
 4178              		.loc 1 358 0
 4179 11ac FFF7FEFF 		bl	buffer_get_float32_auto
 4180              	.LVL403:
 4181              		.loc 1 363 0
 4182 11b0 5FED450A 		vldr.32	s1, .L216+4
 4183              		.loc 1 358 0
 4184 11b4 85ED5C0A 		vstr.32	s0, [r5, #368]
 4185              		.loc 1 363 0
 4186 11b8 281D     		adds	r0, r5, #4
 4187 11ba 1FED460A 		vldr.32	s0, .L216+8
 4188 11be FFF7FEFF 		bl	utils_truncate_number
 4189              	.LVL404:
 4190              		.loc 1 364 0
 4191 11c2 5FED490A 		vldr.32	s1, .L216+4
 4192 11c6 1FED490A 		vldr.32	s0, .L216+8
 4193 11ca 05F10800 		add	r0, r5, #8
 4194 11ce FFF7FEFF 		bl	utils_truncate_number
 4195              	.LVL405:
 4196              		.loc 1 367 0
 4197 11d2 5FED4D0A 		vldr.32	s1, .L216+4
 4198 11d6 1FED4D0A 		vldr.32	s0, .L216+8
 4199 11da 05F10C00 		add	r0, r5, #12
 4200 11de FFF7FEFF 		bl	utils_truncate_number
 4201              	.LVL406:
 4202              		.loc 1 368 0
 4203 11e2 5FED510A 		vldr.32	s1, .L216+4
 4204 11e6 1FED510A 		vldr.32	s0, .L216+8
 4205 11ea 05F11000 		add	r0, r5, #16
 4206 11ee FFF7FEFF 		bl	utils_truncate_number
 4207              	.LVL407:
 4208              		.loc 1 371 0
 4209 11f2 5FED530A 		vldr.32	s1, .L216+12
 4210 11f6 1FED4E0A 		vldr.32	s0, .L216+36
 4211 11fa 05F11400 		add	r0, r5, #20
 4212 11fe FFF7FEFF 		bl	utils_truncate_number
 4213              	.LVL408:
 4214              		.loc 1 374 0
 4215 1202 5FED560A 		vldr.32	s1, .L216+16
 4216 1206 B1EE080A 		vmov.f32	s0, #6.0e+0
 4217 120a 05F13000 		add	r0, r5, #48
 4218 120e FFF7FEFF 		bl	utils_truncate_number
ARM GAS  /var/folders/sv/kgmgr77579zbf78p2zlhkdfr0000gn/T//ccMuP6SP.s 			page 75


 4219              	.LVL409:
 4220              		.loc 1 375 0
 4221 1212 5FED5A0A 		vldr.32	s1, .L216+16
 4222 1216 B1EE080A 		vmov.f32	s0, #6.0e+0
 4223 121a 05F12C00 		add	r0, r5, #44
 4224 121e FFF7FEFF 		bl	utils_truncate_number
 4225              	.LVL410:
 4226              		.loc 1 378 0
 4227 1222 5FED5D0A 		vldr.32	s1, .L216+20
 4228 1226 1FED5D0A 		vldr.32	s0, .L216+24
 4229 122a 05F11C00 		add	r0, r5, #28
 4230 122e FFF7FEFF 		bl	utils_truncate_number
 4231              	.LVL411:
 4232              		.loc 1 379 0
 4233 1232 5FED610A 		vldr.32	s1, .L216+20
 4234 1236 1FED610A 		vldr.32	s0, .L216+24
 4235 123a 05F11800 		add	r0, r5, #24
 4236 123e FFF7FEFF 		bl	utils_truncate_number
 4237              	.LVL412:
 4238              		.loc 1 382 0
 4239 1242 5FED630A 		vldr.32	s1, .L216+28
 4240 1246 1FED620A 		vldr.32	s0, .L216+36
 4241 124a 05F15400 		add	r0, r5, #84
 4242 124e FFF7FEFF 		bl	utils_truncate_number
 4243              	.LVL413:
 4244              		.loc 1 385 0
 4245 1252 5FED660A 		vldr.32	s1, .L216+32
 4246 1256 1FED660A 		vldr.32	s0, .L216+36
 4247 125a 05F15800 		add	r0, r5, #88
 4248 125e FFF7FEFF 		bl	utils_truncate_number
 4249              	.LVL414:
 4250              		.loc 1 388 0
 4251 1262 5FED680A 		vldr.32	s1, .L216+40
 4252 1266 1FED680A 		vldr.32	s0, .L216+44
 4253 126a 05F14000 		add	r0, r5, #64
 4254 126e FFF7FEFF 		bl	utils_truncate_number
 4255              	.LVL415:
 4256              		.loc 1 389 0
 4257 1272 5FED6C0A 		vldr.32	s1, .L216+40
 4258 1276 1FED6C0A 		vldr.32	s0, .L216+44
 4259 127a 05F14400 		add	r0, r5, #68
 4260 127e FFF7FEFF 		bl	utils_truncate_number
 4261              	.LVL416:
 4262              		.loc 1 393 0
 4263 1282 2846     		mov	r0, r5
 4264 1284 FFF7FEFF 		bl	conf_general_store_mc_configuration
 4265              	.LVL417:
 4266              		.loc 1 394 0
 4267 1288 2846     		mov	r0, r5
 4268 128a FFF7FEFF 		bl	mc_interface_set_configuration
 4269              	.LVL418:
 4270              		.loc 1 395 0
 4271 128e 4FF4FA60 		mov	r0, #2000
 4272 1292 FFF7FEFF 		bl	chThdSleep
 4273              	.LVL419:
 4274              	.LBB130:
 4275              	.LBB131:
ARM GAS  /var/folders/sv/kgmgr77579zbf78p2zlhkdfr0000gn/T//ccMuP6SP.s 			page 76


 4276              		.loc 1 90 0
 4277 1296 D64B     		ldr	r3, .L219
 4278              	.LBE131:
 4279              	.LBE130:
 4280              		.loc 1 398 0
 4281 1298 D648     		ldr	r0, .L219+4
 4282              	.LBB134:
 4283              	.LBB132:
 4284              		.loc 1 90 0
 4285 129a 1B68     		ldr	r3, [r3]
 4286              	.LBE132:
 4287              	.LBE134:
 4288              		.loc 1 398 0
 4289 129c 0D22     		movs	r2, #13
 4290 129e 0121     		movs	r1, #1
 4291 12a0 0270     		strb	r2, [r0]
 4292              	.LVL420:
 4293 12a2 0291     		str	r1, [sp, #8]
 4294              	.LBB135:
 4295              	.LBB133:
 4296              		.loc 1 90 0
 4297 12a4 002B     		cmp	r3, #0
 4298 12a6 3EF42CAF 		beq	.L77
 4299              	.LVL421:
 4300              	.L192:
 4301              	.LBE133:
 4302              	.LBE135:
 4303              	.LBB136:
 4304              	.LBB137:
 4305              		.loc 1 91 0
 4306 12aa 9847     		blx	r3
 4307              	.LVL422:
 4308 12ac FEF729BF 		b	.L77
 4309              	.LVL423:
 4310              	.L91:
 4311              	.LBE137:
 4312              	.LBE136:
 4313              		.loc 1 219 0
 4314 12b0 2046     		mov	r0, r4
 4315 12b2 02A9     		add	r1, sp, #8
 4316 12b4 9FEDD00A 		vldr.32	s0, .L219+8
 4317 12b8 FFF7FEFF 		bl	buffer_get_float32
 4318              	.LVL424:
 4319 12bc FFF7FEFF 		bl	mc_interface_set_handbrake
 4320              	.LVL425:
 4321              		.loc 1 220 0
 4322 12c0 FFF7FEFF 		bl	timeout_reset
 4323              	.LVL426:
 4324              		.loc 1 221 0
 4325 12c4 FEF71DBF 		b	.L77
 4326              	.L90:
 4327              		.loc 1 213 0
 4328 12c8 02A9     		add	r1, sp, #8
 4329 12ca 2046     		mov	r0, r4
 4330 12cc FFF7FEFF 		bl	buffer_get_int32
 4331              	.LVL427:
 4332 12d0 07EE100A 		vmov	s14, r0	@ int
ARM GAS  /var/folders/sv/kgmgr77579zbf78p2zlhkdfr0000gn/T//ccMuP6SP.s 			page 77


 4333 12d4 DFEDC97A 		vldr.32	s15, .L219+12
 4334 12d8 B8EEC70A 		vcvt.f32.s32	s0, s14
 4335 12dc 80EE270A 		vdiv.f32	s0, s0, s15
 4336 12e0 FFF7FEFF 		bl	mc_interface_set_pid_pos
 4337              	.LVL428:
 4338              		.loc 1 214 0
 4339 12e4 FFF7FEFF 		bl	timeout_reset
 4340              	.LVL429:
 4341              		.loc 1 215 0
 4342 12e8 FEF70BBF 		b	.L77
 4343              	.L89:
 4344              		.loc 1 207 0
 4345 12ec 02A9     		add	r1, sp, #8
 4346 12ee 2046     		mov	r0, r4
 4347 12f0 FFF7FEFF 		bl	buffer_get_int32
 4348              	.LVL430:
 4349 12f4 07EE900A 		vmov	s15, r0	@ int
 4350 12f8 B8EEE70A 		vcvt.f32.s32	s0, s15
 4351 12fc FFF7FEFF 		bl	mc_interface_set_pid_speed
 4352              	.LVL431:
 4353              		.loc 1 208 0
 4354 1300 FFF7FEFF 		bl	timeout_reset
 4355              	.LVL432:
 4356              		.loc 1 209 0
 4357 1304 FEF7FDBE 		b	.L77
 4358              	.L88:
 4359              		.loc 1 201 0
 4360 1308 02A9     		add	r1, sp, #8
 4361 130a 2046     		mov	r0, r4
 4362 130c FFF7FEFF 		bl	buffer_get_int32
 4363              	.LVL433:
 4364 1310 07EE100A 		vmov	s14, r0	@ int
 4365 1314 DFEDB87A 		vldr.32	s15, .L219+8
 4366 1318 B8EEC70A 		vcvt.f32.s32	s0, s14
 4367 131c 80EE270A 		vdiv.f32	s0, s0, s15
 4368 1320 FFF7FEFF 		bl	mc_interface_set_brake_current
 4369              	.LVL434:
 4370              		.loc 1 202 0
 4371 1324 FFF7FEFF 		bl	timeout_reset
 4372              	.LVL435:
 4373              		.loc 1 203 0
 4374 1328 FEF7EBBE 		b	.L77
 4375              	.L87:
 4376              		.loc 1 195 0
 4377 132c 02A9     		add	r1, sp, #8
 4378 132e 2046     		mov	r0, r4
 4379 1330 FFF7FEFF 		bl	buffer_get_int32
 4380              	.LVL436:
 4381 1334 07EE100A 		vmov	s14, r0	@ int
 4382 1338 DFEDAF7A 		vldr.32	s15, .L219+8
 4383 133c B8EEC70A 		vcvt.f32.s32	s0, s14
 4384 1340 80EE270A 		vdiv.f32	s0, s0, s15
 4385 1344 FFF7FEFF 		bl	mc_interface_set_current
 4386              	.LVL437:
 4387              		.loc 1 196 0
 4388 1348 FFF7FEFF 		bl	timeout_reset
 4389              	.LVL438:
ARM GAS  /var/folders/sv/kgmgr77579zbf78p2zlhkdfr0000gn/T//ccMuP6SP.s 			page 78


 4390              		.loc 1 197 0
 4391 134c FEF7D9BE 		b	.L77
 4392              	.L86:
 4393              		.loc 1 189 0
 4394 1350 02A9     		add	r1, sp, #8
 4395 1352 2046     		mov	r0, r4
 4396 1354 FFF7FEFF 		bl	buffer_get_int32
 4397              	.LVL439:
 4398 1358 07EE100A 		vmov	s14, r0	@ int
 4399 135c DFEDA87A 		vldr.32	s15, .L219+16
 4400 1360 B8EEC70A 		vcvt.f32.s32	s0, s14
 4401 1364 80EE270A 		vdiv.f32	s0, s0, s15
 4402 1368 FFF7FEFF 		bl	mc_interface_set_duty
 4403              	.LVL440:
 4404              		.loc 1 190 0
 4405 136c FFF7FEFF 		bl	timeout_reset
 4406              	.LVL441:
 4407              		.loc 1 191 0
 4408 1370 FEF7C7BE 		b	.L77
 4409              	.L85:
 4410              		.loc 1 166 0
 4411 1374 36AD     		add	r5, sp, #216
 4412              	.LVL442:
 4413 1376 0123     		movs	r3, #1
 4414 1378 9E4C     		ldr	r4, .L219+4
 4415              	.LVL443:
 4416 137a 45F8D03D 		str	r3, [r5, #-208]!
 4417 137e 0423     		movs	r3, #4
 4418 1380 2370     		strb	r3, [r4]
 4419              		.loc 1 167 0
 4420 1382 FFF7FEFF 		bl	mc_interface_temp_fet_filtered
 4421              	.LVL444:
 4422 1386 2946     		mov	r1, r5
 4423 1388 2046     		mov	r0, r4
 4424 138a F2EE040A 		vmov.f32	s1, #1.0e+1
 4425 138e FFF7FEFF 		bl	buffer_append_float16
 4426              	.LVL445:
 4427              		.loc 1 168 0
 4428 1392 FFF7FEFF 		bl	mc_interface_temp_motor_filtered
 4429              	.LVL446:
 4430 1396 2946     		mov	r1, r5
 4431 1398 2046     		mov	r0, r4
 4432 139a F2EE040A 		vmov.f32	s1, #1.0e+1
 4433 139e FFF7FEFF 		bl	buffer_append_float16
 4434              	.LVL447:
 4435              		.loc 1 169 0
 4436 13a2 FFF7FEFF 		bl	mc_interface_read_reset_avg_motor_current
 4437              	.LVL448:
 4438 13a6 2946     		mov	r1, r5
 4439 13a8 2046     		mov	r0, r4
 4440 13aa DFED960A 		vldr.32	s1, .L219+20
 4441 13ae FFF7FEFF 		bl	buffer_append_float32
 4442              	.LVL449:
 4443              		.loc 1 170 0
 4444 13b2 FFF7FEFF 		bl	mc_interface_read_reset_avg_input_current
 4445              	.LVL450:
 4446 13b6 2946     		mov	r1, r5
ARM GAS  /var/folders/sv/kgmgr77579zbf78p2zlhkdfr0000gn/T//ccMuP6SP.s 			page 79


 4447 13b8 2046     		mov	r0, r4
 4448 13ba DFED920A 		vldr.32	s1, .L219+20
 4449 13be FFF7FEFF 		bl	buffer_append_float32
 4450              	.LVL451:
 4451              		.loc 1 171 0
 4452 13c2 FFF7FEFF 		bl	mc_interface_read_reset_avg_id
 4453              	.LVL452:
 4454 13c6 2946     		mov	r1, r5
 4455 13c8 2046     		mov	r0, r4
 4456 13ca DFED8E0A 		vldr.32	s1, .L219+20
 4457 13ce FFF7FEFF 		bl	buffer_append_float32
 4458              	.LVL453:
 4459              		.loc 1 172 0
 4460 13d2 FFF7FEFF 		bl	mc_interface_read_reset_avg_iq
 4461              	.LVL454:
 4462 13d6 2946     		mov	r1, r5
 4463 13d8 2046     		mov	r0, r4
 4464 13da DFED8A0A 		vldr.32	s1, .L219+20
 4465 13de FFF7FEFF 		bl	buffer_append_float32
 4466              	.LVL455:
 4467              		.loc 1 173 0
 4468 13e2 FFF7FEFF 		bl	mc_interface_get_duty_cycle_now
 4469              	.LVL456:
 4470 13e6 2946     		mov	r1, r5
 4471 13e8 2046     		mov	r0, r4
 4472 13ea DFED830A 		vldr.32	s1, .L219+8
 4473 13ee FFF7FEFF 		bl	buffer_append_float16
 4474              	.LVL457:
 4475              		.loc 1 174 0
 4476 13f2 FFF7FEFF 		bl	mc_interface_get_rpm
 4477              	.LVL458:
 4478 13f6 2946     		mov	r1, r5
 4479 13f8 2046     		mov	r0, r4
 4480 13fa F7EE000A 		vmov.f32	s1, #1.0e+0
 4481 13fe FFF7FEFF 		bl	buffer_append_float32
 4482              	.LVL459:
 4483              		.loc 1 175 0
 4484 1402 814B     		ldr	r3, .L219+24
 4485 1404 9FED817A 		vldr.32	s14, .L219+28
 4486 1408 1B8A     		ldrh	r3, [r3, #16]
 4487 140a 9FED810A 		vldr.32	s0, .L219+32
 4488 140e 9BB2     		uxth	r3, r3
 4489 1410 07EE903A 		vmov	s15, r3	@ int
 4490 1414 F8EE677A 		vcvt.f32.u32	s15, s15
 4491 1418 2946     		mov	r1, r5
 4492 141a 67EE877A 		vmul.f32	s15, s15, s14
 4493 141e F2EE040A 		vmov.f32	s1, #1.0e+1
 4494 1422 27EE800A 		vmul.f32	s0, s15, s0
 4495 1426 2046     		mov	r0, r4
 4496 1428 FFF7FEFF 		bl	buffer_append_float16
 4497              	.LVL460:
 4498              		.loc 1 176 0
 4499 142c 0020     		movs	r0, #0
 4500 142e FFF7FEFF 		bl	mc_interface_get_amp_hours
 4501              	.LVL461:
 4502 1432 2946     		mov	r1, r5
 4503 1434 DFED770A 		vldr.32	s1, .L219+36
ARM GAS  /var/folders/sv/kgmgr77579zbf78p2zlhkdfr0000gn/T//ccMuP6SP.s 			page 80


 4504 1438 2046     		mov	r0, r4
 4505 143a FFF7FEFF 		bl	buffer_append_float32
 4506              	.LVL462:
 4507              		.loc 1 177 0
 4508 143e 0020     		movs	r0, #0
 4509 1440 FFF7FEFF 		bl	mc_interface_get_amp_hours_charged
 4510              	.LVL463:
 4511 1444 2946     		mov	r1, r5
 4512 1446 DFED730A 		vldr.32	s1, .L219+36
 4513 144a 2046     		mov	r0, r4
 4514 144c FFF7FEFF 		bl	buffer_append_float32
 4515              	.LVL464:
 4516              		.loc 1 178 0
 4517 1450 0020     		movs	r0, #0
 4518 1452 FFF7FEFF 		bl	mc_interface_get_watt_hours
 4519              	.LVL465:
 4520 1456 2946     		mov	r1, r5
 4521 1458 DFED6E0A 		vldr.32	s1, .L219+36
 4522 145c 2046     		mov	r0, r4
 4523 145e FFF7FEFF 		bl	buffer_append_float32
 4524              	.LVL466:
 4525              		.loc 1 179 0
 4526 1462 0020     		movs	r0, #0
 4527 1464 FFF7FEFF 		bl	mc_interface_get_watt_hours_charged
 4528              	.LVL467:
 4529 1468 DFED6A0A 		vldr.32	s1, .L219+36
 4530 146c 2946     		mov	r1, r5
 4531 146e 2046     		mov	r0, r4
 4532 1470 FFF7FEFF 		bl	buffer_append_float32
 4533              	.LVL468:
 4534              		.loc 1 180 0
 4535 1474 0020     		movs	r0, #0
 4536 1476 FFF7FEFF 		bl	mc_interface_get_tachometer_value
 4537              	.LVL469:
 4538 147a 2A46     		mov	r2, r5
 4539 147c 0146     		mov	r1, r0
 4540 147e 2046     		mov	r0, r4
 4541 1480 FFF7FEFF 		bl	buffer_append_int32
 4542              	.LVL470:
 4543              		.loc 1 181 0
 4544 1484 0020     		movs	r0, #0
 4545 1486 FFF7FEFF 		bl	mc_interface_get_tachometer_abs_value
 4546              	.LVL471:
 4547 148a 2A46     		mov	r2, r5
 4548 148c 0146     		mov	r1, r0
 4549 148e 2046     		mov	r0, r4
 4550 1490 FFF7FEFF 		bl	buffer_append_int32
 4551              	.LVL472:
 4552              		.loc 1 182 0
 4553 1494 029E     		ldr	r6, [sp, #8]
 4554 1496 731C     		adds	r3, r6, #1
 4555 1498 0293     		str	r3, [sp, #8]
 4556 149a FFF7FEFF 		bl	mc_interface_get_fault
 4557              	.LVL473:
 4558 149e A055     		strb	r0, [r4, r6]
 4559              		.loc 1 183 0
 4560 14a0 FFF7FEFF 		bl	mc_interface_get_pid_pos_now
ARM GAS  /var/folders/sv/kgmgr77579zbf78p2zlhkdfr0000gn/T//ccMuP6SP.s 			page 81


 4561              	.LVL474:
 4562 14a4 2946     		mov	r1, r5
 4563 14a6 2046     		mov	r0, r4
 4564 14a8 DFED540A 		vldr.32	s1, .L219+12
 4565 14ac FFF7FEFF 		bl	buffer_append_float32
 4566              	.LVL475:
 4567              	.LBB141:
 4568              	.LBB142:
 4569              		.loc 1 90 0
 4570 14b0 4F4B     		ldr	r3, .L219
 4571              	.LBE142:
 4572              	.LBE141:
 4573              		.loc 1 184 0
 4574 14b2 0299     		ldr	r1, [sp, #8]
 4575              	.LVL476:
 4576              	.LBB144:
 4577              	.LBB143:
 4578              		.loc 1 90 0
 4579 14b4 1B68     		ldr	r3, [r3]
 4580 14b6 002B     		cmp	r3, #0
 4581 14b8 7EF469AE 		bne	.L191
 4582 14bc FEF721BE 		b	.L77
 4583              	.LVL477:
 4584              	.L84:
 4585              	.LBE143:
 4586              	.LBE144:
 4587              		.loc 1 155 0
 4588 14c0 02A9     		add	r1, sp, #8
 4589 14c2 2046     		mov	r0, r4
 4590 14c4 FFF7FEFF 		bl	buffer_get_uint32
 4591              	.LVL478:
 4592              		.loc 1 156 0
 4593 14c8 0299     		ldr	r1, [sp, #8]
 4594 14ca 6A1A     		subs	r2, r5, r1
 4595 14cc 2144     		add	r1, r1, r4
 4596 14ce FFF7FEFF 		bl	flash_helper_write_new_app_data
 4597              	.LVL479:
 4598              	.LBB145:
 4599              	.LBB146:
 4600              		.loc 1 90 0
 4601 14d2 474A     		ldr	r2, .L219
 4602              	.LBE146:
 4603              	.LBE145:
 4604              		.loc 1 159 0
 4605 14d4 474B     		ldr	r3, .L219+4
 4606              	.LBB149:
 4607              	.LBB147:
 4608              		.loc 1 90 0
 4609 14d6 1268     		ldr	r2, [r2]
 4610              	.LBE147:
 4611              	.LBE149:
 4612              		.loc 1 160 0
 4613 14d8 A0F10900 		sub	r0, #9
 4614              	.LVL480:
 4615 14dc B0FA80F0 		clz	r0, r0
 4616 14e0 4009     		lsrs	r0, r0, #5
 4617              		.loc 1 159 0
ARM GAS  /var/folders/sv/kgmgr77579zbf78p2zlhkdfr0000gn/T//ccMuP6SP.s 			page 82


 4618 14e2 0324     		movs	r4, #3
 4619              	.LVL481:
 4620              		.loc 1 160 0
 4621 14e4 0221     		movs	r1, #2
 4622 14e6 5870     		strb	r0, [r3, #1]
 4623              	.LVL482:
 4624              		.loc 1 159 0
 4625 14e8 1C70     		strb	r4, [r3]
 4626              		.loc 1 160 0
 4627 14ea 0291     		str	r1, [sp, #8]
 4628              	.LBB150:
 4629              	.LBB148:
 4630              		.loc 1 90 0
 4631 14ec 002A     		cmp	r2, #0
 4632 14ee 3EF408AE 		beq	.L77
 4633              	.LVL483:
 4634              	.L190:
 4635              		.loc 1 91 0
 4636 14f2 1846     		mov	r0, r3
 4637 14f4 9047     		blx	r2
 4638              	.LVL484:
 4639 14f6 FEF704BE 		b	.L77
 4640              	.LVL485:
 4641              	.L83:
 4642              	.LBE148:
 4643              	.LBE150:
 4644              		.loc 1 145 0
 4645 14fa 02A9     		add	r1, sp, #8
 4646 14fc 2046     		mov	r0, r4
 4647 14fe FFF7FEFF 		bl	buffer_get_uint32
 4648              	.LVL486:
 4649 1502 FFF7FEFF 		bl	flash_helper_erase_new_app
 4650              	.LVL487:
 4651              	.LBB151:
 4652              	.LBB152:
 4653              		.loc 1 90 0
 4654 1506 3A4A     		ldr	r2, .L219
 4655              	.LBE152:
 4656              	.LBE151:
 4657              		.loc 1 148 0
 4658 1508 3A4B     		ldr	r3, .L219+4
 4659              	.LBB155:
 4660              	.LBB153:
 4661              		.loc 1 90 0
 4662 150a 1268     		ldr	r2, [r2]
 4663              	.LBE153:
 4664              	.LBE155:
 4665              		.loc 1 149 0
 4666 150c A0F10900 		sub	r0, #9
 4667              	.LVL488:
 4668 1510 B0FA80F0 		clz	r0, r0
 4669              		.loc 1 148 0
 4670 1514 0221     		movs	r1, #2
 4671              		.loc 1 149 0
 4672 1516 4009     		lsrs	r0, r0, #5
 4673 1518 5870     		strb	r0, [r3, #1]
 4674              	.LVL489:
ARM GAS  /var/folders/sv/kgmgr77579zbf78p2zlhkdfr0000gn/T//ccMuP6SP.s 			page 83


 4675              		.loc 1 148 0
 4676 151a 1970     		strb	r1, [r3]
 4677              		.loc 1 149 0
 4678 151c 0291     		str	r1, [sp, #8]
 4679              	.LBB156:
 4680              	.LBB154:
 4681              		.loc 1 90 0
 4682 151e 002A     		cmp	r2, #0
 4683 1520 E7D1     		bne	.L190
 4684 1522 FEF7EEBD 		b	.L77
 4685              	.LVL490:
 4686              	.L82:
 4687              	.LBE154:
 4688              	.LBE156:
 4689              		.loc 1 140 0
 4690 1526 FFF7FEFF 		bl	flash_helper_jump_to_bootloader
 4691              	.LVL491:
 4692              		.loc 1 141 0
 4693 152a FEF7EABD 		b	.L77
 4694              	.L80:
 4695              		.loc 1 129 0
 4696 152e 3A4A     		ldr	r2, .L219+40
 4697              		.loc 1 124 0
 4698 1530 304B     		ldr	r3, .L219+4
 4699              		.loc 1 129 0
 4700 1532 1068     		ldr	r0, [r2]	@ unaligned
 4701 1534 C3F80300 		str	r0, [r3, #3]	@ unaligned
 4702              		.loc 1 125 0
 4703 1538 0321     		movs	r1, #3
 4704              		.loc 1 124 0
 4705 153a 0020     		movs	r0, #0
 4706              		.loc 1 126 0
 4707 153c 2222     		movs	r2, #34
 4708              		.loc 1 132 0
 4709 153e 374C     		ldr	r4, .L219+44
 4710              	.LVL492:
 4711              		.loc 1 124 0
 4712 1540 1870     		strb	r0, [r3]
 4713              		.loc 1 125 0
 4714 1542 5970     		strb	r1, [r3, #1]
 4715              		.loc 1 126 0
 4716 1544 9A70     		strb	r2, [r3, #2]
 4717              		.loc 1 132 0
 4718 1546 07CC     		ldmia	r4!, {r0, r1, r2}
 4719              	.LBB157:
 4720              	.LBB158:
 4721              		.loc 1 90 0
 4722 1548 294C     		ldr	r4, .L219
 4723              	.LBE158:
 4724              	.LBE157:
 4725              		.loc 1 132 0
 4726 154a C3F80B10 		str	r1, [r3, #11]	@ unaligned
 4727              	.LBB161:
 4728              	.LBB159:
 4729              		.loc 1 90 0
 4730 154e 2468     		ldr	r4, [r4]
 4731              	.LBE159:
ARM GAS  /var/folders/sv/kgmgr77579zbf78p2zlhkdfr0000gn/T//ccMuP6SP.s 			page 84


 4732              	.LBE161:
 4733              		.loc 1 132 0
 4734 1550 C3F80700 		str	r0, [r3, #7]	@ unaligned
 4735              		.loc 1 133 0
 4736 1554 1321     		movs	r1, #19
 4737              		.loc 1 132 0
 4738 1556 C3F80F20 		str	r2, [r3, #15]	@ unaligned
 4739              		.loc 1 133 0
 4740 155a 0291     		str	r1, [sp, #8]
 4741              	.LVL493:
 4742              	.LBB162:
 4743              	.LBB160:
 4744              		.loc 1 90 0
 4745 155c 002C     		cmp	r4, #0
 4746 155e 3EF4D0AD 		beq	.L77
 4747              		.loc 1 91 0
 4748 1562 1846     		mov	r0, r3
 4749 1564 A047     		blx	r4
 4750              	.LVL494:
 4751 1566 FEF7CCBD 		b	.L77
 4752              	.LVL495:
 4753              	.L112:
 4754              	.LBE160:
 4755              	.LBE162:
 4756              		.loc 1 845 0
 4757 156a 02A9     		add	r1, sp, #8
 4758 156c 2046     		mov	r0, r4
 4759 156e FFF7FEFF 		bl	buffer_get_int32
 4760              	.LVL496:
 4761 1572 FFF7FEFF 		bl	nrf_driver_start_pairing
 4762              	.LVL497:
 4763              	.LBB163:
 4764              	.LBB138:
 4765              		.loc 1 90 0
 4766 1576 1E4B     		ldr	r3, .L219
 4767              	.LBE138:
 4768              	.LBE163:
 4769              		.loc 1 848 0
 4770 1578 1E48     		ldr	r0, .L219+4
 4771              	.LBB164:
 4772              	.LBB139:
 4773              		.loc 1 90 0
 4774 157a 1B68     		ldr	r3, [r3]
 4775              	.LBE139:
 4776              	.LBE164:
 4777              		.loc 1 848 0
 4778 157c 2524     		movs	r4, #37
 4779              	.LVL498:
 4780              		.loc 1 849 0
 4781 157e 0022     		movs	r2, #0
 4782 1580 0221     		movs	r1, #2
 4783              		.loc 1 848 0
 4784 1582 0470     		strb	r4, [r0]
 4785              		.loc 1 849 0
 4786 1584 4270     		strb	r2, [r0, #1]
 4787              	.LVL499:
 4788 1586 0291     		str	r1, [sp, #8]
ARM GAS  /var/folders/sv/kgmgr77579zbf78p2zlhkdfr0000gn/T//ccMuP6SP.s 			page 85


 4789              	.LBB165:
 4790              	.LBB140:
 4791              		.loc 1 90 0
 4792 1588 002B     		cmp	r3, #0
 4793 158a 7FF48EAE 		bne	.L192
 4794 158e FEF7B8BD 		b	.L77
 4795              	.LVL500:
 4796              	.L111:
 4797              	.LBE140:
 4798              	.LBE165:
 4799              		.loc 1 838 0
 4800 1592 234B     		ldr	r3, .L219+48
 4801 1594 1B68     		ldr	r3, [r3]
 4802 1596 002B     		cmp	r3, #0
 4803 1598 3EF4B3AD 		beq	.L77
 4804              		.loc 1 839 0
 4805 159c 2946     		mov	r1, r5
 4806 159e FEF7F6BD 		b	.L191
 4807              	.L110:
 4808              		.loc 1 829 0
 4809 15a2 C278     		ldrb	r2, [r0, #3]	@ zero_extendqisi2
 4810              		.loc 1 830 0
 4811 15a4 0379     		ldrb	r3, [r0, #4]	@ zero_extendqisi2
 4812              		.loc 1 827 0
 4813 15a6 4178     		ldrb	r1, [r0, #1]	@ zero_extendqisi2
 4814              		.loc 1 828 0
 4815 15a8 8678     		ldrb	r6, [r0, #2]	@ zero_extendqisi2
 4816              		.loc 1 827 0
 4817 15aa 0491     		str	r1, [sp, #16]
 4818              		.loc 1 829 0
 4819 15ac 0032     		adds	r2, r2, #0
 4820 15ae 18BF     		it	ne
 4821 15b0 0122     		movne	r2, #1
 4822              		.loc 1 830 0
 4823 15b2 0033     		adds	r3, r3, #0
 4824 15b4 18BF     		it	ne
 4825 15b6 0123     		movne	r3, #1
 4826              		.loc 1 831 0
 4827 15b8 02A9     		add	r1, sp, #8
 4828              		.loc 1 830 0
 4829 15ba 0425     		movs	r5, #4
 4830              	.LVL501:
 4831              		.loc 1 831 0
 4832 15bc 2046     		mov	r0, r4
 4833              		.loc 1 829 0
 4834 15be 8DF82420 		strb	r2, [sp, #36]
 4835              		.loc 1 830 0
 4836 15c2 8DF82530 		strb	r3, [sp, #37]
 4837              		.loc 1 828 0
 4838 15c6 0596     		str	r6, [sp, #20]
 4839              		.loc 1 830 0
 4840 15c8 0295     		str	r5, [sp, #8]
 4841              		.loc 1 831 0
 4842 15ca FFF7FEFF 		bl	buffer_get_int16
 4843              	.LVL502:
 4844              		.loc 1 832 0
 4845 15ce 02A9     		add	r1, sp, #8
ARM GAS  /var/folders/sv/kgmgr77579zbf78p2zlhkdfr0000gn/T//ccMuP6SP.s 			page 86


 4846              		.loc 1 831 0
 4847 15d0 0690     		str	r0, [sp, #24]
 4848              		.loc 1 832 0
 4849 15d2 2046     		mov	r0, r4
 4850 15d4 FFF7FEFF 		bl	buffer_get_int16
 4851              	.LVL503:
 4852              		.loc 1 833 0
 4853 15d8 02A9     		add	r1, sp, #8
 4854              		.loc 1 832 0
 4855 15da 0790     		str	r0, [sp, #28]
 4856              		.loc 1 833 0
 4857 15dc 2046     		mov	r0, r4
 4858 15de FFF7FEFF 		bl	buffer_get_int16
 4859              	.LVL504:
 4860 15e2 0890     		str	r0, [sp, #32]
 4861              		.loc 1 834 0
 4862 15e4 04A8     		add	r0, sp, #16
 4863 15e6 FFF7FEFF 		bl	app_nunchuk_update_output
 4864              	.LVL505:
 4865              		.loc 1 835 0
 4866 15ea FEF78ABD 		b	.L77
 4867              	.L220:
 4868 15ee 00BF     		.align	2
 4869              	.L219:
 4870 15f0 00000000 		.word	.LANCHOR10
 4871 15f4 00000000 		.word	.LANCHOR8
 4872 15f8 00007A44 		.word	1148846080
 4873 15fc 00247449 		.word	1232348160
 4874 1600 0050C347 		.word	1203982336
 4875 1604 0000C842 		.word	1120403456
 4876 1608 00000000 		.word	ADC_Value
 4877 160c 6740533A 		.word	978534503
 4878 1610 74D19541 		.word	1100337524
 4879 1614 00401C46 		.word	1176256512
 4880 1618 08000000 		.word	.LC1
 4881 161c 107AFF1F 		.word	536836624
 4882 1620 00000000 		.word	.LANCHOR14
 4883              	.LVL506:
 4884              	.L109:
 4885              		.loc 1 822 0
 4886 1624 8A1E     		subs	r2, r1, #2
 4887 1626 0023     		movs	r3, #0
 4888 1628 811C     		adds	r1, r0, #2
 4889 162a 4078     		ldrb	r0, [r0, #1]	@ zero_extendqisi2
 4890 162c FFF7FEFF 		bl	comm_can_send_buffer
 4891              	.LVL507:
 4892              		.loc 1 823 0
 4893 1630 FEF767BD 		b	.L77
 4894              	.LVL508:
 4895              	.L202:
 4896 1634 9DED030A 		vldr.32	s0, [sp, #12]
 4897 1638 FEF7F9BE 		b	.L122
 4898              	.LVL509:
 4899              	.L199:
 4900 163c 9DED040A 		vldr.32	s0, [sp, #16]
 4901 1640 FEF74DBD 		b	.L126
 4902              	.LVL510:
ARM GAS  /var/folders/sv/kgmgr77579zbf78p2zlhkdfr0000gn/T//ccMuP6SP.s 			page 87


 4903              	.L204:
 4904              		.loc 1 405 0
 4905 1644 FFF7FEFF 		bl	mc_interface_get_configuration
 4906              	.LVL511:
 4907 1648 4FF4BA72 		mov	r2, #372
 4908 164c 0146     		mov	r1, r0
 4909 164e 2748     		ldr	r0, .L221
 4910 1650 FFF7FEFF 		bl	memcpy
 4911              	.LVL512:
 4912 1654 FFF72DB9 		b	.L118
 4913              	.L200:
 4914              		.loc 1 231 0
 4915 1658 FFF7FEFF 		bl	mc_interface_release_motor
 4916              	.LVL513:
 4917 165c FEF76DBD 		b	.L105
 4918              	.L203:
 4919              		.loc 1 608 0
 4920 1660 FFF7FEFF 		bl	app_get_configuration
 4921              	.LVL514:
 4922 1664 04AC     		add	r4, sp, #16
 4923              	.LVL515:
 4924 1666 0146     		mov	r1, r0
 4925 1668 C822     		movs	r2, #200
 4926 166a 2046     		mov	r0, r4
 4927 166c FFF7FEFF 		bl	memcpy
 4928              	.LVL516:
 4929 1670 FEF729BF 		b	.L120
 4930              	.LVL517:
 4931              	.L201:
 4932              	.LBB166:
 4933              	.LBB116:
 4934              	.LBB115:
 4935              		.loc 1 90 0
 4936 1674 D8F80030 		ldr	r3, [r8]
 4937 1678 002B     		cmp	r3, #0
 4938 167a 7EF48AAE 		bne	.L194
 4939 167e FEF740BD 		b	.L77
 4940              	.LVL518:
 4941              	.L129:
 4942              	.LBE115:
 4943              	.LBE116:
 4944              	.LBE166:
 4945              		.loc 1 736 0
 4946 1682 36AD     		add	r5, sp, #216
 4947              	.LVL519:
 4948 1684 0123     		movs	r3, #1
 4949 1686 45F8D03D 		str	r3, [r5, #-208]!
 4950 168a 194C     		ldr	r4, .L221+4
 4951              	.LVL520:
 4952              		.loc 1 737 0
 4953 168c DFED190A 		vldr.32	s1, .L221+8
 4954 1690 9FED190A 		vldr.32	s0, .L221+12
 4955              		.loc 1 736 0
 4956 1694 1B23     		movs	r3, #27
 4957              		.loc 1 737 0
 4958 1696 2946     		mov	r1, r5
 4959 1698 2046     		mov	r0, r4
ARM GAS  /var/folders/sv/kgmgr77579zbf78p2zlhkdfr0000gn/T//ccMuP6SP.s 			page 88


 4960              		.loc 1 736 0
 4961 169a 2370     		strb	r3, [r4]
 4962              		.loc 1 737 0
 4963 169c FFF7FEFF 		bl	buffer_append_float32
 4964              	.LVL521:
 4965              		.loc 1 738 0
 4966 16a0 2946     		mov	r1, r5
 4967 16a2 2046     		mov	r0, r4
 4968 16a4 DFED130A 		vldr.32	s1, .L221+8
 4969 16a8 9FED140A 		vldr.32	s0, .L221+16
 4970 16ac FFF7FEFF 		bl	buffer_append_float32
 4971              	.LVL522:
 4972              	.LBB167:
 4973              	.LBB168:
 4974              		.loc 1 90 0
 4975 16b0 134B     		ldr	r3, .L221+20
 4976              	.LBE168:
 4977              	.LBE167:
 4978              		.loc 1 739 0
 4979 16b2 0299     		ldr	r1, [sp, #8]
 4980              	.LBB171:
 4981              	.LBB169:
 4982              		.loc 1 90 0
 4983 16b4 1B68     		ldr	r3, [r3]
 4984              	.LBE169:
 4985              	.LBE171:
 4986              		.loc 1 739 0
 4987 16b6 6654     		strb	r6, [r4, r1]
 4988              	.LVL523:
 4989 16b8 0131     		adds	r1, r1, #1
 4990              	.LVL524:
 4991 16ba 0291     		str	r1, [sp, #8]
 4992              	.LBB172:
 4993              	.LBB170:
 4994              		.loc 1 90 0
 4995 16bc 002B     		cmp	r3, #0
 4996 16be 7EF466AD 		bne	.L191
 4997 16c2 FEF71EBD 		b	.L77
 4998              	.LVL525:
 4999              	.L133:
 5000              	.LBE170:
 5001              	.LBE172:
 5002              	.LBB173:
 5003              	.LBB110:
 5004              	.LBB111:
 5005 16c6 3468     		ldr	r4, [r6]
 5006 16c8 002C     		cmp	r4, #0
 5007 16ca 3EF41AAD 		beq	.L77
 5008              		.loc 1 91 0
 5009 16ce 1946     		mov	r1, r3
 5010 16d0 1046     		mov	r0, r2
 5011 16d2 A047     		blx	r4
 5012              	.LVL526:
 5013 16d4 FEF715BD 		b	.L77
 5014              	.LVL527:
 5015              	.L132:
 5016              	.LBE111:
ARM GAS  /var/folders/sv/kgmgr77579zbf78p2zlhkdfr0000gn/T//ccMuP6SP.s 			page 89


 5017              	.LBE110:
 5018              	.LBE173:
 5019              		.loc 1 779 0
 5020 16d8 054B     		ldr	r3, .L221+4
 5021 16da 4FF0FF32 		mov	r2, #-1
 5022              		.loc 1 781 0
 5023 16de 0021     		movs	r1, #0
 5024 16e0 5972     		strb	r1, [r3, #9]
 5025              		.loc 1 779 0
 5026 16e2 1A60     		str	r2, [r3]
 5027 16e4 5A60     		str	r2, [r3, #4]
 5028              	.LVL528:
 5029 16e6 FEF70CBD 		b	.L77
 5030              	.L222:
 5031 16ea 00BF     		.align	2
 5032              	.L221:
 5033 16ec 00000000 		.word	.LANCHOR15
 5034 16f0 00000000 		.word	.LANCHOR8
 5035 16f4 00247449 		.word	1232348160
 5036 16f8 00407A44 		.word	1148862464
 5037 16fc 00000000 		.word	0
 5038 1700 00000000 		.word	.LANCHOR10
 5039              		.cfi_endproc
 5040              	.LFE260:
 5041              		.size	commands_process_packet, .-commands_process_packet
 5042              		.section	.bss.send_func,"aw",%nobits
 5043              		.align	2
 5044              		.set	.LANCHOR10,. + 0
 5045              		.type	send_func, %object
 5046              		.size	send_func, 4
 5047              	send_func:
 5048 0000 00000000 		.space	4
 5049              		.section	.bss.detect_min_rpm,"aw",%nobits
 5050              		.align	2
 5051              		.set	.LANCHOR6,. + 0
 5052              		.type	detect_min_rpm, %object
 5053              		.size	detect_min_rpm, 4
 5054              	detect_min_rpm:
 5055 0000 00000000 		.space	4
 5056              		.section	.bss.appdata_func,"aw",%nobits
 5057              		.align	2
 5058              		.set	.LANCHOR14,. + 0
 5059              		.type	appdata_func, %object
 5060              		.size	appdata_func, 4
 5061              	appdata_func:
 5062 0000 00000000 		.space	4
 5063              		.section	.bss.mcconf_old.11692,"aw",%nobits
 5064              		.align	2
 5065              		.set	.LANCHOR16,. + 0
 5066              		.type	mcconf_old.11692, %object
 5067              		.size	mcconf_old.11692, 372
 5068              	mcconf_old.11692:
 5069 0000 00000000 		.space	372
 5069      00000000 
 5069      00000000 
 5069      00000000 
 5069      00000000 
ARM GAS  /var/folders/sv/kgmgr77579zbf78p2zlhkdfr0000gn/T//ccMuP6SP.s 			page 90


 5070              		.section	.bss.detect_hall_table,"aw",%nobits
 5071              		.align	2
 5072              		.set	.LANCHOR2,. + 0
 5073              		.type	detect_hall_table, %object
 5074              		.size	detect_hall_table, 8
 5075              	detect_hall_table:
 5076 0000 00000000 		.space	8
 5076      00000000 
 5077              		.section	.bss.print_buffer.11759,"aw",%nobits
 5078              		.align	2
 5079              		.set	.LANCHOR12,. + 0
 5080              		.type	print_buffer.11759, %object
 5081              		.size	print_buffer.11759, 255
 5082              	print_buffer.11759:
 5083 0000 00000000 		.space	255
 5083      00000000 
 5083      00000000 
 5083      00000000 
 5083      00000000 
 5084              		.section	.bss.mcconf.11691,"aw",%nobits
 5085              		.align	2
 5086              		.set	.LANCHOR15,. + 0
 5087              		.type	mcconf.11691, %object
 5088              		.size	mcconf.11691, 372
 5089              	mcconf.11691:
 5090 0000 00000000 		.space	372
 5090      00000000 
 5090      00000000 
 5090      00000000 
 5090      00000000 
 5091              		.section	.bss.detect_hall_res,"aw",%nobits
 5092              		.align	2
 5093              		.set	.LANCHOR1,. + 0
 5094              		.type	detect_hall_res, %object
 5095              		.size	detect_hall_res, 4
 5096              	detect_hall_res:
 5097 0000 00000000 		.space	4
 5098              		.section	.bss.detect_thread_wa,"aw",%nobits
 5099              		.align	3
 5100              		.set	.LANCHOR11,. + 0
 5101              		.type	detect_thread_wa, %object
 5102              		.size	detect_thread_wa, 2456
 5103              	detect_thread_wa:
 5104 0000 00000000 		.space	2456
 5104      00000000 
 5104      00000000 
 5104      00000000 
 5104      00000000 
 5105              		.section	.bss.send_buffer,"aw",%nobits
 5106              		.align	2
 5107              		.set	.LANCHOR8,. + 0
 5108              		.type	send_buffer, %object
 5109              		.size	send_buffer, 1024
 5110              	send_buffer:
 5111 0000 00000000 		.space	1024
 5111      00000000 
 5111      00000000 
ARM GAS  /var/folders/sv/kgmgr77579zbf78p2zlhkdfr0000gn/T//ccMuP6SP.s 			page 91


 5111      00000000 
 5111      00000000 
 5112              		.section	.rodata.str1.4,"aMS",%progbits,1
 5113              		.align	2
 5114              	.LC0:
 5115 0000 44657465 		.ascii	"Detect\000"
 5115      637400
 5116 0007 00       		.space	1
 5117              	.LC1:
 5118 0008 34313000 		.ascii	"410\000"
 5119              		.section	.bss.detect_tp,"aw",%nobits
 5120              		.align	2
 5121              		.set	.LANCHOR0,. + 0
 5122              		.type	detect_tp, %object
 5123              		.size	detect_tp, 4
 5124              	detect_tp:
 5125 0000 00000000 		.space	4
 5126              		.section	.bss.detect_low_duty,"aw",%nobits
 5127              		.align	2
 5128              		.set	.LANCHOR5,. + 0
 5129              		.type	detect_low_duty, %object
 5130              		.size	detect_low_duty, 4
 5131              	detect_low_duty:
 5132 0000 00000000 		.space	4
 5133              		.section	.bss.detect_current,"aw",%nobits
 5134              		.align	2
 5135              		.set	.LANCHOR7,. + 0
 5136              		.type	detect_current, %object
 5137              		.size	detect_current, 4
 5138              	detect_current:
 5139 0000 00000000 		.space	4
 5140              		.section	.bss.detect_coupling_k,"aw",%nobits
 5141              		.align	2
 5142              		.set	.LANCHOR3,. + 0
 5143              		.type	detect_coupling_k, %object
 5144              		.size	detect_coupling_k, 4
 5145              	detect_coupling_k:
 5146 0000 00000000 		.space	4
 5147              		.section	.bss.send_func_last,"aw",%nobits
 5148              		.align	2
 5149              		.set	.LANCHOR9,. + 0
 5150              		.type	send_func_last, %object
 5151              		.size	send_func_last, 4
 5152              	send_func_last:
 5153 0000 00000000 		.space	4
 5154              		.section	.bss.detect_cycle_int_limit,"aw",%nobits
 5155              		.align	2
 5156              		.set	.LANCHOR4,. + 0
 5157              		.type	detect_cycle_int_limit, %object
 5158              		.size	detect_cycle_int_limit, 4
 5159              	detect_cycle_int_limit:
 5160 0000 00000000 		.space	4
 5161              		.section	.bss.display_position_mode,"aw",%nobits
 5162              		.set	.LANCHOR13,. + 0
 5163              		.type	display_position_mode, %object
 5164              		.size	display_position_mode, 1
 5165              	display_position_mode:
ARM GAS  /var/folders/sv/kgmgr77579zbf78p2zlhkdfr0000gn/T//ccMuP6SP.s 			page 92


 5166 0000 00       		.space	1
 5167              		.text
 5168              	.Letext0:
 5169              		.file 4 "/usr/local/Cellar/gcc-arm-none-eabi/20160928/arm-none-eabi/include/machine/_default_types
 5170              		.file 5 "/usr/local/Cellar/gcc-arm-none-eabi/20160928/arm-none-eabi/include/sys/_stdint.h"
 5171              		.file 6 "/usr/local/Cellar/gcc-arm-none-eabi/20160928/lib/gcc/arm-none-eabi/5.4.1/include/stddef.h
 5172              		.file 7 "ChibiOS_3.0.2/os/rt/ports/ARMCMx/compilers/GCC/chtypes.h"
 5173              		.file 8 "ChibiOS_3.0.2/os/rt/include/chsystypes.h"
 5174              		.file 9 "ChibiOS_3.0.2/os/rt/include/chschd.h"
 5175              		.file 10 "ChibiOS_3.0.2/os/rt/ports/ARMCMx/chcore.h"
 5176              		.file 11 "ChibiOS_3.0.2/os/rt/ports/ARMCMx/chcore_v7m.h"
 5177              		.file 12 "ChibiOS_3.0.2/os/rt/include/chtm.h"
 5178              		.file 13 "ChibiOS_3.0.2/os/rt/include/chsem.h"
 5179              		.file 14 "ChibiOS_3.0.2/os/rt/include/chmtx.h"
 5180              		.file 15 "datatypes.h"
 5181              		.file 16 "ChibiOS_3.0.2/ext/stdperiph_stm32f4/inc/stm32f4xx_flash.h"
 5182              		.file 17 "/usr/local/Cellar/gcc-arm-none-eabi/20160928/lib/gcc/arm-none-eabi/5.4.1/include/stdarg.
 5183              		.file 18 "<built-in>"
 5184              		.file 19 "ChibiOS_3.0.2/os/ext/CMSIS/include/core_cm4.h"
 5185              		.file 20 "mc_interface.h"
 5186              		.file 21 "ChibiOS_3.0.2/os/rt/include/chevents.h"
 5187              		.file 22 "./conf_general.h"
 5188              		.file 23 "buffer.h"
 5189              		.file 24 "ChibiOS_3.0.2/os/rt/include/chthreads.h"
 5190              		.file 25 "/usr/local/Cellar/gcc-arm-none-eabi/20160928/arm-none-eabi/include/stdio.h"
 5191              		.file 26 "mcpwm_foc.h"
 5192              		.file 27 "mcpwm.h"
 5193              		.file 28 "timeout.h"
 5194              		.file 29 "applications/app.h"
 5195              		.file 30 "servo_dec.h"
 5196              		.file 31 "encoder.h"
 5197              		.file 32 "terminal.h"
 5198              		.file 33 "utils.h"
 5199              		.file 34 "flash_helper.h"
 5200              		.file 35 "nrf/nrf_driver.h"
 5201              		.file 36 "comm_can.h"
 5202              		.section	.debug_info,"",%progbits
 5203              	.Ldebug_info0:
 5204 0000 EB490000 		.4byte	0x49eb
 5205 0004 0400     		.2byte	0x4
 5206 0006 00000000 		.4byte	.Ldebug_abbrev0
 5207 000a 04       		.byte	0x4
 5208 000b 01       		.uleb128 0x1
 5209 000c 431D0000 		.4byte	.LASF575
 5210 0010 0C       		.byte	0xc
 5211 0011 DE0F0000 		.4byte	.LASF576
 5212 0015 55070000 		.4byte	.LASF577
 5213 0019 60020000 		.4byte	.Ldebug_ranges0+0x260
 5214 001d 00000000 		.4byte	0
 5215 0021 00000000 		.4byte	.Ldebug_line0
 5216 0025 02       		.uleb128 0x2
 5217 0026 04       		.byte	0x4
 5218 0027 04       		.byte	0x4
 5219 0028 84070000 		.4byte	.LASF0
 5220 002c 03       		.uleb128 0x3
 5221 002d 04       		.byte	0x4
 5222 002e 05       		.byte	0x5
ARM GAS  /var/folders/sv/kgmgr77579zbf78p2zlhkdfr0000gn/T//ccMuP6SP.s 			page 93


 5223 002f 696E7400 		.ascii	"int\000"
 5224 0033 04       		.uleb128 0x4
 5225 0034 6E250000 		.4byte	.LASF2
 5226 0038 04       		.byte	0x4
 5227 0039 1B       		.byte	0x1b
 5228 003a 3E000000 		.4byte	0x3e
 5229 003e 02       		.uleb128 0x2
 5230 003f 01       		.byte	0x1
 5231 0040 06       		.byte	0x6
 5232 0041 8B120000 		.4byte	.LASF1
 5233 0045 04       		.uleb128 0x4
 5234 0046 29010000 		.4byte	.LASF3
 5235 004a 04       		.byte	0x4
 5236 004b 1D       		.byte	0x1d
 5237 004c 50000000 		.4byte	0x50
 5238 0050 02       		.uleb128 0x2
 5239 0051 01       		.byte	0x1
 5240 0052 08       		.byte	0x8
 5241 0053 1B070000 		.4byte	.LASF4
 5242 0057 02       		.uleb128 0x2
 5243 0058 02       		.byte	0x2
 5244 0059 05       		.byte	0x5
 5245 005a 58260000 		.4byte	.LASF5
 5246 005e 04       		.uleb128 0x4
 5247 005f 4A060000 		.4byte	.LASF6
 5248 0063 04       		.byte	0x4
 5249 0064 2B       		.byte	0x2b
 5250 0065 69000000 		.4byte	0x69
 5251 0069 02       		.uleb128 0x2
 5252 006a 02       		.byte	0x2
 5253 006b 07       		.byte	0x7
 5254 006c 78120000 		.4byte	.LASF7
 5255 0070 04       		.uleb128 0x4
 5256 0071 671E0000 		.4byte	.LASF8
 5257 0075 04       		.byte	0x4
 5258 0076 3F       		.byte	0x3f
 5259 0077 7B000000 		.4byte	0x7b
 5260 007b 02       		.uleb128 0x2
 5261 007c 04       		.byte	0x4
 5262 007d 05       		.byte	0x5
 5263 007e 2A150000 		.4byte	.LASF9
 5264 0082 04       		.uleb128 0x4
 5265 0083 7F1E0000 		.4byte	.LASF10
 5266 0087 04       		.byte	0x4
 5267 0088 41       		.byte	0x41
 5268 0089 8D000000 		.4byte	0x8d
 5269 008d 02       		.uleb128 0x2
 5270 008e 04       		.byte	0x4
 5271 008f 07       		.byte	0x7
 5272 0090 F2160000 		.4byte	.LASF11
 5273 0094 02       		.uleb128 0x2
 5274 0095 08       		.byte	0x8
 5275 0096 05       		.byte	0x5
 5276 0097 B3230000 		.4byte	.LASF12
 5277 009b 04       		.uleb128 0x4
 5278 009c E00E0000 		.4byte	.LASF13
 5279 00a0 04       		.byte	0x4
ARM GAS  /var/folders/sv/kgmgr77579zbf78p2zlhkdfr0000gn/T//ccMuP6SP.s 			page 94


 5280 00a1 5B       		.byte	0x5b
 5281 00a2 A6000000 		.4byte	0xa6
 5282 00a6 02       		.uleb128 0x2
 5283 00a7 08       		.byte	0x8
 5284 00a8 07       		.byte	0x7
 5285 00a9 8A200000 		.4byte	.LASF14
 5286 00ad 02       		.uleb128 0x2
 5287 00ae 04       		.byte	0x4
 5288 00af 07       		.byte	0x7
 5289 00b0 18260000 		.4byte	.LASF15
 5290 00b4 04       		.uleb128 0x4
 5291 00b5 93110000 		.4byte	.LASF16
 5292 00b9 05       		.byte	0x5
 5293 00ba 14       		.byte	0x14
 5294 00bb 33000000 		.4byte	0x33
 5295 00bf 04       		.uleb128 0x4
 5296 00c0 C00B0000 		.4byte	.LASF17
 5297 00c4 05       		.byte	0x5
 5298 00c5 18       		.byte	0x18
 5299 00c6 45000000 		.4byte	0x45
 5300 00ca 04       		.uleb128 0x4
 5301 00cb D0010000 		.4byte	.LASF18
 5302 00cf 05       		.byte	0x5
 5303 00d0 24       		.byte	0x24
 5304 00d1 5E000000 		.4byte	0x5e
 5305 00d5 04       		.uleb128 0x4
 5306 00d6 70030000 		.4byte	.LASF19
 5307 00da 05       		.byte	0x5
 5308 00db 2C       		.byte	0x2c
 5309 00dc 70000000 		.4byte	0x70
 5310 00e0 04       		.uleb128 0x4
 5311 00e1 20160000 		.4byte	.LASF20
 5312 00e5 05       		.byte	0x5
 5313 00e6 30       		.byte	0x30
 5314 00e7 82000000 		.4byte	0x82
 5315 00eb 04       		.uleb128 0x4
 5316 00ec CA080000 		.4byte	.LASF21
 5317 00f0 05       		.byte	0x5
 5318 00f1 3C       		.byte	0x3c
 5319 00f2 9B000000 		.4byte	0x9b
 5320 00f6 04       		.uleb128 0x4
 5321 00f7 730B0000 		.4byte	.LASF22
 5322 00fb 06       		.byte	0x6
 5323 00fc D8       		.byte	0xd8
 5324 00fd AD000000 		.4byte	0xad
 5325 0101 05       		.uleb128 0x5
 5326 0102 CA000000 		.4byte	0xca
 5327 0106 05       		.uleb128 0x5
 5328 0107 D5000000 		.4byte	0xd5
 5329 010b 04       		.uleb128 0x4
 5330 010c 870A0000 		.4byte	.LASF23
 5331 0110 07       		.byte	0x7
 5332 0111 45       		.byte	0x45
 5333 0112 E0000000 		.4byte	0xe0
 5334 0116 04       		.uleb128 0x4
 5335 0117 6D100000 		.4byte	.LASF24
 5336 011b 07       		.byte	0x7
ARM GAS  /var/folders/sv/kgmgr77579zbf78p2zlhkdfr0000gn/T//ccMuP6SP.s 			page 95


 5337 011c 48       		.byte	0x48
 5338 011d BF000000 		.4byte	0xbf
 5339 0121 04       		.uleb128 0x4
 5340 0122 BA210000 		.4byte	.LASF25
 5341 0126 07       		.byte	0x7
 5342 0127 49       		.byte	0x49
 5343 0128 BF000000 		.4byte	0xbf
 5344 012c 04       		.uleb128 0x4
 5345 012d D60F0000 		.4byte	.LASF26
 5346 0131 07       		.byte	0x7
 5347 0132 4A       		.byte	0x4a
 5348 0133 BF000000 		.4byte	0xbf
 5349 0137 04       		.uleb128 0x4
 5350 0138 21120000 		.4byte	.LASF27
 5351 013c 07       		.byte	0x7
 5352 013d 4B       		.byte	0x4b
 5353 013e BF000000 		.4byte	0xbf
 5354 0142 04       		.uleb128 0x4
 5355 0143 96050000 		.4byte	.LASF28
 5356 0147 07       		.byte	0x7
 5357 0148 4C       		.byte	0x4c
 5358 0149 E0000000 		.4byte	0xe0
 5359 014d 04       		.uleb128 0x4
 5360 014e 74000000 		.4byte	.LASF29
 5361 0152 07       		.byte	0x7
 5362 0153 4D       		.byte	0x4d
 5363 0154 D5000000 		.4byte	0xd5
 5364 0158 04       		.uleb128 0x4
 5365 0159 9B160000 		.4byte	.LASF30
 5366 015d 07       		.byte	0x7
 5367 015e 4F       		.byte	0x4f
 5368 015f E0000000 		.4byte	0xe0
 5369 0163 04       		.uleb128 0x4
 5370 0164 A7190000 		.4byte	.LASF31
 5371 0168 07       		.byte	0x7
 5372 0169 51       		.byte	0x51
 5373 016a D5000000 		.4byte	0xd5
 5374 016e 04       		.uleb128 0x4
 5375 016f 78030000 		.4byte	.LASF32
 5376 0173 08       		.byte	0x8
 5377 0174 33       		.byte	0x33
 5378 0175 E0000000 		.4byte	0xe0
 5379 0179 04       		.uleb128 0x4
 5380 017a 50030000 		.4byte	.LASF33
 5381 017e 08       		.byte	0x8
 5382 017f 3F       		.byte	0x3f
 5383 0180 84010000 		.4byte	0x184
 5384 0184 06       		.uleb128 0x6
 5385 0185 4B070000 		.4byte	.LASF55
 5386 0189 48       		.byte	0x48
 5387 018a 09       		.byte	0x9
 5388 018b C2       		.byte	0xc2
 5389 018c 89020000 		.4byte	0x289
 5390 0190 07       		.uleb128 0x7
 5391 0191 720F0000 		.4byte	.LASF34
 5392 0195 09       		.byte	0x9
 5393 0196 C3       		.byte	0xc3
ARM GAS  /var/folders/sv/kgmgr77579zbf78p2zlhkdfr0000gn/T//ccMuP6SP.s 			page 96


 5394 0197 94020000 		.4byte	0x294
 5395 019b 00       		.byte	0
 5396 019c 07       		.uleb128 0x7
 5397 019d E00B0000 		.4byte	.LASF35
 5398 01a1 09       		.byte	0x9
 5399 01a2 C5       		.byte	0xc5
 5400 01a3 94020000 		.4byte	0x294
 5401 01a7 04       		.byte	0x4
 5402 01a8 07       		.uleb128 0x7
 5403 01a9 C20E0000 		.4byte	.LASF36
 5404 01ad 09       		.byte	0x9
 5405 01ae C7       		.byte	0xc7
 5406 01af 42010000 		.4byte	0x142
 5407 01b3 08       		.byte	0x8
 5408 01b4 07       		.uleb128 0x7
 5409 01b5 4B080000 		.4byte	.LASF37
 5410 01b9 09       		.byte	0x9
 5411 01ba C8       		.byte	0xc8
 5412 01bb C4040000 		.4byte	0x4c4
 5413 01bf 0C       		.byte	0xc
 5414 01c0 07       		.uleb128 0x7
 5415 01c1 8E020000 		.4byte	.LASF38
 5416 01c5 09       		.byte	0x9
 5417 01c6 CA       		.byte	0xca
 5418 01c7 94020000 		.4byte	0x294
 5419 01cb 10       		.byte	0x10
 5420 01cc 07       		.uleb128 0x7
 5421 01cd E6240000 		.4byte	.LASF39
 5422 01d1 09       		.byte	0x9
 5423 01d2 CB       		.byte	0xcb
 5424 01d3 94020000 		.4byte	0x294
 5425 01d7 14       		.byte	0x14
 5426 01d8 07       		.uleb128 0x7
 5427 01d9 11220000 		.4byte	.LASF40
 5428 01dd 09       		.byte	0x9
 5429 01de D2       		.byte	0xd2
 5430 01df 09070000 		.4byte	0x709
 5431 01e3 18       		.byte	0x18
 5432 01e4 07       		.uleb128 0x7
 5433 01e5 C7260000 		.4byte	.LASF41
 5434 01e9 09       		.byte	0x9
 5435 01ea DD       		.byte	0xdd
 5436 01eb 21010000 		.4byte	0x121
 5437 01ef 1C       		.byte	0x1c
 5438 01f0 07       		.uleb128 0x7
 5439 01f1 30210000 		.4byte	.LASF42
 5440 01f5 09       		.byte	0x9
 5441 01f6 E1       		.byte	0xe1
 5442 01f7 16010000 		.4byte	0x116
 5443 01fb 1D       		.byte	0x1d
 5444 01fc 07       		.uleb128 0x7
 5445 01fd E9140000 		.4byte	.LASF43
 5446 0201 09       		.byte	0x9
 5447 0202 E6       		.byte	0xe6
 5448 0203 2C010000 		.4byte	0x12c
 5449 0207 1E       		.byte	0x1e
 5450 0208 07       		.uleb128 0x7
ARM GAS  /var/folders/sv/kgmgr77579zbf78p2zlhkdfr0000gn/T//ccMuP6SP.s 			page 97


 5451 0209 C3120000 		.4byte	.LASF44
 5452 020d 09       		.byte	0x9
 5453 020e EC       		.byte	0xec
 5454 020f 37010000 		.4byte	0x137
 5455 0213 1F       		.byte	0x1f
 5456 0214 07       		.uleb128 0x7
 5457 0215 D8120000 		.4byte	.LASF45
 5458 0219 09       		.byte	0x9
 5459 021a F3       		.byte	0xf3
 5460 021b 1B070000 		.4byte	0x71b
 5461 021f 20       		.byte	0x20
 5462 0220 08       		.uleb128 0x8
 5463 0221 705F7500 		.ascii	"p_u\000"
 5464 0225 09       		.byte	0x9
 5465 0226 3101     		.2byte	0x131
 5466 0228 44060000 		.4byte	0x644
 5467 022c 24       		.byte	0x24
 5468 022d 09       		.uleb128 0x9
 5469 022e 6E040000 		.4byte	.LASF46
 5470 0232 09       		.byte	0x9
 5471 0233 3601     		.2byte	0x136
 5472 0235 9A020000 		.4byte	0x29a
 5473 0239 28       		.byte	0x28
 5474 023a 09       		.uleb128 0x9
 5475 023b 77130000 		.4byte	.LASF47
 5476 023f 09       		.byte	0x9
 5477 0240 3C01     		.2byte	0x13c
 5478 0242 BE020000 		.4byte	0x2be
 5479 0246 2C       		.byte	0x2c
 5480 0247 09       		.uleb128 0x9
 5481 0248 72060000 		.4byte	.LASF48
 5482 024c 09       		.byte	0x9
 5483 024d 4001     		.2byte	0x140
 5484 024f 4D010000 		.4byte	0x14d
 5485 0253 34       		.byte	0x34
 5486 0254 09       		.uleb128 0x9
 5487 0255 581F0000 		.4byte	.LASF49
 5488 0259 09       		.byte	0x9
 5489 025a 4601     		.2byte	0x146
 5490 025c 58010000 		.4byte	0x158
 5491 0260 38       		.byte	0x38
 5492 0261 09       		.uleb128 0x9
 5493 0262 9C210000 		.4byte	.LASF50
 5494 0266 09       		.byte	0x9
 5495 0267 4D01     		.2byte	0x14d
 5496 0269 03070000 		.4byte	0x703
 5497 026d 3C       		.byte	0x3c
 5498 026e 09       		.uleb128 0x9
 5499 026f 1D1C0000 		.4byte	.LASF51
 5500 0273 09       		.byte	0x9
 5501 0274 5101     		.2byte	0x151
 5502 0276 42010000 		.4byte	0x142
 5503 027a 40       		.byte	0x40
 5504 027b 09       		.uleb128 0x9
 5505 027c E90F0000 		.4byte	.LASF52
 5506 0280 09       		.byte	0x9
 5507 0281 5801     		.2byte	0x158
ARM GAS  /var/folders/sv/kgmgr77579zbf78p2zlhkdfr0000gn/T//ccMuP6SP.s 			page 98


 5508 0283 71030000 		.4byte	0x371
 5509 0287 44       		.byte	0x44
 5510 0288 00       		.byte	0
 5511 0289 04       		.uleb128 0x4
 5512 028a 19250000 		.4byte	.LASF53
 5513 028e 08       		.byte	0x8
 5514 028f 44       		.byte	0x44
 5515 0290 94020000 		.4byte	0x294
 5516 0294 0A       		.uleb128 0xa
 5517 0295 04       		.byte	0x4
 5518 0296 79010000 		.4byte	0x179
 5519 029a 04       		.uleb128 0x4
 5520 029b 9B040000 		.4byte	.LASF54
 5521 029f 08       		.byte	0x8
 5522 02a0 49       		.byte	0x49
 5523 02a1 A5020000 		.4byte	0x2a5
 5524 02a5 06       		.uleb128 0x6
 5525 02a6 CF260000 		.4byte	.LASF56
 5526 02aa 04       		.byte	0x4
 5527 02ab 09       		.byte	0x9
 5528 02ac B0       		.byte	0xb0
 5529 02ad BE020000 		.4byte	0x2be
 5530 02b1 07       		.uleb128 0x7
 5531 02b2 720F0000 		.4byte	.LASF34
 5532 02b6 09       		.byte	0x9
 5533 02b7 B1       		.byte	0xb1
 5534 02b8 94020000 		.4byte	0x294
 5535 02bc 00       		.byte	0
 5536 02bd 00       		.byte	0
 5537 02be 04       		.uleb128 0x4
 5538 02bf 95140000 		.4byte	.LASF57
 5539 02c3 08       		.byte	0x8
 5540 02c4 50       		.byte	0x50
 5541 02c5 C9020000 		.4byte	0x2c9
 5542 02c9 06       		.uleb128 0x6
 5543 02ca 51020000 		.4byte	.LASF58
 5544 02ce 08       		.byte	0x8
 5545 02cf 09       		.byte	0x9
 5546 02d0 B7       		.byte	0xb7
 5547 02d1 EE020000 		.4byte	0x2ee
 5548 02d5 07       		.uleb128 0x7
 5549 02d6 720F0000 		.4byte	.LASF34
 5550 02da 09       		.byte	0x9
 5551 02db B8       		.byte	0xb8
 5552 02dc 94020000 		.4byte	0x294
 5553 02e0 00       		.byte	0
 5554 02e1 07       		.uleb128 0x7
 5555 02e2 E00B0000 		.4byte	.LASF35
 5556 02e6 09       		.byte	0x9
 5557 02e7 B9       		.byte	0xb9
 5558 02e8 94020000 		.4byte	0x294
 5559 02ec 04       		.byte	0x4
 5560 02ed 00       		.byte	0
 5561 02ee 04       		.uleb128 0x4
 5562 02ef 3E070000 		.4byte	.LASF59
 5563 02f3 08       		.byte	0x8
 5564 02f4 57       		.byte	0x57
ARM GAS  /var/folders/sv/kgmgr77579zbf78p2zlhkdfr0000gn/T//ccMuP6SP.s 			page 99


 5565 02f5 F9020000 		.4byte	0x2f9
 5566 02f9 0B       		.uleb128 0xb
 5567 02fa 351D0000 		.4byte	.LASF60
 5568 02fe 1C       		.byte	0x1c
 5569 02ff 09       		.byte	0x9
 5570 0300 9001     		.2byte	0x190
 5571 0302 55030000 		.4byte	0x355
 5572 0306 09       		.uleb128 0x9
 5573 0307 1D180000 		.4byte	.LASF61
 5574 030b 09       		.byte	0x9
 5575 030c 9101     		.2byte	0x191
 5576 030e BE020000 		.4byte	0x2be
 5577 0312 00       		.byte	0
 5578 0313 09       		.uleb128 0x9
 5579 0314 51200000 		.4byte	.LASF62
 5580 0318 09       		.byte	0x9
 5581 0319 9201     		.2byte	0x192
 5582 031b 42010000 		.4byte	0x142
 5583 031f 08       		.byte	0x8
 5584 0320 09       		.uleb128 0x9
 5585 0321 4E0A0000 		.4byte	.LASF63
 5586 0325 09       		.byte	0x9
 5587 0326 9401     		.2byte	0x194
 5588 0328 C4040000 		.4byte	0x4c4
 5589 032c 0C       		.byte	0xc
 5590 032d 09       		.uleb128 0x9
 5591 032e CD110000 		.4byte	.LASF64
 5592 0332 09       		.byte	0x9
 5593 0333 9701     		.2byte	0x197
 5594 0335 94020000 		.4byte	0x294
 5595 0339 10       		.byte	0x10
 5596 033a 09       		.uleb128 0x9
 5597 033b D80B0000 		.4byte	.LASF65
 5598 033f 09       		.byte	0x9
 5599 0340 9801     		.2byte	0x198
 5600 0342 94020000 		.4byte	0x294
 5601 0346 14       		.byte	0x14
 5602 0347 09       		.uleb128 0x9
 5603 0348 67080000 		.4byte	.LASF66
 5604 034c 09       		.byte	0x9
 5605 034d 9B01     		.2byte	0x19b
 5606 034f 94020000 		.4byte	0x294
 5607 0353 18       		.byte	0x18
 5608 0354 00       		.byte	0
 5609 0355 04       		.uleb128 0x4
 5610 0356 B51B0000 		.4byte	.LASF67
 5611 035a 08       		.byte	0x8
 5612 035b 5C       		.byte	0x5c
 5613 035c 60030000 		.4byte	0x360
 5614 0360 0A       		.uleb128 0xa
 5615 0361 04       		.byte	0x4
 5616 0362 66030000 		.4byte	0x366
 5617 0366 0C       		.uleb128 0xc
 5618 0367 71030000 		.4byte	0x371
 5619 036b 0D       		.uleb128 0xd
 5620 036c 71030000 		.4byte	0x371
 5621 0370 00       		.byte	0
ARM GAS  /var/folders/sv/kgmgr77579zbf78p2zlhkdfr0000gn/T//ccMuP6SP.s 			page 100


 5622 0371 0E       		.uleb128 0xe
 5623 0372 04       		.byte	0x4
 5624 0373 04       		.uleb128 0x4
 5625 0374 3E0A0000 		.4byte	.LASF68
 5626 0378 08       		.byte	0x8
 5627 0379 61       		.byte	0x61
 5628 037a 7E030000 		.4byte	0x37e
 5629 037e 0B       		.uleb128 0xb
 5630 037f 1F210000 		.4byte	.LASF69
 5631 0383 14       		.byte	0x14
 5632 0384 09       		.byte	0x9
 5633 0385 6B01     		.2byte	0x16b
 5634 0387 CD030000 		.4byte	0x3cd
 5635 038b 09       		.uleb128 0x9
 5636 038c 540A0000 		.4byte	.LASF70
 5637 0390 09       		.byte	0x9
 5638 0391 6C01     		.2byte	0x16c
 5639 0393 20070000 		.4byte	0x720
 5640 0397 00       		.byte	0
 5641 0398 09       		.uleb128 0x9
 5642 0399 01070000 		.4byte	.LASF71
 5643 039d 09       		.byte	0x9
 5644 039e 6D01     		.2byte	0x16d
 5645 03a0 20070000 		.4byte	0x720
 5646 03a4 04       		.byte	0x4
 5647 03a5 09       		.uleb128 0x9
 5648 03a6 66120000 		.4byte	.LASF72
 5649 03aa 09       		.byte	0x9
 5650 03ab 6E01     		.2byte	0x16e
 5651 03ad 6E010000 		.4byte	0x16e
 5652 03b1 08       		.byte	0x8
 5653 03b2 09       		.uleb128 0x9
 5654 03b3 E1200000 		.4byte	.LASF73
 5655 03b7 09       		.byte	0x9
 5656 03b8 6F01     		.2byte	0x16f
 5657 03ba 55030000 		.4byte	0x355
 5658 03be 0C       		.byte	0xc
 5659 03bf 09       		.uleb128 0x9
 5660 03c0 51080000 		.4byte	.LASF74
 5661 03c4 09       		.byte	0x9
 5662 03c5 7101     		.2byte	0x171
 5663 03c7 71030000 		.4byte	0x371
 5664 03cb 10       		.byte	0x10
 5665 03cc 00       		.byte	0
 5666 03cd 04       		.uleb128 0x4
 5667 03ce 96220000 		.4byte	.LASF75
 5668 03d2 08       		.byte	0x8
 5669 03d3 66       		.byte	0x66
 5670 03d4 D8030000 		.4byte	0x3d8
 5671 03d8 0B       		.uleb128 0xb
 5672 03d9 59030000 		.4byte	.LASF76
 5673 03dd 10       		.byte	0x10
 5674 03de 09       		.byte	0x9
 5675 03df 7B01     		.2byte	0x17b
 5676 03e1 1A040000 		.4byte	0x41a
 5677 03e5 09       		.uleb128 0x9
 5678 03e6 540A0000 		.4byte	.LASF70
ARM GAS  /var/folders/sv/kgmgr77579zbf78p2zlhkdfr0000gn/T//ccMuP6SP.s 			page 101


 5679 03ea 09       		.byte	0x9
 5680 03eb 7C01     		.2byte	0x17c
 5681 03ed 20070000 		.4byte	0x720
 5682 03f1 00       		.byte	0
 5683 03f2 09       		.uleb128 0x9
 5684 03f3 01070000 		.4byte	.LASF71
 5685 03f7 09       		.byte	0x9
 5686 03f8 7E01     		.2byte	0x17e
 5687 03fa 20070000 		.4byte	0x720
 5688 03fe 04       		.byte	0x4
 5689 03ff 09       		.uleb128 0x9
 5690 0400 66120000 		.4byte	.LASF72
 5691 0404 09       		.byte	0x9
 5692 0405 8001     		.2byte	0x180
 5693 0407 6E010000 		.4byte	0x16e
 5694 040b 08       		.byte	0x8
 5695 040c 09       		.uleb128 0x9
 5696 040d 66010000 		.4byte	.LASF77
 5697 0411 09       		.byte	0x9
 5698 0412 8201     		.2byte	0x182
 5699 0414 1B070000 		.4byte	0x71b
 5700 0418 0C       		.byte	0xc
 5701 0419 00       		.byte	0
 5702 041a 04       		.uleb128 0x4
 5703 041b E1070000 		.4byte	.LASF78
 5704 041f 08       		.byte	0x8
 5705 0420 6B       		.byte	0x6b
 5706 0421 25040000 		.4byte	0x425
 5707 0425 0B       		.uleb128 0xb
 5708 0426 8A1E0000 		.4byte	.LASF79
 5709 042a 04       		.byte	0x4
 5710 042b 09       		.byte	0x9
 5711 042c A201     		.2byte	0x1a2
 5712 042e 40040000 		.4byte	0x440
 5713 0432 09       		.uleb128 0x9
 5714 0433 AD110000 		.4byte	.LASF80
 5715 0437 09       		.byte	0x9
 5716 0438 AA01     		.2byte	0x1aa
 5717 043a 26070000 		.4byte	0x726
 5718 043e 00       		.byte	0
 5719 043f 00       		.byte	0
 5720 0440 04       		.uleb128 0x4
 5721 0441 1D010000 		.4byte	.LASF81
 5722 0445 08       		.byte	0x8
 5723 0446 70       		.byte	0x70
 5724 0447 4B040000 		.4byte	0x44b
 5725 044b 0F       		.uleb128 0xf
 5726 044c 09140000 		.4byte	.LASF82
 5727 0450 5802     		.2byte	0x258
 5728 0452 09       		.byte	0x9
 5729 0453 C201     		.2byte	0x1c2
 5730 0455 A7040000 		.4byte	0x4a7
 5731 0459 09       		.uleb128 0x9
 5732 045a 95040000 		.4byte	.LASF83
 5733 045e 09       		.byte	0x9
 5734 045f C601     		.2byte	0x1c6
 5735 0461 EE020000 		.4byte	0x2ee
ARM GAS  /var/folders/sv/kgmgr77579zbf78p2zlhkdfr0000gn/T//ccMuP6SP.s 			page 102


 5736 0465 00       		.byte	0
 5737 0466 09       		.uleb128 0x9
 5738 0467 5F040000 		.4byte	.LASF84
 5739 046b 09       		.byte	0x9
 5740 046c CA01     		.2byte	0x1ca
 5741 046e CD030000 		.4byte	0x3cd
 5742 0472 1C       		.byte	0x1c
 5743 0473 08       		.uleb128 0x8
 5744 0474 64626700 		.ascii	"dbg\000"
 5745 0478 09       		.byte	0x9
 5746 0479 CE01     		.2byte	0x1ce
 5747 047b 1A040000 		.4byte	0x41a
 5748 047f 2C       		.byte	0x2c
 5749 0480 09       		.uleb128 0x9
 5750 0481 33150000 		.4byte	.LASF85
 5751 0485 09       		.byte	0x9
 5752 0486 D201     		.2byte	0x1d2
 5753 0488 79010000 		.4byte	0x179
 5754 048c 30       		.byte	0x30
 5755 048d 08       		.uleb128 0x8
 5756 048e 746D00   		.ascii	"tm\000"
 5757 0491 09       		.byte	0x9
 5758 0492 D701     		.2byte	0x1d7
 5759 0494 39060000 		.4byte	0x639
 5760 0498 78       		.byte	0x78
 5761 0499 09       		.uleb128 0x9
 5762 049a D2200000 		.4byte	.LASF86
 5763 049e 09       		.byte	0x9
 5764 049f E301     		.2byte	0x1e3
 5765 04a1 2B070000 		.4byte	0x72b
 5766 04a5 80       		.byte	0x80
 5767 04a6 00       		.byte	0
 5768 04a7 02       		.uleb128 0x2
 5769 04a8 04       		.byte	0x4
 5770 04a9 07       		.byte	0x7
 5771 04aa 6F120000 		.4byte	.LASF87
 5772 04ae 04       		.uleb128 0x4
 5773 04af 92160000 		.4byte	.LASF88
 5774 04b3 0A       		.byte	0xa
 5775 04b4 65       		.byte	0x65
 5776 04b5 71030000 		.4byte	0x371
 5777 04b9 04       		.uleb128 0x4
 5778 04ba F6060000 		.4byte	.LASF89
 5779 04be 0A       		.byte	0xa
 5780 04bf 6D       		.byte	0x6d
 5781 04c0 EB000000 		.4byte	0xeb
 5782 04c4 06       		.uleb128 0x6
 5783 04c5 AE150000 		.4byte	.LASF90
 5784 04c9 04       		.byte	0x4
 5785 04ca 0A       		.byte	0xa
 5786 04cb 89       		.byte	0x89
 5787 04cc DD040000 		.4byte	0x4dd
 5788 04d0 10       		.uleb128 0x10
 5789 04d1 72313300 		.ascii	"r13\000"
 5790 04d5 0A       		.byte	0xa
 5791 04d6 8A       		.byte	0x8a
 5792 04d7 1E060000 		.4byte	0x61e
ARM GAS  /var/folders/sv/kgmgr77579zbf78p2zlhkdfr0000gn/T//ccMuP6SP.s 			page 103


 5793 04db 00       		.byte	0
 5794 04dc 00       		.byte	0
 5795 04dd 06       		.uleb128 0x6
 5796 04de 17000000 		.4byte	.LASF91
 5797 04e2 64       		.byte	0x64
 5798 04e3 0B       		.byte	0xb
 5799 04e4 F4       		.byte	0xf4
 5800 04e5 1E060000 		.4byte	0x61e
 5801 04e9 10       		.uleb128 0x10
 5802 04ea 73313600 		.ascii	"s16\000"
 5803 04ee 0B       		.byte	0xb
 5804 04ef F6       		.byte	0xf6
 5805 04f0 AE040000 		.4byte	0x4ae
 5806 04f4 00       		.byte	0
 5807 04f5 10       		.uleb128 0x10
 5808 04f6 73313700 		.ascii	"s17\000"
 5809 04fa 0B       		.byte	0xb
 5810 04fb F7       		.byte	0xf7
 5811 04fc AE040000 		.4byte	0x4ae
 5812 0500 04       		.byte	0x4
 5813 0501 10       		.uleb128 0x10
 5814 0502 73313800 		.ascii	"s18\000"
 5815 0506 0B       		.byte	0xb
 5816 0507 F8       		.byte	0xf8
 5817 0508 AE040000 		.4byte	0x4ae
 5818 050c 08       		.byte	0x8
 5819 050d 10       		.uleb128 0x10
 5820 050e 73313900 		.ascii	"s19\000"
 5821 0512 0B       		.byte	0xb
 5822 0513 F9       		.byte	0xf9
 5823 0514 AE040000 		.4byte	0x4ae
 5824 0518 0C       		.byte	0xc
 5825 0519 10       		.uleb128 0x10
 5826 051a 73323000 		.ascii	"s20\000"
 5827 051e 0B       		.byte	0xb
 5828 051f FA       		.byte	0xfa
 5829 0520 AE040000 		.4byte	0x4ae
 5830 0524 10       		.byte	0x10
 5831 0525 10       		.uleb128 0x10
 5832 0526 73323100 		.ascii	"s21\000"
 5833 052a 0B       		.byte	0xb
 5834 052b FB       		.byte	0xfb
 5835 052c AE040000 		.4byte	0x4ae
 5836 0530 14       		.byte	0x14
 5837 0531 10       		.uleb128 0x10
 5838 0532 73323200 		.ascii	"s22\000"
 5839 0536 0B       		.byte	0xb
 5840 0537 FC       		.byte	0xfc
 5841 0538 AE040000 		.4byte	0x4ae
 5842 053c 18       		.byte	0x18
 5843 053d 10       		.uleb128 0x10
 5844 053e 73323300 		.ascii	"s23\000"
 5845 0542 0B       		.byte	0xb
 5846 0543 FD       		.byte	0xfd
 5847 0544 AE040000 		.4byte	0x4ae
 5848 0548 1C       		.byte	0x1c
 5849 0549 10       		.uleb128 0x10
ARM GAS  /var/folders/sv/kgmgr77579zbf78p2zlhkdfr0000gn/T//ccMuP6SP.s 			page 104


 5850 054a 73323400 		.ascii	"s24\000"
 5851 054e 0B       		.byte	0xb
 5852 054f FE       		.byte	0xfe
 5853 0550 AE040000 		.4byte	0x4ae
 5854 0554 20       		.byte	0x20
 5855 0555 10       		.uleb128 0x10
 5856 0556 73323500 		.ascii	"s25\000"
 5857 055a 0B       		.byte	0xb
 5858 055b FF       		.byte	0xff
 5859 055c AE040000 		.4byte	0x4ae
 5860 0560 24       		.byte	0x24
 5861 0561 08       		.uleb128 0x8
 5862 0562 73323600 		.ascii	"s26\000"
 5863 0566 0B       		.byte	0xb
 5864 0567 0001     		.2byte	0x100
 5865 0569 AE040000 		.4byte	0x4ae
 5866 056d 28       		.byte	0x28
 5867 056e 08       		.uleb128 0x8
 5868 056f 73323700 		.ascii	"s27\000"
 5869 0573 0B       		.byte	0xb
 5870 0574 0101     		.2byte	0x101
 5871 0576 AE040000 		.4byte	0x4ae
 5872 057a 2C       		.byte	0x2c
 5873 057b 08       		.uleb128 0x8
 5874 057c 73323800 		.ascii	"s28\000"
 5875 0580 0B       		.byte	0xb
 5876 0581 0201     		.2byte	0x102
 5877 0583 AE040000 		.4byte	0x4ae
 5878 0587 30       		.byte	0x30
 5879 0588 08       		.uleb128 0x8
 5880 0589 73323900 		.ascii	"s29\000"
 5881 058d 0B       		.byte	0xb
 5882 058e 0301     		.2byte	0x103
 5883 0590 AE040000 		.4byte	0x4ae
 5884 0594 34       		.byte	0x34
 5885 0595 08       		.uleb128 0x8
 5886 0596 73333000 		.ascii	"s30\000"
 5887 059a 0B       		.byte	0xb
 5888 059b 0401     		.2byte	0x104
 5889 059d AE040000 		.4byte	0x4ae
 5890 05a1 38       		.byte	0x38
 5891 05a2 08       		.uleb128 0x8
 5892 05a3 73333100 		.ascii	"s31\000"
 5893 05a7 0B       		.byte	0xb
 5894 05a8 0501     		.2byte	0x105
 5895 05aa AE040000 		.4byte	0x4ae
 5896 05ae 3C       		.byte	0x3c
 5897 05af 08       		.uleb128 0x8
 5898 05b0 723400   		.ascii	"r4\000"
 5899 05b3 0B       		.byte	0xb
 5900 05b4 0701     		.2byte	0x107
 5901 05b6 AE040000 		.4byte	0x4ae
 5902 05ba 40       		.byte	0x40
 5903 05bb 08       		.uleb128 0x8
 5904 05bc 723500   		.ascii	"r5\000"
 5905 05bf 0B       		.byte	0xb
 5906 05c0 0801     		.2byte	0x108
ARM GAS  /var/folders/sv/kgmgr77579zbf78p2zlhkdfr0000gn/T//ccMuP6SP.s 			page 105


 5907 05c2 AE040000 		.4byte	0x4ae
 5908 05c6 44       		.byte	0x44
 5909 05c7 08       		.uleb128 0x8
 5910 05c8 723600   		.ascii	"r6\000"
 5911 05cb 0B       		.byte	0xb
 5912 05cc 0901     		.2byte	0x109
 5913 05ce AE040000 		.4byte	0x4ae
 5914 05d2 48       		.byte	0x48
 5915 05d3 08       		.uleb128 0x8
 5916 05d4 723700   		.ascii	"r7\000"
 5917 05d7 0B       		.byte	0xb
 5918 05d8 0A01     		.2byte	0x10a
 5919 05da AE040000 		.4byte	0x4ae
 5920 05de 4C       		.byte	0x4c
 5921 05df 08       		.uleb128 0x8
 5922 05e0 723800   		.ascii	"r8\000"
 5923 05e3 0B       		.byte	0xb
 5924 05e4 0B01     		.2byte	0x10b
 5925 05e6 AE040000 		.4byte	0x4ae
 5926 05ea 50       		.byte	0x50
 5927 05eb 08       		.uleb128 0x8
 5928 05ec 723900   		.ascii	"r9\000"
 5929 05ef 0B       		.byte	0xb
 5930 05f0 0C01     		.2byte	0x10c
 5931 05f2 AE040000 		.4byte	0x4ae
 5932 05f6 54       		.byte	0x54
 5933 05f7 08       		.uleb128 0x8
 5934 05f8 72313000 		.ascii	"r10\000"
 5935 05fc 0B       		.byte	0xb
 5936 05fd 0D01     		.2byte	0x10d
 5937 05ff AE040000 		.4byte	0x4ae
 5938 0603 58       		.byte	0x58
 5939 0604 08       		.uleb128 0x8
 5940 0605 72313100 		.ascii	"r11\000"
 5941 0609 0B       		.byte	0xb
 5942 060a 0E01     		.2byte	0x10e
 5943 060c AE040000 		.4byte	0x4ae
 5944 0610 5C       		.byte	0x5c
 5945 0611 08       		.uleb128 0x8
 5946 0612 6C7200   		.ascii	"lr\000"
 5947 0615 0B       		.byte	0xb
 5948 0616 0F01     		.2byte	0x10f
 5949 0618 AE040000 		.4byte	0x4ae
 5950 061c 60       		.byte	0x60
 5951 061d 00       		.byte	0
 5952 061e 0A       		.uleb128 0xa
 5953 061f 04       		.byte	0x4
 5954 0620 DD040000 		.4byte	0x4dd
 5955 0624 11       		.uleb128 0x11
 5956 0625 04       		.byte	0x4
 5957 0626 0C       		.byte	0xc
 5958 0627 38       		.byte	0x38
 5959 0628 39060000 		.4byte	0x639
 5960 062c 07       		.uleb128 0x7
 5961 062d A1200000 		.4byte	.LASF92
 5962 0631 0C       		.byte	0xc
 5963 0632 3C       		.byte	0x3c
ARM GAS  /var/folders/sv/kgmgr77579zbf78p2zlhkdfr0000gn/T//ccMuP6SP.s 			page 106


 5964 0633 0B010000 		.4byte	0x10b
 5965 0637 00       		.byte	0
 5966 0638 00       		.byte	0
 5967 0639 04       		.uleb128 0x4
 5968 063a 5D250000 		.4byte	.LASF93
 5969 063e 0C       		.byte	0xc
 5970 063f 3D       		.byte	0x3d
 5971 0640 24060000 		.4byte	0x624
 5972 0644 12       		.uleb128 0x12
 5973 0645 04       		.byte	0x4
 5974 0646 09       		.byte	0x9
 5975 0647 FA       		.byte	0xfa
 5976 0648 A1060000 		.4byte	0x6a1
 5977 064c 13       		.uleb128 0x13
 5978 064d 660E0000 		.4byte	.LASF94
 5979 0651 09       		.byte	0x9
 5980 0652 0101     		.2byte	0x101
 5981 0654 4D010000 		.4byte	0x14d
 5982 0658 13       		.uleb128 0x13
 5983 0659 470C0000 		.4byte	.LASF95
 5984 065d 09       		.byte	0x9
 5985 065e 0801     		.2byte	0x108
 5986 0660 4D010000 		.4byte	0x14d
 5987 0664 13       		.uleb128 0x13
 5988 0665 F31B0000 		.4byte	.LASF96
 5989 0669 09       		.byte	0x9
 5990 066a 0F01     		.2byte	0x10f
 5991 066c 71030000 		.4byte	0x371
 5992 0670 13       		.uleb128 0x13
 5993 0671 A8150000 		.4byte	.LASF97
 5994 0675 09       		.byte	0x9
 5995 0676 1601     		.2byte	0x116
 5996 0678 A1060000 		.4byte	0x6a1
 5997 067c 13       		.uleb128 0x13
 5998 067d 33010000 		.4byte	.LASF98
 5999 0681 09       		.byte	0x9
 6000 0682 1E01     		.2byte	0x11e
 6001 0684 CC060000 		.4byte	0x6cc
 6002 0688 13       		.uleb128 0x13
 6003 0689 491C0000 		.4byte	.LASF99
 6004 068d 09       		.byte	0x9
 6005 068e 2701     		.2byte	0x127
 6006 0690 03070000 		.4byte	0x703
 6007 0694 13       		.uleb128 0x13
 6008 0695 38210000 		.4byte	.LASF100
 6009 0699 09       		.byte	0x9
 6010 069a 2F01     		.2byte	0x12f
 6011 069c 58010000 		.4byte	0x158
 6012 06a0 00       		.byte	0
 6013 06a1 0A       		.uleb128 0xa
 6014 06a2 04       		.byte	0x4
 6015 06a3 89020000 		.4byte	0x289
 6016 06a7 06       		.uleb128 0x6
 6017 06a8 35140000 		.4byte	.LASF101
 6018 06ac 0C       		.byte	0xc
 6019 06ad 0D       		.byte	0xd
 6020 06ae 34       		.byte	0x34
ARM GAS  /var/folders/sv/kgmgr77579zbf78p2zlhkdfr0000gn/T//ccMuP6SP.s 			page 107


 6021 06af CC060000 		.4byte	0x6cc
 6022 06b3 07       		.uleb128 0x7
 6023 06b4 54230000 		.4byte	.LASF102
 6024 06b8 0D       		.byte	0xd
 6025 06b9 35       		.byte	0x35
 6026 06ba BE020000 		.4byte	0x2be
 6027 06be 00       		.byte	0
 6028 06bf 07       		.uleb128 0x7
 6029 06c0 38070000 		.4byte	.LASF103
 6030 06c4 0D       		.byte	0xd
 6031 06c5 37       		.byte	0x37
 6032 06c6 63010000 		.4byte	0x163
 6033 06ca 08       		.byte	0x8
 6034 06cb 00       		.byte	0
 6035 06cc 0A       		.uleb128 0xa
 6036 06cd 04       		.byte	0x4
 6037 06ce A7060000 		.4byte	0x6a7
 6038 06d2 06       		.uleb128 0x6
 6039 06d3 70090000 		.4byte	.LASF104
 6040 06d7 10       		.byte	0x10
 6041 06d8 0E       		.byte	0xe
 6042 06d9 39       		.byte	0x39
 6043 06da 03070000 		.4byte	0x703
 6044 06de 07       		.uleb128 0x7
 6045 06df 3E150000 		.4byte	.LASF105
 6046 06e3 0E       		.byte	0xe
 6047 06e4 3A       		.byte	0x3a
 6048 06e5 BE020000 		.4byte	0x2be
 6049 06e9 00       		.byte	0
 6050 06ea 07       		.uleb128 0x7
 6051 06eb BC130000 		.4byte	.LASF106
 6052 06ef 0E       		.byte	0xe
 6053 06f0 3C       		.byte	0x3c
 6054 06f1 94020000 		.4byte	0x294
 6055 06f5 08       		.byte	0x8
 6056 06f6 07       		.uleb128 0x7
 6057 06f7 9D010000 		.4byte	.LASF107
 6058 06fb 0E       		.byte	0xe
 6059 06fc 3E       		.byte	0x3e
 6060 06fd 46070000 		.4byte	0x746
 6061 0701 0C       		.byte	0xc
 6062 0702 00       		.byte	0
 6063 0703 0A       		.uleb128 0xa
 6064 0704 04       		.byte	0x4
 6065 0705 D2060000 		.4byte	0x6d2
 6066 0709 0A       		.uleb128 0xa
 6067 070a 04       		.byte	0x4
 6068 070b 16070000 		.4byte	0x716
 6069 070f 02       		.uleb128 0x2
 6070 0710 01       		.byte	0x1
 6071 0711 08       		.byte	0x8
 6072 0712 02180000 		.4byte	.LASF108
 6073 0716 14       		.uleb128 0x14
 6074 0717 0F070000 		.4byte	0x70f
 6075 071b 05       		.uleb128 0x5
 6076 071c 6E010000 		.4byte	0x16e
 6077 0720 0A       		.uleb128 0xa
ARM GAS  /var/folders/sv/kgmgr77579zbf78p2zlhkdfr0000gn/T//ccMuP6SP.s 			page 108


 6078 0721 04       		.byte	0x4
 6079 0722 73030000 		.4byte	0x373
 6080 0726 05       		.uleb128 0x5
 6081 0727 09070000 		.4byte	0x709
 6082 072b 15       		.uleb128 0x15
 6083 072c B9040000 		.4byte	0x4b9
 6084 0730 3B070000 		.4byte	0x73b
 6085 0734 16       		.uleb128 0x16
 6086 0735 A7040000 		.4byte	0x4a7
 6087 0739 3A       		.byte	0x3a
 6088 073a 00       		.byte	0
 6089 073b 04       		.uleb128 0x4
 6090 073c 221F0000 		.4byte	.LASF109
 6091 0740 0E       		.byte	0xe
 6092 0741 34       		.byte	0x34
 6093 0742 D2060000 		.4byte	0x6d2
 6094 0746 0A       		.uleb128 0xa
 6095 0747 04       		.byte	0x4
 6096 0748 3B070000 		.4byte	0x73b
 6097 074c 17       		.uleb128 0x17
 6098 074d 01       		.byte	0x1
 6099 074e 50000000 		.4byte	0x50
 6100 0752 0F       		.byte	0xf
 6101 0753 23       		.byte	0x23
 6102 0754 6B070000 		.4byte	0x76b
 6103 0758 18       		.uleb128 0x18
 6104 0759 C9220000 		.4byte	.LASF110
 6105 075d 00       		.byte	0
 6106 075e 18       		.uleb128 0x18
 6107 075f 8E170000 		.4byte	.LASF111
 6108 0763 01       		.byte	0x1
 6109 0764 18       		.uleb128 0x18
 6110 0765 B2030000 		.4byte	.LASF112
 6111 0769 02       		.byte	0x2
 6112 076a 00       		.byte	0
 6113 076b 04       		.uleb128 0x4
 6114 076c C3030000 		.4byte	.LASF113
 6115 0770 0F       		.byte	0xf
 6116 0771 27       		.byte	0x27
 6117 0772 4C070000 		.4byte	0x74c
 6118 0776 17       		.uleb128 0x17
 6119 0777 01       		.byte	0x1
 6120 0778 50000000 		.4byte	0x50
 6121 077c 0F       		.byte	0xf
 6122 077d 29       		.byte	0x29
 6123 077e 8F070000 		.4byte	0x78f
 6124 0782 18       		.uleb128 0x18
 6125 0783 75150000 		.4byte	.LASF114
 6126 0787 00       		.byte	0
 6127 0788 18       		.uleb128 0x18
 6128 0789 DF260000 		.4byte	.LASF115
 6129 078d 01       		.byte	0x1
 6130 078e 00       		.byte	0
 6131 078f 04       		.uleb128 0x4
 6132 0790 04220000 		.4byte	.LASF116
 6133 0794 0F       		.byte	0xf
 6134 0795 2C       		.byte	0x2c
ARM GAS  /var/folders/sv/kgmgr77579zbf78p2zlhkdfr0000gn/T//ccMuP6SP.s 			page 109


 6135 0796 76070000 		.4byte	0x776
 6136 079a 17       		.uleb128 0x17
 6137 079b 01       		.byte	0x1
 6138 079c 50000000 		.4byte	0x50
 6139 07a0 0F       		.byte	0xf
 6140 07a1 2E       		.byte	0x2e
 6141 07a2 B9070000 		.4byte	0x7b9
 6142 07a6 18       		.uleb128 0x18
 6143 07a7 181D0000 		.4byte	.LASF117
 6144 07ab 00       		.byte	0
 6145 07ac 18       		.uleb128 0x18
 6146 07ad CE090000 		.4byte	.LASF118
 6147 07b1 01       		.byte	0x1
 6148 07b2 18       		.uleb128 0x18
 6149 07b3 8F0A0000 		.4byte	.LASF119
 6150 07b7 02       		.byte	0x2
 6151 07b8 00       		.byte	0
 6152 07b9 04       		.uleb128 0x4
 6153 07ba 1B150000 		.4byte	.LASF120
 6154 07be 0F       		.byte	0xf
 6155 07bf 32       		.byte	0x32
 6156 07c0 9A070000 		.4byte	0x79a
 6157 07c4 17       		.uleb128 0x17
 6158 07c5 01       		.byte	0x1
 6159 07c6 50000000 		.4byte	0x50
 6160 07ca 0F       		.byte	0xf
 6161 07cb 34       		.byte	0x34
 6162 07cc E3070000 		.4byte	0x7e3
 6163 07d0 18       		.uleb128 0x18
 6164 07d1 CE140000 		.4byte	.LASF121
 6165 07d5 00       		.byte	0
 6166 07d6 18       		.uleb128 0x18
 6167 07d7 CA050000 		.4byte	.LASF122
 6168 07db 01       		.byte	0x1
 6169 07dc 18       		.uleb128 0x18
 6170 07dd 75200000 		.4byte	.LASF123
 6171 07e1 02       		.byte	0x2
 6172 07e2 00       		.byte	0
 6173 07e3 04       		.uleb128 0x4
 6174 07e4 05260000 		.4byte	.LASF124
 6175 07e8 0F       		.byte	0xf
 6176 07e9 38       		.byte	0x38
 6177 07ea C4070000 		.4byte	0x7c4
 6178 07ee 17       		.uleb128 0x17
 6179 07ef 01       		.byte	0x1
 6180 07f0 50000000 		.4byte	0x50
 6181 07f4 0F       		.byte	0xf
 6182 07f5 3A       		.byte	0x3a
 6183 07f6 13080000 		.4byte	0x813
 6184 07fa 18       		.uleb128 0x18
 6185 07fb 93260000 		.4byte	.LASF125
 6186 07ff 00       		.byte	0
 6187 0800 18       		.uleb128 0x18
 6188 0801 EB0E0000 		.4byte	.LASF126
 6189 0805 01       		.byte	0x1
 6190 0806 18       		.uleb128 0x18
 6191 0807 F3100000 		.4byte	.LASF127
ARM GAS  /var/folders/sv/kgmgr77579zbf78p2zlhkdfr0000gn/T//ccMuP6SP.s 			page 110


 6192 080b 02       		.byte	0x2
 6193 080c 18       		.uleb128 0x18
 6194 080d DE0D0000 		.4byte	.LASF128
 6195 0811 03       		.byte	0x3
 6196 0812 00       		.byte	0
 6197 0813 04       		.uleb128 0x4
 6198 0814 501C0000 		.4byte	.LASF129
 6199 0818 0F       		.byte	0xf
 6200 0819 3F       		.byte	0x3f
 6201 081a EE070000 		.4byte	0x7ee
 6202 081e 17       		.uleb128 0x17
 6203 081f 01       		.byte	0x1
 6204 0820 50000000 		.4byte	0x50
 6205 0824 0F       		.byte	0xf
 6206 0825 56       		.byte	0x56
 6207 0826 55080000 		.4byte	0x855
 6208 082a 18       		.uleb128 0x18
 6209 082b 79090000 		.4byte	.LASF130
 6210 082f 00       		.byte	0
 6211 0830 18       		.uleb128 0x18
 6212 0831 38020000 		.4byte	.LASF131
 6213 0835 01       		.byte	0x1
 6214 0836 18       		.uleb128 0x18
 6215 0837 2F090000 		.4byte	.LASF132
 6216 083b 02       		.byte	0x2
 6217 083c 18       		.uleb128 0x18
 6218 083d EA010000 		.4byte	.LASF133
 6219 0841 03       		.byte	0x3
 6220 0842 18       		.uleb128 0x18
 6221 0843 C80D0000 		.4byte	.LASF134
 6222 0847 04       		.byte	0x4
 6223 0848 18       		.uleb128 0x18
 6224 0849 1E0D0000 		.4byte	.LASF135
 6225 084d 05       		.byte	0x5
 6226 084e 18       		.uleb128 0x18
 6227 084f DD170000 		.4byte	.LASF136
 6228 0853 06       		.byte	0x6
 6229 0854 00       		.byte	0
 6230 0855 04       		.uleb128 0x4
 6231 0856 83220000 		.4byte	.LASF137
 6232 085a 0F       		.byte	0xf
 6233 085b 5E       		.byte	0x5e
 6234 085c 1E080000 		.4byte	0x81e
 6235 0860 17       		.uleb128 0x17
 6236 0861 01       		.byte	0x1
 6237 0862 50000000 		.4byte	0x50
 6238 0866 0F       		.byte	0xf
 6239 0867 60       		.byte	0x60
 6240 0868 7F080000 		.4byte	0x87f
 6241 086c 18       		.uleb128 0x18
 6242 086d A5140000 		.4byte	.LASF138
 6243 0871 00       		.byte	0
 6244 0872 18       		.uleb128 0x18
 6245 0873 FC0A0000 		.4byte	.LASF139
 6246 0877 01       		.byte	0x1
 6247 0878 18       		.uleb128 0x18
 6248 0879 7A0B0000 		.4byte	.LASF140
ARM GAS  /var/folders/sv/kgmgr77579zbf78p2zlhkdfr0000gn/T//ccMuP6SP.s 			page 111


 6249 087d 02       		.byte	0x2
 6250 087e 00       		.byte	0
 6251 087f 04       		.uleb128 0x4
 6252 0880 E0250000 		.4byte	.LASF141
 6253 0884 0F       		.byte	0xf
 6254 0885 64       		.byte	0x64
 6255 0886 60080000 		.4byte	0x860
 6256 088a 17       		.uleb128 0x17
 6257 088b 01       		.byte	0x1
 6258 088c 50000000 		.4byte	0x50
 6259 0890 0F       		.byte	0xf
 6260 0891 70       		.byte	0x70
 6261 0892 AF080000 		.4byte	0x8af
 6262 0896 18       		.uleb128 0x18
 6263 0897 92030000 		.4byte	.LASF142
 6264 089b 00       		.byte	0
 6265 089c 18       		.uleb128 0x18
 6266 089d 031C0000 		.4byte	.LASF143
 6267 08a1 01       		.byte	0x1
 6268 08a2 18       		.uleb128 0x18
 6269 08a3 2B060000 		.4byte	.LASF144
 6270 08a7 02       		.byte	0x2
 6271 08a8 18       		.uleb128 0x18
 6272 08a9 E6220000 		.4byte	.LASF145
 6273 08ad 03       		.byte	0x3
 6274 08ae 00       		.byte	0
 6275 08af 04       		.uleb128 0x4
 6276 08b0 B3170000 		.4byte	.LASF146
 6277 08b4 0F       		.byte	0xf
 6278 08b5 75       		.byte	0x75
 6279 08b6 8A080000 		.4byte	0x88a
 6280 08ba 17       		.uleb128 0x17
 6281 08bb 01       		.byte	0x1
 6282 08bc 50000000 		.4byte	0x50
 6283 08c0 0F       		.byte	0xf
 6284 08c1 77       		.byte	0x77
 6285 08c2 F7080000 		.4byte	0x8f7
 6286 08c6 18       		.uleb128 0x18
 6287 08c7 2E190000 		.4byte	.LASF147
 6288 08cb 00       		.byte	0
 6289 08cc 18       		.uleb128 0x18
 6290 08cd 721C0000 		.4byte	.LASF148
 6291 08d1 01       		.byte	0x1
 6292 08d2 18       		.uleb128 0x18
 6293 08d3 970E0000 		.4byte	.LASF149
 6294 08d7 02       		.byte	0x2
 6295 08d8 18       		.uleb128 0x18
 6296 08d9 771B0000 		.4byte	.LASF150
 6297 08dd 03       		.byte	0x3
 6298 08de 18       		.uleb128 0x18
 6299 08df A30B0000 		.4byte	.LASF151
 6300 08e3 04       		.byte	0x4
 6301 08e4 18       		.uleb128 0x18
 6302 08e5 E71E0000 		.4byte	.LASF152
 6303 08e9 05       		.byte	0x5
 6304 08ea 18       		.uleb128 0x18
 6305 08eb EC190000 		.4byte	.LASF153
ARM GAS  /var/folders/sv/kgmgr77579zbf78p2zlhkdfr0000gn/T//ccMuP6SP.s 			page 112


 6306 08ef 06       		.byte	0x6
 6307 08f0 18       		.uleb128 0x18
 6308 08f1 D2100000 		.4byte	.LASF154
 6309 08f5 07       		.byte	0x7
 6310 08f6 00       		.byte	0
 6311 08f7 04       		.uleb128 0x4
 6312 08f8 67230000 		.4byte	.LASF155
 6313 08fc 0F       		.byte	0xf
 6314 08fd 80       		.byte	0x80
 6315 08fe BA080000 		.4byte	0x8ba
 6316 0902 17       		.uleb128 0x17
 6317 0903 01       		.byte	0x1
 6318 0904 50000000 		.4byte	0x50
 6319 0908 0F       		.byte	0xf
 6320 0909 82       		.byte	0x82
 6321 090a 27090000 		.4byte	0x927
 6322 090e 18       		.uleb128 0x18
 6323 090f DE030000 		.4byte	.LASF156
 6324 0913 00       		.byte	0
 6325 0914 18       		.uleb128 0x18
 6326 0915 E91F0000 		.4byte	.LASF157
 6327 0919 01       		.byte	0x1
 6328 091a 18       		.uleb128 0x18
 6329 091b 711E0000 		.4byte	.LASF158
 6330 091f 02       		.byte	0x2
 6331 0920 18       		.uleb128 0x18
 6332 0921 790D0000 		.4byte	.LASF159
 6333 0925 03       		.byte	0x3
 6334 0926 00       		.byte	0
 6335 0927 04       		.uleb128 0x4
 6336 0928 96020000 		.4byte	.LASF160
 6337 092c 0F       		.byte	0xf
 6338 092d 87       		.byte	0x87
 6339 092e 02090000 		.4byte	0x902
 6340 0932 19       		.uleb128 0x19
 6341 0933 7401     		.2byte	0x174
 6342 0935 0F       		.byte	0xf
 6343 0936 89       		.byte	0x89
 6344 0937 E70D0000 		.4byte	0xde7
 6345 093b 07       		.uleb128 0x7
 6346 093c F10F0000 		.4byte	.LASF161
 6347 0940 0F       		.byte	0xf
 6348 0941 8B       		.byte	0x8b
 6349 0942 6B070000 		.4byte	0x76b
 6350 0946 00       		.byte	0
 6351 0947 07       		.uleb128 0x7
 6352 0948 7C080000 		.4byte	.LASF162
 6353 094c 0F       		.byte	0xf
 6354 094d 8C       		.byte	0x8c
 6355 094e 8F070000 		.4byte	0x78f
 6356 0952 01       		.byte	0x1
 6357 0953 07       		.uleb128 0x7
 6358 0954 18100000 		.4byte	.LASF163
 6359 0958 0F       		.byte	0xf
 6360 0959 8D       		.byte	0x8d
 6361 095a 13080000 		.4byte	0x813
 6362 095e 02       		.byte	0x2
ARM GAS  /var/folders/sv/kgmgr77579zbf78p2zlhkdfr0000gn/T//ccMuP6SP.s 			page 113


 6363 095f 07       		.uleb128 0x7
 6364 0960 F61C0000 		.4byte	.LASF164
 6365 0964 0F       		.byte	0xf
 6366 0965 8E       		.byte	0x8e
 6367 0966 B9070000 		.4byte	0x7b9
 6368 096a 03       		.byte	0x3
 6369 096b 07       		.uleb128 0x7
 6370 096c 13140000 		.4byte	.LASF165
 6371 0970 0F       		.byte	0xf
 6372 0971 90       		.byte	0x90
 6373 0972 25000000 		.4byte	0x25
 6374 0976 04       		.byte	0x4
 6375 0977 07       		.uleb128 0x7
 6376 0978 41190000 		.4byte	.LASF166
 6377 097c 0F       		.byte	0xf
 6378 097d 91       		.byte	0x91
 6379 097e 25000000 		.4byte	0x25
 6380 0982 08       		.byte	0x8
 6381 0983 07       		.uleb128 0x7
 6382 0984 D5240000 		.4byte	.LASF167
 6383 0988 0F       		.byte	0xf
 6384 0989 92       		.byte	0x92
 6385 098a 25000000 		.4byte	0x25
 6386 098e 0C       		.byte	0xc
 6387 098f 07       		.uleb128 0x7
 6388 0990 BF010000 		.4byte	.LASF168
 6389 0994 0F       		.byte	0xf
 6390 0995 93       		.byte	0x93
 6391 0996 25000000 		.4byte	0x25
 6392 099a 10       		.byte	0x10
 6393 099b 07       		.uleb128 0x7
 6394 099c 3F000000 		.4byte	.LASF169
 6395 09a0 0F       		.byte	0xf
 6396 09a1 94       		.byte	0x94
 6397 09a2 25000000 		.4byte	0x25
 6398 09a6 14       		.byte	0x14
 6399 09a7 07       		.uleb128 0x7
 6400 09a8 74020000 		.4byte	.LASF170
 6401 09ac 0F       		.byte	0xf
 6402 09ad 95       		.byte	0x95
 6403 09ae 25000000 		.4byte	0x25
 6404 09b2 18       		.byte	0x18
 6405 09b3 07       		.uleb128 0x7
 6406 09b4 CD120000 		.4byte	.LASF171
 6407 09b8 0F       		.byte	0xf
 6408 09b9 96       		.byte	0x96
 6409 09ba 25000000 		.4byte	0x25
 6410 09be 1C       		.byte	0x1c
 6411 09bf 07       		.uleb128 0x7
 6412 09c0 E7130000 		.4byte	.LASF172
 6413 09c4 0F       		.byte	0xf
 6414 09c5 97       		.byte	0x97
 6415 09c6 25000000 		.4byte	0x25
 6416 09ca 20       		.byte	0x20
 6417 09cb 07       		.uleb128 0x7
 6418 09cc 2D000000 		.4byte	.LASF173
 6419 09d0 0F       		.byte	0xf
ARM GAS  /var/folders/sv/kgmgr77579zbf78p2zlhkdfr0000gn/T//ccMuP6SP.s 			page 114


 6420 09d1 98       		.byte	0x98
 6421 09d2 25000000 		.4byte	0x25
 6422 09d6 24       		.byte	0x24
 6423 09d7 07       		.uleb128 0x7
 6424 09d8 ED230000 		.4byte	.LASF174
 6425 09dc 0F       		.byte	0xf
 6426 09dd 99       		.byte	0x99
 6427 09de 25000000 		.4byte	0x25
 6428 09e2 28       		.byte	0x28
 6429 09e3 07       		.uleb128 0x7
 6430 09e4 3A0D0000 		.4byte	.LASF175
 6431 09e8 0F       		.byte	0xf
 6432 09e9 9A       		.byte	0x9a
 6433 09ea 25000000 		.4byte	0x25
 6434 09ee 2C       		.byte	0x2c
 6435 09ef 07       		.uleb128 0x7
 6436 09f0 2B0C0000 		.4byte	.LASF176
 6437 09f4 0F       		.byte	0xf
 6438 09f5 9B       		.byte	0x9b
 6439 09f6 25000000 		.4byte	0x25
 6440 09fa 30       		.byte	0x30
 6441 09fb 07       		.uleb128 0x7
 6442 09fc 0A0D0000 		.4byte	.LASF177
 6443 0a00 0F       		.byte	0xf
 6444 0a01 9C       		.byte	0x9c
 6445 0a02 25000000 		.4byte	0x25
 6446 0a06 34       		.byte	0x34
 6447 0a07 07       		.uleb128 0x7
 6448 0a08 5D160000 		.4byte	.LASF178
 6449 0a0c 0F       		.byte	0xf
 6450 0a0d 9D       		.byte	0x9d
 6451 0a0e 25000000 		.4byte	0x25
 6452 0a12 38       		.byte	0x38
 6453 0a13 07       		.uleb128 0x7
 6454 0a14 A4010000 		.4byte	.LASF179
 6455 0a18 0F       		.byte	0xf
 6456 0a19 9E       		.byte	0x9e
 6457 0a1a E70D0000 		.4byte	0xde7
 6458 0a1e 3C       		.byte	0x3c
 6459 0a1f 07       		.uleb128 0x7
 6460 0a20 F0070000 		.4byte	.LASF180
 6461 0a24 0F       		.byte	0xf
 6462 0a25 9F       		.byte	0x9f
 6463 0a26 25000000 		.4byte	0x25
 6464 0a2a 40       		.byte	0x40
 6465 0a2b 07       		.uleb128 0x7
 6466 0a2c 41030000 		.4byte	.LASF181
 6467 0a30 0F       		.byte	0xf
 6468 0a31 A0       		.byte	0xa0
 6469 0a32 25000000 		.4byte	0x25
 6470 0a36 44       		.byte	0x44
 6471 0a37 07       		.uleb128 0x7
 6472 0a38 B7180000 		.4byte	.LASF182
 6473 0a3c 0F       		.byte	0xf
 6474 0a3d A1       		.byte	0xa1
 6475 0a3e 25000000 		.4byte	0x25
 6476 0a42 48       		.byte	0x48
ARM GAS  /var/folders/sv/kgmgr77579zbf78p2zlhkdfr0000gn/T//ccMuP6SP.s 			page 115


 6477 0a43 07       		.uleb128 0x7
 6478 0a44 B61C0000 		.4byte	.LASF183
 6479 0a48 0F       		.byte	0xf
 6480 0a49 A2       		.byte	0xa2
 6481 0a4a 25000000 		.4byte	0x25
 6482 0a4e 4C       		.byte	0x4c
 6483 0a4f 07       		.uleb128 0x7
 6484 0a50 57180000 		.4byte	.LASF184
 6485 0a54 0F       		.byte	0xf
 6486 0a55 A3       		.byte	0xa3
 6487 0a56 25000000 		.4byte	0x25
 6488 0a5a 50       		.byte	0x50
 6489 0a5b 07       		.uleb128 0x7
 6490 0a5c B9250000 		.4byte	.LASF185
 6491 0a60 0F       		.byte	0xf
 6492 0a61 A4       		.byte	0xa4
 6493 0a62 25000000 		.4byte	0x25
 6494 0a66 54       		.byte	0x54
 6495 0a67 07       		.uleb128 0x7
 6496 0a68 6D0E0000 		.4byte	.LASF186
 6497 0a6c 0F       		.byte	0xf
 6498 0a6d A5       		.byte	0xa5
 6499 0a6e 25000000 		.4byte	0x25
 6500 0a72 58       		.byte	0x58
 6501 0a73 07       		.uleb128 0x7
 6502 0a74 A5070000 		.4byte	.LASF187
 6503 0a78 0F       		.byte	0xf
 6504 0a79 A6       		.byte	0xa6
 6505 0a7a 25000000 		.4byte	0x25
 6506 0a7e 5C       		.byte	0x5c
 6507 0a7f 07       		.uleb128 0x7
 6508 0a80 D7230000 		.4byte	.LASF188
 6509 0a84 0F       		.byte	0xf
 6510 0a85 A7       		.byte	0xa7
 6511 0a86 25000000 		.4byte	0x25
 6512 0a8a 60       		.byte	0x60
 6513 0a8b 07       		.uleb128 0x7
 6514 0a8c BF0A0000 		.4byte	.LASF189
 6515 0a90 0F       		.byte	0xf
 6516 0a91 A9       		.byte	0xa9
 6517 0a92 25000000 		.4byte	0x25
 6518 0a96 64       		.byte	0x64
 6519 0a97 07       		.uleb128 0x7
 6520 0a98 23100000 		.4byte	.LASF190
 6521 0a9c 0F       		.byte	0xf
 6522 0a9d AA       		.byte	0xaa
 6523 0a9e 25000000 		.4byte	0x25
 6524 0aa2 68       		.byte	0x68
 6525 0aa3 07       		.uleb128 0x7
 6526 0aa4 F71F0000 		.4byte	.LASF191
 6527 0aa8 0F       		.byte	0xf
 6528 0aa9 AB       		.byte	0xab
 6529 0aaa 25000000 		.4byte	0x25
 6530 0aae 6C       		.byte	0x6c
 6531 0aaf 07       		.uleb128 0x7
 6532 0ab0 77250000 		.4byte	.LASF192
 6533 0ab4 0F       		.byte	0xf
ARM GAS  /var/folders/sv/kgmgr77579zbf78p2zlhkdfr0000gn/T//ccMuP6SP.s 			page 116


 6534 0ab5 AC       		.byte	0xac
 6535 0ab6 25000000 		.4byte	0x25
 6536 0aba 70       		.byte	0x70
 6537 0abb 07       		.uleb128 0x7
 6538 0abc 561A0000 		.4byte	.LASF193
 6539 0ac0 0F       		.byte	0xf
 6540 0ac1 AD       		.byte	0xad
 6541 0ac2 25000000 		.4byte	0x25
 6542 0ac6 74       		.byte	0x74
 6543 0ac7 07       		.uleb128 0x7
 6544 0ac8 120C0000 		.4byte	.LASF194
 6545 0acc 0F       		.byte	0xf
 6546 0acd AE       		.byte	0xae
 6547 0ace 25000000 		.4byte	0x25
 6548 0ad2 78       		.byte	0x78
 6549 0ad3 07       		.uleb128 0x7
 6550 0ad4 ED0D0000 		.4byte	.LASF195
 6551 0ad8 0F       		.byte	0xf
 6552 0ad9 B0       		.byte	0xb0
 6553 0ada 25000000 		.4byte	0x25
 6554 0ade 7C       		.byte	0x7c
 6555 0adf 07       		.uleb128 0x7
 6556 0ae0 AA040000 		.4byte	.LASF196
 6557 0ae4 0F       		.byte	0xf
 6558 0ae5 B1       		.byte	0xb1
 6559 0ae6 25000000 		.4byte	0x25
 6560 0aea 80       		.byte	0x80
 6561 0aeb 07       		.uleb128 0x7
 6562 0aec 32100000 		.4byte	.LASF197
 6563 0af0 0F       		.byte	0xf
 6564 0af1 B2       		.byte	0xb2
 6565 0af2 25000000 		.4byte	0x25
 6566 0af6 84       		.byte	0x84
 6567 0af7 07       		.uleb128 0x7
 6568 0af8 80110000 		.4byte	.LASF198
 6569 0afc 0F       		.byte	0xf
 6570 0afd B3       		.byte	0xb3
 6571 0afe 25000000 		.4byte	0x25
 6572 0b02 88       		.byte	0x88
 6573 0b03 07       		.uleb128 0x7
 6574 0b04 320F0000 		.4byte	.LASF199
 6575 0b08 0F       		.byte	0xf
 6576 0b09 B4       		.byte	0xb4
 6577 0b0a 25000000 		.4byte	0x25
 6578 0b0e 8C       		.byte	0x8c
 6579 0b0f 07       		.uleb128 0x7
 6580 0b10 A6210000 		.4byte	.LASF200
 6581 0b14 0F       		.byte	0xf
 6582 0b15 B5       		.byte	0xb5
 6583 0b16 25000000 		.4byte	0x25
 6584 0b1a 90       		.byte	0x90
 6585 0b1b 07       		.uleb128 0x7
 6586 0b1c 25180000 		.4byte	.LASF201
 6587 0b20 0F       		.byte	0xf
 6588 0b21 B6       		.byte	0xb6
 6589 0b22 25000000 		.4byte	0x25
 6590 0b26 94       		.byte	0x94
ARM GAS  /var/folders/sv/kgmgr77579zbf78p2zlhkdfr0000gn/T//ccMuP6SP.s 			page 117


 6591 0b27 07       		.uleb128 0x7
 6592 0b28 A1100000 		.4byte	.LASF202
 6593 0b2c 0F       		.byte	0xf
 6594 0b2d B8       		.byte	0xb8
 6595 0b2e EE0D0000 		.4byte	0xdee
 6596 0b32 98       		.byte	0x98
 6597 0b33 07       		.uleb128 0x7
 6598 0b34 9A190000 		.4byte	.LASF203
 6599 0b38 0F       		.byte	0xf
 6600 0b39 B9       		.byte	0xb9
 6601 0b3a 25000000 		.4byte	0x25
 6602 0b3e A0       		.byte	0xa0
 6603 0b3f 07       		.uleb128 0x7
 6604 0b40 EE040000 		.4byte	.LASF204
 6605 0b44 0F       		.byte	0xf
 6606 0b45 BB       		.byte	0xbb
 6607 0b46 25000000 		.4byte	0x25
 6608 0b4a A4       		.byte	0xa4
 6609 0b4b 07       		.uleb128 0x7
 6610 0b4c C6040000 		.4byte	.LASF205
 6611 0b50 0F       		.byte	0xf
 6612 0b51 BC       		.byte	0xbc
 6613 0b52 25000000 		.4byte	0x25
 6614 0b56 A8       		.byte	0xa8
 6615 0b57 07       		.uleb128 0x7
 6616 0b58 BA070000 		.4byte	.LASF206
 6617 0b5c 0F       		.byte	0xf
 6618 0b5d BD       		.byte	0xbd
 6619 0b5e 25000000 		.4byte	0x25
 6620 0b62 AC       		.byte	0xac
 6621 0b63 07       		.uleb128 0x7
 6622 0b64 A8200000 		.4byte	.LASF207
 6623 0b68 0F       		.byte	0xf
 6624 0b69 BE       		.byte	0xbe
 6625 0b6a 25000000 		.4byte	0x25
 6626 0b6e B0       		.byte	0xb0
 6627 0b6f 07       		.uleb128 0x7
 6628 0b70 2A1F0000 		.4byte	.LASF208
 6629 0b74 0F       		.byte	0xf
 6630 0b75 BF       		.byte	0xbf
 6631 0b76 25000000 		.4byte	0x25
 6632 0b7a B4       		.byte	0xb4
 6633 0b7b 07       		.uleb128 0x7
 6634 0b7c CE0A0000 		.4byte	.LASF209
 6635 0b80 0F       		.byte	0xf
 6636 0b81 C0       		.byte	0xc0
 6637 0b82 E70D0000 		.4byte	0xde7
 6638 0b86 B8       		.byte	0xb8
 6639 0b87 07       		.uleb128 0x7
 6640 0b88 0E160000 		.4byte	.LASF210
 6641 0b8c 0F       		.byte	0xf
 6642 0b8d C1       		.byte	0xc1
 6643 0b8e 25000000 		.4byte	0x25
 6644 0b92 BC       		.byte	0xbc
 6645 0b93 07       		.uleb128 0x7
 6646 0b94 DE060000 		.4byte	.LASF211
 6647 0b98 0F       		.byte	0xf
ARM GAS  /var/folders/sv/kgmgr77579zbf78p2zlhkdfr0000gn/T//ccMuP6SP.s 			page 118


 6648 0b99 C2       		.byte	0xc2
 6649 0b9a 25000000 		.4byte	0x25
 6650 0b9e C0       		.byte	0xc0
 6651 0b9f 07       		.uleb128 0x7
 6652 0ba0 EA060000 		.4byte	.LASF212
 6653 0ba4 0F       		.byte	0xf
 6654 0ba5 C3       		.byte	0xc3
 6655 0ba6 25000000 		.4byte	0x25
 6656 0baa C4       		.byte	0xc4
 6657 0bab 07       		.uleb128 0x7
 6658 0bac 5B110000 		.4byte	.LASF213
 6659 0bb0 0F       		.byte	0xf
 6660 0bb1 C4       		.byte	0xc4
 6661 0bb2 25000000 		.4byte	0x25
 6662 0bb6 C8       		.byte	0xc8
 6663 0bb7 07       		.uleb128 0x7
 6664 0bb8 86080000 		.4byte	.LASF214
 6665 0bbc 0F       		.byte	0xf
 6666 0bbd C5       		.byte	0xc5
 6667 0bbe 25000000 		.4byte	0x25
 6668 0bc2 CC       		.byte	0xcc
 6669 0bc3 07       		.uleb128 0x7
 6670 0bc4 F1000000 		.4byte	.LASF215
 6671 0bc8 0F       		.byte	0xf
 6672 0bc9 C6       		.byte	0xc6
 6673 0bca 25000000 		.4byte	0x25
 6674 0bce D0       		.byte	0xd0
 6675 0bcf 07       		.uleb128 0x7
 6676 0bd0 161B0000 		.4byte	.LASF216
 6677 0bd4 0F       		.byte	0xf
 6678 0bd5 C7       		.byte	0xc7
 6679 0bd6 25000000 		.4byte	0x25
 6680 0bda D4       		.byte	0xd4
 6681 0bdb 07       		.uleb128 0x7
 6682 0bdc 0B1B0000 		.4byte	.LASF217
 6683 0be0 0F       		.byte	0xf
 6684 0be1 C8       		.byte	0xc8
 6685 0be2 25000000 		.4byte	0x25
 6686 0be6 D8       		.byte	0xd8
 6687 0be7 07       		.uleb128 0x7
 6688 0be8 C4130000 		.4byte	.LASF218
 6689 0bec 0F       		.byte	0xf
 6690 0bed C9       		.byte	0xc9
 6691 0bee 25000000 		.4byte	0x25
 6692 0bf2 DC       		.byte	0xdc
 6693 0bf3 07       		.uleb128 0x7
 6694 0bf4 92130000 		.4byte	.LASF219
 6695 0bf8 0F       		.byte	0xf
 6696 0bf9 CA       		.byte	0xca
 6697 0bfa 25000000 		.4byte	0x25
 6698 0bfe E0       		.byte	0xe0
 6699 0bff 07       		.uleb128 0x7
 6700 0c00 E21A0000 		.4byte	.LASF220
 6701 0c04 0F       		.byte	0xf
 6702 0c05 CB       		.byte	0xcb
 6703 0c06 25000000 		.4byte	0x25
 6704 0c0a E4       		.byte	0xe4
ARM GAS  /var/folders/sv/kgmgr77579zbf78p2zlhkdfr0000gn/T//ccMuP6SP.s 			page 119


 6705 0c0b 07       		.uleb128 0x7
 6706 0c0c 631F0000 		.4byte	.LASF221
 6707 0c10 0F       		.byte	0xf
 6708 0c11 CC       		.byte	0xcc
 6709 0c12 25000000 		.4byte	0x25
 6710 0c16 E8       		.byte	0xe8
 6711 0c17 07       		.uleb128 0x7
 6712 0c18 48250000 		.4byte	.LASF222
 6713 0c1c 0F       		.byte	0xf
 6714 0c1d CD       		.byte	0xcd
 6715 0c1e 25000000 		.4byte	0x25
 6716 0c22 EC       		.byte	0xec
 6717 0c23 07       		.uleb128 0x7
 6718 0c24 75100000 		.4byte	.LASF223
 6719 0c28 0F       		.byte	0xf
 6720 0c29 CE       		.byte	0xce
 6721 0c2a 25000000 		.4byte	0x25
 6722 0c2e F0       		.byte	0xf0
 6723 0c2f 07       		.uleb128 0x7
 6724 0c30 F31A0000 		.4byte	.LASF224
 6725 0c34 0F       		.byte	0xf
 6726 0c35 CF       		.byte	0xcf
 6727 0c36 25000000 		.4byte	0x25
 6728 0c3a F4       		.byte	0xf4
 6729 0c3b 07       		.uleb128 0x7
 6730 0c3c 58200000 		.4byte	.LASF225
 6731 0c40 0F       		.byte	0xf
 6732 0c41 D0       		.byte	0xd0
 6733 0c42 E3070000 		.4byte	0x7e3
 6734 0c46 F8       		.byte	0xf8
 6735 0c47 07       		.uleb128 0x7
 6736 0c48 6A0D0000 		.4byte	.LASF226
 6737 0c4c 0F       		.byte	0xf
 6738 0c4d D1       		.byte	0xd1
 6739 0c4e FE0D0000 		.4byte	0xdfe
 6740 0c52 F9       		.byte	0xf9
 6741 0c53 1A       		.uleb128 0x1a
 6742 0c54 100F0000 		.4byte	.LASF227
 6743 0c58 0F       		.byte	0xf
 6744 0c59 D2       		.byte	0xd2
 6745 0c5a 25000000 		.4byte	0x25
 6746 0c5e 0401     		.2byte	0x104
 6747 0c60 1A       		.uleb128 0x1a
 6748 0c61 62260000 		.4byte	.LASF228
 6749 0c65 0F       		.byte	0xf
 6750 0c66 D3       		.byte	0xd3
 6751 0c67 E70D0000 		.4byte	0xde7
 6752 0c6b 0801     		.2byte	0x108
 6753 0c6d 1A       		.uleb128 0x1a
 6754 0c6e EC210000 		.4byte	.LASF229
 6755 0c72 0F       		.byte	0xf
 6756 0c73 D4       		.byte	0xd4
 6757 0c74 E70D0000 		.4byte	0xde7
 6758 0c78 0901     		.2byte	0x109
 6759 0c7a 1A       		.uleb128 0x1a
 6760 0c7b C5200000 		.4byte	.LASF230
 6761 0c7f 0F       		.byte	0xf
ARM GAS  /var/folders/sv/kgmgr77579zbf78p2zlhkdfr0000gn/T//ccMuP6SP.s 			page 120


 6762 0c80 D5       		.byte	0xd5
 6763 0c81 25000000 		.4byte	0x25
 6764 0c85 0C01     		.2byte	0x10c
 6765 0c87 1A       		.uleb128 0x1a
 6766 0c88 C3170000 		.4byte	.LASF231
 6767 0c8c 0F       		.byte	0xf
 6768 0c8d D6       		.byte	0xd6
 6769 0c8e E70D0000 		.4byte	0xde7
 6770 0c92 1001     		.2byte	0x110
 6771 0c94 1A       		.uleb128 0x1a
 6772 0c95 DE1C0000 		.4byte	.LASF232
 6773 0c99 0F       		.byte	0xf
 6774 0c9a D7       		.byte	0xd7
 6775 0c9b 25000000 		.4byte	0x25
 6776 0c9f 1401     		.2byte	0x114
 6777 0ca1 1A       		.uleb128 0x1a
 6778 0ca2 101A0000 		.4byte	.LASF233
 6779 0ca6 0F       		.byte	0xf
 6780 0ca7 D9       		.byte	0xd9
 6781 0ca8 25000000 		.4byte	0x25
 6782 0cac 1801     		.2byte	0x118
 6783 0cae 1A       		.uleb128 0x1a
 6784 0caf E3190000 		.4byte	.LASF234
 6785 0cb3 0F       		.byte	0xf
 6786 0cb4 DA       		.byte	0xda
 6787 0cb5 25000000 		.4byte	0x25
 6788 0cb9 1C01     		.2byte	0x11c
 6789 0cbb 1A       		.uleb128 0x1a
 6790 0cbc DA190000 		.4byte	.LASF235
 6791 0cc0 0F       		.byte	0xf
 6792 0cc1 DB       		.byte	0xdb
 6793 0cc2 25000000 		.4byte	0x25
 6794 0cc6 2001     		.2byte	0x120
 6795 0cc8 1A       		.uleb128 0x1a
 6796 0cc9 29070000 		.4byte	.LASF236
 6797 0ccd 0F       		.byte	0xf
 6798 0cce DC       		.byte	0xdc
 6799 0ccf 25000000 		.4byte	0x25
 6800 0cd3 2401     		.2byte	0x124
 6801 0cd5 1A       		.uleb128 0x1a
 6802 0cd6 8C090000 		.4byte	.LASF237
 6803 0cda 0F       		.byte	0xf
 6804 0cdb DD       		.byte	0xdd
 6805 0cdc E70D0000 		.4byte	0xde7
 6806 0ce0 2801     		.2byte	0x128
 6807 0ce2 1A       		.uleb128 0x1a
 6808 0ce3 54170000 		.4byte	.LASF238
 6809 0ce7 0F       		.byte	0xf
 6810 0ce8 DF       		.byte	0xdf
 6811 0ce9 25000000 		.4byte	0x25
 6812 0ced 2C01     		.2byte	0x12c
 6813 0cef 1A       		.uleb128 0x1a
 6814 0cf0 3A170000 		.4byte	.LASF239
 6815 0cf4 0F       		.byte	0xf
 6816 0cf5 E0       		.byte	0xe0
 6817 0cf6 25000000 		.4byte	0x25
 6818 0cfa 3001     		.2byte	0x130
ARM GAS  /var/folders/sv/kgmgr77579zbf78p2zlhkdfr0000gn/T//ccMuP6SP.s 			page 121


 6819 0cfc 1A       		.uleb128 0x1a
 6820 0cfd 31170000 		.4byte	.LASF240
 6821 0d01 0F       		.byte	0xf
 6822 0d02 E1       		.byte	0xe1
 6823 0d03 25000000 		.4byte	0x25
 6824 0d07 3401     		.2byte	0x134
 6825 0d09 1A       		.uleb128 0x1a
 6826 0d0a 2C250000 		.4byte	.LASF241
 6827 0d0e 0F       		.byte	0xf
 6828 0d0f E2       		.byte	0xe2
 6829 0d10 25000000 		.4byte	0x25
 6830 0d14 3801     		.2byte	0x138
 6831 0d16 1A       		.uleb128 0x1a
 6832 0d17 22020000 		.4byte	.LASF242
 6833 0d1b 0F       		.byte	0xf
 6834 0d1c E4       		.byte	0xe4
 6835 0d1d 25000000 		.4byte	0x25
 6836 0d21 3C01     		.2byte	0x13c
 6837 0d23 1A       		.uleb128 0x1a
 6838 0d24 E30A0000 		.4byte	.LASF243
 6839 0d28 0F       		.byte	0xf
 6840 0d29 E5       		.byte	0xe5
 6841 0d2a 25000000 		.4byte	0x25
 6842 0d2e 4001     		.2byte	0x140
 6843 0d30 1A       		.uleb128 0x1a
 6844 0d31 B80F0000 		.4byte	.LASF244
 6845 0d35 0F       		.byte	0xf
 6846 0d36 E6       		.byte	0xe6
 6847 0d37 25000000 		.4byte	0x25
 6848 0d3b 4401     		.2byte	0x144
 6849 0d3d 1A       		.uleb128 0x1a
 6850 0d3e 04170000 		.4byte	.LASF245
 6851 0d42 0F       		.byte	0xf
 6852 0d43 E7       		.byte	0xe7
 6853 0d44 25000000 		.4byte	0x25
 6854 0d48 4801     		.2byte	0x148
 6855 0d4a 1A       		.uleb128 0x1a
 6856 0d4b 78060000 		.4byte	.LASF246
 6857 0d4f 0F       		.byte	0xf
 6858 0d50 E9       		.byte	0xe9
 6859 0d51 D5000000 		.4byte	0xd5
 6860 0d55 4C01     		.2byte	0x14c
 6861 0d57 1A       		.uleb128 0x1a
 6862 0d58 7B230000 		.4byte	.LASF247
 6863 0d5c 0F       		.byte	0xf
 6864 0d5d EA       		.byte	0xea
 6865 0d5e 25000000 		.4byte	0x25
 6866 0d62 5001     		.2byte	0x150
 6867 0d64 1A       		.uleb128 0x1a
 6868 0d65 0B0E0000 		.4byte	.LASF248
 6869 0d69 0F       		.byte	0xf
 6870 0d6a EB       		.byte	0xeb
 6871 0d6b 25000000 		.4byte	0x25
 6872 0d6f 5401     		.2byte	0x154
 6873 0d71 1A       		.uleb128 0x1a
 6874 0d72 EF260000 		.4byte	.LASF249
 6875 0d76 0F       		.byte	0xf
ARM GAS  /var/folders/sv/kgmgr77579zbf78p2zlhkdfr0000gn/T//ccMuP6SP.s 			page 122


 6876 0d77 EC       		.byte	0xec
 6877 0d78 E0000000 		.4byte	0xe0
 6878 0d7c 5801     		.2byte	0x158
 6879 0d7e 1A       		.uleb128 0x1a
 6880 0d7f 01080000 		.4byte	.LASF250
 6881 0d83 0F       		.byte	0xf
 6882 0d84 ED       		.byte	0xed
 6883 0d85 7F080000 		.4byte	0x87f
 6884 0d89 5C01     		.2byte	0x15c
 6885 0d8b 1A       		.uleb128 0x1a
 6886 0d8c 2D0E0000 		.4byte	.LASF251
 6887 0d90 0F       		.byte	0xf
 6888 0d91 EE       		.byte	0xee
 6889 0d92 E70D0000 		.4byte	0xde7
 6890 0d96 5D01     		.2byte	0x15d
 6891 0d98 1A       		.uleb128 0x1a
 6892 0d99 AD0A0000 		.4byte	.LASF252
 6893 0d9d 0F       		.byte	0xf
 6894 0d9e EF       		.byte	0xef
 6895 0d9f AF080000 		.4byte	0x8af
 6896 0da3 5E01     		.2byte	0x15e
 6897 0da5 1A       		.uleb128 0x1a
 6898 0da6 71010000 		.4byte	.LASF253
 6899 0daa 0F       		.byte	0xf
 6900 0dab F0       		.byte	0xf0
 6901 0dac 2C000000 		.4byte	0x2c
 6902 0db0 6001     		.2byte	0x160
 6903 0db2 1A       		.uleb128 0x1a
 6904 0db3 0B1F0000 		.4byte	.LASF254
 6905 0db7 0F       		.byte	0xf
 6906 0db8 F1       		.byte	0xf1
 6907 0db9 25000000 		.4byte	0x25
 6908 0dbd 6401     		.2byte	0x164
 6909 0dbf 1A       		.uleb128 0x1a
 6910 0dc0 A3170000 		.4byte	.LASF255
 6911 0dc4 0F       		.byte	0xf
 6912 0dc5 F2       		.byte	0xf2
 6913 0dc6 25000000 		.4byte	0x25
 6914 0dca 6801     		.2byte	0x168
 6915 0dcc 1A       		.uleb128 0x1a
 6916 0dcd E2210000 		.4byte	.LASF256
 6917 0dd1 0F       		.byte	0xf
 6918 0dd2 F3       		.byte	0xf3
 6919 0dd3 25000000 		.4byte	0x25
 6920 0dd7 6C01     		.2byte	0x16c
 6921 0dd9 1A       		.uleb128 0x1a
 6922 0dda 2C050000 		.4byte	.LASF257
 6923 0dde 0F       		.byte	0xf
 6924 0ddf F4       		.byte	0xf4
 6925 0de0 25000000 		.4byte	0x25
 6926 0de4 7001     		.2byte	0x170
 6927 0de6 00       		.byte	0
 6928 0de7 02       		.uleb128 0x2
 6929 0de8 01       		.byte	0x1
 6930 0de9 02       		.byte	0x2
 6931 0dea 3F010000 		.4byte	.LASF258
 6932 0dee 15       		.uleb128 0x15
ARM GAS  /var/folders/sv/kgmgr77579zbf78p2zlhkdfr0000gn/T//ccMuP6SP.s 			page 123


 6933 0def B4000000 		.4byte	0xb4
 6934 0df3 FE0D0000 		.4byte	0xdfe
 6935 0df7 16       		.uleb128 0x16
 6936 0df8 A7040000 		.4byte	0x4a7
 6937 0dfc 07       		.byte	0x7
 6938 0dfd 00       		.byte	0
 6939 0dfe 15       		.uleb128 0x15
 6940 0dff BF000000 		.4byte	0xbf
 6941 0e03 0E0E0000 		.4byte	0xe0e
 6942 0e07 16       		.uleb128 0x16
 6943 0e08 A7040000 		.4byte	0x4a7
 6944 0e0c 07       		.byte	0x7
 6945 0e0d 00       		.byte	0
 6946 0e0e 04       		.uleb128 0x4
 6947 0e0f 8C230000 		.4byte	.LASF259
 6948 0e13 0F       		.byte	0xf
 6949 0e14 F5       		.byte	0xf5
 6950 0e15 32090000 		.4byte	0x932
 6951 0e19 17       		.uleb128 0x17
 6952 0e1a 01       		.byte	0x1
 6953 0e1b 50000000 		.4byte	0x50
 6954 0e1f 0F       		.byte	0xf
 6955 0e20 F8       		.byte	0xf8
 6956 0e21 5C0E0000 		.4byte	0xe5c
 6957 0e25 18       		.uleb128 0x18
 6958 0e26 85170000 		.4byte	.LASF260
 6959 0e2a 00       		.byte	0
 6960 0e2b 18       		.uleb128 0x18
 6961 0e2c 670C0000 		.4byte	.LASF261
 6962 0e30 01       		.byte	0x1
 6963 0e31 18       		.uleb128 0x18
 6964 0e32 56190000 		.4byte	.LASF262
 6965 0e36 02       		.byte	0x2
 6966 0e37 18       		.uleb128 0x18
 6967 0e38 FA1B0000 		.4byte	.LASF263
 6968 0e3c 03       		.byte	0x3
 6969 0e3d 18       		.uleb128 0x18
 6970 0e3e AA180000 		.4byte	.LASF264
 6971 0e42 04       		.byte	0x4
 6972 0e43 18       		.uleb128 0x18
 6973 0e44 281C0000 		.4byte	.LASF265
 6974 0e48 05       		.byte	0x5
 6975 0e49 18       		.uleb128 0x18
 6976 0e4a 060C0000 		.4byte	.LASF266
 6977 0e4e 06       		.byte	0x6
 6978 0e4f 18       		.uleb128 0x18
 6979 0e50 42060000 		.4byte	.LASF267
 6980 0e54 07       		.byte	0x7
 6981 0e55 18       		.uleb128 0x18
 6982 0e56 211B0000 		.4byte	.LASF268
 6983 0e5a 08       		.byte	0x8
 6984 0e5b 00       		.byte	0
 6985 0e5c 1B       		.uleb128 0x1b
 6986 0e5d 66040000 		.4byte	.LASF269
 6987 0e61 0F       		.byte	0xf
 6988 0e62 0201     		.2byte	0x102
 6989 0e64 190E0000 		.4byte	0xe19
ARM GAS  /var/folders/sv/kgmgr77579zbf78p2zlhkdfr0000gn/T//ccMuP6SP.s 			page 124


 6990 0e68 1C       		.uleb128 0x1c
 6991 0e69 01       		.byte	0x1
 6992 0e6a 50000000 		.4byte	0x50
 6993 0e6e 0F       		.byte	0xf
 6994 0e6f 0501     		.2byte	0x105
 6995 0e71 880E0000 		.4byte	0xe88
 6996 0e75 18       		.uleb128 0x18
 6997 0e76 14120000 		.4byte	.LASF270
 6998 0e7a 00       		.byte	0
 6999 0e7b 18       		.uleb128 0x18
 7000 0e7c C3070000 		.4byte	.LASF271
 7001 0e80 01       		.byte	0x1
 7002 0e81 18       		.uleb128 0x18
 7003 0e82 76220000 		.4byte	.LASF272
 7004 0e86 02       		.byte	0x2
 7005 0e87 00       		.byte	0
 7006 0e88 1B       		.uleb128 0x1b
 7007 0e89 FF120000 		.4byte	.LASF273
 7008 0e8d 0F       		.byte	0xf
 7009 0e8e 0901     		.2byte	0x109
 7010 0e90 680E0000 		.4byte	0xe68
 7011 0e94 1C       		.uleb128 0x1c
 7012 0e95 01       		.byte	0x1
 7013 0e96 50000000 		.4byte	0x50
 7014 0e9a 0F       		.byte	0xf
 7015 0e9b 0C01     		.2byte	0x10c
 7016 0e9d D20E0000 		.4byte	0xed2
 7017 0ea1 18       		.uleb128 0x18
 7018 0ea2 51000000 		.4byte	.LASF274
 7019 0ea6 00       		.byte	0
 7020 0ea7 18       		.uleb128 0x18
 7021 0ea8 37110000 		.4byte	.LASF275
 7022 0eac 01       		.byte	0x1
 7023 0ead 18       		.uleb128 0x18
 7024 0eae C4250000 		.4byte	.LASF276
 7025 0eb2 02       		.byte	0x2
 7026 0eb3 18       		.uleb128 0x18
 7027 0eb4 42140000 		.4byte	.LASF277
 7028 0eb8 03       		.byte	0x3
 7029 0eb9 18       		.uleb128 0x18
 7030 0eba CF210000 		.4byte	.LASF278
 7031 0ebe 04       		.byte	0x4
 7032 0ebf 18       		.uleb128 0x18
 7033 0ec0 D01F0000 		.4byte	.LASF279
 7034 0ec4 05       		.byte	0x5
 7035 0ec5 18       		.uleb128 0x18
 7036 0ec6 96150000 		.4byte	.LASF280
 7037 0eca 06       		.byte	0x6
 7038 0ecb 18       		.uleb128 0x18
 7039 0ecc FB050000 		.4byte	.LASF281
 7040 0ed0 07       		.byte	0x7
 7041 0ed1 00       		.byte	0
 7042 0ed2 1B       		.uleb128 0x1b
 7043 0ed3 E10C0000 		.4byte	.LASF282
 7044 0ed7 0F       		.byte	0xf
 7045 0ed8 1501     		.2byte	0x115
 7046 0eda 940E0000 		.4byte	0xe94
ARM GAS  /var/folders/sv/kgmgr77579zbf78p2zlhkdfr0000gn/T//ccMuP6SP.s 			page 125


 7047 0ede 1D       		.uleb128 0x1d
 7048 0edf 38       		.byte	0x38
 7049 0ee0 0F       		.byte	0xf
 7050 0ee1 1701     		.2byte	0x117
 7051 0ee3 B70F0000 		.4byte	0xfb7
 7052 0ee7 09       		.uleb128 0x9
 7053 0ee8 23000000 		.4byte	.LASF283
 7054 0eec 0F       		.byte	0xf
 7055 0eed 1801     		.2byte	0x118
 7056 0eef D20E0000 		.4byte	0xed2
 7057 0ef3 00       		.byte	0
 7058 0ef4 09       		.uleb128 0x9
 7059 0ef5 31240000 		.4byte	.LASF284
 7060 0ef9 0F       		.byte	0xf
 7061 0efa 1901     		.2byte	0x119
 7062 0efc 25000000 		.4byte	0x25
 7063 0f00 04       		.byte	0x4
 7064 0f01 09       		.uleb128 0x9
 7065 0f02 3A010000 		.4byte	.LASF285
 7066 0f06 0F       		.byte	0xf
 7067 0f07 1A01     		.2byte	0x11a
 7068 0f09 25000000 		.4byte	0x25
 7069 0f0d 08       		.byte	0x8
 7070 0f0e 09       		.uleb128 0x9
 7071 0f0f 89250000 		.4byte	.LASF286
 7072 0f13 0F       		.byte	0xf
 7073 0f14 1B01     		.2byte	0x11b
 7074 0f16 25000000 		.4byte	0x25
 7075 0f1a 0C       		.byte	0xc
 7076 0f1b 09       		.uleb128 0x9
 7077 0f1c F20A0000 		.4byte	.LASF287
 7078 0f20 0F       		.byte	0xf
 7079 0f21 1C01     		.2byte	0x11c
 7080 0f23 25000000 		.4byte	0x25
 7081 0f27 10       		.byte	0x10
 7082 0f28 09       		.uleb128 0x9
 7083 0f29 2B120000 		.4byte	.LASF288
 7084 0f2d 0F       		.byte	0xf
 7085 0f2e 1D01     		.2byte	0x11d
 7086 0f30 25000000 		.4byte	0x25
 7087 0f34 14       		.byte	0x14
 7088 0f35 09       		.uleb128 0x9
 7089 0f36 D3070000 		.4byte	.LASF289
 7090 0f3a 0F       		.byte	0xf
 7091 0f3b 1E01     		.2byte	0x11e
 7092 0f3d E70D0000 		.4byte	0xde7
 7093 0f41 18       		.byte	0x18
 7094 0f42 09       		.uleb128 0x9
 7095 0f43 781F0000 		.4byte	.LASF290
 7096 0f47 0F       		.byte	0xf
 7097 0f48 1F01     		.2byte	0x11f
 7098 0f4a E70D0000 		.4byte	0xde7
 7099 0f4e 19       		.byte	0x19
 7100 0f4f 09       		.uleb128 0x9
 7101 0f50 89150000 		.4byte	.LASF291
 7102 0f54 0F       		.byte	0xf
 7103 0f55 2001     		.2byte	0x120
ARM GAS  /var/folders/sv/kgmgr77579zbf78p2zlhkdfr0000gn/T//ccMuP6SP.s 			page 126


 7104 0f57 25000000 		.4byte	0x25
 7105 0f5b 1C       		.byte	0x1c
 7106 0f5c 09       		.uleb128 0x9
 7107 0f5d 6F1A0000 		.4byte	.LASF292
 7108 0f61 0F       		.byte	0xf
 7109 0f62 2101     		.2byte	0x121
 7110 0f64 25000000 		.4byte	0x25
 7111 0f68 20       		.byte	0x20
 7112 0f69 09       		.uleb128 0x9
 7113 0f6a 84050000 		.4byte	.LASF293
 7114 0f6e 0F       		.byte	0xf
 7115 0f6f 2201     		.2byte	0x122
 7116 0f71 880E0000 		.4byte	0xe88
 7117 0f75 24       		.byte	0x24
 7118 0f76 09       		.uleb128 0x9
 7119 0f77 68180000 		.4byte	.LASF294
 7120 0f7b 0F       		.byte	0xf
 7121 0f7c 2301     		.2byte	0x123
 7122 0f7e 25000000 		.4byte	0x25
 7123 0f82 28       		.byte	0x28
 7124 0f83 09       		.uleb128 0x9
 7125 0f84 2B0A0000 		.4byte	.LASF295
 7126 0f88 0F       		.byte	0xf
 7127 0f89 2401     		.2byte	0x124
 7128 0f8b 25000000 		.4byte	0x25
 7129 0f8f 2C       		.byte	0x2c
 7130 0f90 09       		.uleb128 0x9
 7131 0f91 C9020000 		.4byte	.LASF296
 7132 0f95 0F       		.byte	0xf
 7133 0f96 2501     		.2byte	0x125
 7134 0f98 E70D0000 		.4byte	0xde7
 7135 0f9c 30       		.byte	0x30
 7136 0f9d 08       		.uleb128 0x8
 7137 0f9e 746300   		.ascii	"tc\000"
 7138 0fa1 0F       		.byte	0xf
 7139 0fa2 2601     		.2byte	0x126
 7140 0fa4 E70D0000 		.4byte	0xde7
 7141 0fa8 31       		.byte	0x31
 7142 0fa9 09       		.uleb128 0x9
 7143 0faa E2040000 		.4byte	.LASF297
 7144 0fae 0F       		.byte	0xf
 7145 0faf 2701     		.2byte	0x127
 7146 0fb1 25000000 		.4byte	0x25
 7147 0fb5 34       		.byte	0x34
 7148 0fb6 00       		.byte	0
 7149 0fb7 1B       		.uleb128 0x1b
 7150 0fb8 E2050000 		.4byte	.LASF298
 7151 0fbc 0F       		.byte	0xf
 7152 0fbd 2801     		.2byte	0x128
 7153 0fbf DE0E0000 		.4byte	0xede
 7154 0fc3 1C       		.uleb128 0x1c
 7155 0fc4 01       		.byte	0x1
 7156 0fc5 50000000 		.4byte	0x50
 7157 0fc9 0F       		.byte	0xf
 7158 0fca 2B01     		.2byte	0x12b
 7159 0fcc 25100000 		.4byte	0x1025
 7160 0fd0 18       		.uleb128 0x18
ARM GAS  /var/folders/sv/kgmgr77579zbf78p2zlhkdfr0000gn/T//ccMuP6SP.s 			page 127


 7161 0fd1 D41E0000 		.4byte	.LASF299
 7162 0fd5 00       		.byte	0
 7163 0fd6 18       		.uleb128 0x18
 7164 0fd7 C1230000 		.4byte	.LASF300
 7165 0fdb 01       		.byte	0x1
 7166 0fdc 18       		.uleb128 0x18
 7167 0fdd 3C0B0000 		.4byte	.LASF301
 7168 0fe1 02       		.byte	0x2
 7169 0fe2 18       		.uleb128 0x18
 7170 0fe3 E3090000 		.4byte	.LASF302
 7171 0fe7 03       		.byte	0x3
 7172 0fe8 18       		.uleb128 0x18
 7173 0fe9 110B0000 		.4byte	.LASF303
 7174 0fed 04       		.byte	0x4
 7175 0fee 18       		.uleb128 0x18
 7176 0fef 490F0000 		.4byte	.LASF304
 7177 0ff3 05       		.byte	0x5
 7178 0ff4 18       		.uleb128 0x18
 7179 0ff5 DB020000 		.4byte	.LASF305
 7180 0ff9 06       		.byte	0x6
 7181 0ffa 18       		.uleb128 0x18
 7182 0ffb 32260000 		.4byte	.LASF306
 7183 0fff 07       		.byte	0x7
 7184 1000 18       		.uleb128 0x18
 7185 1001 DF160000 		.4byte	.LASF307
 7186 1005 08       		.byte	0x8
 7187 1006 18       		.uleb128 0x18
 7188 1007 C30C0000 		.4byte	.LASF308
 7189 100b 09       		.byte	0x9
 7190 100c 18       		.uleb128 0x18
 7191 100d FA0F0000 		.4byte	.LASF309
 7192 1011 0A       		.byte	0xa
 7193 1012 18       		.uleb128 0x18
 7194 1013 57240000 		.4byte	.LASF310
 7195 1017 0B       		.byte	0xb
 7196 1018 18       		.uleb128 0x18
 7197 1019 43220000 		.4byte	.LASF311
 7198 101d 0C       		.byte	0xc
 7199 101e 18       		.uleb128 0x18
 7200 101f 49120000 		.4byte	.LASF312
 7201 1023 0D       		.byte	0xd
 7202 1024 00       		.byte	0
 7203 1025 1B       		.uleb128 0x1b
 7204 1026 C9190000 		.4byte	.LASF313
 7205 102a 0F       		.byte	0xf
 7206 102b 3A01     		.2byte	0x13a
 7207 102d C30F0000 		.4byte	0xfc3
 7208 1031 1D       		.uleb128 0x1d
 7209 1032 44       		.byte	0x44
 7210 1033 0F       		.byte	0xf
 7211 1034 3C01     		.2byte	0x13c
 7212 1036 58110000 		.4byte	0x1158
 7213 103a 09       		.uleb128 0x9
 7214 103b 23000000 		.4byte	.LASF283
 7215 103f 0F       		.byte	0xf
 7216 1040 3D01     		.2byte	0x13d
 7217 1042 25100000 		.4byte	0x1025
ARM GAS  /var/folders/sv/kgmgr77579zbf78p2zlhkdfr0000gn/T//ccMuP6SP.s 			page 128


 7218 1046 00       		.byte	0
 7219 1047 09       		.uleb128 0x9
 7220 1048 3A010000 		.4byte	.LASF285
 7221 104c 0F       		.byte	0xf
 7222 104d 3E01     		.2byte	0x13e
 7223 104f 25000000 		.4byte	0x25
 7224 1053 04       		.byte	0x4
 7225 1054 09       		.uleb128 0x9
 7226 1055 13060000 		.4byte	.LASF314
 7227 1059 0F       		.byte	0xf
 7228 105a 3F01     		.2byte	0x13f
 7229 105c 25000000 		.4byte	0x25
 7230 1060 08       		.byte	0x8
 7231 1061 09       		.uleb128 0x9
 7232 1062 D1170000 		.4byte	.LASF315
 7233 1066 0F       		.byte	0xf
 7234 1067 4001     		.2byte	0x140
 7235 1069 25000000 		.4byte	0x25
 7236 106d 0C       		.byte	0xc
 7237 106e 09       		.uleb128 0x9
 7238 106f 981F0000 		.4byte	.LASF316
 7239 1073 0F       		.byte	0xf
 7240 1074 4101     		.2byte	0x141
 7241 1076 25000000 		.4byte	0x25
 7242 107a 10       		.byte	0x10
 7243 107b 09       		.uleb128 0x9
 7244 107c BB050000 		.4byte	.LASF317
 7245 1080 0F       		.byte	0xf
 7246 1081 4201     		.2byte	0x142
 7247 1083 25000000 		.4byte	0x25
 7248 1087 14       		.byte	0x14
 7249 1088 09       		.uleb128 0x9
 7250 1089 D2160000 		.4byte	.LASF318
 7251 108d 0F       		.byte	0xf
 7252 108e 4301     		.2byte	0x143
 7253 1090 25000000 		.4byte	0x25
 7254 1094 18       		.byte	0x18
 7255 1095 09       		.uleb128 0x9
 7256 1096 5C230000 		.4byte	.LASF319
 7257 109a 0F       		.byte	0xf
 7258 109b 4401     		.2byte	0x144
 7259 109d E70D0000 		.4byte	0xde7
 7260 10a1 1C       		.byte	0x1c
 7261 10a2 09       		.uleb128 0x9
 7262 10a3 781F0000 		.4byte	.LASF290
 7263 10a7 0F       		.byte	0xf
 7264 10a8 4501     		.2byte	0x145
 7265 10aa E70D0000 		.4byte	0xde7
 7266 10ae 1D       		.byte	0x1d
 7267 10af 09       		.uleb128 0x9
 7268 10b0 45010000 		.4byte	.LASF320
 7269 10b4 0F       		.byte	0xf
 7270 10b5 4601     		.2byte	0x146
 7271 10b7 E70D0000 		.4byte	0xde7
 7272 10bb 1E       		.byte	0x1e
 7273 10bc 09       		.uleb128 0x9
 7274 10bd 5E1C0000 		.4byte	.LASF321
ARM GAS  /var/folders/sv/kgmgr77579zbf78p2zlhkdfr0000gn/T//ccMuP6SP.s 			page 129


 7275 10c1 0F       		.byte	0xf
 7276 10c2 4701     		.2byte	0x147
 7277 10c4 E70D0000 		.4byte	0xde7
 7278 10c8 1F       		.byte	0x1f
 7279 10c9 09       		.uleb128 0x9
 7280 10ca 82010000 		.4byte	.LASF322
 7281 10ce 0F       		.byte	0xf
 7282 10cf 4801     		.2byte	0x148
 7283 10d1 E70D0000 		.4byte	0xde7
 7284 10d5 20       		.byte	0x20
 7285 10d6 09       		.uleb128 0x9
 7286 10d7 23080000 		.4byte	.LASF323
 7287 10db 0F       		.byte	0xf
 7288 10dc 4901     		.2byte	0x149
 7289 10de E70D0000 		.4byte	0xde7
 7290 10e2 21       		.byte	0x21
 7291 10e3 09       		.uleb128 0x9
 7292 10e4 89150000 		.4byte	.LASF291
 7293 10e8 0F       		.byte	0xf
 7294 10e9 4A01     		.2byte	0x14a
 7295 10eb 25000000 		.4byte	0x25
 7296 10ef 24       		.byte	0x24
 7297 10f0 09       		.uleb128 0x9
 7298 10f1 6F1A0000 		.4byte	.LASF292
 7299 10f5 0F       		.byte	0xf
 7300 10f6 4B01     		.2byte	0x14b
 7301 10f8 25000000 		.4byte	0x25
 7302 10fc 28       		.byte	0x28
 7303 10fd 09       		.uleb128 0x9
 7304 10fe 84050000 		.4byte	.LASF293
 7305 1102 0F       		.byte	0xf
 7306 1103 4C01     		.2byte	0x14c
 7307 1105 880E0000 		.4byte	0xe88
 7308 1109 2C       		.byte	0x2c
 7309 110a 09       		.uleb128 0x9
 7310 110b 68180000 		.4byte	.LASF294
 7311 110f 0F       		.byte	0xf
 7312 1110 4D01     		.2byte	0x14d
 7313 1112 25000000 		.4byte	0x25
 7314 1116 30       		.byte	0x30
 7315 1117 09       		.uleb128 0x9
 7316 1118 2B0A0000 		.4byte	.LASF295
 7317 111c 0F       		.byte	0xf
 7318 111d 4E01     		.2byte	0x14e
 7319 111f 25000000 		.4byte	0x25
 7320 1123 34       		.byte	0x34
 7321 1124 09       		.uleb128 0x9
 7322 1125 C9020000 		.4byte	.LASF296
 7323 1129 0F       		.byte	0xf
 7324 112a 4F01     		.2byte	0x14f
 7325 112c E70D0000 		.4byte	0xde7
 7326 1130 38       		.byte	0x38
 7327 1131 08       		.uleb128 0x8
 7328 1132 746300   		.ascii	"tc\000"
 7329 1135 0F       		.byte	0xf
 7330 1136 5001     		.2byte	0x150
 7331 1138 E70D0000 		.4byte	0xde7
ARM GAS  /var/folders/sv/kgmgr77579zbf78p2zlhkdfr0000gn/T//ccMuP6SP.s 			page 130


 7332 113c 39       		.byte	0x39
 7333 113d 09       		.uleb128 0x9
 7334 113e E2040000 		.4byte	.LASF297
 7335 1142 0F       		.byte	0xf
 7336 1143 5101     		.2byte	0x151
 7337 1145 25000000 		.4byte	0x25
 7338 1149 3C       		.byte	0x3c
 7339 114a 09       		.uleb128 0x9
 7340 114b 58080000 		.4byte	.LASF324
 7341 114f 0F       		.byte	0xf
 7342 1150 5201     		.2byte	0x152
 7343 1152 E0000000 		.4byte	0xe0
 7344 1156 40       		.byte	0x40
 7345 1157 00       		.byte	0
 7346 1158 1B       		.uleb128 0x1b
 7347 1159 67060000 		.4byte	.LASF325
 7348 115d 0F       		.byte	0xf
 7349 115e 5301     		.2byte	0x153
 7350 1160 31100000 		.4byte	0x1031
 7351 1164 1C       		.uleb128 0x1c
 7352 1165 01       		.byte	0x1
 7353 1166 50000000 		.4byte	0x50
 7354 116a 0F       		.byte	0xf
 7355 116b 5601     		.2byte	0x156
 7356 116d 84110000 		.4byte	0x1184
 7357 1171 18       		.uleb128 0x18
 7358 1172 81140000 		.4byte	.LASF326
 7359 1176 00       		.byte	0
 7360 1177 18       		.uleb128 0x18
 7361 1178 00000000 		.4byte	.LASF327
 7362 117c 01       		.byte	0x1
 7363 117d 18       		.uleb128 0x18
 7364 117e 64140000 		.4byte	.LASF328
 7365 1182 02       		.byte	0x2
 7366 1183 00       		.byte	0
 7367 1184 1B       		.uleb128 0x1b
 7368 1185 F0140000 		.4byte	.LASF329
 7369 1189 0F       		.byte	0xf
 7370 118a 5A01     		.2byte	0x15a
 7371 118c 64110000 		.4byte	0x1164
 7372 1190 1D       		.uleb128 0x1d
 7373 1191 24       		.byte	0x24
 7374 1192 0F       		.byte	0xf
 7375 1193 5C01     		.2byte	0x15c
 7376 1195 28120000 		.4byte	0x1228
 7377 1199 09       		.uleb128 0x9
 7378 119a 23000000 		.4byte	.LASF283
 7379 119e 0F       		.byte	0xf
 7380 119f 5D01     		.2byte	0x15d
 7381 11a1 84110000 		.4byte	0x1184
 7382 11a5 00       		.byte	0
 7383 11a6 09       		.uleb128 0x9
 7384 11a7 3A010000 		.4byte	.LASF285
 7385 11ab 0F       		.byte	0xf
 7386 11ac 5E01     		.2byte	0x15e
 7387 11ae 25000000 		.4byte	0x25
 7388 11b2 04       		.byte	0x4
ARM GAS  /var/folders/sv/kgmgr77579zbf78p2zlhkdfr0000gn/T//ccMuP6SP.s 			page 131


 7389 11b3 09       		.uleb128 0x9
 7390 11b4 68180000 		.4byte	.LASF294
 7391 11b8 0F       		.byte	0xf
 7392 11b9 5F01     		.2byte	0x15f
 7393 11bb 25000000 		.4byte	0x25
 7394 11bf 08       		.byte	0x8
 7395 11c0 09       		.uleb128 0x9
 7396 11c1 2B0A0000 		.4byte	.LASF295
 7397 11c5 0F       		.byte	0xf
 7398 11c6 6001     		.2byte	0x160
 7399 11c8 25000000 		.4byte	0x25
 7400 11cc 0C       		.byte	0xc
 7401 11cd 09       		.uleb128 0x9
 7402 11ce 98080000 		.4byte	.LASF330
 7403 11d2 0F       		.byte	0xf
 7404 11d3 6101     		.2byte	0x161
 7405 11d5 25000000 		.4byte	0x25
 7406 11d9 10       		.byte	0x10
 7407 11da 09       		.uleb128 0x9
 7408 11db 89150000 		.4byte	.LASF291
 7409 11df 0F       		.byte	0xf
 7410 11e0 6201     		.2byte	0x162
 7411 11e2 25000000 		.4byte	0x25
 7412 11e6 14       		.byte	0x14
 7413 11e7 09       		.uleb128 0x9
 7414 11e8 6F1A0000 		.4byte	.LASF292
 7415 11ec 0F       		.byte	0xf
 7416 11ed 6301     		.2byte	0x163
 7417 11ef 25000000 		.4byte	0x25
 7418 11f3 18       		.byte	0x18
 7419 11f4 09       		.uleb128 0x9
 7420 11f5 84050000 		.4byte	.LASF293
 7421 11f9 0F       		.byte	0xf
 7422 11fa 6401     		.2byte	0x164
 7423 11fc 880E0000 		.4byte	0xe88
 7424 1200 1C       		.byte	0x1c
 7425 1201 09       		.uleb128 0x9
 7426 1202 C9020000 		.4byte	.LASF296
 7427 1206 0F       		.byte	0xf
 7428 1207 6501     		.2byte	0x165
 7429 1209 E70D0000 		.4byte	0xde7
 7430 120d 1D       		.byte	0x1d
 7431 120e 08       		.uleb128 0x8
 7432 120f 746300   		.ascii	"tc\000"
 7433 1212 0F       		.byte	0xf
 7434 1213 6601     		.2byte	0x166
 7435 1215 E70D0000 		.4byte	0xde7
 7436 1219 1E       		.byte	0x1e
 7437 121a 09       		.uleb128 0x9
 7438 121b E2040000 		.4byte	.LASF297
 7439 121f 0F       		.byte	0xf
 7440 1220 6701     		.2byte	0x167
 7441 1222 25000000 		.4byte	0x25
 7442 1226 20       		.byte	0x20
 7443 1227 00       		.byte	0
 7444 1228 1B       		.uleb128 0x1b
 7445 1229 C81E0000 		.4byte	.LASF331
ARM GAS  /var/folders/sv/kgmgr77579zbf78p2zlhkdfr0000gn/T//ccMuP6SP.s 			page 132


 7446 122d 0F       		.byte	0xf
 7447 122e 6801     		.2byte	0x168
 7448 1230 90110000 		.4byte	0x1190
 7449 1234 1C       		.uleb128 0x1c
 7450 1235 01       		.byte	0x1
 7451 1236 50000000 		.4byte	0x50
 7452 123a 0F       		.byte	0xf
 7453 123b 6B01     		.2byte	0x16b
 7454 123d 54120000 		.4byte	0x1254
 7455 1241 18       		.uleb128 0x18
 7456 1242 26140000 		.4byte	.LASF332
 7457 1246 00       		.byte	0
 7458 1247 18       		.uleb128 0x18
 7459 1248 971A0000 		.4byte	.LASF333
 7460 124c 01       		.byte	0x1
 7461 124d 18       		.uleb128 0x18
 7462 124e D41B0000 		.4byte	.LASF334
 7463 1252 02       		.byte	0x2
 7464 1253 00       		.byte	0
 7465 1254 1B       		.uleb128 0x1b
 7466 1255 210A0000 		.4byte	.LASF335
 7467 1259 0F       		.byte	0xf
 7468 125a 6F01     		.2byte	0x16f
 7469 125c 34120000 		.4byte	0x1234
 7470 1260 1C       		.uleb128 0x1c
 7471 1261 01       		.byte	0x1
 7472 1262 50000000 		.4byte	0x50
 7473 1266 0F       		.byte	0xf
 7474 1267 7101     		.2byte	0x171
 7475 1269 8C120000 		.4byte	0x128c
 7476 126d 18       		.uleb128 0x18
 7477 126e D9010000 		.4byte	.LASF336
 7478 1272 00       		.byte	0
 7479 1273 18       		.uleb128 0x18
 7480 1274 0A050000 		.4byte	.LASF337
 7481 1278 01       		.byte	0x1
 7482 1279 18       		.uleb128 0x18
 7483 127a 95070000 		.4byte	.LASF338
 7484 127e 02       		.byte	0x2
 7485 127f 18       		.uleb128 0x18
 7486 1280 19030000 		.4byte	.LASF339
 7487 1284 03       		.byte	0x3
 7488 1285 18       		.uleb128 0x18
 7489 1286 BA0D0000 		.4byte	.LASF340
 7490 128a 04       		.byte	0x4
 7491 128b 00       		.byte	0
 7492 128c 1B       		.uleb128 0x1b
 7493 128d 6F160000 		.4byte	.LASF341
 7494 1291 0F       		.byte	0xf
 7495 1292 7701     		.2byte	0x177
 7496 1294 60120000 		.4byte	0x1260
 7497 1298 1C       		.uleb128 0x1c
 7498 1299 01       		.byte	0x1
 7499 129a 50000000 		.4byte	0x50
 7500 129e 0F       		.byte	0xf
 7501 129f 7F01     		.2byte	0x17f
 7502 12a1 B8120000 		.4byte	0x12b8
ARM GAS  /var/folders/sv/kgmgr77579zbf78p2zlhkdfr0000gn/T//ccMuP6SP.s 			page 133


 7503 12a5 18       		.uleb128 0x18
 7504 12a6 43170000 		.4byte	.LASF342
 7505 12aa 00       		.byte	0
 7506 12ab 18       		.uleb128 0x18
 7507 12ac E2230000 		.4byte	.LASF343
 7508 12b0 01       		.byte	0x1
 7509 12b1 18       		.uleb128 0x18
 7510 12b2 A2240000 		.4byte	.LASF344
 7511 12b6 02       		.byte	0x2
 7512 12b7 00       		.byte	0
 7513 12b8 1B       		.uleb128 0x1b
 7514 12b9 AB050000 		.4byte	.LASF345
 7515 12bd 0F       		.byte	0xf
 7516 12be 8301     		.2byte	0x183
 7517 12c0 98120000 		.4byte	0x1298
 7518 12c4 1C       		.uleb128 0x1c
 7519 12c5 01       		.byte	0x1
 7520 12c6 50000000 		.4byte	0x50
 7521 12ca 0F       		.byte	0xf
 7522 12cb 8501     		.2byte	0x185
 7523 12cd 32130000 		.4byte	0x1332
 7524 12d1 18       		.uleb128 0x18
 7525 12d2 A7130000 		.4byte	.LASF346
 7526 12d6 00       		.byte	0
 7527 12d7 18       		.uleb128 0x18
 7528 12d8 04030000 		.4byte	.LASF347
 7529 12dc 01       		.byte	0x1
 7530 12dd 18       		.uleb128 0x18
 7531 12de 08010000 		.4byte	.LASF348
 7532 12e2 02       		.byte	0x2
 7533 12e3 18       		.uleb128 0x18
 7534 12e4 2A230000 		.4byte	.LASF349
 7535 12e8 03       		.byte	0x3
 7536 12e9 18       		.uleb128 0x18
 7537 12ea BF240000 		.4byte	.LASF350
 7538 12ee 04       		.byte	0x4
 7539 12ef 18       		.uleb128 0x18
 7540 12f0 C00F0000 		.4byte	.LASF351
 7541 12f4 05       		.byte	0x5
 7542 12f5 18       		.uleb128 0x18
 7543 12f6 01110000 		.4byte	.LASF352
 7544 12fa 06       		.byte	0x6
 7545 12fb 18       		.uleb128 0x18
 7546 12fc 28220000 		.4byte	.LASF353
 7547 1300 07       		.byte	0x7
 7548 1301 18       		.uleb128 0x18
 7549 1302 02240000 		.4byte	.LASF354
 7550 1306 08       		.byte	0x8
 7551 1307 18       		.uleb128 0x18
 7552 1308 440D0000 		.4byte	.LASF355
 7553 130c 09       		.byte	0x9
 7554 130d 18       		.uleb128 0x18
 7555 130e 8B100000 		.4byte	.LASF356
 7556 1312 0A       		.byte	0xa
 7557 1313 18       		.uleb128 0x18
 7558 1314 86210000 		.4byte	.LASF357
 7559 1318 0B       		.byte	0xb
ARM GAS  /var/folders/sv/kgmgr77579zbf78p2zlhkdfr0000gn/T//ccMuP6SP.s 			page 134


 7560 1319 18       		.uleb128 0x18
 7561 131a 9D230000 		.4byte	.LASF358
 7562 131e 0C       		.byte	0xc
 7563 131f 18       		.uleb128 0x18
 7564 1320 FA0E0000 		.4byte	.LASF359
 7565 1324 0D       		.byte	0xd
 7566 1325 18       		.uleb128 0x18
 7567 1326 80180000 		.4byte	.LASF360
 7568 132a 0E       		.byte	0xe
 7569 132b 18       		.uleb128 0x18
 7570 132c E9080000 		.4byte	.LASF361
 7571 1330 0F       		.byte	0xf
 7572 1331 00       		.byte	0
 7573 1332 1B       		.uleb128 0x1b
 7574 1333 A3030000 		.4byte	.LASF362
 7575 1337 0F       		.byte	0xf
 7576 1338 9601     		.2byte	0x196
 7577 133a C4120000 		.4byte	0x12c4
 7578 133e 1D       		.uleb128 0x1d
 7579 133f 0A       		.byte	0xa
 7580 1340 0F       		.byte	0xf
 7581 1341 9801     		.2byte	0x198
 7582 1343 B0130000 		.4byte	0x13b0
 7583 1347 09       		.uleb128 0x9
 7584 1348 2F1D0000 		.4byte	.LASF363
 7585 134c 0F       		.byte	0xf
 7586 134d 9901     		.2byte	0x199
 7587 134f 54120000 		.4byte	0x1254
 7588 1353 00       		.byte	0
 7589 1354 09       		.uleb128 0x9
 7590 1355 7F170000 		.4byte	.LASF364
 7591 1359 0F       		.byte	0xf
 7592 135a 9A01     		.2byte	0x19a
 7593 135c 8C120000 		.4byte	0x128c
 7594 1360 01       		.byte	0x1
 7595 1361 09       		.uleb128 0x9
 7596 1362 BB140000 		.4byte	.LASF365
 7597 1366 0F       		.byte	0xf
 7598 1367 9B01     		.2byte	0x19b
 7599 1369 B8120000 		.4byte	0x12b8
 7600 136d 02       		.byte	0x2
 7601 136e 09       		.uleb128 0x9
 7602 136f 72240000 		.4byte	.LASF366
 7603 1373 0F       		.byte	0xf
 7604 1374 9C01     		.2byte	0x19c
 7605 1376 32130000 		.4byte	0x1332
 7606 137a 03       		.byte	0x3
 7607 137b 09       		.uleb128 0x9
 7608 137c D3020000 		.4byte	.LASF367
 7609 1380 0F       		.byte	0xf
 7610 1381 9D01     		.2byte	0x19d
 7611 1383 50000000 		.4byte	0x50
 7612 1387 04       		.byte	0x4
 7613 1388 09       		.uleb128 0x9
 7614 1389 910F0000 		.4byte	.LASF368
 7615 138d 0F       		.byte	0xf
 7616 138e 9E01     		.2byte	0x19e
ARM GAS  /var/folders/sv/kgmgr77579zbf78p2zlhkdfr0000gn/T//ccMuP6SP.s 			page 135


 7617 1390 50000000 		.4byte	0x50
 7618 1394 05       		.byte	0x5
 7619 1395 09       		.uleb128 0x9
 7620 1396 2A0F0000 		.4byte	.LASF369
 7621 139a 0F       		.byte	0xf
 7622 139b 9F01     		.2byte	0x19f
 7623 139d B0130000 		.4byte	0x13b0
 7624 13a1 06       		.byte	0x6
 7625 13a2 09       		.uleb128 0x9
 7626 13a3 500C0000 		.4byte	.LASF370
 7627 13a7 0F       		.byte	0xf
 7628 13a8 A001     		.2byte	0x1a0
 7629 13aa E70D0000 		.4byte	0xde7
 7630 13ae 09       		.byte	0x9
 7631 13af 00       		.byte	0
 7632 13b0 15       		.uleb128 0x15
 7633 13b1 50000000 		.4byte	0x50
 7634 13b5 C0130000 		.4byte	0x13c0
 7635 13b9 16       		.uleb128 0x16
 7636 13ba A7040000 		.4byte	0x4a7
 7637 13be 02       		.byte	0x2
 7638 13bf 00       		.byte	0
 7639 13c0 1B       		.uleb128 0x1b
 7640 13c1 8A070000 		.4byte	.LASF371
 7641 13c5 0F       		.byte	0xf
 7642 13c6 A101     		.2byte	0x1a1
 7643 13c8 3E130000 		.4byte	0x133e
 7644 13cc 1D       		.uleb128 0x1d
 7645 13cd C8       		.byte	0xc8
 7646 13ce 0F       		.byte	0xf
 7647 13cf A301     		.2byte	0x1a3
 7648 13d1 72140000 		.4byte	0x1472
 7649 13d5 09       		.uleb128 0x9
 7650 13d6 3A250000 		.4byte	.LASF372
 7651 13da 0F       		.byte	0xf
 7652 13db A501     		.2byte	0x1a5
 7653 13dd BF000000 		.4byte	0xbf
 7654 13e1 00       		.byte	0
 7655 13e2 09       		.uleb128 0x9
 7656 13e3 960B0000 		.4byte	.LASF373
 7657 13e7 0F       		.byte	0xf
 7658 13e8 A601     		.2byte	0x1a6
 7659 13ea E0000000 		.4byte	0xe0
 7660 13ee 04       		.byte	0x4
 7661 13ef 09       		.uleb128 0x9
 7662 13f0 B7110000 		.4byte	.LASF374
 7663 13f4 0F       		.byte	0xf
 7664 13f5 A701     		.2byte	0x1a7
 7665 13f7 25000000 		.4byte	0x25
 7666 13fb 08       		.byte	0x8
 7667 13fc 09       		.uleb128 0x9
 7668 13fd C80B0000 		.4byte	.LASF375
 7669 1401 0F       		.byte	0xf
 7670 1402 A801     		.2byte	0x1a8
 7671 1404 E70D0000 		.4byte	0xde7
 7672 1408 0C       		.byte	0xc
 7673 1409 09       		.uleb128 0x9
ARM GAS  /var/folders/sv/kgmgr77579zbf78p2zlhkdfr0000gn/T//ccMuP6SP.s 			page 136


 7674 140a EE240000 		.4byte	.LASF376
 7675 140e 0F       		.byte	0xf
 7676 140f A901     		.2byte	0x1a9
 7677 1411 E0000000 		.4byte	0xe0
 7678 1415 10       		.byte	0x10
 7679 1416 09       		.uleb128 0x9
 7680 1417 94240000 		.4byte	.LASF377
 7681 141b 0F       		.byte	0xf
 7682 141c AA01     		.2byte	0x1aa
 7683 141e 27090000 		.4byte	0x927
 7684 1422 14       		.byte	0x14
 7685 1423 09       		.uleb128 0x9
 7686 1424 97120000 		.4byte	.LASF378
 7687 1428 0F       		.byte	0xf
 7688 1429 AD01     		.2byte	0x1ad
 7689 142b 5C0E0000 		.4byte	0xe5c
 7690 142f 15       		.byte	0x15
 7691 1430 09       		.uleb128 0x9
 7692 1431 4C130000 		.4byte	.LASF379
 7693 1435 0F       		.byte	0xf
 7694 1436 B001     		.2byte	0x1b0
 7695 1438 B70F0000 		.4byte	0xfb7
 7696 143c 18       		.byte	0x18
 7697 143d 09       		.uleb128 0x9
 7698 143e 9E050000 		.4byte	.LASF380
 7699 1442 0F       		.byte	0xf
 7700 1443 B301     		.2byte	0x1b3
 7701 1445 58110000 		.4byte	0x1158
 7702 1449 50       		.byte	0x50
 7703 144a 09       		.uleb128 0x9
 7704 144b EC030000 		.4byte	.LASF381
 7705 144f 0F       		.byte	0xf
 7706 1450 B601     		.2byte	0x1b6
 7707 1452 E0000000 		.4byte	0xe0
 7708 1456 94       		.byte	0x94
 7709 1457 09       		.uleb128 0x9
 7710 1458 4D110000 		.4byte	.LASF382
 7711 145c 0F       		.byte	0xf
 7712 145d B901     		.2byte	0x1b9
 7713 145f 28120000 		.4byte	0x1228
 7714 1463 98       		.byte	0x98
 7715 1464 09       		.uleb128 0x9
 7716 1465 D5040000 		.4byte	.LASF383
 7717 1469 0F       		.byte	0xf
 7718 146a BC01     		.2byte	0x1bc
 7719 146c C0130000 		.4byte	0x13c0
 7720 1470 BC       		.byte	0xbc
 7721 1471 00       		.byte	0
 7722 1472 1B       		.uleb128 0x1b
 7723 1473 351A0000 		.4byte	.LASF384
 7724 1477 0F       		.byte	0xf
 7725 1478 BD01     		.2byte	0x1bd
 7726 147a CC130000 		.4byte	0x13cc
 7727 147e 1C       		.uleb128 0x1c
 7728 147f 01       		.byte	0x1
 7729 1480 50000000 		.4byte	0x50
 7730 1484 0F       		.byte	0xf
ARM GAS  /var/folders/sv/kgmgr77579zbf78p2zlhkdfr0000gn/T//ccMuP6SP.s 			page 137


 7731 1485 C001     		.2byte	0x1c0
 7732 1487 70150000 		.4byte	0x1570
 7733 148b 18       		.uleb128 0x18
 7734 148c 7A000000 		.4byte	.LASF385
 7735 1490 00       		.byte	0
 7736 1491 18       		.uleb128 0x18
 7737 1492 5D150000 		.4byte	.LASF386
 7738 1496 01       		.byte	0x1
 7739 1497 18       		.uleb128 0x18
 7740 1498 740A0000 		.4byte	.LASF387
 7741 149c 02       		.byte	0x2
 7742 149d 18       		.uleb128 0x18
 7743 149e 5C0A0000 		.4byte	.LASF388
 7744 14a2 03       		.byte	0x3
 7745 14a3 18       		.uleb128 0x18
 7746 14a4 8A190000 		.4byte	.LASF389
 7747 14a8 04       		.byte	0x4
 7748 14a9 18       		.uleb128 0x18
 7749 14aa FC0C0000 		.4byte	.LASF390
 7750 14ae 05       		.byte	0x5
 7751 14af 18       		.uleb128 0x18
 7752 14b0 D5110000 		.4byte	.LASF391
 7753 14b4 06       		.byte	0x6
 7754 14b5 18       		.uleb128 0x18
 7755 14b6 08210000 		.4byte	.LASF392
 7756 14ba 07       		.byte	0x7
 7757 14bb 18       		.uleb128 0x18
 7758 14bc 5E210000 		.4byte	.LASF393
 7759 14c0 08       		.byte	0x8
 7760 14c1 18       		.uleb128 0x18
 7761 14c2 85160000 		.4byte	.LASF394
 7762 14c6 09       		.byte	0x9
 7763 14c7 18       		.uleb128 0x18
 7764 14c8 3F160000 		.4byte	.LASF395
 7765 14cc 0A       		.byte	0xa
 7766 14cd 18       		.uleb128 0x18
 7767 14ce 46150000 		.4byte	.LASF396
 7768 14d2 0B       		.byte	0xb
 7769 14d3 18       		.uleb128 0x18
 7770 14d4 9A110000 		.4byte	.LASF397
 7771 14d8 0C       		.byte	0xc
 7772 14d9 18       		.uleb128 0x18
 7773 14da 82030000 		.4byte	.LASF398
 7774 14de 0D       		.byte	0xd
 7775 14df 18       		.uleb128 0x18
 7776 14e0 5A0D0000 		.4byte	.LASF399
 7777 14e4 0E       		.byte	0xe
 7778 14e5 18       		.uleb128 0x18
 7779 14e6 72190000 		.4byte	.LASF400
 7780 14ea 0F       		.byte	0xf
 7781 14eb 18       		.uleb128 0x18
 7782 14ec A71F0000 		.4byte	.LASF401
 7783 14f0 10       		.byte	0x10
 7784 14f1 18       		.uleb128 0x18
 7785 14f2 8C1C0000 		.4byte	.LASF402
 7786 14f6 11       		.byte	0x11
 7787 14f7 18       		.uleb128 0x18
ARM GAS  /var/folders/sv/kgmgr77579zbf78p2zlhkdfr0000gn/T//ccMuP6SP.s 			page 138


 7788 14f8 18240000 		.4byte	.LASF403
 7789 14fc 12       		.byte	0x12
 7790 14fd 18       		.uleb128 0x18
 7791 14fe 55060000 		.4byte	.LASF404
 7792 1502 13       		.byte	0x13
 7793 1503 18       		.uleb128 0x18
 7794 1504 F90D0000 		.4byte	.LASF405
 7795 1508 14       		.byte	0x14
 7796 1509 18       		.uleb128 0x18
 7797 150a 2A1A0000 		.4byte	.LASF406
 7798 150e 15       		.byte	0x15
 7799 150f 18       		.uleb128 0x18
 7800 1510 40230000 		.4byte	.LASF407
 7801 1514 16       		.byte	0x16
 7802 1515 18       		.uleb128 0x18
 7803 1516 780E0000 		.4byte	.LASF408
 7804 151a 17       		.byte	0x17
 7805 151b 18       		.uleb128 0x18
 7806 151c 09200000 		.4byte	.LASF409
 7807 1520 18       		.byte	0x18
 7808 1521 18       		.uleb128 0x18
 7809 1522 BE1B0000 		.4byte	.LASF410
 7810 1526 19       		.byte	0x19
 7811 1527 18       		.uleb128 0x18
 7812 1528 E70B0000 		.4byte	.LASF411
 7813 152c 1A       		.byte	0x1a
 7814 152d 18       		.uleb128 0x18
 7815 152e 5E190000 		.4byte	.LASF412
 7816 1532 1B       		.byte	0x1b
 7817 1533 18       		.uleb128 0x18
 7818 1534 BC000000 		.4byte	.LASF413
 7819 1538 1C       		.byte	0x1c
 7820 1539 18       		.uleb128 0x18
 7821 153a 89040000 		.4byte	.LASF414
 7822 153e 1D       		.byte	0x1d
 7823 153f 18       		.uleb128 0x18
 7824 1540 71080000 		.4byte	.LASF415
 7825 1544 1E       		.byte	0x1e
 7826 1545 18       		.uleb128 0x18
 7827 1546 A50D0000 		.4byte	.LASF416
 7828 154a 1F       		.byte	0x1f
 7829 154b 18       		.uleb128 0x18
 7830 154c 831F0000 		.4byte	.LASF417
 7831 1550 20       		.byte	0x20
 7832 1551 18       		.uleb128 0x18
 7833 1552 29160000 		.4byte	.LASF418
 7834 1556 21       		.byte	0x21
 7835 1557 18       		.uleb128 0x18
 7836 1558 550E0000 		.4byte	.LASF419
 7837 155c 22       		.byte	0x22
 7838 155d 18       		.uleb128 0x18
 7839 155e 351C0000 		.4byte	.LASF420
 7840 1562 23       		.byte	0x23
 7841 1563 18       		.uleb128 0x18
 7842 1564 15230000 		.4byte	.LASF421
 7843 1568 24       		.byte	0x24
 7844 1569 18       		.uleb128 0x18
ARM GAS  /var/folders/sv/kgmgr77579zbf78p2zlhkdfr0000gn/T//ccMuP6SP.s 			page 139


 7845 156a C71C0000 		.4byte	.LASF422
 7846 156e 25       		.byte	0x25
 7847 156f 00       		.byte	0
 7848 1570 1B       		.uleb128 0x1b
 7849 1571 05120000 		.4byte	.LASF423
 7850 1575 0F       		.byte	0xf
 7851 1576 E701     		.2byte	0x1e7
 7852 1578 7E140000 		.4byte	0x147e
 7853 157c 1D       		.uleb128 0x1d
 7854 157d 18       		.byte	0x18
 7855 157e 0F       		.byte	0xf
 7856 157f 1902     		.2byte	0x219
 7857 1581 E1150000 		.4byte	0x15e1
 7858 1585 09       		.uleb128 0x9
 7859 1586 BF020000 		.4byte	.LASF424
 7860 158a 0F       		.byte	0xf
 7861 158b 1A02     		.2byte	0x21a
 7862 158d 2C000000 		.4byte	0x2c
 7863 1591 00       		.byte	0
 7864 1592 09       		.uleb128 0x9
 7865 1593 C4020000 		.4byte	.LASF425
 7866 1597 0F       		.byte	0xf
 7867 1598 1B02     		.2byte	0x21b
 7868 159a 2C000000 		.4byte	0x2c
 7869 159e 04       		.byte	0x4
 7870 159f 09       		.uleb128 0x9
 7871 15a0 4D040000 		.4byte	.LASF426
 7872 15a4 0F       		.byte	0xf
 7873 15a5 1C02     		.2byte	0x21c
 7874 15a7 2C000000 		.4byte	0x2c
 7875 15ab 08       		.byte	0x8
 7876 15ac 09       		.uleb128 0x9
 7877 15ad 53040000 		.4byte	.LASF427
 7878 15b1 0F       		.byte	0xf
 7879 15b2 1D02     		.2byte	0x21d
 7880 15b4 2C000000 		.4byte	0x2c
 7881 15b8 0C       		.byte	0xc
 7882 15b9 09       		.uleb128 0x9
 7883 15ba 59040000 		.4byte	.LASF428
 7884 15be 0F       		.byte	0xf
 7885 15bf 1E02     		.2byte	0x21e
 7886 15c1 2C000000 		.4byte	0x2c
 7887 15c5 10       		.byte	0x10
 7888 15c6 09       		.uleb128 0x9
 7889 15c7 0C0A0000 		.4byte	.LASF429
 7890 15cb 0F       		.byte	0xf
 7891 15cc 1F02     		.2byte	0x21f
 7892 15ce E70D0000 		.4byte	0xde7
 7893 15d2 14       		.byte	0x14
 7894 15d3 09       		.uleb128 0x9
 7895 15d4 390A0000 		.4byte	.LASF430
 7896 15d8 0F       		.byte	0xf
 7897 15d9 2002     		.2byte	0x220
 7898 15db E70D0000 		.4byte	0xde7
 7899 15df 15       		.byte	0x15
 7900 15e0 00       		.byte	0
 7901 15e1 1B       		.uleb128 0x1b
ARM GAS  /var/folders/sv/kgmgr77579zbf78p2zlhkdfr0000gn/T//ccMuP6SP.s 			page 140


 7902 15e2 52160000 		.4byte	.LASF431
 7903 15e6 0F       		.byte	0xf
 7904 15e7 2102     		.2byte	0x221
 7905 15e9 7C150000 		.4byte	0x157c
 7906 15ed 1C       		.uleb128 0x1c
 7907 15ee 01       		.byte	0x1
 7908 15ef 50000000 		.4byte	0x50
 7909 15f3 0F       		.byte	0xf
 7910 15f4 5502     		.2byte	0x255
 7911 15f6 0D160000 		.4byte	0x160d
 7912 15fa 18       		.uleb128 0x18
 7913 15fb 1B050000 		.4byte	.LASF432
 7914 15ff 00       		.byte	0
 7915 1600 18       		.uleb128 0x18
 7916 1601 16020000 		.4byte	.LASF433
 7917 1605 01       		.byte	0x1
 7918 1606 18       		.uleb128 0x18
 7919 1607 72110000 		.4byte	.LASF434
 7920 160b 02       		.byte	0x2
 7921 160c 00       		.byte	0
 7922 160d 17       		.uleb128 0x17
 7923 160e 01       		.byte	0x1
 7924 160f 50000000 		.4byte	0x50
 7925 1613 10       		.byte	0x10
 7926 1614 35       		.byte	0x35
 7927 1615 50160000 		.4byte	0x1650
 7928 1619 18       		.uleb128 0x18
 7929 161a A20A0000 		.4byte	.LASF435
 7930 161e 01       		.byte	0x1
 7931 161f 18       		.uleb128 0x18
 7932 1620 FF080000 		.4byte	.LASF436
 7933 1624 02       		.byte	0x2
 7934 1625 18       		.uleb128 0x18
 7935 1626 E1000000 		.4byte	.LASF437
 7936 162a 03       		.byte	0x3
 7937 162b 18       		.uleb128 0x18
 7938 162c D1000000 		.4byte	.LASF438
 7939 1630 04       		.byte	0x4
 7940 1631 18       		.uleb128 0x18
 7941 1632 8A000000 		.4byte	.LASF439
 7942 1636 05       		.byte	0x5
 7943 1637 18       		.uleb128 0x18
 7944 1638 18220000 		.4byte	.LASF440
 7945 163c 06       		.byte	0x6
 7946 163d 18       		.uleb128 0x18
 7947 163e A0090000 		.4byte	.LASF441
 7948 1642 07       		.byte	0x7
 7949 1643 18       		.uleb128 0x18
 7950 1644 00020000 		.4byte	.LASF442
 7951 1648 08       		.byte	0x8
 7952 1649 18       		.uleb128 0x18
 7953 164a 471A0000 		.4byte	.LASF443
 7954 164e 09       		.byte	0x9
 7955 164f 00       		.byte	0
 7956 1650 0A       		.uleb128 0xa
 7957 1651 04       		.byte	0x4
 7958 1652 50000000 		.4byte	0x50
ARM GAS  /var/folders/sv/kgmgr77579zbf78p2zlhkdfr0000gn/T//ccMuP6SP.s 			page 141


 7959 1656 02       		.uleb128 0x2
 7960 1657 08       		.byte	0x8
 7961 1658 04       		.byte	0x4
 7962 1659 851C0000 		.4byte	.LASF444
 7963 165d 02       		.uleb128 0x2
 7964 165e 08       		.byte	0x8
 7965 165f 04       		.byte	0x4
 7966 1660 79160000 		.4byte	.LASF445
 7967 1664 04       		.uleb128 0x4
 7968 1665 CF060000 		.4byte	.LASF446
 7969 1669 11       		.byte	0x11
 7970 166a 28       		.byte	0x28
 7971 166b 6F160000 		.4byte	0x166f
 7972 166f 06       		.uleb128 0x6
 7973 1670 BD260000 		.4byte	.LASF447
 7974 1674 04       		.byte	0x4
 7975 1675 12       		.byte	0x12
 7976 1676 00       		.byte	0
 7977 1677 86160000 		.4byte	0x1686
 7978 167b 1E       		.uleb128 0x1e
 7979 167c 3E220000 		.4byte	.LASF448
 7980 1680 71030000 		.4byte	0x371
 7981 1684 00       		.byte	0
 7982 1685 00       		.byte	0
 7983 1686 04       		.uleb128 0x4
 7984 1687 040A0000 		.4byte	.LASF449
 7985 168b 11       		.byte	0x11
 7986 168c 62       		.byte	0x62
 7987 168d 64160000 		.4byte	0x1664
 7988 1691 1F       		.uleb128 0x1f
 7989 1692 CA180000 		.4byte	.LASF578
 7990 1696 18       		.byte	0x18
 7991 1697 AE       		.byte	0xae
 7992 1698 94020000 		.4byte	0x294
 7993 169c 03       		.byte	0x3
 7994 169d 20       		.uleb128 0x20
 7995 169e B2200000 		.4byte	.LASF579
 7996 16a2 02       		.byte	0x2
 7997 16a3 84       		.byte	0x84
 7998 16a4 03       		.byte	0x3
 7999 16a5 B5160000 		.4byte	0x16b5
 8000 16a9 21       		.uleb128 0x21
 8001 16aa 91220000 		.4byte	.LASF450
 8002 16ae 02       		.byte	0x2
 8003 16af 84       		.byte	0x84
 8004 16b0 09070000 		.4byte	0x709
 8005 16b4 00       		.byte	0
 8006 16b5 22       		.uleb128 0x22
 8007 16b6 7E260000 		.4byte	.LASF580
 8008 16ba 01       		.byte	0x1
 8009 16bb 59       		.byte	0x59
 8010 16bc 01       		.byte	0x1
 8011 16bd D8160000 		.4byte	0x16d8
 8012 16c1 21       		.uleb128 0x21
 8013 16c2 9A1E0000 		.4byte	.LASF451
 8014 16c6 01       		.byte	0x1
 8015 16c7 59       		.byte	0x59
ARM GAS  /var/folders/sv/kgmgr77579zbf78p2zlhkdfr0000gn/T//ccMuP6SP.s 			page 142


 8016 16c8 50160000 		.4byte	0x1650
 8017 16cc 23       		.uleb128 0x23
 8018 16cd 6C656E00 		.ascii	"len\000"
 8019 16d1 01       		.byte	0x1
 8020 16d2 59       		.byte	0x59
 8021 16d3 AD000000 		.4byte	0xad
 8022 16d7 00       		.byte	0
 8023 16d8 24       		.uleb128 0x24
 8024 16d9 ED050000 		.4byte	.LASF581
 8025 16dd 03       		.byte	0x3
 8026 16de 5401     		.2byte	0x154
 8027 16e0 03       		.byte	0x3
 8028 16e1 25       		.uleb128 0x25
 8029 16e2 D9130000 		.4byte	.LASF582
 8030 16e6 01       		.byte	0x1
 8031 16e7 E503     		.2byte	0x3e5
 8032 16e9 00000000 		.4byte	.LFB268
 8033 16ed 0C010000 		.4byte	.LFE268-.LFB268
 8034 16f1 01       		.uleb128 0x1
 8035 16f2 9C       		.byte	0x9c
 8036 16f3 F7170000 		.4byte	0x17f7
 8037 16f7 26       		.uleb128 0x26
 8038 16f8 61726700 		.ascii	"arg\000"
 8039 16fc 01       		.byte	0x1
 8040 16fd E503     		.2byte	0x3e5
 8041 16ff 71030000 		.4byte	0x371
 8042 1703 00000000 		.4byte	.LLST0
 8043 1707 27       		.uleb128 0x27
 8044 1708 9D160000 		.4byte	0x169d
 8045 170c 04000000 		.4byte	.LBB66
 8046 1710 00000000 		.4byte	.Ldebug_ranges0+0
 8047 1714 01       		.byte	0x1
 8048 1715 E803     		.2byte	0x3e8
 8049 1717 25170000 		.4byte	0x1725
 8050 171b 28       		.uleb128 0x28
 8051 171c A9160000 		.4byte	0x16a9
 8052 1720 21000000 		.4byte	.LLST1
 8053 1724 00       		.byte	0
 8054 1725 29       		.uleb128 0x29
 8055 1726 20000000 		.4byte	.Ldebug_ranges0+0x20
 8056 172a 2A       		.uleb128 0x2a
 8057 172b 696E6400 		.ascii	"ind\000"
 8058 172f 01       		.byte	0x1
 8059 1730 F603     		.2byte	0x3f6
 8060 1732 D5000000 		.4byte	0xd5
 8061 1736 02       		.uleb128 0x2
 8062 1737 91       		.byte	0x91
 8063 1738 4C       		.sleb128 -52
 8064 1739 2B       		.uleb128 0x2b
 8065 173a B5160000 		.4byte	0x16b5
 8066 173e BE000000 		.4byte	.LBB72
 8067 1742 0E000000 		.4byte	.LBE72-.LBB72
 8068 1746 01       		.byte	0x1
 8069 1747 0104     		.2byte	0x401
 8070 1749 6F170000 		.4byte	0x176f
 8071 174d 28       		.uleb128 0x28
 8072 174e CC160000 		.4byte	0x16cc
ARM GAS  /var/folders/sv/kgmgr77579zbf78p2zlhkdfr0000gn/T//ccMuP6SP.s 			page 143


 8073 1752 39000000 		.4byte	.LLST2
 8074 1756 2C       		.uleb128 0x2c
 8075 1757 C1160000 		.4byte	0x16c1
 8076 175b 06       		.uleb128 0x6
 8077 175c 03       		.byte	0x3
 8078 175d 00000000 		.4byte	send_buffer
 8079 1761 9F       		.byte	0x9f
 8080 1762 2D       		.uleb128 0x2d
 8081 1763 CC000000 		.4byte	.LVL9
 8082 1767 2E       		.uleb128 0x2e
 8083 1768 01       		.uleb128 0x1
 8084 1769 50       		.byte	0x50
 8085 176a 02       		.uleb128 0x2
 8086 176b 74       		.byte	0x74
 8087 176c 00       		.sleb128 0
 8088 176d 00       		.byte	0
 8089 176e 00       		.byte	0
 8090 176f 2F       		.uleb128 0x2f
 8091 1770 3C000000 		.4byte	.LVL3
 8092 1774 C1460000 		.4byte	0x46c1
 8093 1778 82170000 		.4byte	0x1782
 8094 177c 2E       		.uleb128 0x2e
 8095 177d 01       		.uleb128 0x1
 8096 177e 50       		.byte	0x50
 8097 177f 01       		.uleb128 0x1
 8098 1780 31       		.byte	0x31
 8099 1781 00       		.byte	0
 8100 1782 2F       		.uleb128 0x2f
 8101 1783 54000000 		.4byte	.LVL4
 8102 1787 CC460000 		.4byte	0x46cc
 8103 178b AB170000 		.4byte	0x17ab
 8104 178f 2E       		.uleb128 0x2e
 8105 1790 01       		.uleb128 0x1
 8106 1791 50       		.byte	0x50
 8107 1792 02       		.uleb128 0x2
 8108 1793 75       		.byte	0x75
 8109 1794 00       		.sleb128 0
 8110 1795 2E       		.uleb128 0x2e
 8111 1796 01       		.uleb128 0x1
 8112 1797 51       		.byte	0x51
 8113 1798 02       		.uleb128 0x2
 8114 1799 76       		.byte	0x76
 8115 179a 00       		.sleb128 0
 8116 179b 2E       		.uleb128 0x2e
 8117 179c 01       		.uleb128 0x1
 8118 179d 52       		.byte	0x52
 8119 179e 05       		.uleb128 0x5
 8120 179f 03       		.byte	0x3
 8121 17a0 00000000 		.4byte	.LANCHOR2
 8122 17a4 2E       		.uleb128 0x2e
 8123 17a5 01       		.uleb128 0x1
 8124 17a6 53       		.byte	0x53
 8125 17a7 02       		.uleb128 0x2
 8126 17a8 77       		.byte	0x77
 8127 17a9 00       		.sleb128 0
 8128 17aa 00       		.byte	0
 8129 17ab 2F       		.uleb128 0x2f
ARM GAS  /var/folders/sv/kgmgr77579zbf78p2zlhkdfr0000gn/T//ccMuP6SP.s 			page 144


 8130 17ac 78000000 		.4byte	.LVL5
 8131 17b0 D7460000 		.4byte	0x46d7
 8132 17b4 CC170000 		.4byte	0x17cc
 8133 17b8 2E       		.uleb128 0x2e
 8134 17b9 01       		.uleb128 0x1
 8135 17ba 50       		.byte	0x50
 8136 17bb 02       		.uleb128 0x2
 8137 17bc 74       		.byte	0x74
 8138 17bd 00       		.sleb128 0
 8139 17be 2E       		.uleb128 0x2e
 8140 17bf 01       		.uleb128 0x1
 8141 17c0 51       		.byte	0x51
 8142 17c1 03       		.uleb128 0x3
 8143 17c2 91       		.byte	0x91
 8144 17c3 44       		.sleb128 -60
 8145 17c4 06       		.byte	0x6
 8146 17c5 2E       		.uleb128 0x2e
 8147 17c6 01       		.uleb128 0x1
 8148 17c7 52       		.byte	0x52
 8149 17c8 02       		.uleb128 0x2
 8150 17c9 91       		.byte	0x91
 8151 17ca 4C       		.sleb128 -52
 8152 17cb 00       		.byte	0
 8153 17cc 2F       		.uleb128 0x2f
 8154 17cd 90000000 		.4byte	.LVL6
 8155 17d1 D7460000 		.4byte	0x46d7
 8156 17d5 E6170000 		.4byte	0x17e6
 8157 17d9 2E       		.uleb128 0x2e
 8158 17da 01       		.uleb128 0x1
 8159 17db 50       		.byte	0x50
 8160 17dc 02       		.uleb128 0x2
 8161 17dd 74       		.byte	0x74
 8162 17de 00       		.sleb128 0
 8163 17df 2E       		.uleb128 0x2e
 8164 17e0 01       		.uleb128 0x1
 8165 17e1 52       		.byte	0x52
 8166 17e2 02       		.uleb128 0x2
 8167 17e3 91       		.byte	0x91
 8168 17e4 4C       		.sleb128 -52
 8169 17e5 00       		.byte	0
 8170 17e6 30       		.uleb128 0x30
 8171 17e7 B0000000 		.4byte	.LVL7
 8172 17eb 02       		.uleb128 0x2
 8173 17ec 75       		.byte	0x75
 8174 17ed 00       		.sleb128 0
 8175 17ee 2E       		.uleb128 0x2e
 8176 17ef 01       		.uleb128 0x1
 8177 17f0 50       		.byte	0x50
 8178 17f1 02       		.uleb128 0x2
 8179 17f2 74       		.byte	0x74
 8180 17f3 00       		.sleb128 0
 8181 17f4 00       		.byte	0
 8182 17f5 00       		.byte	0
 8183 17f6 00       		.byte	0
 8184 17f7 31       		.uleb128 0x31
 8185 17f8 58010000 		.4byte	.LASF452
 8186 17fc 01       		.byte	0x1
ARM GAS  /var/folders/sv/kgmgr77579zbf78p2zlhkdfr0000gn/T//ccMuP6SP.s 			page 145


 8187 17fd 42       		.byte	0x42
 8188 17fe 00000000 		.4byte	.LFB257
 8189 1802 24000000 		.4byte	.LFE257-.LFB257
 8190 1806 01       		.uleb128 0x1
 8191 1807 9C       		.byte	0x9c
 8192 1808 3C180000 		.4byte	0x183c
 8193 180c 32       		.uleb128 0x32
 8194 180d 16000000 		.4byte	.LVL10
 8195 1811 E2460000 		.4byte	0x46e2
 8196 1815 2E       		.uleb128 0x2e
 8197 1816 01       		.uleb128 0x1
 8198 1817 50       		.byte	0x50
 8199 1818 05       		.uleb128 0x5
 8200 1819 03       		.byte	0x3
 8201 181a 00000000 		.4byte	.LANCHOR11
 8202 181e 2E       		.uleb128 0x2e
 8203 181f 01       		.uleb128 0x1
 8204 1820 51       		.byte	0x51
 8205 1821 03       		.uleb128 0x3
 8206 1822 0A       		.byte	0xa
 8207 1823 9809     		.2byte	0x998
 8208 1825 2E       		.uleb128 0x2e
 8209 1826 01       		.uleb128 0x1
 8210 1827 52       		.byte	0x52
 8211 1828 02       		.uleb128 0x2
 8212 1829 08       		.byte	0x8
 8213 182a 40       		.byte	0x40
 8214 182b 2E       		.uleb128 0x2e
 8215 182c 01       		.uleb128 0x1
 8216 182d 53       		.byte	0x53
 8217 182e 05       		.uleb128 0x5
 8218 182f 03       		.byte	0x3
 8219 1830 00000000 		.4byte	detect_thread
 8220 1834 2E       		.uleb128 0x2e
 8221 1835 02       		.uleb128 0x2
 8222 1836 7D       		.byte	0x7d
 8223 1837 00       		.sleb128 0
 8224 1838 01       		.uleb128 0x1
 8225 1839 30       		.byte	0x30
 8226 183a 00       		.byte	0
 8227 183b 00       		.byte	0
 8228 183c 31       		.uleb128 0x31
 8229 183d AD190000 		.4byte	.LASF453
 8230 1841 01       		.byte	0x1
 8231 1842 4C       		.byte	0x4c
 8232 1843 00000000 		.4byte	.LFB258
 8233 1847 0C000000 		.4byte	.LFE258-.LFB258
 8234 184b 01       		.uleb128 0x1
 8235 184c 9C       		.byte	0x9c
 8236 184d 5F180000 		.4byte	0x185f
 8237 1851 33       		.uleb128 0x33
 8238 1852 21140000 		.4byte	.LASF454
 8239 1856 01       		.byte	0x1
 8240 1857 4C       		.byte	0x4c
 8241 1858 6F180000 		.4byte	0x186f
 8242 185c 01       		.uleb128 0x1
 8243 185d 50       		.byte	0x50
ARM GAS  /var/folders/sv/kgmgr77579zbf78p2zlhkdfr0000gn/T//ccMuP6SP.s 			page 146


 8244 185e 00       		.byte	0
 8245 185f 0C       		.uleb128 0xc
 8246 1860 6F180000 		.4byte	0x186f
 8247 1864 0D       		.uleb128 0xd
 8248 1865 50160000 		.4byte	0x1650
 8249 1869 0D       		.uleb128 0xd
 8250 186a AD000000 		.4byte	0xad
 8251 186e 00       		.byte	0
 8252 186f 0A       		.uleb128 0xa
 8253 1870 04       		.byte	0x4
 8254 1871 5F180000 		.4byte	0x185f
 8255 1875 34       		.uleb128 0x34
 8256 1876 B5160000 		.4byte	0x16b5
 8257 187a 00000000 		.4byte	.LFB259
 8258 187e 10000000 		.4byte	.LFE259-.LFB259
 8259 1882 01       		.uleb128 0x1
 8260 1883 9C       		.byte	0x9c
 8261 1884 AF180000 		.4byte	0x18af
 8262 1888 28       		.uleb128 0x28
 8263 1889 C1160000 		.4byte	0x16c1
 8264 188d 4C000000 		.4byte	.LLST3
 8265 1891 28       		.uleb128 0x28
 8266 1892 CC160000 		.4byte	0x16cc
 8267 1896 78000000 		.4byte	.LLST4
 8268 189a 35       		.uleb128 0x35
 8269 189b 08000000 		.4byte	.LVL13
 8270 189f 2E       		.uleb128 0x2e
 8271 18a0 01       		.uleb128 0x1
 8272 18a1 50       		.byte	0x50
 8273 18a2 03       		.uleb128 0x3
 8274 18a3 F3       		.byte	0xf3
 8275 18a4 01       		.uleb128 0x1
 8276 18a5 50       		.byte	0x50
 8277 18a6 2E       		.uleb128 0x2e
 8278 18a7 01       		.uleb128 0x1
 8279 18a8 51       		.byte	0x51
 8280 18a9 03       		.uleb128 0x3
 8281 18aa F3       		.byte	0xf3
 8282 18ab 01       		.uleb128 0x1
 8283 18ac 51       		.byte	0x51
 8284 18ad 00       		.byte	0
 8285 18ae 00       		.byte	0
 8286 18af 36       		.uleb128 0x36
 8287 18b0 64000000 		.4byte	.LASF455
 8288 18b4 01       		.byte	0x1
 8289 18b5 5A03     		.2byte	0x35a
 8290 18b7 00000000 		.4byte	.LFB261
 8291 18bb 44000000 		.4byte	.LFE261-.LFB261
 8292 18bf 01       		.uleb128 0x1
 8293 18c0 9C       		.byte	0x9c
 8294 18c1 63190000 		.4byte	0x1963
 8295 18c5 37       		.uleb128 0x37
 8296 18c6 56150000 		.4byte	.LASF456
 8297 18ca 01       		.byte	0x1
 8298 18cb 5A03     		.2byte	0x35a
 8299 18cd 09070000 		.4byte	0x709
 8300 18d1 02       		.uleb128 0x2
ARM GAS  /var/folders/sv/kgmgr77579zbf78p2zlhkdfr0000gn/T//ccMuP6SP.s 			page 147


 8301 18d2 91       		.byte	0x91
 8302 18d3 70       		.sleb128 -16
 8303 18d4 38       		.uleb128 0x38
 8304 18d5 2A       		.uleb128 0x2a
 8305 18d6 61726700 		.ascii	"arg\000"
 8306 18da 01       		.byte	0x1
 8307 18db 5B03     		.2byte	0x35b
 8308 18dd 86160000 		.4byte	0x1686
 8309 18e1 02       		.uleb128 0x2
 8310 18e2 91       		.byte	0x91
 8311 18e3 64       		.sleb128 -28
 8312 18e4 39       		.uleb128 0x39
 8313 18e5 6C656E00 		.ascii	"len\000"
 8314 18e9 01       		.byte	0x1
 8315 18ea 5D03     		.2byte	0x35d
 8316 18ec 2C000000 		.4byte	0x2c
 8317 18f0 A4000000 		.4byte	.LLST5
 8318 18f4 3A       		.uleb128 0x3a
 8319 18f5 FD040000 		.4byte	.LASF457
 8320 18f9 01       		.byte	0x1
 8321 18fa 5E03     		.2byte	0x35e
 8322 18fc 63190000 		.4byte	0x1963
 8323 1900 05       		.uleb128 0x5
 8324 1901 03       		.byte	0x3
 8325 1902 00000000 		.4byte	print_buffer.11759
 8326 1906 27       		.uleb128 0x27
 8327 1907 B5160000 		.4byte	0x16b5
 8328 190b 20000000 		.4byte	.LBB76
 8329 190f 38000000 		.4byte	.Ldebug_ranges0+0x38
 8330 1913 01       		.byte	0x1
 8331 1914 6503     		.2byte	0x365
 8332 1916 3C190000 		.4byte	0x193c
 8333 191a 28       		.uleb128 0x28
 8334 191b CC160000 		.4byte	0x16cc
 8335 191f B7000000 		.4byte	.LLST6
 8336 1923 28       		.uleb128 0x28
 8337 1924 C1160000 		.4byte	0x16c1
 8338 1928 CA000000 		.4byte	.LLST7
 8339 192c 2D       		.uleb128 0x2d
 8340 192d 32000000 		.4byte	.LVL19
 8341 1931 2E       		.uleb128 0x2e
 8342 1932 01       		.uleb128 0x1
 8343 1933 50       		.byte	0x50
 8344 1934 05       		.uleb128 0x5
 8345 1935 03       		.byte	0x3
 8346 1936 00000000 		.4byte	.LANCHOR12
 8347 193a 00       		.byte	0
 8348 193b 00       		.byte	0
 8349 193c 32       		.uleb128 0x32
 8350 193d 1C000000 		.4byte	.LVL15
 8351 1941 ED460000 		.4byte	0x46ed
 8352 1945 2E       		.uleb128 0x2e
 8353 1946 01       		.uleb128 0x1
 8354 1947 50       		.byte	0x50
 8355 1948 05       		.uleb128 0x5
 8356 1949 03       		.byte	0x3
 8357 194a 01000000 		.4byte	.LANCHOR12+1
ARM GAS  /var/folders/sv/kgmgr77579zbf78p2zlhkdfr0000gn/T//ccMuP6SP.s 			page 148


 8358 194e 2E       		.uleb128 0x2e
 8359 194f 01       		.uleb128 0x1
 8360 1950 51       		.byte	0x51
 8361 1951 02       		.uleb128 0x2
 8362 1952 08       		.byte	0x8
 8363 1953 FE       		.byte	0xfe
 8364 1954 2E       		.uleb128 0x2e
 8365 1955 01       		.uleb128 0x1
 8366 1956 52       		.byte	0x52
 8367 1957 03       		.uleb128 0x3
 8368 1958 91       		.byte	0x91
 8369 1959 50       		.sleb128 -48
 8370 195a 06       		.byte	0x6
 8371 195b 2E       		.uleb128 0x2e
 8372 195c 01       		.uleb128 0x1
 8373 195d 53       		.byte	0x53
 8374 195e 02       		.uleb128 0x2
 8375 195f 91       		.byte	0x91
 8376 1960 54       		.sleb128 -44
 8377 1961 00       		.byte	0
 8378 1962 00       		.byte	0
 8379 1963 15       		.uleb128 0x15
 8380 1964 0F070000 		.4byte	0x70f
 8381 1968 73190000 		.4byte	0x1973
 8382 196c 16       		.uleb128 0x16
 8383 196d A7040000 		.4byte	0x4a7
 8384 1971 FE       		.byte	0xfe
 8385 1972 00       		.byte	0
 8386 1973 36       		.uleb128 0x36
 8387 1974 CA1A0000 		.4byte	.LASF458
 8388 1978 01       		.byte	0x1
 8389 1979 6903     		.2byte	0x369
 8390 197b 00000000 		.4byte	.LFB262
 8391 197f 40000000 		.4byte	.LFE262-.LFB262
 8392 1983 01       		.uleb128 0x1
 8393 1984 9C       		.byte	0x9c
 8394 1985 181A0000 		.4byte	0x1a18
 8395 1989 3B       		.uleb128 0x3b
 8396 198a 76180000 		.4byte	.LASF459
 8397 198e 01       		.byte	0x1
 8398 198f 6903     		.2byte	0x369
 8399 1991 25000000 		.4byte	0x25
 8400 1995 E2000000 		.4byte	.LLST8
 8401 1999 3A       		.uleb128 0x3a
 8402 199a 4F190000 		.4byte	.LASF460
 8403 199e 01       		.byte	0x1
 8404 199f 6A03     		.2byte	0x36a
 8405 19a1 181A0000 		.4byte	0x1a18
 8406 19a5 02       		.uleb128 0x2
 8407 19a6 91       		.byte	0x91
 8408 19a7 70       		.sleb128 -16
 8409 19a8 3A       		.uleb128 0x3a
 8410 19a9 78040000 		.4byte	.LASF461
 8411 19ad 01       		.byte	0x1
 8412 19ae 6B03     		.2byte	0x36b
 8413 19b0 D5000000 		.4byte	0xd5
 8414 19b4 02       		.uleb128 0x2
ARM GAS  /var/folders/sv/kgmgr77579zbf78p2zlhkdfr0000gn/T//ccMuP6SP.s 			page 149


 8415 19b5 91       		.byte	0x91
 8416 19b6 6C       		.sleb128 -20
 8417 19b7 27       		.uleb128 0x27
 8418 19b8 B5160000 		.4byte	0x16b5
 8419 19bc 26000000 		.4byte	.LBB80
 8420 19c0 50000000 		.4byte	.Ldebug_ranges0+0x50
 8421 19c4 01       		.byte	0x1
 8422 19c5 7003     		.2byte	0x370
 8423 19c7 EA190000 		.4byte	0x19ea
 8424 19cb 28       		.uleb128 0x28
 8425 19cc CC160000 		.4byte	0x16cc
 8426 19d0 06010000 		.4byte	.LLST9
 8427 19d4 28       		.uleb128 0x28
 8428 19d5 C1160000 		.4byte	0x16c1
 8429 19d9 19010000 		.4byte	.LLST10
 8430 19dd 2D       		.uleb128 0x2d
 8431 19de 32000000 		.4byte	.LVL25
 8432 19e2 2E       		.uleb128 0x2e
 8433 19e3 01       		.uleb128 0x1
 8434 19e4 50       		.byte	0x50
 8435 19e5 02       		.uleb128 0x2
 8436 19e6 91       		.byte	0x91
 8437 19e7 70       		.sleb128 -16
 8438 19e8 00       		.byte	0
 8439 19e9 00       		.byte	0
 8440 19ea 32       		.uleb128 0x32
 8441 19eb 26000000 		.4byte	.LVL22
 8442 19ef D7460000 		.4byte	0x46d7
 8443 19f3 2E       		.uleb128 0x2e
 8444 19f4 01       		.uleb128 0x1
 8445 19f5 50       		.byte	0x50
 8446 19f6 02       		.uleb128 0x2
 8447 19f7 91       		.byte	0x91
 8448 19f8 70       		.sleb128 -16
 8449 19f9 2E       		.uleb128 0x2e
 8450 19fa 01       		.uleb128 0x1
 8451 19fb 51       		.byte	0x51
 8452 19fc 13       		.uleb128 0x13
 8453 19fd F3       		.byte	0xf3
 8454 19fe 03       		.uleb128 0x3
 8455 19ff F5       		.byte	0xf5
 8456 1a00 40       		.uleb128 0x40
 8457 1a01 25       		.uleb128 0x25
 8458 1a02 F4       		.byte	0xf4
 8459 1a03 25       		.uleb128 0x25
 8460 1a04 04       		.byte	0x4
 8461 1a05 0050C347 		.4byte	0x47c35000
 8462 1a09 1E       		.byte	0x1e
 8463 1a0a F7       		.byte	0xf7
 8464 1a0b 25       		.uleb128 0x25
 8465 1a0c F7       		.byte	0xf7
 8466 1a0d 2C       		.uleb128 0x2c
 8467 1a0e F7       		.byte	0xf7
 8468 1a0f 00       		.uleb128 0
 8469 1a10 2E       		.uleb128 0x2e
 8470 1a11 01       		.uleb128 0x1
 8471 1a12 52       		.byte	0x52
ARM GAS  /var/folders/sv/kgmgr77579zbf78p2zlhkdfr0000gn/T//ccMuP6SP.s 			page 150


 8472 1a13 02       		.uleb128 0x2
 8473 1a14 91       		.byte	0x91
 8474 1a15 6C       		.sleb128 -20
 8475 1a16 00       		.byte	0
 8476 1a17 00       		.byte	0
 8477 1a18 15       		.uleb128 0x15
 8478 1a19 BF000000 		.4byte	0xbf
 8479 1a1d 281A0000 		.4byte	0x1a28
 8480 1a21 16       		.uleb128 0x16
 8481 1a22 A7040000 		.4byte	0x4a7
 8482 1a26 04       		.byte	0x4
 8483 1a27 00       		.byte	0
 8484 1a28 36       		.uleb128 0x36
 8485 1a29 0E090000 		.4byte	.LASF462
 8486 1a2d 01       		.byte	0x1
 8487 1a2e 7303     		.2byte	0x373
 8488 1a30 00000000 		.4byte	.LFB263
 8489 1a34 7C000000 		.4byte	.LFE263-.LFB263
 8490 1a38 01       		.uleb128 0x1
 8491 1a39 9C       		.byte	0x9c
 8492 1a3a E41A0000 		.4byte	0x1ae4
 8493 1a3e 3B       		.uleb128 0x3b
 8494 1a3f B7010000 		.4byte	.LASF463
 8495 1a43 01       		.byte	0x1
 8496 1a44 7303     		.2byte	0x373
 8497 1a46 E41A0000 		.4byte	0x1ae4
 8498 1a4a 46010000 		.4byte	.LLST11
 8499 1a4e 26       		.uleb128 0x26
 8500 1a4f 6C656E00 		.ascii	"len\000"
 8501 1a53 01       		.byte	0x1
 8502 1a54 7303     		.2byte	0x373
 8503 1a56 2C000000 		.4byte	0x2c
 8504 1a5a 72010000 		.4byte	.LLST12
 8505 1a5e 3C       		.uleb128 0x3c
 8506 1a5f FD1A0000 		.4byte	0x1afd
 8507 1a63 9B010000 		.4byte	.LLST13
 8508 1a67 3D       		.uleb128 0x3d
 8509 1a68 4F190000 		.4byte	.LASF460
 8510 1a6c 01       		.byte	0x1
 8511 1a6d 7803     		.2byte	0x378
 8512 1a6f EA1A0000 		.4byte	0x1aea
 8513 1a73 D9010000 		.4byte	.LLST14
 8514 1a77 3A       		.uleb128 0x3a
 8515 1a78 78040000 		.4byte	.LASF461
 8516 1a7c 01       		.byte	0x1
 8517 1a7d 7903     		.2byte	0x379
 8518 1a7f D5000000 		.4byte	0xd5
 8519 1a83 02       		.uleb128 0x2
 8520 1a84 91       		.byte	0x91
 8521 1a85 54       		.sleb128 -44
 8522 1a86 3E       		.uleb128 0x3e
 8523 1a87 68000000 		.4byte	.Ldebug_ranges0+0x68
 8524 1a8b B41A0000 		.4byte	0x1ab4
 8525 1a8f 39       		.uleb128 0x39
 8526 1a90 6900     		.ascii	"i\000"
 8527 1a92 01       		.byte	0x1
 8528 1a93 7D03     		.2byte	0x37d
ARM GAS  /var/folders/sv/kgmgr77579zbf78p2zlhkdfr0000gn/T//ccMuP6SP.s 			page 151


 8529 1a95 2C000000 		.4byte	0x2c
 8530 1a99 ED010000 		.4byte	.LLST15
 8531 1a9d 32       		.uleb128 0x32
 8532 1a9e 52000000 		.4byte	.LVL34
 8533 1aa2 D7460000 		.4byte	0x46d7
 8534 1aa6 2E       		.uleb128 0x2e
 8535 1aa7 01       		.uleb128 0x1
 8536 1aa8 50       		.byte	0x50
 8537 1aa9 02       		.uleb128 0x2
 8538 1aaa 78       		.byte	0x78
 8539 1aab 00       		.sleb128 0
 8540 1aac 2E       		.uleb128 0x2e
 8541 1aad 01       		.uleb128 0x1
 8542 1aae 52       		.byte	0x52
 8543 1aaf 02       		.uleb128 0x2
 8544 1ab0 77       		.byte	0x77
 8545 1ab1 24       		.sleb128 36
 8546 1ab2 00       		.byte	0
 8547 1ab3 00       		.byte	0
 8548 1ab4 3F       		.uleb128 0x3f
 8549 1ab5 B5160000 		.4byte	0x16b5
 8550 1ab9 58000000 		.4byte	.LBB86
 8551 1abd 0A000000 		.4byte	.LBE86-.LBB86
 8552 1ac1 01       		.byte	0x1
 8553 1ac2 8103     		.2byte	0x381
 8554 1ac4 28       		.uleb128 0x28
 8555 1ac5 CC160000 		.4byte	0x16cc
 8556 1ac9 24020000 		.4byte	.LLST16
 8557 1acd 28       		.uleb128 0x28
 8558 1ace C1160000 		.4byte	0x16c1
 8559 1ad2 38020000 		.4byte	.LLST17
 8560 1ad6 2D       		.uleb128 0x2d
 8561 1ad7 62000000 		.4byte	.LVL36
 8562 1adb 2E       		.uleb128 0x2e
 8563 1adc 01       		.uleb128 0x1
 8564 1add 50       		.byte	0x50
 8565 1ade 02       		.uleb128 0x2
 8566 1adf 78       		.byte	0x78
 8567 1ae0 00       		.sleb128 0
 8568 1ae1 00       		.byte	0
 8569 1ae2 00       		.byte	0
 8570 1ae3 00       		.byte	0
 8571 1ae4 0A       		.uleb128 0xa
 8572 1ae5 04       		.byte	0x4
 8573 1ae6 25000000 		.4byte	0x25
 8574 1aea 15       		.uleb128 0x15
 8575 1aeb BF000000 		.4byte	0xbf
 8576 1aef FD1A0000 		.4byte	0x1afd
 8577 1af3 40       		.uleb128 0x40
 8578 1af4 A7040000 		.4byte	0x4a7
 8579 1af8 5E1A0000 		.4byte	0x1a5e
 8580 1afc 00       		.byte	0
 8581 1afd 14       		.uleb128 0x14
 8582 1afe A7040000 		.4byte	0x4a7
 8583 1b02 41       		.uleb128 0x41
 8584 1b03 AF080000 		.4byte	.LASF583
 8585 1b07 01       		.byte	0x1
ARM GAS  /var/folders/sv/kgmgr77579zbf78p2zlhkdfr0000gn/T//ccMuP6SP.s 			page 152


 8586 1b08 8403     		.2byte	0x384
 8587 1b0a 55080000 		.4byte	0x855
 8588 1b0e 00000000 		.4byte	.LFB264
 8589 1b12 0C000000 		.4byte	.LFE264-.LFB264
 8590 1b16 01       		.uleb128 0x1
 8591 1b17 9C       		.byte	0x9c
 8592 1b18 36       		.uleb128 0x36
 8593 1b19 59130000 		.4byte	.LASF464
 8594 1b1d 01       		.byte	0x1
 8595 1b1e 8803     		.2byte	0x388
 8596 1b20 00000000 		.4byte	.LFB265
 8597 1b24 0C000000 		.4byte	.LFE265-.LFB265
 8598 1b28 01       		.uleb128 0x1
 8599 1b29 9C       		.byte	0x9c
 8600 1b2a 3D1B0000 		.4byte	0x1b3d
 8601 1b2e 37       		.uleb128 0x37
 8602 1b2f 21140000 		.4byte	.LASF454
 8603 1b33 01       		.byte	0x1
 8604 1b34 8803     		.2byte	0x388
 8605 1b36 6F180000 		.4byte	0x186f
 8606 1b3a 01       		.uleb128 0x1
 8607 1b3b 50       		.byte	0x50
 8608 1b3c 00       		.byte	0
 8609 1b3d 36       		.uleb128 0x36
 8610 1b3e B11E0000 		.4byte	.LASF465
 8611 1b42 01       		.byte	0x1
 8612 1b43 8C03     		.2byte	0x38c
 8613 1b45 00000000 		.4byte	.LFB266
 8614 1b49 34000000 		.4byte	.LFE266-.LFB266
 8615 1b4d 01       		.uleb128 0x1
 8616 1b4e 9C       		.byte	0x9c
 8617 1b4f E31B0000 		.4byte	0x1be3
 8618 1b53 3B       		.uleb128 0x3b
 8619 1b54 9A1E0000 		.4byte	.LASF451
 8620 1b58 01       		.byte	0x1
 8621 1b59 8C03     		.2byte	0x38c
 8622 1b5b 50160000 		.4byte	0x1650
 8623 1b5f 4B020000 		.4byte	.LLST18
 8624 1b63 26       		.uleb128 0x26
 8625 1b64 6C656E00 		.ascii	"len\000"
 8626 1b68 01       		.byte	0x1
 8627 1b69 8C03     		.2byte	0x38c
 8628 1b6b AD000000 		.4byte	0xad
 8629 1b6f 82020000 		.4byte	.LLST19
 8630 1b73 3D       		.uleb128 0x3d
 8631 1b74 78040000 		.4byte	.LASF461
 8632 1b78 01       		.byte	0x1
 8633 1b79 8D03     		.2byte	0x38d
 8634 1b7b D5000000 		.4byte	0xd5
 8635 1b7f D4020000 		.4byte	.LLST20
 8636 1b83 27       		.uleb128 0x27
 8637 1b84 B5160000 		.4byte	0x16b5
 8638 1b88 18000000 		.4byte	.LBB88
 8639 1b8c 80000000 		.4byte	.Ldebug_ranges0+0x80
 8640 1b90 01       		.byte	0x1
 8641 1b91 9303     		.2byte	0x393
 8642 1b93 C51B0000 		.4byte	0x1bc5
ARM GAS  /var/folders/sv/kgmgr77579zbf78p2zlhkdfr0000gn/T//ccMuP6SP.s 			page 153


 8643 1b97 28       		.uleb128 0x28
 8644 1b98 CC160000 		.4byte	0x16cc
 8645 1b9c 2D030000 		.4byte	.LLST21
 8646 1ba0 2C       		.uleb128 0x2c
 8647 1ba1 C1160000 		.4byte	0x16c1
 8648 1ba5 06       		.uleb128 0x6
 8649 1ba6 03       		.byte	0x3
 8650 1ba7 00000000 		.4byte	send_buffer
 8651 1bab 9F       		.byte	0x9f
 8652 1bac 35       		.uleb128 0x35
 8653 1bad 28000000 		.4byte	.LVL47
 8654 1bb1 2E       		.uleb128 0x2e
 8655 1bb2 01       		.uleb128 0x1
 8656 1bb3 50       		.byte	0x50
 8657 1bb4 05       		.uleb128 0x5
 8658 1bb5 03       		.byte	0x3
 8659 1bb6 00000000 		.4byte	.LANCHOR8
 8660 1bba 2E       		.uleb128 0x2e
 8661 1bbb 01       		.uleb128 0x1
 8662 1bbc 51       		.byte	0x51
 8663 1bbd 05       		.uleb128 0x5
 8664 1bbe F3       		.byte	0xf3
 8665 1bbf 01       		.uleb128 0x1
 8666 1bc0 51       		.byte	0x51
 8667 1bc1 23       		.byte	0x23
 8668 1bc2 01       		.uleb128 0x1
 8669 1bc3 00       		.byte	0
 8670 1bc4 00       		.byte	0
 8671 1bc5 32       		.uleb128 0x32
 8672 1bc6 18000000 		.4byte	.LVL43
 8673 1bca F9460000 		.4byte	0x46f9
 8674 1bce 2E       		.uleb128 0x2e
 8675 1bcf 01       		.uleb128 0x1
 8676 1bd0 50       		.byte	0x50
 8677 1bd1 02       		.uleb128 0x2
 8678 1bd2 75       		.byte	0x75
 8679 1bd3 01       		.sleb128 1
 8680 1bd4 2E       		.uleb128 0x2e
 8681 1bd5 01       		.uleb128 0x1
 8682 1bd6 51       		.byte	0x51
 8683 1bd7 03       		.uleb128 0x3
 8684 1bd8 F3       		.byte	0xf3
 8685 1bd9 01       		.uleb128 0x1
 8686 1bda 50       		.byte	0x50
 8687 1bdb 2E       		.uleb128 0x2e
 8688 1bdc 01       		.uleb128 0x1
 8689 1bdd 52       		.byte	0x52
 8690 1bde 02       		.uleb128 0x2
 8691 1bdf 74       		.byte	0x74
 8692 1be0 00       		.sleb128 0
 8693 1be1 00       		.byte	0
 8694 1be2 00       		.byte	0
 8695 1be3 36       		.uleb128 0x36
 8696 1be4 07180000 		.4byte	.LASF466
 8697 1be8 01       		.byte	0x1
 8698 1be9 9603     		.2byte	0x396
 8699 1beb 00000000 		.4byte	.LFB267
ARM GAS  /var/folders/sv/kgmgr77579zbf78p2zlhkdfr0000gn/T//ccMuP6SP.s 			page 154


 8700 1bef C8020000 		.4byte	.LFE267-.LFB267
 8701 1bf3 01       		.uleb128 0x1
 8702 1bf4 9C       		.byte	0x9c
 8703 1bf5 B51F0000 		.4byte	0x1fb5
 8704 1bf9 3B       		.uleb128 0x3b
 8705 1bfa 5D0C0000 		.4byte	.LASF467
 8706 1bfe 01       		.byte	0x1
 8707 1bff 9603     		.2byte	0x396
 8708 1c01 70150000 		.4byte	0x1570
 8709 1c05 7A030000 		.4byte	.LLST22
 8710 1c09 3B       		.uleb128 0x3b
 8711 1c0a 8F0E0000 		.4byte	.LASF468
 8712 1c0e 01       		.byte	0x1
 8713 1c0f 9603     		.2byte	0x396
 8714 1c11 B51F0000 		.4byte	0x1fb5
 8715 1c15 AA030000 		.4byte	.LLST23
 8716 1c19 2A       		.uleb128 0x2a
 8717 1c1a 696E6400 		.ascii	"ind\000"
 8718 1c1e 01       		.byte	0x1
 8719 1c1f 9703     		.2byte	0x397
 8720 1c21 D5000000 		.4byte	0xd5
 8721 1c25 02       		.uleb128 0x2
 8722 1c26 91       		.byte	0x91
 8723 1c27 64       		.sleb128 -28
 8724 1c28 27       		.uleb128 0x27
 8725 1c29 B5160000 		.4byte	0x16b5
 8726 1c2d 9E020000 		.4byte	.LBB92
 8727 1c31 98000000 		.4byte	.Ldebug_ranges0+0x98
 8728 1c35 01       		.byte	0x1
 8729 1c36 E203     		.2byte	0x3e2
 8730 1c38 5E1C0000 		.4byte	0x1c5e
 8731 1c3c 28       		.uleb128 0x28
 8732 1c3d CC160000 		.4byte	0x16cc
 8733 1c41 D6030000 		.4byte	.LLST24
 8734 1c45 28       		.uleb128 0x28
 8735 1c46 C1160000 		.4byte	0x16c1
 8736 1c4a E9030000 		.4byte	.LLST25
 8737 1c4e 30       		.uleb128 0x30
 8738 1c4f BA020000 		.4byte	.LVL87
 8739 1c53 02       		.uleb128 0x2
 8740 1c54 76       		.byte	0x76
 8741 1c55 00       		.sleb128 0
 8742 1c56 2E       		.uleb128 0x2e
 8743 1c57 01       		.uleb128 0x1
 8744 1c58 50       		.byte	0x50
 8745 1c59 02       		.uleb128 0x2
 8746 1c5a 75       		.byte	0x75
 8747 1c5b 00       		.sleb128 0
 8748 1c5c 00       		.byte	0
 8749 1c5d 00       		.byte	0
 8750 1c5e 2F       		.uleb128 0x2f
 8751 1c5f 20000000 		.4byte	.LVL52
 8752 1c63 02470000 		.4byte	0x4702
 8753 1c67 781C0000 		.4byte	0x1c78
 8754 1c6b 2E       		.uleb128 0x2e
 8755 1c6c 01       		.uleb128 0x1
 8756 1c6d 50       		.byte	0x50
ARM GAS  /var/folders/sv/kgmgr77579zbf78p2zlhkdfr0000gn/T//ccMuP6SP.s 			page 155


 8757 1c6e 02       		.uleb128 0x2
 8758 1c6f 75       		.byte	0x75
 8759 1c70 00       		.sleb128 0
 8760 1c71 2E       		.uleb128 0x2e
 8761 1c72 01       		.uleb128 0x1
 8762 1c73 52       		.byte	0x52
 8763 1c74 02       		.uleb128 0x2
 8764 1c75 76       		.byte	0x76
 8765 1c76 00       		.sleb128 0
 8766 1c77 00       		.byte	0
 8767 1c78 2F       		.uleb128 0x2f
 8768 1c79 2C000000 		.4byte	.LVL53
 8769 1c7d 0D470000 		.4byte	0x470d
 8770 1c81 921C0000 		.4byte	0x1c92
 8771 1c85 2E       		.uleb128 0x2e
 8772 1c86 01       		.uleb128 0x1
 8773 1c87 50       		.byte	0x50
 8774 1c88 02       		.uleb128 0x2
 8775 1c89 75       		.byte	0x75
 8776 1c8a 00       		.sleb128 0
 8777 1c8b 2E       		.uleb128 0x2e
 8778 1c8c 01       		.uleb128 0x1
 8779 1c8d 51       		.byte	0x51
 8780 1c8e 02       		.uleb128 0x2
 8781 1c8f 76       		.byte	0x76
 8782 1c90 00       		.sleb128 0
 8783 1c91 00       		.byte	0
 8784 1c92 2F       		.uleb128 0x2f
 8785 1c93 40000000 		.4byte	.LVL54
 8786 1c97 18470000 		.4byte	0x4718
 8787 1c9b AC1C0000 		.4byte	0x1cac
 8788 1c9f 2E       		.uleb128 0x2e
 8789 1ca0 01       		.uleb128 0x1
 8790 1ca1 50       		.byte	0x50
 8791 1ca2 02       		.uleb128 0x2
 8792 1ca3 75       		.byte	0x75
 8793 1ca4 00       		.sleb128 0
 8794 1ca5 2E       		.uleb128 0x2e
 8795 1ca6 01       		.uleb128 0x1
 8796 1ca7 52       		.byte	0x52
 8797 1ca8 02       		.uleb128 0x2
 8798 1ca9 76       		.byte	0x76
 8799 1caa 00       		.sleb128 0
 8800 1cab 00       		.byte	0
 8801 1cac 2F       		.uleb128 0x2f
 8802 1cad 60000000 		.4byte	.LVL55
 8803 1cb1 0D470000 		.4byte	0x470d
 8804 1cb5 C61C0000 		.4byte	0x1cc6
 8805 1cb9 2E       		.uleb128 0x2e
 8806 1cba 01       		.uleb128 0x1
 8807 1cbb 50       		.byte	0x50
 8808 1cbc 02       		.uleb128 0x2
 8809 1cbd 75       		.byte	0x75
 8810 1cbe 00       		.sleb128 0
 8811 1cbf 2E       		.uleb128 0x2e
 8812 1cc0 01       		.uleb128 0x1
 8813 1cc1 51       		.byte	0x51
ARM GAS  /var/folders/sv/kgmgr77579zbf78p2zlhkdfr0000gn/T//ccMuP6SP.s 			page 156


 8814 1cc2 02       		.uleb128 0x2
 8815 1cc3 76       		.byte	0x76
 8816 1cc4 00       		.sleb128 0
 8817 1cc5 00       		.byte	0
 8818 1cc6 2F       		.uleb128 0x2f
 8819 1cc7 6C000000 		.4byte	.LVL56
 8820 1ccb 0D470000 		.4byte	0x470d
 8821 1ccf E01C0000 		.4byte	0x1ce0
 8822 1cd3 2E       		.uleb128 0x2e
 8823 1cd4 01       		.uleb128 0x1
 8824 1cd5 50       		.byte	0x50
 8825 1cd6 02       		.uleb128 0x2
 8826 1cd7 75       		.byte	0x75
 8827 1cd8 00       		.sleb128 0
 8828 1cd9 2E       		.uleb128 0x2e
 8829 1cda 01       		.uleb128 0x1
 8830 1cdb 51       		.byte	0x51
 8831 1cdc 02       		.uleb128 0x2
 8832 1cdd 76       		.byte	0x76
 8833 1cde 00       		.sleb128 0
 8834 1cdf 00       		.byte	0
 8835 1ce0 2F       		.uleb128 0x2f
 8836 1ce1 78000000 		.4byte	.LVL57
 8837 1ce5 0D470000 		.4byte	0x470d
 8838 1ce9 FA1C0000 		.4byte	0x1cfa
 8839 1ced 2E       		.uleb128 0x2e
 8840 1cee 01       		.uleb128 0x1
 8841 1cef 50       		.byte	0x50
 8842 1cf0 02       		.uleb128 0x2
 8843 1cf1 75       		.byte	0x75
 8844 1cf2 00       		.sleb128 0
 8845 1cf3 2E       		.uleb128 0x2e
 8846 1cf4 01       		.uleb128 0x1
 8847 1cf5 51       		.byte	0x51
 8848 1cf6 02       		.uleb128 0x2
 8849 1cf7 76       		.byte	0x76
 8850 1cf8 00       		.sleb128 0
 8851 1cf9 00       		.byte	0
 8852 1cfa 2F       		.uleb128 0x2f
 8853 1cfb 84000000 		.4byte	.LVL58
 8854 1cff 0D470000 		.4byte	0x470d
 8855 1d03 141D0000 		.4byte	0x1d14
 8856 1d07 2E       		.uleb128 0x2e
 8857 1d08 01       		.uleb128 0x1
 8858 1d09 50       		.byte	0x50
 8859 1d0a 02       		.uleb128 0x2
 8860 1d0b 75       		.byte	0x75
 8861 1d0c 00       		.sleb128 0
 8862 1d0d 2E       		.uleb128 0x2e
 8863 1d0e 01       		.uleb128 0x1
 8864 1d0f 51       		.byte	0x51
 8865 1d10 02       		.uleb128 0x2
 8866 1d11 76       		.byte	0x76
 8867 1d12 00       		.sleb128 0
 8868 1d13 00       		.byte	0
 8869 1d14 2F       		.uleb128 0x2f
 8870 1d15 90000000 		.4byte	.LVL59
ARM GAS  /var/folders/sv/kgmgr77579zbf78p2zlhkdfr0000gn/T//ccMuP6SP.s 			page 157


 8871 1d19 0D470000 		.4byte	0x470d
 8872 1d1d 2E1D0000 		.4byte	0x1d2e
 8873 1d21 2E       		.uleb128 0x2e
 8874 1d22 01       		.uleb128 0x1
 8875 1d23 50       		.byte	0x50
 8876 1d24 02       		.uleb128 0x2
 8877 1d25 75       		.byte	0x75
 8878 1d26 00       		.sleb128 0
 8879 1d27 2E       		.uleb128 0x2e
 8880 1d28 01       		.uleb128 0x1
 8881 1d29 51       		.byte	0x51
 8882 1d2a 02       		.uleb128 0x2
 8883 1d2b 76       		.byte	0x76
 8884 1d2c 00       		.sleb128 0
 8885 1d2d 00       		.byte	0
 8886 1d2e 2F       		.uleb128 0x2f
 8887 1d2f B0000000 		.4byte	.LVL60
 8888 1d33 0D470000 		.4byte	0x470d
 8889 1d37 481D0000 		.4byte	0x1d48
 8890 1d3b 2E       		.uleb128 0x2e
 8891 1d3c 01       		.uleb128 0x1
 8892 1d3d 50       		.byte	0x50
 8893 1d3e 02       		.uleb128 0x2
 8894 1d3f 75       		.byte	0x75
 8895 1d40 00       		.sleb128 0
 8896 1d41 2E       		.uleb128 0x2e
 8897 1d42 01       		.uleb128 0x1
 8898 1d43 51       		.byte	0x51
 8899 1d44 02       		.uleb128 0x2
 8900 1d45 76       		.byte	0x76
 8901 1d46 00       		.sleb128 0
 8902 1d47 00       		.byte	0
 8903 1d48 2F       		.uleb128 0x2f
 8904 1d49 BC000000 		.4byte	.LVL61
 8905 1d4d 0D470000 		.4byte	0x470d
 8906 1d51 621D0000 		.4byte	0x1d62
 8907 1d55 2E       		.uleb128 0x2e
 8908 1d56 01       		.uleb128 0x1
 8909 1d57 50       		.byte	0x50
 8910 1d58 02       		.uleb128 0x2
 8911 1d59 75       		.byte	0x75
 8912 1d5a 00       		.sleb128 0
 8913 1d5b 2E       		.uleb128 0x2e
 8914 1d5c 01       		.uleb128 0x1
 8915 1d5d 51       		.byte	0x51
 8916 1d5e 02       		.uleb128 0x2
 8917 1d5f 76       		.byte	0x76
 8918 1d60 00       		.sleb128 0
 8919 1d61 00       		.byte	0
 8920 1d62 2F       		.uleb128 0x2f
 8921 1d63 D4000000 		.4byte	.LVL62
 8922 1d67 0D470000 		.4byte	0x470d
 8923 1d6b 7C1D0000 		.4byte	0x1d7c
 8924 1d6f 2E       		.uleb128 0x2e
 8925 1d70 01       		.uleb128 0x1
 8926 1d71 50       		.byte	0x50
 8927 1d72 02       		.uleb128 0x2
ARM GAS  /var/folders/sv/kgmgr77579zbf78p2zlhkdfr0000gn/T//ccMuP6SP.s 			page 158


 8928 1d73 75       		.byte	0x75
 8929 1d74 00       		.sleb128 0
 8930 1d75 2E       		.uleb128 0x2e
 8931 1d76 01       		.uleb128 0x1
 8932 1d77 51       		.byte	0x51
 8933 1d78 02       		.uleb128 0x2
 8934 1d79 76       		.byte	0x76
 8935 1d7a 00       		.sleb128 0
 8936 1d7b 00       		.byte	0
 8937 1d7c 2F       		.uleb128 0x2f
 8938 1d7d E0000000 		.4byte	.LVL63
 8939 1d81 0D470000 		.4byte	0x470d
 8940 1d85 961D0000 		.4byte	0x1d96
 8941 1d89 2E       		.uleb128 0x2e
 8942 1d8a 01       		.uleb128 0x1
 8943 1d8b 50       		.byte	0x50
 8944 1d8c 02       		.uleb128 0x2
 8945 1d8d 75       		.byte	0x75
 8946 1d8e 00       		.sleb128 0
 8947 1d8f 2E       		.uleb128 0x2e
 8948 1d90 01       		.uleb128 0x1
 8949 1d91 51       		.byte	0x51
 8950 1d92 02       		.uleb128 0x2
 8951 1d93 76       		.byte	0x76
 8952 1d94 00       		.sleb128 0
 8953 1d95 00       		.byte	0
 8954 1d96 2F       		.uleb128 0x2f
 8955 1d97 00010000 		.4byte	.LVL64
 8956 1d9b 0D470000 		.4byte	0x470d
 8957 1d9f B01D0000 		.4byte	0x1db0
 8958 1da3 2E       		.uleb128 0x2e
 8959 1da4 01       		.uleb128 0x1
 8960 1da5 50       		.byte	0x50
 8961 1da6 02       		.uleb128 0x2
 8962 1da7 75       		.byte	0x75
 8963 1da8 00       		.sleb128 0
 8964 1da9 2E       		.uleb128 0x2e
 8965 1daa 01       		.uleb128 0x1
 8966 1dab 51       		.byte	0x51
 8967 1dac 02       		.uleb128 0x2
 8968 1dad 76       		.byte	0x76
 8969 1dae 00       		.sleb128 0
 8970 1daf 00       		.byte	0
 8971 1db0 2F       		.uleb128 0x2f
 8972 1db1 18010000 		.4byte	.LVL65
 8973 1db5 0D470000 		.4byte	0x470d
 8974 1db9 CA1D0000 		.4byte	0x1dca
 8975 1dbd 2E       		.uleb128 0x2e
 8976 1dbe 01       		.uleb128 0x1
 8977 1dbf 50       		.byte	0x50
 8978 1dc0 02       		.uleb128 0x2
 8979 1dc1 75       		.byte	0x75
 8980 1dc2 00       		.sleb128 0
 8981 1dc3 2E       		.uleb128 0x2e
 8982 1dc4 01       		.uleb128 0x1
 8983 1dc5 51       		.byte	0x51
 8984 1dc6 02       		.uleb128 0x2
ARM GAS  /var/folders/sv/kgmgr77579zbf78p2zlhkdfr0000gn/T//ccMuP6SP.s 			page 159


 8985 1dc7 76       		.byte	0x76
 8986 1dc8 00       		.sleb128 0
 8987 1dc9 00       		.byte	0
 8988 1dca 2F       		.uleb128 0x2f
 8989 1dcb 24010000 		.4byte	.LVL66
 8990 1dcf 0D470000 		.4byte	0x470d
 8991 1dd3 E41D0000 		.4byte	0x1de4
 8992 1dd7 2E       		.uleb128 0x2e
 8993 1dd8 01       		.uleb128 0x1
 8994 1dd9 50       		.byte	0x50
 8995 1dda 02       		.uleb128 0x2
 8996 1ddb 75       		.byte	0x75
 8997 1ddc 00       		.sleb128 0
 8998 1ddd 2E       		.uleb128 0x2e
 8999 1dde 01       		.uleb128 0x1
 9000 1ddf 51       		.byte	0x51
 9001 1de0 02       		.uleb128 0x2
 9002 1de1 76       		.byte	0x76
 9003 1de2 00       		.sleb128 0
 9004 1de3 00       		.byte	0
 9005 1de4 2F       		.uleb128 0x2f
 9006 1de5 30010000 		.4byte	.LVL67
 9007 1de9 0D470000 		.4byte	0x470d
 9008 1ded FE1D0000 		.4byte	0x1dfe
 9009 1df1 2E       		.uleb128 0x2e
 9010 1df2 01       		.uleb128 0x1
 9011 1df3 50       		.byte	0x50
 9012 1df4 02       		.uleb128 0x2
 9013 1df5 75       		.byte	0x75
 9014 1df6 00       		.sleb128 0
 9015 1df7 2E       		.uleb128 0x2e
 9016 1df8 01       		.uleb128 0x1
 9017 1df9 51       		.byte	0x51
 9018 1dfa 02       		.uleb128 0x2
 9019 1dfb 76       		.byte	0x76
 9020 1dfc 00       		.sleb128 0
 9021 1dfd 00       		.byte	0
 9022 1dfe 2F       		.uleb128 0x2f
 9023 1dff 3C010000 		.4byte	.LVL68
 9024 1e03 0D470000 		.4byte	0x470d
 9025 1e07 181E0000 		.4byte	0x1e18
 9026 1e0b 2E       		.uleb128 0x2e
 9027 1e0c 01       		.uleb128 0x1
 9028 1e0d 50       		.byte	0x50
 9029 1e0e 02       		.uleb128 0x2
 9030 1e0f 75       		.byte	0x75
 9031 1e10 00       		.sleb128 0
 9032 1e11 2E       		.uleb128 0x2e
 9033 1e12 01       		.uleb128 0x1
 9034 1e13 51       		.byte	0x51
 9035 1e14 02       		.uleb128 0x2
 9036 1e15 76       		.byte	0x76
 9037 1e16 00       		.sleb128 0
 9038 1e17 00       		.byte	0
 9039 1e18 2F       		.uleb128 0x2f
 9040 1e19 48010000 		.4byte	.LVL69
 9041 1e1d 0D470000 		.4byte	0x470d
ARM GAS  /var/folders/sv/kgmgr77579zbf78p2zlhkdfr0000gn/T//ccMuP6SP.s 			page 160


 9042 1e21 321E0000 		.4byte	0x1e32
 9043 1e25 2E       		.uleb128 0x2e
 9044 1e26 01       		.uleb128 0x1
 9045 1e27 50       		.byte	0x50
 9046 1e28 02       		.uleb128 0x2
 9047 1e29 75       		.byte	0x75
 9048 1e2a 00       		.sleb128 0
 9049 1e2b 2E       		.uleb128 0x2e
 9050 1e2c 01       		.uleb128 0x1
 9051 1e2d 51       		.byte	0x51
 9052 1e2e 02       		.uleb128 0x2
 9053 1e2f 76       		.byte	0x76
 9054 1e30 00       		.sleb128 0
 9055 1e31 00       		.byte	0
 9056 1e32 2F       		.uleb128 0x2f
 9057 1e33 54010000 		.4byte	.LVL70
 9058 1e37 0D470000 		.4byte	0x470d
 9059 1e3b 4C1E0000 		.4byte	0x1e4c
 9060 1e3f 2E       		.uleb128 0x2e
 9061 1e40 01       		.uleb128 0x1
 9062 1e41 50       		.byte	0x50
 9063 1e42 02       		.uleb128 0x2
 9064 1e43 75       		.byte	0x75
 9065 1e44 00       		.sleb128 0
 9066 1e45 2E       		.uleb128 0x2e
 9067 1e46 01       		.uleb128 0x1
 9068 1e47 51       		.byte	0x51
 9069 1e48 02       		.uleb128 0x2
 9070 1e49 76       		.byte	0x76
 9071 1e4a 00       		.sleb128 0
 9072 1e4b 00       		.byte	0
 9073 1e4c 2F       		.uleb128 0x2f
 9074 1e4d 8C010000 		.4byte	.LVL71
 9075 1e51 0D470000 		.4byte	0x470d
 9076 1e55 661E0000 		.4byte	0x1e66
 9077 1e59 2E       		.uleb128 0x2e
 9078 1e5a 01       		.uleb128 0x1
 9079 1e5b 50       		.byte	0x50
 9080 1e5c 02       		.uleb128 0x2
 9081 1e5d 75       		.byte	0x75
 9082 1e5e 00       		.sleb128 0
 9083 1e5f 2E       		.uleb128 0x2e
 9084 1e60 01       		.uleb128 0x1
 9085 1e61 51       		.byte	0x51
 9086 1e62 02       		.uleb128 0x2
 9087 1e63 76       		.byte	0x76
 9088 1e64 00       		.sleb128 0
 9089 1e65 00       		.byte	0
 9090 1e66 2F       		.uleb128 0x2f
 9091 1e67 98010000 		.4byte	.LVL72
 9092 1e6b 0D470000 		.4byte	0x470d
 9093 1e6f 801E0000 		.4byte	0x1e80
 9094 1e73 2E       		.uleb128 0x2e
 9095 1e74 01       		.uleb128 0x1
 9096 1e75 50       		.byte	0x50
 9097 1e76 02       		.uleb128 0x2
 9098 1e77 75       		.byte	0x75
ARM GAS  /var/folders/sv/kgmgr77579zbf78p2zlhkdfr0000gn/T//ccMuP6SP.s 			page 161


 9099 1e78 00       		.sleb128 0
 9100 1e79 2E       		.uleb128 0x2e
 9101 1e7a 01       		.uleb128 0x1
 9102 1e7b 51       		.byte	0x51
 9103 1e7c 02       		.uleb128 0x2
 9104 1e7d 76       		.byte	0x76
 9105 1e7e 00       		.sleb128 0
 9106 1e7f 00       		.byte	0
 9107 1e80 2F       		.uleb128 0x2f
 9108 1e81 B0010000 		.4byte	.LVL73
 9109 1e85 0D470000 		.4byte	0x470d
 9110 1e89 9A1E0000 		.4byte	0x1e9a
 9111 1e8d 2E       		.uleb128 0x2e
 9112 1e8e 01       		.uleb128 0x1
 9113 1e8f 50       		.byte	0x50
 9114 1e90 02       		.uleb128 0x2
 9115 1e91 75       		.byte	0x75
 9116 1e92 00       		.sleb128 0
 9117 1e93 2E       		.uleb128 0x2e
 9118 1e94 01       		.uleb128 0x1
 9119 1e95 51       		.byte	0x51
 9120 1e96 02       		.uleb128 0x2
 9121 1e97 76       		.byte	0x76
 9122 1e98 00       		.sleb128 0
 9123 1e99 00       		.byte	0
 9124 1e9a 2F       		.uleb128 0x2f
 9125 1e9b BC010000 		.4byte	.LVL74
 9126 1e9f 0D470000 		.4byte	0x470d
 9127 1ea3 B41E0000 		.4byte	0x1eb4
 9128 1ea7 2E       		.uleb128 0x2e
 9129 1ea8 01       		.uleb128 0x1
 9130 1ea9 50       		.byte	0x50
 9131 1eaa 02       		.uleb128 0x2
 9132 1eab 75       		.byte	0x75
 9133 1eac 00       		.sleb128 0
 9134 1ead 2E       		.uleb128 0x2e
 9135 1eae 01       		.uleb128 0x1
 9136 1eaf 51       		.byte	0x51
 9137 1eb0 02       		.uleb128 0x2
 9138 1eb1 76       		.byte	0x76
 9139 1eb2 00       		.sleb128 0
 9140 1eb3 00       		.byte	0
 9141 1eb4 2F       		.uleb128 0x2f
 9142 1eb5 DC010000 		.4byte	.LVL75
 9143 1eb9 0D470000 		.4byte	0x470d
 9144 1ebd CE1E0000 		.4byte	0x1ece
 9145 1ec1 2E       		.uleb128 0x2e
 9146 1ec2 01       		.uleb128 0x1
 9147 1ec3 50       		.byte	0x50
 9148 1ec4 02       		.uleb128 0x2
 9149 1ec5 75       		.byte	0x75
 9150 1ec6 00       		.sleb128 0
 9151 1ec7 2E       		.uleb128 0x2e
 9152 1ec8 01       		.uleb128 0x1
 9153 1ec9 51       		.byte	0x51
 9154 1eca 02       		.uleb128 0x2
 9155 1ecb 76       		.byte	0x76
ARM GAS  /var/folders/sv/kgmgr77579zbf78p2zlhkdfr0000gn/T//ccMuP6SP.s 			page 162


 9156 1ecc 00       		.sleb128 0
 9157 1ecd 00       		.byte	0
 9158 1ece 2F       		.uleb128 0x2f
 9159 1ecf E8010000 		.4byte	.LVL76
 9160 1ed3 18470000 		.4byte	0x4718
 9161 1ed7 E81E0000 		.4byte	0x1ee8
 9162 1edb 2E       		.uleb128 0x2e
 9163 1edc 01       		.uleb128 0x1
 9164 1edd 50       		.byte	0x50
 9165 1ede 02       		.uleb128 0x2
 9166 1edf 75       		.byte	0x75
 9167 1ee0 00       		.sleb128 0
 9168 1ee1 2E       		.uleb128 0x2e
 9169 1ee2 01       		.uleb128 0x1
 9170 1ee3 52       		.byte	0x52
 9171 1ee4 02       		.uleb128 0x2
 9172 1ee5 76       		.byte	0x76
 9173 1ee6 00       		.sleb128 0
 9174 1ee7 00       		.byte	0
 9175 1ee8 2F       		.uleb128 0x2f
 9176 1ee9 F4010000 		.4byte	.LVL77
 9177 1eed 02470000 		.4byte	0x4702
 9178 1ef1 021F0000 		.4byte	0x1f02
 9179 1ef5 2E       		.uleb128 0x2e
 9180 1ef6 01       		.uleb128 0x1
 9181 1ef7 50       		.byte	0x50
 9182 1ef8 02       		.uleb128 0x2
 9183 1ef9 75       		.byte	0x75
 9184 1efa 00       		.sleb128 0
 9185 1efb 2E       		.uleb128 0x2e
 9186 1efc 01       		.uleb128 0x1
 9187 1efd 52       		.byte	0x52
 9188 1efe 02       		.uleb128 0x2
 9189 1eff 76       		.byte	0x76
 9190 1f00 00       		.sleb128 0
 9191 1f01 00       		.byte	0
 9192 1f02 2F       		.uleb128 0x2f
 9193 1f03 0C020000 		.4byte	.LVL78
 9194 1f07 0D470000 		.4byte	0x470d
 9195 1f0b 1C1F0000 		.4byte	0x1f1c
 9196 1f0f 2E       		.uleb128 0x2e
 9197 1f10 01       		.uleb128 0x1
 9198 1f11 50       		.byte	0x50
 9199 1f12 02       		.uleb128 0x2
 9200 1f13 75       		.byte	0x75
 9201 1f14 00       		.sleb128 0
 9202 1f15 2E       		.uleb128 0x2e
 9203 1f16 01       		.uleb128 0x1
 9204 1f17 51       		.byte	0x51
 9205 1f18 02       		.uleb128 0x2
 9206 1f19 76       		.byte	0x76
 9207 1f1a 00       		.sleb128 0
 9208 1f1b 00       		.byte	0
 9209 1f1c 2F       		.uleb128 0x2f
 9210 1f1d 18020000 		.4byte	.LVL79
 9211 1f21 0D470000 		.4byte	0x470d
 9212 1f25 361F0000 		.4byte	0x1f36
ARM GAS  /var/folders/sv/kgmgr77579zbf78p2zlhkdfr0000gn/T//ccMuP6SP.s 			page 163


 9213 1f29 2E       		.uleb128 0x2e
 9214 1f2a 01       		.uleb128 0x1
 9215 1f2b 50       		.byte	0x50
 9216 1f2c 02       		.uleb128 0x2
 9217 1f2d 75       		.byte	0x75
 9218 1f2e 00       		.sleb128 0
 9219 1f2f 2E       		.uleb128 0x2e
 9220 1f30 01       		.uleb128 0x1
 9221 1f31 51       		.byte	0x51
 9222 1f32 02       		.uleb128 0x2
 9223 1f33 76       		.byte	0x76
 9224 1f34 00       		.sleb128 0
 9225 1f35 00       		.byte	0
 9226 1f36 2F       		.uleb128 0x2f
 9227 1f37 24020000 		.4byte	.LVL80
 9228 1f3b 0D470000 		.4byte	0x470d
 9229 1f3f 501F0000 		.4byte	0x1f50
 9230 1f43 2E       		.uleb128 0x2e
 9231 1f44 01       		.uleb128 0x1
 9232 1f45 50       		.byte	0x50
 9233 1f46 02       		.uleb128 0x2
 9234 1f47 75       		.byte	0x75
 9235 1f48 00       		.sleb128 0
 9236 1f49 2E       		.uleb128 0x2e
 9237 1f4a 01       		.uleb128 0x1
 9238 1f4b 51       		.byte	0x51
 9239 1f4c 02       		.uleb128 0x2
 9240 1f4d 76       		.byte	0x76
 9241 1f4e 00       		.sleb128 0
 9242 1f4f 00       		.byte	0
 9243 1f50 2F       		.uleb128 0x2f
 9244 1f51 30020000 		.4byte	.LVL81
 9245 1f55 0D470000 		.4byte	0x470d
 9246 1f59 6A1F0000 		.4byte	0x1f6a
 9247 1f5d 2E       		.uleb128 0x2e
 9248 1f5e 01       		.uleb128 0x1
 9249 1f5f 50       		.byte	0x50
 9250 1f60 02       		.uleb128 0x2
 9251 1f61 75       		.byte	0x75
 9252 1f62 00       		.sleb128 0
 9253 1f63 2E       		.uleb128 0x2e
 9254 1f64 01       		.uleb128 0x1
 9255 1f65 51       		.byte	0x51
 9256 1f66 02       		.uleb128 0x2
 9257 1f67 76       		.byte	0x76
 9258 1f68 00       		.sleb128 0
 9259 1f69 00       		.byte	0
 9260 1f6a 2F       		.uleb128 0x2f
 9261 1f6b 3C020000 		.4byte	.LVL82
 9262 1f6f 0D470000 		.4byte	0x470d
 9263 1f73 841F0000 		.4byte	0x1f84
 9264 1f77 2E       		.uleb128 0x2e
 9265 1f78 01       		.uleb128 0x1
 9266 1f79 50       		.byte	0x50
 9267 1f7a 02       		.uleb128 0x2
 9268 1f7b 75       		.byte	0x75
 9269 1f7c 00       		.sleb128 0
ARM GAS  /var/folders/sv/kgmgr77579zbf78p2zlhkdfr0000gn/T//ccMuP6SP.s 			page 164


 9270 1f7d 2E       		.uleb128 0x2e
 9271 1f7e 01       		.uleb128 0x1
 9272 1f7f 51       		.byte	0x51
 9273 1f80 02       		.uleb128 0x2
 9274 1f81 76       		.byte	0x76
 9275 1f82 00       		.sleb128 0
 9276 1f83 00       		.byte	0
 9277 1f84 2F       		.uleb128 0x2f
 9278 1f85 48020000 		.4byte	.LVL83
 9279 1f89 0D470000 		.4byte	0x470d
 9280 1f8d 9E1F0000 		.4byte	0x1f9e
 9281 1f91 2E       		.uleb128 0x2e
 9282 1f92 01       		.uleb128 0x1
 9283 1f93 50       		.byte	0x50
 9284 1f94 02       		.uleb128 0x2
 9285 1f95 75       		.byte	0x75
 9286 1f96 00       		.sleb128 0
 9287 1f97 2E       		.uleb128 0x2e
 9288 1f98 01       		.uleb128 0x1
 9289 1f99 51       		.byte	0x51
 9290 1f9a 02       		.uleb128 0x2
 9291 1f9b 76       		.byte	0x76
 9292 1f9c 00       		.sleb128 0
 9293 1f9d 00       		.byte	0
 9294 1f9e 32       		.uleb128 0x32
 9295 1f9f 6E020000 		.4byte	.LVL84
 9296 1fa3 0D470000 		.4byte	0x470d
 9297 1fa7 2E       		.uleb128 0x2e
 9298 1fa8 01       		.uleb128 0x1
 9299 1fa9 50       		.byte	0x50
 9300 1faa 02       		.uleb128 0x2
 9301 1fab 75       		.byte	0x75
 9302 1fac 00       		.sleb128 0
 9303 1fad 2E       		.uleb128 0x2e
 9304 1fae 01       		.uleb128 0x1
 9305 1faf 51       		.byte	0x51
 9306 1fb0 02       		.uleb128 0x2
 9307 1fb1 76       		.byte	0x76
 9308 1fb2 00       		.sleb128 0
 9309 1fb3 00       		.byte	0
 9310 1fb4 00       		.byte	0
 9311 1fb5 0A       		.uleb128 0xa
 9312 1fb6 04       		.byte	0x4
 9313 1fb7 72140000 		.4byte	0x1472
 9314 1fbb 42       		.uleb128 0x42
 9315 1fbc B81F0000 		.4byte	.LASF469
 9316 1fc0 01       		.byte	0x1
 9317 1fc1 68       		.byte	0x68
 9318 1fc2 00000000 		.4byte	.LFB260
 9319 1fc6 04170000 		.4byte	.LFE260-.LFB260
 9320 1fca 01       		.uleb128 0x1
 9321 1fcb 9C       		.byte	0x9c
 9322 1fcc 7F450000 		.4byte	0x457f
 9323 1fd0 43       		.uleb128 0x43
 9324 1fd1 9A1E0000 		.4byte	.LASF451
 9325 1fd5 01       		.byte	0x1
 9326 1fd6 68       		.byte	0x68
ARM GAS  /var/folders/sv/kgmgr77579zbf78p2zlhkdfr0000gn/T//ccMuP6SP.s 			page 165


 9327 1fd7 50160000 		.4byte	0x1650
 9328 1fdb 01040000 		.4byte	.LLST26
 9329 1fdf 44       		.uleb128 0x44
 9330 1fe0 6C656E00 		.ascii	"len\000"
 9331 1fe4 01       		.byte	0x1
 9332 1fe5 68       		.byte	0x68
 9333 1fe6 AD000000 		.4byte	0xad
 9334 1fea 9D060000 		.4byte	.LLST27
 9335 1fee 45       		.uleb128 0x45
 9336 1fef 5D0C0000 		.4byte	.LASF467
 9337 1ff3 01       		.byte	0x1
 9338 1ff4 6D       		.byte	0x6d
 9339 1ff5 70150000 		.4byte	0x1570
 9340 1ff9 AA080000 		.4byte	.LLST28
 9341 1ffd 46       		.uleb128 0x46
 9342 1ffe 696E6400 		.ascii	"ind\000"
 9343 2002 01       		.byte	0x1
 9344 2003 6E       		.byte	0x6e
 9345 2004 D5000000 		.4byte	0xd5
 9346 2008 F4080000 		.4byte	.LLST29
 9347 200c 47       		.uleb128 0x47
 9348 200d 1B1F0000 		.4byte	.LASF470
 9349 2011 01       		.byte	0x1
 9350 2012 6F       		.byte	0x6f
 9351 2013 0E0E0000 		.4byte	0xe0e
 9352 2017 05       		.uleb128 0x5
 9353 2018 03       		.byte	0x3
 9354 2019 00000000 		.4byte	mcconf.11691
 9355 201d 47       		.uleb128 0x47
 9356 201e 46200000 		.4byte	.LASF471
 9357 2022 01       		.byte	0x1
 9358 2023 6F       		.byte	0x6f
 9359 2024 0E0E0000 		.4byte	0xe0e
 9360 2028 05       		.uleb128 0x5
 9361 2029 03       		.byte	0x3
 9362 202a 00000000 		.4byte	mcconf_old.11692
 9363 202e 47       		.uleb128 0x47
 9364 202f 8F0E0000 		.4byte	.LASF468
 9365 2033 01       		.byte	0x1
 9366 2034 70       		.byte	0x70
 9367 2035 72140000 		.4byte	0x1472
 9368 2039 03       		.uleb128 0x3
 9369 203a 91       		.byte	0x91
 9370 203b 887E     		.sleb128 -248
 9371 203d 45       		.uleb128 0x45
 9372 203e F20C0000 		.4byte	.LASF472
 9373 2042 01       		.byte	0x1
 9374 2043 71       		.byte	0x71
 9375 2044 CA000000 		.4byte	0xca
 9376 2048 14090000 		.4byte	.LLST30
 9377 204c 45       		.uleb128 0x45
 9378 204d D5150000 		.4byte	.LASF473
 9379 2051 01       		.byte	0x1
 9380 2052 72       		.byte	0x72
 9381 2053 E0000000 		.4byte	0xe0
 9382 2057 32090000 		.4byte	.LLST31
 9383 205b 47       		.uleb128 0x47
ARM GAS  /var/folders/sv/kgmgr77579zbf78p2zlhkdfr0000gn/T//ccMuP6SP.s 			page 166


 9384 205c 28030000 		.4byte	.LASF474
 9385 2060 01       		.byte	0x1
 9386 2061 73       		.byte	0x73
 9387 2062 E1150000 		.4byte	0x15e1
 9388 2066 03       		.uleb128 0x3
 9389 2067 91       		.byte	0x91
 9390 2068 887E     		.sleb128 -248
 9391 206a 3E       		.uleb128 0x3e
 9392 206b B8000000 		.4byte	.Ldebug_ranges0+0xb8
 9393 206f F7210000 		.4byte	0x21f7
 9394 2073 3D       		.uleb128 0x3d
 9395 2074 DF120000 		.4byte	.LASF475
 9396 2078 01       		.byte	0x1
 9397 2079 A502     		.2byte	0x2a5
 9398 207b 25000000 		.4byte	0x25
 9399 207f 45090000 		.4byte	.LLST32
 9400 2083 3D       		.uleb128 0x3d
 9401 2084 96180000 		.4byte	.LASF476
 9402 2088 01       		.byte	0x1
 9403 2089 A602     		.2byte	0x2a6
 9404 208b 25000000 		.4byte	0x25
 9405 208f 71090000 		.4byte	.LLST33
 9406 2093 3D       		.uleb128 0x3d
 9407 2094 C4190000 		.4byte	.LASF477
 9408 2098 01       		.byte	0x1
 9409 2099 A702     		.2byte	0x2a7
 9410 209b 25000000 		.4byte	0x25
 9411 209f 9D090000 		.4byte	.LLST34
 9412 20a3 3D       		.uleb128 0x3d
 9413 20a4 7E040000 		.4byte	.LASF478
 9414 20a8 01       		.byte	0x1
 9415 20a9 A802     		.2byte	0x2a8
 9416 20ab 25000000 		.4byte	0x25
 9417 20af C9090000 		.4byte	.LLST35
 9418 20b3 3A       		.uleb128 0x3a
 9419 20b4 B3050000 		.4byte	.LASF479
 9420 20b8 01       		.byte	0x1
 9421 20b9 AC02     		.2byte	0x2ac
 9422 20bb 25000000 		.4byte	0x25
 9423 20bf 03       		.uleb128 0x3
 9424 20c0 91       		.byte	0x91
 9425 20c1 887E     		.sleb128 -248
 9426 20c3 39       		.uleb128 0x39
 9427 20c4 72657300 		.ascii	"res\000"
 9428 20c8 01       		.byte	0x1
 9429 20c9 AD02     		.2byte	0x2ad
 9430 20cb E70D0000 		.4byte	0xde7
 9431 20cf E9090000 		.4byte	.LLST36
 9432 20d3 27       		.uleb128 0x27
 9433 20d4 B5160000 		.4byte	0x16b5
 9434 20d8 60040000 		.4byte	.LBB99
 9435 20dc D0000000 		.4byte	.Ldebug_ranges0+0xd0
 9436 20e0 01       		.byte	0x1
 9437 20e1 B902     		.2byte	0x2b9
 9438 20e3 FA200000 		.4byte	0x20fa
 9439 20e7 28       		.uleb128 0x28
 9440 20e8 CC160000 		.4byte	0x16cc
ARM GAS  /var/folders/sv/kgmgr77579zbf78p2zlhkdfr0000gn/T//ccMuP6SP.s 			page 167


 9441 20ec 070A0000 		.4byte	.LLST37
 9442 20f0 28       		.uleb128 0x28
 9443 20f1 C1160000 		.4byte	0x16c1
 9444 20f5 1A0A0000 		.4byte	.LLST38
 9445 20f9 00       		.byte	0
 9446 20fa 2F       		.uleb128 0x2f
 9447 20fb 82000000 		.4byte	.LVL95
 9448 20ff 23470000 		.4byte	0x4723
 9449 2103 21210000 		.4byte	0x2121
 9450 2107 2E       		.uleb128 0x2e
 9451 2108 01       		.uleb128 0x1
 9452 2109 50       		.byte	0x50
 9453 210a 02       		.uleb128 0x2
 9454 210b 74       		.byte	0x74
 9455 210c 00       		.sleb128 0
 9456 210d 2E       		.uleb128 0x2e
 9457 210e 02       		.uleb128 0x2
 9458 210f 90       		.byte	0x90
 9459 2110 40       		.uleb128 0x40
 9460 2111 07       		.uleb128 0x7
 9461 2112 F4       		.byte	0xf4
 9462 2113 25       		.uleb128 0x25
 9463 2114 04       		.byte	0x4
 9464 2115 00007A44 		.4byte	0x447a0000
 9465 2119 2E       		.uleb128 0x2e
 9466 211a 01       		.uleb128 0x1
 9467 211b 51       		.byte	0x51
 9468 211c 03       		.uleb128 0x3
 9469 211d 91       		.byte	0x91
 9470 211e 807E     		.sleb128 -256
 9471 2120 00       		.byte	0
 9472 2121 2F       		.uleb128 0x2f
 9473 2122 92000000 		.4byte	.LVL98
 9474 2126 23470000 		.4byte	0x4723
 9475 212a 48210000 		.4byte	0x2148
 9476 212e 2E       		.uleb128 0x2e
 9477 212f 01       		.uleb128 0x1
 9478 2130 50       		.byte	0x50
 9479 2131 02       		.uleb128 0x2
 9480 2132 74       		.byte	0x74
 9481 2133 00       		.sleb128 0
 9482 2134 2E       		.uleb128 0x2e
 9483 2135 02       		.uleb128 0x2
 9484 2136 90       		.byte	0x90
 9485 2137 40       		.uleb128 0x40
 9486 2138 07       		.uleb128 0x7
 9487 2139 F4       		.byte	0xf4
 9488 213a 25       		.uleb128 0x25
 9489 213b 04       		.byte	0x4
 9490 213c 00007A44 		.4byte	0x447a0000
 9491 2140 2E       		.uleb128 0x2e
 9492 2141 01       		.uleb128 0x1
 9493 2142 51       		.byte	0x51
 9494 2143 03       		.uleb128 0x3
 9495 2144 91       		.byte	0x91
 9496 2145 807E     		.sleb128 -256
 9497 2147 00       		.byte	0
ARM GAS  /var/folders/sv/kgmgr77579zbf78p2zlhkdfr0000gn/T//ccMuP6SP.s 			page 168


 9498 2148 2F       		.uleb128 0x2f
 9499 2149 A2000000 		.4byte	.LVL101
 9500 214d 23470000 		.4byte	0x4723
 9501 2151 6F210000 		.4byte	0x216f
 9502 2155 2E       		.uleb128 0x2e
 9503 2156 01       		.uleb128 0x1
 9504 2157 50       		.byte	0x50
 9505 2158 02       		.uleb128 0x2
 9506 2159 74       		.byte	0x74
 9507 215a 00       		.sleb128 0
 9508 215b 2E       		.uleb128 0x2e
 9509 215c 02       		.uleb128 0x2
 9510 215d 90       		.byte	0x90
 9511 215e 40       		.uleb128 0x40
 9512 215f 07       		.uleb128 0x7
 9513 2160 F4       		.byte	0xf4
 9514 2161 25       		.uleb128 0x25
 9515 2162 04       		.byte	0x4
 9516 2163 00007A44 		.4byte	0x447a0000
 9517 2167 2E       		.uleb128 0x2e
 9518 2168 01       		.uleb128 0x1
 9519 2169 51       		.byte	0x51
 9520 216a 03       		.uleb128 0x3
 9521 216b 91       		.byte	0x91
 9522 216c 807E     		.sleb128 -256
 9523 216e 00       		.byte	0
 9524 216f 2F       		.uleb128 0x2f
 9525 2170 B2000000 		.4byte	.LVL104
 9526 2174 23470000 		.4byte	0x4723
 9527 2178 96210000 		.4byte	0x2196
 9528 217c 2E       		.uleb128 0x2e
 9529 217d 01       		.uleb128 0x1
 9530 217e 50       		.byte	0x50
 9531 217f 02       		.uleb128 0x2
 9532 2180 74       		.byte	0x74
 9533 2181 00       		.sleb128 0
 9534 2182 2E       		.uleb128 0x2e
 9535 2183 02       		.uleb128 0x2
 9536 2184 90       		.byte	0x90
 9537 2185 40       		.uleb128 0x40
 9538 2186 07       		.uleb128 0x7
 9539 2187 F4       		.byte	0xf4
 9540 2188 25       		.uleb128 0x25
 9541 2189 04       		.byte	0x4
 9542 218a 00247449 		.4byte	0x49742400
 9543 218e 2E       		.uleb128 0x2e
 9544 218f 01       		.uleb128 0x1
 9545 2190 51       		.byte	0x51
 9546 2191 03       		.uleb128 0x3
 9547 2192 91       		.byte	0x91
 9548 2193 807E     		.sleb128 -256
 9549 2195 00       		.byte	0
 9550 2196 2F       		.uleb128 0x2f
 9551 2197 CC000000 		.4byte	.LVL106
 9552 219b 2E470000 		.4byte	0x472e
 9553 219f C3210000 		.4byte	0x21c3
 9554 21a3 2E       		.uleb128 0x2e
ARM GAS  /var/folders/sv/kgmgr77579zbf78p2zlhkdfr0000gn/T//ccMuP6SP.s 			page 169


 9555 21a4 02       		.uleb128 0x2
 9556 21a5 90       		.byte	0x90
 9557 21a6 40       		.uleb128 0x40
 9558 21a7 03       		.uleb128 0x3
 9559 21a8 F5       		.byte	0xf5
 9560 21a9 50       		.uleb128 0x50
 9561 21aa 25       		.uleb128 0x25
 9562 21ab 2E       		.uleb128 0x2e
 9563 21ac 02       		.uleb128 0x2
 9564 21ad 90       		.byte	0x90
 9565 21ae 41       		.uleb128 0x41
 9566 21af 03       		.uleb128 0x3
 9567 21b0 F5       		.byte	0xf5
 9568 21b1 51       		.uleb128 0x51
 9569 21b2 25       		.uleb128 0x25
 9570 21b3 2E       		.uleb128 0x2e
 9571 21b4 02       		.uleb128 0x2
 9572 21b5 90       		.byte	0x90
 9573 21b6 42       		.uleb128 0x42
 9574 21b7 03       		.uleb128 0x3
 9575 21b8 F5       		.byte	0xf5
 9576 21b9 52       		.uleb128 0x52
 9577 21ba 25       		.uleb128 0x25
 9578 21bb 2E       		.uleb128 0x2e
 9579 21bc 01       		.uleb128 0x1
 9580 21bd 50       		.byte	0x50
 9581 21be 03       		.uleb128 0x3
 9582 21bf 91       		.byte	0x91
 9583 21c0 887E     		.sleb128 -248
 9584 21c2 00       		.byte	0
 9585 21c3 2F       		.uleb128 0x2f
 9586 21c4 F4000000 		.4byte	.LVL109
 9587 21c8 39470000 		.4byte	0x4739
 9588 21cc EA210000 		.4byte	0x21ea
 9589 21d0 2E       		.uleb128 0x2e
 9590 21d1 01       		.uleb128 0x1
 9591 21d2 50       		.byte	0x50
 9592 21d3 02       		.uleb128 0x2
 9593 21d4 74       		.byte	0x74
 9594 21d5 00       		.sleb128 0
 9595 21d6 2E       		.uleb128 0x2e
 9596 21d7 02       		.uleb128 0x2
 9597 21d8 90       		.byte	0x90
 9598 21d9 41       		.uleb128 0x41
 9599 21da 07       		.uleb128 0x7
 9600 21db F4       		.byte	0xf4
 9601 21dc 25       		.uleb128 0x25
 9602 21dd 04       		.byte	0x4
 9603 21de 8096184B 		.4byte	0x4b189680
 9604 21e2 2E       		.uleb128 0x2e
 9605 21e3 01       		.uleb128 0x1
 9606 21e4 51       		.byte	0x51
 9607 21e5 03       		.uleb128 0x3
 9608 21e6 91       		.byte	0x91
 9609 21e7 807E     		.sleb128 -256
 9610 21e9 00       		.byte	0
 9611 21ea 2D       		.uleb128 0x2d
ARM GAS  /var/folders/sv/kgmgr77579zbf78p2zlhkdfr0000gn/T//ccMuP6SP.s 			page 170


 9612 21eb 02010000 		.4byte	.LVL111
 9613 21ef 2E       		.uleb128 0x2e
 9614 21f0 01       		.uleb128 0x1
 9615 21f1 50       		.byte	0x50
 9616 21f2 02       		.uleb128 0x2
 9617 21f3 74       		.byte	0x74
 9618 21f4 00       		.sleb128 0
 9619 21f5 00       		.byte	0
 9620 21f6 00       		.byte	0
 9621 21f7 27       		.uleb128 0x27
 9622 21f8 B5160000 		.4byte	0x16b5
 9623 21fc 84010000 		.4byte	.LBB103
 9624 2200 E8000000 		.4byte	.Ldebug_ranges0+0xe8
 9625 2204 01       		.byte	0x1
 9626 2205 3203     		.2byte	0x332
 9627 2207 1E220000 		.4byte	0x221e
 9628 220b 28       		.uleb128 0x28
 9629 220c CC160000 		.4byte	0x16cc
 9630 2210 320A0000 		.4byte	.LLST39
 9631 2214 28       		.uleb128 0x28
 9632 2215 C1160000 		.4byte	0x16c1
 9633 2219 450A0000 		.4byte	.LLST40
 9634 221d 00       		.byte	0
 9635 221e 48       		.uleb128 0x48
 9636 221f D8160000 		.4byte	0x16d8
 9637 2223 1C020000 		.4byte	.LBB107
 9638 2227 04000000 		.4byte	.LBE107-.LBB107
 9639 222b 01       		.byte	0x1
 9640 222c 1403     		.2byte	0x314
 9641 222e 3E       		.uleb128 0x3e
 9642 222f 00010000 		.4byte	.Ldebug_ranges0+0x100
 9643 2233 53230000 		.4byte	0x2353
 9644 2237 3D       		.uleb128 0x3d
 9645 2238 DF120000 		.4byte	.LASF475
 9646 223c 01       		.byte	0x1
 9647 223d EF02     		.2byte	0x2ef
 9648 223f 25000000 		.4byte	0x25
 9649 2243 5D0A0000 		.4byte	.LLST41
 9650 2247 3A       		.uleb128 0x3a
 9651 2248 C9100000 		.4byte	.LASF480
 9652 224c 01       		.byte	0x1
 9653 224d F902     		.2byte	0x2f9
 9654 224f FE0D0000 		.4byte	0xdfe
 9655 2253 03       		.uleb128 0x3
 9656 2254 91       		.byte	0x91
 9657 2255 887E     		.sleb128 -248
 9658 2257 39       		.uleb128 0x39
 9659 2258 72657300 		.ascii	"res\000"
 9660 225c 01       		.byte	0x1
 9661 225d FA02     		.2byte	0x2fa
 9662 225f E70D0000 		.4byte	0xde7
 9663 2263 890A0000 		.4byte	.LLST42
 9664 2267 2B       		.uleb128 0x2b
 9665 2268 B5160000 		.4byte	0x16b5
 9666 226c C6160000 		.4byte	.LBB110
 9667 2270 12000000 		.4byte	.LBE110-.LBB110
 9668 2274 01       		.byte	0x1
ARM GAS  /var/folders/sv/kgmgr77579zbf78p2zlhkdfr0000gn/T//ccMuP6SP.s 			page 171


 9669 2275 0603     		.2byte	0x306
 9670 2277 A5220000 		.4byte	0x22a5
 9671 227b 28       		.uleb128 0x28
 9672 227c CC160000 		.4byte	0x16cc
 9673 2280 9C0A0000 		.4byte	.LLST43
 9674 2284 28       		.uleb128 0x28
 9675 2285 C1160000 		.4byte	0x16c1
 9676 2289 B00A0000 		.4byte	.LLST44
 9677 228d 30       		.uleb128 0x30
 9678 228e D4160000 		.4byte	.LVL526
 9679 2292 02       		.uleb128 0x2
 9680 2293 74       		.byte	0x74
 9681 2294 00       		.sleb128 0
 9682 2295 2E       		.uleb128 0x2e
 9683 2296 01       		.uleb128 0x1
 9684 2297 50       		.byte	0x50
 9685 2298 05       		.uleb128 0x5
 9686 2299 03       		.byte	0x3
 9687 229a 00000000 		.4byte	.LANCHOR8
 9688 229e 2E       		.uleb128 0x2e
 9689 229f 01       		.uleb128 0x1
 9690 22a0 51       		.byte	0x51
 9691 22a1 01       		.uleb128 0x1
 9692 22a2 3A       		.byte	0x3a
 9693 22a3 00       		.byte	0
 9694 22a4 00       		.byte	0
 9695 22a5 2F       		.uleb128 0x2f
 9696 22a6 4E020000 		.4byte	.LVL145
 9697 22aa F9460000 		.4byte	0x46f9
 9698 22ae C9220000 		.4byte	0x22c9
 9699 22b2 2E       		.uleb128 0x2e
 9700 22b3 01       		.uleb128 0x1
 9701 22b4 50       		.byte	0x50
 9702 22b5 05       		.uleb128 0x5
 9703 22b6 03       		.byte	0x3
 9704 22b7 00000000 		.4byte	.LANCHOR16
 9705 22bb 2E       		.uleb128 0x2e
 9706 22bc 01       		.uleb128 0x1
 9707 22bd 51       		.byte	0x51
 9708 22be 02       		.uleb128 0x2
 9709 22bf 75       		.byte	0x75
 9710 22c0 00       		.sleb128 0
 9711 22c1 2E       		.uleb128 0x2e
 9712 22c2 01       		.uleb128 0x1
 9713 22c3 52       		.byte	0x52
 9714 22c4 03       		.uleb128 0x3
 9715 22c5 0A       		.byte	0xa
 9716 22c6 7401     		.2byte	0x174
 9717 22c8 00       		.byte	0
 9718 22c9 2F       		.uleb128 0x2f
 9719 22ca 60020000 		.4byte	.LVL147
 9720 22ce 23470000 		.4byte	0x4723
 9721 22d2 F3220000 		.4byte	0x22f3
 9722 22d6 2E       		.uleb128 0x2e
 9723 22d7 01       		.uleb128 0x1
 9724 22d8 50       		.byte	0x50
 9725 22d9 05       		.uleb128 0x5
ARM GAS  /var/folders/sv/kgmgr77579zbf78p2zlhkdfr0000gn/T//ccMuP6SP.s 			page 172


 9726 22da F3       		.byte	0xf3
 9727 22db 01       		.uleb128 0x1
 9728 22dc 50       		.byte	0x50
 9729 22dd 23       		.byte	0x23
 9730 22de 01       		.uleb128 0x1
 9731 22df 2E       		.uleb128 0x2e
 9732 22e0 02       		.uleb128 0x2
 9733 22e1 90       		.byte	0x90
 9734 22e2 40       		.uleb128 0x40
 9735 22e3 07       		.uleb128 0x7
 9736 22e4 F4       		.byte	0xf4
 9737 22e5 25       		.uleb128 0x25
 9738 22e6 04       		.byte	0x4
 9739 22e7 00007A44 		.4byte	0x447a0000
 9740 22eb 2E       		.uleb128 0x2e
 9741 22ec 01       		.uleb128 0x1
 9742 22ed 51       		.byte	0x51
 9743 22ee 03       		.uleb128 0x3
 9744 22ef 91       		.byte	0x91
 9745 22f0 807E     		.sleb128 -256
 9746 22f2 00       		.byte	0
 9747 22f3 2F       		.uleb128 0x2f
 9748 22f4 82020000 		.4byte	.LVL149
 9749 22f8 44470000 		.4byte	0x4744
 9750 22fc 07230000 		.4byte	0x2307
 9751 2300 2E       		.uleb128 0x2e
 9752 2301 01       		.uleb128 0x1
 9753 2302 50       		.byte	0x50
 9754 2303 02       		.uleb128 0x2
 9755 2304 75       		.byte	0x75
 9756 2305 00       		.sleb128 0
 9757 2306 00       		.byte	0
 9758 2307 2F       		.uleb128 0x2f
 9759 2308 8C020000 		.4byte	.LVL150
 9760 230c 4F470000 		.4byte	0x474f
 9761 2310 24230000 		.4byte	0x2324
 9762 2314 2E       		.uleb128 0x2e
 9763 2315 02       		.uleb128 0x2
 9764 2316 90       		.byte	0x90
 9765 2317 40       		.uleb128 0x40
 9766 2318 03       		.uleb128 0x3
 9767 2319 F5       		.byte	0xf5
 9768 231a 50       		.uleb128 0x50
 9769 231b 25       		.uleb128 0x25
 9770 231c 2E       		.uleb128 0x2e
 9771 231d 01       		.uleb128 0x1
 9772 231e 50       		.byte	0x50
 9773 231f 03       		.uleb128 0x3
 9774 2320 91       		.byte	0x91
 9775 2321 887E     		.sleb128 -248
 9776 2323 00       		.byte	0
 9777 2324 2F       		.uleb128 0x2f
 9778 2325 94020000 		.4byte	.LVL152
 9779 2329 44470000 		.4byte	0x4744
 9780 232d 3B230000 		.4byte	0x233b
 9781 2331 2E       		.uleb128 0x2e
 9782 2332 01       		.uleb128 0x1
ARM GAS  /var/folders/sv/kgmgr77579zbf78p2zlhkdfr0000gn/T//ccMuP6SP.s 			page 173


 9783 2333 50       		.byte	0x50
 9784 2334 05       		.uleb128 0x5
 9785 2335 03       		.byte	0x3
 9786 2336 00000000 		.4byte	.LANCHOR16
 9787 233a 00       		.byte	0
 9788 233b 30       		.uleb128 0x30
 9789 233c C0020000 		.4byte	.LVL154
 9790 2340 02       		.uleb128 0x2
 9791 2341 77       		.byte	0x77
 9792 2342 00       		.sleb128 0
 9793 2343 2E       		.uleb128 0x2e
 9794 2344 01       		.uleb128 0x1
 9795 2345 50       		.byte	0x50
 9796 2346 05       		.uleb128 0x5
 9797 2347 03       		.byte	0x3
 9798 2348 00000000 		.4byte	.LANCHOR8
 9799 234c 2E       		.uleb128 0x2e
 9800 234d 01       		.uleb128 0x1
 9801 234e 51       		.byte	0x51
 9802 234f 01       		.uleb128 0x1
 9803 2350 3A       		.byte	0x3a
 9804 2351 00       		.byte	0
 9805 2352 00       		.byte	0
 9806 2353 3E       		.uleb128 0x3e
 9807 2354 18010000 		.4byte	.Ldebug_ranges0+0x118
 9808 2358 E1240000 		.4byte	0x24e1
 9809 235c 3D       		.uleb128 0x3d
 9810 235d DF120000 		.4byte	.LASF475
 9811 2361 01       		.byte	0x1
 9812 2362 C602     		.2byte	0x2c6
 9813 2364 25000000 		.4byte	0x25
 9814 2368 C80A0000 		.4byte	.LLST45
 9815 236c 3A       		.uleb128 0x3a
 9816 236d A1200000 		.4byte	.LASF92
 9817 2371 01       		.byte	0x1
 9818 2372 CE02     		.2byte	0x2ce
 9819 2374 25000000 		.4byte	0x25
 9820 2378 03       		.uleb128 0x3
 9821 2379 91       		.byte	0x91
 9822 237a 847E     		.sleb128 -252
 9823 237c 3A       		.uleb128 0x3a
 9824 237d 941B0000 		.4byte	.LASF481
 9825 2381 01       		.byte	0x1
 9826 2382 CF02     		.2byte	0x2cf
 9827 2384 25000000 		.4byte	0x25
 9828 2388 03       		.uleb128 0x3
 9829 2389 91       		.byte	0x91
 9830 238a 887E     		.sleb128 -248
 9831 238c 3A       		.uleb128 0x3a
 9832 238d 69240000 		.4byte	.LASF482
 9833 2391 01       		.byte	0x1
 9834 2392 D002     		.2byte	0x2d0
 9835 2394 E70D0000 		.4byte	0xde7
 9836 2398 03       		.uleb128 0x3
 9837 2399 91       		.byte	0x91
 9838 239a FF7D     		.sleb128 -257
 9839 239c 27       		.uleb128 0x27
ARM GAS  /var/folders/sv/kgmgr77579zbf78p2zlhkdfr0000gn/T//ccMuP6SP.s 			page 174


 9840 239d B5160000 		.4byte	0x16b5
 9841 23a1 92030000 		.4byte	.LBB113
 9842 23a5 30010000 		.4byte	.Ldebug_ranges0+0x130
 9843 23a9 01       		.byte	0x1
 9844 23aa DC02     		.2byte	0x2dc
 9845 23ac CF230000 		.4byte	0x23cf
 9846 23b0 28       		.uleb128 0x28
 9847 23b1 CC160000 		.4byte	0x16cc
 9848 23b5 F40A0000 		.4byte	.LLST46
 9849 23b9 28       		.uleb128 0x28
 9850 23ba C1160000 		.4byte	0x16c1
 9851 23be 070B0000 		.4byte	.LLST47
 9852 23c2 2D       		.uleb128 0x2d
 9853 23c3 96030000 		.4byte	.LVL170
 9854 23c7 2E       		.uleb128 0x2e
 9855 23c8 01       		.uleb128 0x1
 9856 23c9 50       		.byte	0x50
 9857 23ca 02       		.uleb128 0x2
 9858 23cb 76       		.byte	0x76
 9859 23cc 00       		.sleb128 0
 9860 23cd 00       		.byte	0
 9861 23ce 00       		.byte	0
 9862 23cf 49       		.uleb128 0x49
 9863 23d0 D2020000 		.4byte	.LVL157
 9864 23d4 5A470000 		.4byte	0x475a
 9865 23d8 2F       		.uleb128 0x2f
 9866 23d9 EC020000 		.4byte	.LVL160
 9867 23dd F9460000 		.4byte	0x46f9
 9868 23e1 F3230000 		.4byte	0x23f3
 9869 23e5 2E       		.uleb128 0x2e
 9870 23e6 01       		.uleb128 0x1
 9871 23e7 50       		.byte	0x50
 9872 23e8 02       		.uleb128 0x2
 9873 23e9 75       		.byte	0x75
 9874 23ea 00       		.sleb128 0
 9875 23eb 2E       		.uleb128 0x2e
 9876 23ec 01       		.uleb128 0x1
 9877 23ed 52       		.byte	0x52
 9878 23ee 03       		.uleb128 0x3
 9879 23ef 0A       		.byte	0xa
 9880 23f0 7401     		.2byte	0x174
 9881 23f2 00       		.byte	0
 9882 23f3 2F       		.uleb128 0x2f
 9883 23f4 FC020000 		.4byte	.LVL161
 9884 23f8 F9460000 		.4byte	0x46f9
 9885 23fc 17240000 		.4byte	0x2417
 9886 2400 2E       		.uleb128 0x2e
 9887 2401 01       		.uleb128 0x1
 9888 2402 50       		.byte	0x50
 9889 2403 05       		.uleb128 0x5
 9890 2404 03       		.byte	0x3
 9891 2405 00000000 		.4byte	.LANCHOR16
 9892 2409 2E       		.uleb128 0x2e
 9893 240a 01       		.uleb128 0x1
 9894 240b 51       		.byte	0x51
 9895 240c 02       		.uleb128 0x2
 9896 240d 75       		.byte	0x75
ARM GAS  /var/folders/sv/kgmgr77579zbf78p2zlhkdfr0000gn/T//ccMuP6SP.s 			page 175


 9897 240e 00       		.sleb128 0
 9898 240f 2E       		.uleb128 0x2e
 9899 2410 01       		.uleb128 0x1
 9900 2411 52       		.byte	0x52
 9901 2412 03       		.uleb128 0x3
 9902 2413 0A       		.byte	0xa
 9903 2414 7401     		.2byte	0x174
 9904 2416 00       		.byte	0
 9905 2417 2F       		.uleb128 0x2f
 9906 2418 14030000 		.4byte	.LVL162
 9907 241c 23470000 		.4byte	0x4723
 9908 2420 3D240000 		.4byte	0x243d
 9909 2424 2E       		.uleb128 0x2e
 9910 2425 01       		.uleb128 0x1
 9911 2426 50       		.byte	0x50
 9912 2427 02       		.uleb128 0x2
 9913 2428 74       		.byte	0x74
 9914 2429 00       		.sleb128 0
 9915 242a 2E       		.uleb128 0x2e
 9916 242b 02       		.uleb128 0x2
 9917 242c 90       		.byte	0x90
 9918 242d 40       		.uleb128 0x40
 9919 242e 07       		.uleb128 0x7
 9920 242f F4       		.byte	0xf4
 9921 2430 25       		.uleb128 0x25
 9922 2431 04       		.byte	0x4
 9923 2432 00007A44 		.4byte	0x447a0000
 9924 2436 2E       		.uleb128 0x2e
 9925 2437 01       		.uleb128 0x1
 9926 2438 51       		.byte	0x51
 9927 2439 02       		.uleb128 0x2
 9928 243a 77       		.byte	0x77
 9929 243b 00       		.sleb128 0
 9930 243c 00       		.byte	0
 9931 243d 2F       		.uleb128 0x2f
 9932 243e 34030000 		.4byte	.LVL164
 9933 2442 44470000 		.4byte	0x4744
 9934 2446 51240000 		.4byte	0x2451
 9935 244a 2E       		.uleb128 0x2e
 9936 244b 01       		.uleb128 0x1
 9937 244c 50       		.byte	0x50
 9938 244d 02       		.uleb128 0x2
 9939 244e 75       		.byte	0x75
 9940 244f 00       		.sleb128 0
 9941 2450 00       		.byte	0
 9942 2451 2F       		.uleb128 0x2f
 9943 2452 4E030000 		.4byte	.LVL166
 9944 2456 65470000 		.4byte	0x4765
 9945 245a 81240000 		.4byte	0x2481
 9946 245e 2E       		.uleb128 0x2e
 9947 245f 02       		.uleb128 0x2
 9948 2460 90       		.byte	0x90
 9949 2461 40       		.uleb128 0x40
 9950 2462 03       		.uleb128 0x3
 9951 2463 F5       		.byte	0xf5
 9952 2464 50       		.uleb128 0x50
 9953 2465 25       		.uleb128 0x25
ARM GAS  /var/folders/sv/kgmgr77579zbf78p2zlhkdfr0000gn/T//ccMuP6SP.s 			page 176


 9954 2466 2E       		.uleb128 0x2e
 9955 2467 01       		.uleb128 0x1
 9956 2468 50       		.byte	0x50
 9957 2469 02       		.uleb128 0x2
 9958 246a 74       		.byte	0x74
 9959 246b 00       		.sleb128 0
 9960 246c 2E       		.uleb128 0x2e
 9961 246d 01       		.uleb128 0x1
 9962 246e 51       		.byte	0x51
 9963 246f 03       		.uleb128 0x3
 9964 2470 91       		.byte	0x91
 9965 2471 847E     		.sleb128 -252
 9966 2473 2E       		.uleb128 0x2e
 9967 2474 01       		.uleb128 0x1
 9968 2475 52       		.byte	0x52
 9969 2476 03       		.uleb128 0x3
 9970 2477 91       		.byte	0x91
 9971 2478 887E     		.sleb128 -248
 9972 247a 2E       		.uleb128 0x2e
 9973 247b 01       		.uleb128 0x1
 9974 247c 53       		.byte	0x53
 9975 247d 02       		.uleb128 0x2
 9976 247e 77       		.byte	0x77
 9977 247f 7F       		.sleb128 -1
 9978 2480 00       		.byte	0
 9979 2481 2F       		.uleb128 0x2f
 9980 2482 54030000 		.4byte	.LVL167
 9981 2486 44470000 		.4byte	0x4744
 9982 248a 98240000 		.4byte	0x2498
 9983 248e 2E       		.uleb128 0x2e
 9984 248f 01       		.uleb128 0x1
 9985 2490 50       		.byte	0x50
 9986 2491 05       		.uleb128 0x5
 9987 2492 03       		.byte	0x3
 9988 2493 00000000 		.4byte	.LANCHOR16
 9989 2497 00       		.byte	0
 9990 2498 2F       		.uleb128 0x2f
 9991 2499 6C030000 		.4byte	.LVL168
 9992 249d 39470000 		.4byte	0x4739
 9993 24a1 BE240000 		.4byte	0x24be
 9994 24a5 2E       		.uleb128 0x2e
 9995 24a6 01       		.uleb128 0x1
 9996 24a7 50       		.byte	0x50
 9997 24a8 02       		.uleb128 0x2
 9998 24a9 76       		.byte	0x76
 9999 24aa 00       		.sleb128 0
 10000 24ab 2E       		.uleb128 0x2e
 10001 24ac 02       		.uleb128 0x2
 10002 24ad 90       		.byte	0x90
 10003 24ae 41       		.uleb128 0x41
 10004 24af 07       		.uleb128 0x7
 10005 24b0 F4       		.byte	0xf4
 10006 24b1 25       		.uleb128 0x25
 10007 24b2 04       		.byte	0x4
 10008 24b3 00247449 		.4byte	0x49742400
 10009 24b7 2E       		.uleb128 0x2e
 10010 24b8 01       		.uleb128 0x1
ARM GAS  /var/folders/sv/kgmgr77579zbf78p2zlhkdfr0000gn/T//ccMuP6SP.s 			page 177


 10011 24b9 51       		.byte	0x51
 10012 24ba 02       		.uleb128 0x2
 10013 24bb 77       		.byte	0x77
 10014 24bc 00       		.sleb128 0
 10015 24bd 00       		.byte	0
 10016 24be 32       		.uleb128 0x32
 10017 24bf 7C030000 		.4byte	.LVL169
 10018 24c3 39470000 		.4byte	0x4739
 10019 24c7 2E       		.uleb128 0x2e
 10020 24c8 01       		.uleb128 0x1
 10021 24c9 50       		.byte	0x50
 10022 24ca 02       		.uleb128 0x2
 10023 24cb 76       		.byte	0x76
 10024 24cc 00       		.sleb128 0
 10025 24cd 2E       		.uleb128 0x2e
 10026 24ce 02       		.uleb128 0x2
 10027 24cf 90       		.byte	0x90
 10028 24d0 41       		.uleb128 0x41
 10029 24d1 07       		.uleb128 0x7
 10030 24d2 F4       		.byte	0xf4
 10031 24d3 25       		.uleb128 0x25
 10032 24d4 04       		.byte	0x4
 10033 24d5 00247449 		.4byte	0x49742400
 10034 24d9 2E       		.uleb128 0x2e
 10035 24da 01       		.uleb128 0x1
 10036 24db 51       		.byte	0x51
 10037 24dc 02       		.uleb128 0x2
 10038 24dd 77       		.byte	0x77
 10039 24de 00       		.sleb128 0
 10040 24df 00       		.byte	0
 10041 24e0 00       		.byte	0
 10042 24e1 4A       		.uleb128 0x4a
 10043 24e2 CC030000 		.4byte	.LBB117
 10044 24e6 94000000 		.4byte	.LBE117-.LBB117
 10045 24ea F2250000 		.4byte	0x25f2
 10046 24ee 2A       		.uleb128 0x2a
 10047 24ef 7200     		.ascii	"r\000"
 10048 24f1 01       		.byte	0x1
 10049 24f2 8D02     		.2byte	0x28d
 10050 24f4 25000000 		.4byte	0x25
 10051 24f8 03       		.uleb128 0x3
 10052 24f9 91       		.byte	0x91
 10053 24fa 847E     		.sleb128 -252
 10054 24fc 2A       		.uleb128 0x2a
 10055 24fd 6C00     		.ascii	"l\000"
 10056 24ff 01       		.byte	0x1
 10057 2500 8E02     		.2byte	0x28e
 10058 2502 25000000 		.4byte	0x25
 10059 2506 03       		.uleb128 0x3
 10060 2507 91       		.byte	0x91
 10061 2508 887E     		.sleb128 -248
 10062 250a 39       		.uleb128 0x39
 10063 250b 72657300 		.ascii	"res\000"
 10064 250f 01       		.byte	0x1
 10065 2510 8F02     		.2byte	0x28f
 10066 2512 E70D0000 		.4byte	0xde7
 10067 2516 1F0B0000 		.4byte	.LLST48
ARM GAS  /var/folders/sv/kgmgr77579zbf78p2zlhkdfr0000gn/T//ccMuP6SP.s 			page 178


 10068 251a 49       		.uleb128 0x49
 10069 251b D0030000 		.4byte	.LVL172
 10070 251f 5A470000 		.4byte	0x475a
 10071 2523 2F       		.uleb128 0x2f
 10072 2524 E6030000 		.4byte	.LVL175
 10073 2528 F9460000 		.4byte	0x46f9
 10074 252c 3E250000 		.4byte	0x253e
 10075 2530 2E       		.uleb128 0x2e
 10076 2531 01       		.uleb128 0x1
 10077 2532 50       		.byte	0x50
 10078 2533 02       		.uleb128 0x2
 10079 2534 74       		.byte	0x74
 10080 2535 00       		.sleb128 0
 10081 2536 2E       		.uleb128 0x2e
 10082 2537 01       		.uleb128 0x1
 10083 2538 52       		.byte	0x52
 10084 2539 03       		.uleb128 0x3
 10085 253a 0A       		.byte	0xa
 10086 253b 7401     		.2byte	0x174
 10087 253d 00       		.byte	0
 10088 253e 2F       		.uleb128 0x2f
 10089 253f F2030000 		.4byte	.LVL176
 10090 2543 F9460000 		.4byte	0x46f9
 10091 2547 62250000 		.4byte	0x2562
 10092 254b 2E       		.uleb128 0x2e
 10093 254c 01       		.uleb128 0x1
 10094 254d 50       		.byte	0x50
 10095 254e 05       		.uleb128 0x5
 10096 254f 03       		.byte	0x3
 10097 2550 00000000 		.4byte	.LANCHOR16
 10098 2554 2E       		.uleb128 0x2e
 10099 2555 01       		.uleb128 0x1
 10100 2556 51       		.byte	0x51
 10101 2557 02       		.uleb128 0x2
 10102 2558 74       		.byte	0x74
 10103 2559 00       		.sleb128 0
 10104 255a 2E       		.uleb128 0x2e
 10105 255b 01       		.uleb128 0x1
 10106 255c 52       		.byte	0x52
 10107 255d 03       		.uleb128 0x3
 10108 255e 0A       		.byte	0xa
 10109 255f 7401     		.2byte	0x174
 10110 2561 00       		.byte	0
 10111 2562 2F       		.uleb128 0x2f
 10112 2563 00040000 		.4byte	.LVL177
 10113 2567 44470000 		.4byte	0x4744
 10114 256b 76250000 		.4byte	0x2576
 10115 256f 2E       		.uleb128 0x2e
 10116 2570 01       		.uleb128 0x1
 10117 2571 50       		.byte	0x50
 10118 2572 02       		.uleb128 0x2
 10119 2573 74       		.byte	0x74
 10120 2574 00       		.sleb128 0
 10121 2575 00       		.byte	0
 10122 2576 2F       		.uleb128 0x2f
 10123 2577 14040000 		.4byte	.LVL178
 10124 257b 70470000 		.4byte	0x4770
ARM GAS  /var/folders/sv/kgmgr77579zbf78p2zlhkdfr0000gn/T//ccMuP6SP.s 			page 179


 10125 257f 92250000 		.4byte	0x2592
 10126 2583 2E       		.uleb128 0x2e
 10127 2584 01       		.uleb128 0x1
 10128 2585 50       		.byte	0x50
 10129 2586 03       		.uleb128 0x3
 10130 2587 91       		.byte	0x91
 10131 2588 847E     		.sleb128 -252
 10132 258a 2E       		.uleb128 0x2e
 10133 258b 01       		.uleb128 0x1
 10134 258c 51       		.byte	0x51
 10135 258d 03       		.uleb128 0x3
 10136 258e 91       		.byte	0x91
 10137 258f 887E     		.sleb128 -248
 10138 2591 00       		.byte	0
 10139 2592 2F       		.uleb128 0x2f
 10140 2593 1C040000 		.4byte	.LVL180
 10141 2597 44470000 		.4byte	0x4744
 10142 259b A9250000 		.4byte	0x25a9
 10143 259f 2E       		.uleb128 0x2e
 10144 25a0 01       		.uleb128 0x1
 10145 25a1 50       		.byte	0x50
 10146 25a2 05       		.uleb128 0x5
 10147 25a3 03       		.byte	0x3
 10148 25a4 00000000 		.4byte	.LANCHOR16
 10149 25a8 00       		.byte	0
 10150 25a9 2F       		.uleb128 0x2f
 10151 25aa 48040000 		.4byte	.LVL183
 10152 25ae 39470000 		.4byte	0x4739
 10153 25b2 CF250000 		.4byte	0x25cf
 10154 25b6 2E       		.uleb128 0x2e
 10155 25b7 01       		.uleb128 0x1
 10156 25b8 50       		.byte	0x50
 10157 25b9 02       		.uleb128 0x2
 10158 25ba 74       		.byte	0x74
 10159 25bb 00       		.sleb128 0
 10160 25bc 2E       		.uleb128 0x2e
 10161 25bd 02       		.uleb128 0x2
 10162 25be 90       		.byte	0x90
 10163 25bf 41       		.uleb128 0x41
 10164 25c0 07       		.uleb128 0x7
 10165 25c1 F4       		.byte	0xf4
 10166 25c2 25       		.uleb128 0x25
 10167 25c3 04       		.byte	0x4
 10168 25c4 00247449 		.4byte	0x49742400
 10169 25c8 2E       		.uleb128 0x2e
 10170 25c9 01       		.uleb128 0x1
 10171 25ca 51       		.byte	0x51
 10172 25cb 02       		.uleb128 0x2
 10173 25cc 77       		.byte	0x77
 10174 25cd 00       		.sleb128 0
 10175 25ce 00       		.byte	0
 10176 25cf 32       		.uleb128 0x32
 10177 25d0 58040000 		.4byte	.LVL184
 10178 25d4 39470000 		.4byte	0x4739
 10179 25d8 2E       		.uleb128 0x2e
 10180 25d9 01       		.uleb128 0x1
 10181 25da 50       		.byte	0x50
ARM GAS  /var/folders/sv/kgmgr77579zbf78p2zlhkdfr0000gn/T//ccMuP6SP.s 			page 180


 10182 25db 02       		.uleb128 0x2
 10183 25dc 74       		.byte	0x74
 10184 25dd 00       		.sleb128 0
 10185 25de 2E       		.uleb128 0x2e
 10186 25df 02       		.uleb128 0x2
 10187 25e0 90       		.byte	0x90
 10188 25e1 41       		.uleb128 0x41
 10189 25e2 07       		.uleb128 0x7
 10190 25e3 F4       		.byte	0xf4
 10191 25e4 25       		.uleb128 0x25
 10192 25e5 04       		.byte	0x4
 10193 25e6 00007A44 		.4byte	0x447a0000
 10194 25ea 2E       		.uleb128 0x2e
 10195 25eb 01       		.uleb128 0x1
 10196 25ec 51       		.byte	0x51
 10197 25ed 02       		.uleb128 0x2
 10198 25ee 77       		.byte	0x77
 10199 25ef 00       		.sleb128 0
 10200 25f0 00       		.byte	0
 10201 25f1 00       		.byte	0
 10202 25f2 27       		.uleb128 0x27
 10203 25f3 B5160000 		.4byte	0x16b5
 10204 25f7 54080000 		.4byte	.LBB119
 10205 25fb 48010000 		.4byte	.Ldebug_ranges0+0x148
 10206 25ff 01       		.byte	0x1
 10207 2600 5A02     		.2byte	0x25a
 10208 2602 2E260000 		.4byte	0x262e
 10209 2606 28       		.uleb128 0x28
 10210 2607 CC160000 		.4byte	0x16cc
 10211 260b 3D0B0000 		.4byte	.LLST49
 10212 260f 28       		.uleb128 0x28
 10213 2610 C1160000 		.4byte	0x16c1
 10214 2614 510B0000 		.4byte	.LLST50
 10215 2618 2D       		.uleb128 0x2d
 10216 2619 6A080000 		.4byte	.LVL238
 10217 261d 2E       		.uleb128 0x2e
 10218 261e 01       		.uleb128 0x1
 10219 261f 50       		.byte	0x50
 10220 2620 05       		.uleb128 0x5
 10221 2621 03       		.byte	0x3
 10222 2622 00000000 		.4byte	.LANCHOR8
 10223 2626 2E       		.uleb128 0x2e
 10224 2627 01       		.uleb128 0x1
 10225 2628 51       		.byte	0x51
 10226 2629 02       		.uleb128 0x2
 10227 262a 75       		.byte	0x75
 10228 262b 00       		.sleb128 0
 10229 262c 00       		.byte	0
 10230 262d 00       		.byte	0
 10231 262e 4A       		.uleb128 0x4a
 10232 262f 78080000 		.4byte	.LBB125
 10233 2633 20000000 		.4byte	.LBE125-.LBB125
 10234 2637 97260000 		.4byte	0x2697
 10235 263b 3D       		.uleb128 0x3d
 10236 263c A7160000 		.4byte	.LASF483
 10237 2640 01       		.byte	0x1
 10238 2641 6902     		.2byte	0x269
ARM GAS  /var/folders/sv/kgmgr77579zbf78p2zlhkdfr0000gn/T//ccMuP6SP.s 			page 181


 10239 2643 CA000000 		.4byte	0xca
 10240 2647 690B0000 		.4byte	.LLST51
 10241 264b 3D       		.uleb128 0x3d
 10242 264c 73260000 		.4byte	.LASF484
 10243 2650 01       		.byte	0x1
 10244 2651 6A02     		.2byte	0x26a
 10245 2653 BF000000 		.4byte	0xbf
 10246 2657 7C0B0000 		.4byte	.LLST52
 10247 265b 3D       		.uleb128 0x3d
 10248 265c CA060000 		.4byte	.LASF485
 10249 2660 01       		.byte	0x1
 10250 2661 6B02     		.2byte	0x26b
 10251 2663 F7080000 		.4byte	0x8f7
 10252 2667 950B0000 		.4byte	.LLST53
 10253 266b 2F       		.uleb128 0x2f
 10254 266c 88080000 		.4byte	.LVL242
 10255 2670 7B470000 		.4byte	0x477b
 10256 2674 86260000 		.4byte	0x2686
 10257 2678 2E       		.uleb128 0x2e
 10258 2679 01       		.uleb128 0x1
 10259 267a 50       		.byte	0x50
 10260 267b 02       		.uleb128 0x2
 10261 267c 74       		.byte	0x74
 10262 267d 00       		.sleb128 0
 10263 267e 2E       		.uleb128 0x2e
 10264 267f 01       		.uleb128 0x1
 10265 2680 51       		.byte	0x51
 10266 2681 03       		.uleb128 0x3
 10267 2682 91       		.byte	0x91
 10268 2683 807E     		.sleb128 -256
 10269 2685 00       		.byte	0
 10270 2686 32       		.uleb128 0x32
 10271 2687 98080000 		.4byte	.LVL245
 10272 268b 86470000 		.4byte	0x4786
 10273 268f 2E       		.uleb128 0x2e
 10274 2690 01       		.uleb128 0x1
 10275 2691 50       		.byte	0x50
 10276 2692 02       		.uleb128 0x2
 10277 2693 75       		.byte	0x75
 10278 2694 00       		.sleb128 0
 10279 2695 00       		.byte	0
 10280 2696 00       		.byte	0
 10281 2697 27       		.uleb128 0x27
 10282 2698 B5160000 		.4byte	0x16b5
 10283 269c EA0C0000 		.4byte	.LBB126
 10284 26a0 68010000 		.4byte	.Ldebug_ranges0+0x168
 10285 26a4 01       		.byte	0x1
 10286 26a5 0302     		.2byte	0x203
 10287 26a7 BE260000 		.4byte	0x26be
 10288 26ab 28       		.uleb128 0x28
 10289 26ac CC160000 		.4byte	0x16cc
 10290 26b0 A80B0000 		.4byte	.LLST54
 10291 26b4 28       		.uleb128 0x28
 10292 26b5 C1160000 		.4byte	0x16c1
 10293 26b9 BB0B0000 		.4byte	.LLST55
 10294 26bd 00       		.byte	0
 10295 26be 27       		.uleb128 0x27
ARM GAS  /var/folders/sv/kgmgr77579zbf78p2zlhkdfr0000gn/T//ccMuP6SP.s 			page 182


 10296 26bf B5160000 		.4byte	0x16b5
 10297 26c3 96120000 		.4byte	.LBB130
 10298 26c7 80010000 		.4byte	.Ldebug_ranges0+0x180
 10299 26cb 01       		.byte	0x1
 10300 26cc 8F01     		.2byte	0x18f
 10301 26ce E5260000 		.4byte	0x26e5
 10302 26d2 28       		.uleb128 0x28
 10303 26d3 CC160000 		.4byte	0x16cc
 10304 26d7 D30B0000 		.4byte	.LLST56
 10305 26db 28       		.uleb128 0x28
 10306 26dc C1160000 		.4byte	0x16c1
 10307 26e0 E70B0000 		.4byte	.LLST57
 10308 26e4 00       		.byte	0
 10309 26e5 27       		.uleb128 0x27
 10310 26e6 B5160000 		.4byte	0x16b5
 10311 26ea AA120000 		.4byte	.LBB136
 10312 26ee A0010000 		.4byte	.Ldebug_ranges0+0x1a0
 10313 26f2 01       		.byte	0x1
 10314 26f3 5203     		.2byte	0x352
 10315 26f5 0C270000 		.4byte	0x270c
 10316 26f9 28       		.uleb128 0x28
 10317 26fa CC160000 		.4byte	0x16cc
 10318 26fe FF0B0000 		.4byte	.LLST58
 10319 2702 28       		.uleb128 0x28
 10320 2703 C1160000 		.4byte	0x16c1
 10321 2707 130C0000 		.4byte	.LLST59
 10322 270b 00       		.byte	0
 10323 270c 4B       		.uleb128 0x4b
 10324 270d B5160000 		.4byte	0x16b5
 10325 2711 B0140000 		.4byte	.LBB141
 10326 2715 C8010000 		.4byte	.Ldebug_ranges0+0x1c8
 10327 2719 01       		.byte	0x1
 10328 271a B8       		.byte	0xb8
 10329 271b 32270000 		.4byte	0x2732
 10330 271f 28       		.uleb128 0x28
 10331 2720 CC160000 		.4byte	0x16cc
 10332 2724 2B0C0000 		.4byte	.LLST60
 10333 2728 28       		.uleb128 0x28
 10334 2729 C1160000 		.4byte	0x16c1
 10335 272d 3E0C0000 		.4byte	.LLST61
 10336 2731 00       		.byte	0
 10337 2732 4B       		.uleb128 0x4b
 10338 2733 B5160000 		.4byte	0x16b5
 10339 2737 D2140000 		.4byte	.LBB145
 10340 273b E0010000 		.4byte	.Ldebug_ranges0+0x1e0
 10341 273f 01       		.byte	0x1
 10342 2740 A1       		.byte	0xa1
 10343 2741 67270000 		.4byte	0x2767
 10344 2745 28       		.uleb128 0x28
 10345 2746 CC160000 		.4byte	0x16cc
 10346 274a 560C0000 		.4byte	.LLST62
 10347 274e 28       		.uleb128 0x28
 10348 274f C1160000 		.4byte	0x16c1
 10349 2753 6A0C0000 		.4byte	.LLST63
 10350 2757 2D       		.uleb128 0x2d
 10351 2758 F6140000 		.4byte	.LVL484
 10352 275c 2E       		.uleb128 0x2e
ARM GAS  /var/folders/sv/kgmgr77579zbf78p2zlhkdfr0000gn/T//ccMuP6SP.s 			page 183


 10353 275d 01       		.uleb128 0x1
 10354 275e 50       		.byte	0x50
 10355 275f 05       		.uleb128 0x5
 10356 2760 03       		.byte	0x3
 10357 2761 00000000 		.4byte	.LANCHOR8
 10358 2765 00       		.byte	0
 10359 2766 00       		.byte	0
 10360 2767 4B       		.uleb128 0x4b
 10361 2768 B5160000 		.4byte	0x16b5
 10362 276c 06150000 		.4byte	.LBB151
 10363 2770 00020000 		.4byte	.Ldebug_ranges0+0x200
 10364 2774 01       		.byte	0x1
 10365 2775 96       		.byte	0x96
 10366 2776 8D270000 		.4byte	0x278d
 10367 277a 28       		.uleb128 0x28
 10368 277b CC160000 		.4byte	0x16cc
 10369 277f 820C0000 		.4byte	.LLST64
 10370 2783 28       		.uleb128 0x28
 10371 2784 C1160000 		.4byte	0x16c1
 10372 2788 960C0000 		.4byte	.LLST65
 10373 278c 00       		.byte	0
 10374 278d 4B       		.uleb128 0x4b
 10375 278e B5160000 		.4byte	0x16b5
 10376 2792 48150000 		.4byte	.LBB157
 10377 2796 20020000 		.4byte	.Ldebug_ranges0+0x220
 10378 279a 01       		.byte	0x1
 10379 279b 88       		.byte	0x88
 10380 279c CA270000 		.4byte	0x27ca
 10381 27a0 28       		.uleb128 0x28
 10382 27a1 CC160000 		.4byte	0x16cc
 10383 27a5 AE0C0000 		.4byte	.LLST66
 10384 27a9 28       		.uleb128 0x28
 10385 27aa C1160000 		.4byte	0x16c1
 10386 27ae C20C0000 		.4byte	.LLST67
 10387 27b2 30       		.uleb128 0x30
 10388 27b3 66150000 		.4byte	.LVL494
 10389 27b7 02       		.uleb128 0x2
 10390 27b8 74       		.byte	0x74
 10391 27b9 00       		.sleb128 0
 10392 27ba 2E       		.uleb128 0x2e
 10393 27bb 01       		.uleb128 0x1
 10394 27bc 50       		.byte	0x50
 10395 27bd 05       		.uleb128 0x5
 10396 27be 03       		.byte	0x3
 10397 27bf 00000000 		.4byte	.LANCHOR8
 10398 27c3 2E       		.uleb128 0x2e
 10399 27c4 01       		.uleb128 0x1
 10400 27c5 51       		.byte	0x51
 10401 27c6 01       		.uleb128 0x1
 10402 27c7 43       		.byte	0x43
 10403 27c8 00       		.byte	0
 10404 27c9 00       		.byte	0
 10405 27ca 27       		.uleb128 0x27
 10406 27cb B5160000 		.4byte	0x16b5
 10407 27cf B0160000 		.4byte	.LBB167
 10408 27d3 40020000 		.4byte	.Ldebug_ranges0+0x240
 10409 27d7 01       		.byte	0x1
ARM GAS  /var/folders/sv/kgmgr77579zbf78p2zlhkdfr0000gn/T//ccMuP6SP.s 			page 184


 10410 27d8 E402     		.2byte	0x2e4
 10411 27da F1270000 		.4byte	0x27f1
 10412 27de 28       		.uleb128 0x28
 10413 27df CC160000 		.4byte	0x16cc
 10414 27e3 DA0C0000 		.4byte	.LLST68
 10415 27e7 28       		.uleb128 0x28
 10416 27e8 C1160000 		.4byte	0x16c1
 10417 27ec ED0C0000 		.4byte	.LLST69
 10418 27f0 00       		.byte	0
 10419 27f1 49       		.uleb128 0x49
 10420 27f2 10010000 		.4byte	.LVL113
 10421 27f6 5A470000 		.4byte	0x475a
 10422 27fa 2F       		.uleb128 0x2f
 10423 27fb 1E010000 		.4byte	.LVL114
 10424 27ff F9460000 		.4byte	0x46f9
 10425 2803 18280000 		.4byte	0x2818
 10426 2807 2E       		.uleb128 0x2e
 10427 2808 01       		.uleb128 0x1
 10428 2809 50       		.byte	0x50
 10429 280a 05       		.uleb128 0x5
 10430 280b 03       		.byte	0x3
 10431 280c 00000000 		.4byte	.LANCHOR15
 10432 2810 2E       		.uleb128 0x2e
 10433 2811 01       		.uleb128 0x1
 10434 2812 52       		.byte	0x52
 10435 2813 03       		.uleb128 0x3
 10436 2814 0A       		.byte	0xa
 10437 2815 7401     		.2byte	0x174
 10438 2817 00       		.byte	0
 10439 2818 49       		.uleb128 0x49
 10440 2819 3A010000 		.4byte	.LVL115
 10441 281d 91470000 		.4byte	0x4791
 10442 2821 49       		.uleb128 0x49
 10443 2822 3E010000 		.4byte	.LVL116
 10444 2826 9C470000 		.4byte	0x479c
 10445 282a 49       		.uleb128 0x49
 10446 282b 56010000 		.4byte	.LVL119
 10447 282f A7470000 		.4byte	0x47a7
 10448 2833 2F       		.uleb128 0x2f
 10449 2834 6A010000 		.4byte	.LVL120
 10450 2838 D7460000 		.4byte	0x46d7
 10451 283c 4D280000 		.4byte	0x284d
 10452 2840 2E       		.uleb128 0x2e
 10453 2841 01       		.uleb128 0x1
 10454 2842 50       		.byte	0x50
 10455 2843 02       		.uleb128 0x2
 10456 2844 74       		.byte	0x74
 10457 2845 00       		.sleb128 0
 10458 2846 2E       		.uleb128 0x2e
 10459 2847 01       		.uleb128 0x1
 10460 2848 52       		.byte	0x52
 10461 2849 02       		.uleb128 0x2
 10462 284a 75       		.byte	0x75
 10463 284b 00       		.sleb128 0
 10464 284c 00       		.byte	0
 10465 284d 2F       		.uleb128 0x2f
 10466 284e 70010000 		.4byte	.LVL121
ARM GAS  /var/folders/sv/kgmgr77579zbf78p2zlhkdfr0000gn/T//ccMuP6SP.s 			page 185


 10467 2852 B2470000 		.4byte	0x47b2
 10468 2856 60280000 		.4byte	0x2860
 10469 285a 2E       		.uleb128 0x2e
 10470 285b 01       		.uleb128 0x1
 10471 285c 50       		.byte	0x50
 10472 285d 01       		.uleb128 0x1
 10473 285e 30       		.byte	0x30
 10474 285f 00       		.byte	0
 10475 2860 2F       		.uleb128 0x2f
 10476 2861 84010000 		.4byte	.LVL122
 10477 2865 D7460000 		.4byte	0x46d7
 10478 2869 7A280000 		.4byte	0x287a
 10479 286d 2E       		.uleb128 0x2e
 10480 286e 01       		.uleb128 0x1
 10481 286f 50       		.byte	0x50
 10482 2870 02       		.uleb128 0x2
 10483 2871 74       		.byte	0x74
 10484 2872 00       		.sleb128 0
 10485 2873 2E       		.uleb128 0x2e
 10486 2874 01       		.uleb128 0x1
 10487 2875 52       		.byte	0x52
 10488 2876 02       		.uleb128 0x2
 10489 2877 75       		.byte	0x75
 10490 2878 00       		.sleb128 0
 10491 2879 00       		.byte	0
 10492 287a 4C       		.uleb128 0x4c
 10493 287b 92010000 		.4byte	.LVL125
 10494 287f 8A280000 		.4byte	0x288a
 10495 2883 2E       		.uleb128 0x2e
 10496 2884 01       		.uleb128 0x1
 10497 2885 50       		.byte	0x50
 10498 2886 02       		.uleb128 0x2
 10499 2887 74       		.byte	0x74
 10500 2888 00       		.sleb128 0
 10501 2889 00       		.byte	0
 10502 288a 49       		.uleb128 0x49
 10503 288b AE010000 		.4byte	.LVL129
 10504 288f BD470000 		.4byte	0x47bd
 10505 2893 49       		.uleb128 0x49
 10506 2894 CE010000 		.4byte	.LVL133
 10507 2898 C8470000 		.4byte	0x47c8
 10508 289c 2F       		.uleb128 0x2f
 10509 289d E2010000 		.4byte	.LVL134
 10510 28a1 D7460000 		.4byte	0x46d7
 10511 28a5 B6280000 		.4byte	0x28b6
 10512 28a9 2E       		.uleb128 0x2e
 10513 28aa 01       		.uleb128 0x1
 10514 28ab 50       		.byte	0x50
 10515 28ac 02       		.uleb128 0x2
 10516 28ad 74       		.byte	0x74
 10517 28ae 00       		.sleb128 0
 10518 28af 2E       		.uleb128 0x2e
 10519 28b0 01       		.uleb128 0x1
 10520 28b1 52       		.byte	0x52
 10521 28b2 02       		.uleb128 0x2
 10522 28b3 75       		.byte	0x75
 10523 28b4 00       		.sleb128 0
ARM GAS  /var/folders/sv/kgmgr77579zbf78p2zlhkdfr0000gn/T//ccMuP6SP.s 			page 186


 10524 28b5 00       		.byte	0
 10525 28b6 49       		.uleb128 0x49
 10526 28b7 E6010000 		.4byte	.LVL135
 10527 28bb D3470000 		.4byte	0x47d3
 10528 28bf 2F       		.uleb128 0x2f
 10529 28c0 FA010000 		.4byte	.LVL136
 10530 28c4 D7460000 		.4byte	0x46d7
 10531 28c8 D9280000 		.4byte	0x28d9
 10532 28cc 2E       		.uleb128 0x2e
 10533 28cd 01       		.uleb128 0x1
 10534 28ce 50       		.byte	0x50
 10535 28cf 02       		.uleb128 0x2
 10536 28d0 74       		.byte	0x74
 10537 28d1 00       		.sleb128 0
 10538 28d2 2E       		.uleb128 0x2e
 10539 28d3 01       		.uleb128 0x1
 10540 28d4 52       		.byte	0x52
 10541 28d5 02       		.uleb128 0x2
 10542 28d6 75       		.byte	0x75
 10543 28d7 00       		.sleb128 0
 10544 28d8 00       		.byte	0
 10545 28d9 49       		.uleb128 0x49
 10546 28da FE010000 		.4byte	.LVL137
 10547 28de DE470000 		.4byte	0x47de
 10548 28e2 2F       		.uleb128 0x2f
 10549 28e3 12020000 		.4byte	.LVL138
 10550 28e7 D7460000 		.4byte	0x46d7
 10551 28eb FC280000 		.4byte	0x28fc
 10552 28ef 2E       		.uleb128 0x2e
 10553 28f0 01       		.uleb128 0x1
 10554 28f1 50       		.byte	0x50
 10555 28f2 02       		.uleb128 0x2
 10556 28f3 74       		.byte	0x74
 10557 28f4 00       		.sleb128 0
 10558 28f5 2E       		.uleb128 0x2e
 10559 28f6 01       		.uleb128 0x1
 10560 28f7 52       		.byte	0x52
 10561 28f8 02       		.uleb128 0x2
 10562 28f9 75       		.byte	0x75
 10563 28fa 00       		.sleb128 0
 10564 28fb 00       		.byte	0
 10565 28fc 49       		.uleb128 0x49
 10566 28fd 16020000 		.4byte	.LVL139
 10567 2901 E9470000 		.4byte	0x47e9
 10568 2905 49       		.uleb128 0x49
 10569 2906 24020000 		.4byte	.LVL141
 10570 290a 5A470000 		.4byte	0x475a
 10571 290e 2F       		.uleb128 0x2f
 10572 290f 32020000 		.4byte	.LVL143
 10573 2913 F9460000 		.4byte	0x46f9
 10574 2917 29290000 		.4byte	0x2929
 10575 291b 2E       		.uleb128 0x2e
 10576 291c 01       		.uleb128 0x1
 10577 291d 50       		.byte	0x50
 10578 291e 02       		.uleb128 0x2
 10579 291f 75       		.byte	0x75
 10580 2920 00       		.sleb128 0
ARM GAS  /var/folders/sv/kgmgr77579zbf78p2zlhkdfr0000gn/T//ccMuP6SP.s 			page 187


 10581 2921 2E       		.uleb128 0x2e
 10582 2922 01       		.uleb128 0x1
 10583 2923 52       		.byte	0x52
 10584 2924 03       		.uleb128 0x3
 10585 2925 0A       		.byte	0xa
 10586 2926 7401     		.2byte	0x174
 10587 2928 00       		.byte	0
 10588 2929 49       		.uleb128 0x49
 10589 292a C6020000 		.4byte	.LVL156
 10590 292e F4470000 		.4byte	0x47f4
 10591 2932 2F       		.uleb128 0x2f
 10592 2933 78040000 		.4byte	.LVL187
 10593 2937 23470000 		.4byte	0x4723
 10594 293b 59290000 		.4byte	0x2959
 10595 293f 2E       		.uleb128 0x2e
 10596 2940 01       		.uleb128 0x1
 10597 2941 50       		.byte	0x50
 10598 2942 02       		.uleb128 0x2
 10599 2943 74       		.byte	0x74
 10600 2944 00       		.sleb128 0
 10601 2945 2E       		.uleb128 0x2e
 10602 2946 02       		.uleb128 0x2
 10603 2947 90       		.byte	0x90
 10604 2948 40       		.uleb128 0x40
 10605 2949 07       		.uleb128 0x7
 10606 294a F4       		.byte	0xf4
 10607 294b 25       		.uleb128 0x25
 10608 294c 04       		.byte	0x4
 10609 294d 00007A44 		.4byte	0x447a0000
 10610 2951 2E       		.uleb128 0x2e
 10611 2952 01       		.uleb128 0x1
 10612 2953 51       		.byte	0x51
 10613 2954 03       		.uleb128 0x3
 10614 2955 91       		.byte	0x91
 10615 2956 807E     		.sleb128 -256
 10616 2958 00       		.byte	0
 10617 2959 2F       		.uleb128 0x2f
 10618 295a 8A040000 		.4byte	.LVL188
 10619 295e 23470000 		.4byte	0x4723
 10620 2962 80290000 		.4byte	0x2980
 10621 2966 2E       		.uleb128 0x2e
 10622 2967 01       		.uleb128 0x1
 10623 2968 50       		.byte	0x50
 10624 2969 02       		.uleb128 0x2
 10625 296a 74       		.byte	0x74
 10626 296b 00       		.sleb128 0
 10627 296c 2E       		.uleb128 0x2e
 10628 296d 02       		.uleb128 0x2
 10629 296e 90       		.byte	0x90
 10630 296f 40       		.uleb128 0x40
 10631 2970 07       		.uleb128 0x7
 10632 2971 F4       		.byte	0xf4
 10633 2972 25       		.uleb128 0x25
 10634 2973 04       		.byte	0x4
 10635 2974 00007A44 		.4byte	0x447a0000
 10636 2978 2E       		.uleb128 0x2e
 10637 2979 01       		.uleb128 0x1
ARM GAS  /var/folders/sv/kgmgr77579zbf78p2zlhkdfr0000gn/T//ccMuP6SP.s 			page 188


 10638 297a 51       		.byte	0x51
 10639 297b 03       		.uleb128 0x3
 10640 297c 91       		.byte	0x91
 10641 297d 807E     		.sleb128 -256
 10642 297f 00       		.byte	0
 10643 2980 2F       		.uleb128 0x2f
 10644 2981 9C040000 		.4byte	.LVL189
 10645 2985 23470000 		.4byte	0x4723
 10646 2989 A7290000 		.4byte	0x29a7
 10647 298d 2E       		.uleb128 0x2e
 10648 298e 01       		.uleb128 0x1
 10649 298f 50       		.byte	0x50
 10650 2990 02       		.uleb128 0x2
 10651 2991 74       		.byte	0x74
 10652 2992 00       		.sleb128 0
 10653 2993 2E       		.uleb128 0x2e
 10654 2994 02       		.uleb128 0x2
 10655 2995 90       		.byte	0x90
 10656 2996 40       		.uleb128 0x40
 10657 2997 07       		.uleb128 0x7
 10658 2998 F4       		.byte	0xf4
 10659 2999 25       		.uleb128 0x25
 10660 299a 04       		.byte	0x4
 10661 299b 00007A44 		.4byte	0x447a0000
 10662 299f 2E       		.uleb128 0x2e
 10663 29a0 01       		.uleb128 0x1
 10664 29a1 51       		.byte	0x51
 10665 29a2 03       		.uleb128 0x3
 10666 29a3 91       		.byte	0x91
 10667 29a4 807E     		.sleb128 -256
 10668 29a6 00       		.byte	0
 10669 29a7 2F       		.uleb128 0x2f
 10670 29a8 B4040000 		.4byte	.LVL190
 10671 29ac FF470000 		.4byte	0x47ff
 10672 29b0 BA290000 		.4byte	0x29ba
 10673 29b4 2E       		.uleb128 0x2e
 10674 29b5 01       		.uleb128 0x1
 10675 29b6 51       		.byte	0x51
 10676 29b7 01       		.uleb128 0x1
 10677 29b8 31       		.byte	0x31
 10678 29b9 00       		.byte	0
 10679 29ba 2F       		.uleb128 0x2f
 10680 29bb C6040000 		.4byte	.LVL193
 10681 29bf 0A480000 		.4byte	0x480a
 10682 29c3 CE290000 		.4byte	0x29ce
 10683 29c7 2E       		.uleb128 0x2e
 10684 29c8 01       		.uleb128 0x1
 10685 29c9 50       		.byte	0x50
 10686 29ca 02       		.uleb128 0x2
 10687 29cb 74       		.byte	0x74
 10688 29cc 00       		.sleb128 0
 10689 29cd 00       		.byte	0
 10690 29ce 2F       		.uleb128 0x2f
 10691 29cf CE040000 		.4byte	.LVL194
 10692 29d3 E31B0000 		.4byte	0x1be3
 10693 29d7 E8290000 		.4byte	0x29e8
 10694 29db 2E       		.uleb128 0x2e
ARM GAS  /var/folders/sv/kgmgr77579zbf78p2zlhkdfr0000gn/T//ccMuP6SP.s 			page 189


 10695 29dc 01       		.uleb128 0x1
 10696 29dd 50       		.byte	0x50
 10697 29de 02       		.uleb128 0x2
 10698 29df 78       		.byte	0x78
 10699 29e0 00       		.sleb128 0
 10700 29e1 2E       		.uleb128 0x2e
 10701 29e2 01       		.uleb128 0x1
 10702 29e3 51       		.byte	0x51
 10703 29e4 02       		.uleb128 0x2
 10704 29e5 74       		.byte	0x74
 10705 29e6 00       		.sleb128 0
 10706 29e7 00       		.byte	0
 10707 29e8 49       		.uleb128 0x49
 10708 29e9 04050000 		.4byte	.LVL196
 10709 29ed 15480000 		.4byte	0x4815
 10710 29f1 2F       		.uleb128 0x2f
 10711 29f2 10050000 		.4byte	.LVL198
 10712 29f6 F9460000 		.4byte	0x46f9
 10713 29fa 0C2A0000 		.4byte	0x2a0c
 10714 29fe 2E       		.uleb128 0x2e
 10715 29ff 01       		.uleb128 0x1
 10716 2a00 50       		.byte	0x50
 10717 2a01 03       		.uleb128 0x3
 10718 2a02 91       		.byte	0x91
 10719 2a03 887E     		.sleb128 -248
 10720 2a05 2E       		.uleb128 0x2e
 10721 2a06 01       		.uleb128 0x1
 10722 2a07 52       		.byte	0x52
 10723 2a08 02       		.uleb128 0x2
 10724 2a09 08       		.byte	0x8
 10725 2a0a C8       		.byte	0xc8
 10726 2a0b 00       		.byte	0
 10727 2a0c 2F       		.uleb128 0x2f
 10728 2a0d 20050000 		.4byte	.LVL199
 10729 2a11 20480000 		.4byte	0x4820
 10730 2a15 272A0000 		.4byte	0x2a27
 10731 2a19 2E       		.uleb128 0x2e
 10732 2a1a 01       		.uleb128 0x1
 10733 2a1b 50       		.byte	0x50
 10734 2a1c 02       		.uleb128 0x2
 10735 2a1d 74       		.byte	0x74
 10736 2a1e 00       		.sleb128 0
 10737 2a1f 2E       		.uleb128 0x2e
 10738 2a20 01       		.uleb128 0x1
 10739 2a21 51       		.byte	0x51
 10740 2a22 03       		.uleb128 0x3
 10741 2a23 91       		.byte	0x91
 10742 2a24 807E     		.sleb128 -256
 10743 2a26 00       		.byte	0
 10744 2a27 2F       		.uleb128 0x2f
 10745 2a28 2A050000 		.4byte	.LVL200
 10746 2a2c 2B480000 		.4byte	0x482b
 10747 2a30 422A0000 		.4byte	0x2a42
 10748 2a34 2E       		.uleb128 0x2e
 10749 2a35 01       		.uleb128 0x1
 10750 2a36 50       		.byte	0x50
 10751 2a37 02       		.uleb128 0x2
ARM GAS  /var/folders/sv/kgmgr77579zbf78p2zlhkdfr0000gn/T//ccMuP6SP.s 			page 190


 10752 2a38 74       		.byte	0x74
 10753 2a39 00       		.sleb128 0
 10754 2a3a 2E       		.uleb128 0x2e
 10755 2a3b 01       		.uleb128 0x1
 10756 2a3c 51       		.byte	0x51
 10757 2a3d 03       		.uleb128 0x3
 10758 2a3e 91       		.byte	0x91
 10759 2a3f 807E     		.sleb128 -256
 10760 2a41 00       		.byte	0
 10761 2a42 2F       		.uleb128 0x2f
 10762 2a43 48050000 		.4byte	.LVL201
 10763 2a47 7B470000 		.4byte	0x477b
 10764 2a4b 5D2A0000 		.4byte	0x2a5d
 10765 2a4f 2E       		.uleb128 0x2e
 10766 2a50 01       		.uleb128 0x1
 10767 2a51 50       		.byte	0x50
 10768 2a52 02       		.uleb128 0x2
 10769 2a53 74       		.byte	0x74
 10770 2a54 00       		.sleb128 0
 10771 2a55 2E       		.uleb128 0x2e
 10772 2a56 01       		.uleb128 0x1
 10773 2a57 51       		.byte	0x51
 10774 2a58 03       		.uleb128 0x3
 10775 2a59 91       		.byte	0x91
 10776 2a5a 807E     		.sleb128 -256
 10777 2a5c 00       		.byte	0
 10778 2a5d 2F       		.uleb128 0x2f
 10779 2a5e 6E050000 		.4byte	.LVL202
 10780 2a62 2B480000 		.4byte	0x482b
 10781 2a66 782A0000 		.4byte	0x2a78
 10782 2a6a 2E       		.uleb128 0x2e
 10783 2a6b 01       		.uleb128 0x1
 10784 2a6c 50       		.byte	0x50
 10785 2a6d 02       		.uleb128 0x2
 10786 2a6e 74       		.byte	0x74
 10787 2a6f 00       		.sleb128 0
 10788 2a70 2E       		.uleb128 0x2e
 10789 2a71 01       		.uleb128 0x1
 10790 2a72 51       		.byte	0x51
 10791 2a73 03       		.uleb128 0x3
 10792 2a74 91       		.byte	0x91
 10793 2a75 807E     		.sleb128 -256
 10794 2a77 00       		.byte	0
 10795 2a78 2F       		.uleb128 0x2f
 10796 2a79 7A050000 		.4byte	.LVL203
 10797 2a7d 2B480000 		.4byte	0x482b
 10798 2a81 932A0000 		.4byte	0x2a93
 10799 2a85 2E       		.uleb128 0x2e
 10800 2a86 01       		.uleb128 0x1
 10801 2a87 50       		.byte	0x50
 10802 2a88 02       		.uleb128 0x2
 10803 2a89 74       		.byte	0x74
 10804 2a8a 00       		.sleb128 0
 10805 2a8b 2E       		.uleb128 0x2e
 10806 2a8c 01       		.uleb128 0x1
 10807 2a8d 51       		.byte	0x51
 10808 2a8e 03       		.uleb128 0x3
ARM GAS  /var/folders/sv/kgmgr77579zbf78p2zlhkdfr0000gn/T//ccMuP6SP.s 			page 191


 10809 2a8f 91       		.byte	0x91
 10810 2a90 807E     		.sleb128 -256
 10811 2a92 00       		.byte	0
 10812 2a93 2F       		.uleb128 0x2f
 10813 2a94 86050000 		.4byte	.LVL204
 10814 2a98 2B480000 		.4byte	0x482b
 10815 2a9c AE2A0000 		.4byte	0x2aae
 10816 2aa0 2E       		.uleb128 0x2e
 10817 2aa1 01       		.uleb128 0x1
 10818 2aa2 50       		.byte	0x50
 10819 2aa3 02       		.uleb128 0x2
 10820 2aa4 74       		.byte	0x74
 10821 2aa5 00       		.sleb128 0
 10822 2aa6 2E       		.uleb128 0x2e
 10823 2aa7 01       		.uleb128 0x1
 10824 2aa8 51       		.byte	0x51
 10825 2aa9 03       		.uleb128 0x3
 10826 2aaa 91       		.byte	0x91
 10827 2aab 807E     		.sleb128 -256
 10828 2aad 00       		.byte	0
 10829 2aae 2F       		.uleb128 0x2f
 10830 2aaf 92050000 		.4byte	.LVL205
 10831 2ab3 2B480000 		.4byte	0x482b
 10832 2ab7 C92A0000 		.4byte	0x2ac9
 10833 2abb 2E       		.uleb128 0x2e
 10834 2abc 01       		.uleb128 0x1
 10835 2abd 50       		.byte	0x50
 10836 2abe 02       		.uleb128 0x2
 10837 2abf 74       		.byte	0x74
 10838 2ac0 00       		.sleb128 0
 10839 2ac1 2E       		.uleb128 0x2e
 10840 2ac2 01       		.uleb128 0x1
 10841 2ac3 51       		.byte	0x51
 10842 2ac4 03       		.uleb128 0x3
 10843 2ac5 91       		.byte	0x91
 10844 2ac6 807E     		.sleb128 -256
 10845 2ac8 00       		.byte	0
 10846 2ac9 2F       		.uleb128 0x2f
 10847 2aca 9E050000 		.4byte	.LVL206
 10848 2ace 2B480000 		.4byte	0x482b
 10849 2ad2 E42A0000 		.4byte	0x2ae4
 10850 2ad6 2E       		.uleb128 0x2e
 10851 2ad7 01       		.uleb128 0x1
 10852 2ad8 50       		.byte	0x50
 10853 2ad9 02       		.uleb128 0x2
 10854 2ada 74       		.byte	0x74
 10855 2adb 00       		.sleb128 0
 10856 2adc 2E       		.uleb128 0x2e
 10857 2add 01       		.uleb128 0x1
 10858 2ade 51       		.byte	0x51
 10859 2adf 03       		.uleb128 0x3
 10860 2ae0 91       		.byte	0x91
 10861 2ae1 807E     		.sleb128 -256
 10862 2ae3 00       		.byte	0
 10863 2ae4 2F       		.uleb128 0x2f
 10864 2ae5 CA050000 		.4byte	.LVL207
 10865 2ae9 2B480000 		.4byte	0x482b
ARM GAS  /var/folders/sv/kgmgr77579zbf78p2zlhkdfr0000gn/T//ccMuP6SP.s 			page 192


 10866 2aed FF2A0000 		.4byte	0x2aff
 10867 2af1 2E       		.uleb128 0x2e
 10868 2af2 01       		.uleb128 0x1
 10869 2af3 50       		.byte	0x50
 10870 2af4 02       		.uleb128 0x2
 10871 2af5 74       		.byte	0x74
 10872 2af6 00       		.sleb128 0
 10873 2af7 2E       		.uleb128 0x2e
 10874 2af8 01       		.uleb128 0x1
 10875 2af9 51       		.byte	0x51
 10876 2afa 03       		.uleb128 0x3
 10877 2afb 91       		.byte	0x91
 10878 2afc 807E     		.sleb128 -256
 10879 2afe 00       		.byte	0
 10880 2aff 2F       		.uleb128 0x2f
 10881 2b00 D6050000 		.4byte	.LVL208
 10882 2b04 2B480000 		.4byte	0x482b
 10883 2b08 1A2B0000 		.4byte	0x2b1a
 10884 2b0c 2E       		.uleb128 0x2e
 10885 2b0d 01       		.uleb128 0x1
 10886 2b0e 50       		.byte	0x50
 10887 2b0f 02       		.uleb128 0x2
 10888 2b10 74       		.byte	0x74
 10889 2b11 00       		.sleb128 0
 10890 2b12 2E       		.uleb128 0x2e
 10891 2b13 01       		.uleb128 0x1
 10892 2b14 51       		.byte	0x51
 10893 2b15 03       		.uleb128 0x3
 10894 2b16 91       		.byte	0x91
 10895 2b17 807E     		.sleb128 -256
 10896 2b19 00       		.byte	0
 10897 2b1a 2F       		.uleb128 0x2f
 10898 2b1b EE050000 		.4byte	.LVL209
 10899 2b1f 2B480000 		.4byte	0x482b
 10900 2b23 352B0000 		.4byte	0x2b35
 10901 2b27 2E       		.uleb128 0x2e
 10902 2b28 01       		.uleb128 0x1
 10903 2b29 50       		.byte	0x50
 10904 2b2a 02       		.uleb128 0x2
 10905 2b2b 74       		.byte	0x74
 10906 2b2c 00       		.sleb128 0
 10907 2b2d 2E       		.uleb128 0x2e
 10908 2b2e 01       		.uleb128 0x1
 10909 2b2f 51       		.byte	0x51
 10910 2b30 03       		.uleb128 0x3
 10911 2b31 91       		.byte	0x91
 10912 2b32 807E     		.sleb128 -256
 10913 2b34 00       		.byte	0
 10914 2b35 2F       		.uleb128 0x2f
 10915 2b36 FA050000 		.4byte	.LVL210
 10916 2b3a 2B480000 		.4byte	0x482b
 10917 2b3e 502B0000 		.4byte	0x2b50
 10918 2b42 2E       		.uleb128 0x2e
 10919 2b43 01       		.uleb128 0x1
 10920 2b44 50       		.byte	0x50
 10921 2b45 02       		.uleb128 0x2
 10922 2b46 74       		.byte	0x74
ARM GAS  /var/folders/sv/kgmgr77579zbf78p2zlhkdfr0000gn/T//ccMuP6SP.s 			page 193


 10923 2b47 00       		.sleb128 0
 10924 2b48 2E       		.uleb128 0x2e
 10925 2b49 01       		.uleb128 0x1
 10926 2b4a 51       		.byte	0x51
 10927 2b4b 03       		.uleb128 0x3
 10928 2b4c 91       		.byte	0x91
 10929 2b4d 807E     		.sleb128 -256
 10930 2b4f 00       		.byte	0
 10931 2b50 2F       		.uleb128 0x2f
 10932 2b51 26060000 		.4byte	.LVL211
 10933 2b55 2B480000 		.4byte	0x482b
 10934 2b59 6B2B0000 		.4byte	0x2b6b
 10935 2b5d 2E       		.uleb128 0x2e
 10936 2b5e 01       		.uleb128 0x1
 10937 2b5f 50       		.byte	0x50
 10938 2b60 02       		.uleb128 0x2
 10939 2b61 74       		.byte	0x74
 10940 2b62 00       		.sleb128 0
 10941 2b63 2E       		.uleb128 0x2e
 10942 2b64 01       		.uleb128 0x1
 10943 2b65 51       		.byte	0x51
 10944 2b66 03       		.uleb128 0x3
 10945 2b67 91       		.byte	0x91
 10946 2b68 807E     		.sleb128 -256
 10947 2b6a 00       		.byte	0
 10948 2b6b 2F       		.uleb128 0x2f
 10949 2b6c 3E060000 		.4byte	.LVL212
 10950 2b70 2B480000 		.4byte	0x482b
 10951 2b74 862B0000 		.4byte	0x2b86
 10952 2b78 2E       		.uleb128 0x2e
 10953 2b79 01       		.uleb128 0x1
 10954 2b7a 50       		.byte	0x50
 10955 2b7b 02       		.uleb128 0x2
 10956 2b7c 74       		.byte	0x74
 10957 2b7d 00       		.sleb128 0
 10958 2b7e 2E       		.uleb128 0x2e
 10959 2b7f 01       		.uleb128 0x1
 10960 2b80 51       		.byte	0x51
 10961 2b81 03       		.uleb128 0x3
 10962 2b82 91       		.byte	0x91
 10963 2b83 807E     		.sleb128 -256
 10964 2b85 00       		.byte	0
 10965 2b86 2F       		.uleb128 0x2f
 10966 2b87 4A060000 		.4byte	.LVL213
 10967 2b8b 2B480000 		.4byte	0x482b
 10968 2b8f A12B0000 		.4byte	0x2ba1
 10969 2b93 2E       		.uleb128 0x2e
 10970 2b94 01       		.uleb128 0x1
 10971 2b95 50       		.byte	0x50
 10972 2b96 02       		.uleb128 0x2
 10973 2b97 74       		.byte	0x74
 10974 2b98 00       		.sleb128 0
 10975 2b99 2E       		.uleb128 0x2e
 10976 2b9a 01       		.uleb128 0x1
 10977 2b9b 51       		.byte	0x51
 10978 2b9c 03       		.uleb128 0x3
 10979 2b9d 91       		.byte	0x91
ARM GAS  /var/folders/sv/kgmgr77579zbf78p2zlhkdfr0000gn/T//ccMuP6SP.s 			page 194


 10980 2b9e 807E     		.sleb128 -256
 10981 2ba0 00       		.byte	0
 10982 2ba1 2F       		.uleb128 0x2f
 10983 2ba2 56060000 		.4byte	.LVL214
 10984 2ba6 2B480000 		.4byte	0x482b
 10985 2baa BC2B0000 		.4byte	0x2bbc
 10986 2bae 2E       		.uleb128 0x2e
 10987 2baf 01       		.uleb128 0x1
 10988 2bb0 50       		.byte	0x50
 10989 2bb1 02       		.uleb128 0x2
 10990 2bb2 74       		.byte	0x74
 10991 2bb3 00       		.sleb128 0
 10992 2bb4 2E       		.uleb128 0x2e
 10993 2bb5 01       		.uleb128 0x1
 10994 2bb6 51       		.byte	0x51
 10995 2bb7 03       		.uleb128 0x3
 10996 2bb8 91       		.byte	0x91
 10997 2bb9 807E     		.sleb128 -256
 10998 2bbb 00       		.byte	0
 10999 2bbc 2F       		.uleb128 0x2f
 11000 2bbd 62060000 		.4byte	.LVL215
 11001 2bc1 2B480000 		.4byte	0x482b
 11002 2bc5 D72B0000 		.4byte	0x2bd7
 11003 2bc9 2E       		.uleb128 0x2e
 11004 2bca 01       		.uleb128 0x1
 11005 2bcb 50       		.byte	0x50
 11006 2bcc 02       		.uleb128 0x2
 11007 2bcd 74       		.byte	0x74
 11008 2bce 00       		.sleb128 0
 11009 2bcf 2E       		.uleb128 0x2e
 11010 2bd0 01       		.uleb128 0x1
 11011 2bd1 51       		.byte	0x51
 11012 2bd2 03       		.uleb128 0x3
 11013 2bd3 91       		.byte	0x91
 11014 2bd4 807E     		.sleb128 -256
 11015 2bd6 00       		.byte	0
 11016 2bd7 2F       		.uleb128 0x2f
 11017 2bd8 6E060000 		.4byte	.LVL216
 11018 2bdc 2B480000 		.4byte	0x482b
 11019 2be0 F22B0000 		.4byte	0x2bf2
 11020 2be4 2E       		.uleb128 0x2e
 11021 2be5 01       		.uleb128 0x1
 11022 2be6 50       		.byte	0x50
 11023 2be7 02       		.uleb128 0x2
 11024 2be8 74       		.byte	0x74
 11025 2be9 00       		.sleb128 0
 11026 2bea 2E       		.uleb128 0x2e
 11027 2beb 01       		.uleb128 0x1
 11028 2bec 51       		.byte	0x51
 11029 2bed 03       		.uleb128 0x3
 11030 2bee 91       		.byte	0x91
 11031 2bef 807E     		.sleb128 -256
 11032 2bf1 00       		.byte	0
 11033 2bf2 2F       		.uleb128 0x2f
 11034 2bf3 7A060000 		.4byte	.LVL217
 11035 2bf7 2B480000 		.4byte	0x482b
 11036 2bfb 0D2C0000 		.4byte	0x2c0d
ARM GAS  /var/folders/sv/kgmgr77579zbf78p2zlhkdfr0000gn/T//ccMuP6SP.s 			page 195


 11037 2bff 2E       		.uleb128 0x2e
 11038 2c00 01       		.uleb128 0x1
 11039 2c01 50       		.byte	0x50
 11040 2c02 02       		.uleb128 0x2
 11041 2c03 74       		.byte	0x74
 11042 2c04 00       		.sleb128 0
 11043 2c05 2E       		.uleb128 0x2e
 11044 2c06 01       		.uleb128 0x1
 11045 2c07 51       		.byte	0x51
 11046 2c08 03       		.uleb128 0x3
 11047 2c09 91       		.byte	0x91
 11048 2c0a 807E     		.sleb128 -256
 11049 2c0c 00       		.byte	0
 11050 2c0d 2F       		.uleb128 0x2f
 11051 2c0e E6060000 		.4byte	.LVL218
 11052 2c12 2B480000 		.4byte	0x482b
 11053 2c16 282C0000 		.4byte	0x2c28
 11054 2c1a 2E       		.uleb128 0x2e
 11055 2c1b 01       		.uleb128 0x1
 11056 2c1c 50       		.byte	0x50
 11057 2c1d 02       		.uleb128 0x2
 11058 2c1e 74       		.byte	0x74
 11059 2c1f 00       		.sleb128 0
 11060 2c20 2E       		.uleb128 0x2e
 11061 2c21 01       		.uleb128 0x1
 11062 2c22 51       		.byte	0x51
 11063 2c23 03       		.uleb128 0x3
 11064 2c24 91       		.byte	0x91
 11065 2c25 807E     		.sleb128 -256
 11066 2c27 00       		.byte	0
 11067 2c28 2F       		.uleb128 0x2f
 11068 2c29 F2060000 		.4byte	.LVL219
 11069 2c2d 2B480000 		.4byte	0x482b
 11070 2c31 432C0000 		.4byte	0x2c43
 11071 2c35 2E       		.uleb128 0x2e
 11072 2c36 01       		.uleb128 0x1
 11073 2c37 50       		.byte	0x50
 11074 2c38 02       		.uleb128 0x2
 11075 2c39 74       		.byte	0x74
 11076 2c3a 00       		.sleb128 0
 11077 2c3b 2E       		.uleb128 0x2e
 11078 2c3c 01       		.uleb128 0x1
 11079 2c3d 51       		.byte	0x51
 11080 2c3e 03       		.uleb128 0x3
 11081 2c3f 91       		.byte	0x91
 11082 2c40 807E     		.sleb128 -256
 11083 2c42 00       		.byte	0
 11084 2c43 2F       		.uleb128 0x2f
 11085 2c44 0A070000 		.4byte	.LVL220
 11086 2c48 2B480000 		.4byte	0x482b
 11087 2c4c 5E2C0000 		.4byte	0x2c5e
 11088 2c50 2E       		.uleb128 0x2e
 11089 2c51 01       		.uleb128 0x1
 11090 2c52 50       		.byte	0x50
 11091 2c53 02       		.uleb128 0x2
 11092 2c54 74       		.byte	0x74
 11093 2c55 00       		.sleb128 0
ARM GAS  /var/folders/sv/kgmgr77579zbf78p2zlhkdfr0000gn/T//ccMuP6SP.s 			page 196


 11094 2c56 2E       		.uleb128 0x2e
 11095 2c57 01       		.uleb128 0x1
 11096 2c58 51       		.byte	0x51
 11097 2c59 03       		.uleb128 0x3
 11098 2c5a 91       		.byte	0x91
 11099 2c5b 807E     		.sleb128 -256
 11100 2c5d 00       		.byte	0
 11101 2c5e 2F       		.uleb128 0x2f
 11102 2c5f 16070000 		.4byte	.LVL221
 11103 2c63 2B480000 		.4byte	0x482b
 11104 2c67 792C0000 		.4byte	0x2c79
 11105 2c6b 2E       		.uleb128 0x2e
 11106 2c6c 01       		.uleb128 0x1
 11107 2c6d 50       		.byte	0x50
 11108 2c6e 02       		.uleb128 0x2
 11109 2c6f 74       		.byte	0x74
 11110 2c70 00       		.sleb128 0
 11111 2c71 2E       		.uleb128 0x2e
 11112 2c72 01       		.uleb128 0x1
 11113 2c73 51       		.byte	0x51
 11114 2c74 03       		.uleb128 0x3
 11115 2c75 91       		.byte	0x91
 11116 2c76 807E     		.sleb128 -256
 11117 2c78 00       		.byte	0
 11118 2c79 2F       		.uleb128 0x2f
 11119 2c7a 42070000 		.4byte	.LVL222
 11120 2c7e 2B480000 		.4byte	0x482b
 11121 2c82 942C0000 		.4byte	0x2c94
 11122 2c86 2E       		.uleb128 0x2e
 11123 2c87 01       		.uleb128 0x1
 11124 2c88 50       		.byte	0x50
 11125 2c89 02       		.uleb128 0x2
 11126 2c8a 74       		.byte	0x74
 11127 2c8b 00       		.sleb128 0
 11128 2c8c 2E       		.uleb128 0x2e
 11129 2c8d 01       		.uleb128 0x1
 11130 2c8e 51       		.byte	0x51
 11131 2c8f 03       		.uleb128 0x3
 11132 2c90 91       		.byte	0x91
 11133 2c91 807E     		.sleb128 -256
 11134 2c93 00       		.byte	0
 11135 2c94 2F       		.uleb128 0x2f
 11136 2c95 4E070000 		.4byte	.LVL223
 11137 2c99 7B470000 		.4byte	0x477b
 11138 2c9d AF2C0000 		.4byte	0x2caf
 11139 2ca1 2E       		.uleb128 0x2e
 11140 2ca2 01       		.uleb128 0x1
 11141 2ca3 50       		.byte	0x50
 11142 2ca4 02       		.uleb128 0x2
 11143 2ca5 74       		.byte	0x74
 11144 2ca6 00       		.sleb128 0
 11145 2ca7 2E       		.uleb128 0x2e
 11146 2ca8 01       		.uleb128 0x1
 11147 2ca9 51       		.byte	0x51
 11148 2caa 03       		.uleb128 0x3
 11149 2cab 91       		.byte	0x91
 11150 2cac 807E     		.sleb128 -256
ARM GAS  /var/folders/sv/kgmgr77579zbf78p2zlhkdfr0000gn/T//ccMuP6SP.s 			page 197


 11151 2cae 00       		.byte	0
 11152 2caf 2F       		.uleb128 0x2f
 11153 2cb0 58070000 		.4byte	.LVL224
 11154 2cb4 20480000 		.4byte	0x4820
 11155 2cb8 CA2C0000 		.4byte	0x2cca
 11156 2cbc 2E       		.uleb128 0x2e
 11157 2cbd 01       		.uleb128 0x1
 11158 2cbe 50       		.byte	0x50
 11159 2cbf 02       		.uleb128 0x2
 11160 2cc0 74       		.byte	0x74
 11161 2cc1 00       		.sleb128 0
 11162 2cc2 2E       		.uleb128 0x2e
 11163 2cc3 01       		.uleb128 0x1
 11164 2cc4 51       		.byte	0x51
 11165 2cc5 03       		.uleb128 0x3
 11166 2cc6 91       		.byte	0x91
 11167 2cc7 807E     		.sleb128 -256
 11168 2cc9 00       		.byte	0
 11169 2cca 2F       		.uleb128 0x2f
 11170 2ccb 6E070000 		.4byte	.LVL225
 11171 2ccf 2B480000 		.4byte	0x482b
 11172 2cd3 E52C0000 		.4byte	0x2ce5
 11173 2cd7 2E       		.uleb128 0x2e
 11174 2cd8 01       		.uleb128 0x1
 11175 2cd9 50       		.byte	0x50
 11176 2cda 02       		.uleb128 0x2
 11177 2cdb 74       		.byte	0x74
 11178 2cdc 00       		.sleb128 0
 11179 2cdd 2E       		.uleb128 0x2e
 11180 2cde 01       		.uleb128 0x1
 11181 2cdf 51       		.byte	0x51
 11182 2ce0 03       		.uleb128 0x3
 11183 2ce1 91       		.byte	0x91
 11184 2ce2 807E     		.sleb128 -256
 11185 2ce4 00       		.byte	0
 11186 2ce5 2F       		.uleb128 0x2f
 11187 2ce6 7A070000 		.4byte	.LVL226
 11188 2cea 2B480000 		.4byte	0x482b
 11189 2cee 002D0000 		.4byte	0x2d00
 11190 2cf2 2E       		.uleb128 0x2e
 11191 2cf3 01       		.uleb128 0x1
 11192 2cf4 50       		.byte	0x50
 11193 2cf5 02       		.uleb128 0x2
 11194 2cf6 74       		.byte	0x74
 11195 2cf7 00       		.sleb128 0
 11196 2cf8 2E       		.uleb128 0x2e
 11197 2cf9 01       		.uleb128 0x1
 11198 2cfa 51       		.byte	0x51
 11199 2cfb 03       		.uleb128 0x3
 11200 2cfc 91       		.byte	0x91
 11201 2cfd 807E     		.sleb128 -256
 11202 2cff 00       		.byte	0
 11203 2d00 2F       		.uleb128 0x2f
 11204 2d01 86070000 		.4byte	.LVL227
 11205 2d05 2B480000 		.4byte	0x482b
 11206 2d09 1B2D0000 		.4byte	0x2d1b
 11207 2d0d 2E       		.uleb128 0x2e
ARM GAS  /var/folders/sv/kgmgr77579zbf78p2zlhkdfr0000gn/T//ccMuP6SP.s 			page 198


 11208 2d0e 01       		.uleb128 0x1
 11209 2d0f 50       		.byte	0x50
 11210 2d10 02       		.uleb128 0x2
 11211 2d11 74       		.byte	0x74
 11212 2d12 00       		.sleb128 0
 11213 2d13 2E       		.uleb128 0x2e
 11214 2d14 01       		.uleb128 0x1
 11215 2d15 51       		.byte	0x51
 11216 2d16 03       		.uleb128 0x3
 11217 2d17 91       		.byte	0x91
 11218 2d18 807E     		.sleb128 -256
 11219 2d1a 00       		.byte	0
 11220 2d1b 2F       		.uleb128 0x2f
 11221 2d1c 92070000 		.4byte	.LVL228
 11222 2d20 2B480000 		.4byte	0x482b
 11223 2d24 362D0000 		.4byte	0x2d36
 11224 2d28 2E       		.uleb128 0x2e
 11225 2d29 01       		.uleb128 0x1
 11226 2d2a 50       		.byte	0x50
 11227 2d2b 02       		.uleb128 0x2
 11228 2d2c 74       		.byte	0x74
 11229 2d2d 00       		.sleb128 0
 11230 2d2e 2E       		.uleb128 0x2e
 11231 2d2f 01       		.uleb128 0x1
 11232 2d30 51       		.byte	0x51
 11233 2d31 03       		.uleb128 0x3
 11234 2d32 91       		.byte	0x91
 11235 2d33 807E     		.sleb128 -256
 11236 2d35 00       		.byte	0
 11237 2d36 2F       		.uleb128 0x2f
 11238 2d37 9E070000 		.4byte	.LVL229
 11239 2d3b 2B480000 		.4byte	0x482b
 11240 2d3f 512D0000 		.4byte	0x2d51
 11241 2d43 2E       		.uleb128 0x2e
 11242 2d44 01       		.uleb128 0x1
 11243 2d45 50       		.byte	0x50
 11244 2d46 02       		.uleb128 0x2
 11245 2d47 74       		.byte	0x74
 11246 2d48 00       		.sleb128 0
 11247 2d49 2E       		.uleb128 0x2e
 11248 2d4a 01       		.uleb128 0x1
 11249 2d4b 51       		.byte	0x51
 11250 2d4c 03       		.uleb128 0x3
 11251 2d4d 91       		.byte	0x91
 11252 2d4e 807E     		.sleb128 -256
 11253 2d50 00       		.byte	0
 11254 2d51 2F       		.uleb128 0x2f
 11255 2d52 AA070000 		.4byte	.LVL230
 11256 2d56 2B480000 		.4byte	0x482b
 11257 2d5a 6C2D0000 		.4byte	0x2d6c
 11258 2d5e 2E       		.uleb128 0x2e
 11259 2d5f 01       		.uleb128 0x1
 11260 2d60 50       		.byte	0x50
 11261 2d61 02       		.uleb128 0x2
 11262 2d62 74       		.byte	0x74
 11263 2d63 00       		.sleb128 0
 11264 2d64 2E       		.uleb128 0x2e
ARM GAS  /var/folders/sv/kgmgr77579zbf78p2zlhkdfr0000gn/T//ccMuP6SP.s 			page 199


 11265 2d65 01       		.uleb128 0x1
 11266 2d66 51       		.byte	0x51
 11267 2d67 03       		.uleb128 0x3
 11268 2d68 91       		.byte	0x91
 11269 2d69 807E     		.sleb128 -256
 11270 2d6b 00       		.byte	0
 11271 2d6c 2F       		.uleb128 0x2f
 11272 2d6d DE070000 		.4byte	.LVL231
 11273 2d71 2B480000 		.4byte	0x482b
 11274 2d75 872D0000 		.4byte	0x2d87
 11275 2d79 2E       		.uleb128 0x2e
 11276 2d7a 01       		.uleb128 0x1
 11277 2d7b 50       		.byte	0x50
 11278 2d7c 02       		.uleb128 0x2
 11279 2d7d 74       		.byte	0x74
 11280 2d7e 00       		.sleb128 0
 11281 2d7f 2E       		.uleb128 0x2e
 11282 2d80 01       		.uleb128 0x1
 11283 2d81 51       		.byte	0x51
 11284 2d82 03       		.uleb128 0x3
 11285 2d83 91       		.byte	0x91
 11286 2d84 807E     		.sleb128 -256
 11287 2d86 00       		.byte	0
 11288 2d87 2F       		.uleb128 0x2f
 11289 2d88 3C080000 		.4byte	.LVL233
 11290 2d8c 36480000 		.4byte	0x4836
 11291 2d90 9C2D0000 		.4byte	0x2d9c
 11292 2d94 2E       		.uleb128 0x2e
 11293 2d95 01       		.uleb128 0x1
 11294 2d96 50       		.byte	0x50
 11295 2d97 03       		.uleb128 0x3
 11296 2d98 91       		.byte	0x91
 11297 2d99 887E     		.sleb128 -248
 11298 2d9b 00       		.byte	0
 11299 2d9c 2F       		.uleb128 0x2f
 11300 2d9d 42080000 		.4byte	.LVL234
 11301 2da1 41480000 		.4byte	0x4841
 11302 2da5 B12D0000 		.4byte	0x2db1
 11303 2da9 2E       		.uleb128 0x2e
 11304 2daa 01       		.uleb128 0x1
 11305 2dab 50       		.byte	0x50
 11306 2dac 03       		.uleb128 0x3
 11307 2dad 91       		.byte	0x91
 11308 2dae 887E     		.sleb128 -248
 11309 2db0 00       		.byte	0
 11310 2db1 49       		.uleb128 0x49
 11311 2db2 4C080000 		.4byte	.LVL235
 11312 2db6 4C480000 		.4byte	0x484c
 11313 2dba 2F       		.uleb128 0x2f
 11314 2dbb 54080000 		.4byte	.LVL236
 11315 2dbf 57480000 		.4byte	0x4857
 11316 2dc3 CF2D0000 		.4byte	0x2dcf
 11317 2dc7 2E       		.uleb128 0x2e
 11318 2dc8 01       		.uleb128 0x1
 11319 2dc9 50       		.byte	0x50
 11320 2dca 03       		.uleb128 0x3
 11321 2dcb 0A       		.byte	0xa
ARM GAS  /var/folders/sv/kgmgr77579zbf78p2zlhkdfr0000gn/T//ccMuP6SP.s 			page 200


 11322 2dcc D007     		.2byte	0x7d0
 11323 2dce 00       		.byte	0
 11324 2dcf 2F       		.uleb128 0x2f
 11325 2dd0 76080000 		.4byte	.LVL240
 11326 2dd4 62480000 		.4byte	0x4862
 11327 2dd8 E32D0000 		.4byte	0x2de3
 11328 2ddc 2E       		.uleb128 0x2e
 11329 2ddd 01       		.uleb128 0x1
 11330 2dde 50       		.byte	0x50
 11331 2ddf 02       		.uleb128 0x2
 11332 2de0 74       		.byte	0x74
 11333 2de1 00       		.sleb128 0
 11334 2de2 00       		.byte	0
 11335 2de3 2F       		.uleb128 0x2f
 11336 2de4 B2080000 		.4byte	.LVL247
 11337 2de8 6D480000 		.4byte	0x486d
 11338 2dec FA2D0000 		.4byte	0x2dfa
 11339 2df0 2E       		.uleb128 0x2e
 11340 2df1 01       		.uleb128 0x1
 11341 2df2 50       		.byte	0x50
 11342 2df3 05       		.uleb128 0x5
 11343 2df4 03       		.byte	0x3
 11344 2df5 00000000 		.4byte	.LANCHOR15
 11345 2df9 00       		.byte	0
 11346 2dfa 2F       		.uleb128 0x2f
 11347 2dfb DE080000 		.4byte	.LVL251
 11348 2dff 0D470000 		.4byte	0x470d
 11349 2e03 142E0000 		.4byte	0x2e14
 11350 2e07 2E       		.uleb128 0x2e
 11351 2e08 01       		.uleb128 0x1
 11352 2e09 50       		.byte	0x50
 11353 2e0a 02       		.uleb128 0x2
 11354 2e0b 74       		.byte	0x74
 11355 2e0c 00       		.sleb128 0
 11356 2e0d 2E       		.uleb128 0x2e
 11357 2e0e 01       		.uleb128 0x1
 11358 2e0f 51       		.byte	0x51
 11359 2e10 02       		.uleb128 0x2
 11360 2e11 76       		.byte	0x76
 11361 2e12 00       		.sleb128 0
 11362 2e13 00       		.byte	0
 11363 2e14 2F       		.uleb128 0x2f
 11364 2e15 EA080000 		.4byte	.LVL252
 11365 2e19 0D470000 		.4byte	0x470d
 11366 2e1d 2E2E0000 		.4byte	0x2e2e
 11367 2e21 2E       		.uleb128 0x2e
 11368 2e22 01       		.uleb128 0x1
 11369 2e23 50       		.byte	0x50
 11370 2e24 02       		.uleb128 0x2
 11371 2e25 74       		.byte	0x74
 11372 2e26 00       		.sleb128 0
 11373 2e27 2E       		.uleb128 0x2e
 11374 2e28 01       		.uleb128 0x1
 11375 2e29 51       		.byte	0x51
 11376 2e2a 02       		.uleb128 0x2
 11377 2e2b 76       		.byte	0x76
 11378 2e2c 00       		.sleb128 0
ARM GAS  /var/folders/sv/kgmgr77579zbf78p2zlhkdfr0000gn/T//ccMuP6SP.s 			page 201


 11379 2e2d 00       		.byte	0
 11380 2e2e 2F       		.uleb128 0x2f
 11381 2e2f F6080000 		.4byte	.LVL253
 11382 2e33 0D470000 		.4byte	0x470d
 11383 2e37 482E0000 		.4byte	0x2e48
 11384 2e3b 2E       		.uleb128 0x2e
 11385 2e3c 01       		.uleb128 0x1
 11386 2e3d 50       		.byte	0x50
 11387 2e3e 02       		.uleb128 0x2
 11388 2e3f 74       		.byte	0x74
 11389 2e40 00       		.sleb128 0
 11390 2e41 2E       		.uleb128 0x2e
 11391 2e42 01       		.uleb128 0x1
 11392 2e43 51       		.byte	0x51
 11393 2e44 02       		.uleb128 0x2
 11394 2e45 76       		.byte	0x76
 11395 2e46 00       		.sleb128 0
 11396 2e47 00       		.byte	0
 11397 2e48 2F       		.uleb128 0x2f
 11398 2e49 02090000 		.4byte	.LVL254
 11399 2e4d 0D470000 		.4byte	0x470d
 11400 2e51 622E0000 		.4byte	0x2e62
 11401 2e55 2E       		.uleb128 0x2e
 11402 2e56 01       		.uleb128 0x1
 11403 2e57 50       		.byte	0x50
 11404 2e58 02       		.uleb128 0x2
 11405 2e59 74       		.byte	0x74
 11406 2e5a 00       		.sleb128 0
 11407 2e5b 2E       		.uleb128 0x2e
 11408 2e5c 01       		.uleb128 0x1
 11409 2e5d 51       		.byte	0x51
 11410 2e5e 02       		.uleb128 0x2
 11411 2e5f 76       		.byte	0x76
 11412 2e60 00       		.sleb128 0
 11413 2e61 00       		.byte	0
 11414 2e62 2F       		.uleb128 0x2f
 11415 2e63 0E090000 		.4byte	.LVL255
 11416 2e67 0D470000 		.4byte	0x470d
 11417 2e6b 7C2E0000 		.4byte	0x2e7c
 11418 2e6f 2E       		.uleb128 0x2e
 11419 2e70 01       		.uleb128 0x1
 11420 2e71 50       		.byte	0x50
 11421 2e72 02       		.uleb128 0x2
 11422 2e73 74       		.byte	0x74
 11423 2e74 00       		.sleb128 0
 11424 2e75 2E       		.uleb128 0x2e
 11425 2e76 01       		.uleb128 0x1
 11426 2e77 51       		.byte	0x51
 11427 2e78 02       		.uleb128 0x2
 11428 2e79 76       		.byte	0x76
 11429 2e7a 00       		.sleb128 0
 11430 2e7b 00       		.byte	0
 11431 2e7c 2F       		.uleb128 0x2f
 11432 2e7d 1A090000 		.4byte	.LVL256
 11433 2e81 0D470000 		.4byte	0x470d
 11434 2e85 962E0000 		.4byte	0x2e96
 11435 2e89 2E       		.uleb128 0x2e
ARM GAS  /var/folders/sv/kgmgr77579zbf78p2zlhkdfr0000gn/T//ccMuP6SP.s 			page 202


 11436 2e8a 01       		.uleb128 0x1
 11437 2e8b 50       		.byte	0x50
 11438 2e8c 02       		.uleb128 0x2
 11439 2e8d 74       		.byte	0x74
 11440 2e8e 00       		.sleb128 0
 11441 2e8f 2E       		.uleb128 0x2e
 11442 2e90 01       		.uleb128 0x1
 11443 2e91 51       		.byte	0x51
 11444 2e92 02       		.uleb128 0x2
 11445 2e93 76       		.byte	0x76
 11446 2e94 00       		.sleb128 0
 11447 2e95 00       		.byte	0
 11448 2e96 2F       		.uleb128 0x2f
 11449 2e97 26090000 		.4byte	.LVL257
 11450 2e9b 0D470000 		.4byte	0x470d
 11451 2e9f B02E0000 		.4byte	0x2eb0
 11452 2ea3 2E       		.uleb128 0x2e
 11453 2ea4 01       		.uleb128 0x1
 11454 2ea5 50       		.byte	0x50
 11455 2ea6 02       		.uleb128 0x2
 11456 2ea7 74       		.byte	0x74
 11457 2ea8 00       		.sleb128 0
 11458 2ea9 2E       		.uleb128 0x2e
 11459 2eaa 01       		.uleb128 0x1
 11460 2eab 51       		.byte	0x51
 11461 2eac 02       		.uleb128 0x2
 11462 2ead 76       		.byte	0x76
 11463 2eae 00       		.sleb128 0
 11464 2eaf 00       		.byte	0
 11465 2eb0 2F       		.uleb128 0x2f
 11466 2eb1 32090000 		.4byte	.LVL258
 11467 2eb5 0D470000 		.4byte	0x470d
 11468 2eb9 CA2E0000 		.4byte	0x2eca
 11469 2ebd 2E       		.uleb128 0x2e
 11470 2ebe 01       		.uleb128 0x1
 11471 2ebf 50       		.byte	0x50
 11472 2ec0 02       		.uleb128 0x2
 11473 2ec1 74       		.byte	0x74
 11474 2ec2 00       		.sleb128 0
 11475 2ec3 2E       		.uleb128 0x2e
 11476 2ec4 01       		.uleb128 0x1
 11477 2ec5 51       		.byte	0x51
 11478 2ec6 02       		.uleb128 0x2
 11479 2ec7 76       		.byte	0x76
 11480 2ec8 00       		.sleb128 0
 11481 2ec9 00       		.byte	0
 11482 2eca 2F       		.uleb128 0x2f
 11483 2ecb 3E090000 		.4byte	.LVL259
 11484 2ecf 0D470000 		.4byte	0x470d
 11485 2ed3 E42E0000 		.4byte	0x2ee4
 11486 2ed7 2E       		.uleb128 0x2e
 11487 2ed8 01       		.uleb128 0x1
 11488 2ed9 50       		.byte	0x50
 11489 2eda 02       		.uleb128 0x2
 11490 2edb 74       		.byte	0x74
 11491 2edc 00       		.sleb128 0
 11492 2edd 2E       		.uleb128 0x2e
ARM GAS  /var/folders/sv/kgmgr77579zbf78p2zlhkdfr0000gn/T//ccMuP6SP.s 			page 203


 11493 2ede 01       		.uleb128 0x1
 11494 2edf 51       		.byte	0x51
 11495 2ee0 02       		.uleb128 0x2
 11496 2ee1 76       		.byte	0x76
 11497 2ee2 00       		.sleb128 0
 11498 2ee3 00       		.byte	0
 11499 2ee4 2F       		.uleb128 0x2f
 11500 2ee5 4A090000 		.4byte	.LVL260
 11501 2ee9 0D470000 		.4byte	0x470d
 11502 2eed FE2E0000 		.4byte	0x2efe
 11503 2ef1 2E       		.uleb128 0x2e
 11504 2ef2 01       		.uleb128 0x1
 11505 2ef3 50       		.byte	0x50
 11506 2ef4 02       		.uleb128 0x2
 11507 2ef5 74       		.byte	0x74
 11508 2ef6 00       		.sleb128 0
 11509 2ef7 2E       		.uleb128 0x2e
 11510 2ef8 01       		.uleb128 0x1
 11511 2ef9 51       		.byte	0x51
 11512 2efa 02       		.uleb128 0x2
 11513 2efb 76       		.byte	0x76
 11514 2efc 00       		.sleb128 0
 11515 2efd 00       		.byte	0
 11516 2efe 2F       		.uleb128 0x2f
 11517 2eff 56090000 		.4byte	.LVL261
 11518 2f03 0D470000 		.4byte	0x470d
 11519 2f07 182F0000 		.4byte	0x2f18
 11520 2f0b 2E       		.uleb128 0x2e
 11521 2f0c 01       		.uleb128 0x1
 11522 2f0d 50       		.byte	0x50
 11523 2f0e 02       		.uleb128 0x2
 11524 2f0f 74       		.byte	0x74
 11525 2f10 00       		.sleb128 0
 11526 2f11 2E       		.uleb128 0x2e
 11527 2f12 01       		.uleb128 0x1
 11528 2f13 51       		.byte	0x51
 11529 2f14 02       		.uleb128 0x2
 11530 2f15 76       		.byte	0x76
 11531 2f16 00       		.sleb128 0
 11532 2f17 00       		.byte	0
 11533 2f18 2F       		.uleb128 0x2f
 11534 2f19 62090000 		.4byte	.LVL262
 11535 2f1d 0D470000 		.4byte	0x470d
 11536 2f21 322F0000 		.4byte	0x2f32
 11537 2f25 2E       		.uleb128 0x2e
 11538 2f26 01       		.uleb128 0x1
 11539 2f27 50       		.byte	0x50
 11540 2f28 02       		.uleb128 0x2
 11541 2f29 74       		.byte	0x74
 11542 2f2a 00       		.sleb128 0
 11543 2f2b 2E       		.uleb128 0x2e
 11544 2f2c 01       		.uleb128 0x1
 11545 2f2d 51       		.byte	0x51
 11546 2f2e 02       		.uleb128 0x2
 11547 2f2f 76       		.byte	0x76
 11548 2f30 00       		.sleb128 0
 11549 2f31 00       		.byte	0
ARM GAS  /var/folders/sv/kgmgr77579zbf78p2zlhkdfr0000gn/T//ccMuP6SP.s 			page 204


 11550 2f32 2F       		.uleb128 0x2f
 11551 2f33 6E090000 		.4byte	.LVL263
 11552 2f37 0D470000 		.4byte	0x470d
 11553 2f3b 4C2F0000 		.4byte	0x2f4c
 11554 2f3f 2E       		.uleb128 0x2e
 11555 2f40 01       		.uleb128 0x1
 11556 2f41 50       		.byte	0x50
 11557 2f42 02       		.uleb128 0x2
 11558 2f43 74       		.byte	0x74
 11559 2f44 00       		.sleb128 0
 11560 2f45 2E       		.uleb128 0x2e
 11561 2f46 01       		.uleb128 0x1
 11562 2f47 51       		.byte	0x51
 11563 2f48 02       		.uleb128 0x2
 11564 2f49 76       		.byte	0x76
 11565 2f4a 00       		.sleb128 0
 11566 2f4b 00       		.byte	0
 11567 2f4c 2F       		.uleb128 0x2f
 11568 2f4d 7A090000 		.4byte	.LVL264
 11569 2f51 0D470000 		.4byte	0x470d
 11570 2f55 662F0000 		.4byte	0x2f66
 11571 2f59 2E       		.uleb128 0x2e
 11572 2f5a 01       		.uleb128 0x1
 11573 2f5b 50       		.byte	0x50
 11574 2f5c 02       		.uleb128 0x2
 11575 2f5d 74       		.byte	0x74
 11576 2f5e 00       		.sleb128 0
 11577 2f5f 2E       		.uleb128 0x2e
 11578 2f60 01       		.uleb128 0x1
 11579 2f61 51       		.byte	0x51
 11580 2f62 02       		.uleb128 0x2
 11581 2f63 76       		.byte	0x76
 11582 2f64 00       		.sleb128 0
 11583 2f65 00       		.byte	0
 11584 2f66 2F       		.uleb128 0x2f
 11585 2f67 92090000 		.4byte	.LVL265
 11586 2f6b 0D470000 		.4byte	0x470d
 11587 2f6f 802F0000 		.4byte	0x2f80
 11588 2f73 2E       		.uleb128 0x2e
 11589 2f74 01       		.uleb128 0x1
 11590 2f75 50       		.byte	0x50
 11591 2f76 02       		.uleb128 0x2
 11592 2f77 74       		.byte	0x74
 11593 2f78 00       		.sleb128 0
 11594 2f79 2E       		.uleb128 0x2e
 11595 2f7a 01       		.uleb128 0x1
 11596 2f7b 51       		.byte	0x51
 11597 2f7c 02       		.uleb128 0x2
 11598 2f7d 76       		.byte	0x76
 11599 2f7e 00       		.sleb128 0
 11600 2f7f 00       		.byte	0
 11601 2f80 2F       		.uleb128 0x2f
 11602 2f81 9E090000 		.4byte	.LVL266
 11603 2f85 0D470000 		.4byte	0x470d
 11604 2f89 9A2F0000 		.4byte	0x2f9a
 11605 2f8d 2E       		.uleb128 0x2e
 11606 2f8e 01       		.uleb128 0x1
ARM GAS  /var/folders/sv/kgmgr77579zbf78p2zlhkdfr0000gn/T//ccMuP6SP.s 			page 205


 11607 2f8f 50       		.byte	0x50
 11608 2f90 02       		.uleb128 0x2
 11609 2f91 74       		.byte	0x74
 11610 2f92 00       		.sleb128 0
 11611 2f93 2E       		.uleb128 0x2e
 11612 2f94 01       		.uleb128 0x1
 11613 2f95 51       		.byte	0x51
 11614 2f96 02       		.uleb128 0x2
 11615 2f97 76       		.byte	0x76
 11616 2f98 00       		.sleb128 0
 11617 2f99 00       		.byte	0
 11618 2f9a 2F       		.uleb128 0x2f
 11619 2f9b AA090000 		.4byte	.LVL267
 11620 2f9f 0D470000 		.4byte	0x470d
 11621 2fa3 B42F0000 		.4byte	0x2fb4
 11622 2fa7 2E       		.uleb128 0x2e
 11623 2fa8 01       		.uleb128 0x1
 11624 2fa9 50       		.byte	0x50
 11625 2faa 02       		.uleb128 0x2
 11626 2fab 74       		.byte	0x74
 11627 2fac 00       		.sleb128 0
 11628 2fad 2E       		.uleb128 0x2e
 11629 2fae 01       		.uleb128 0x1
 11630 2faf 51       		.byte	0x51
 11631 2fb0 02       		.uleb128 0x2
 11632 2fb1 76       		.byte	0x76
 11633 2fb2 00       		.sleb128 0
 11634 2fb3 00       		.byte	0
 11635 2fb4 2F       		.uleb128 0x2f
 11636 2fb5 B6090000 		.4byte	.LVL268
 11637 2fb9 0D470000 		.4byte	0x470d
 11638 2fbd CE2F0000 		.4byte	0x2fce
 11639 2fc1 2E       		.uleb128 0x2e
 11640 2fc2 01       		.uleb128 0x1
 11641 2fc3 50       		.byte	0x50
 11642 2fc4 02       		.uleb128 0x2
 11643 2fc5 74       		.byte	0x74
 11644 2fc6 00       		.sleb128 0
 11645 2fc7 2E       		.uleb128 0x2e
 11646 2fc8 01       		.uleb128 0x1
 11647 2fc9 51       		.byte	0x51
 11648 2fca 02       		.uleb128 0x2
 11649 2fcb 76       		.byte	0x76
 11650 2fcc 00       		.sleb128 0
 11651 2fcd 00       		.byte	0
 11652 2fce 2F       		.uleb128 0x2f
 11653 2fcf C2090000 		.4byte	.LVL269
 11654 2fd3 0D470000 		.4byte	0x470d
 11655 2fd7 E82F0000 		.4byte	0x2fe8
 11656 2fdb 2E       		.uleb128 0x2e
 11657 2fdc 01       		.uleb128 0x1
 11658 2fdd 50       		.byte	0x50
 11659 2fde 02       		.uleb128 0x2
 11660 2fdf 74       		.byte	0x74
 11661 2fe0 00       		.sleb128 0
 11662 2fe1 2E       		.uleb128 0x2e
 11663 2fe2 01       		.uleb128 0x1
ARM GAS  /var/folders/sv/kgmgr77579zbf78p2zlhkdfr0000gn/T//ccMuP6SP.s 			page 206


 11664 2fe3 51       		.byte	0x51
 11665 2fe4 02       		.uleb128 0x2
 11666 2fe5 76       		.byte	0x76
 11667 2fe6 00       		.sleb128 0
 11668 2fe7 00       		.byte	0
 11669 2fe8 2F       		.uleb128 0x2f
 11670 2fe9 CE090000 		.4byte	.LVL270
 11671 2fed 0D470000 		.4byte	0x470d
 11672 2ff1 02300000 		.4byte	0x3002
 11673 2ff5 2E       		.uleb128 0x2e
 11674 2ff6 01       		.uleb128 0x1
 11675 2ff7 50       		.byte	0x50
 11676 2ff8 02       		.uleb128 0x2
 11677 2ff9 74       		.byte	0x74
 11678 2ffa 00       		.sleb128 0
 11679 2ffb 2E       		.uleb128 0x2e
 11680 2ffc 01       		.uleb128 0x1
 11681 2ffd 51       		.byte	0x51
 11682 2ffe 02       		.uleb128 0x2
 11683 2fff 76       		.byte	0x76
 11684 3000 00       		.sleb128 0
 11685 3001 00       		.byte	0
 11686 3002 2F       		.uleb128 0x2f
 11687 3003 DA090000 		.4byte	.LVL271
 11688 3007 0D470000 		.4byte	0x470d
 11689 300b 1C300000 		.4byte	0x301c
 11690 300f 2E       		.uleb128 0x2e
 11691 3010 01       		.uleb128 0x1
 11692 3011 50       		.byte	0x50
 11693 3012 02       		.uleb128 0x2
 11694 3013 74       		.byte	0x74
 11695 3014 00       		.sleb128 0
 11696 3015 2E       		.uleb128 0x2e
 11697 3016 01       		.uleb128 0x1
 11698 3017 51       		.byte	0x51
 11699 3018 02       		.uleb128 0x2
 11700 3019 76       		.byte	0x76
 11701 301a 00       		.sleb128 0
 11702 301b 00       		.byte	0
 11703 301c 2F       		.uleb128 0x2f
 11704 301d E6090000 		.4byte	.LVL272
 11705 3021 0D470000 		.4byte	0x470d
 11706 3025 36300000 		.4byte	0x3036
 11707 3029 2E       		.uleb128 0x2e
 11708 302a 01       		.uleb128 0x1
 11709 302b 50       		.byte	0x50
 11710 302c 02       		.uleb128 0x2
 11711 302d 74       		.byte	0x74
 11712 302e 00       		.sleb128 0
 11713 302f 2E       		.uleb128 0x2e
 11714 3030 01       		.uleb128 0x1
 11715 3031 51       		.byte	0x51
 11716 3032 02       		.uleb128 0x2
 11717 3033 76       		.byte	0x76
 11718 3034 00       		.sleb128 0
 11719 3035 00       		.byte	0
 11720 3036 2F       		.uleb128 0x2f
ARM GAS  /var/folders/sv/kgmgr77579zbf78p2zlhkdfr0000gn/T//ccMuP6SP.s 			page 207


 11721 3037 F2090000 		.4byte	.LVL273
 11722 303b 0D470000 		.4byte	0x470d
 11723 303f 50300000 		.4byte	0x3050
 11724 3043 2E       		.uleb128 0x2e
 11725 3044 01       		.uleb128 0x1
 11726 3045 50       		.byte	0x50
 11727 3046 02       		.uleb128 0x2
 11728 3047 74       		.byte	0x74
 11729 3048 00       		.sleb128 0
 11730 3049 2E       		.uleb128 0x2e
 11731 304a 01       		.uleb128 0x1
 11732 304b 51       		.byte	0x51
 11733 304c 02       		.uleb128 0x2
 11734 304d 76       		.byte	0x76
 11735 304e 00       		.sleb128 0
 11736 304f 00       		.byte	0
 11737 3050 2F       		.uleb128 0x2f
 11738 3051 FE090000 		.4byte	.LVL274
 11739 3055 0D470000 		.4byte	0x470d
 11740 3059 6A300000 		.4byte	0x306a
 11741 305d 2E       		.uleb128 0x2e
 11742 305e 01       		.uleb128 0x1
 11743 305f 50       		.byte	0x50
 11744 3060 02       		.uleb128 0x2
 11745 3061 74       		.byte	0x74
 11746 3062 00       		.sleb128 0
 11747 3063 2E       		.uleb128 0x2e
 11748 3064 01       		.uleb128 0x1
 11749 3065 51       		.byte	0x51
 11750 3066 02       		.uleb128 0x2
 11751 3067 76       		.byte	0x76
 11752 3068 00       		.sleb128 0
 11753 3069 00       		.byte	0
 11754 306a 2F       		.uleb128 0x2f
 11755 306b 0A0A0000 		.4byte	.LVL275
 11756 306f 0D470000 		.4byte	0x470d
 11757 3073 84300000 		.4byte	0x3084
 11758 3077 2E       		.uleb128 0x2e
 11759 3078 01       		.uleb128 0x1
 11760 3079 50       		.byte	0x50
 11761 307a 02       		.uleb128 0x2
 11762 307b 74       		.byte	0x74
 11763 307c 00       		.sleb128 0
 11764 307d 2E       		.uleb128 0x2e
 11765 307e 01       		.uleb128 0x1
 11766 307f 51       		.byte	0x51
 11767 3080 02       		.uleb128 0x2
 11768 3081 76       		.byte	0x76
 11769 3082 00       		.sleb128 0
 11770 3083 00       		.byte	0
 11771 3084 2F       		.uleb128 0x2f
 11772 3085 160A0000 		.4byte	.LVL276
 11773 3089 0D470000 		.4byte	0x470d
 11774 308d 9E300000 		.4byte	0x309e
 11775 3091 2E       		.uleb128 0x2e
 11776 3092 01       		.uleb128 0x1
 11777 3093 50       		.byte	0x50
ARM GAS  /var/folders/sv/kgmgr77579zbf78p2zlhkdfr0000gn/T//ccMuP6SP.s 			page 208


 11778 3094 02       		.uleb128 0x2
 11779 3095 74       		.byte	0x74
 11780 3096 00       		.sleb128 0
 11781 3097 2E       		.uleb128 0x2e
 11782 3098 01       		.uleb128 0x1
 11783 3099 51       		.byte	0x51
 11784 309a 02       		.uleb128 0x2
 11785 309b 76       		.byte	0x76
 11786 309c 00       		.sleb128 0
 11787 309d 00       		.byte	0
 11788 309e 2F       		.uleb128 0x2f
 11789 309f 220A0000 		.4byte	.LVL277
 11790 30a3 0D470000 		.4byte	0x470d
 11791 30a7 B8300000 		.4byte	0x30b8
 11792 30ab 2E       		.uleb128 0x2e
 11793 30ac 01       		.uleb128 0x1
 11794 30ad 50       		.byte	0x50
 11795 30ae 02       		.uleb128 0x2
 11796 30af 74       		.byte	0x74
 11797 30b0 00       		.sleb128 0
 11798 30b1 2E       		.uleb128 0x2e
 11799 30b2 01       		.uleb128 0x1
 11800 30b3 51       		.byte	0x51
 11801 30b4 02       		.uleb128 0x2
 11802 30b5 76       		.byte	0x76
 11803 30b6 00       		.sleb128 0
 11804 30b7 00       		.byte	0
 11805 30b8 2F       		.uleb128 0x2f
 11806 30b9 2E0A0000 		.4byte	.LVL278
 11807 30bd 0D470000 		.4byte	0x470d
 11808 30c1 D2300000 		.4byte	0x30d2
 11809 30c5 2E       		.uleb128 0x2e
 11810 30c6 01       		.uleb128 0x1
 11811 30c7 50       		.byte	0x50
 11812 30c8 02       		.uleb128 0x2
 11813 30c9 74       		.byte	0x74
 11814 30ca 00       		.sleb128 0
 11815 30cb 2E       		.uleb128 0x2e
 11816 30cc 01       		.uleb128 0x1
 11817 30cd 51       		.byte	0x51
 11818 30ce 02       		.uleb128 0x2
 11819 30cf 76       		.byte	0x76
 11820 30d0 00       		.sleb128 0
 11821 30d1 00       		.byte	0
 11822 30d2 2F       		.uleb128 0x2f
 11823 30d3 3A0A0000 		.4byte	.LVL279
 11824 30d7 0D470000 		.4byte	0x470d
 11825 30db EC300000 		.4byte	0x30ec
 11826 30df 2E       		.uleb128 0x2e
 11827 30e0 01       		.uleb128 0x1
 11828 30e1 50       		.byte	0x50
 11829 30e2 02       		.uleb128 0x2
 11830 30e3 74       		.byte	0x74
 11831 30e4 00       		.sleb128 0
 11832 30e5 2E       		.uleb128 0x2e
 11833 30e6 01       		.uleb128 0x1
 11834 30e7 51       		.byte	0x51
ARM GAS  /var/folders/sv/kgmgr77579zbf78p2zlhkdfr0000gn/T//ccMuP6SP.s 			page 209


 11835 30e8 02       		.uleb128 0x2
 11836 30e9 76       		.byte	0x76
 11837 30ea 00       		.sleb128 0
 11838 30eb 00       		.byte	0
 11839 30ec 2F       		.uleb128 0x2f
 11840 30ed 460A0000 		.4byte	.LVL280
 11841 30f1 0D470000 		.4byte	0x470d
 11842 30f5 06310000 		.4byte	0x3106
 11843 30f9 2E       		.uleb128 0x2e
 11844 30fa 01       		.uleb128 0x1
 11845 30fb 50       		.byte	0x50
 11846 30fc 02       		.uleb128 0x2
 11847 30fd 74       		.byte	0x74
 11848 30fe 00       		.sleb128 0
 11849 30ff 2E       		.uleb128 0x2e
 11850 3100 01       		.uleb128 0x1
 11851 3101 51       		.byte	0x51
 11852 3102 02       		.uleb128 0x2
 11853 3103 76       		.byte	0x76
 11854 3104 00       		.sleb128 0
 11855 3105 00       		.byte	0
 11856 3106 2F       		.uleb128 0x2f
 11857 3107 640A0000 		.4byte	.LVL281
 11858 310b 0D470000 		.4byte	0x470d
 11859 310f 20310000 		.4byte	0x3120
 11860 3113 2E       		.uleb128 0x2e
 11861 3114 01       		.uleb128 0x1
 11862 3115 50       		.byte	0x50
 11863 3116 02       		.uleb128 0x2
 11864 3117 74       		.byte	0x74
 11865 3118 00       		.sleb128 0
 11866 3119 2E       		.uleb128 0x2e
 11867 311a 01       		.uleb128 0x1
 11868 311b 51       		.byte	0x51
 11869 311c 02       		.uleb128 0x2
 11870 311d 76       		.byte	0x76
 11871 311e 00       		.sleb128 0
 11872 311f 00       		.byte	0
 11873 3120 2F       		.uleb128 0x2f
 11874 3121 700A0000 		.4byte	.LVL282
 11875 3125 0D470000 		.4byte	0x470d
 11876 3129 3A310000 		.4byte	0x313a
 11877 312d 2E       		.uleb128 0x2e
 11878 312e 01       		.uleb128 0x1
 11879 312f 50       		.byte	0x50
 11880 3130 02       		.uleb128 0x2
 11881 3131 74       		.byte	0x74
 11882 3132 00       		.sleb128 0
 11883 3133 2E       		.uleb128 0x2e
 11884 3134 01       		.uleb128 0x1
 11885 3135 51       		.byte	0x51
 11886 3136 02       		.uleb128 0x2
 11887 3137 76       		.byte	0x76
 11888 3138 00       		.sleb128 0
 11889 3139 00       		.byte	0
 11890 313a 2F       		.uleb128 0x2f
 11891 313b 7C0A0000 		.4byte	.LVL283
ARM GAS  /var/folders/sv/kgmgr77579zbf78p2zlhkdfr0000gn/T//ccMuP6SP.s 			page 210


 11892 313f 0D470000 		.4byte	0x470d
 11893 3143 54310000 		.4byte	0x3154
 11894 3147 2E       		.uleb128 0x2e
 11895 3148 01       		.uleb128 0x1
 11896 3149 50       		.byte	0x50
 11897 314a 02       		.uleb128 0x2
 11898 314b 74       		.byte	0x74
 11899 314c 00       		.sleb128 0
 11900 314d 2E       		.uleb128 0x2e
 11901 314e 01       		.uleb128 0x1
 11902 314f 51       		.byte	0x51
 11903 3150 02       		.uleb128 0x2
 11904 3151 76       		.byte	0x76
 11905 3152 00       		.sleb128 0
 11906 3153 00       		.byte	0
 11907 3154 2F       		.uleb128 0x2f
 11908 3155 880A0000 		.4byte	.LVL284
 11909 3159 0D470000 		.4byte	0x470d
 11910 315d 6E310000 		.4byte	0x316e
 11911 3161 2E       		.uleb128 0x2e
 11912 3162 01       		.uleb128 0x1
 11913 3163 50       		.byte	0x50
 11914 3164 02       		.uleb128 0x2
 11915 3165 74       		.byte	0x74
 11916 3166 00       		.sleb128 0
 11917 3167 2E       		.uleb128 0x2e
 11918 3168 01       		.uleb128 0x1
 11919 3169 51       		.byte	0x51
 11920 316a 02       		.uleb128 0x2
 11921 316b 76       		.byte	0x76
 11922 316c 00       		.sleb128 0
 11923 316d 00       		.byte	0
 11924 316e 2F       		.uleb128 0x2f
 11925 316f 940A0000 		.4byte	.LVL285
 11926 3173 0D470000 		.4byte	0x470d
 11927 3177 88310000 		.4byte	0x3188
 11928 317b 2E       		.uleb128 0x2e
 11929 317c 01       		.uleb128 0x1
 11930 317d 50       		.byte	0x50
 11931 317e 02       		.uleb128 0x2
 11932 317f 74       		.byte	0x74
 11933 3180 00       		.sleb128 0
 11934 3181 2E       		.uleb128 0x2e
 11935 3182 01       		.uleb128 0x1
 11936 3183 51       		.byte	0x51
 11937 3184 02       		.uleb128 0x2
 11938 3185 76       		.byte	0x76
 11939 3186 00       		.sleb128 0
 11940 3187 00       		.byte	0
 11941 3188 2F       		.uleb128 0x2f
 11942 3189 AC0A0000 		.4byte	.LVL286
 11943 318d 0D470000 		.4byte	0x470d
 11944 3191 A2310000 		.4byte	0x31a2
 11945 3195 2E       		.uleb128 0x2e
 11946 3196 01       		.uleb128 0x1
 11947 3197 50       		.byte	0x50
 11948 3198 02       		.uleb128 0x2
ARM GAS  /var/folders/sv/kgmgr77579zbf78p2zlhkdfr0000gn/T//ccMuP6SP.s 			page 211


 11949 3199 74       		.byte	0x74
 11950 319a 00       		.sleb128 0
 11951 319b 2E       		.uleb128 0x2e
 11952 319c 01       		.uleb128 0x1
 11953 319d 51       		.byte	0x51
 11954 319e 02       		.uleb128 0x2
 11955 319f 76       		.byte	0x76
 11956 31a0 00       		.sleb128 0
 11957 31a1 00       		.byte	0
 11958 31a2 2F       		.uleb128 0x2f
 11959 31a3 B80A0000 		.4byte	.LVL287
 11960 31a7 0D470000 		.4byte	0x470d
 11961 31ab BC310000 		.4byte	0x31bc
 11962 31af 2E       		.uleb128 0x2e
 11963 31b0 01       		.uleb128 0x1
 11964 31b1 50       		.byte	0x50
 11965 31b2 02       		.uleb128 0x2
 11966 31b3 74       		.byte	0x74
 11967 31b4 00       		.sleb128 0
 11968 31b5 2E       		.uleb128 0x2e
 11969 31b6 01       		.uleb128 0x1
 11970 31b7 51       		.byte	0x51
 11971 31b8 02       		.uleb128 0x2
 11972 31b9 76       		.byte	0x76
 11973 31ba 00       		.sleb128 0
 11974 31bb 00       		.byte	0
 11975 31bc 2F       		.uleb128 0x2f
 11976 31bd D00A0000 		.4byte	.LVL288
 11977 31c1 0D470000 		.4byte	0x470d
 11978 31c5 D6310000 		.4byte	0x31d6
 11979 31c9 2E       		.uleb128 0x2e
 11980 31ca 01       		.uleb128 0x1
 11981 31cb 50       		.byte	0x50
 11982 31cc 02       		.uleb128 0x2
 11983 31cd 74       		.byte	0x74
 11984 31ce 00       		.sleb128 0
 11985 31cf 2E       		.uleb128 0x2e
 11986 31d0 01       		.uleb128 0x1
 11987 31d1 51       		.byte	0x51
 11988 31d2 02       		.uleb128 0x2
 11989 31d3 76       		.byte	0x76
 11990 31d4 00       		.sleb128 0
 11991 31d5 00       		.byte	0
 11992 31d6 2F       		.uleb128 0x2f
 11993 31d7 DC0A0000 		.4byte	.LVL289
 11994 31db 0D470000 		.4byte	0x470d
 11995 31df F0310000 		.4byte	0x31f0
 11996 31e3 2E       		.uleb128 0x2e
 11997 31e4 01       		.uleb128 0x1
 11998 31e5 50       		.byte	0x50
 11999 31e6 02       		.uleb128 0x2
 12000 31e7 74       		.byte	0x74
 12001 31e8 00       		.sleb128 0
 12002 31e9 2E       		.uleb128 0x2e
 12003 31ea 01       		.uleb128 0x1
 12004 31eb 51       		.byte	0x51
 12005 31ec 02       		.uleb128 0x2
ARM GAS  /var/folders/sv/kgmgr77579zbf78p2zlhkdfr0000gn/T//ccMuP6SP.s 			page 212


 12006 31ed 76       		.byte	0x76
 12007 31ee 00       		.sleb128 0
 12008 31ef 00       		.byte	0
 12009 31f0 2F       		.uleb128 0x2f
 12010 31f1 E80A0000 		.4byte	.LVL290
 12011 31f5 0D470000 		.4byte	0x470d
 12012 31f9 0A320000 		.4byte	0x320a
 12013 31fd 2E       		.uleb128 0x2e
 12014 31fe 01       		.uleb128 0x1
 12015 31ff 50       		.byte	0x50
 12016 3200 02       		.uleb128 0x2
 12017 3201 74       		.byte	0x74
 12018 3202 00       		.sleb128 0
 12019 3203 2E       		.uleb128 0x2e
 12020 3204 01       		.uleb128 0x1
 12021 3205 51       		.byte	0x51
 12022 3206 02       		.uleb128 0x2
 12023 3207 76       		.byte	0x76
 12024 3208 00       		.sleb128 0
 12025 3209 00       		.byte	0
 12026 320a 2F       		.uleb128 0x2f
 12027 320b F40A0000 		.4byte	.LVL291
 12028 320f 0D470000 		.4byte	0x470d
 12029 3213 24320000 		.4byte	0x3224
 12030 3217 2E       		.uleb128 0x2e
 12031 3218 01       		.uleb128 0x1
 12032 3219 50       		.byte	0x50
 12033 321a 02       		.uleb128 0x2
 12034 321b 74       		.byte	0x74
 12035 321c 00       		.sleb128 0
 12036 321d 2E       		.uleb128 0x2e
 12037 321e 01       		.uleb128 0x1
 12038 321f 51       		.byte	0x51
 12039 3220 02       		.uleb128 0x2
 12040 3221 76       		.byte	0x76
 12041 3222 00       		.sleb128 0
 12042 3223 00       		.byte	0
 12043 3224 2F       		.uleb128 0x2f
 12044 3225 000B0000 		.4byte	.LVL292
 12045 3229 0D470000 		.4byte	0x470d
 12046 322d 3E320000 		.4byte	0x323e
 12047 3231 2E       		.uleb128 0x2e
 12048 3232 01       		.uleb128 0x1
 12049 3233 50       		.byte	0x50
 12050 3234 02       		.uleb128 0x2
 12051 3235 74       		.byte	0x74
 12052 3236 00       		.sleb128 0
 12053 3237 2E       		.uleb128 0x2e
 12054 3238 01       		.uleb128 0x1
 12055 3239 51       		.byte	0x51
 12056 323a 02       		.uleb128 0x2
 12057 323b 76       		.byte	0x76
 12058 323c 00       		.sleb128 0
 12059 323d 00       		.byte	0
 12060 323e 2F       		.uleb128 0x2f
 12061 323f 0C0B0000 		.4byte	.LVL293
 12062 3243 0D470000 		.4byte	0x470d
ARM GAS  /var/folders/sv/kgmgr77579zbf78p2zlhkdfr0000gn/T//ccMuP6SP.s 			page 213


 12063 3247 58320000 		.4byte	0x3258
 12064 324b 2E       		.uleb128 0x2e
 12065 324c 01       		.uleb128 0x1
 12066 324d 50       		.byte	0x50
 12067 324e 02       		.uleb128 0x2
 12068 324f 74       		.byte	0x74
 12069 3250 00       		.sleb128 0
 12070 3251 2E       		.uleb128 0x2e
 12071 3252 01       		.uleb128 0x1
 12072 3253 51       		.byte	0x51
 12073 3254 02       		.uleb128 0x2
 12074 3255 76       		.byte	0x76
 12075 3256 00       		.sleb128 0
 12076 3257 00       		.byte	0
 12077 3258 2F       		.uleb128 0x2f
 12078 3259 180B0000 		.4byte	.LVL294
 12079 325d 0D470000 		.4byte	0x470d
 12080 3261 72320000 		.4byte	0x3272
 12081 3265 2E       		.uleb128 0x2e
 12082 3266 01       		.uleb128 0x1
 12083 3267 50       		.byte	0x50
 12084 3268 02       		.uleb128 0x2
 12085 3269 74       		.byte	0x74
 12086 326a 00       		.sleb128 0
 12087 326b 2E       		.uleb128 0x2e
 12088 326c 01       		.uleb128 0x1
 12089 326d 51       		.byte	0x51
 12090 326e 02       		.uleb128 0x2
 12091 326f 76       		.byte	0x76
 12092 3270 00       		.sleb128 0
 12093 3271 00       		.byte	0
 12094 3272 2F       		.uleb128 0x2f
 12095 3273 240B0000 		.4byte	.LVL295
 12096 3277 0D470000 		.4byte	0x470d
 12097 327b 8C320000 		.4byte	0x328c
 12098 327f 2E       		.uleb128 0x2e
 12099 3280 01       		.uleb128 0x1
 12100 3281 50       		.byte	0x50
 12101 3282 02       		.uleb128 0x2
 12102 3283 74       		.byte	0x74
 12103 3284 00       		.sleb128 0
 12104 3285 2E       		.uleb128 0x2e
 12105 3286 01       		.uleb128 0x1
 12106 3287 51       		.byte	0x51
 12107 3288 02       		.uleb128 0x2
 12108 3289 76       		.byte	0x76
 12109 328a 00       		.sleb128 0
 12110 328b 00       		.byte	0
 12111 328c 2F       		.uleb128 0x2f
 12112 328d 300B0000 		.4byte	.LVL296
 12113 3291 0D470000 		.4byte	0x470d
 12114 3295 A6320000 		.4byte	0x32a6
 12115 3299 2E       		.uleb128 0x2e
 12116 329a 01       		.uleb128 0x1
 12117 329b 50       		.byte	0x50
 12118 329c 02       		.uleb128 0x2
 12119 329d 74       		.byte	0x74
ARM GAS  /var/folders/sv/kgmgr77579zbf78p2zlhkdfr0000gn/T//ccMuP6SP.s 			page 214


 12120 329e 00       		.sleb128 0
 12121 329f 2E       		.uleb128 0x2e
 12122 32a0 01       		.uleb128 0x1
 12123 32a1 51       		.byte	0x51
 12124 32a2 02       		.uleb128 0x2
 12125 32a3 76       		.byte	0x76
 12126 32a4 00       		.sleb128 0
 12127 32a5 00       		.byte	0
 12128 32a6 2F       		.uleb128 0x2f
 12129 32a7 3C0B0000 		.4byte	.LVL297
 12130 32ab 0D470000 		.4byte	0x470d
 12131 32af C0320000 		.4byte	0x32c0
 12132 32b3 2E       		.uleb128 0x2e
 12133 32b4 01       		.uleb128 0x1
 12134 32b5 50       		.byte	0x50
 12135 32b6 02       		.uleb128 0x2
 12136 32b7 74       		.byte	0x74
 12137 32b8 00       		.sleb128 0
 12138 32b9 2E       		.uleb128 0x2e
 12139 32ba 01       		.uleb128 0x1
 12140 32bb 51       		.byte	0x51
 12141 32bc 02       		.uleb128 0x2
 12142 32bd 76       		.byte	0x76
 12143 32be 00       		.sleb128 0
 12144 32bf 00       		.byte	0
 12145 32c0 2F       		.uleb128 0x2f
 12146 32c1 480B0000 		.4byte	.LVL298
 12147 32c5 0D470000 		.4byte	0x470d
 12148 32c9 DA320000 		.4byte	0x32da
 12149 32cd 2E       		.uleb128 0x2e
 12150 32ce 01       		.uleb128 0x1
 12151 32cf 50       		.byte	0x50
 12152 32d0 02       		.uleb128 0x2
 12153 32d1 74       		.byte	0x74
 12154 32d2 00       		.sleb128 0
 12155 32d3 2E       		.uleb128 0x2e
 12156 32d4 01       		.uleb128 0x1
 12157 32d5 51       		.byte	0x51
 12158 32d6 02       		.uleb128 0x2
 12159 32d7 76       		.byte	0x76
 12160 32d8 00       		.sleb128 0
 12161 32d9 00       		.byte	0
 12162 32da 2F       		.uleb128 0x2f
 12163 32db 540B0000 		.4byte	.LVL299
 12164 32df 0D470000 		.4byte	0x470d
 12165 32e3 F4320000 		.4byte	0x32f4
 12166 32e7 2E       		.uleb128 0x2e
 12167 32e8 01       		.uleb128 0x1
 12168 32e9 50       		.byte	0x50
 12169 32ea 02       		.uleb128 0x2
 12170 32eb 74       		.byte	0x74
 12171 32ec 00       		.sleb128 0
 12172 32ed 2E       		.uleb128 0x2e
 12173 32ee 01       		.uleb128 0x1
 12174 32ef 51       		.byte	0x51
 12175 32f0 02       		.uleb128 0x2
 12176 32f1 76       		.byte	0x76
ARM GAS  /var/folders/sv/kgmgr77579zbf78p2zlhkdfr0000gn/T//ccMuP6SP.s 			page 215


 12177 32f2 00       		.sleb128 0
 12178 32f3 00       		.byte	0
 12179 32f4 2F       		.uleb128 0x2f
 12180 32f5 600B0000 		.4byte	.LVL300
 12181 32f9 0D470000 		.4byte	0x470d
 12182 32fd 0E330000 		.4byte	0x330e
 12183 3301 2E       		.uleb128 0x2e
 12184 3302 01       		.uleb128 0x1
 12185 3303 50       		.byte	0x50
 12186 3304 02       		.uleb128 0x2
 12187 3305 74       		.byte	0x74
 12188 3306 00       		.sleb128 0
 12189 3307 2E       		.uleb128 0x2e
 12190 3308 01       		.uleb128 0x1
 12191 3309 51       		.byte	0x51
 12192 330a 02       		.uleb128 0x2
 12193 330b 76       		.byte	0x76
 12194 330c 00       		.sleb128 0
 12195 330d 00       		.byte	0
 12196 330e 2F       		.uleb128 0x2f
 12197 330f 6C0B0000 		.4byte	.LVL301
 12198 3313 0D470000 		.4byte	0x470d
 12199 3317 28330000 		.4byte	0x3328
 12200 331b 2E       		.uleb128 0x2e
 12201 331c 01       		.uleb128 0x1
 12202 331d 50       		.byte	0x50
 12203 331e 02       		.uleb128 0x2
 12204 331f 74       		.byte	0x74
 12205 3320 00       		.sleb128 0
 12206 3321 2E       		.uleb128 0x2e
 12207 3322 01       		.uleb128 0x1
 12208 3323 51       		.byte	0x51
 12209 3324 02       		.uleb128 0x2
 12210 3325 76       		.byte	0x76
 12211 3326 00       		.sleb128 0
 12212 3327 00       		.byte	0
 12213 3328 2F       		.uleb128 0x2f
 12214 3329 8C0B0000 		.4byte	.LVL302
 12215 332d 0D470000 		.4byte	0x470d
 12216 3331 42330000 		.4byte	0x3342
 12217 3335 2E       		.uleb128 0x2e
 12218 3336 01       		.uleb128 0x1
 12219 3337 50       		.byte	0x50
 12220 3338 02       		.uleb128 0x2
 12221 3339 74       		.byte	0x74
 12222 333a 00       		.sleb128 0
 12223 333b 2E       		.uleb128 0x2e
 12224 333c 01       		.uleb128 0x1
 12225 333d 51       		.byte	0x51
 12226 333e 02       		.uleb128 0x2
 12227 333f 76       		.byte	0x76
 12228 3340 00       		.sleb128 0
 12229 3341 00       		.byte	0
 12230 3342 2F       		.uleb128 0x2f
 12231 3343 AC0B0000 		.4byte	.LVL303
 12232 3347 0D470000 		.4byte	0x470d
 12233 334b 5C330000 		.4byte	0x335c
ARM GAS  /var/folders/sv/kgmgr77579zbf78p2zlhkdfr0000gn/T//ccMuP6SP.s 			page 216


 12234 334f 2E       		.uleb128 0x2e
 12235 3350 01       		.uleb128 0x1
 12236 3351 50       		.byte	0x50
 12237 3352 02       		.uleb128 0x2
 12238 3353 74       		.byte	0x74
 12239 3354 00       		.sleb128 0
 12240 3355 2E       		.uleb128 0x2e
 12241 3356 01       		.uleb128 0x1
 12242 3357 51       		.byte	0x51
 12243 3358 02       		.uleb128 0x2
 12244 3359 76       		.byte	0x76
 12245 335a 00       		.sleb128 0
 12246 335b 00       		.byte	0
 12247 335c 2F       		.uleb128 0x2f
 12248 335d C40B0000 		.4byte	.LVL304
 12249 3361 0D470000 		.4byte	0x470d
 12250 3365 76330000 		.4byte	0x3376
 12251 3369 2E       		.uleb128 0x2e
 12252 336a 01       		.uleb128 0x1
 12253 336b 50       		.byte	0x50
 12254 336c 02       		.uleb128 0x2
 12255 336d 74       		.byte	0x74
 12256 336e 00       		.sleb128 0
 12257 336f 2E       		.uleb128 0x2e
 12258 3370 01       		.uleb128 0x1
 12259 3371 51       		.byte	0x51
 12260 3372 02       		.uleb128 0x2
 12261 3373 76       		.byte	0x76
 12262 3374 00       		.sleb128 0
 12263 3375 00       		.byte	0
 12264 3376 2F       		.uleb128 0x2f
 12265 3377 D00B0000 		.4byte	.LVL305
 12266 337b 0D470000 		.4byte	0x470d
 12267 337f 90330000 		.4byte	0x3390
 12268 3383 2E       		.uleb128 0x2e
 12269 3384 01       		.uleb128 0x1
 12270 3385 50       		.byte	0x50
 12271 3386 02       		.uleb128 0x2
 12272 3387 74       		.byte	0x74
 12273 3388 00       		.sleb128 0
 12274 3389 2E       		.uleb128 0x2e
 12275 338a 01       		.uleb128 0x1
 12276 338b 51       		.byte	0x51
 12277 338c 02       		.uleb128 0x2
 12278 338d 76       		.byte	0x76
 12279 338e 00       		.sleb128 0
 12280 338f 00       		.byte	0
 12281 3390 2F       		.uleb128 0x2f
 12282 3391 DC0B0000 		.4byte	.LVL306
 12283 3395 0D470000 		.4byte	0x470d
 12284 3399 AA330000 		.4byte	0x33aa
 12285 339d 2E       		.uleb128 0x2e
 12286 339e 01       		.uleb128 0x1
 12287 339f 50       		.byte	0x50
 12288 33a0 02       		.uleb128 0x2
 12289 33a1 74       		.byte	0x74
 12290 33a2 00       		.sleb128 0
ARM GAS  /var/folders/sv/kgmgr77579zbf78p2zlhkdfr0000gn/T//ccMuP6SP.s 			page 217


 12291 33a3 2E       		.uleb128 0x2e
 12292 33a4 01       		.uleb128 0x1
 12293 33a5 51       		.byte	0x51
 12294 33a6 02       		.uleb128 0x2
 12295 33a7 76       		.byte	0x76
 12296 33a8 00       		.sleb128 0
 12297 33a9 00       		.byte	0
 12298 33aa 2F       		.uleb128 0x2f
 12299 33ab E80B0000 		.4byte	.LVL307
 12300 33af 0D470000 		.4byte	0x470d
 12301 33b3 C4330000 		.4byte	0x33c4
 12302 33b7 2E       		.uleb128 0x2e
 12303 33b8 01       		.uleb128 0x1
 12304 33b9 50       		.byte	0x50
 12305 33ba 02       		.uleb128 0x2
 12306 33bb 74       		.byte	0x74
 12307 33bc 00       		.sleb128 0
 12308 33bd 2E       		.uleb128 0x2e
 12309 33be 01       		.uleb128 0x1
 12310 33bf 51       		.byte	0x51
 12311 33c0 02       		.uleb128 0x2
 12312 33c1 76       		.byte	0x76
 12313 33c2 00       		.sleb128 0
 12314 33c3 00       		.byte	0
 12315 33c4 2F       		.uleb128 0x2f
 12316 33c5 F40B0000 		.4byte	.LVL308
 12317 33c9 0D470000 		.4byte	0x470d
 12318 33cd DE330000 		.4byte	0x33de
 12319 33d1 2E       		.uleb128 0x2e
 12320 33d2 01       		.uleb128 0x1
 12321 33d3 50       		.byte	0x50
 12322 33d4 02       		.uleb128 0x2
 12323 33d5 74       		.byte	0x74
 12324 33d6 00       		.sleb128 0
 12325 33d7 2E       		.uleb128 0x2e
 12326 33d8 01       		.uleb128 0x1
 12327 33d9 51       		.byte	0x51
 12328 33da 02       		.uleb128 0x2
 12329 33db 76       		.byte	0x76
 12330 33dc 00       		.sleb128 0
 12331 33dd 00       		.byte	0
 12332 33de 2F       		.uleb128 0x2f
 12333 33df 0C0C0000 		.4byte	.LVL309
 12334 33e3 0D470000 		.4byte	0x470d
 12335 33e7 F8330000 		.4byte	0x33f8
 12336 33eb 2E       		.uleb128 0x2e
 12337 33ec 01       		.uleb128 0x1
 12338 33ed 50       		.byte	0x50
 12339 33ee 02       		.uleb128 0x2
 12340 33ef 74       		.byte	0x74
 12341 33f0 00       		.sleb128 0
 12342 33f1 2E       		.uleb128 0x2e
 12343 33f2 01       		.uleb128 0x1
 12344 33f3 51       		.byte	0x51
 12345 33f4 02       		.uleb128 0x2
 12346 33f5 76       		.byte	0x76
 12347 33f6 00       		.sleb128 0
ARM GAS  /var/folders/sv/kgmgr77579zbf78p2zlhkdfr0000gn/T//ccMuP6SP.s 			page 218


 12348 33f7 00       		.byte	0
 12349 33f8 2F       		.uleb128 0x2f
 12350 33f9 180C0000 		.4byte	.LVL310
 12351 33fd 0D470000 		.4byte	0x470d
 12352 3401 12340000 		.4byte	0x3412
 12353 3405 2E       		.uleb128 0x2e
 12354 3406 01       		.uleb128 0x1
 12355 3407 50       		.byte	0x50
 12356 3408 02       		.uleb128 0x2
 12357 3409 74       		.byte	0x74
 12358 340a 00       		.sleb128 0
 12359 340b 2E       		.uleb128 0x2e
 12360 340c 01       		.uleb128 0x1
 12361 340d 51       		.byte	0x51
 12362 340e 02       		.uleb128 0x2
 12363 340f 76       		.byte	0x76
 12364 3410 00       		.sleb128 0
 12365 3411 00       		.byte	0
 12366 3412 2F       		.uleb128 0x2f
 12367 3413 240C0000 		.4byte	.LVL311
 12368 3417 0D470000 		.4byte	0x470d
 12369 341b 2C340000 		.4byte	0x342c
 12370 341f 2E       		.uleb128 0x2e
 12371 3420 01       		.uleb128 0x1
 12372 3421 50       		.byte	0x50
 12373 3422 02       		.uleb128 0x2
 12374 3423 74       		.byte	0x74
 12375 3424 00       		.sleb128 0
 12376 3425 2E       		.uleb128 0x2e
 12377 3426 01       		.uleb128 0x1
 12378 3427 51       		.byte	0x51
 12379 3428 02       		.uleb128 0x2
 12380 3429 76       		.byte	0x76
 12381 342a 00       		.sleb128 0
 12382 342b 00       		.byte	0
 12383 342c 2F       		.uleb128 0x2f
 12384 342d 300C0000 		.4byte	.LVL312
 12385 3431 0D470000 		.4byte	0x470d
 12386 3435 46340000 		.4byte	0x3446
 12387 3439 2E       		.uleb128 0x2e
 12388 343a 01       		.uleb128 0x1
 12389 343b 50       		.byte	0x50
 12390 343c 02       		.uleb128 0x2
 12391 343d 74       		.byte	0x74
 12392 343e 00       		.sleb128 0
 12393 343f 2E       		.uleb128 0x2e
 12394 3440 01       		.uleb128 0x1
 12395 3441 51       		.byte	0x51
 12396 3442 02       		.uleb128 0x2
 12397 3443 76       		.byte	0x76
 12398 3444 00       		.sleb128 0
 12399 3445 00       		.byte	0
 12400 3446 2F       		.uleb128 0x2f
 12401 3447 3C0C0000 		.4byte	.LVL313
 12402 344b 0D470000 		.4byte	0x470d
 12403 344f 60340000 		.4byte	0x3460
 12404 3453 2E       		.uleb128 0x2e
ARM GAS  /var/folders/sv/kgmgr77579zbf78p2zlhkdfr0000gn/T//ccMuP6SP.s 			page 219


 12405 3454 01       		.uleb128 0x1
 12406 3455 50       		.byte	0x50
 12407 3456 02       		.uleb128 0x2
 12408 3457 74       		.byte	0x74
 12409 3458 00       		.sleb128 0
 12410 3459 2E       		.uleb128 0x2e
 12411 345a 01       		.uleb128 0x1
 12412 345b 51       		.byte	0x51
 12413 345c 02       		.uleb128 0x2
 12414 345d 76       		.byte	0x76
 12415 345e 00       		.sleb128 0
 12416 345f 00       		.byte	0
 12417 3460 2F       		.uleb128 0x2f
 12418 3461 480C0000 		.4byte	.LVL314
 12419 3465 0D470000 		.4byte	0x470d
 12420 3469 7A340000 		.4byte	0x347a
 12421 346d 2E       		.uleb128 0x2e
 12422 346e 01       		.uleb128 0x1
 12423 346f 50       		.byte	0x50
 12424 3470 02       		.uleb128 0x2
 12425 3471 74       		.byte	0x74
 12426 3472 00       		.sleb128 0
 12427 3473 2E       		.uleb128 0x2e
 12428 3474 01       		.uleb128 0x1
 12429 3475 51       		.byte	0x51
 12430 3476 02       		.uleb128 0x2
 12431 3477 76       		.byte	0x76
 12432 3478 00       		.sleb128 0
 12433 3479 00       		.byte	0
 12434 347a 2F       		.uleb128 0x2f
 12435 347b 540C0000 		.4byte	.LVL315
 12436 347f 0D470000 		.4byte	0x470d
 12437 3483 94340000 		.4byte	0x3494
 12438 3487 2E       		.uleb128 0x2e
 12439 3488 01       		.uleb128 0x1
 12440 3489 50       		.byte	0x50
 12441 348a 02       		.uleb128 0x2
 12442 348b 74       		.byte	0x74
 12443 348c 00       		.sleb128 0
 12444 348d 2E       		.uleb128 0x2e
 12445 348e 01       		.uleb128 0x1
 12446 348f 51       		.byte	0x51
 12447 3490 02       		.uleb128 0x2
 12448 3491 76       		.byte	0x76
 12449 3492 00       		.sleb128 0
 12450 3493 00       		.byte	0
 12451 3494 2F       		.uleb128 0x2f
 12452 3495 600C0000 		.4byte	.LVL316
 12453 3499 0D470000 		.4byte	0x470d
 12454 349d AE340000 		.4byte	0x34ae
 12455 34a1 2E       		.uleb128 0x2e
 12456 34a2 01       		.uleb128 0x1
 12457 34a3 50       		.byte	0x50
 12458 34a4 02       		.uleb128 0x2
 12459 34a5 74       		.byte	0x74
 12460 34a6 00       		.sleb128 0
 12461 34a7 2E       		.uleb128 0x2e
ARM GAS  /var/folders/sv/kgmgr77579zbf78p2zlhkdfr0000gn/T//ccMuP6SP.s 			page 220


 12462 34a8 01       		.uleb128 0x1
 12463 34a9 51       		.byte	0x51
 12464 34aa 02       		.uleb128 0x2
 12465 34ab 76       		.byte	0x76
 12466 34ac 00       		.sleb128 0
 12467 34ad 00       		.byte	0
 12468 34ae 2F       		.uleb128 0x2f
 12469 34af 6C0C0000 		.4byte	.LVL317
 12470 34b3 D7460000 		.4byte	0x46d7
 12471 34b7 C8340000 		.4byte	0x34c8
 12472 34bb 2E       		.uleb128 0x2e
 12473 34bc 01       		.uleb128 0x1
 12474 34bd 50       		.byte	0x50
 12475 34be 02       		.uleb128 0x2
 12476 34bf 74       		.byte	0x74
 12477 34c0 00       		.sleb128 0
 12478 34c1 2E       		.uleb128 0x2e
 12479 34c2 01       		.uleb128 0x1
 12480 34c3 52       		.byte	0x52
 12481 34c4 02       		.uleb128 0x2
 12482 34c5 76       		.byte	0x76
 12483 34c6 00       		.sleb128 0
 12484 34c7 00       		.byte	0
 12485 34c8 2F       		.uleb128 0x2f
 12486 34c9 820C0000 		.4byte	.LVL318
 12487 34cd 0D470000 		.4byte	0x470d
 12488 34d1 E2340000 		.4byte	0x34e2
 12489 34d5 2E       		.uleb128 0x2e
 12490 34d6 01       		.uleb128 0x1
 12491 34d7 50       		.byte	0x50
 12492 34d8 02       		.uleb128 0x2
 12493 34d9 74       		.byte	0x74
 12494 34da 00       		.sleb128 0
 12495 34db 2E       		.uleb128 0x2e
 12496 34dc 01       		.uleb128 0x1
 12497 34dd 51       		.byte	0x51
 12498 34de 02       		.uleb128 0x2
 12499 34df 76       		.byte	0x76
 12500 34e0 00       		.sleb128 0
 12501 34e1 00       		.byte	0
 12502 34e2 2F       		.uleb128 0x2f
 12503 34e3 8E0C0000 		.4byte	.LVL319
 12504 34e7 0D470000 		.4byte	0x470d
 12505 34eb FC340000 		.4byte	0x34fc
 12506 34ef 2E       		.uleb128 0x2e
 12507 34f0 01       		.uleb128 0x1
 12508 34f1 50       		.byte	0x50
 12509 34f2 02       		.uleb128 0x2
 12510 34f3 74       		.byte	0x74
 12511 34f4 00       		.sleb128 0
 12512 34f5 2E       		.uleb128 0x2e
 12513 34f6 01       		.uleb128 0x1
 12514 34f7 51       		.byte	0x51
 12515 34f8 02       		.uleb128 0x2
 12516 34f9 76       		.byte	0x76
 12517 34fa 00       		.sleb128 0
 12518 34fb 00       		.byte	0
ARM GAS  /var/folders/sv/kgmgr77579zbf78p2zlhkdfr0000gn/T//ccMuP6SP.s 			page 221


 12519 34fc 2F       		.uleb128 0x2f
 12520 34fd 9A0C0000 		.4byte	.LVL320
 12521 3501 02470000 		.4byte	0x4702
 12522 3505 16350000 		.4byte	0x3516
 12523 3509 2E       		.uleb128 0x2e
 12524 350a 01       		.uleb128 0x1
 12525 350b 50       		.byte	0x50
 12526 350c 02       		.uleb128 0x2
 12527 350d 74       		.byte	0x74
 12528 350e 00       		.sleb128 0
 12529 350f 2E       		.uleb128 0x2e
 12530 3510 01       		.uleb128 0x1
 12531 3511 52       		.byte	0x52
 12532 3512 02       		.uleb128 0x2
 12533 3513 76       		.byte	0x76
 12534 3514 00       		.sleb128 0
 12535 3515 00       		.byte	0
 12536 3516 2F       		.uleb128 0x2f
 12537 3517 C60C0000 		.4byte	.LVL321
 12538 351b 0D470000 		.4byte	0x470d
 12539 351f 30350000 		.4byte	0x3530
 12540 3523 2E       		.uleb128 0x2e
 12541 3524 01       		.uleb128 0x1
 12542 3525 50       		.byte	0x50
 12543 3526 02       		.uleb128 0x2
 12544 3527 74       		.byte	0x74
 12545 3528 00       		.sleb128 0
 12546 3529 2E       		.uleb128 0x2e
 12547 352a 01       		.uleb128 0x1
 12548 352b 51       		.byte	0x51
 12549 352c 02       		.uleb128 0x2
 12550 352d 76       		.byte	0x76
 12551 352e 00       		.sleb128 0
 12552 352f 00       		.byte	0
 12553 3530 2F       		.uleb128 0x2f
 12554 3531 D20C0000 		.4byte	.LVL322
 12555 3535 0D470000 		.4byte	0x470d
 12556 3539 4A350000 		.4byte	0x354a
 12557 353d 2E       		.uleb128 0x2e
 12558 353e 01       		.uleb128 0x1
 12559 353f 50       		.byte	0x50
 12560 3540 02       		.uleb128 0x2
 12561 3541 74       		.byte	0x74
 12562 3542 00       		.sleb128 0
 12563 3543 2E       		.uleb128 0x2e
 12564 3544 01       		.uleb128 0x1
 12565 3545 51       		.byte	0x51
 12566 3546 02       		.uleb128 0x2
 12567 3547 76       		.byte	0x76
 12568 3548 00       		.sleb128 0
 12569 3549 00       		.byte	0
 12570 354a 2F       		.uleb128 0x2f
 12571 354b DE0C0000 		.4byte	.LVL323
 12572 354f 0D470000 		.4byte	0x470d
 12573 3553 64350000 		.4byte	0x3564
 12574 3557 2E       		.uleb128 0x2e
 12575 3558 01       		.uleb128 0x1
ARM GAS  /var/folders/sv/kgmgr77579zbf78p2zlhkdfr0000gn/T//ccMuP6SP.s 			page 222


 12576 3559 50       		.byte	0x50
 12577 355a 02       		.uleb128 0x2
 12578 355b 74       		.byte	0x74
 12579 355c 00       		.sleb128 0
 12580 355d 2E       		.uleb128 0x2e
 12581 355e 01       		.uleb128 0x1
 12582 355f 51       		.byte	0x51
 12583 3560 02       		.uleb128 0x2
 12584 3561 76       		.byte	0x76
 12585 3562 00       		.sleb128 0
 12586 3563 00       		.byte	0
 12587 3564 2F       		.uleb128 0x2f
 12588 3565 EA0C0000 		.4byte	.LVL324
 12589 3569 0D470000 		.4byte	0x470d
 12590 356d 7E350000 		.4byte	0x357e
 12591 3571 2E       		.uleb128 0x2e
 12592 3572 01       		.uleb128 0x1
 12593 3573 50       		.byte	0x50
 12594 3574 02       		.uleb128 0x2
 12595 3575 74       		.byte	0x74
 12596 3576 00       		.sleb128 0
 12597 3577 2E       		.uleb128 0x2e
 12598 3578 01       		.uleb128 0x1
 12599 3579 51       		.byte	0x51
 12600 357a 02       		.uleb128 0x2
 12601 357b 76       		.byte	0x76
 12602 357c 00       		.sleb128 0
 12603 357d 00       		.byte	0
 12604 357e 49       		.uleb128 0x49
 12605 357f 040D0000 		.4byte	.LVL327
 12606 3583 5A470000 		.4byte	0x475a
 12607 3587 2F       		.uleb128 0x2f
 12608 3588 140D0000 		.4byte	.LVL329
 12609 358c F9460000 		.4byte	0x46f9
 12610 3590 A2350000 		.4byte	0x35a2
 12611 3594 2E       		.uleb128 0x2e
 12612 3595 01       		.uleb128 0x1
 12613 3596 50       		.byte	0x50
 12614 3597 02       		.uleb128 0x2
 12615 3598 75       		.byte	0x75
 12616 3599 00       		.sleb128 0
 12617 359a 2E       		.uleb128 0x2e
 12618 359b 01       		.uleb128 0x1
 12619 359c 52       		.byte	0x52
 12620 359d 03       		.uleb128 0x3
 12621 359e 0A       		.byte	0xa
 12622 359f 7401     		.2byte	0x174
 12623 35a1 00       		.byte	0
 12624 35a2 2F       		.uleb128 0x2f
 12625 35a3 360D0000 		.4byte	.LVL330
 12626 35a7 2B480000 		.4byte	0x482b
 12627 35ab BC350000 		.4byte	0x35bc
 12628 35af 2E       		.uleb128 0x2e
 12629 35b0 01       		.uleb128 0x1
 12630 35b1 50       		.byte	0x50
 12631 35b2 02       		.uleb128 0x2
 12632 35b3 74       		.byte	0x74
ARM GAS  /var/folders/sv/kgmgr77579zbf78p2zlhkdfr0000gn/T//ccMuP6SP.s 			page 223


 12633 35b4 00       		.sleb128 0
 12634 35b5 2E       		.uleb128 0x2e
 12635 35b6 01       		.uleb128 0x1
 12636 35b7 51       		.byte	0x51
 12637 35b8 02       		.uleb128 0x2
 12638 35b9 76       		.byte	0x76
 12639 35ba 00       		.sleb128 0
 12640 35bb 00       		.byte	0
 12641 35bc 2F       		.uleb128 0x2f
 12642 35bd 420D0000 		.4byte	.LVL331
 12643 35c1 2B480000 		.4byte	0x482b
 12644 35c5 D6350000 		.4byte	0x35d6
 12645 35c9 2E       		.uleb128 0x2e
 12646 35ca 01       		.uleb128 0x1
 12647 35cb 50       		.byte	0x50
 12648 35cc 02       		.uleb128 0x2
 12649 35cd 74       		.byte	0x74
 12650 35ce 00       		.sleb128 0
 12651 35cf 2E       		.uleb128 0x2e
 12652 35d0 01       		.uleb128 0x1
 12653 35d1 51       		.byte	0x51
 12654 35d2 02       		.uleb128 0x2
 12655 35d3 76       		.byte	0x76
 12656 35d4 00       		.sleb128 0
 12657 35d5 00       		.byte	0
 12658 35d6 2F       		.uleb128 0x2f
 12659 35d7 4E0D0000 		.4byte	.LVL332
 12660 35db 2B480000 		.4byte	0x482b
 12661 35df F0350000 		.4byte	0x35f0
 12662 35e3 2E       		.uleb128 0x2e
 12663 35e4 01       		.uleb128 0x1
 12664 35e5 50       		.byte	0x50
 12665 35e6 02       		.uleb128 0x2
 12666 35e7 74       		.byte	0x74
 12667 35e8 00       		.sleb128 0
 12668 35e9 2E       		.uleb128 0x2e
 12669 35ea 01       		.uleb128 0x1
 12670 35eb 51       		.byte	0x51
 12671 35ec 02       		.uleb128 0x2
 12672 35ed 76       		.byte	0x76
 12673 35ee 00       		.sleb128 0
 12674 35ef 00       		.byte	0
 12675 35f0 2F       		.uleb128 0x2f
 12676 35f1 5A0D0000 		.4byte	.LVL333
 12677 35f5 2B480000 		.4byte	0x482b
 12678 35f9 0A360000 		.4byte	0x360a
 12679 35fd 2E       		.uleb128 0x2e
 12680 35fe 01       		.uleb128 0x1
 12681 35ff 50       		.byte	0x50
 12682 3600 02       		.uleb128 0x2
 12683 3601 74       		.byte	0x74
 12684 3602 00       		.sleb128 0
 12685 3603 2E       		.uleb128 0x2e
 12686 3604 01       		.uleb128 0x1
 12687 3605 51       		.byte	0x51
 12688 3606 02       		.uleb128 0x2
 12689 3607 76       		.byte	0x76
ARM GAS  /var/folders/sv/kgmgr77579zbf78p2zlhkdfr0000gn/T//ccMuP6SP.s 			page 224


 12690 3608 00       		.sleb128 0
 12691 3609 00       		.byte	0
 12692 360a 2F       		.uleb128 0x2f
 12693 360b 660D0000 		.4byte	.LVL334
 12694 360f 2B480000 		.4byte	0x482b
 12695 3613 24360000 		.4byte	0x3624
 12696 3617 2E       		.uleb128 0x2e
 12697 3618 01       		.uleb128 0x1
 12698 3619 50       		.byte	0x50
 12699 361a 02       		.uleb128 0x2
 12700 361b 74       		.byte	0x74
 12701 361c 00       		.sleb128 0
 12702 361d 2E       		.uleb128 0x2e
 12703 361e 01       		.uleb128 0x1
 12704 361f 51       		.byte	0x51
 12705 3620 02       		.uleb128 0x2
 12706 3621 76       		.byte	0x76
 12707 3622 00       		.sleb128 0
 12708 3623 00       		.byte	0
 12709 3624 2F       		.uleb128 0x2f
 12710 3625 720D0000 		.4byte	.LVL335
 12711 3629 2B480000 		.4byte	0x482b
 12712 362d 3E360000 		.4byte	0x363e
 12713 3631 2E       		.uleb128 0x2e
 12714 3632 01       		.uleb128 0x1
 12715 3633 50       		.byte	0x50
 12716 3634 02       		.uleb128 0x2
 12717 3635 74       		.byte	0x74
 12718 3636 00       		.sleb128 0
 12719 3637 2E       		.uleb128 0x2e
 12720 3638 01       		.uleb128 0x1
 12721 3639 51       		.byte	0x51
 12722 363a 02       		.uleb128 0x2
 12723 363b 76       		.byte	0x76
 12724 363c 00       		.sleb128 0
 12725 363d 00       		.byte	0
 12726 363e 2F       		.uleb128 0x2f
 12727 363f 7E0D0000 		.4byte	.LVL336
 12728 3643 2B480000 		.4byte	0x482b
 12729 3647 58360000 		.4byte	0x3658
 12730 364b 2E       		.uleb128 0x2e
 12731 364c 01       		.uleb128 0x1
 12732 364d 50       		.byte	0x50
 12733 364e 02       		.uleb128 0x2
 12734 364f 74       		.byte	0x74
 12735 3650 00       		.sleb128 0
 12736 3651 2E       		.uleb128 0x2e
 12737 3652 01       		.uleb128 0x1
 12738 3653 51       		.byte	0x51
 12739 3654 02       		.uleb128 0x2
 12740 3655 76       		.byte	0x76
 12741 3656 00       		.sleb128 0
 12742 3657 00       		.byte	0
 12743 3658 2F       		.uleb128 0x2f
 12744 3659 8A0D0000 		.4byte	.LVL337
 12745 365d 2B480000 		.4byte	0x482b
 12746 3661 72360000 		.4byte	0x3672
ARM GAS  /var/folders/sv/kgmgr77579zbf78p2zlhkdfr0000gn/T//ccMuP6SP.s 			page 225


 12747 3665 2E       		.uleb128 0x2e
 12748 3666 01       		.uleb128 0x1
 12749 3667 50       		.byte	0x50
 12750 3668 02       		.uleb128 0x2
 12751 3669 74       		.byte	0x74
 12752 366a 00       		.sleb128 0
 12753 366b 2E       		.uleb128 0x2e
 12754 366c 01       		.uleb128 0x1
 12755 366d 51       		.byte	0x51
 12756 366e 02       		.uleb128 0x2
 12757 366f 76       		.byte	0x76
 12758 3670 00       		.sleb128 0
 12759 3671 00       		.byte	0
 12760 3672 2F       		.uleb128 0x2f
 12761 3673 960D0000 		.4byte	.LVL338
 12762 3677 2B480000 		.4byte	0x482b
 12763 367b 8C360000 		.4byte	0x368c
 12764 367f 2E       		.uleb128 0x2e
 12765 3680 01       		.uleb128 0x1
 12766 3681 50       		.byte	0x50
 12767 3682 02       		.uleb128 0x2
 12768 3683 74       		.byte	0x74
 12769 3684 00       		.sleb128 0
 12770 3685 2E       		.uleb128 0x2e
 12771 3686 01       		.uleb128 0x1
 12772 3687 51       		.byte	0x51
 12773 3688 02       		.uleb128 0x2
 12774 3689 76       		.byte	0x76
 12775 368a 00       		.sleb128 0
 12776 368b 00       		.byte	0
 12777 368c 2F       		.uleb128 0x2f
 12778 368d A20D0000 		.4byte	.LVL339
 12779 3691 2B480000 		.4byte	0x482b
 12780 3695 A6360000 		.4byte	0x36a6
 12781 3699 2E       		.uleb128 0x2e
 12782 369a 01       		.uleb128 0x1
 12783 369b 50       		.byte	0x50
 12784 369c 02       		.uleb128 0x2
 12785 369d 74       		.byte	0x74
 12786 369e 00       		.sleb128 0
 12787 369f 2E       		.uleb128 0x2e
 12788 36a0 01       		.uleb128 0x1
 12789 36a1 51       		.byte	0x51
 12790 36a2 02       		.uleb128 0x2
 12791 36a3 76       		.byte	0x76
 12792 36a4 00       		.sleb128 0
 12793 36a5 00       		.byte	0
 12794 36a6 2F       		.uleb128 0x2f
 12795 36a7 AE0D0000 		.4byte	.LVL340
 12796 36ab 2B480000 		.4byte	0x482b
 12797 36af C0360000 		.4byte	0x36c0
 12798 36b3 2E       		.uleb128 0x2e
 12799 36b4 01       		.uleb128 0x1
 12800 36b5 50       		.byte	0x50
 12801 36b6 02       		.uleb128 0x2
 12802 36b7 74       		.byte	0x74
 12803 36b8 00       		.sleb128 0
ARM GAS  /var/folders/sv/kgmgr77579zbf78p2zlhkdfr0000gn/T//ccMuP6SP.s 			page 226


 12804 36b9 2E       		.uleb128 0x2e
 12805 36ba 01       		.uleb128 0x1
 12806 36bb 51       		.byte	0x51
 12807 36bc 02       		.uleb128 0x2
 12808 36bd 76       		.byte	0x76
 12809 36be 00       		.sleb128 0
 12810 36bf 00       		.byte	0
 12811 36c0 2F       		.uleb128 0x2f
 12812 36c1 BA0D0000 		.4byte	.LVL341
 12813 36c5 2B480000 		.4byte	0x482b
 12814 36c9 DA360000 		.4byte	0x36da
 12815 36cd 2E       		.uleb128 0x2e
 12816 36ce 01       		.uleb128 0x1
 12817 36cf 50       		.byte	0x50
 12818 36d0 02       		.uleb128 0x2
 12819 36d1 74       		.byte	0x74
 12820 36d2 00       		.sleb128 0
 12821 36d3 2E       		.uleb128 0x2e
 12822 36d4 01       		.uleb128 0x1
 12823 36d5 51       		.byte	0x51
 12824 36d6 02       		.uleb128 0x2
 12825 36d7 76       		.byte	0x76
 12826 36d8 00       		.sleb128 0
 12827 36d9 00       		.byte	0
 12828 36da 2F       		.uleb128 0x2f
 12829 36db C60D0000 		.4byte	.LVL342
 12830 36df 2B480000 		.4byte	0x482b
 12831 36e3 F4360000 		.4byte	0x36f4
 12832 36e7 2E       		.uleb128 0x2e
 12833 36e8 01       		.uleb128 0x1
 12834 36e9 50       		.byte	0x50
 12835 36ea 02       		.uleb128 0x2
 12836 36eb 74       		.byte	0x74
 12837 36ec 00       		.sleb128 0
 12838 36ed 2E       		.uleb128 0x2e
 12839 36ee 01       		.uleb128 0x1
 12840 36ef 51       		.byte	0x51
 12841 36f0 02       		.uleb128 0x2
 12842 36f1 76       		.byte	0x76
 12843 36f2 00       		.sleb128 0
 12844 36f3 00       		.byte	0
 12845 36f4 2F       		.uleb128 0x2f
 12846 36f5 D20D0000 		.4byte	.LVL343
 12847 36f9 2B480000 		.4byte	0x482b
 12848 36fd 0E370000 		.4byte	0x370e
 12849 3701 2E       		.uleb128 0x2e
 12850 3702 01       		.uleb128 0x1
 12851 3703 50       		.byte	0x50
 12852 3704 02       		.uleb128 0x2
 12853 3705 74       		.byte	0x74
 12854 3706 00       		.sleb128 0
 12855 3707 2E       		.uleb128 0x2e
 12856 3708 01       		.uleb128 0x1
 12857 3709 51       		.byte	0x51
 12858 370a 02       		.uleb128 0x2
 12859 370b 76       		.byte	0x76
 12860 370c 00       		.sleb128 0
ARM GAS  /var/folders/sv/kgmgr77579zbf78p2zlhkdfr0000gn/T//ccMuP6SP.s 			page 227


 12861 370d 00       		.byte	0
 12862 370e 2F       		.uleb128 0x2f
 12863 370f F00D0000 		.4byte	.LVL344
 12864 3713 2B480000 		.4byte	0x482b
 12865 3717 28370000 		.4byte	0x3728
 12866 371b 2E       		.uleb128 0x2e
 12867 371c 01       		.uleb128 0x1
 12868 371d 50       		.byte	0x50
 12869 371e 02       		.uleb128 0x2
 12870 371f 74       		.byte	0x74
 12871 3720 00       		.sleb128 0
 12872 3721 2E       		.uleb128 0x2e
 12873 3722 01       		.uleb128 0x1
 12874 3723 51       		.byte	0x51
 12875 3724 02       		.uleb128 0x2
 12876 3725 76       		.byte	0x76
 12877 3726 00       		.sleb128 0
 12878 3727 00       		.byte	0
 12879 3728 2F       		.uleb128 0x2f
 12880 3729 FC0D0000 		.4byte	.LVL345
 12881 372d 2B480000 		.4byte	0x482b
 12882 3731 42370000 		.4byte	0x3742
 12883 3735 2E       		.uleb128 0x2e
 12884 3736 01       		.uleb128 0x1
 12885 3737 50       		.byte	0x50
 12886 3738 02       		.uleb128 0x2
 12887 3739 74       		.byte	0x74
 12888 373a 00       		.sleb128 0
 12889 373b 2E       		.uleb128 0x2e
 12890 373c 01       		.uleb128 0x1
 12891 373d 51       		.byte	0x51
 12892 373e 02       		.uleb128 0x2
 12893 373f 76       		.byte	0x76
 12894 3740 00       		.sleb128 0
 12895 3741 00       		.byte	0
 12896 3742 2F       		.uleb128 0x2f
 12897 3743 080E0000 		.4byte	.LVL346
 12898 3747 2B480000 		.4byte	0x482b
 12899 374b 5C370000 		.4byte	0x375c
 12900 374f 2E       		.uleb128 0x2e
 12901 3750 01       		.uleb128 0x1
 12902 3751 50       		.byte	0x50
 12903 3752 02       		.uleb128 0x2
 12904 3753 74       		.byte	0x74
 12905 3754 00       		.sleb128 0
 12906 3755 2E       		.uleb128 0x2e
 12907 3756 01       		.uleb128 0x1
 12908 3757 51       		.byte	0x51
 12909 3758 02       		.uleb128 0x2
 12910 3759 76       		.byte	0x76
 12911 375a 00       		.sleb128 0
 12912 375b 00       		.byte	0
 12913 375c 2F       		.uleb128 0x2f
 12914 375d 140E0000 		.4byte	.LVL347
 12915 3761 2B480000 		.4byte	0x482b
 12916 3765 76370000 		.4byte	0x3776
 12917 3769 2E       		.uleb128 0x2e
ARM GAS  /var/folders/sv/kgmgr77579zbf78p2zlhkdfr0000gn/T//ccMuP6SP.s 			page 228


 12918 376a 01       		.uleb128 0x1
 12919 376b 50       		.byte	0x50
 12920 376c 02       		.uleb128 0x2
 12921 376d 74       		.byte	0x74
 12922 376e 00       		.sleb128 0
 12923 376f 2E       		.uleb128 0x2e
 12924 3770 01       		.uleb128 0x1
 12925 3771 51       		.byte	0x51
 12926 3772 02       		.uleb128 0x2
 12927 3773 76       		.byte	0x76
 12928 3774 00       		.sleb128 0
 12929 3775 00       		.byte	0
 12930 3776 2F       		.uleb128 0x2f
 12931 3777 200E0000 		.4byte	.LVL348
 12932 377b 2B480000 		.4byte	0x482b
 12933 377f 90370000 		.4byte	0x3790
 12934 3783 2E       		.uleb128 0x2e
 12935 3784 01       		.uleb128 0x1
 12936 3785 50       		.byte	0x50
 12937 3786 02       		.uleb128 0x2
 12938 3787 74       		.byte	0x74
 12939 3788 00       		.sleb128 0
 12940 3789 2E       		.uleb128 0x2e
 12941 378a 01       		.uleb128 0x1
 12942 378b 51       		.byte	0x51
 12943 378c 02       		.uleb128 0x2
 12944 378d 76       		.byte	0x76
 12945 378e 00       		.sleb128 0
 12946 378f 00       		.byte	0
 12947 3790 2F       		.uleb128 0x2f
 12948 3791 2C0E0000 		.4byte	.LVL349
 12949 3795 2B480000 		.4byte	0x482b
 12950 3799 AA370000 		.4byte	0x37aa
 12951 379d 2E       		.uleb128 0x2e
 12952 379e 01       		.uleb128 0x1
 12953 379f 50       		.byte	0x50
 12954 37a0 02       		.uleb128 0x2
 12955 37a1 74       		.byte	0x74
 12956 37a2 00       		.sleb128 0
 12957 37a3 2E       		.uleb128 0x2e
 12958 37a4 01       		.uleb128 0x1
 12959 37a5 51       		.byte	0x51
 12960 37a6 02       		.uleb128 0x2
 12961 37a7 76       		.byte	0x76
 12962 37a8 00       		.sleb128 0
 12963 37a9 00       		.byte	0
 12964 37aa 2F       		.uleb128 0x2f
 12965 37ab 380E0000 		.4byte	.LVL350
 12966 37af 2B480000 		.4byte	0x482b
 12967 37b3 C4370000 		.4byte	0x37c4
 12968 37b7 2E       		.uleb128 0x2e
 12969 37b8 01       		.uleb128 0x1
 12970 37b9 50       		.byte	0x50
 12971 37ba 02       		.uleb128 0x2
 12972 37bb 74       		.byte	0x74
 12973 37bc 00       		.sleb128 0
 12974 37bd 2E       		.uleb128 0x2e
ARM GAS  /var/folders/sv/kgmgr77579zbf78p2zlhkdfr0000gn/T//ccMuP6SP.s 			page 229


 12975 37be 01       		.uleb128 0x1
 12976 37bf 51       		.byte	0x51
 12977 37c0 02       		.uleb128 0x2
 12978 37c1 76       		.byte	0x76
 12979 37c2 00       		.sleb128 0
 12980 37c3 00       		.byte	0
 12981 37c4 2F       		.uleb128 0x2f
 12982 37c5 440E0000 		.4byte	.LVL351
 12983 37c9 2B480000 		.4byte	0x482b
 12984 37cd DE370000 		.4byte	0x37de
 12985 37d1 2E       		.uleb128 0x2e
 12986 37d2 01       		.uleb128 0x1
 12987 37d3 50       		.byte	0x50
 12988 37d4 02       		.uleb128 0x2
 12989 37d5 74       		.byte	0x74
 12990 37d6 00       		.sleb128 0
 12991 37d7 2E       		.uleb128 0x2e
 12992 37d8 01       		.uleb128 0x1
 12993 37d9 51       		.byte	0x51
 12994 37da 02       		.uleb128 0x2
 12995 37db 76       		.byte	0x76
 12996 37dc 00       		.sleb128 0
 12997 37dd 00       		.byte	0
 12998 37de 2F       		.uleb128 0x2f
 12999 37df 500E0000 		.4byte	.LVL352
 13000 37e3 2B480000 		.4byte	0x482b
 13001 37e7 F8370000 		.4byte	0x37f8
 13002 37eb 2E       		.uleb128 0x2e
 13003 37ec 01       		.uleb128 0x1
 13004 37ed 50       		.byte	0x50
 13005 37ee 02       		.uleb128 0x2
 13006 37ef 74       		.byte	0x74
 13007 37f0 00       		.sleb128 0
 13008 37f1 2E       		.uleb128 0x2e
 13009 37f2 01       		.uleb128 0x1
 13010 37f3 51       		.byte	0x51
 13011 37f4 02       		.uleb128 0x2
 13012 37f5 76       		.byte	0x76
 13013 37f6 00       		.sleb128 0
 13014 37f7 00       		.byte	0
 13015 37f8 2F       		.uleb128 0x2f
 13016 37f9 700E0000 		.4byte	.LVL353
 13017 37fd 2B480000 		.4byte	0x482b
 13018 3801 12380000 		.4byte	0x3812
 13019 3805 2E       		.uleb128 0x2e
 13020 3806 01       		.uleb128 0x1
 13021 3807 50       		.byte	0x50
 13022 3808 02       		.uleb128 0x2
 13023 3809 74       		.byte	0x74
 13024 380a 00       		.sleb128 0
 13025 380b 2E       		.uleb128 0x2e
 13026 380c 01       		.uleb128 0x1
 13027 380d 51       		.byte	0x51
 13028 380e 02       		.uleb128 0x2
 13029 380f 76       		.byte	0x76
 13030 3810 00       		.sleb128 0
 13031 3811 00       		.byte	0
ARM GAS  /var/folders/sv/kgmgr77579zbf78p2zlhkdfr0000gn/T//ccMuP6SP.s 			page 230


 13032 3812 2F       		.uleb128 0x2f
 13033 3813 7C0E0000 		.4byte	.LVL354
 13034 3817 2B480000 		.4byte	0x482b
 13035 381b 2C380000 		.4byte	0x382c
 13036 381f 2E       		.uleb128 0x2e
 13037 3820 01       		.uleb128 0x1
 13038 3821 50       		.byte	0x50
 13039 3822 02       		.uleb128 0x2
 13040 3823 74       		.byte	0x74
 13041 3824 00       		.sleb128 0
 13042 3825 2E       		.uleb128 0x2e
 13043 3826 01       		.uleb128 0x1
 13044 3827 51       		.byte	0x51
 13045 3828 02       		.uleb128 0x2
 13046 3829 76       		.byte	0x76
 13047 382a 00       		.sleb128 0
 13048 382b 00       		.byte	0
 13049 382c 2F       		.uleb128 0x2f
 13050 382d 880E0000 		.4byte	.LVL355
 13051 3831 2B480000 		.4byte	0x482b
 13052 3835 46380000 		.4byte	0x3846
 13053 3839 2E       		.uleb128 0x2e
 13054 383a 01       		.uleb128 0x1
 13055 383b 50       		.byte	0x50
 13056 383c 02       		.uleb128 0x2
 13057 383d 74       		.byte	0x74
 13058 383e 00       		.sleb128 0
 13059 383f 2E       		.uleb128 0x2e
 13060 3840 01       		.uleb128 0x1
 13061 3841 51       		.byte	0x51
 13062 3842 02       		.uleb128 0x2
 13063 3843 76       		.byte	0x76
 13064 3844 00       		.sleb128 0
 13065 3845 00       		.byte	0
 13066 3846 2F       		.uleb128 0x2f
 13067 3847 940E0000 		.4byte	.LVL356
 13068 384b 2B480000 		.4byte	0x482b
 13069 384f 60380000 		.4byte	0x3860
 13070 3853 2E       		.uleb128 0x2e
 13071 3854 01       		.uleb128 0x1
 13072 3855 50       		.byte	0x50
 13073 3856 02       		.uleb128 0x2
 13074 3857 74       		.byte	0x74
 13075 3858 00       		.sleb128 0
 13076 3859 2E       		.uleb128 0x2e
 13077 385a 01       		.uleb128 0x1
 13078 385b 51       		.byte	0x51
 13079 385c 02       		.uleb128 0x2
 13080 385d 76       		.byte	0x76
 13081 385e 00       		.sleb128 0
 13082 385f 00       		.byte	0
 13083 3860 2F       		.uleb128 0x2f
 13084 3861 A00E0000 		.4byte	.LVL357
 13085 3865 2B480000 		.4byte	0x482b
 13086 3869 7A380000 		.4byte	0x387a
 13087 386d 2E       		.uleb128 0x2e
 13088 386e 01       		.uleb128 0x1
ARM GAS  /var/folders/sv/kgmgr77579zbf78p2zlhkdfr0000gn/T//ccMuP6SP.s 			page 231


 13089 386f 50       		.byte	0x50
 13090 3870 02       		.uleb128 0x2
 13091 3871 74       		.byte	0x74
 13092 3872 00       		.sleb128 0
 13093 3873 2E       		.uleb128 0x2e
 13094 3874 01       		.uleb128 0x1
 13095 3875 51       		.byte	0x51
 13096 3876 02       		.uleb128 0x2
 13097 3877 76       		.byte	0x76
 13098 3878 00       		.sleb128 0
 13099 3879 00       		.byte	0
 13100 387a 2F       		.uleb128 0x2f
 13101 387b AC0E0000 		.4byte	.LVL358
 13102 387f 2B480000 		.4byte	0x482b
 13103 3883 94380000 		.4byte	0x3894
 13104 3887 2E       		.uleb128 0x2e
 13105 3888 01       		.uleb128 0x1
 13106 3889 50       		.byte	0x50
 13107 388a 02       		.uleb128 0x2
 13108 388b 74       		.byte	0x74
 13109 388c 00       		.sleb128 0
 13110 388d 2E       		.uleb128 0x2e
 13111 388e 01       		.uleb128 0x1
 13112 388f 51       		.byte	0x51
 13113 3890 02       		.uleb128 0x2
 13114 3891 76       		.byte	0x76
 13115 3892 00       		.sleb128 0
 13116 3893 00       		.byte	0
 13117 3894 2F       		.uleb128 0x2f
 13118 3895 B80E0000 		.4byte	.LVL359
 13119 3899 2B480000 		.4byte	0x482b
 13120 389d AE380000 		.4byte	0x38ae
 13121 38a1 2E       		.uleb128 0x2e
 13122 38a2 01       		.uleb128 0x1
 13123 38a3 50       		.byte	0x50
 13124 38a4 02       		.uleb128 0x2
 13125 38a5 74       		.byte	0x74
 13126 38a6 00       		.sleb128 0
 13127 38a7 2E       		.uleb128 0x2e
 13128 38a8 01       		.uleb128 0x1
 13129 38a9 51       		.byte	0x51
 13130 38aa 02       		.uleb128 0x2
 13131 38ab 76       		.byte	0x76
 13132 38ac 00       		.sleb128 0
 13133 38ad 00       		.byte	0
 13134 38ae 2F       		.uleb128 0x2f
 13135 38af D60E0000 		.4byte	.LVL360
 13136 38b3 2B480000 		.4byte	0x482b
 13137 38b7 C8380000 		.4byte	0x38c8
 13138 38bb 2E       		.uleb128 0x2e
 13139 38bc 01       		.uleb128 0x1
 13140 38bd 50       		.byte	0x50
 13141 38be 02       		.uleb128 0x2
 13142 38bf 74       		.byte	0x74
 13143 38c0 00       		.sleb128 0
 13144 38c1 2E       		.uleb128 0x2e
 13145 38c2 01       		.uleb128 0x1
ARM GAS  /var/folders/sv/kgmgr77579zbf78p2zlhkdfr0000gn/T//ccMuP6SP.s 			page 232


 13146 38c3 51       		.byte	0x51
 13147 38c4 02       		.uleb128 0x2
 13148 38c5 76       		.byte	0x76
 13149 38c6 00       		.sleb128 0
 13150 38c7 00       		.byte	0
 13151 38c8 2F       		.uleb128 0x2f
 13152 38c9 E20E0000 		.4byte	.LVL361
 13153 38cd 2B480000 		.4byte	0x482b
 13154 38d1 E2380000 		.4byte	0x38e2
 13155 38d5 2E       		.uleb128 0x2e
 13156 38d6 01       		.uleb128 0x1
 13157 38d7 50       		.byte	0x50
 13158 38d8 02       		.uleb128 0x2
 13159 38d9 74       		.byte	0x74
 13160 38da 00       		.sleb128 0
 13161 38db 2E       		.uleb128 0x2e
 13162 38dc 01       		.uleb128 0x1
 13163 38dd 51       		.byte	0x51
 13164 38de 02       		.uleb128 0x2
 13165 38df 76       		.byte	0x76
 13166 38e0 00       		.sleb128 0
 13167 38e1 00       		.byte	0
 13168 38e2 2F       		.uleb128 0x2f
 13169 38e3 EE0E0000 		.4byte	.LVL362
 13170 38e7 2B480000 		.4byte	0x482b
 13171 38eb FC380000 		.4byte	0x38fc
 13172 38ef 2E       		.uleb128 0x2e
 13173 38f0 01       		.uleb128 0x1
 13174 38f1 50       		.byte	0x50
 13175 38f2 02       		.uleb128 0x2
 13176 38f3 74       		.byte	0x74
 13177 38f4 00       		.sleb128 0
 13178 38f5 2E       		.uleb128 0x2e
 13179 38f6 01       		.uleb128 0x1
 13180 38f7 51       		.byte	0x51
 13181 38f8 02       		.uleb128 0x2
 13182 38f9 76       		.byte	0x76
 13183 38fa 00       		.sleb128 0
 13184 38fb 00       		.byte	0
 13185 38fc 2F       		.uleb128 0x2f
 13186 38fd FA0E0000 		.4byte	.LVL363
 13187 3901 2B480000 		.4byte	0x482b
 13188 3905 16390000 		.4byte	0x3916
 13189 3909 2E       		.uleb128 0x2e
 13190 390a 01       		.uleb128 0x1
 13191 390b 50       		.byte	0x50
 13192 390c 02       		.uleb128 0x2
 13193 390d 74       		.byte	0x74
 13194 390e 00       		.sleb128 0
 13195 390f 2E       		.uleb128 0x2e
 13196 3910 01       		.uleb128 0x1
 13197 3911 51       		.byte	0x51
 13198 3912 02       		.uleb128 0x2
 13199 3913 76       		.byte	0x76
 13200 3914 00       		.sleb128 0
 13201 3915 00       		.byte	0
 13202 3916 2F       		.uleb128 0x2f
ARM GAS  /var/folders/sv/kgmgr77579zbf78p2zlhkdfr0000gn/T//ccMuP6SP.s 			page 233


 13203 3917 060F0000 		.4byte	.LVL364
 13204 391b 2B480000 		.4byte	0x482b
 13205 391f 30390000 		.4byte	0x3930
 13206 3923 2E       		.uleb128 0x2e
 13207 3924 01       		.uleb128 0x1
 13208 3925 50       		.byte	0x50
 13209 3926 02       		.uleb128 0x2
 13210 3927 74       		.byte	0x74
 13211 3928 00       		.sleb128 0
 13212 3929 2E       		.uleb128 0x2e
 13213 392a 01       		.uleb128 0x1
 13214 392b 51       		.byte	0x51
 13215 392c 02       		.uleb128 0x2
 13216 392d 76       		.byte	0x76
 13217 392e 00       		.sleb128 0
 13218 392f 00       		.byte	0
 13219 3930 2F       		.uleb128 0x2f
 13220 3931 240F0000 		.4byte	.LVL365
 13221 3935 2B480000 		.4byte	0x482b
 13222 3939 4A390000 		.4byte	0x394a
 13223 393d 2E       		.uleb128 0x2e
 13224 393e 01       		.uleb128 0x1
 13225 393f 50       		.byte	0x50
 13226 3940 02       		.uleb128 0x2
 13227 3941 74       		.byte	0x74
 13228 3942 00       		.sleb128 0
 13229 3943 2E       		.uleb128 0x2e
 13230 3944 01       		.uleb128 0x1
 13231 3945 51       		.byte	0x51
 13232 3946 02       		.uleb128 0x2
 13233 3947 76       		.byte	0x76
 13234 3948 00       		.sleb128 0
 13235 3949 00       		.byte	0
 13236 394a 2F       		.uleb128 0x2f
 13237 394b 300F0000 		.4byte	.LVL366
 13238 394f 2B480000 		.4byte	0x482b
 13239 3953 64390000 		.4byte	0x3964
 13240 3957 2E       		.uleb128 0x2e
 13241 3958 01       		.uleb128 0x1
 13242 3959 50       		.byte	0x50
 13243 395a 02       		.uleb128 0x2
 13244 395b 74       		.byte	0x74
 13245 395c 00       		.sleb128 0
 13246 395d 2E       		.uleb128 0x2e
 13247 395e 01       		.uleb128 0x1
 13248 395f 51       		.byte	0x51
 13249 3960 02       		.uleb128 0x2
 13250 3961 76       		.byte	0x76
 13251 3962 00       		.sleb128 0
 13252 3963 00       		.byte	0
 13253 3964 2F       		.uleb128 0x2f
 13254 3965 480F0000 		.4byte	.LVL367
 13255 3969 2B480000 		.4byte	0x482b
 13256 396d 7E390000 		.4byte	0x397e
 13257 3971 2E       		.uleb128 0x2e
 13258 3972 01       		.uleb128 0x1
 13259 3973 50       		.byte	0x50
ARM GAS  /var/folders/sv/kgmgr77579zbf78p2zlhkdfr0000gn/T//ccMuP6SP.s 			page 234


 13260 3974 02       		.uleb128 0x2
 13261 3975 74       		.byte	0x74
 13262 3976 00       		.sleb128 0
 13263 3977 2E       		.uleb128 0x2e
 13264 3978 01       		.uleb128 0x1
 13265 3979 51       		.byte	0x51
 13266 397a 02       		.uleb128 0x2
 13267 397b 76       		.byte	0x76
 13268 397c 00       		.sleb128 0
 13269 397d 00       		.byte	0
 13270 397e 2F       		.uleb128 0x2f
 13271 397f 540F0000 		.4byte	.LVL368
 13272 3983 2B480000 		.4byte	0x482b
 13273 3987 98390000 		.4byte	0x3998
 13274 398b 2E       		.uleb128 0x2e
 13275 398c 01       		.uleb128 0x1
 13276 398d 50       		.byte	0x50
 13277 398e 02       		.uleb128 0x2
 13278 398f 74       		.byte	0x74
 13279 3990 00       		.sleb128 0
 13280 3991 2E       		.uleb128 0x2e
 13281 3992 01       		.uleb128 0x1
 13282 3993 51       		.byte	0x51
 13283 3994 02       		.uleb128 0x2
 13284 3995 76       		.byte	0x76
 13285 3996 00       		.sleb128 0
 13286 3997 00       		.byte	0
 13287 3998 2F       		.uleb128 0x2f
 13288 3999 600F0000 		.4byte	.LVL369
 13289 399d 2B480000 		.4byte	0x482b
 13290 39a1 B2390000 		.4byte	0x39b2
 13291 39a5 2E       		.uleb128 0x2e
 13292 39a6 01       		.uleb128 0x1
 13293 39a7 50       		.byte	0x50
 13294 39a8 02       		.uleb128 0x2
 13295 39a9 74       		.byte	0x74
 13296 39aa 00       		.sleb128 0
 13297 39ab 2E       		.uleb128 0x2e
 13298 39ac 01       		.uleb128 0x1
 13299 39ad 51       		.byte	0x51
 13300 39ae 02       		.uleb128 0x2
 13301 39af 76       		.byte	0x76
 13302 39b0 00       		.sleb128 0
 13303 39b1 00       		.byte	0
 13304 39b2 2F       		.uleb128 0x2f
 13305 39b3 6C0F0000 		.4byte	.LVL370
 13306 39b7 2B480000 		.4byte	0x482b
 13307 39bb CC390000 		.4byte	0x39cc
 13308 39bf 2E       		.uleb128 0x2e
 13309 39c0 01       		.uleb128 0x1
 13310 39c1 50       		.byte	0x50
 13311 39c2 02       		.uleb128 0x2
 13312 39c3 74       		.byte	0x74
 13313 39c4 00       		.sleb128 0
 13314 39c5 2E       		.uleb128 0x2e
 13315 39c6 01       		.uleb128 0x1
 13316 39c7 51       		.byte	0x51
ARM GAS  /var/folders/sv/kgmgr77579zbf78p2zlhkdfr0000gn/T//ccMuP6SP.s 			page 235


 13317 39c8 02       		.uleb128 0x2
 13318 39c9 76       		.byte	0x76
 13319 39ca 00       		.sleb128 0
 13320 39cb 00       		.byte	0
 13321 39cc 2F       		.uleb128 0x2f
 13322 39cd 780F0000 		.4byte	.LVL371
 13323 39d1 2B480000 		.4byte	0x482b
 13324 39d5 E6390000 		.4byte	0x39e6
 13325 39d9 2E       		.uleb128 0x2e
 13326 39da 01       		.uleb128 0x1
 13327 39db 50       		.byte	0x50
 13328 39dc 02       		.uleb128 0x2
 13329 39dd 74       		.byte	0x74
 13330 39de 00       		.sleb128 0
 13331 39df 2E       		.uleb128 0x2e
 13332 39e0 01       		.uleb128 0x1
 13333 39e1 51       		.byte	0x51
 13334 39e2 02       		.uleb128 0x2
 13335 39e3 76       		.byte	0x76
 13336 39e4 00       		.sleb128 0
 13337 39e5 00       		.byte	0
 13338 39e6 2F       		.uleb128 0x2f
 13339 39e7 840F0000 		.4byte	.LVL372
 13340 39eb 2B480000 		.4byte	0x482b
 13341 39ef 003A0000 		.4byte	0x3a00
 13342 39f3 2E       		.uleb128 0x2e
 13343 39f4 01       		.uleb128 0x1
 13344 39f5 50       		.byte	0x50
 13345 39f6 02       		.uleb128 0x2
 13346 39f7 74       		.byte	0x74
 13347 39f8 00       		.sleb128 0
 13348 39f9 2E       		.uleb128 0x2e
 13349 39fa 01       		.uleb128 0x1
 13350 39fb 51       		.byte	0x51
 13351 39fc 02       		.uleb128 0x2
 13352 39fd 76       		.byte	0x76
 13353 39fe 00       		.sleb128 0
 13354 39ff 00       		.byte	0
 13355 3a00 2F       		.uleb128 0x2f
 13356 3a01 900F0000 		.4byte	.LVL373
 13357 3a05 2B480000 		.4byte	0x482b
 13358 3a09 1A3A0000 		.4byte	0x3a1a
 13359 3a0d 2E       		.uleb128 0x2e
 13360 3a0e 01       		.uleb128 0x1
 13361 3a0f 50       		.byte	0x50
 13362 3a10 02       		.uleb128 0x2
 13363 3a11 74       		.byte	0x74
 13364 3a12 00       		.sleb128 0
 13365 3a13 2E       		.uleb128 0x2e
 13366 3a14 01       		.uleb128 0x1
 13367 3a15 51       		.byte	0x51
 13368 3a16 02       		.uleb128 0x2
 13369 3a17 76       		.byte	0x76
 13370 3a18 00       		.sleb128 0
 13371 3a19 00       		.byte	0
 13372 3a1a 2F       		.uleb128 0x2f
 13373 3a1b 9C0F0000 		.4byte	.LVL374
ARM GAS  /var/folders/sv/kgmgr77579zbf78p2zlhkdfr0000gn/T//ccMuP6SP.s 			page 236


 13374 3a1f 2B480000 		.4byte	0x482b
 13375 3a23 343A0000 		.4byte	0x3a34
 13376 3a27 2E       		.uleb128 0x2e
 13377 3a28 01       		.uleb128 0x1
 13378 3a29 50       		.byte	0x50
 13379 3a2a 02       		.uleb128 0x2
 13380 3a2b 74       		.byte	0x74
 13381 3a2c 00       		.sleb128 0
 13382 3a2d 2E       		.uleb128 0x2e
 13383 3a2e 01       		.uleb128 0x1
 13384 3a2f 51       		.byte	0x51
 13385 3a30 02       		.uleb128 0x2
 13386 3a31 76       		.byte	0x76
 13387 3a32 00       		.sleb128 0
 13388 3a33 00       		.byte	0
 13389 3a34 2F       		.uleb128 0x2f
 13390 3a35 A80F0000 		.4byte	.LVL375
 13391 3a39 2B480000 		.4byte	0x482b
 13392 3a3d 4E3A0000 		.4byte	0x3a4e
 13393 3a41 2E       		.uleb128 0x2e
 13394 3a42 01       		.uleb128 0x1
 13395 3a43 50       		.byte	0x50
 13396 3a44 02       		.uleb128 0x2
 13397 3a45 74       		.byte	0x74
 13398 3a46 00       		.sleb128 0
 13399 3a47 2E       		.uleb128 0x2e
 13400 3a48 01       		.uleb128 0x1
 13401 3a49 51       		.byte	0x51
 13402 3a4a 02       		.uleb128 0x2
 13403 3a4b 76       		.byte	0x76
 13404 3a4c 00       		.sleb128 0
 13405 3a4d 00       		.byte	0
 13406 3a4e 2F       		.uleb128 0x2f
 13407 3a4f B40F0000 		.4byte	.LVL376
 13408 3a53 2B480000 		.4byte	0x482b
 13409 3a57 683A0000 		.4byte	0x3a68
 13410 3a5b 2E       		.uleb128 0x2e
 13411 3a5c 01       		.uleb128 0x1
 13412 3a5d 50       		.byte	0x50
 13413 3a5e 02       		.uleb128 0x2
 13414 3a5f 74       		.byte	0x74
 13415 3a60 00       		.sleb128 0
 13416 3a61 2E       		.uleb128 0x2e
 13417 3a62 01       		.uleb128 0x1
 13418 3a63 51       		.byte	0x51
 13419 3a64 02       		.uleb128 0x2
 13420 3a65 76       		.byte	0x76
 13421 3a66 00       		.sleb128 0
 13422 3a67 00       		.byte	0
 13423 3a68 2F       		.uleb128 0x2f
 13424 3a69 C00F0000 		.4byte	.LVL377
 13425 3a6d 2B480000 		.4byte	0x482b
 13426 3a71 823A0000 		.4byte	0x3a82
 13427 3a75 2E       		.uleb128 0x2e
 13428 3a76 01       		.uleb128 0x1
 13429 3a77 50       		.byte	0x50
 13430 3a78 02       		.uleb128 0x2
ARM GAS  /var/folders/sv/kgmgr77579zbf78p2zlhkdfr0000gn/T//ccMuP6SP.s 			page 237


 13431 3a79 74       		.byte	0x74
 13432 3a7a 00       		.sleb128 0
 13433 3a7b 2E       		.uleb128 0x2e
 13434 3a7c 01       		.uleb128 0x1
 13435 3a7d 51       		.byte	0x51
 13436 3a7e 02       		.uleb128 0x2
 13437 3a7f 76       		.byte	0x76
 13438 3a80 00       		.sleb128 0
 13439 3a81 00       		.byte	0
 13440 3a82 2F       		.uleb128 0x2f
 13441 3a83 CC0F0000 		.4byte	.LVL378
 13442 3a87 2B480000 		.4byte	0x482b
 13443 3a8b 9C3A0000 		.4byte	0x3a9c
 13444 3a8f 2E       		.uleb128 0x2e
 13445 3a90 01       		.uleb128 0x1
 13446 3a91 50       		.byte	0x50
 13447 3a92 02       		.uleb128 0x2
 13448 3a93 74       		.byte	0x74
 13449 3a94 00       		.sleb128 0
 13450 3a95 2E       		.uleb128 0x2e
 13451 3a96 01       		.uleb128 0x1
 13452 3a97 51       		.byte	0x51
 13453 3a98 02       		.uleb128 0x2
 13454 3a99 76       		.byte	0x76
 13455 3a9a 00       		.sleb128 0
 13456 3a9b 00       		.byte	0
 13457 3a9c 2F       		.uleb128 0x2f
 13458 3a9d D80F0000 		.4byte	.LVL379
 13459 3aa1 2B480000 		.4byte	0x482b
 13460 3aa5 B63A0000 		.4byte	0x3ab6
 13461 3aa9 2E       		.uleb128 0x2e
 13462 3aaa 01       		.uleb128 0x1
 13463 3aab 50       		.byte	0x50
 13464 3aac 02       		.uleb128 0x2
 13465 3aad 74       		.byte	0x74
 13466 3aae 00       		.sleb128 0
 13467 3aaf 2E       		.uleb128 0x2e
 13468 3ab0 01       		.uleb128 0x1
 13469 3ab1 51       		.byte	0x51
 13470 3ab2 02       		.uleb128 0x2
 13471 3ab3 76       		.byte	0x76
 13472 3ab4 00       		.sleb128 0
 13473 3ab5 00       		.byte	0
 13474 3ab6 2F       		.uleb128 0x2f
 13475 3ab7 E40F0000 		.4byte	.LVL380
 13476 3abb 2B480000 		.4byte	0x482b
 13477 3abf D03A0000 		.4byte	0x3ad0
 13478 3ac3 2E       		.uleb128 0x2e
 13479 3ac4 01       		.uleb128 0x1
 13480 3ac5 50       		.byte	0x50
 13481 3ac6 02       		.uleb128 0x2
 13482 3ac7 74       		.byte	0x74
 13483 3ac8 00       		.sleb128 0
 13484 3ac9 2E       		.uleb128 0x2e
 13485 3aca 01       		.uleb128 0x1
 13486 3acb 51       		.byte	0x51
 13487 3acc 02       		.uleb128 0x2
ARM GAS  /var/folders/sv/kgmgr77579zbf78p2zlhkdfr0000gn/T//ccMuP6SP.s 			page 238


 13488 3acd 76       		.byte	0x76
 13489 3ace 00       		.sleb128 0
 13490 3acf 00       		.byte	0
 13491 3ad0 2F       		.uleb128 0x2f
 13492 3ad1 04100000 		.4byte	.LVL381
 13493 3ad5 2B480000 		.4byte	0x482b
 13494 3ad9 EA3A0000 		.4byte	0x3aea
 13495 3add 2E       		.uleb128 0x2e
 13496 3ade 01       		.uleb128 0x1
 13497 3adf 50       		.byte	0x50
 13498 3ae0 02       		.uleb128 0x2
 13499 3ae1 74       		.byte	0x74
 13500 3ae2 00       		.sleb128 0
 13501 3ae3 2E       		.uleb128 0x2e
 13502 3ae4 01       		.uleb128 0x1
 13503 3ae5 51       		.byte	0x51
 13504 3ae6 02       		.uleb128 0x2
 13505 3ae7 76       		.byte	0x76
 13506 3ae8 00       		.sleb128 0
 13507 3ae9 00       		.byte	0
 13508 3aea 2F       		.uleb128 0x2f
 13509 3aeb 32100000 		.4byte	.LVL382
 13510 3aef 2B480000 		.4byte	0x482b
 13511 3af3 043B0000 		.4byte	0x3b04
 13512 3af7 2E       		.uleb128 0x2e
 13513 3af8 01       		.uleb128 0x1
 13514 3af9 50       		.byte	0x50
 13515 3afa 02       		.uleb128 0x2
 13516 3afb 74       		.byte	0x74
 13517 3afc 00       		.sleb128 0
 13518 3afd 2E       		.uleb128 0x2e
 13519 3afe 01       		.uleb128 0x1
 13520 3aff 51       		.byte	0x51
 13521 3b00 02       		.uleb128 0x2
 13522 3b01 76       		.byte	0x76
 13523 3b02 00       		.sleb128 0
 13524 3b03 00       		.byte	0
 13525 3b04 2F       		.uleb128 0x2f
 13526 3b05 50100000 		.4byte	.LVL383
 13527 3b09 2B480000 		.4byte	0x482b
 13528 3b0d 1E3B0000 		.4byte	0x3b1e
 13529 3b11 2E       		.uleb128 0x2e
 13530 3b12 01       		.uleb128 0x1
 13531 3b13 50       		.byte	0x50
 13532 3b14 02       		.uleb128 0x2
 13533 3b15 74       		.byte	0x74
 13534 3b16 00       		.sleb128 0
 13535 3b17 2E       		.uleb128 0x2e
 13536 3b18 01       		.uleb128 0x1
 13537 3b19 51       		.byte	0x51
 13538 3b1a 02       		.uleb128 0x2
 13539 3b1b 76       		.byte	0x76
 13540 3b1c 00       		.sleb128 0
 13541 3b1d 00       		.byte	0
 13542 3b1e 2F       		.uleb128 0x2f
 13543 3b1f 5C100000 		.4byte	.LVL384
 13544 3b23 2B480000 		.4byte	0x482b
ARM GAS  /var/folders/sv/kgmgr77579zbf78p2zlhkdfr0000gn/T//ccMuP6SP.s 			page 239


 13545 3b27 383B0000 		.4byte	0x3b38
 13546 3b2b 2E       		.uleb128 0x2e
 13547 3b2c 01       		.uleb128 0x1
 13548 3b2d 50       		.byte	0x50
 13549 3b2e 02       		.uleb128 0x2
 13550 3b2f 74       		.byte	0x74
 13551 3b30 00       		.sleb128 0
 13552 3b31 2E       		.uleb128 0x2e
 13553 3b32 01       		.uleb128 0x1
 13554 3b33 51       		.byte	0x51
 13555 3b34 02       		.uleb128 0x2
 13556 3b35 76       		.byte	0x76
 13557 3b36 00       		.sleb128 0
 13558 3b37 00       		.byte	0
 13559 3b38 2F       		.uleb128 0x2f
 13560 3b39 68100000 		.4byte	.LVL385
 13561 3b3d 2B480000 		.4byte	0x482b
 13562 3b41 523B0000 		.4byte	0x3b52
 13563 3b45 2E       		.uleb128 0x2e
 13564 3b46 01       		.uleb128 0x1
 13565 3b47 50       		.byte	0x50
 13566 3b48 02       		.uleb128 0x2
 13567 3b49 74       		.byte	0x74
 13568 3b4a 00       		.sleb128 0
 13569 3b4b 2E       		.uleb128 0x2e
 13570 3b4c 01       		.uleb128 0x1
 13571 3b4d 51       		.byte	0x51
 13572 3b4e 02       		.uleb128 0x2
 13573 3b4f 76       		.byte	0x76
 13574 3b50 00       		.sleb128 0
 13575 3b51 00       		.byte	0
 13576 3b52 2F       		.uleb128 0x2f
 13577 3b53 74100000 		.4byte	.LVL386
 13578 3b57 2B480000 		.4byte	0x482b
 13579 3b5b 6C3B0000 		.4byte	0x3b6c
 13580 3b5f 2E       		.uleb128 0x2e
 13581 3b60 01       		.uleb128 0x1
 13582 3b61 50       		.byte	0x50
 13583 3b62 02       		.uleb128 0x2
 13584 3b63 74       		.byte	0x74
 13585 3b64 00       		.sleb128 0
 13586 3b65 2E       		.uleb128 0x2e
 13587 3b66 01       		.uleb128 0x1
 13588 3b67 51       		.byte	0x51
 13589 3b68 02       		.uleb128 0x2
 13590 3b69 76       		.byte	0x76
 13591 3b6a 00       		.sleb128 0
 13592 3b6b 00       		.byte	0
 13593 3b6c 2F       		.uleb128 0x2f
 13594 3b6d 80100000 		.4byte	.LVL387
 13595 3b71 2B480000 		.4byte	0x482b
 13596 3b75 863B0000 		.4byte	0x3b86
 13597 3b79 2E       		.uleb128 0x2e
 13598 3b7a 01       		.uleb128 0x1
 13599 3b7b 50       		.byte	0x50
 13600 3b7c 02       		.uleb128 0x2
 13601 3b7d 74       		.byte	0x74
ARM GAS  /var/folders/sv/kgmgr77579zbf78p2zlhkdfr0000gn/T//ccMuP6SP.s 			page 240


 13602 3b7e 00       		.sleb128 0
 13603 3b7f 2E       		.uleb128 0x2e
 13604 3b80 01       		.uleb128 0x1
 13605 3b81 51       		.byte	0x51
 13606 3b82 02       		.uleb128 0x2
 13607 3b83 76       		.byte	0x76
 13608 3b84 00       		.sleb128 0
 13609 3b85 00       		.byte	0
 13610 3b86 2F       		.uleb128 0x2f
 13611 3b87 D2100000 		.4byte	.LVL388
 13612 3b8b 2B480000 		.4byte	0x482b
 13613 3b8f A03B0000 		.4byte	0x3ba0
 13614 3b93 2E       		.uleb128 0x2e
 13615 3b94 01       		.uleb128 0x1
 13616 3b95 50       		.byte	0x50
 13617 3b96 02       		.uleb128 0x2
 13618 3b97 74       		.byte	0x74
 13619 3b98 00       		.sleb128 0
 13620 3b99 2E       		.uleb128 0x2e
 13621 3b9a 01       		.uleb128 0x1
 13622 3b9b 51       		.byte	0x51
 13623 3b9c 02       		.uleb128 0x2
 13624 3b9d 76       		.byte	0x76
 13625 3b9e 00       		.sleb128 0
 13626 3b9f 00       		.byte	0
 13627 3ba0 2F       		.uleb128 0x2f
 13628 3ba1 DE100000 		.4byte	.LVL389
 13629 3ba5 2B480000 		.4byte	0x482b
 13630 3ba9 BA3B0000 		.4byte	0x3bba
 13631 3bad 2E       		.uleb128 0x2e
 13632 3bae 01       		.uleb128 0x1
 13633 3baf 50       		.byte	0x50
 13634 3bb0 02       		.uleb128 0x2
 13635 3bb1 74       		.byte	0x74
 13636 3bb2 00       		.sleb128 0
 13637 3bb3 2E       		.uleb128 0x2e
 13638 3bb4 01       		.uleb128 0x1
 13639 3bb5 51       		.byte	0x51
 13640 3bb6 02       		.uleb128 0x2
 13641 3bb7 76       		.byte	0x76
 13642 3bb8 00       		.sleb128 0
 13643 3bb9 00       		.byte	0
 13644 3bba 2F       		.uleb128 0x2f
 13645 3bbb EA100000 		.4byte	.LVL390
 13646 3bbf 2B480000 		.4byte	0x482b
 13647 3bc3 D43B0000 		.4byte	0x3bd4
 13648 3bc7 2E       		.uleb128 0x2e
 13649 3bc8 01       		.uleb128 0x1
 13650 3bc9 50       		.byte	0x50
 13651 3bca 02       		.uleb128 0x2
 13652 3bcb 74       		.byte	0x74
 13653 3bcc 00       		.sleb128 0
 13654 3bcd 2E       		.uleb128 0x2e
 13655 3bce 01       		.uleb128 0x1
 13656 3bcf 51       		.byte	0x51
 13657 3bd0 02       		.uleb128 0x2
 13658 3bd1 76       		.byte	0x76
ARM GAS  /var/folders/sv/kgmgr77579zbf78p2zlhkdfr0000gn/T//ccMuP6SP.s 			page 241


 13659 3bd2 00       		.sleb128 0
 13660 3bd3 00       		.byte	0
 13661 3bd4 2F       		.uleb128 0x2f
 13662 3bd5 F6100000 		.4byte	.LVL391
 13663 3bd9 2B480000 		.4byte	0x482b
 13664 3bdd EE3B0000 		.4byte	0x3bee
 13665 3be1 2E       		.uleb128 0x2e
 13666 3be2 01       		.uleb128 0x1
 13667 3be3 50       		.byte	0x50
 13668 3be4 02       		.uleb128 0x2
 13669 3be5 74       		.byte	0x74
 13670 3be6 00       		.sleb128 0
 13671 3be7 2E       		.uleb128 0x2e
 13672 3be8 01       		.uleb128 0x1
 13673 3be9 51       		.byte	0x51
 13674 3bea 02       		.uleb128 0x2
 13675 3beb 76       		.byte	0x76
 13676 3bec 00       		.sleb128 0
 13677 3bed 00       		.byte	0
 13678 3bee 2F       		.uleb128 0x2f
 13679 3bef 02110000 		.4byte	.LVL392
 13680 3bf3 2B480000 		.4byte	0x482b
 13681 3bf7 083C0000 		.4byte	0x3c08
 13682 3bfb 2E       		.uleb128 0x2e
 13683 3bfc 01       		.uleb128 0x1
 13684 3bfd 50       		.byte	0x50
 13685 3bfe 02       		.uleb128 0x2
 13686 3bff 74       		.byte	0x74
 13687 3c00 00       		.sleb128 0
 13688 3c01 2E       		.uleb128 0x2e
 13689 3c02 01       		.uleb128 0x1
 13690 3c03 51       		.byte	0x51
 13691 3c04 02       		.uleb128 0x2
 13692 3c05 76       		.byte	0x76
 13693 3c06 00       		.sleb128 0
 13694 3c07 00       		.byte	0
 13695 3c08 2F       		.uleb128 0x2f
 13696 3c09 0E110000 		.4byte	.LVL393
 13697 3c0d 2B480000 		.4byte	0x482b
 13698 3c11 223C0000 		.4byte	0x3c22
 13699 3c15 2E       		.uleb128 0x2e
 13700 3c16 01       		.uleb128 0x1
 13701 3c17 50       		.byte	0x50
 13702 3c18 02       		.uleb128 0x2
 13703 3c19 74       		.byte	0x74
 13704 3c1a 00       		.sleb128 0
 13705 3c1b 2E       		.uleb128 0x2e
 13706 3c1c 01       		.uleb128 0x1
 13707 3c1d 51       		.byte	0x51
 13708 3c1e 02       		.uleb128 0x2
 13709 3c1f 76       		.byte	0x76
 13710 3c20 00       		.sleb128 0
 13711 3c21 00       		.byte	0
 13712 3c22 2F       		.uleb128 0x2f
 13713 3c23 1A110000 		.4byte	.LVL394
 13714 3c27 2B480000 		.4byte	0x482b
 13715 3c2b 3C3C0000 		.4byte	0x3c3c
ARM GAS  /var/folders/sv/kgmgr77579zbf78p2zlhkdfr0000gn/T//ccMuP6SP.s 			page 242


 13716 3c2f 2E       		.uleb128 0x2e
 13717 3c30 01       		.uleb128 0x1
 13718 3c31 50       		.byte	0x50
 13719 3c32 02       		.uleb128 0x2
 13720 3c33 74       		.byte	0x74
 13721 3c34 00       		.sleb128 0
 13722 3c35 2E       		.uleb128 0x2e
 13723 3c36 01       		.uleb128 0x1
 13724 3c37 51       		.byte	0x51
 13725 3c38 02       		.uleb128 0x2
 13726 3c39 76       		.byte	0x76
 13727 3c3a 00       		.sleb128 0
 13728 3c3b 00       		.byte	0
 13729 3c3c 2F       		.uleb128 0x2f
 13730 3c3d 26110000 		.4byte	.LVL395
 13731 3c41 2B480000 		.4byte	0x482b
 13732 3c45 563C0000 		.4byte	0x3c56
 13733 3c49 2E       		.uleb128 0x2e
 13734 3c4a 01       		.uleb128 0x1
 13735 3c4b 50       		.byte	0x50
 13736 3c4c 02       		.uleb128 0x2
 13737 3c4d 74       		.byte	0x74
 13738 3c4e 00       		.sleb128 0
 13739 3c4f 2E       		.uleb128 0x2e
 13740 3c50 01       		.uleb128 0x1
 13741 3c51 51       		.byte	0x51
 13742 3c52 02       		.uleb128 0x2
 13743 3c53 76       		.byte	0x76
 13744 3c54 00       		.sleb128 0
 13745 3c55 00       		.byte	0
 13746 3c56 2F       		.uleb128 0x2f
 13747 3c57 32110000 		.4byte	.LVL396
 13748 3c5b 78480000 		.4byte	0x4878
 13749 3c5f 703C0000 		.4byte	0x3c70
 13750 3c63 2E       		.uleb128 0x2e
 13751 3c64 01       		.uleb128 0x1
 13752 3c65 50       		.byte	0x50
 13753 3c66 02       		.uleb128 0x2
 13754 3c67 74       		.byte	0x74
 13755 3c68 00       		.sleb128 0
 13756 3c69 2E       		.uleb128 0x2e
 13757 3c6a 01       		.uleb128 0x1
 13758 3c6b 51       		.byte	0x51
 13759 3c6c 02       		.uleb128 0x2
 13760 3c6d 76       		.byte	0x76
 13761 3c6e 00       		.sleb128 0
 13762 3c6f 00       		.byte	0
 13763 3c70 2F       		.uleb128 0x2f
 13764 3c71 3E110000 		.4byte	.LVL397
 13765 3c75 2B480000 		.4byte	0x482b
 13766 3c79 8A3C0000 		.4byte	0x3c8a
 13767 3c7d 2E       		.uleb128 0x2e
 13768 3c7e 01       		.uleb128 0x1
 13769 3c7f 50       		.byte	0x50
 13770 3c80 02       		.uleb128 0x2
 13771 3c81 74       		.byte	0x74
 13772 3c82 00       		.sleb128 0
ARM GAS  /var/folders/sv/kgmgr77579zbf78p2zlhkdfr0000gn/T//ccMuP6SP.s 			page 243


 13773 3c83 2E       		.uleb128 0x2e
 13774 3c84 01       		.uleb128 0x1
 13775 3c85 51       		.byte	0x51
 13776 3c86 02       		.uleb128 0x2
 13777 3c87 76       		.byte	0x76
 13778 3c88 00       		.sleb128 0
 13779 3c89 00       		.byte	0
 13780 3c8a 2F       		.uleb128 0x2f
 13781 3c8b 4A110000 		.4byte	.LVL398
 13782 3c8f 2B480000 		.4byte	0x482b
 13783 3c93 A43C0000 		.4byte	0x3ca4
 13784 3c97 2E       		.uleb128 0x2e
 13785 3c98 01       		.uleb128 0x1
 13786 3c99 50       		.byte	0x50
 13787 3c9a 02       		.uleb128 0x2
 13788 3c9b 74       		.byte	0x74
 13789 3c9c 00       		.sleb128 0
 13790 3c9d 2E       		.uleb128 0x2e
 13791 3c9e 01       		.uleb128 0x1
 13792 3c9f 51       		.byte	0x51
 13793 3ca0 02       		.uleb128 0x2
 13794 3ca1 76       		.byte	0x76
 13795 3ca2 00       		.sleb128 0
 13796 3ca3 00       		.byte	0
 13797 3ca4 2F       		.uleb128 0x2f
 13798 3ca5 56110000 		.4byte	.LVL399
 13799 3ca9 20480000 		.4byte	0x4820
 13800 3cad BE3C0000 		.4byte	0x3cbe
 13801 3cb1 2E       		.uleb128 0x2e
 13802 3cb2 01       		.uleb128 0x1
 13803 3cb3 50       		.byte	0x50
 13804 3cb4 02       		.uleb128 0x2
 13805 3cb5 74       		.byte	0x74
 13806 3cb6 00       		.sleb128 0
 13807 3cb7 2E       		.uleb128 0x2e
 13808 3cb8 01       		.uleb128 0x1
 13809 3cb9 51       		.byte	0x51
 13810 3cba 02       		.uleb128 0x2
 13811 3cbb 76       		.byte	0x76
 13812 3cbc 00       		.sleb128 0
 13813 3cbd 00       		.byte	0
 13814 3cbe 2F       		.uleb128 0x2f
 13815 3cbf 8C110000 		.4byte	.LVL400
 13816 3cc3 2B480000 		.4byte	0x482b
 13817 3cc7 D83C0000 		.4byte	0x3cd8
 13818 3ccb 2E       		.uleb128 0x2e
 13819 3ccc 01       		.uleb128 0x1
 13820 3ccd 50       		.byte	0x50
 13821 3cce 02       		.uleb128 0x2
 13822 3ccf 74       		.byte	0x74
 13823 3cd0 00       		.sleb128 0
 13824 3cd1 2E       		.uleb128 0x2e
 13825 3cd2 01       		.uleb128 0x1
 13826 3cd3 51       		.byte	0x51
 13827 3cd4 02       		.uleb128 0x2
 13828 3cd5 76       		.byte	0x76
 13829 3cd6 00       		.sleb128 0
ARM GAS  /var/folders/sv/kgmgr77579zbf78p2zlhkdfr0000gn/T//ccMuP6SP.s 			page 244


 13830 3cd7 00       		.byte	0
 13831 3cd8 2F       		.uleb128 0x2f
 13832 3cd9 98110000 		.4byte	.LVL401
 13833 3cdd 2B480000 		.4byte	0x482b
 13834 3ce1 F23C0000 		.4byte	0x3cf2
 13835 3ce5 2E       		.uleb128 0x2e
 13836 3ce6 01       		.uleb128 0x1
 13837 3ce7 50       		.byte	0x50
 13838 3ce8 02       		.uleb128 0x2
 13839 3ce9 74       		.byte	0x74
 13840 3cea 00       		.sleb128 0
 13841 3ceb 2E       		.uleb128 0x2e
 13842 3cec 01       		.uleb128 0x1
 13843 3ced 51       		.byte	0x51
 13844 3cee 02       		.uleb128 0x2
 13845 3cef 76       		.byte	0x76
 13846 3cf0 00       		.sleb128 0
 13847 3cf1 00       		.byte	0
 13848 3cf2 2F       		.uleb128 0x2f
 13849 3cf3 A4110000 		.4byte	.LVL402
 13850 3cf7 2B480000 		.4byte	0x482b
 13851 3cfb 0C3D0000 		.4byte	0x3d0c
 13852 3cff 2E       		.uleb128 0x2e
 13853 3d00 01       		.uleb128 0x1
 13854 3d01 50       		.byte	0x50
 13855 3d02 02       		.uleb128 0x2
 13856 3d03 74       		.byte	0x74
 13857 3d04 00       		.sleb128 0
 13858 3d05 2E       		.uleb128 0x2e
 13859 3d06 01       		.uleb128 0x1
 13860 3d07 51       		.byte	0x51
 13861 3d08 02       		.uleb128 0x2
 13862 3d09 76       		.byte	0x76
 13863 3d0a 00       		.sleb128 0
 13864 3d0b 00       		.byte	0
 13865 3d0c 2F       		.uleb128 0x2f
 13866 3d0d B0110000 		.4byte	.LVL403
 13867 3d11 2B480000 		.4byte	0x482b
 13868 3d15 263D0000 		.4byte	0x3d26
 13869 3d19 2E       		.uleb128 0x2e
 13870 3d1a 01       		.uleb128 0x1
 13871 3d1b 50       		.byte	0x50
 13872 3d1c 02       		.uleb128 0x2
 13873 3d1d 74       		.byte	0x74
 13874 3d1e 00       		.sleb128 0
 13875 3d1f 2E       		.uleb128 0x2e
 13876 3d20 01       		.uleb128 0x1
 13877 3d21 51       		.byte	0x51
 13878 3d22 02       		.uleb128 0x2
 13879 3d23 76       		.byte	0x76
 13880 3d24 00       		.sleb128 0
 13881 3d25 00       		.byte	0
 13882 3d26 2F       		.uleb128 0x2f
 13883 3d27 C2110000 		.4byte	.LVL404
 13884 3d2b 83480000 		.4byte	0x4883
 13885 3d2f 523D0000 		.4byte	0x3d52
 13886 3d33 2E       		.uleb128 0x2e
ARM GAS  /var/folders/sv/kgmgr77579zbf78p2zlhkdfr0000gn/T//ccMuP6SP.s 			page 245


 13887 3d34 01       		.uleb128 0x1
 13888 3d35 50       		.byte	0x50
 13889 3d36 02       		.uleb128 0x2
 13890 3d37 75       		.byte	0x75
 13891 3d38 04       		.sleb128 4
 13892 3d39 2E       		.uleb128 0x2e
 13893 3d3a 02       		.uleb128 0x2
 13894 3d3b 90       		.byte	0x90
 13895 3d3c 40       		.uleb128 0x40
 13896 3d3d 07       		.uleb128 0x7
 13897 3d3e F4       		.byte	0xf4
 13898 3d3f 25       		.uleb128 0x25
 13899 3d40 04       		.byte	0x4
 13900 3d41 0000C8C2 		.4byte	0xc2c80000
 13901 3d45 2E       		.uleb128 0x2e
 13902 3d46 02       		.uleb128 0x2
 13903 3d47 90       		.byte	0x90
 13904 3d48 41       		.uleb128 0x41
 13905 3d49 07       		.uleb128 0x7
 13906 3d4a F4       		.byte	0xf4
 13907 3d4b 25       		.uleb128 0x25
 13908 3d4c 04       		.byte	0x4
 13909 3d4d 0000C842 		.4byte	0x42c80000
 13910 3d51 00       		.byte	0
 13911 3d52 2F       		.uleb128 0x2f
 13912 3d53 D2110000 		.4byte	.LVL405
 13913 3d57 83480000 		.4byte	0x4883
 13914 3d5b 7E3D0000 		.4byte	0x3d7e
 13915 3d5f 2E       		.uleb128 0x2e
 13916 3d60 01       		.uleb128 0x1
 13917 3d61 50       		.byte	0x50
 13918 3d62 02       		.uleb128 0x2
 13919 3d63 75       		.byte	0x75
 13920 3d64 08       		.sleb128 8
 13921 3d65 2E       		.uleb128 0x2e
 13922 3d66 02       		.uleb128 0x2
 13923 3d67 90       		.byte	0x90
 13924 3d68 40       		.uleb128 0x40
 13925 3d69 07       		.uleb128 0x7
 13926 3d6a F4       		.byte	0xf4
 13927 3d6b 25       		.uleb128 0x25
 13928 3d6c 04       		.byte	0x4
 13929 3d6d 0000C8C2 		.4byte	0xc2c80000
 13930 3d71 2E       		.uleb128 0x2e
 13931 3d72 02       		.uleb128 0x2
 13932 3d73 90       		.byte	0x90
 13933 3d74 41       		.uleb128 0x41
 13934 3d75 07       		.uleb128 0x7
 13935 3d76 F4       		.byte	0xf4
 13936 3d77 25       		.uleb128 0x25
 13937 3d78 04       		.byte	0x4
 13938 3d79 0000C842 		.4byte	0x42c80000
 13939 3d7d 00       		.byte	0
 13940 3d7e 2F       		.uleb128 0x2f
 13941 3d7f E2110000 		.4byte	.LVL406
 13942 3d83 83480000 		.4byte	0x4883
 13943 3d87 AA3D0000 		.4byte	0x3daa
ARM GAS  /var/folders/sv/kgmgr77579zbf78p2zlhkdfr0000gn/T//ccMuP6SP.s 			page 246


 13944 3d8b 2E       		.uleb128 0x2e
 13945 3d8c 01       		.uleb128 0x1
 13946 3d8d 50       		.byte	0x50
 13947 3d8e 02       		.uleb128 0x2
 13948 3d8f 75       		.byte	0x75
 13949 3d90 0C       		.sleb128 12
 13950 3d91 2E       		.uleb128 0x2e
 13951 3d92 02       		.uleb128 0x2
 13952 3d93 90       		.byte	0x90
 13953 3d94 40       		.uleb128 0x40
 13954 3d95 07       		.uleb128 0x7
 13955 3d96 F4       		.byte	0xf4
 13956 3d97 25       		.uleb128 0x25
 13957 3d98 04       		.byte	0x4
 13958 3d99 0000C8C2 		.4byte	0xc2c80000
 13959 3d9d 2E       		.uleb128 0x2e
 13960 3d9e 02       		.uleb128 0x2
 13961 3d9f 90       		.byte	0x90
 13962 3da0 41       		.uleb128 0x41
 13963 3da1 07       		.uleb128 0x7
 13964 3da2 F4       		.byte	0xf4
 13965 3da3 25       		.uleb128 0x25
 13966 3da4 04       		.byte	0x4
 13967 3da5 0000C842 		.4byte	0x42c80000
 13968 3da9 00       		.byte	0
 13969 3daa 2F       		.uleb128 0x2f
 13970 3dab F2110000 		.4byte	.LVL407
 13971 3daf 83480000 		.4byte	0x4883
 13972 3db3 D63D0000 		.4byte	0x3dd6
 13973 3db7 2E       		.uleb128 0x2e
 13974 3db8 01       		.uleb128 0x1
 13975 3db9 50       		.byte	0x50
 13976 3dba 02       		.uleb128 0x2
 13977 3dbb 75       		.byte	0x75
 13978 3dbc 10       		.sleb128 16
 13979 3dbd 2E       		.uleb128 0x2e
 13980 3dbe 02       		.uleb128 0x2
 13981 3dbf 90       		.byte	0x90
 13982 3dc0 40       		.uleb128 0x40
 13983 3dc1 07       		.uleb128 0x7
 13984 3dc2 F4       		.byte	0xf4
 13985 3dc3 25       		.uleb128 0x25
 13986 3dc4 04       		.byte	0x4
 13987 3dc5 0000C8C2 		.4byte	0xc2c80000
 13988 3dc9 2E       		.uleb128 0x2e
 13989 3dca 02       		.uleb128 0x2
 13990 3dcb 90       		.byte	0x90
 13991 3dcc 41       		.uleb128 0x41
 13992 3dcd 07       		.uleb128 0x7
 13993 3dce F4       		.byte	0xf4
 13994 3dcf 25       		.uleb128 0x25
 13995 3dd0 04       		.byte	0x4
 13996 3dd1 0000C842 		.4byte	0x42c80000
 13997 3dd5 00       		.byte	0
 13998 3dd6 2F       		.uleb128 0x2f
 13999 3dd7 02120000 		.4byte	.LVL408
 14000 3ddb 83480000 		.4byte	0x4883
ARM GAS  /var/folders/sv/kgmgr77579zbf78p2zlhkdfr0000gn/T//ccMuP6SP.s 			page 247


 14001 3ddf 023E0000 		.4byte	0x3e02
 14002 3de3 2E       		.uleb128 0x2e
 14003 3de4 01       		.uleb128 0x1
 14004 3de5 50       		.byte	0x50
 14005 3de6 02       		.uleb128 0x2
 14006 3de7 75       		.byte	0x75
 14007 3de8 14       		.sleb128 20
 14008 3de9 2E       		.uleb128 0x2e
 14009 3dea 02       		.uleb128 0x2
 14010 3deb 90       		.byte	0x90
 14011 3dec 40       		.uleb128 0x40
 14012 3ded 07       		.uleb128 0x7
 14013 3dee F4       		.byte	0xf4
 14014 3def 25       		.uleb128 0x25
 14015 3df0 04       		.byte	0x4
 14016 3df1 00000000 		.4byte	0
 14017 3df5 2E       		.uleb128 0x2e
 14018 3df6 02       		.uleb128 0x2
 14019 3df7 90       		.byte	0x90
 14020 3df8 41       		.uleb128 0x41
 14021 3df9 07       		.uleb128 0x7
 14022 3dfa F4       		.byte	0xf4
 14023 3dfb 25       		.uleb128 0x25
 14024 3dfc 04       		.byte	0x4
 14025 3dfd 00001643 		.4byte	0x43160000
 14026 3e01 00       		.byte	0
 14027 3e02 2F       		.uleb128 0x2f
 14028 3e03 12120000 		.4byte	.LVL409
 14029 3e07 83480000 		.4byte	0x4883
 14030 3e0b 2E3E0000 		.4byte	0x3e2e
 14031 3e0f 2E       		.uleb128 0x2e
 14032 3e10 01       		.uleb128 0x1
 14033 3e11 50       		.byte	0x50
 14034 3e12 02       		.uleb128 0x2
 14035 3e13 75       		.byte	0x75
 14036 3e14 30       		.sleb128 48
 14037 3e15 2E       		.uleb128 0x2e
 14038 3e16 02       		.uleb128 0x2
 14039 3e17 90       		.byte	0x90
 14040 3e18 40       		.uleb128 0x40
 14041 3e19 07       		.uleb128 0x7
 14042 3e1a F4       		.byte	0xf4
 14043 3e1b 25       		.uleb128 0x25
 14044 3e1c 04       		.byte	0x4
 14045 3e1d 0000C040 		.4byte	0x40c00000
 14046 3e21 2E       		.uleb128 0x2e
 14047 3e22 02       		.uleb128 0x2
 14048 3e23 90       		.byte	0x90
 14049 3e24 41       		.uleb128 0x41
 14050 3e25 07       		.uleb128 0x7
 14051 3e26 F4       		.byte	0xf4
 14052 3e27 25       		.uleb128 0x25
 14053 3e28 04       		.byte	0x4
 14054 3e29 00006442 		.4byte	0x42640000
 14055 3e2d 00       		.byte	0
 14056 3e2e 2F       		.uleb128 0x2f
 14057 3e2f 22120000 		.4byte	.LVL410
ARM GAS  /var/folders/sv/kgmgr77579zbf78p2zlhkdfr0000gn/T//ccMuP6SP.s 			page 248


 14058 3e33 83480000 		.4byte	0x4883
 14059 3e37 5A3E0000 		.4byte	0x3e5a
 14060 3e3b 2E       		.uleb128 0x2e
 14061 3e3c 01       		.uleb128 0x1
 14062 3e3d 50       		.byte	0x50
 14063 3e3e 02       		.uleb128 0x2
 14064 3e3f 75       		.byte	0x75
 14065 3e40 2C       		.sleb128 44
 14066 3e41 2E       		.uleb128 0x2e
 14067 3e42 02       		.uleb128 0x2
 14068 3e43 90       		.byte	0x90
 14069 3e44 40       		.uleb128 0x40
 14070 3e45 07       		.uleb128 0x7
 14071 3e46 F4       		.byte	0xf4
 14072 3e47 25       		.uleb128 0x25
 14073 3e48 04       		.byte	0x4
 14074 3e49 0000C040 		.4byte	0x40c00000
 14075 3e4d 2E       		.uleb128 0x2e
 14076 3e4e 02       		.uleb128 0x2
 14077 3e4f 90       		.byte	0x90
 14078 3e50 41       		.uleb128 0x41
 14079 3e51 07       		.uleb128 0x7
 14080 3e52 F4       		.byte	0xf4
 14081 3e53 25       		.uleb128 0x25
 14082 3e54 04       		.byte	0x4
 14083 3e55 00006442 		.4byte	0x42640000
 14084 3e59 00       		.byte	0
 14085 3e5a 2F       		.uleb128 0x2f
 14086 3e5b 32120000 		.4byte	.LVL411
 14087 3e5f 83480000 		.4byte	0x4883
 14088 3e63 863E0000 		.4byte	0x3e86
 14089 3e67 2E       		.uleb128 0x2e
 14090 3e68 01       		.uleb128 0x1
 14091 3e69 50       		.byte	0x50
 14092 3e6a 02       		.uleb128 0x2
 14093 3e6b 75       		.byte	0x75
 14094 3e6c 1C       		.sleb128 28
 14095 3e6d 2E       		.uleb128 0x2e
 14096 3e6e 02       		.uleb128 0x2
 14097 3e6f 90       		.byte	0x90
 14098 3e70 40       		.uleb128 0x40
 14099 3e71 07       		.uleb128 0x7
 14100 3e72 F4       		.byte	0xf4
 14101 3e73 25       		.uleb128 0x25
 14102 3e74 04       		.byte	0x4
 14103 3e75 005043C8 		.4byte	0xc8435000
 14104 3e79 2E       		.uleb128 0x2e
 14105 3e7a 02       		.uleb128 0x2
 14106 3e7b 90       		.byte	0x90
 14107 3e7c 41       		.uleb128 0x41
 14108 3e7d 07       		.uleb128 0x7
 14109 3e7e F4       		.byte	0xf4
 14110 3e7f 25       		.uleb128 0x25
 14111 3e80 04       		.byte	0x4
 14112 3e81 00504348 		.4byte	0x48435000
 14113 3e85 00       		.byte	0
 14114 3e86 2F       		.uleb128 0x2f
ARM GAS  /var/folders/sv/kgmgr77579zbf78p2zlhkdfr0000gn/T//ccMuP6SP.s 			page 249


 14115 3e87 42120000 		.4byte	.LVL412
 14116 3e8b 83480000 		.4byte	0x4883
 14117 3e8f B23E0000 		.4byte	0x3eb2
 14118 3e93 2E       		.uleb128 0x2e
 14119 3e94 01       		.uleb128 0x1
 14120 3e95 50       		.byte	0x50
 14121 3e96 02       		.uleb128 0x2
 14122 3e97 75       		.byte	0x75
 14123 3e98 18       		.sleb128 24
 14124 3e99 2E       		.uleb128 0x2e
 14125 3e9a 02       		.uleb128 0x2
 14126 3e9b 90       		.byte	0x90
 14127 3e9c 40       		.uleb128 0x40
 14128 3e9d 07       		.uleb128 0x7
 14129 3e9e F4       		.byte	0xf4
 14130 3e9f 25       		.uleb128 0x25
 14131 3ea0 04       		.byte	0x4
 14132 3ea1 005043C8 		.4byte	0xc8435000
 14133 3ea5 2E       		.uleb128 0x2e
 14134 3ea6 02       		.uleb128 0x2
 14135 3ea7 90       		.byte	0x90
 14136 3ea8 41       		.uleb128 0x41
 14137 3ea9 07       		.uleb128 0x7
 14138 3eaa F4       		.byte	0xf4
 14139 3eab 25       		.uleb128 0x25
 14140 3eac 04       		.byte	0x4
 14141 3ead 00504348 		.4byte	0x48435000
 14142 3eb1 00       		.byte	0
 14143 3eb2 2F       		.uleb128 0x2f
 14144 3eb3 52120000 		.4byte	.LVL413
 14145 3eb7 83480000 		.4byte	0x4883
 14146 3ebb DF3E0000 		.4byte	0x3edf
 14147 3ebf 2E       		.uleb128 0x2e
 14148 3ec0 01       		.uleb128 0x1
 14149 3ec1 50       		.byte	0x50
 14150 3ec2 03       		.uleb128 0x3
 14151 3ec3 75       		.byte	0x75
 14152 3ec4 D400     		.sleb128 84
 14153 3ec6 2E       		.uleb128 0x2e
 14154 3ec7 02       		.uleb128 0x2
 14155 3ec8 90       		.byte	0x90
 14156 3ec9 40       		.uleb128 0x40
 14157 3eca 07       		.uleb128 0x7
 14158 3ecb F4       		.byte	0xf4
 14159 3ecc 25       		.uleb128 0x25
 14160 3ecd 04       		.byte	0x4
 14161 3ece 00000000 		.4byte	0
 14162 3ed2 2E       		.uleb128 0x2e
 14163 3ed3 02       		.uleb128 0x2
 14164 3ed4 90       		.byte	0x90
 14165 3ed5 41       		.uleb128 0x41
 14166 3ed6 07       		.uleb128 0x7
 14167 3ed7 F4       		.byte	0xf4
 14168 3ed8 25       		.uleb128 0x25
 14169 3ed9 04       		.byte	0x4
 14170 3eda CDCCCC3D 		.4byte	0x3dcccccd
 14171 3ede 00       		.byte	0
ARM GAS  /var/folders/sv/kgmgr77579zbf78p2zlhkdfr0000gn/T//ccMuP6SP.s 			page 250


 14172 3edf 2F       		.uleb128 0x2f
 14173 3ee0 62120000 		.4byte	.LVL414
 14174 3ee4 83480000 		.4byte	0x4883
 14175 3ee8 0C3F0000 		.4byte	0x3f0c
 14176 3eec 2E       		.uleb128 0x2e
 14177 3eed 01       		.uleb128 0x1
 14178 3eee 50       		.byte	0x50
 14179 3eef 03       		.uleb128 0x3
 14180 3ef0 75       		.byte	0x75
 14181 3ef1 D800     		.sleb128 88
 14182 3ef3 2E       		.uleb128 0x2e
 14183 3ef4 02       		.uleb128 0x2
 14184 3ef5 90       		.byte	0x90
 14185 3ef6 40       		.uleb128 0x40
 14186 3ef7 07       		.uleb128 0x7
 14187 3ef8 F4       		.byte	0xf4
 14188 3ef9 25       		.uleb128 0x25
 14189 3efa 04       		.byte	0x4
 14190 3efb 00000000 		.4byte	0
 14191 3eff 2E       		.uleb128 0x2e
 14192 3f00 02       		.uleb128 0x2
 14193 3f01 90       		.byte	0x90
 14194 3f02 41       		.uleb128 0x41
 14195 3f03 07       		.uleb128 0x7
 14196 3f04 F4       		.byte	0xf4
 14197 3f05 25       		.uleb128 0x25
 14198 3f06 04       		.byte	0x4
 14199 3f07 3333733F 		.4byte	0x3f733333
 14200 3f0b 00       		.byte	0
 14201 3f0c 2F       		.uleb128 0x2f
 14202 3f0d 72120000 		.4byte	.LVL415
 14203 3f11 83480000 		.4byte	0x4883
 14204 3f15 393F0000 		.4byte	0x3f39
 14205 3f19 2E       		.uleb128 0x2e
 14206 3f1a 01       		.uleb128 0x1
 14207 3f1b 50       		.byte	0x50
 14208 3f1c 03       		.uleb128 0x3
 14209 3f1d 75       		.byte	0x75
 14210 3f1e C000     		.sleb128 64
 14211 3f20 2E       		.uleb128 0x2e
 14212 3f21 02       		.uleb128 0x2
 14213 3f22 90       		.byte	0x90
 14214 3f23 40       		.uleb128 0x40
 14215 3f24 07       		.uleb128 0x7
 14216 3f25 F4       		.byte	0xf4
 14217 3f26 25       		.uleb128 0x25
 14218 3f27 04       		.byte	0x4
 14219 3f28 000020C2 		.4byte	0xc2200000
 14220 3f2c 2E       		.uleb128 0x2e
 14221 3f2d 02       		.uleb128 0x2
 14222 3f2e 90       		.byte	0x90
 14223 3f2f 41       		.uleb128 0x41
 14224 3f30 07       		.uleb128 0x7
 14225 3f31 F4       		.byte	0xf4
 14226 3f32 25       		.uleb128 0x25
 14227 3f33 04       		.byte	0x4
 14228 3f34 0000DC42 		.4byte	0x42dc0000
ARM GAS  /var/folders/sv/kgmgr77579zbf78p2zlhkdfr0000gn/T//ccMuP6SP.s 			page 251


 14229 3f38 00       		.byte	0
 14230 3f39 2F       		.uleb128 0x2f
 14231 3f3a 82120000 		.4byte	.LVL416
 14232 3f3e 83480000 		.4byte	0x4883
 14233 3f42 663F0000 		.4byte	0x3f66
 14234 3f46 2E       		.uleb128 0x2e
 14235 3f47 01       		.uleb128 0x1
 14236 3f48 50       		.byte	0x50
 14237 3f49 03       		.uleb128 0x3
 14238 3f4a 75       		.byte	0x75
 14239 3f4b C400     		.sleb128 68
 14240 3f4d 2E       		.uleb128 0x2e
 14241 3f4e 02       		.uleb128 0x2
 14242 3f4f 90       		.byte	0x90
 14243 3f50 40       		.uleb128 0x40
 14244 3f51 07       		.uleb128 0x7
 14245 3f52 F4       		.byte	0xf4
 14246 3f53 25       		.uleb128 0x25
 14247 3f54 04       		.byte	0x4
 14248 3f55 000020C2 		.4byte	0xc2200000
 14249 3f59 2E       		.uleb128 0x2e
 14250 3f5a 02       		.uleb128 0x2
 14251 3f5b 90       		.byte	0x90
 14252 3f5c 41       		.uleb128 0x41
 14253 3f5d 07       		.uleb128 0x7
 14254 3f5e F4       		.byte	0xf4
 14255 3f5f 25       		.uleb128 0x25
 14256 3f60 04       		.byte	0x4
 14257 3f61 0000DC42 		.4byte	0x42dc0000
 14258 3f65 00       		.byte	0
 14259 3f66 2F       		.uleb128 0x2f
 14260 3f67 88120000 		.4byte	.LVL417
 14261 3f6b 8E480000 		.4byte	0x488e
 14262 3f6f 7A3F0000 		.4byte	0x3f7a
 14263 3f73 2E       		.uleb128 0x2e
 14264 3f74 01       		.uleb128 0x1
 14265 3f75 50       		.byte	0x50
 14266 3f76 02       		.uleb128 0x2
 14267 3f77 75       		.byte	0x75
 14268 3f78 00       		.sleb128 0
 14269 3f79 00       		.byte	0
 14270 3f7a 2F       		.uleb128 0x2f
 14271 3f7b 8E120000 		.4byte	.LVL418
 14272 3f7f 44470000 		.4byte	0x4744
 14273 3f83 8E3F0000 		.4byte	0x3f8e
 14274 3f87 2E       		.uleb128 0x2e
 14275 3f88 01       		.uleb128 0x1
 14276 3f89 50       		.byte	0x50
 14277 3f8a 02       		.uleb128 0x2
 14278 3f8b 75       		.byte	0x75
 14279 3f8c 00       		.sleb128 0
 14280 3f8d 00       		.byte	0
 14281 3f8e 2F       		.uleb128 0x2f
 14282 3f8f 96120000 		.4byte	.LVL419
 14283 3f93 57480000 		.4byte	0x4857
 14284 3f97 A33F0000 		.4byte	0x3fa3
 14285 3f9b 2E       		.uleb128 0x2e
ARM GAS  /var/folders/sv/kgmgr77579zbf78p2zlhkdfr0000gn/T//ccMuP6SP.s 			page 252


 14286 3f9c 01       		.uleb128 0x1
 14287 3f9d 50       		.byte	0x50
 14288 3f9e 03       		.uleb128 0x3
 14289 3f9f 0A       		.byte	0xa
 14290 3fa0 D007     		.2byte	0x7d0
 14291 3fa2 00       		.byte	0
 14292 3fa3 2F       		.uleb128 0x2f
 14293 3fa4 BC120000 		.4byte	.LVL424
 14294 3fa8 23470000 		.4byte	0x4723
 14295 3fac CA3F0000 		.4byte	0x3fca
 14296 3fb0 2E       		.uleb128 0x2e
 14297 3fb1 01       		.uleb128 0x1
 14298 3fb2 50       		.byte	0x50
 14299 3fb3 02       		.uleb128 0x2
 14300 3fb4 74       		.byte	0x74
 14301 3fb5 00       		.sleb128 0
 14302 3fb6 2E       		.uleb128 0x2e
 14303 3fb7 02       		.uleb128 0x2
 14304 3fb8 90       		.byte	0x90
 14305 3fb9 40       		.uleb128 0x40
 14306 3fba 07       		.uleb128 0x7
 14307 3fbb F4       		.byte	0xf4
 14308 3fbc 25       		.uleb128 0x25
 14309 3fbd 04       		.byte	0x4
 14310 3fbe 00007A44 		.4byte	0x447a0000
 14311 3fc2 2E       		.uleb128 0x2e
 14312 3fc3 01       		.uleb128 0x1
 14313 3fc4 51       		.byte	0x51
 14314 3fc5 03       		.uleb128 0x3
 14315 3fc6 91       		.byte	0x91
 14316 3fc7 807E     		.sleb128 -256
 14317 3fc9 00       		.byte	0
 14318 3fca 49       		.uleb128 0x49
 14319 3fcb C0120000 		.4byte	.LVL425
 14320 3fcf 99480000 		.4byte	0x4899
 14321 3fd3 49       		.uleb128 0x49
 14322 3fd4 C4120000 		.4byte	.LVL426
 14323 3fd8 9C470000 		.4byte	0x479c
 14324 3fdc 2F       		.uleb128 0x2f
 14325 3fdd D0120000 		.4byte	.LVL427
 14326 3fe1 78480000 		.4byte	0x4878
 14327 3fe5 F73F0000 		.4byte	0x3ff7
 14328 3fe9 2E       		.uleb128 0x2e
 14329 3fea 01       		.uleb128 0x1
 14330 3feb 50       		.byte	0x50
 14331 3fec 02       		.uleb128 0x2
 14332 3fed 74       		.byte	0x74
 14333 3fee 00       		.sleb128 0
 14334 3fef 2E       		.uleb128 0x2e
 14335 3ff0 01       		.uleb128 0x1
 14336 3ff1 51       		.byte	0x51
 14337 3ff2 03       		.uleb128 0x3
 14338 3ff3 91       		.byte	0x91
 14339 3ff4 807E     		.sleb128 -256
 14340 3ff6 00       		.byte	0
 14341 3ff7 49       		.uleb128 0x49
 14342 3ff8 E4120000 		.4byte	.LVL428
ARM GAS  /var/folders/sv/kgmgr77579zbf78p2zlhkdfr0000gn/T//ccMuP6SP.s 			page 253


 14343 3ffc A4480000 		.4byte	0x48a4
 14344 4000 49       		.uleb128 0x49
 14345 4001 E8120000 		.4byte	.LVL429
 14346 4005 9C470000 		.4byte	0x479c
 14347 4009 2F       		.uleb128 0x2f
 14348 400a F4120000 		.4byte	.LVL430
 14349 400e 78480000 		.4byte	0x4878
 14350 4012 24400000 		.4byte	0x4024
 14351 4016 2E       		.uleb128 0x2e
 14352 4017 01       		.uleb128 0x1
 14353 4018 50       		.byte	0x50
 14354 4019 02       		.uleb128 0x2
 14355 401a 74       		.byte	0x74
 14356 401b 00       		.sleb128 0
 14357 401c 2E       		.uleb128 0x2e
 14358 401d 01       		.uleb128 0x1
 14359 401e 51       		.byte	0x51
 14360 401f 03       		.uleb128 0x3
 14361 4020 91       		.byte	0x91
 14362 4021 807E     		.sleb128 -256
 14363 4023 00       		.byte	0
 14364 4024 49       		.uleb128 0x49
 14365 4025 00130000 		.4byte	.LVL431
 14366 4029 AF480000 		.4byte	0x48af
 14367 402d 49       		.uleb128 0x49
 14368 402e 04130000 		.4byte	.LVL432
 14369 4032 9C470000 		.4byte	0x479c
 14370 4036 2F       		.uleb128 0x2f
 14371 4037 10130000 		.4byte	.LVL433
 14372 403b 78480000 		.4byte	0x4878
 14373 403f 51400000 		.4byte	0x4051
 14374 4043 2E       		.uleb128 0x2e
 14375 4044 01       		.uleb128 0x1
 14376 4045 50       		.byte	0x50
 14377 4046 02       		.uleb128 0x2
 14378 4047 74       		.byte	0x74
 14379 4048 00       		.sleb128 0
 14380 4049 2E       		.uleb128 0x2e
 14381 404a 01       		.uleb128 0x1
 14382 404b 51       		.byte	0x51
 14383 404c 03       		.uleb128 0x3
 14384 404d 91       		.byte	0x91
 14385 404e 807E     		.sleb128 -256
 14386 4050 00       		.byte	0
 14387 4051 49       		.uleb128 0x49
 14388 4052 24130000 		.4byte	.LVL434
 14389 4056 BA480000 		.4byte	0x48ba
 14390 405a 49       		.uleb128 0x49
 14391 405b 28130000 		.4byte	.LVL435
 14392 405f 9C470000 		.4byte	0x479c
 14393 4063 2F       		.uleb128 0x2f
 14394 4064 34130000 		.4byte	.LVL436
 14395 4068 78480000 		.4byte	0x4878
 14396 406c 7E400000 		.4byte	0x407e
 14397 4070 2E       		.uleb128 0x2e
 14398 4071 01       		.uleb128 0x1
 14399 4072 50       		.byte	0x50
ARM GAS  /var/folders/sv/kgmgr77579zbf78p2zlhkdfr0000gn/T//ccMuP6SP.s 			page 254


 14400 4073 02       		.uleb128 0x2
 14401 4074 74       		.byte	0x74
 14402 4075 00       		.sleb128 0
 14403 4076 2E       		.uleb128 0x2e
 14404 4077 01       		.uleb128 0x1
 14405 4078 51       		.byte	0x51
 14406 4079 03       		.uleb128 0x3
 14407 407a 91       		.byte	0x91
 14408 407b 807E     		.sleb128 -256
 14409 407d 00       		.byte	0
 14410 407e 49       		.uleb128 0x49
 14411 407f 48130000 		.4byte	.LVL437
 14412 4083 C5480000 		.4byte	0x48c5
 14413 4087 49       		.uleb128 0x49
 14414 4088 4C130000 		.4byte	.LVL438
 14415 408c 9C470000 		.4byte	0x479c
 14416 4090 2F       		.uleb128 0x2f
 14417 4091 58130000 		.4byte	.LVL439
 14418 4095 78480000 		.4byte	0x4878
 14419 4099 AB400000 		.4byte	0x40ab
 14420 409d 2E       		.uleb128 0x2e
 14421 409e 01       		.uleb128 0x1
 14422 409f 50       		.byte	0x50
 14423 40a0 02       		.uleb128 0x2
 14424 40a1 74       		.byte	0x74
 14425 40a2 00       		.sleb128 0
 14426 40a3 2E       		.uleb128 0x2e
 14427 40a4 01       		.uleb128 0x1
 14428 40a5 51       		.byte	0x51
 14429 40a6 03       		.uleb128 0x3
 14430 40a7 91       		.byte	0x91
 14431 40a8 807E     		.sleb128 -256
 14432 40aa 00       		.byte	0
 14433 40ab 49       		.uleb128 0x49
 14434 40ac 6C130000 		.4byte	.LVL440
 14435 40b0 D0480000 		.4byte	0x48d0
 14436 40b4 49       		.uleb128 0x49
 14437 40b5 70130000 		.4byte	.LVL441
 14438 40b9 9C470000 		.4byte	0x479c
 14439 40bd 49       		.uleb128 0x49
 14440 40be 86130000 		.4byte	.LVL444
 14441 40c2 DB480000 		.4byte	0x48db
 14442 40c6 2F       		.uleb128 0x2f
 14443 40c7 92130000 		.4byte	.LVL445
 14444 40cb E6480000 		.4byte	0x48e6
 14445 40cf EC400000 		.4byte	0x40ec
 14446 40d3 2E       		.uleb128 0x2e
 14447 40d4 01       		.uleb128 0x1
 14448 40d5 50       		.byte	0x50
 14449 40d6 02       		.uleb128 0x2
 14450 40d7 74       		.byte	0x74
 14451 40d8 00       		.sleb128 0
 14452 40d9 2E       		.uleb128 0x2e
 14453 40da 02       		.uleb128 0x2
 14454 40db 90       		.byte	0x90
 14455 40dc 41       		.uleb128 0x41
 14456 40dd 07       		.uleb128 0x7
ARM GAS  /var/folders/sv/kgmgr77579zbf78p2zlhkdfr0000gn/T//ccMuP6SP.s 			page 255


 14457 40de F4       		.byte	0xf4
 14458 40df 25       		.uleb128 0x25
 14459 40e0 04       		.byte	0x4
 14460 40e1 00002041 		.4byte	0x41200000
 14461 40e5 2E       		.uleb128 0x2e
 14462 40e6 01       		.uleb128 0x1
 14463 40e7 51       		.byte	0x51
 14464 40e8 02       		.uleb128 0x2
 14465 40e9 75       		.byte	0x75
 14466 40ea 00       		.sleb128 0
 14467 40eb 00       		.byte	0
 14468 40ec 49       		.uleb128 0x49
 14469 40ed 96130000 		.4byte	.LVL446
 14470 40f1 F1480000 		.4byte	0x48f1
 14471 40f5 2F       		.uleb128 0x2f
 14472 40f6 A2130000 		.4byte	.LVL447
 14473 40fa E6480000 		.4byte	0x48e6
 14474 40fe 1B410000 		.4byte	0x411b
 14475 4102 2E       		.uleb128 0x2e
 14476 4103 01       		.uleb128 0x1
 14477 4104 50       		.byte	0x50
 14478 4105 02       		.uleb128 0x2
 14479 4106 74       		.byte	0x74
 14480 4107 00       		.sleb128 0
 14481 4108 2E       		.uleb128 0x2e
 14482 4109 02       		.uleb128 0x2
 14483 410a 90       		.byte	0x90
 14484 410b 41       		.uleb128 0x41
 14485 410c 07       		.uleb128 0x7
 14486 410d F4       		.byte	0xf4
 14487 410e 25       		.uleb128 0x25
 14488 410f 04       		.byte	0x4
 14489 4110 00002041 		.4byte	0x41200000
 14490 4114 2E       		.uleb128 0x2e
 14491 4115 01       		.uleb128 0x1
 14492 4116 51       		.byte	0x51
 14493 4117 02       		.uleb128 0x2
 14494 4118 75       		.byte	0x75
 14495 4119 00       		.sleb128 0
 14496 411a 00       		.byte	0
 14497 411b 49       		.uleb128 0x49
 14498 411c A6130000 		.4byte	.LVL448
 14499 4120 FC480000 		.4byte	0x48fc
 14500 4124 2F       		.uleb128 0x2f
 14501 4125 B2130000 		.4byte	.LVL449
 14502 4129 39470000 		.4byte	0x4739
 14503 412d 4A410000 		.4byte	0x414a
 14504 4131 2E       		.uleb128 0x2e
 14505 4132 01       		.uleb128 0x1
 14506 4133 50       		.byte	0x50
 14507 4134 02       		.uleb128 0x2
 14508 4135 74       		.byte	0x74
 14509 4136 00       		.sleb128 0
 14510 4137 2E       		.uleb128 0x2e
 14511 4138 02       		.uleb128 0x2
 14512 4139 90       		.byte	0x90
 14513 413a 41       		.uleb128 0x41
ARM GAS  /var/folders/sv/kgmgr77579zbf78p2zlhkdfr0000gn/T//ccMuP6SP.s 			page 256


 14514 413b 07       		.uleb128 0x7
 14515 413c F4       		.byte	0xf4
 14516 413d 25       		.uleb128 0x25
 14517 413e 04       		.byte	0x4
 14518 413f 0000C842 		.4byte	0x42c80000
 14519 4143 2E       		.uleb128 0x2e
 14520 4144 01       		.uleb128 0x1
 14521 4145 51       		.byte	0x51
 14522 4146 02       		.uleb128 0x2
 14523 4147 75       		.byte	0x75
 14524 4148 00       		.sleb128 0
 14525 4149 00       		.byte	0
 14526 414a 49       		.uleb128 0x49
 14527 414b B6130000 		.4byte	.LVL450
 14528 414f 07490000 		.4byte	0x4907
 14529 4153 2F       		.uleb128 0x2f
 14530 4154 C2130000 		.4byte	.LVL451
 14531 4158 39470000 		.4byte	0x4739
 14532 415c 79410000 		.4byte	0x4179
 14533 4160 2E       		.uleb128 0x2e
 14534 4161 01       		.uleb128 0x1
 14535 4162 50       		.byte	0x50
 14536 4163 02       		.uleb128 0x2
 14537 4164 74       		.byte	0x74
 14538 4165 00       		.sleb128 0
 14539 4166 2E       		.uleb128 0x2e
 14540 4167 02       		.uleb128 0x2
 14541 4168 90       		.byte	0x90
 14542 4169 41       		.uleb128 0x41
 14543 416a 07       		.uleb128 0x7
 14544 416b F4       		.byte	0xf4
 14545 416c 25       		.uleb128 0x25
 14546 416d 04       		.byte	0x4
 14547 416e 0000C842 		.4byte	0x42c80000
 14548 4172 2E       		.uleb128 0x2e
 14549 4173 01       		.uleb128 0x1
 14550 4174 51       		.byte	0x51
 14551 4175 02       		.uleb128 0x2
 14552 4176 75       		.byte	0x75
 14553 4177 00       		.sleb128 0
 14554 4178 00       		.byte	0
 14555 4179 49       		.uleb128 0x49
 14556 417a C6130000 		.4byte	.LVL452
 14557 417e 12490000 		.4byte	0x4912
 14558 4182 2F       		.uleb128 0x2f
 14559 4183 D2130000 		.4byte	.LVL453
 14560 4187 39470000 		.4byte	0x4739
 14561 418b A8410000 		.4byte	0x41a8
 14562 418f 2E       		.uleb128 0x2e
 14563 4190 01       		.uleb128 0x1
 14564 4191 50       		.byte	0x50
 14565 4192 02       		.uleb128 0x2
 14566 4193 74       		.byte	0x74
 14567 4194 00       		.sleb128 0
 14568 4195 2E       		.uleb128 0x2e
 14569 4196 02       		.uleb128 0x2
 14570 4197 90       		.byte	0x90
ARM GAS  /var/folders/sv/kgmgr77579zbf78p2zlhkdfr0000gn/T//ccMuP6SP.s 			page 257


 14571 4198 41       		.uleb128 0x41
 14572 4199 07       		.uleb128 0x7
 14573 419a F4       		.byte	0xf4
 14574 419b 25       		.uleb128 0x25
 14575 419c 04       		.byte	0x4
 14576 419d 0000C842 		.4byte	0x42c80000
 14577 41a1 2E       		.uleb128 0x2e
 14578 41a2 01       		.uleb128 0x1
 14579 41a3 51       		.byte	0x51
 14580 41a4 02       		.uleb128 0x2
 14581 41a5 75       		.byte	0x75
 14582 41a6 00       		.sleb128 0
 14583 41a7 00       		.byte	0
 14584 41a8 49       		.uleb128 0x49
 14585 41a9 D6130000 		.4byte	.LVL454
 14586 41ad 1D490000 		.4byte	0x491d
 14587 41b1 2F       		.uleb128 0x2f
 14588 41b2 E2130000 		.4byte	.LVL455
 14589 41b6 39470000 		.4byte	0x4739
 14590 41ba D7410000 		.4byte	0x41d7
 14591 41be 2E       		.uleb128 0x2e
 14592 41bf 01       		.uleb128 0x1
 14593 41c0 50       		.byte	0x50
 14594 41c1 02       		.uleb128 0x2
 14595 41c2 74       		.byte	0x74
 14596 41c3 00       		.sleb128 0
 14597 41c4 2E       		.uleb128 0x2e
 14598 41c5 02       		.uleb128 0x2
 14599 41c6 90       		.byte	0x90
 14600 41c7 41       		.uleb128 0x41
 14601 41c8 07       		.uleb128 0x7
 14602 41c9 F4       		.byte	0xf4
 14603 41ca 25       		.uleb128 0x25
 14604 41cb 04       		.byte	0x4
 14605 41cc 0000C842 		.4byte	0x42c80000
 14606 41d0 2E       		.uleb128 0x2e
 14607 41d1 01       		.uleb128 0x1
 14608 41d2 51       		.byte	0x51
 14609 41d3 02       		.uleb128 0x2
 14610 41d4 75       		.byte	0x75
 14611 41d5 00       		.sleb128 0
 14612 41d6 00       		.byte	0
 14613 41d7 49       		.uleb128 0x49
 14614 41d8 E6130000 		.4byte	.LVL456
 14615 41dc 28490000 		.4byte	0x4928
 14616 41e0 2F       		.uleb128 0x2f
 14617 41e1 F2130000 		.4byte	.LVL457
 14618 41e5 E6480000 		.4byte	0x48e6
 14619 41e9 06420000 		.4byte	0x4206
 14620 41ed 2E       		.uleb128 0x2e
 14621 41ee 01       		.uleb128 0x1
 14622 41ef 50       		.byte	0x50
 14623 41f0 02       		.uleb128 0x2
 14624 41f1 74       		.byte	0x74
 14625 41f2 00       		.sleb128 0
 14626 41f3 2E       		.uleb128 0x2e
 14627 41f4 02       		.uleb128 0x2
ARM GAS  /var/folders/sv/kgmgr77579zbf78p2zlhkdfr0000gn/T//ccMuP6SP.s 			page 258


 14628 41f5 90       		.byte	0x90
 14629 41f6 41       		.uleb128 0x41
 14630 41f7 07       		.uleb128 0x7
 14631 41f8 F4       		.byte	0xf4
 14632 41f9 25       		.uleb128 0x25
 14633 41fa 04       		.byte	0x4
 14634 41fb 00007A44 		.4byte	0x447a0000
 14635 41ff 2E       		.uleb128 0x2e
 14636 4200 01       		.uleb128 0x1
 14637 4201 51       		.byte	0x51
 14638 4202 02       		.uleb128 0x2
 14639 4203 75       		.byte	0x75
 14640 4204 00       		.sleb128 0
 14641 4205 00       		.byte	0
 14642 4206 49       		.uleb128 0x49
 14643 4207 F6130000 		.4byte	.LVL458
 14644 420b 33490000 		.4byte	0x4933
 14645 420f 2F       		.uleb128 0x2f
 14646 4210 02140000 		.4byte	.LVL459
 14647 4214 39470000 		.4byte	0x4739
 14648 4218 35420000 		.4byte	0x4235
 14649 421c 2E       		.uleb128 0x2e
 14650 421d 01       		.uleb128 0x1
 14651 421e 50       		.byte	0x50
 14652 421f 02       		.uleb128 0x2
 14653 4220 74       		.byte	0x74
 14654 4221 00       		.sleb128 0
 14655 4222 2E       		.uleb128 0x2e
 14656 4223 02       		.uleb128 0x2
 14657 4224 90       		.byte	0x90
 14658 4225 41       		.uleb128 0x41
 14659 4226 07       		.uleb128 0x7
 14660 4227 F4       		.byte	0xf4
 14661 4228 25       		.uleb128 0x25
 14662 4229 04       		.byte	0x4
 14663 422a 0000803F 		.4byte	0x3f800000
 14664 422e 2E       		.uleb128 0x2e
 14665 422f 01       		.uleb128 0x1
 14666 4230 51       		.byte	0x51
 14667 4231 02       		.uleb128 0x2
 14668 4232 75       		.byte	0x75
 14669 4233 00       		.sleb128 0
 14670 4234 00       		.byte	0
 14671 4235 2F       		.uleb128 0x2f
 14672 4236 2C140000 		.4byte	.LVL460
 14673 423a E6480000 		.4byte	0x48e6
 14674 423e 5B420000 		.4byte	0x425b
 14675 4242 2E       		.uleb128 0x2e
 14676 4243 01       		.uleb128 0x1
 14677 4244 50       		.byte	0x50
 14678 4245 02       		.uleb128 0x2
 14679 4246 74       		.byte	0x74
 14680 4247 00       		.sleb128 0
 14681 4248 2E       		.uleb128 0x2e
 14682 4249 02       		.uleb128 0x2
 14683 424a 90       		.byte	0x90
 14684 424b 41       		.uleb128 0x41
ARM GAS  /var/folders/sv/kgmgr77579zbf78p2zlhkdfr0000gn/T//ccMuP6SP.s 			page 259


 14685 424c 07       		.uleb128 0x7
 14686 424d F4       		.byte	0xf4
 14687 424e 25       		.uleb128 0x25
 14688 424f 04       		.byte	0x4
 14689 4250 00002041 		.4byte	0x41200000
 14690 4254 2E       		.uleb128 0x2e
 14691 4255 01       		.uleb128 0x1
 14692 4256 51       		.byte	0x51
 14693 4257 02       		.uleb128 0x2
 14694 4258 75       		.byte	0x75
 14695 4259 00       		.sleb128 0
 14696 425a 00       		.byte	0
 14697 425b 2F       		.uleb128 0x2f
 14698 425c 32140000 		.4byte	.LVL461
 14699 4260 3E490000 		.4byte	0x493e
 14700 4264 6E420000 		.4byte	0x426e
 14701 4268 2E       		.uleb128 0x2e
 14702 4269 01       		.uleb128 0x1
 14703 426a 50       		.byte	0x50
 14704 426b 01       		.uleb128 0x1
 14705 426c 30       		.byte	0x30
 14706 426d 00       		.byte	0
 14707 426e 2F       		.uleb128 0x2f
 14708 426f 3E140000 		.4byte	.LVL462
 14709 4273 39470000 		.4byte	0x4739
 14710 4277 94420000 		.4byte	0x4294
 14711 427b 2E       		.uleb128 0x2e
 14712 427c 01       		.uleb128 0x1
 14713 427d 50       		.byte	0x50
 14714 427e 02       		.uleb128 0x2
 14715 427f 74       		.byte	0x74
 14716 4280 00       		.sleb128 0
 14717 4281 2E       		.uleb128 0x2e
 14718 4282 02       		.uleb128 0x2
 14719 4283 90       		.byte	0x90
 14720 4284 41       		.uleb128 0x41
 14721 4285 07       		.uleb128 0x7
 14722 4286 F4       		.byte	0xf4
 14723 4287 25       		.uleb128 0x25
 14724 4288 04       		.byte	0x4
 14725 4289 00401C46 		.4byte	0x461c4000
 14726 428d 2E       		.uleb128 0x2e
 14727 428e 01       		.uleb128 0x1
 14728 428f 51       		.byte	0x51
 14729 4290 02       		.uleb128 0x2
 14730 4291 75       		.byte	0x75
 14731 4292 00       		.sleb128 0
 14732 4293 00       		.byte	0
 14733 4294 2F       		.uleb128 0x2f
 14734 4295 44140000 		.4byte	.LVL463
 14735 4299 49490000 		.4byte	0x4949
 14736 429d A7420000 		.4byte	0x42a7
 14737 42a1 2E       		.uleb128 0x2e
 14738 42a2 01       		.uleb128 0x1
 14739 42a3 50       		.byte	0x50
 14740 42a4 01       		.uleb128 0x1
 14741 42a5 30       		.byte	0x30
ARM GAS  /var/folders/sv/kgmgr77579zbf78p2zlhkdfr0000gn/T//ccMuP6SP.s 			page 260


 14742 42a6 00       		.byte	0
 14743 42a7 2F       		.uleb128 0x2f
 14744 42a8 50140000 		.4byte	.LVL464
 14745 42ac 39470000 		.4byte	0x4739
 14746 42b0 CD420000 		.4byte	0x42cd
 14747 42b4 2E       		.uleb128 0x2e
 14748 42b5 01       		.uleb128 0x1
 14749 42b6 50       		.byte	0x50
 14750 42b7 02       		.uleb128 0x2
 14751 42b8 74       		.byte	0x74
 14752 42b9 00       		.sleb128 0
 14753 42ba 2E       		.uleb128 0x2e
 14754 42bb 02       		.uleb128 0x2
 14755 42bc 90       		.byte	0x90
 14756 42bd 41       		.uleb128 0x41
 14757 42be 07       		.uleb128 0x7
 14758 42bf F4       		.byte	0xf4
 14759 42c0 25       		.uleb128 0x25
 14760 42c1 04       		.byte	0x4
 14761 42c2 00401C46 		.4byte	0x461c4000
 14762 42c6 2E       		.uleb128 0x2e
 14763 42c7 01       		.uleb128 0x1
 14764 42c8 51       		.byte	0x51
 14765 42c9 02       		.uleb128 0x2
 14766 42ca 75       		.byte	0x75
 14767 42cb 00       		.sleb128 0
 14768 42cc 00       		.byte	0
 14769 42cd 2F       		.uleb128 0x2f
 14770 42ce 56140000 		.4byte	.LVL465
 14771 42d2 54490000 		.4byte	0x4954
 14772 42d6 E0420000 		.4byte	0x42e0
 14773 42da 2E       		.uleb128 0x2e
 14774 42db 01       		.uleb128 0x1
 14775 42dc 50       		.byte	0x50
 14776 42dd 01       		.uleb128 0x1
 14777 42de 30       		.byte	0x30
 14778 42df 00       		.byte	0
 14779 42e0 2F       		.uleb128 0x2f
 14780 42e1 62140000 		.4byte	.LVL466
 14781 42e5 39470000 		.4byte	0x4739
 14782 42e9 06430000 		.4byte	0x4306
 14783 42ed 2E       		.uleb128 0x2e
 14784 42ee 01       		.uleb128 0x1
 14785 42ef 50       		.byte	0x50
 14786 42f0 02       		.uleb128 0x2
 14787 42f1 74       		.byte	0x74
 14788 42f2 00       		.sleb128 0
 14789 42f3 2E       		.uleb128 0x2e
 14790 42f4 02       		.uleb128 0x2
 14791 42f5 90       		.byte	0x90
 14792 42f6 41       		.uleb128 0x41
 14793 42f7 07       		.uleb128 0x7
 14794 42f8 F4       		.byte	0xf4
 14795 42f9 25       		.uleb128 0x25
 14796 42fa 04       		.byte	0x4
 14797 42fb 00401C46 		.4byte	0x461c4000
 14798 42ff 2E       		.uleb128 0x2e
ARM GAS  /var/folders/sv/kgmgr77579zbf78p2zlhkdfr0000gn/T//ccMuP6SP.s 			page 261


 14799 4300 01       		.uleb128 0x1
 14800 4301 51       		.byte	0x51
 14801 4302 02       		.uleb128 0x2
 14802 4303 75       		.byte	0x75
 14803 4304 00       		.sleb128 0
 14804 4305 00       		.byte	0
 14805 4306 2F       		.uleb128 0x2f
 14806 4307 68140000 		.4byte	.LVL467
 14807 430b 5F490000 		.4byte	0x495f
 14808 430f 19430000 		.4byte	0x4319
 14809 4313 2E       		.uleb128 0x2e
 14810 4314 01       		.uleb128 0x1
 14811 4315 50       		.byte	0x50
 14812 4316 01       		.uleb128 0x1
 14813 4317 30       		.byte	0x30
 14814 4318 00       		.byte	0
 14815 4319 2F       		.uleb128 0x2f
 14816 431a 74140000 		.4byte	.LVL468
 14817 431e 39470000 		.4byte	0x4739
 14818 4322 3F430000 		.4byte	0x433f
 14819 4326 2E       		.uleb128 0x2e
 14820 4327 01       		.uleb128 0x1
 14821 4328 50       		.byte	0x50
 14822 4329 02       		.uleb128 0x2
 14823 432a 74       		.byte	0x74
 14824 432b 00       		.sleb128 0
 14825 432c 2E       		.uleb128 0x2e
 14826 432d 02       		.uleb128 0x2
 14827 432e 90       		.byte	0x90
 14828 432f 41       		.uleb128 0x41
 14829 4330 07       		.uleb128 0x7
 14830 4331 F4       		.byte	0xf4
 14831 4332 25       		.uleb128 0x25
 14832 4333 04       		.byte	0x4
 14833 4334 00401C46 		.4byte	0x461c4000
 14834 4338 2E       		.uleb128 0x2e
 14835 4339 01       		.uleb128 0x1
 14836 433a 51       		.byte	0x51
 14837 433b 02       		.uleb128 0x2
 14838 433c 75       		.byte	0x75
 14839 433d 00       		.sleb128 0
 14840 433e 00       		.byte	0
 14841 433f 2F       		.uleb128 0x2f
 14842 4340 7A140000 		.4byte	.LVL469
 14843 4344 6A490000 		.4byte	0x496a
 14844 4348 52430000 		.4byte	0x4352
 14845 434c 2E       		.uleb128 0x2e
 14846 434d 01       		.uleb128 0x1
 14847 434e 50       		.byte	0x50
 14848 434f 01       		.uleb128 0x1
 14849 4350 30       		.byte	0x30
 14850 4351 00       		.byte	0
 14851 4352 2F       		.uleb128 0x2f
 14852 4353 84140000 		.4byte	.LVL470
 14853 4357 D7460000 		.4byte	0x46d7
 14854 435b 6C430000 		.4byte	0x436c
 14855 435f 2E       		.uleb128 0x2e
ARM GAS  /var/folders/sv/kgmgr77579zbf78p2zlhkdfr0000gn/T//ccMuP6SP.s 			page 262


 14856 4360 01       		.uleb128 0x1
 14857 4361 50       		.byte	0x50
 14858 4362 02       		.uleb128 0x2
 14859 4363 74       		.byte	0x74
 14860 4364 00       		.sleb128 0
 14861 4365 2E       		.uleb128 0x2e
 14862 4366 01       		.uleb128 0x1
 14863 4367 52       		.byte	0x52
 14864 4368 02       		.uleb128 0x2
 14865 4369 75       		.byte	0x75
 14866 436a 00       		.sleb128 0
 14867 436b 00       		.byte	0
 14868 436c 2F       		.uleb128 0x2f
 14869 436d 8A140000 		.4byte	.LVL471
 14870 4371 75490000 		.4byte	0x4975
 14871 4375 7F430000 		.4byte	0x437f
 14872 4379 2E       		.uleb128 0x2e
 14873 437a 01       		.uleb128 0x1
 14874 437b 50       		.byte	0x50
 14875 437c 01       		.uleb128 0x1
 14876 437d 30       		.byte	0x30
 14877 437e 00       		.byte	0
 14878 437f 2F       		.uleb128 0x2f
 14879 4380 94140000 		.4byte	.LVL472
 14880 4384 D7460000 		.4byte	0x46d7
 14881 4388 99430000 		.4byte	0x4399
 14882 438c 2E       		.uleb128 0x2e
 14883 438d 01       		.uleb128 0x1
 14884 438e 50       		.byte	0x50
 14885 438f 02       		.uleb128 0x2
 14886 4390 74       		.byte	0x74
 14887 4391 00       		.sleb128 0
 14888 4392 2E       		.uleb128 0x2e
 14889 4393 01       		.uleb128 0x1
 14890 4394 52       		.byte	0x52
 14891 4395 02       		.uleb128 0x2
 14892 4396 75       		.byte	0x75
 14893 4397 00       		.sleb128 0
 14894 4398 00       		.byte	0
 14895 4399 49       		.uleb128 0x49
 14896 439a 9E140000 		.4byte	.LVL473
 14897 439e 80490000 		.4byte	0x4980
 14898 43a2 49       		.uleb128 0x49
 14899 43a3 A4140000 		.4byte	.LVL474
 14900 43a7 8B490000 		.4byte	0x498b
 14901 43ab 2F       		.uleb128 0x2f
 14902 43ac B0140000 		.4byte	.LVL475
 14903 43b0 39470000 		.4byte	0x4739
 14904 43b4 D1430000 		.4byte	0x43d1
 14905 43b8 2E       		.uleb128 0x2e
 14906 43b9 01       		.uleb128 0x1
 14907 43ba 50       		.byte	0x50
 14908 43bb 02       		.uleb128 0x2
 14909 43bc 74       		.byte	0x74
 14910 43bd 00       		.sleb128 0
 14911 43be 2E       		.uleb128 0x2e
 14912 43bf 02       		.uleb128 0x2
ARM GAS  /var/folders/sv/kgmgr77579zbf78p2zlhkdfr0000gn/T//ccMuP6SP.s 			page 263


 14913 43c0 90       		.byte	0x90
 14914 43c1 41       		.uleb128 0x41
 14915 43c2 07       		.uleb128 0x7
 14916 43c3 F4       		.byte	0xf4
 14917 43c4 25       		.uleb128 0x25
 14918 43c5 04       		.byte	0x4
 14919 43c6 00247449 		.4byte	0x49742400
 14920 43ca 2E       		.uleb128 0x2e
 14921 43cb 01       		.uleb128 0x1
 14922 43cc 51       		.byte	0x51
 14923 43cd 02       		.uleb128 0x2
 14924 43ce 75       		.byte	0x75
 14925 43cf 00       		.sleb128 0
 14926 43d0 00       		.byte	0
 14927 43d1 2F       		.uleb128 0x2f
 14928 43d2 C8140000 		.4byte	.LVL478
 14929 43d6 20480000 		.4byte	0x4820
 14930 43da EC430000 		.4byte	0x43ec
 14931 43de 2E       		.uleb128 0x2e
 14932 43df 01       		.uleb128 0x1
 14933 43e0 50       		.byte	0x50
 14934 43e1 02       		.uleb128 0x2
 14935 43e2 74       		.byte	0x74
 14936 43e3 00       		.sleb128 0
 14937 43e4 2E       		.uleb128 0x2e
 14938 43e5 01       		.uleb128 0x1
 14939 43e6 51       		.byte	0x51
 14940 43e7 03       		.uleb128 0x3
 14941 43e8 91       		.byte	0x91
 14942 43e9 807E     		.sleb128 -256
 14943 43eb 00       		.byte	0
 14944 43ec 49       		.uleb128 0x49
 14945 43ed D2140000 		.4byte	.LVL479
 14946 43f1 96490000 		.4byte	0x4996
 14947 43f5 2F       		.uleb128 0x2f
 14948 43f6 02150000 		.4byte	.LVL486
 14949 43fa 20480000 		.4byte	0x4820
 14950 43fe 10440000 		.4byte	0x4410
 14951 4402 2E       		.uleb128 0x2e
 14952 4403 01       		.uleb128 0x1
 14953 4404 50       		.byte	0x50
 14954 4405 02       		.uleb128 0x2
 14955 4406 74       		.byte	0x74
 14956 4407 00       		.sleb128 0
 14957 4408 2E       		.uleb128 0x2e
 14958 4409 01       		.uleb128 0x1
 14959 440a 51       		.byte	0x51
 14960 440b 03       		.uleb128 0x3
 14961 440c 91       		.byte	0x91
 14962 440d 807E     		.sleb128 -256
 14963 440f 00       		.byte	0
 14964 4410 49       		.uleb128 0x49
 14965 4411 06150000 		.4byte	.LVL487
 14966 4415 A1490000 		.4byte	0x49a1
 14967 4419 49       		.uleb128 0x49
 14968 441a 2A150000 		.4byte	.LVL491
 14969 441e AC490000 		.4byte	0x49ac
ARM GAS  /var/folders/sv/kgmgr77579zbf78p2zlhkdfr0000gn/T//ccMuP6SP.s 			page 264


 14970 4422 2F       		.uleb128 0x2f
 14971 4423 72150000 		.4byte	.LVL496
 14972 4427 78480000 		.4byte	0x4878
 14973 442b 3D440000 		.4byte	0x443d
 14974 442f 2E       		.uleb128 0x2e
 14975 4430 01       		.uleb128 0x1
 14976 4431 50       		.byte	0x50
 14977 4432 02       		.uleb128 0x2
 14978 4433 74       		.byte	0x74
 14979 4434 00       		.sleb128 0
 14980 4435 2E       		.uleb128 0x2e
 14981 4436 01       		.uleb128 0x1
 14982 4437 51       		.byte	0x51
 14983 4438 03       		.uleb128 0x3
 14984 4439 91       		.byte	0x91
 14985 443a 807E     		.sleb128 -256
 14986 443c 00       		.byte	0
 14987 443d 49       		.uleb128 0x49
 14988 443e 76150000 		.4byte	.LVL497
 14989 4442 B7490000 		.4byte	0x49b7
 14990 4446 2F       		.uleb128 0x2f
 14991 4447 CE150000 		.4byte	.LVL502
 14992 444b C2490000 		.4byte	0x49c2
 14993 444f 61440000 		.4byte	0x4461
 14994 4453 2E       		.uleb128 0x2e
 14995 4454 01       		.uleb128 0x1
 14996 4455 50       		.byte	0x50
 14997 4456 02       		.uleb128 0x2
 14998 4457 74       		.byte	0x74
 14999 4458 00       		.sleb128 0
 15000 4459 2E       		.uleb128 0x2e
 15001 445a 01       		.uleb128 0x1
 15002 445b 51       		.byte	0x51
 15003 445c 03       		.uleb128 0x3
 15004 445d 91       		.byte	0x91
 15005 445e 807E     		.sleb128 -256
 15006 4460 00       		.byte	0
 15007 4461 2F       		.uleb128 0x2f
 15008 4462 D8150000 		.4byte	.LVL503
 15009 4466 C2490000 		.4byte	0x49c2
 15010 446a 7C440000 		.4byte	0x447c
 15011 446e 2E       		.uleb128 0x2e
 15012 446f 01       		.uleb128 0x1
 15013 4470 50       		.byte	0x50
 15014 4471 02       		.uleb128 0x2
 15015 4472 74       		.byte	0x74
 15016 4473 00       		.sleb128 0
 15017 4474 2E       		.uleb128 0x2e
 15018 4475 01       		.uleb128 0x1
 15019 4476 51       		.byte	0x51
 15020 4477 03       		.uleb128 0x3
 15021 4478 91       		.byte	0x91
 15022 4479 807E     		.sleb128 -256
 15023 447b 00       		.byte	0
 15024 447c 2F       		.uleb128 0x2f
 15025 447d E2150000 		.4byte	.LVL504
 15026 4481 C2490000 		.4byte	0x49c2
ARM GAS  /var/folders/sv/kgmgr77579zbf78p2zlhkdfr0000gn/T//ccMuP6SP.s 			page 265


 15027 4485 97440000 		.4byte	0x4497
 15028 4489 2E       		.uleb128 0x2e
 15029 448a 01       		.uleb128 0x1
 15030 448b 50       		.byte	0x50
 15031 448c 02       		.uleb128 0x2
 15032 448d 74       		.byte	0x74
 15033 448e 00       		.sleb128 0
 15034 448f 2E       		.uleb128 0x2e
 15035 4490 01       		.uleb128 0x1
 15036 4491 51       		.byte	0x51
 15037 4492 03       		.uleb128 0x3
 15038 4493 91       		.byte	0x91
 15039 4494 807E     		.sleb128 -256
 15040 4496 00       		.byte	0
 15041 4497 2F       		.uleb128 0x2f
 15042 4498 EA150000 		.4byte	.LVL505
 15043 449c CD490000 		.4byte	0x49cd
 15044 44a0 AC440000 		.4byte	0x44ac
 15045 44a4 2E       		.uleb128 0x2e
 15046 44a5 01       		.uleb128 0x1
 15047 44a6 50       		.byte	0x50
 15048 44a7 03       		.uleb128 0x3
 15049 44a8 91       		.byte	0x91
 15050 44a9 887E     		.sleb128 -248
 15051 44ab 00       		.byte	0
 15052 44ac 2F       		.uleb128 0x2f
 15053 44ad 30160000 		.4byte	.LVL507
 15054 44b1 D8490000 		.4byte	0x49d8
 15055 44b5 CB440000 		.4byte	0x44cb
 15056 44b9 2E       		.uleb128 0x2e
 15057 44ba 01       		.uleb128 0x1
 15058 44bb 51       		.byte	0x51
 15059 44bc 02       		.uleb128 0x2
 15060 44bd 77       		.byte	0x77
 15061 44be 02       		.sleb128 2
 15062 44bf 2E       		.uleb128 0x2e
 15063 44c0 01       		.uleb128 0x1
 15064 44c1 52       		.byte	0x52
 15065 44c2 02       		.uleb128 0x2
 15066 44c3 75       		.byte	0x75
 15067 44c4 7F       		.sleb128 -1
 15068 44c5 2E       		.uleb128 0x2e
 15069 44c6 01       		.uleb128 0x1
 15070 44c7 53       		.byte	0x53
 15071 44c8 01       		.uleb128 0x1
 15072 44c9 30       		.byte	0x30
 15073 44ca 00       		.byte	0
 15074 44cb 49       		.uleb128 0x49
 15075 44cc 48160000 		.4byte	.LVL511
 15076 44d0 5A470000 		.4byte	0x475a
 15077 44d4 2F       		.uleb128 0x2f
 15078 44d5 54160000 		.4byte	.LVL512
 15079 44d9 F9460000 		.4byte	0x46f9
 15080 44dd F2440000 		.4byte	0x44f2
 15081 44e1 2E       		.uleb128 0x2e
 15082 44e2 01       		.uleb128 0x1
 15083 44e3 50       		.byte	0x50
ARM GAS  /var/folders/sv/kgmgr77579zbf78p2zlhkdfr0000gn/T//ccMuP6SP.s 			page 266


 15084 44e4 05       		.uleb128 0x5
 15085 44e5 03       		.byte	0x3
 15086 44e6 00000000 		.4byte	.LANCHOR15
 15087 44ea 2E       		.uleb128 0x2e
 15088 44eb 01       		.uleb128 0x1
 15089 44ec 52       		.byte	0x52
 15090 44ed 03       		.uleb128 0x3
 15091 44ee 0A       		.byte	0xa
 15092 44ef 7401     		.2byte	0x174
 15093 44f1 00       		.byte	0
 15094 44f2 49       		.uleb128 0x49
 15095 44f3 5C160000 		.4byte	.LVL513
 15096 44f7 E3490000 		.4byte	0x49e3
 15097 44fb 49       		.uleb128 0x49
 15098 44fc 64160000 		.4byte	.LVL514
 15099 4500 15480000 		.4byte	0x4815
 15100 4504 2F       		.uleb128 0x2f
 15101 4505 70160000 		.4byte	.LVL516
 15102 4509 F9460000 		.4byte	0x46f9
 15103 450d 1E450000 		.4byte	0x451e
 15104 4511 2E       		.uleb128 0x2e
 15105 4512 01       		.uleb128 0x1
 15106 4513 50       		.byte	0x50
 15107 4514 02       		.uleb128 0x2
 15108 4515 74       		.byte	0x74
 15109 4516 00       		.sleb128 0
 15110 4517 2E       		.uleb128 0x2e
 15111 4518 01       		.uleb128 0x1
 15112 4519 52       		.byte	0x52
 15113 451a 02       		.uleb128 0x2
 15114 451b 08       		.byte	0x8
 15115 451c C8       		.byte	0xc8
 15116 451d 00       		.byte	0
 15117 451e 2F       		.uleb128 0x2f
 15118 451f A0160000 		.4byte	.LVL521
 15119 4523 39470000 		.4byte	0x4739
 15120 4527 50450000 		.4byte	0x4550
 15121 452b 2E       		.uleb128 0x2e
 15122 452c 01       		.uleb128 0x1
 15123 452d 50       		.byte	0x50
 15124 452e 02       		.uleb128 0x2
 15125 452f 74       		.byte	0x74
 15126 4530 00       		.sleb128 0
 15127 4531 2E       		.uleb128 0x2e
 15128 4532 02       		.uleb128 0x2
 15129 4533 90       		.byte	0x90
 15130 4534 40       		.uleb128 0x40
 15131 4535 07       		.uleb128 0x7
 15132 4536 F4       		.byte	0xf4
 15133 4537 25       		.uleb128 0x25
 15134 4538 04       		.byte	0x4
 15135 4539 00407A44 		.4byte	0x447a4000
 15136 453d 2E       		.uleb128 0x2e
 15137 453e 02       		.uleb128 0x2
 15138 453f 90       		.byte	0x90
 15139 4540 41       		.uleb128 0x41
 15140 4541 07       		.uleb128 0x7
ARM GAS  /var/folders/sv/kgmgr77579zbf78p2zlhkdfr0000gn/T//ccMuP6SP.s 			page 267


 15141 4542 F4       		.byte	0xf4
 15142 4543 25       		.uleb128 0x25
 15143 4544 04       		.byte	0x4
 15144 4545 00247449 		.4byte	0x49742400
 15145 4549 2E       		.uleb128 0x2e
 15146 454a 01       		.uleb128 0x1
 15147 454b 51       		.byte	0x51
 15148 454c 02       		.uleb128 0x2
 15149 454d 75       		.byte	0x75
 15150 454e 00       		.sleb128 0
 15151 454f 00       		.byte	0
 15152 4550 32       		.uleb128 0x32
 15153 4551 B0160000 		.4byte	.LVL522
 15154 4555 39470000 		.4byte	0x4739
 15155 4559 2E       		.uleb128 0x2e
 15156 455a 01       		.uleb128 0x1
 15157 455b 50       		.byte	0x50
 15158 455c 02       		.uleb128 0x2
 15159 455d 74       		.byte	0x74
 15160 455e 00       		.sleb128 0
 15161 455f 2E       		.uleb128 0x2e
 15162 4560 02       		.uleb128 0x2
 15163 4561 90       		.byte	0x90
 15164 4562 40       		.uleb128 0x40
 15165 4563 07       		.uleb128 0x7
 15166 4564 F4       		.byte	0xf4
 15167 4565 25       		.uleb128 0x25
 15168 4566 04       		.byte	0x4
 15169 4567 00000000 		.4byte	0
 15170 456b 2E       		.uleb128 0x2e
 15171 456c 02       		.uleb128 0x2
 15172 456d 90       		.byte	0x90
 15173 456e 41       		.uleb128 0x41
 15174 456f 07       		.uleb128 0x7
 15175 4570 F4       		.byte	0xf4
 15176 4571 25       		.uleb128 0x25
 15177 4572 04       		.byte	0x4
 15178 4573 00247449 		.4byte	0x49742400
 15179 4577 2E       		.uleb128 0x2e
 15180 4578 01       		.uleb128 0x1
 15181 4579 51       		.byte	0x51
 15182 457a 02       		.uleb128 0x2
 15183 457b 75       		.byte	0x75
 15184 457c 00       		.sleb128 0
 15185 457d 00       		.byte	0
 15186 457e 00       		.byte	0
 15187 457f 15       		.uleb128 0x15
 15188 4580 B9040000 		.4byte	0x4b9
 15189 4584 90450000 		.4byte	0x4590
 15190 4588 4D       		.uleb128 0x4d
 15191 4589 A7040000 		.4byte	0x4a7
 15192 458d 3201     		.2byte	0x132
 15193 458f 00       		.byte	0
 15194 4590 47       		.uleb128 0x47
 15195 4591 3C040000 		.4byte	.LASF486
 15196 4595 01       		.byte	0x1
 15197 4596 31       		.byte	0x31
ARM GAS  /var/folders/sv/kgmgr77579zbf78p2zlhkdfr0000gn/T//ccMuP6SP.s 			page 268


 15198 4597 7F450000 		.4byte	0x457f
 15199 459b 05       		.uleb128 0x5
 15200 459c 03       		.byte	0x3
 15201 459d 00000000 		.4byte	detect_thread_wa
 15202 45a1 47       		.uleb128 0x47
 15203 45a2 B0070000 		.4byte	.LASF487
 15204 45a6 01       		.byte	0x1
 15205 45a7 32       		.byte	0x32
 15206 45a8 94020000 		.4byte	0x294
 15207 45ac 05       		.uleb128 0x5
 15208 45ad 03       		.byte	0x3
 15209 45ae 00000000 		.4byte	detect_tp
 15210 45b2 15       		.uleb128 0x15
 15211 45b3 BF000000 		.4byte	0xbf
 15212 45b7 C3450000 		.4byte	0x45c3
 15213 45bb 4D       		.uleb128 0x4d
 15214 45bc A7040000 		.4byte	0x4a7
 15215 45c0 FF03     		.2byte	0x3ff
 15216 45c2 00       		.byte	0
 15217 45c3 47       		.uleb128 0x47
 15218 45c4 C3210000 		.4byte	.LASF488
 15219 45c8 01       		.byte	0x1
 15220 45c9 35       		.byte	0x35
 15221 45ca B2450000 		.4byte	0x45b2
 15222 45ce 05       		.uleb128 0x5
 15223 45cf 03       		.byte	0x3
 15224 45d0 00000000 		.4byte	send_buffer
 15225 45d4 47       		.uleb128 0x47
 15226 45d5 56100000 		.4byte	.LASF489
 15227 45d9 01       		.byte	0x1
 15228 45da 36       		.byte	0x36
 15229 45db 25000000 		.4byte	0x25
 15230 45df 05       		.uleb128 0x5
 15231 45e0 03       		.byte	0x3
 15232 45e1 00000000 		.4byte	detect_cycle_int_limit
 15233 45e5 47       		.uleb128 0x47
 15234 45e6 350C0000 		.4byte	.LASF490
 15235 45ea 01       		.byte	0x1
 15236 45eb 37       		.byte	0x37
 15237 45ec 25000000 		.4byte	0x25
 15238 45f0 05       		.uleb128 0x5
 15239 45f1 03       		.byte	0x3
 15240 45f2 00000000 		.4byte	detect_coupling_k
 15241 45f6 47       		.uleb128 0x47
 15242 45f7 14080000 		.4byte	.LASF491
 15243 45fb 01       		.byte	0x1
 15244 45fc 38       		.byte	0x38
 15245 45fd 25000000 		.4byte	0x25
 15246 4601 05       		.uleb128 0x5
 15247 4602 03       		.byte	0x3
 15248 4603 00000000 		.4byte	detect_current
 15249 4607 47       		.uleb128 0x47
 15250 4608 CF030000 		.4byte	.LASF492
 15251 460c 01       		.byte	0x1
 15252 460d 39       		.byte	0x39
 15253 460e 25000000 		.4byte	0x25
 15254 4612 05       		.uleb128 0x5
ARM GAS  /var/folders/sv/kgmgr77579zbf78p2zlhkdfr0000gn/T//ccMuP6SP.s 			page 269


 15255 4613 03       		.byte	0x3
 15256 4614 00000000 		.4byte	detect_min_rpm
 15257 4618 47       		.uleb128 0x47
 15258 4619 110A0000 		.4byte	.LASF493
 15259 461d 01       		.byte	0x1
 15260 461e 3A       		.byte	0x3a
 15261 461f 25000000 		.4byte	0x25
 15262 4623 05       		.uleb128 0x5
 15263 4624 03       		.byte	0x3
 15264 4625 00000000 		.4byte	detect_low_duty
 15265 4629 47       		.uleb128 0x47
 15266 462a 62020000 		.4byte	.LASF494
 15267 462e 01       		.byte	0x1
 15268 462f 3B       		.byte	0x3b
 15269 4630 EE0D0000 		.4byte	0xdee
 15270 4634 05       		.uleb128 0x5
 15271 4635 03       		.byte	0x3
 15272 4636 00000000 		.4byte	detect_hall_table
 15273 463a 47       		.uleb128 0x47
 15274 463b 82130000 		.4byte	.LASF495
 15275 463f 01       		.byte	0x1
 15276 4640 3C       		.byte	0x3c
 15277 4641 2C000000 		.4byte	0x2c
 15278 4645 05       		.uleb128 0x5
 15279 4646 03       		.byte	0x3
 15280 4647 00000000 		.4byte	detect_hall_res
 15281 464b 47       		.uleb128 0x47
 15282 464c 93010000 		.4byte	.LASF496
 15283 4650 01       		.byte	0x1
 15284 4651 3D       		.byte	0x3d
 15285 4652 6F180000 		.4byte	0x186f
 15286 4656 05       		.uleb128 0x5
 15287 4657 03       		.byte	0x3
 15288 4658 00000000 		.4byte	send_func
 15289 465c 47       		.uleb128 0x47
 15290 465d 7F020000 		.4byte	.LASF497
 15291 4661 01       		.byte	0x1
 15292 4662 3E       		.byte	0x3e
 15293 4663 6F180000 		.4byte	0x186f
 15294 4667 05       		.uleb128 0x5
 15295 4668 03       		.byte	0x3
 15296 4669 00000000 		.4byte	send_func_last
 15297 466d 47       		.uleb128 0x47
 15298 466e 34030000 		.4byte	.LASF498
 15299 4672 01       		.byte	0x1
 15300 4673 3F       		.byte	0x3f
 15301 4674 6F180000 		.4byte	0x186f
 15302 4678 05       		.uleb128 0x5
 15303 4679 03       		.byte	0x3
 15304 467a 00000000 		.4byte	appdata_func
 15305 467e 47       		.uleb128 0x47
 15306 467f 471B0000 		.4byte	.LASF499
 15307 4683 01       		.byte	0x1
 15308 4684 40       		.byte	0x40
 15309 4685 55080000 		.4byte	0x855
 15310 4689 05       		.uleb128 0x5
 15311 468a 03       		.byte	0x3
ARM GAS  /var/folders/sv/kgmgr77579zbf78p2zlhkdfr0000gn/T//ccMuP6SP.s 			page 270


 15312 468b 00000000 		.4byte	display_position_mode
 15313 468f 4E       		.uleb128 0x4e
 15314 4690 68200000 		.4byte	.LASF500
 15315 4694 13       		.byte	0x13
 15316 4695 A706     		.2byte	0x6a7
 15317 4697 06010000 		.4byte	0x106
 15318 469b 4F       		.uleb128 0x4f
 15319 469c 636800   		.ascii	"ch\000"
 15320 469f 09       		.byte	0x9
 15321 46a0 0902     		.2byte	0x209
 15322 46a2 40040000 		.4byte	0x440
 15323 46a6 15       		.uleb128 0x15
 15324 46a7 01010000 		.4byte	0x101
 15325 46ab B1460000 		.4byte	0x46b1
 15326 46af 50       		.uleb128 0x50
 15327 46b0 00       		.byte	0
 15328 46b1 51       		.uleb128 0x51
 15329 46b2 C4140000 		.4byte	.LASF501
 15330 46b6 14       		.byte	0x14
 15331 46b7 56       		.byte	0x56
 15332 46b8 BC460000 		.4byte	0x46bc
 15333 46bc 05       		.uleb128 0x5
 15334 46bd A6460000 		.4byte	0x46a6
 15335 46c1 52       		.uleb128 0x52
 15336 46c2 25260000 		.4byte	.LASF502
 15337 46c6 25260000 		.4byte	.LASF502
 15338 46ca 15       		.byte	0x15
 15339 46cb 8B       		.byte	0x8b
 15340 46cc 52       		.uleb128 0x52
 15341 46cd 17110000 		.4byte	.LASF503
 15342 46d1 17110000 		.4byte	.LASF503
 15343 46d5 16       		.byte	0x16
 15344 46d6 AA       		.byte	0xaa
 15345 46d7 52       		.uleb128 0x52
 15346 46d8 1A190000 		.4byte	.LASF504
 15347 46dc 1A190000 		.4byte	.LASF504
 15348 46e0 17       		.byte	0x17
 15349 46e1 1B       		.byte	0x1b
 15350 46e2 52       		.uleb128 0x52
 15351 46e3 09070000 		.4byte	.LASF505
 15352 46e7 09070000 		.4byte	.LASF505
 15353 46eb 18       		.byte	0x18
 15354 46ec 89       		.byte	0x89
 15355 46ed 53       		.uleb128 0x53
 15356 46ee 21060000 		.4byte	.LASF506
 15357 46f2 21060000 		.4byte	.LASF506
 15358 46f6 19       		.byte	0x19
 15359 46f7 0C01     		.2byte	0x10c
 15360 46f9 54       		.uleb128 0x54
 15361 46fa C3060000 		.4byte	.LASF584
 15362 46fe C3060000 		.4byte	.LASF584
 15363 4702 52       		.uleb128 0x52
 15364 4703 400E0000 		.4byte	.LASF507
 15365 4707 400E0000 		.4byte	.LASF507
 15366 470b 17       		.byte	0x17
 15367 470c 1C       		.byte	0x1c
 15368 470d 52       		.uleb128 0x52
ARM GAS  /var/folders/sv/kgmgr77579zbf78p2zlhkdfr0000gn/T//ccMuP6SP.s 			page 271


 15369 470e 3D1F0000 		.4byte	.LASF508
 15370 4712 3D1F0000 		.4byte	.LASF508
 15371 4716 17       		.byte	0x17
 15372 4717 1F       		.byte	0x1f
 15373 4718 52       		.uleb128 0x52
 15374 4719 AE0C0000 		.4byte	.LASF509
 15375 471d AE0C0000 		.4byte	.LASF509
 15376 4721 17       		.byte	0x17
 15377 4722 1A       		.byte	0x1a
 15378 4723 52       		.uleb128 0x52
 15379 4724 06250000 		.4byte	.LASF510
 15380 4728 06250000 		.4byte	.LASF510
 15381 472c 17       		.byte	0x17
 15382 472d 25       		.byte	0x25
 15383 472e 52       		.uleb128 0x52
 15384 472f 9A000000 		.4byte	.LASF511
 15385 4733 9A000000 		.4byte	.LASF511
 15386 4737 16       		.byte	0x16
 15387 4738 AC       		.byte	0xac
 15388 4739 52       		.uleb128 0x52
 15389 473a AC0E0000 		.4byte	.LASF512
 15390 473e AC0E0000 		.4byte	.LASF512
 15391 4742 17       		.byte	0x17
 15392 4743 1E       		.byte	0x1e
 15393 4744 52       		.uleb128 0x52
 15394 4745 990F0000 		.4byte	.LASF513
 15395 4749 990F0000 		.4byte	.LASF513
 15396 474d 14       		.byte	0x14
 15397 474e 1D       		.byte	0x1d
 15398 474f 52       		.uleb128 0x52
 15399 4750 D3080000 		.4byte	.LASF514
 15400 4754 D3080000 		.4byte	.LASF514
 15401 4758 1A       		.byte	0x1a
 15402 4759 48       		.byte	0x48
 15403 475a 52       		.uleb128 0x52
 15404 475b 3F210000 		.4byte	.LASF515
 15405 475f 3F210000 		.4byte	.LASF515
 15406 4763 14       		.byte	0x14
 15407 4764 1C       		.byte	0x1c
 15408 4765 52       		.uleb128 0x52
 15409 4766 3E240000 		.4byte	.LASF516
 15410 476a 3E240000 		.4byte	.LASF516
 15411 476e 1A       		.byte	0x1a
 15412 476f 44       		.byte	0x44
 15413 4770 52       		.uleb128 0x52
 15414 4771 5D1B0000 		.4byte	.LASF517
 15415 4775 5D1B0000 		.4byte	.LASF517
 15416 4779 1A       		.byte	0x1a
 15417 477a 47       		.byte	0x47
 15418 477b 52       		.uleb128 0x52
 15419 477c E11B0000 		.4byte	.LASF518
 15420 4780 E11B0000 		.4byte	.LASF518
 15421 4784 17       		.byte	0x17
 15422 4785 21       		.byte	0x21
 15423 4786 52       		.uleb128 0x52
 15424 4787 B6150000 		.4byte	.LASF519
 15425 478b B6150000 		.4byte	.LASF519
ARM GAS  /var/folders/sv/kgmgr77579zbf78p2zlhkdfr0000gn/T//ccMuP6SP.s 			page 272


 15426 478f 14       		.byte	0x14
 15427 4790 49       		.byte	0x49
 15428 4791 52       		.uleb128 0x52
 15429 4792 191A0000 		.4byte	.LASF520
 15430 4796 191A0000 		.4byte	.LASF520
 15431 479a 1B       		.byte	0x1b
 15432 479b 38       		.byte	0x38
 15433 479c 52       		.uleb128 0x52
 15434 479d 1C0F0000 		.4byte	.LASF521
 15435 47a1 1C0F0000 		.4byte	.LASF521
 15436 47a5 1C       		.byte	0x1c
 15437 47a6 1E       		.byte	0x1e
 15438 47a7 52       		.uleb128 0x52
 15439 47a8 A3260000 		.4byte	.LASF522
 15440 47ac A3260000 		.4byte	.LASF522
 15441 47b0 1D       		.byte	0x1d
 15442 47b1 20       		.byte	0x20
 15443 47b2 52       		.uleb128 0x52
 15444 47b3 3D050000 		.4byte	.LASF523
 15445 47b7 3D050000 		.4byte	.LASF523
 15446 47bb 1E       		.byte	0x1e
 15447 47bc 20       		.byte	0x20
 15448 47bd 52       		.uleb128 0x52
 15449 47be AC220000 		.4byte	.LASF524
 15450 47c2 AC220000 		.4byte	.LASF524
 15451 47c6 1D       		.byte	0x1d
 15452 47c7 32       		.byte	0x32
 15453 47c8 52       		.uleb128 0x52
 15454 47c9 22040000 		.4byte	.LASF525
 15455 47cd 22040000 		.4byte	.LASF525
 15456 47d1 1D       		.byte	0x1d
 15457 47d2 26       		.byte	0x26
 15458 47d3 52       		.uleb128 0x52
 15459 47d4 F1250000 		.4byte	.LASF526
 15460 47d8 F1250000 		.4byte	.LASF526
 15461 47dc 1D       		.byte	0x1d
 15462 47dd 27       		.byte	0x27
 15463 47de 52       		.uleb128 0x52
 15464 47df 8D060000 		.4byte	.LASF527
 15465 47e3 8D060000 		.4byte	.LASF527
 15466 47e7 1D       		.byte	0x1d
 15467 47e8 28       		.byte	0x28
 15468 47e9 52       		.uleb128 0x52
 15469 47ea F4130000 		.4byte	.LASF528
 15470 47ee F4130000 		.4byte	.LASF528
 15471 47f2 1D       		.byte	0x1d
 15472 47f3 29       		.byte	0x29
 15473 47f4 52       		.uleb128 0x52
 15474 47f5 021D0000 		.4byte	.LASF529
 15475 47f9 021D0000 		.4byte	.LASF529
 15476 47fd 1F       		.byte	0x1f
 15477 47fe 1D       		.byte	0x1d
 15478 47ff 52       		.uleb128 0x52
 15479 4800 9E180000 		.4byte	.LASF530
 15480 4804 9E180000 		.4byte	.LASF530
 15481 4808 15       		.byte	0x15
 15482 4809 84       		.byte	0x84
ARM GAS  /var/folders/sv/kgmgr77579zbf78p2zlhkdfr0000gn/T//ccMuP6SP.s 			page 273


 15483 480a 52       		.uleb128 0x52
 15484 480b 59050000 		.4byte	.LASF531
 15485 480f 59050000 		.4byte	.LASF531
 15486 4813 16       		.byte	0x16
 15487 4814 A4       		.byte	0xa4
 15488 4815 52       		.uleb128 0x52
 15489 4816 60220000 		.4byte	.LASF532
 15490 481a 60220000 		.4byte	.LASF532
 15491 481e 1D       		.byte	0x1d
 15492 481f 1A       		.byte	0x1a
 15493 4820 52       		.uleb128 0x52
 15494 4821 9F1E0000 		.4byte	.LASF533
 15495 4825 9F1E0000 		.4byte	.LASF533
 15496 4829 17       		.byte	0x17
 15497 482a 23       		.byte	0x23
 15498 482b 52       		.uleb128 0x52
 15499 482c 790F0000 		.4byte	.LASF534
 15500 4830 790F0000 		.4byte	.LASF534
 15501 4834 17       		.byte	0x17
 15502 4835 26       		.byte	0x26
 15503 4836 52       		.uleb128 0x52
 15504 4837 21200000 		.4byte	.LASF535
 15505 483b 21200000 		.4byte	.LASF535
 15506 483f 16       		.byte	0x16
 15507 4840 A7       		.byte	0xa7
 15508 4841 52       		.uleb128 0x52
 15509 4842 5D0B0000 		.4byte	.LASF536
 15510 4846 5D0B0000 		.4byte	.LASF536
 15511 484a 1D       		.byte	0x1d
 15512 484b 1B       		.byte	0x1b
 15513 484c 52       		.uleb128 0x52
 15514 484d AD240000 		.4byte	.LASF537
 15515 4851 AD240000 		.4byte	.LASF537
 15516 4855 1C       		.byte	0x1c
 15517 4856 1D       		.byte	0x1d
 15518 4857 52       		.uleb128 0x52
 15519 4858 220E0000 		.4byte	.LASF538
 15520 485c 220E0000 		.4byte	.LASF538
 15521 4860 18       		.byte	0x18
 15522 4861 96       		.byte	0x96
 15523 4862 52       		.uleb128 0x52
 15524 4863 E7120000 		.4byte	.LASF539
 15525 4867 E7120000 		.4byte	.LASF539
 15526 486b 20       		.byte	0x20
 15527 486c 1A       		.byte	0x1a
 15528 486d 52       		.uleb128 0x52
 15529 486e E4150000 		.4byte	.LASF540
 15530 4872 E4150000 		.4byte	.LASF540
 15531 4876 16       		.byte	0x16
 15532 4877 A5       		.byte	0xa5
 15533 4878 52       		.uleb128 0x52
 15534 4879 22130000 		.4byte	.LASF541
 15535 487d 22130000 		.4byte	.LASF541
 15536 4881 17       		.byte	0x17
 15537 4882 22       		.byte	0x22
 15538 4883 52       		.uleb128 0x52
 15539 4884 35080000 		.4byte	.LASF542
ARM GAS  /var/folders/sv/kgmgr77579zbf78p2zlhkdfr0000gn/T//ccMuP6SP.s 			page 274


 15540 4888 35080000 		.4byte	.LASF542
 15541 488c 21       		.byte	0x21
 15542 488d 1D       		.byte	0x1d
 15543 488e 52       		.uleb128 0x52
 15544 488f FE030000 		.4byte	.LASF543
 15545 4893 FE030000 		.4byte	.LASF543
 15546 4897 16       		.byte	0x16
 15547 4898 A9       		.byte	0xa9
 15548 4899 52       		.uleb128 0x52
 15549 489a 6B210000 		.4byte	.LASF544
 15550 489e 6B210000 		.4byte	.LASF544
 15551 48a2 14       		.byte	0x14
 15552 48a3 2D       		.byte	0x2d
 15553 48a4 52       		.uleb128 0x52
 15554 48a5 9D1C0000 		.4byte	.LASF545
 15555 48a9 9D1C0000 		.4byte	.LASF545
 15556 48ad 14       		.byte	0x14
 15557 48ae 28       		.byte	0x28
 15558 48af 52       		.uleb128 0x52
 15559 48b0 A8060000 		.4byte	.LASF546
 15560 48b4 A8060000 		.4byte	.LASF546
 15561 48b8 14       		.byte	0x14
 15562 48b9 27       		.byte	0x27
 15563 48ba 52       		.uleb128 0x52
 15564 48bb E9200000 		.4byte	.LASF547
 15565 48bf E9200000 		.4byte	.LASF547
 15566 48c3 14       		.byte	0x14
 15567 48c4 2A       		.byte	0x2a
 15568 48c5 52       		.uleb128 0x52
 15569 48c6 02150000 		.4byte	.LASF548
 15570 48ca 02150000 		.4byte	.LASF548
 15571 48ce 14       		.byte	0x14
 15572 48cf 29       		.byte	0x29
 15573 48d0 52       		.uleb128 0x52
 15574 48d1 7E240000 		.4byte	.LASF549
 15575 48d5 7E240000 		.4byte	.LASF549
 15576 48d9 14       		.byte	0x14
 15577 48da 25       		.byte	0x25
 15578 48db 52       		.uleb128 0x52
 15579 48dc 38180000 		.4byte	.LASF550
 15580 48e0 38180000 		.4byte	.LASF550
 15581 48e4 14       		.byte	0x14
 15582 48e5 4A       		.byte	0x4a
 15583 48e6 52       		.uleb128 0x52
 15584 48e7 0C130000 		.4byte	.LASF551
 15585 48eb 0C130000 		.4byte	.LASF551
 15586 48ef 17       		.byte	0x17
 15587 48f0 1D       		.byte	0x1d
 15588 48f1 52       		.uleb128 0x52
 15589 48f2 A2120000 		.4byte	.LASF552
 15590 48f6 A2120000 		.4byte	.LASF552
 15591 48fa 14       		.byte	0x14
 15592 48fb 4B       		.byte	0x4b
 15593 48fc 52       		.uleb128 0x52
 15594 48fd 46090000 		.4byte	.LASF553
 15595 4901 46090000 		.4byte	.LASF553
 15596 4905 14       		.byte	0x14
ARM GAS  /var/folders/sv/kgmgr77579zbf78p2zlhkdfr0000gn/T//ccMuP6SP.s 			page 275


 15597 4906 42       		.byte	0x42
 15598 4907 52       		.uleb128 0x52
 15599 4908 6F0C0000 		.4byte	.LASF554
 15600 490c 6F0C0000 		.4byte	.LASF554
 15601 4910 14       		.byte	0x14
 15602 4911 43       		.byte	0x43
 15603 4912 52       		.uleb128 0x52
 15604 4913 E6110000 		.4byte	.LASF555
 15605 4917 E6110000 		.4byte	.LASF555
 15606 491b 14       		.byte	0x14
 15607 491c 44       		.byte	0x44
 15608 491d 52       		.uleb128 0x52
 15609 491e D8180000 		.4byte	.LASF556
 15610 4922 D8180000 		.4byte	.LASF556
 15611 4926 14       		.byte	0x14
 15612 4927 45       		.byte	0x45
 15613 4928 52       		.uleb128 0x52
 15614 4929 850D0000 		.4byte	.LASF557
 15615 492d 850D0000 		.4byte	.LASF557
 15616 4931 14       		.byte	0x14
 15617 4932 32       		.byte	0x32
 15618 4933 52       		.uleb128 0x52
 15619 4934 990C0000 		.4byte	.LASF558
 15620 4938 990C0000 		.4byte	.LASF558
 15621 493c 14       		.byte	0x14
 15622 493d 34       		.byte	0x34
 15623 493e 52       		.uleb128 0x52
 15624 493f FA220000 		.4byte	.LASF559
 15625 4943 FA220000 		.4byte	.LASF559
 15626 4947 14       		.byte	0x14
 15627 4948 35       		.byte	0x35
 15628 4949 52       		.uleb128 0x52
 15629 494a F7180000 		.4byte	.LASF560
 15630 494e F7180000 		.4byte	.LASF560
 15631 4952 14       		.byte	0x14
 15632 4953 36       		.byte	0x36
 15633 4954 52       		.uleb128 0x52
 15634 4955 15170000 		.4byte	.LASF561
 15635 4959 15170000 		.4byte	.LASF561
 15636 495d 14       		.byte	0x14
 15637 495e 37       		.byte	0x37
 15638 495f 52       		.uleb128 0x52
 15639 4960 95250000 		.4byte	.LASF562
 15640 4964 95250000 		.4byte	.LASF562
 15641 4968 14       		.byte	0x14
 15642 4969 38       		.byte	0x38
 15643 496a 52       		.uleb128 0x52
 15644 496b 5D170000 		.4byte	.LASF563
 15645 496f 5D170000 		.4byte	.LASF563
 15646 4973 14       		.byte	0x14
 15647 4974 3F       		.byte	0x3f
 15648 4975 52       		.uleb128 0x52
 15649 4976 A41A0000 		.4byte	.LASF564
 15650 497a A41A0000 		.4byte	.LASF564
 15651 497e 14       		.byte	0x14
 15652 497f 40       		.byte	0x40
 15653 4980 52       		.uleb128 0x52
ARM GAS  /var/folders/sv/kgmgr77579zbf78p2zlhkdfr0000gn/T//ccMuP6SP.s 			page 276


 15654 4981 C90E0000 		.4byte	.LASF565
 15655 4985 C90E0000 		.4byte	.LASF565
 15656 4989 14       		.byte	0x14
 15657 498a 22       		.byte	0x22
 15658 498b 52       		.uleb128 0x52
 15659 498c AC100000 		.4byte	.LASF566
 15660 4990 AC100000 		.4byte	.LASF566
 15661 4994 14       		.byte	0x14
 15662 4995 47       		.byte	0x47
 15663 4996 52       		.uleb128 0x52
 15664 4997 9F020000 		.4byte	.LASF567
 15665 499b 9F020000 		.4byte	.LASF567
 15666 499f 22       		.byte	0x22
 15667 49a0 1B       		.byte	0x1b
 15668 49a1 52       		.uleb128 0x52
 15669 49a2 2C1B0000 		.4byte	.LASF568
 15670 49a6 2C1B0000 		.4byte	.LASF568
 15671 49aa 22       		.byte	0x22
 15672 49ab 1A       		.byte	0x1a
 15673 49ac 52       		.uleb128 0x52
 15674 49ad B2160000 		.4byte	.LASF569
 15675 49b1 B2160000 		.4byte	.LASF569
 15676 49b5 22       		.byte	0x22
 15677 49b6 1C       		.byte	0x1c
 15678 49b7 52       		.uleb128 0x52
 15679 49b8 33130000 		.4byte	.LASF570
 15680 49bc 33130000 		.4byte	.LASF570
 15681 49c0 23       		.byte	0x23
 15682 49c1 1C       		.byte	0x1c
 15683 49c2 52       		.uleb128 0x52
 15684 49c3 38120000 		.4byte	.LASF571
 15685 49c7 38120000 		.4byte	.LASF571
 15686 49cb 17       		.byte	0x17
 15687 49cc 20       		.byte	0x20
 15688 49cd 52       		.uleb128 0x52
 15689 49ce B4090000 		.4byte	.LASF572
 15690 49d2 B4090000 		.4byte	.LASF572
 15691 49d6 1D       		.byte	0x1d
 15692 49d7 33       		.byte	0x33
 15693 49d8 52       		.uleb128 0x52
 15694 49d9 821A0000 		.4byte	.LASF573
 15695 49dd 821A0000 		.4byte	.LASF573
 15696 49e1 24       		.byte	0x24
 15697 49e2 22       		.byte	0x22
 15698 49e3 52       		.uleb128 0x52
 15699 49e4 9A1B0000 		.4byte	.LASF574
 15700 49e8 9A1B0000 		.4byte	.LASF574
 15701 49ec 14       		.byte	0x14
 15702 49ed 30       		.byte	0x30
 15703 49ee 00       		.byte	0
 15704              		.section	.debug_abbrev,"",%progbits
 15705              	.Ldebug_abbrev0:
 15706 0000 01       		.uleb128 0x1
 15707 0001 11       		.uleb128 0x11
 15708 0002 01       		.byte	0x1
 15709 0003 25       		.uleb128 0x25
 15710 0004 0E       		.uleb128 0xe
ARM GAS  /var/folders/sv/kgmgr77579zbf78p2zlhkdfr0000gn/T//ccMuP6SP.s 			page 277


 15711 0005 13       		.uleb128 0x13
 15712 0006 0B       		.uleb128 0xb
 15713 0007 03       		.uleb128 0x3
 15714 0008 0E       		.uleb128 0xe
 15715 0009 1B       		.uleb128 0x1b
 15716 000a 0E       		.uleb128 0xe
 15717 000b 55       		.uleb128 0x55
 15718 000c 17       		.uleb128 0x17
 15719 000d 11       		.uleb128 0x11
 15720 000e 01       		.uleb128 0x1
 15721 000f 10       		.uleb128 0x10
 15722 0010 17       		.uleb128 0x17
 15723 0011 00       		.byte	0
 15724 0012 00       		.byte	0
 15725 0013 02       		.uleb128 0x2
 15726 0014 24       		.uleb128 0x24
 15727 0015 00       		.byte	0
 15728 0016 0B       		.uleb128 0xb
 15729 0017 0B       		.uleb128 0xb
 15730 0018 3E       		.uleb128 0x3e
 15731 0019 0B       		.uleb128 0xb
 15732 001a 03       		.uleb128 0x3
 15733 001b 0E       		.uleb128 0xe
 15734 001c 00       		.byte	0
 15735 001d 00       		.byte	0
 15736 001e 03       		.uleb128 0x3
 15737 001f 24       		.uleb128 0x24
 15738 0020 00       		.byte	0
 15739 0021 0B       		.uleb128 0xb
 15740 0022 0B       		.uleb128 0xb
 15741 0023 3E       		.uleb128 0x3e
 15742 0024 0B       		.uleb128 0xb
 15743 0025 03       		.uleb128 0x3
 15744 0026 08       		.uleb128 0x8
 15745 0027 00       		.byte	0
 15746 0028 00       		.byte	0
 15747 0029 04       		.uleb128 0x4
 15748 002a 16       		.uleb128 0x16
 15749 002b 00       		.byte	0
 15750 002c 03       		.uleb128 0x3
 15751 002d 0E       		.uleb128 0xe
 15752 002e 3A       		.uleb128 0x3a
 15753 002f 0B       		.uleb128 0xb
 15754 0030 3B       		.uleb128 0x3b
 15755 0031 0B       		.uleb128 0xb
 15756 0032 49       		.uleb128 0x49
 15757 0033 13       		.uleb128 0x13
 15758 0034 00       		.byte	0
 15759 0035 00       		.byte	0
 15760 0036 05       		.uleb128 0x5
 15761 0037 35       		.uleb128 0x35
 15762 0038 00       		.byte	0
 15763 0039 49       		.uleb128 0x49
 15764 003a 13       		.uleb128 0x13
 15765 003b 00       		.byte	0
 15766 003c 00       		.byte	0
 15767 003d 06       		.uleb128 0x6
ARM GAS  /var/folders/sv/kgmgr77579zbf78p2zlhkdfr0000gn/T//ccMuP6SP.s 			page 278


 15768 003e 13       		.uleb128 0x13
 15769 003f 01       		.byte	0x1
 15770 0040 03       		.uleb128 0x3
 15771 0041 0E       		.uleb128 0xe
 15772 0042 0B       		.uleb128 0xb
 15773 0043 0B       		.uleb128 0xb
 15774 0044 3A       		.uleb128 0x3a
 15775 0045 0B       		.uleb128 0xb
 15776 0046 3B       		.uleb128 0x3b
 15777 0047 0B       		.uleb128 0xb
 15778 0048 01       		.uleb128 0x1
 15779 0049 13       		.uleb128 0x13
 15780 004a 00       		.byte	0
 15781 004b 00       		.byte	0
 15782 004c 07       		.uleb128 0x7
 15783 004d 0D       		.uleb128 0xd
 15784 004e 00       		.byte	0
 15785 004f 03       		.uleb128 0x3
 15786 0050 0E       		.uleb128 0xe
 15787 0051 3A       		.uleb128 0x3a
 15788 0052 0B       		.uleb128 0xb
 15789 0053 3B       		.uleb128 0x3b
 15790 0054 0B       		.uleb128 0xb
 15791 0055 49       		.uleb128 0x49
 15792 0056 13       		.uleb128 0x13
 15793 0057 38       		.uleb128 0x38
 15794 0058 0B       		.uleb128 0xb
 15795 0059 00       		.byte	0
 15796 005a 00       		.byte	0
 15797 005b 08       		.uleb128 0x8
 15798 005c 0D       		.uleb128 0xd
 15799 005d 00       		.byte	0
 15800 005e 03       		.uleb128 0x3
 15801 005f 08       		.uleb128 0x8
 15802 0060 3A       		.uleb128 0x3a
 15803 0061 0B       		.uleb128 0xb
 15804 0062 3B       		.uleb128 0x3b
 15805 0063 05       		.uleb128 0x5
 15806 0064 49       		.uleb128 0x49
 15807 0065 13       		.uleb128 0x13
 15808 0066 38       		.uleb128 0x38
 15809 0067 0B       		.uleb128 0xb
 15810 0068 00       		.byte	0
 15811 0069 00       		.byte	0
 15812 006a 09       		.uleb128 0x9
 15813 006b 0D       		.uleb128 0xd
 15814 006c 00       		.byte	0
 15815 006d 03       		.uleb128 0x3
 15816 006e 0E       		.uleb128 0xe
 15817 006f 3A       		.uleb128 0x3a
 15818 0070 0B       		.uleb128 0xb
 15819 0071 3B       		.uleb128 0x3b
 15820 0072 05       		.uleb128 0x5
 15821 0073 49       		.uleb128 0x49
 15822 0074 13       		.uleb128 0x13
 15823 0075 38       		.uleb128 0x38
 15824 0076 0B       		.uleb128 0xb
ARM GAS  /var/folders/sv/kgmgr77579zbf78p2zlhkdfr0000gn/T//ccMuP6SP.s 			page 279


 15825 0077 00       		.byte	0
 15826 0078 00       		.byte	0
 15827 0079 0A       		.uleb128 0xa
 15828 007a 0F       		.uleb128 0xf
 15829 007b 00       		.byte	0
 15830 007c 0B       		.uleb128 0xb
 15831 007d 0B       		.uleb128 0xb
 15832 007e 49       		.uleb128 0x49
 15833 007f 13       		.uleb128 0x13
 15834 0080 00       		.byte	0
 15835 0081 00       		.byte	0
 15836 0082 0B       		.uleb128 0xb
 15837 0083 13       		.uleb128 0x13
 15838 0084 01       		.byte	0x1
 15839 0085 03       		.uleb128 0x3
 15840 0086 0E       		.uleb128 0xe
 15841 0087 0B       		.uleb128 0xb
 15842 0088 0B       		.uleb128 0xb
 15843 0089 3A       		.uleb128 0x3a
 15844 008a 0B       		.uleb128 0xb
 15845 008b 3B       		.uleb128 0x3b
 15846 008c 05       		.uleb128 0x5
 15847 008d 01       		.uleb128 0x1
 15848 008e 13       		.uleb128 0x13
 15849 008f 00       		.byte	0
 15850 0090 00       		.byte	0
 15851 0091 0C       		.uleb128 0xc
 15852 0092 15       		.uleb128 0x15
 15853 0093 01       		.byte	0x1
 15854 0094 27       		.uleb128 0x27
 15855 0095 19       		.uleb128 0x19
 15856 0096 01       		.uleb128 0x1
 15857 0097 13       		.uleb128 0x13
 15858 0098 00       		.byte	0
 15859 0099 00       		.byte	0
 15860 009a 0D       		.uleb128 0xd
 15861 009b 05       		.uleb128 0x5
 15862 009c 00       		.byte	0
 15863 009d 49       		.uleb128 0x49
 15864 009e 13       		.uleb128 0x13
 15865 009f 00       		.byte	0
 15866 00a0 00       		.byte	0
 15867 00a1 0E       		.uleb128 0xe
 15868 00a2 0F       		.uleb128 0xf
 15869 00a3 00       		.byte	0
 15870 00a4 0B       		.uleb128 0xb
 15871 00a5 0B       		.uleb128 0xb
 15872 00a6 00       		.byte	0
 15873 00a7 00       		.byte	0
 15874 00a8 0F       		.uleb128 0xf
 15875 00a9 13       		.uleb128 0x13
 15876 00aa 01       		.byte	0x1
 15877 00ab 03       		.uleb128 0x3
 15878 00ac 0E       		.uleb128 0xe
 15879 00ad 0B       		.uleb128 0xb
 15880 00ae 05       		.uleb128 0x5
 15881 00af 3A       		.uleb128 0x3a
ARM GAS  /var/folders/sv/kgmgr77579zbf78p2zlhkdfr0000gn/T//ccMuP6SP.s 			page 280


 15882 00b0 0B       		.uleb128 0xb
 15883 00b1 3B       		.uleb128 0x3b
 15884 00b2 05       		.uleb128 0x5
 15885 00b3 01       		.uleb128 0x1
 15886 00b4 13       		.uleb128 0x13
 15887 00b5 00       		.byte	0
 15888 00b6 00       		.byte	0
 15889 00b7 10       		.uleb128 0x10
 15890 00b8 0D       		.uleb128 0xd
 15891 00b9 00       		.byte	0
 15892 00ba 03       		.uleb128 0x3
 15893 00bb 08       		.uleb128 0x8
 15894 00bc 3A       		.uleb128 0x3a
 15895 00bd 0B       		.uleb128 0xb
 15896 00be 3B       		.uleb128 0x3b
 15897 00bf 0B       		.uleb128 0xb
 15898 00c0 49       		.uleb128 0x49
 15899 00c1 13       		.uleb128 0x13
 15900 00c2 38       		.uleb128 0x38
 15901 00c3 0B       		.uleb128 0xb
 15902 00c4 00       		.byte	0
 15903 00c5 00       		.byte	0
 15904 00c6 11       		.uleb128 0x11
 15905 00c7 13       		.uleb128 0x13
 15906 00c8 01       		.byte	0x1
 15907 00c9 0B       		.uleb128 0xb
 15908 00ca 0B       		.uleb128 0xb
 15909 00cb 3A       		.uleb128 0x3a
 15910 00cc 0B       		.uleb128 0xb
 15911 00cd 3B       		.uleb128 0x3b
 15912 00ce 0B       		.uleb128 0xb
 15913 00cf 01       		.uleb128 0x1
 15914 00d0 13       		.uleb128 0x13
 15915 00d1 00       		.byte	0
 15916 00d2 00       		.byte	0
 15917 00d3 12       		.uleb128 0x12
 15918 00d4 17       		.uleb128 0x17
 15919 00d5 01       		.byte	0x1
 15920 00d6 0B       		.uleb128 0xb
 15921 00d7 0B       		.uleb128 0xb
 15922 00d8 3A       		.uleb128 0x3a
 15923 00d9 0B       		.uleb128 0xb
 15924 00da 3B       		.uleb128 0x3b
 15925 00db 0B       		.uleb128 0xb
 15926 00dc 01       		.uleb128 0x1
 15927 00dd 13       		.uleb128 0x13
 15928 00de 00       		.byte	0
 15929 00df 00       		.byte	0
 15930 00e0 13       		.uleb128 0x13
 15931 00e1 0D       		.uleb128 0xd
 15932 00e2 00       		.byte	0
 15933 00e3 03       		.uleb128 0x3
 15934 00e4 0E       		.uleb128 0xe
 15935 00e5 3A       		.uleb128 0x3a
 15936 00e6 0B       		.uleb128 0xb
 15937 00e7 3B       		.uleb128 0x3b
 15938 00e8 05       		.uleb128 0x5
ARM GAS  /var/folders/sv/kgmgr77579zbf78p2zlhkdfr0000gn/T//ccMuP6SP.s 			page 281


 15939 00e9 49       		.uleb128 0x49
 15940 00ea 13       		.uleb128 0x13
 15941 00eb 00       		.byte	0
 15942 00ec 00       		.byte	0
 15943 00ed 14       		.uleb128 0x14
 15944 00ee 26       		.uleb128 0x26
 15945 00ef 00       		.byte	0
 15946 00f0 49       		.uleb128 0x49
 15947 00f1 13       		.uleb128 0x13
 15948 00f2 00       		.byte	0
 15949 00f3 00       		.byte	0
 15950 00f4 15       		.uleb128 0x15
 15951 00f5 01       		.uleb128 0x1
 15952 00f6 01       		.byte	0x1
 15953 00f7 49       		.uleb128 0x49
 15954 00f8 13       		.uleb128 0x13
 15955 00f9 01       		.uleb128 0x1
 15956 00fa 13       		.uleb128 0x13
 15957 00fb 00       		.byte	0
 15958 00fc 00       		.byte	0
 15959 00fd 16       		.uleb128 0x16
 15960 00fe 21       		.uleb128 0x21
 15961 00ff 00       		.byte	0
 15962 0100 49       		.uleb128 0x49
 15963 0101 13       		.uleb128 0x13
 15964 0102 2F       		.uleb128 0x2f
 15965 0103 0B       		.uleb128 0xb
 15966 0104 00       		.byte	0
 15967 0105 00       		.byte	0
 15968 0106 17       		.uleb128 0x17
 15969 0107 04       		.uleb128 0x4
 15970 0108 01       		.byte	0x1
 15971 0109 0B       		.uleb128 0xb
 15972 010a 0B       		.uleb128 0xb
 15973 010b 49       		.uleb128 0x49
 15974 010c 13       		.uleb128 0x13
 15975 010d 3A       		.uleb128 0x3a
 15976 010e 0B       		.uleb128 0xb
 15977 010f 3B       		.uleb128 0x3b
 15978 0110 0B       		.uleb128 0xb
 15979 0111 01       		.uleb128 0x1
 15980 0112 13       		.uleb128 0x13
 15981 0113 00       		.byte	0
 15982 0114 00       		.byte	0
 15983 0115 18       		.uleb128 0x18
 15984 0116 28       		.uleb128 0x28
 15985 0117 00       		.byte	0
 15986 0118 03       		.uleb128 0x3
 15987 0119 0E       		.uleb128 0xe
 15988 011a 1C       		.uleb128 0x1c
 15989 011b 0B       		.uleb128 0xb
 15990 011c 00       		.byte	0
 15991 011d 00       		.byte	0
 15992 011e 19       		.uleb128 0x19
 15993 011f 13       		.uleb128 0x13
 15994 0120 01       		.byte	0x1
 15995 0121 0B       		.uleb128 0xb
ARM GAS  /var/folders/sv/kgmgr77579zbf78p2zlhkdfr0000gn/T//ccMuP6SP.s 			page 282


 15996 0122 05       		.uleb128 0x5
 15997 0123 3A       		.uleb128 0x3a
 15998 0124 0B       		.uleb128 0xb
 15999 0125 3B       		.uleb128 0x3b
 16000 0126 0B       		.uleb128 0xb
 16001 0127 01       		.uleb128 0x1
 16002 0128 13       		.uleb128 0x13
 16003 0129 00       		.byte	0
 16004 012a 00       		.byte	0
 16005 012b 1A       		.uleb128 0x1a
 16006 012c 0D       		.uleb128 0xd
 16007 012d 00       		.byte	0
 16008 012e 03       		.uleb128 0x3
 16009 012f 0E       		.uleb128 0xe
 16010 0130 3A       		.uleb128 0x3a
 16011 0131 0B       		.uleb128 0xb
 16012 0132 3B       		.uleb128 0x3b
 16013 0133 0B       		.uleb128 0xb
 16014 0134 49       		.uleb128 0x49
 16015 0135 13       		.uleb128 0x13
 16016 0136 38       		.uleb128 0x38
 16017 0137 05       		.uleb128 0x5
 16018 0138 00       		.byte	0
 16019 0139 00       		.byte	0
 16020 013a 1B       		.uleb128 0x1b
 16021 013b 16       		.uleb128 0x16
 16022 013c 00       		.byte	0
 16023 013d 03       		.uleb128 0x3
 16024 013e 0E       		.uleb128 0xe
 16025 013f 3A       		.uleb128 0x3a
 16026 0140 0B       		.uleb128 0xb
 16027 0141 3B       		.uleb128 0x3b
 16028 0142 05       		.uleb128 0x5
 16029 0143 49       		.uleb128 0x49
 16030 0144 13       		.uleb128 0x13
 16031 0145 00       		.byte	0
 16032 0146 00       		.byte	0
 16033 0147 1C       		.uleb128 0x1c
 16034 0148 04       		.uleb128 0x4
 16035 0149 01       		.byte	0x1
 16036 014a 0B       		.uleb128 0xb
 16037 014b 0B       		.uleb128 0xb
 16038 014c 49       		.uleb128 0x49
 16039 014d 13       		.uleb128 0x13
 16040 014e 3A       		.uleb128 0x3a
 16041 014f 0B       		.uleb128 0xb
 16042 0150 3B       		.uleb128 0x3b
 16043 0151 05       		.uleb128 0x5
 16044 0152 01       		.uleb128 0x1
 16045 0153 13       		.uleb128 0x13
 16046 0154 00       		.byte	0
 16047 0155 00       		.byte	0
 16048 0156 1D       		.uleb128 0x1d
 16049 0157 13       		.uleb128 0x13
 16050 0158 01       		.byte	0x1
 16051 0159 0B       		.uleb128 0xb
 16052 015a 0B       		.uleb128 0xb
ARM GAS  /var/folders/sv/kgmgr77579zbf78p2zlhkdfr0000gn/T//ccMuP6SP.s 			page 283


 16053 015b 3A       		.uleb128 0x3a
 16054 015c 0B       		.uleb128 0xb
 16055 015d 3B       		.uleb128 0x3b
 16056 015e 05       		.uleb128 0x5
 16057 015f 01       		.uleb128 0x1
 16058 0160 13       		.uleb128 0x13
 16059 0161 00       		.byte	0
 16060 0162 00       		.byte	0
 16061 0163 1E       		.uleb128 0x1e
 16062 0164 0D       		.uleb128 0xd
 16063 0165 00       		.byte	0
 16064 0166 03       		.uleb128 0x3
 16065 0167 0E       		.uleb128 0xe
 16066 0168 49       		.uleb128 0x49
 16067 0169 13       		.uleb128 0x13
 16068 016a 38       		.uleb128 0x38
 16069 016b 0B       		.uleb128 0xb
 16070 016c 34       		.uleb128 0x34
 16071 016d 19       		.uleb128 0x19
 16072 016e 00       		.byte	0
 16073 016f 00       		.byte	0
 16074 0170 1F       		.uleb128 0x1f
 16075 0171 2E       		.uleb128 0x2e
 16076 0172 00       		.byte	0
 16077 0173 03       		.uleb128 0x3
 16078 0174 0E       		.uleb128 0xe
 16079 0175 3A       		.uleb128 0x3a
 16080 0176 0B       		.uleb128 0xb
 16081 0177 3B       		.uleb128 0x3b
 16082 0178 0B       		.uleb128 0xb
 16083 0179 27       		.uleb128 0x27
 16084 017a 19       		.uleb128 0x19
 16085 017b 49       		.uleb128 0x49
 16086 017c 13       		.uleb128 0x13
 16087 017d 20       		.uleb128 0x20
 16088 017e 0B       		.uleb128 0xb
 16089 017f 00       		.byte	0
 16090 0180 00       		.byte	0
 16091 0181 20       		.uleb128 0x20
 16092 0182 2E       		.uleb128 0x2e
 16093 0183 01       		.byte	0x1
 16094 0184 03       		.uleb128 0x3
 16095 0185 0E       		.uleb128 0xe
 16096 0186 3A       		.uleb128 0x3a
 16097 0187 0B       		.uleb128 0xb
 16098 0188 3B       		.uleb128 0x3b
 16099 0189 0B       		.uleb128 0xb
 16100 018a 27       		.uleb128 0x27
 16101 018b 19       		.uleb128 0x19
 16102 018c 20       		.uleb128 0x20
 16103 018d 0B       		.uleb128 0xb
 16104 018e 01       		.uleb128 0x1
 16105 018f 13       		.uleb128 0x13
 16106 0190 00       		.byte	0
 16107 0191 00       		.byte	0
 16108 0192 21       		.uleb128 0x21
 16109 0193 05       		.uleb128 0x5
ARM GAS  /var/folders/sv/kgmgr77579zbf78p2zlhkdfr0000gn/T//ccMuP6SP.s 			page 284


 16110 0194 00       		.byte	0
 16111 0195 03       		.uleb128 0x3
 16112 0196 0E       		.uleb128 0xe
 16113 0197 3A       		.uleb128 0x3a
 16114 0198 0B       		.uleb128 0xb
 16115 0199 3B       		.uleb128 0x3b
 16116 019a 0B       		.uleb128 0xb
 16117 019b 49       		.uleb128 0x49
 16118 019c 13       		.uleb128 0x13
 16119 019d 00       		.byte	0
 16120 019e 00       		.byte	0
 16121 019f 22       		.uleb128 0x22
 16122 01a0 2E       		.uleb128 0x2e
 16123 01a1 01       		.byte	0x1
 16124 01a2 3F       		.uleb128 0x3f
 16125 01a3 19       		.uleb128 0x19
 16126 01a4 03       		.uleb128 0x3
 16127 01a5 0E       		.uleb128 0xe
 16128 01a6 3A       		.uleb128 0x3a
 16129 01a7 0B       		.uleb128 0xb
 16130 01a8 3B       		.uleb128 0x3b
 16131 01a9 0B       		.uleb128 0xb
 16132 01aa 27       		.uleb128 0x27
 16133 01ab 19       		.uleb128 0x19
 16134 01ac 20       		.uleb128 0x20
 16135 01ad 0B       		.uleb128 0xb
 16136 01ae 01       		.uleb128 0x1
 16137 01af 13       		.uleb128 0x13
 16138 01b0 00       		.byte	0
 16139 01b1 00       		.byte	0
 16140 01b2 23       		.uleb128 0x23
 16141 01b3 05       		.uleb128 0x5
 16142 01b4 00       		.byte	0
 16143 01b5 03       		.uleb128 0x3
 16144 01b6 08       		.uleb128 0x8
 16145 01b7 3A       		.uleb128 0x3a
 16146 01b8 0B       		.uleb128 0xb
 16147 01b9 3B       		.uleb128 0x3b
 16148 01ba 0B       		.uleb128 0xb
 16149 01bb 49       		.uleb128 0x49
 16150 01bc 13       		.uleb128 0x13
 16151 01bd 00       		.byte	0
 16152 01be 00       		.byte	0
 16153 01bf 24       		.uleb128 0x24
 16154 01c0 2E       		.uleb128 0x2e
 16155 01c1 00       		.byte	0
 16156 01c2 03       		.uleb128 0x3
 16157 01c3 0E       		.uleb128 0xe
 16158 01c4 3A       		.uleb128 0x3a
 16159 01c5 0B       		.uleb128 0xb
 16160 01c6 3B       		.uleb128 0x3b
 16161 01c7 05       		.uleb128 0x5
 16162 01c8 27       		.uleb128 0x27
 16163 01c9 19       		.uleb128 0x19
 16164 01ca 20       		.uleb128 0x20
 16165 01cb 0B       		.uleb128 0xb
 16166 01cc 00       		.byte	0
ARM GAS  /var/folders/sv/kgmgr77579zbf78p2zlhkdfr0000gn/T//ccMuP6SP.s 			page 285


 16167 01cd 00       		.byte	0
 16168 01ce 25       		.uleb128 0x25
 16169 01cf 2E       		.uleb128 0x2e
 16170 01d0 01       		.byte	0x1
 16171 01d1 03       		.uleb128 0x3
 16172 01d2 0E       		.uleb128 0xe
 16173 01d3 3A       		.uleb128 0x3a
 16174 01d4 0B       		.uleb128 0xb
 16175 01d5 3B       		.uleb128 0x3b
 16176 01d6 05       		.uleb128 0x5
 16177 01d7 27       		.uleb128 0x27
 16178 01d8 19       		.uleb128 0x19
 16179 01d9 8701     		.uleb128 0x87
 16180 01db 19       		.uleb128 0x19
 16181 01dc 11       		.uleb128 0x11
 16182 01dd 01       		.uleb128 0x1
 16183 01de 12       		.uleb128 0x12
 16184 01df 06       		.uleb128 0x6
 16185 01e0 40       		.uleb128 0x40
 16186 01e1 18       		.uleb128 0x18
 16187 01e2 9742     		.uleb128 0x2117
 16188 01e4 19       		.uleb128 0x19
 16189 01e5 01       		.uleb128 0x1
 16190 01e6 13       		.uleb128 0x13
 16191 01e7 00       		.byte	0
 16192 01e8 00       		.byte	0
 16193 01e9 26       		.uleb128 0x26
 16194 01ea 05       		.uleb128 0x5
 16195 01eb 00       		.byte	0
 16196 01ec 03       		.uleb128 0x3
 16197 01ed 08       		.uleb128 0x8
 16198 01ee 3A       		.uleb128 0x3a
 16199 01ef 0B       		.uleb128 0xb
 16200 01f0 3B       		.uleb128 0x3b
 16201 01f1 05       		.uleb128 0x5
 16202 01f2 49       		.uleb128 0x49
 16203 01f3 13       		.uleb128 0x13
 16204 01f4 02       		.uleb128 0x2
 16205 01f5 17       		.uleb128 0x17
 16206 01f6 00       		.byte	0
 16207 01f7 00       		.byte	0
 16208 01f8 27       		.uleb128 0x27
 16209 01f9 1D       		.uleb128 0x1d
 16210 01fa 01       		.byte	0x1
 16211 01fb 31       		.uleb128 0x31
 16212 01fc 13       		.uleb128 0x13
 16213 01fd 52       		.uleb128 0x52
 16214 01fe 01       		.uleb128 0x1
 16215 01ff 55       		.uleb128 0x55
 16216 0200 17       		.uleb128 0x17
 16217 0201 58       		.uleb128 0x58
 16218 0202 0B       		.uleb128 0xb
 16219 0203 59       		.uleb128 0x59
 16220 0204 05       		.uleb128 0x5
 16221 0205 01       		.uleb128 0x1
 16222 0206 13       		.uleb128 0x13
 16223 0207 00       		.byte	0
ARM GAS  /var/folders/sv/kgmgr77579zbf78p2zlhkdfr0000gn/T//ccMuP6SP.s 			page 286


 16224 0208 00       		.byte	0
 16225 0209 28       		.uleb128 0x28
 16226 020a 05       		.uleb128 0x5
 16227 020b 00       		.byte	0
 16228 020c 31       		.uleb128 0x31
 16229 020d 13       		.uleb128 0x13
 16230 020e 02       		.uleb128 0x2
 16231 020f 17       		.uleb128 0x17
 16232 0210 00       		.byte	0
 16233 0211 00       		.byte	0
 16234 0212 29       		.uleb128 0x29
 16235 0213 0B       		.uleb128 0xb
 16236 0214 01       		.byte	0x1
 16237 0215 55       		.uleb128 0x55
 16238 0216 17       		.uleb128 0x17
 16239 0217 00       		.byte	0
 16240 0218 00       		.byte	0
 16241 0219 2A       		.uleb128 0x2a
 16242 021a 34       		.uleb128 0x34
 16243 021b 00       		.byte	0
 16244 021c 03       		.uleb128 0x3
 16245 021d 08       		.uleb128 0x8
 16246 021e 3A       		.uleb128 0x3a
 16247 021f 0B       		.uleb128 0xb
 16248 0220 3B       		.uleb128 0x3b
 16249 0221 05       		.uleb128 0x5
 16250 0222 49       		.uleb128 0x49
 16251 0223 13       		.uleb128 0x13
 16252 0224 02       		.uleb128 0x2
 16253 0225 18       		.uleb128 0x18
 16254 0226 00       		.byte	0
 16255 0227 00       		.byte	0
 16256 0228 2B       		.uleb128 0x2b
 16257 0229 1D       		.uleb128 0x1d
 16258 022a 01       		.byte	0x1
 16259 022b 31       		.uleb128 0x31
 16260 022c 13       		.uleb128 0x13
 16261 022d 11       		.uleb128 0x11
 16262 022e 01       		.uleb128 0x1
 16263 022f 12       		.uleb128 0x12
 16264 0230 06       		.uleb128 0x6
 16265 0231 58       		.uleb128 0x58
 16266 0232 0B       		.uleb128 0xb
 16267 0233 59       		.uleb128 0x59
 16268 0234 05       		.uleb128 0x5
 16269 0235 01       		.uleb128 0x1
 16270 0236 13       		.uleb128 0x13
 16271 0237 00       		.byte	0
 16272 0238 00       		.byte	0
 16273 0239 2C       		.uleb128 0x2c
 16274 023a 05       		.uleb128 0x5
 16275 023b 00       		.byte	0
 16276 023c 31       		.uleb128 0x31
 16277 023d 13       		.uleb128 0x13
 16278 023e 02       		.uleb128 0x2
 16279 023f 18       		.uleb128 0x18
 16280 0240 00       		.byte	0
ARM GAS  /var/folders/sv/kgmgr77579zbf78p2zlhkdfr0000gn/T//ccMuP6SP.s 			page 287


 16281 0241 00       		.byte	0
 16282 0242 2D       		.uleb128 0x2d
 16283 0243 898201   		.uleb128 0x4109
 16284 0246 01       		.byte	0x1
 16285 0247 11       		.uleb128 0x11
 16286 0248 01       		.uleb128 0x1
 16287 0249 00       		.byte	0
 16288 024a 00       		.byte	0
 16289 024b 2E       		.uleb128 0x2e
 16290 024c 8A8201   		.uleb128 0x410a
 16291 024f 00       		.byte	0
 16292 0250 02       		.uleb128 0x2
 16293 0251 18       		.uleb128 0x18
 16294 0252 9142     		.uleb128 0x2111
 16295 0254 18       		.uleb128 0x18
 16296 0255 00       		.byte	0
 16297 0256 00       		.byte	0
 16298 0257 2F       		.uleb128 0x2f
 16299 0258 898201   		.uleb128 0x4109
 16300 025b 01       		.byte	0x1
 16301 025c 11       		.uleb128 0x11
 16302 025d 01       		.uleb128 0x1
 16303 025e 31       		.uleb128 0x31
 16304 025f 13       		.uleb128 0x13
 16305 0260 01       		.uleb128 0x1
 16306 0261 13       		.uleb128 0x13
 16307 0262 00       		.byte	0
 16308 0263 00       		.byte	0
 16309 0264 30       		.uleb128 0x30
 16310 0265 898201   		.uleb128 0x4109
 16311 0268 01       		.byte	0x1
 16312 0269 11       		.uleb128 0x11
 16313 026a 01       		.uleb128 0x1
 16314 026b 9342     		.uleb128 0x2113
 16315 026d 18       		.uleb128 0x18
 16316 026e 00       		.byte	0
 16317 026f 00       		.byte	0
 16318 0270 31       		.uleb128 0x31
 16319 0271 2E       		.uleb128 0x2e
 16320 0272 01       		.byte	0x1
 16321 0273 3F       		.uleb128 0x3f
 16322 0274 19       		.uleb128 0x19
 16323 0275 03       		.uleb128 0x3
 16324 0276 0E       		.uleb128 0xe
 16325 0277 3A       		.uleb128 0x3a
 16326 0278 0B       		.uleb128 0xb
 16327 0279 3B       		.uleb128 0x3b
 16328 027a 0B       		.uleb128 0xb
 16329 027b 27       		.uleb128 0x27
 16330 027c 19       		.uleb128 0x19
 16331 027d 11       		.uleb128 0x11
 16332 027e 01       		.uleb128 0x1
 16333 027f 12       		.uleb128 0x12
 16334 0280 06       		.uleb128 0x6
 16335 0281 40       		.uleb128 0x40
 16336 0282 18       		.uleb128 0x18
 16337 0283 9742     		.uleb128 0x2117
ARM GAS  /var/folders/sv/kgmgr77579zbf78p2zlhkdfr0000gn/T//ccMuP6SP.s 			page 288


 16338 0285 19       		.uleb128 0x19
 16339 0286 01       		.uleb128 0x1
 16340 0287 13       		.uleb128 0x13
 16341 0288 00       		.byte	0
 16342 0289 00       		.byte	0
 16343 028a 32       		.uleb128 0x32
 16344 028b 898201   		.uleb128 0x4109
 16345 028e 01       		.byte	0x1
 16346 028f 11       		.uleb128 0x11
 16347 0290 01       		.uleb128 0x1
 16348 0291 31       		.uleb128 0x31
 16349 0292 13       		.uleb128 0x13
 16350 0293 00       		.byte	0
 16351 0294 00       		.byte	0
 16352 0295 33       		.uleb128 0x33
 16353 0296 05       		.uleb128 0x5
 16354 0297 00       		.byte	0
 16355 0298 03       		.uleb128 0x3
 16356 0299 0E       		.uleb128 0xe
 16357 029a 3A       		.uleb128 0x3a
 16358 029b 0B       		.uleb128 0xb
 16359 029c 3B       		.uleb128 0x3b
 16360 029d 0B       		.uleb128 0xb
 16361 029e 49       		.uleb128 0x49
 16362 029f 13       		.uleb128 0x13
 16363 02a0 02       		.uleb128 0x2
 16364 02a1 18       		.uleb128 0x18
 16365 02a2 00       		.byte	0
 16366 02a3 00       		.byte	0
 16367 02a4 34       		.uleb128 0x34
 16368 02a5 2E       		.uleb128 0x2e
 16369 02a6 01       		.byte	0x1
 16370 02a7 31       		.uleb128 0x31
 16371 02a8 13       		.uleb128 0x13
 16372 02a9 11       		.uleb128 0x11
 16373 02aa 01       		.uleb128 0x1
 16374 02ab 12       		.uleb128 0x12
 16375 02ac 06       		.uleb128 0x6
 16376 02ad 40       		.uleb128 0x40
 16377 02ae 18       		.uleb128 0x18
 16378 02af 9742     		.uleb128 0x2117
 16379 02b1 19       		.uleb128 0x19
 16380 02b2 01       		.uleb128 0x1
 16381 02b3 13       		.uleb128 0x13
 16382 02b4 00       		.byte	0
 16383 02b5 00       		.byte	0
 16384 02b6 35       		.uleb128 0x35
 16385 02b7 898201   		.uleb128 0x4109
 16386 02ba 01       		.byte	0x1
 16387 02bb 11       		.uleb128 0x11
 16388 02bc 01       		.uleb128 0x1
 16389 02bd 9542     		.uleb128 0x2115
 16390 02bf 19       		.uleb128 0x19
 16391 02c0 00       		.byte	0
 16392 02c1 00       		.byte	0
 16393 02c2 36       		.uleb128 0x36
 16394 02c3 2E       		.uleb128 0x2e
ARM GAS  /var/folders/sv/kgmgr77579zbf78p2zlhkdfr0000gn/T//ccMuP6SP.s 			page 289


 16395 02c4 01       		.byte	0x1
 16396 02c5 3F       		.uleb128 0x3f
 16397 02c6 19       		.uleb128 0x19
 16398 02c7 03       		.uleb128 0x3
 16399 02c8 0E       		.uleb128 0xe
 16400 02c9 3A       		.uleb128 0x3a
 16401 02ca 0B       		.uleb128 0xb
 16402 02cb 3B       		.uleb128 0x3b
 16403 02cc 05       		.uleb128 0x5
 16404 02cd 27       		.uleb128 0x27
 16405 02ce 19       		.uleb128 0x19
 16406 02cf 11       		.uleb128 0x11
 16407 02d0 01       		.uleb128 0x1
 16408 02d1 12       		.uleb128 0x12
 16409 02d2 06       		.uleb128 0x6
 16410 02d3 40       		.uleb128 0x40
 16411 02d4 18       		.uleb128 0x18
 16412 02d5 9742     		.uleb128 0x2117
 16413 02d7 19       		.uleb128 0x19
 16414 02d8 01       		.uleb128 0x1
 16415 02d9 13       		.uleb128 0x13
 16416 02da 00       		.byte	0
 16417 02db 00       		.byte	0
 16418 02dc 37       		.uleb128 0x37
 16419 02dd 05       		.uleb128 0x5
 16420 02de 00       		.byte	0
 16421 02df 03       		.uleb128 0x3
 16422 02e0 0E       		.uleb128 0xe
 16423 02e1 3A       		.uleb128 0x3a
 16424 02e2 0B       		.uleb128 0xb
 16425 02e3 3B       		.uleb128 0x3b
 16426 02e4 05       		.uleb128 0x5
 16427 02e5 49       		.uleb128 0x49
 16428 02e6 13       		.uleb128 0x13
 16429 02e7 02       		.uleb128 0x2
 16430 02e8 18       		.uleb128 0x18
 16431 02e9 00       		.byte	0
 16432 02ea 00       		.byte	0
 16433 02eb 38       		.uleb128 0x38
 16434 02ec 18       		.uleb128 0x18
 16435 02ed 00       		.byte	0
 16436 02ee 00       		.byte	0
 16437 02ef 00       		.byte	0
 16438 02f0 39       		.uleb128 0x39
 16439 02f1 34       		.uleb128 0x34
 16440 02f2 00       		.byte	0
 16441 02f3 03       		.uleb128 0x3
 16442 02f4 08       		.uleb128 0x8
 16443 02f5 3A       		.uleb128 0x3a
 16444 02f6 0B       		.uleb128 0xb
 16445 02f7 3B       		.uleb128 0x3b
 16446 02f8 05       		.uleb128 0x5
 16447 02f9 49       		.uleb128 0x49
 16448 02fa 13       		.uleb128 0x13
 16449 02fb 02       		.uleb128 0x2
 16450 02fc 17       		.uleb128 0x17
 16451 02fd 00       		.byte	0
ARM GAS  /var/folders/sv/kgmgr77579zbf78p2zlhkdfr0000gn/T//ccMuP6SP.s 			page 290


 16452 02fe 00       		.byte	0
 16453 02ff 3A       		.uleb128 0x3a
 16454 0300 34       		.uleb128 0x34
 16455 0301 00       		.byte	0
 16456 0302 03       		.uleb128 0x3
 16457 0303 0E       		.uleb128 0xe
 16458 0304 3A       		.uleb128 0x3a
 16459 0305 0B       		.uleb128 0xb
 16460 0306 3B       		.uleb128 0x3b
 16461 0307 05       		.uleb128 0x5
 16462 0308 49       		.uleb128 0x49
 16463 0309 13       		.uleb128 0x13
 16464 030a 02       		.uleb128 0x2
 16465 030b 18       		.uleb128 0x18
 16466 030c 00       		.byte	0
 16467 030d 00       		.byte	0
 16468 030e 3B       		.uleb128 0x3b
 16469 030f 05       		.uleb128 0x5
 16470 0310 00       		.byte	0
 16471 0311 03       		.uleb128 0x3
 16472 0312 0E       		.uleb128 0xe
 16473 0313 3A       		.uleb128 0x3a
 16474 0314 0B       		.uleb128 0xb
 16475 0315 3B       		.uleb128 0x3b
 16476 0316 05       		.uleb128 0x5
 16477 0317 49       		.uleb128 0x49
 16478 0318 13       		.uleb128 0x13
 16479 0319 02       		.uleb128 0x2
 16480 031a 17       		.uleb128 0x17
 16481 031b 00       		.byte	0
 16482 031c 00       		.byte	0
 16483 031d 3C       		.uleb128 0x3c
 16484 031e 34       		.uleb128 0x34
 16485 031f 00       		.byte	0
 16486 0320 34       		.uleb128 0x34
 16487 0321 19       		.uleb128 0x19
 16488 0322 49       		.uleb128 0x49
 16489 0323 13       		.uleb128 0x13
 16490 0324 02       		.uleb128 0x2
 16491 0325 17       		.uleb128 0x17
 16492 0326 00       		.byte	0
 16493 0327 00       		.byte	0
 16494 0328 3D       		.uleb128 0x3d
 16495 0329 34       		.uleb128 0x34
 16496 032a 00       		.byte	0
 16497 032b 03       		.uleb128 0x3
 16498 032c 0E       		.uleb128 0xe
 16499 032d 3A       		.uleb128 0x3a
 16500 032e 0B       		.uleb128 0xb
 16501 032f 3B       		.uleb128 0x3b
 16502 0330 05       		.uleb128 0x5
 16503 0331 49       		.uleb128 0x49
 16504 0332 13       		.uleb128 0x13
 16505 0333 02       		.uleb128 0x2
 16506 0334 17       		.uleb128 0x17
 16507 0335 00       		.byte	0
 16508 0336 00       		.byte	0
ARM GAS  /var/folders/sv/kgmgr77579zbf78p2zlhkdfr0000gn/T//ccMuP6SP.s 			page 291


 16509 0337 3E       		.uleb128 0x3e
 16510 0338 0B       		.uleb128 0xb
 16511 0339 01       		.byte	0x1
 16512 033a 55       		.uleb128 0x55
 16513 033b 17       		.uleb128 0x17
 16514 033c 01       		.uleb128 0x1
 16515 033d 13       		.uleb128 0x13
 16516 033e 00       		.byte	0
 16517 033f 00       		.byte	0
 16518 0340 3F       		.uleb128 0x3f
 16519 0341 1D       		.uleb128 0x1d
 16520 0342 01       		.byte	0x1
 16521 0343 31       		.uleb128 0x31
 16522 0344 13       		.uleb128 0x13
 16523 0345 11       		.uleb128 0x11
 16524 0346 01       		.uleb128 0x1
 16525 0347 12       		.uleb128 0x12
 16526 0348 06       		.uleb128 0x6
 16527 0349 58       		.uleb128 0x58
 16528 034a 0B       		.uleb128 0xb
 16529 034b 59       		.uleb128 0x59
 16530 034c 05       		.uleb128 0x5
 16531 034d 00       		.byte	0
 16532 034e 00       		.byte	0
 16533 034f 40       		.uleb128 0x40
 16534 0350 21       		.uleb128 0x21
 16535 0351 00       		.byte	0
 16536 0352 49       		.uleb128 0x49
 16537 0353 13       		.uleb128 0x13
 16538 0354 2F       		.uleb128 0x2f
 16539 0355 13       		.uleb128 0x13
 16540 0356 00       		.byte	0
 16541 0357 00       		.byte	0
 16542 0358 41       		.uleb128 0x41
 16543 0359 2E       		.uleb128 0x2e
 16544 035a 00       		.byte	0
 16545 035b 3F       		.uleb128 0x3f
 16546 035c 19       		.uleb128 0x19
 16547 035d 03       		.uleb128 0x3
 16548 035e 0E       		.uleb128 0xe
 16549 035f 3A       		.uleb128 0x3a
 16550 0360 0B       		.uleb128 0xb
 16551 0361 3B       		.uleb128 0x3b
 16552 0362 05       		.uleb128 0x5
 16553 0363 27       		.uleb128 0x27
 16554 0364 19       		.uleb128 0x19
 16555 0365 49       		.uleb128 0x49
 16556 0366 13       		.uleb128 0x13
 16557 0367 11       		.uleb128 0x11
 16558 0368 01       		.uleb128 0x1
 16559 0369 12       		.uleb128 0x12
 16560 036a 06       		.uleb128 0x6
 16561 036b 40       		.uleb128 0x40
 16562 036c 18       		.uleb128 0x18
 16563 036d 9742     		.uleb128 0x2117
 16564 036f 19       		.uleb128 0x19
 16565 0370 00       		.byte	0
ARM GAS  /var/folders/sv/kgmgr77579zbf78p2zlhkdfr0000gn/T//ccMuP6SP.s 			page 292


 16566 0371 00       		.byte	0
 16567 0372 42       		.uleb128 0x42
 16568 0373 2E       		.uleb128 0x2e
 16569 0374 01       		.byte	0x1
 16570 0375 3F       		.uleb128 0x3f
 16571 0376 19       		.uleb128 0x19
 16572 0377 03       		.uleb128 0x3
 16573 0378 0E       		.uleb128 0xe
 16574 0379 3A       		.uleb128 0x3a
 16575 037a 0B       		.uleb128 0xb
 16576 037b 3B       		.uleb128 0x3b
 16577 037c 0B       		.uleb128 0xb
 16578 037d 27       		.uleb128 0x27
 16579 037e 19       		.uleb128 0x19
 16580 037f 11       		.uleb128 0x11
 16581 0380 01       		.uleb128 0x1
 16582 0381 12       		.uleb128 0x12
 16583 0382 06       		.uleb128 0x6
 16584 0383 40       		.uleb128 0x40
 16585 0384 18       		.uleb128 0x18
 16586 0385 9642     		.uleb128 0x2116
 16587 0387 19       		.uleb128 0x19
 16588 0388 01       		.uleb128 0x1
 16589 0389 13       		.uleb128 0x13
 16590 038a 00       		.byte	0
 16591 038b 00       		.byte	0
 16592 038c 43       		.uleb128 0x43
 16593 038d 05       		.uleb128 0x5
 16594 038e 00       		.byte	0
 16595 038f 03       		.uleb128 0x3
 16596 0390 0E       		.uleb128 0xe
 16597 0391 3A       		.uleb128 0x3a
 16598 0392 0B       		.uleb128 0xb
 16599 0393 3B       		.uleb128 0x3b
 16600 0394 0B       		.uleb128 0xb
 16601 0395 49       		.uleb128 0x49
 16602 0396 13       		.uleb128 0x13
 16603 0397 02       		.uleb128 0x2
 16604 0398 17       		.uleb128 0x17
 16605 0399 00       		.byte	0
 16606 039a 00       		.byte	0
 16607 039b 44       		.uleb128 0x44
 16608 039c 05       		.uleb128 0x5
 16609 039d 00       		.byte	0
 16610 039e 03       		.uleb128 0x3
 16611 039f 08       		.uleb128 0x8
 16612 03a0 3A       		.uleb128 0x3a
 16613 03a1 0B       		.uleb128 0xb
 16614 03a2 3B       		.uleb128 0x3b
 16615 03a3 0B       		.uleb128 0xb
 16616 03a4 49       		.uleb128 0x49
 16617 03a5 13       		.uleb128 0x13
 16618 03a6 02       		.uleb128 0x2
 16619 03a7 17       		.uleb128 0x17
 16620 03a8 00       		.byte	0
 16621 03a9 00       		.byte	0
 16622 03aa 45       		.uleb128 0x45
ARM GAS  /var/folders/sv/kgmgr77579zbf78p2zlhkdfr0000gn/T//ccMuP6SP.s 			page 293


 16623 03ab 34       		.uleb128 0x34
 16624 03ac 00       		.byte	0
 16625 03ad 03       		.uleb128 0x3
 16626 03ae 0E       		.uleb128 0xe
 16627 03af 3A       		.uleb128 0x3a
 16628 03b0 0B       		.uleb128 0xb
 16629 03b1 3B       		.uleb128 0x3b
 16630 03b2 0B       		.uleb128 0xb
 16631 03b3 49       		.uleb128 0x49
 16632 03b4 13       		.uleb128 0x13
 16633 03b5 02       		.uleb128 0x2
 16634 03b6 17       		.uleb128 0x17
 16635 03b7 00       		.byte	0
 16636 03b8 00       		.byte	0
 16637 03b9 46       		.uleb128 0x46
 16638 03ba 34       		.uleb128 0x34
 16639 03bb 00       		.byte	0
 16640 03bc 03       		.uleb128 0x3
 16641 03bd 08       		.uleb128 0x8
 16642 03be 3A       		.uleb128 0x3a
 16643 03bf 0B       		.uleb128 0xb
 16644 03c0 3B       		.uleb128 0x3b
 16645 03c1 0B       		.uleb128 0xb
 16646 03c2 49       		.uleb128 0x49
 16647 03c3 13       		.uleb128 0x13
 16648 03c4 02       		.uleb128 0x2
 16649 03c5 17       		.uleb128 0x17
 16650 03c6 00       		.byte	0
 16651 03c7 00       		.byte	0
 16652 03c8 47       		.uleb128 0x47
 16653 03c9 34       		.uleb128 0x34
 16654 03ca 00       		.byte	0
 16655 03cb 03       		.uleb128 0x3
 16656 03cc 0E       		.uleb128 0xe
 16657 03cd 3A       		.uleb128 0x3a
 16658 03ce 0B       		.uleb128 0xb
 16659 03cf 3B       		.uleb128 0x3b
 16660 03d0 0B       		.uleb128 0xb
 16661 03d1 49       		.uleb128 0x49
 16662 03d2 13       		.uleb128 0x13
 16663 03d3 02       		.uleb128 0x2
 16664 03d4 18       		.uleb128 0x18
 16665 03d5 00       		.byte	0
 16666 03d6 00       		.byte	0
 16667 03d7 48       		.uleb128 0x48
 16668 03d8 1D       		.uleb128 0x1d
 16669 03d9 00       		.byte	0
 16670 03da 31       		.uleb128 0x31
 16671 03db 13       		.uleb128 0x13
 16672 03dc 11       		.uleb128 0x11
 16673 03dd 01       		.uleb128 0x1
 16674 03de 12       		.uleb128 0x12
 16675 03df 06       		.uleb128 0x6
 16676 03e0 58       		.uleb128 0x58
 16677 03e1 0B       		.uleb128 0xb
 16678 03e2 59       		.uleb128 0x59
 16679 03e3 05       		.uleb128 0x5
ARM GAS  /var/folders/sv/kgmgr77579zbf78p2zlhkdfr0000gn/T//ccMuP6SP.s 			page 294


 16680 03e4 00       		.byte	0
 16681 03e5 00       		.byte	0
 16682 03e6 49       		.uleb128 0x49
 16683 03e7 898201   		.uleb128 0x4109
 16684 03ea 00       		.byte	0
 16685 03eb 11       		.uleb128 0x11
 16686 03ec 01       		.uleb128 0x1
 16687 03ed 31       		.uleb128 0x31
 16688 03ee 13       		.uleb128 0x13
 16689 03ef 00       		.byte	0
 16690 03f0 00       		.byte	0
 16691 03f1 4A       		.uleb128 0x4a
 16692 03f2 0B       		.uleb128 0xb
 16693 03f3 01       		.byte	0x1
 16694 03f4 11       		.uleb128 0x11
 16695 03f5 01       		.uleb128 0x1
 16696 03f6 12       		.uleb128 0x12
 16697 03f7 06       		.uleb128 0x6
 16698 03f8 01       		.uleb128 0x1
 16699 03f9 13       		.uleb128 0x13
 16700 03fa 00       		.byte	0
 16701 03fb 00       		.byte	0
 16702 03fc 4B       		.uleb128 0x4b
 16703 03fd 1D       		.uleb128 0x1d
 16704 03fe 01       		.byte	0x1
 16705 03ff 31       		.uleb128 0x31
 16706 0400 13       		.uleb128 0x13
 16707 0401 52       		.uleb128 0x52
 16708 0402 01       		.uleb128 0x1
 16709 0403 55       		.uleb128 0x55
 16710 0404 17       		.uleb128 0x17
 16711 0405 58       		.uleb128 0x58
 16712 0406 0B       		.uleb128 0xb
 16713 0407 59       		.uleb128 0x59
 16714 0408 0B       		.uleb128 0xb
 16715 0409 01       		.uleb128 0x1
 16716 040a 13       		.uleb128 0x13
 16717 040b 00       		.byte	0
 16718 040c 00       		.byte	0
 16719 040d 4C       		.uleb128 0x4c
 16720 040e 898201   		.uleb128 0x4109
 16721 0411 01       		.byte	0x1
 16722 0412 11       		.uleb128 0x11
 16723 0413 01       		.uleb128 0x1
 16724 0414 01       		.uleb128 0x1
 16725 0415 13       		.uleb128 0x13
 16726 0416 00       		.byte	0
 16727 0417 00       		.byte	0
 16728 0418 4D       		.uleb128 0x4d
 16729 0419 21       		.uleb128 0x21
 16730 041a 00       		.byte	0
 16731 041b 49       		.uleb128 0x49
 16732 041c 13       		.uleb128 0x13
 16733 041d 2F       		.uleb128 0x2f
 16734 041e 05       		.uleb128 0x5
 16735 041f 00       		.byte	0
 16736 0420 00       		.byte	0
ARM GAS  /var/folders/sv/kgmgr77579zbf78p2zlhkdfr0000gn/T//ccMuP6SP.s 			page 295


 16737 0421 4E       		.uleb128 0x4e
 16738 0422 34       		.uleb128 0x34
 16739 0423 00       		.byte	0
 16740 0424 03       		.uleb128 0x3
 16741 0425 0E       		.uleb128 0xe
 16742 0426 3A       		.uleb128 0x3a
 16743 0427 0B       		.uleb128 0xb
 16744 0428 3B       		.uleb128 0x3b
 16745 0429 05       		.uleb128 0x5
 16746 042a 49       		.uleb128 0x49
 16747 042b 13       		.uleb128 0x13
 16748 042c 3F       		.uleb128 0x3f
 16749 042d 19       		.uleb128 0x19
 16750 042e 3C       		.uleb128 0x3c
 16751 042f 19       		.uleb128 0x19
 16752 0430 00       		.byte	0
 16753 0431 00       		.byte	0
 16754 0432 4F       		.uleb128 0x4f
 16755 0433 34       		.uleb128 0x34
 16756 0434 00       		.byte	0
 16757 0435 03       		.uleb128 0x3
 16758 0436 08       		.uleb128 0x8
 16759 0437 3A       		.uleb128 0x3a
 16760 0438 0B       		.uleb128 0xb
 16761 0439 3B       		.uleb128 0x3b
 16762 043a 05       		.uleb128 0x5
 16763 043b 49       		.uleb128 0x49
 16764 043c 13       		.uleb128 0x13
 16765 043d 3F       		.uleb128 0x3f
 16766 043e 19       		.uleb128 0x19
 16767 043f 3C       		.uleb128 0x3c
 16768 0440 19       		.uleb128 0x19
 16769 0441 00       		.byte	0
 16770 0442 00       		.byte	0
 16771 0443 50       		.uleb128 0x50
 16772 0444 21       		.uleb128 0x21
 16773 0445 00       		.byte	0
 16774 0446 00       		.byte	0
 16775 0447 00       		.byte	0
 16776 0448 51       		.uleb128 0x51
 16777 0449 34       		.uleb128 0x34
 16778 044a 00       		.byte	0
 16779 044b 03       		.uleb128 0x3
 16780 044c 0E       		.uleb128 0xe
 16781 044d 3A       		.uleb128 0x3a
 16782 044e 0B       		.uleb128 0xb
 16783 044f 3B       		.uleb128 0x3b
 16784 0450 0B       		.uleb128 0xb
 16785 0451 49       		.uleb128 0x49
 16786 0452 13       		.uleb128 0x13
 16787 0453 3F       		.uleb128 0x3f
 16788 0454 19       		.uleb128 0x19
 16789 0455 3C       		.uleb128 0x3c
 16790 0456 19       		.uleb128 0x19
 16791 0457 00       		.byte	0
 16792 0458 00       		.byte	0
 16793 0459 52       		.uleb128 0x52
ARM GAS  /var/folders/sv/kgmgr77579zbf78p2zlhkdfr0000gn/T//ccMuP6SP.s 			page 296


 16794 045a 2E       		.uleb128 0x2e
 16795 045b 00       		.byte	0
 16796 045c 3F       		.uleb128 0x3f
 16797 045d 19       		.uleb128 0x19
 16798 045e 3C       		.uleb128 0x3c
 16799 045f 19       		.uleb128 0x19
 16800 0460 6E       		.uleb128 0x6e
 16801 0461 0E       		.uleb128 0xe
 16802 0462 03       		.uleb128 0x3
 16803 0463 0E       		.uleb128 0xe
 16804 0464 3A       		.uleb128 0x3a
 16805 0465 0B       		.uleb128 0xb
 16806 0466 3B       		.uleb128 0x3b
 16807 0467 0B       		.uleb128 0xb
 16808 0468 00       		.byte	0
 16809 0469 00       		.byte	0
 16810 046a 53       		.uleb128 0x53
 16811 046b 2E       		.uleb128 0x2e
 16812 046c 00       		.byte	0
 16813 046d 3F       		.uleb128 0x3f
 16814 046e 19       		.uleb128 0x19
 16815 046f 3C       		.uleb128 0x3c
 16816 0470 19       		.uleb128 0x19
 16817 0471 6E       		.uleb128 0x6e
 16818 0472 0E       		.uleb128 0xe
 16819 0473 03       		.uleb128 0x3
 16820 0474 0E       		.uleb128 0xe
 16821 0475 3A       		.uleb128 0x3a
 16822 0476 0B       		.uleb128 0xb
 16823 0477 3B       		.uleb128 0x3b
 16824 0478 05       		.uleb128 0x5
 16825 0479 00       		.byte	0
 16826 047a 00       		.byte	0
 16827 047b 54       		.uleb128 0x54
 16828 047c 2E       		.uleb128 0x2e
 16829 047d 00       		.byte	0
 16830 047e 3F       		.uleb128 0x3f
 16831 047f 19       		.uleb128 0x19
 16832 0480 3C       		.uleb128 0x3c
 16833 0481 19       		.uleb128 0x19
 16834 0482 6E       		.uleb128 0x6e
 16835 0483 0E       		.uleb128 0xe
 16836 0484 03       		.uleb128 0x3
 16837 0485 0E       		.uleb128 0xe
 16838 0486 00       		.byte	0
 16839 0487 00       		.byte	0
 16840 0488 00       		.byte	0
 16841              		.section	.debug_loc,"",%progbits
 16842              	.Ldebug_loc0:
 16843              	.LLST0:
 16844 0000 00000000 		.4byte	.LVL0
 16845 0004 32000000 		.4byte	.LVL2
 16846 0008 0100     		.2byte	0x1
 16847 000a 50       		.byte	0x50
 16848 000b 32000000 		.4byte	.LVL2
 16849 000f 0C010000 		.4byte	.LFE268
 16850 0013 0400     		.2byte	0x4
ARM GAS  /var/folders/sv/kgmgr77579zbf78p2zlhkdfr0000gn/T//ccMuP6SP.s 			page 297


 16851 0015 F3       		.byte	0xf3
 16852 0016 01       		.uleb128 0x1
 16853 0017 50       		.byte	0x50
 16854 0018 9F       		.byte	0x9f
 16855 0019 00000000 		.4byte	0
 16856 001d 00000000 		.4byte	0
 16857              	.LLST1:
 16858 0021 00000000 		.4byte	.LVL0
 16859 0025 2E000000 		.4byte	.LVL1
 16860 0029 0600     		.2byte	0x6
 16861 002b 03       		.byte	0x3
 16862 002c 00000000 		.4byte	.LC0
 16863 0030 9F       		.byte	0x9f
 16864 0031 00000000 		.4byte	0
 16865 0035 00000000 		.4byte	0
 16866              	.LLST2:
 16867 0039 BE000000 		.4byte	.LVL8
 16868 003d CB000000 		.4byte	.LVL9-1
 16869 0041 0100     		.2byte	0x1
 16870 0043 51       		.byte	0x51
 16871 0044 00000000 		.4byte	0
 16872 0048 00000000 		.4byte	0
 16873              	.LLST3:
 16874 004c 00000000 		.4byte	.LVL12
 16875 0050 07000000 		.4byte	.LVL13-1
 16876 0054 0100     		.2byte	0x1
 16877 0056 50       		.byte	0x50
 16878 0057 07000000 		.4byte	.LVL13-1
 16879 005b 08000000 		.4byte	.LVL13
 16880 005f 0400     		.2byte	0x4
 16881 0061 F3       		.byte	0xf3
 16882 0062 01       		.uleb128 0x1
 16883 0063 50       		.byte	0x50
 16884 0064 9F       		.byte	0x9f
 16885 0065 08000000 		.4byte	.LVL13
 16886 0069 10000000 		.4byte	.LFE259
 16887 006d 0100     		.2byte	0x1
 16888 006f 50       		.byte	0x50
 16889 0070 00000000 		.4byte	0
 16890 0074 00000000 		.4byte	0
 16891              	.LLST4:
 16892 0078 00000000 		.4byte	.LVL12
 16893 007c 07000000 		.4byte	.LVL13-1
 16894 0080 0100     		.2byte	0x1
 16895 0082 51       		.byte	0x51
 16896 0083 07000000 		.4byte	.LVL13-1
 16897 0087 08000000 		.4byte	.LVL13
 16898 008b 0400     		.2byte	0x4
 16899 008d F3       		.byte	0xf3
 16900 008e 01       		.uleb128 0x1
 16901 008f 51       		.byte	0x51
 16902 0090 9F       		.byte	0x9f
 16903 0091 08000000 		.4byte	.LVL13
 16904 0095 10000000 		.4byte	.LFE259
 16905 0099 0100     		.2byte	0x1
 16906 009b 51       		.byte	0x51
 16907 009c 00000000 		.4byte	0
ARM GAS  /var/folders/sv/kgmgr77579zbf78p2zlhkdfr0000gn/T//ccMuP6SP.s 			page 298


 16908 00a0 00000000 		.4byte	0
 16909              	.LLST5:
 16910 00a4 1C000000 		.4byte	.LVL15
 16911 00a8 30000000 		.4byte	.LVL18
 16912 00ac 0100     		.2byte	0x1
 16913 00ae 50       		.byte	0x50
 16914 00af 00000000 		.4byte	0
 16915 00b3 00000000 		.4byte	0
 16916              	.LLST6:
 16917 00b7 2C000000 		.4byte	.LVL17
 16918 00bb 31000000 		.4byte	.LVL19-1
 16919 00bf 0100     		.2byte	0x1
 16920 00c1 51       		.byte	0x51
 16921 00c2 00000000 		.4byte	0
 16922 00c6 00000000 		.4byte	0
 16923              	.LLST7:
 16924 00ca 20000000 		.4byte	.LVL16
 16925 00ce 32000000 		.4byte	.LVL19
 16926 00d2 0600     		.2byte	0x6
 16927 00d4 03       		.byte	0x3
 16928 00d5 00000000 		.4byte	print_buffer.11759
 16929 00d9 9F       		.byte	0x9f
 16930 00da 00000000 		.4byte	0
 16931 00de 00000000 		.4byte	0
 16932              	.LLST8:
 16933 00e2 00000000 		.4byte	.LVL20
 16934 00e6 0A000000 		.4byte	.LVL21
 16935 00ea 0200     		.2byte	0x2
 16936 00ec 90       		.byte	0x90
 16937 00ed 40       		.uleb128 0x40
 16938 00ee 0A000000 		.4byte	.LVL21
 16939 00f2 40000000 		.4byte	.LFE262
 16940 00f6 0600     		.2byte	0x6
 16941 00f8 F3       		.byte	0xf3
 16942 00f9 03       		.uleb128 0x3
 16943 00fa F5       		.byte	0xf5
 16944 00fb 40       		.uleb128 0x40
 16945 00fc 25       		.uleb128 0x25
 16946 00fd 9F       		.byte	0x9f
 16947 00fe 00000000 		.4byte	0
 16948 0102 00000000 		.4byte	0
 16949              	.LLST9:
 16950 0106 2A000000 		.4byte	.LVL23
 16951 010a 31000000 		.4byte	.LVL25-1
 16952 010e 0100     		.2byte	0x1
 16953 0110 51       		.byte	0x51
 16954 0111 00000000 		.4byte	0
 16955 0115 00000000 		.4byte	0
 16956              	.LLST10:
 16957 0119 2A000000 		.4byte	.LVL23
 16958 011d 30000000 		.4byte	.LVL24
 16959 0121 0300     		.2byte	0x3
 16960 0123 91       		.byte	0x91
 16961 0124 70       		.sleb128 -16
 16962 0125 9F       		.byte	0x9f
 16963 0126 30000000 		.4byte	.LVL24
 16964 012a 31000000 		.4byte	.LVL25-1
ARM GAS  /var/folders/sv/kgmgr77579zbf78p2zlhkdfr0000gn/T//ccMuP6SP.s 			page 299


 16965 012e 0100     		.2byte	0x1
 16966 0130 50       		.byte	0x50
 16967 0131 31000000 		.4byte	.LVL25-1
 16968 0135 32000000 		.4byte	.LVL25
 16969 0139 0300     		.2byte	0x3
 16970 013b 91       		.byte	0x91
 16971 013c 70       		.sleb128 -16
 16972 013d 9F       		.byte	0x9f
 16973 013e 00000000 		.4byte	0
 16974 0142 00000000 		.4byte	0
 16975              	.LLST11:
 16976 0146 00000000 		.4byte	.LVL26
 16977 014a 38000000 		.4byte	.LVL32
 16978 014e 0100     		.2byte	0x1
 16979 0150 50       		.byte	0x50
 16980 0151 38000000 		.4byte	.LVL32
 16981 0155 70000000 		.4byte	.LVL37
 16982 0159 0400     		.2byte	0x4
 16983 015b F3       		.byte	0xf3
 16984 015c 01       		.uleb128 0x1
 16985 015d 50       		.byte	0x50
 16986 015e 9F       		.byte	0x9f
 16987 015f 70000000 		.4byte	.LVL37
 16988 0163 7C000000 		.4byte	.LFE263
 16989 0167 0100     		.2byte	0x1
 16990 0169 50       		.byte	0x50
 16991 016a 00000000 		.4byte	0
 16992 016e 00000000 		.4byte	0
 16993              	.LLST12:
 16994 0172 00000000 		.4byte	.LVL26
 16995 0176 22000000 		.4byte	.LVL30
 16996 017a 0100     		.2byte	0x1
 16997 017c 51       		.byte	0x51
 16998 017d 22000000 		.4byte	.LVL30
 16999 0181 70000000 		.4byte	.LVL37
 17000 0185 0100     		.2byte	0x1
 17001 0187 56       		.byte	0x56
 17002 0188 70000000 		.4byte	.LVL37
 17003 018c 7C000000 		.4byte	.LFE263
 17004 0190 0100     		.2byte	0x1
 17005 0192 51       		.byte	0x51
 17006 0193 00000000 		.4byte	0
 17007 0197 00000000 		.4byte	0
 17008              	.LLST13:
 17009 019b 06000000 		.4byte	.LVL27
 17010 019f 10000000 		.4byte	.LVL28
 17011 01a3 0100     		.2byte	0x1
 17012 01a5 53       		.byte	0x53
 17013 01a6 10000000 		.4byte	.LVL28
 17014 01aa 16000000 		.4byte	.LVL29
 17015 01ae 0300     		.2byte	0x3
 17016 01b0 73       		.byte	0x73
 17017 01b1 78       		.sleb128 -8
 17018 01b2 9F       		.byte	0x9f
 17019 01b3 16000000 		.4byte	.LVL29
 17020 01b7 22000000 		.4byte	.LVL30
 17021 01bb 0500     		.2byte	0x5
ARM GAS  /var/folders/sv/kgmgr77579zbf78p2zlhkdfr0000gn/T//ccMuP6SP.s 			page 300


 17022 01bd 71       		.byte	0x71
 17023 01be 00       		.sleb128 0
 17024 01bf 32       		.byte	0x32
 17025 01c0 24       		.byte	0x24
 17026 01c1 9F       		.byte	0x9f
 17027 01c2 22000000 		.4byte	.LVL30
 17028 01c6 70000000 		.4byte	.LVL37
 17029 01ca 0500     		.2byte	0x5
 17030 01cc 76       		.byte	0x76
 17031 01cd 00       		.sleb128 0
 17032 01ce 32       		.byte	0x32
 17033 01cf 24       		.byte	0x24
 17034 01d0 9F       		.byte	0x9f
 17035 01d1 00000000 		.4byte	0
 17036 01d5 00000000 		.4byte	0
 17037              	.LLST14:
 17038 01d9 2C000000 		.4byte	.LVL31
 17039 01dd 70000000 		.4byte	.LVL37
 17040 01e1 0200     		.2byte	0x2
 17041 01e3 78       		.byte	0x78
 17042 01e4 00       		.sleb128 0
 17043 01e5 00000000 		.4byte	0
 17044 01e9 00000000 		.4byte	0
 17045              	.LLST15:
 17046 01ed 2C000000 		.4byte	.LVL31
 17047 01f1 38000000 		.4byte	.LVL32
 17048 01f5 0200     		.2byte	0x2
 17049 01f7 30       		.byte	0x30
 17050 01f8 9F       		.byte	0x9f
 17051 01f9 38000000 		.4byte	.LVL32
 17052 01fd 42000000 		.4byte	.LVL33
 17053 0201 0100     		.2byte	0x1
 17054 0203 54       		.byte	0x54
 17055 0204 42000000 		.4byte	.LVL33
 17056 0208 52000000 		.4byte	.LVL34
 17057 020c 0300     		.2byte	0x3
 17058 020e 74       		.byte	0x74
 17059 020f 7F       		.sleb128 -1
 17060 0210 9F       		.byte	0x9f
 17061 0211 52000000 		.4byte	.LVL34
 17062 0215 58000000 		.4byte	.LVL35
 17063 0219 0100     		.2byte	0x1
 17064 021b 54       		.byte	0x54
 17065 021c 00000000 		.4byte	0
 17066 0220 00000000 		.4byte	0
 17067              	.LLST16:
 17068 0224 58000000 		.4byte	.LVL35
 17069 0228 61000000 		.4byte	.LVL36-1
 17070 022c 0200     		.2byte	0x2
 17071 022e 77       		.byte	0x77
 17072 022f 24       		.sleb128 36
 17073 0230 00000000 		.4byte	0
 17074 0234 00000000 		.4byte	0
 17075              	.LLST17:
 17076 0238 58000000 		.4byte	.LVL35
 17077 023c 62000000 		.4byte	.LVL36
 17078 0240 0100     		.2byte	0x1
ARM GAS  /var/folders/sv/kgmgr77579zbf78p2zlhkdfr0000gn/T//ccMuP6SP.s 			page 301


 17079 0242 58       		.byte	0x58
 17080 0243 00000000 		.4byte	0
 17081 0247 00000000 		.4byte	0
 17082              	.LLST18:
 17083 024b 00000000 		.4byte	.LVL39
 17084 024f 08000000 		.4byte	.LVL40
 17085 0253 0100     		.2byte	0x1
 17086 0255 50       		.byte	0x50
 17087 0256 08000000 		.4byte	.LVL40
 17088 025a 14000000 		.4byte	.LVL42
 17089 025e 0100     		.2byte	0x1
 17090 0260 52       		.byte	0x52
 17091 0261 14000000 		.4byte	.LVL42
 17092 0265 17000000 		.4byte	.LVL43-1
 17093 0269 0100     		.2byte	0x1
 17094 026b 51       		.byte	0x51
 17095 026c 17000000 		.4byte	.LVL43-1
 17096 0270 34000000 		.4byte	.LFE266
 17097 0274 0400     		.2byte	0x4
 17098 0276 F3       		.byte	0xf3
 17099 0277 01       		.uleb128 0x1
 17100 0278 50       		.byte	0x50
 17101 0279 9F       		.byte	0x9f
 17102 027a 00000000 		.4byte	0
 17103 027e 00000000 		.4byte	0
 17104              	.LLST19:
 17105 0282 00000000 		.4byte	.LVL39
 17106 0286 12000000 		.4byte	.LVL41
 17107 028a 0100     		.2byte	0x1
 17108 028c 51       		.byte	0x51
 17109 028d 12000000 		.4byte	.LVL41
 17110 0291 26000000 		.4byte	.LVL46
 17111 0295 0100     		.2byte	0x1
 17112 0297 54       		.byte	0x54
 17113 0298 26000000 		.4byte	.LVL46
 17114 029c 27000000 		.4byte	.LVL47-1
 17115 02a0 0300     		.2byte	0x3
 17116 02a2 71       		.byte	0x71
 17117 02a3 7F       		.sleb128 -1
 17118 02a4 9F       		.byte	0x9f
 17119 02a5 27000000 		.4byte	.LVL47-1
 17120 02a9 28000000 		.4byte	.LVL47
 17121 02ad 0400     		.2byte	0x4
 17122 02af F3       		.byte	0xf3
 17123 02b0 01       		.uleb128 0x1
 17124 02b1 51       		.byte	0x51
 17125 02b2 9F       		.byte	0x9f
 17126 02b3 28000000 		.4byte	.LVL47
 17127 02b7 2A000000 		.4byte	.LVL48
 17128 02bb 0100     		.2byte	0x1
 17129 02bd 54       		.byte	0x54
 17130 02be 2A000000 		.4byte	.LVL48
 17131 02c2 34000000 		.4byte	.LFE266
 17132 02c6 0400     		.2byte	0x4
 17133 02c8 F3       		.byte	0xf3
 17134 02c9 01       		.uleb128 0x1
 17135 02ca 51       		.byte	0x51
ARM GAS  /var/folders/sv/kgmgr77579zbf78p2zlhkdfr0000gn/T//ccMuP6SP.s 			page 302


 17136 02cb 9F       		.byte	0x9f
 17137 02cc 00000000 		.4byte	0
 17138 02d0 00000000 		.4byte	0
 17139              	.LLST20:
 17140 02d4 00000000 		.4byte	.LVL39
 17141 02d8 1C000000 		.4byte	.LVL44
 17142 02dc 0200     		.2byte	0x2
 17143 02de 31       		.byte	0x31
 17144 02df 9F       		.byte	0x9f
 17145 02e0 1C000000 		.4byte	.LVL44
 17146 02e4 20000000 		.4byte	.LVL45
 17147 02e8 0300     		.2byte	0x3
 17148 02ea 74       		.byte	0x74
 17149 02eb 01       		.sleb128 1
 17150 02ec 9F       		.byte	0x9f
 17151 02ed 20000000 		.4byte	.LVL45
 17152 02f1 27000000 		.4byte	.LVL47-1
 17153 02f5 0100     		.2byte	0x1
 17154 02f7 51       		.byte	0x51
 17155 02f8 27000000 		.4byte	.LVL47-1
 17156 02fc 28000000 		.4byte	.LVL47
 17157 0300 0600     		.2byte	0x6
 17158 0302 F3       		.byte	0xf3
 17159 0303 01       		.uleb128 0x1
 17160 0304 51       		.byte	0x51
 17161 0305 23       		.byte	0x23
 17162 0306 01       		.uleb128 0x1
 17163 0307 9F       		.byte	0x9f
 17164 0308 28000000 		.4byte	.LVL47
 17165 030c 2A000000 		.4byte	.LVL48
 17166 0310 0300     		.2byte	0x3
 17167 0312 74       		.byte	0x74
 17168 0313 01       		.sleb128 1
 17169 0314 9F       		.byte	0x9f
 17170 0315 2A000000 		.4byte	.LVL48
 17171 0319 34000000 		.4byte	.LFE266
 17172 031d 0600     		.2byte	0x6
 17173 031f F3       		.byte	0xf3
 17174 0320 01       		.uleb128 0x1
 17175 0321 51       		.byte	0x51
 17176 0322 23       		.byte	0x23
 17177 0323 01       		.uleb128 0x1
 17178 0324 9F       		.byte	0x9f
 17179 0325 00000000 		.4byte	0
 17180 0329 00000000 		.4byte	0
 17181              	.LLST21:
 17182 032d 1C000000 		.4byte	.LVL44
 17183 0331 20000000 		.4byte	.LVL45
 17184 0335 0300     		.2byte	0x3
 17185 0337 74       		.byte	0x74
 17186 0338 01       		.sleb128 1
 17187 0339 9F       		.byte	0x9f
 17188 033a 20000000 		.4byte	.LVL45
 17189 033e 27000000 		.4byte	.LVL47-1
 17190 0342 0100     		.2byte	0x1
 17191 0344 51       		.byte	0x51
 17192 0345 27000000 		.4byte	.LVL47-1
ARM GAS  /var/folders/sv/kgmgr77579zbf78p2zlhkdfr0000gn/T//ccMuP6SP.s 			page 303


 17193 0349 28000000 		.4byte	.LVL47
 17194 034d 0600     		.2byte	0x6
 17195 034f F3       		.byte	0xf3
 17196 0350 01       		.uleb128 0x1
 17197 0351 51       		.byte	0x51
 17198 0352 23       		.byte	0x23
 17199 0353 01       		.uleb128 0x1
 17200 0354 9F       		.byte	0x9f
 17201 0355 28000000 		.4byte	.LVL47
 17202 0359 2A000000 		.4byte	.LVL48
 17203 035d 0300     		.2byte	0x3
 17204 035f 74       		.byte	0x74
 17205 0360 01       		.sleb128 1
 17206 0361 9F       		.byte	0x9f
 17207 0362 2A000000 		.4byte	.LVL48
 17208 0366 34000000 		.4byte	.LFE266
 17209 036a 0600     		.2byte	0x6
 17210 036c F3       		.byte	0xf3
 17211 036d 01       		.uleb128 0x1
 17212 036e 51       		.byte	0x51
 17213 036f 23       		.byte	0x23
 17214 0370 01       		.uleb128 0x1
 17215 0371 9F       		.byte	0x9f
 17216 0372 00000000 		.4byte	0
 17217 0376 00000000 		.4byte	0
 17218              	.LLST22:
 17219 037a 00000000 		.4byte	.LVL49
 17220 037e 1C000000 		.4byte	.LVL51
 17221 0382 0100     		.2byte	0x1
 17222 0384 50       		.byte	0x50
 17223 0385 1C000000 		.4byte	.LVL51
 17224 0389 1F000000 		.4byte	.LVL52-1
 17225 038d 0500     		.2byte	0x5
 17226 038f 03       		.byte	0x3
 17227 0390 00000000 		.4byte	send_buffer
 17228 0394 1F000000 		.4byte	.LVL52-1
 17229 0398 C8020000 		.4byte	.LFE267
 17230 039c 0400     		.2byte	0x4
 17231 039e F3       		.byte	0xf3
 17232 039f 01       		.uleb128 0x1
 17233 03a0 50       		.byte	0x50
 17234 03a1 9F       		.byte	0x9f
 17235 03a2 00000000 		.4byte	0
 17236 03a6 00000000 		.4byte	0
 17237              	.LLST23:
 17238 03aa 00000000 		.4byte	.LVL49
 17239 03ae 1A000000 		.4byte	.LVL50
 17240 03b2 0100     		.2byte	0x1
 17241 03b4 51       		.byte	0x51
 17242 03b5 1A000000 		.4byte	.LVL50
 17243 03b9 BE020000 		.4byte	.LVL88
 17244 03bd 0100     		.2byte	0x1
 17245 03bf 54       		.byte	0x54
 17246 03c0 BE020000 		.4byte	.LVL88
 17247 03c4 C8020000 		.4byte	.LFE267
 17248 03c8 0400     		.2byte	0x4
 17249 03ca F3       		.byte	0xf3
ARM GAS  /var/folders/sv/kgmgr77579zbf78p2zlhkdfr0000gn/T//ccMuP6SP.s 			page 304


 17250 03cb 01       		.uleb128 0x1
 17251 03cc 51       		.byte	0x51
 17252 03cd 9F       		.byte	0x9f
 17253 03ce 00000000 		.4byte	0
 17254 03d2 00000000 		.4byte	0
 17255              	.LLST24:
 17256 03d6 B2020000 		.4byte	.LVL86
 17257 03da B9020000 		.4byte	.LVL87-1
 17258 03de 0100     		.2byte	0x1
 17259 03e0 51       		.byte	0x51
 17260 03e1 00000000 		.4byte	0
 17261 03e5 00000000 		.4byte	0
 17262              	.LLST25:
 17263 03e9 B0020000 		.4byte	.LVL85
 17264 03ed BA020000 		.4byte	.LVL87
 17265 03f1 0600     		.2byte	0x6
 17266 03f3 03       		.byte	0x3
 17267 03f4 00000000 		.4byte	send_buffer
 17268 03f8 9F       		.byte	0x9f
 17269 03f9 00000000 		.4byte	0
 17270 03fd 00000000 		.4byte	0
 17271              	.LLST26:
 17272 0401 00000000 		.4byte	.LVL89
 17273 0405 12000000 		.4byte	.LVL90
 17274 0409 0100     		.2byte	0x1
 17275 040b 50       		.byte	0x50
 17276 040c 12000000 		.4byte	.LVL90
 17277 0410 70000000 		.4byte	.LVL92
 17278 0414 0100     		.2byte	0x1
 17279 0416 54       		.byte	0x54
 17280 0417 70000000 		.4byte	.LVL92
 17281 041b 72000000 		.4byte	.LVL93
 17282 041f 0100     		.2byte	0x1
 17283 0421 50       		.byte	0x50
 17284 0422 72000000 		.4byte	.LVL93
 17285 0426 E0000000 		.4byte	.LVL107
 17286 042a 0100     		.2byte	0x1
 17287 042c 54       		.byte	0x54
 17288 042d E0000000 		.4byte	.LVL107
 17289 0431 FC000000 		.4byte	.LVL110
 17290 0435 0300     		.2byte	0x3
 17291 0437 77       		.byte	0x77
 17292 0438 01       		.sleb128 1
 17293 0439 9F       		.byte	0x9f
 17294 043a FC000000 		.4byte	.LVL110
 17295 043e 0C010000 		.4byte	.LVL112
 17296 0442 0600     		.2byte	0x6
 17297 0444 F3       		.byte	0xf3
 17298 0445 01       		.uleb128 0x1
 17299 0446 50       		.byte	0x50
 17300 0447 23       		.byte	0x23
 17301 0448 01       		.uleb128 0x1
 17302 0449 9F       		.byte	0x9f
 17303 044a 0C010000 		.4byte	.LVL112
 17304 044e 44010000 		.4byte	.LVL118
 17305 0452 0100     		.2byte	0x1
 17306 0454 54       		.byte	0x54
ARM GAS  /var/folders/sv/kgmgr77579zbf78p2zlhkdfr0000gn/T//ccMuP6SP.s 			page 305


 17307 0455 44010000 		.4byte	.LVL118
 17308 0459 55010000 		.4byte	.LVL119-1
 17309 045d 0300     		.2byte	0x3
 17310 045f 70       		.byte	0x70
 17311 0460 01       		.sleb128 1
 17312 0461 9F       		.byte	0x9f
 17313 0462 55010000 		.4byte	.LVL119-1
 17314 0466 8E010000 		.4byte	.LVL124
 17315 046a 0300     		.2byte	0x3
 17316 046c 77       		.byte	0x77
 17317 046d 01       		.sleb128 1
 17318 046e 9F       		.byte	0x9f
 17319 046f 8E010000 		.4byte	.LVL124
 17320 0473 9C010000 		.4byte	.LVL126
 17321 0477 0600     		.2byte	0x6
 17322 0479 F3       		.byte	0xf3
 17323 047a 01       		.uleb128 0x1
 17324 047b 50       		.byte	0x50
 17325 047c 23       		.byte	0x23
 17326 047d 01       		.uleb128 0x1
 17327 047e 9F       		.byte	0x9f
 17328 047f 9C010000 		.4byte	.LVL126
 17329 0483 A0010000 		.4byte	.LVL128
 17330 0487 0100     		.2byte	0x1
 17331 0489 54       		.byte	0x54
 17332 048a A0010000 		.4byte	.LVL128
 17333 048e AD010000 		.4byte	.LVL129-1
 17334 0492 0300     		.2byte	0x3
 17335 0494 70       		.byte	0x70
 17336 0495 01       		.sleb128 1
 17337 0496 9F       		.byte	0x9f
 17338 0497 AD010000 		.4byte	.LVL129-1
 17339 049b B8010000 		.4byte	.LVL130
 17340 049f 0300     		.2byte	0x3
 17341 04a1 77       		.byte	0x77
 17342 04a2 01       		.sleb128 1
 17343 04a3 9F       		.byte	0x9f
 17344 04a4 B8010000 		.4byte	.LVL130
 17345 04a8 BC010000 		.4byte	.LVL132
 17346 04ac 0100     		.2byte	0x1
 17347 04ae 54       		.byte	0x54
 17348 04af BC010000 		.4byte	.LVL132
 17349 04b3 CD010000 		.4byte	.LVL133-1
 17350 04b7 0300     		.2byte	0x3
 17351 04b9 70       		.byte	0x70
 17352 04ba 01       		.sleb128 1
 17353 04bb 9F       		.byte	0x9f
 17354 04bc CD010000 		.4byte	.LVL133-1
 17355 04c0 1C020000 		.4byte	.LVL140
 17356 04c4 0300     		.2byte	0x3
 17357 04c6 77       		.byte	0x77
 17358 04c7 01       		.sleb128 1
 17359 04c8 9F       		.byte	0x9f
 17360 04c9 1C020000 		.4byte	.LVL140
 17361 04cd 5C020000 		.4byte	.LVL146
 17362 04d1 0100     		.2byte	0x1
 17363 04d3 54       		.byte	0x54
ARM GAS  /var/folders/sv/kgmgr77579zbf78p2zlhkdfr0000gn/T//ccMuP6SP.s 			page 306


 17364 04d4 5C020000 		.4byte	.LVL146
 17365 04d8 5F020000 		.4byte	.LVL147-1
 17366 04dc 0100     		.2byte	0x1
 17367 04de 50       		.byte	0x50
 17368 04df 5F020000 		.4byte	.LVL147-1
 17369 04e3 C2020000 		.4byte	.LVL155
 17370 04e7 0600     		.2byte	0x6
 17371 04e9 F3       		.byte	0xf3
 17372 04ea 01       		.uleb128 0x1
 17373 04eb 50       		.byte	0x50
 17374 04ec 23       		.byte	0x23
 17375 04ed 01       		.uleb128 0x1
 17376 04ee 9F       		.byte	0x9f
 17377 04ef C2020000 		.4byte	.LVL155
 17378 04f3 44030000 		.4byte	.LVL165
 17379 04f7 0100     		.2byte	0x1
 17380 04f9 54       		.byte	0x54
 17381 04fa 44030000 		.4byte	.LVL165
 17382 04fe CC030000 		.4byte	.LVL171
 17383 0502 0600     		.2byte	0x6
 17384 0504 F3       		.byte	0xf3
 17385 0505 01       		.uleb128 0x1
 17386 0506 50       		.byte	0x50
 17387 0507 23       		.byte	0x23
 17388 0508 01       		.uleb128 0x1
 17389 0509 9F       		.byte	0x9f
 17390 050a CC030000 		.4byte	.LVL171
 17391 050e D2030000 		.4byte	.LVL173
 17392 0512 0100     		.2byte	0x1
 17393 0514 54       		.byte	0x54
 17394 0515 D2030000 		.4byte	.LVL173
 17395 0519 30040000 		.4byte	.LVL181
 17396 051d 0300     		.2byte	0x3
 17397 051f 77       		.byte	0x77
 17398 0520 01       		.sleb128 1
 17399 0521 9F       		.byte	0x9f
 17400 0522 30040000 		.4byte	.LVL181
 17401 0526 6C040000 		.4byte	.LVL186
 17402 052a 0600     		.2byte	0x6
 17403 052c F3       		.byte	0xf3
 17404 052d 01       		.uleb128 0x1
 17405 052e 50       		.byte	0x50
 17406 052f 23       		.byte	0x23
 17407 0530 01       		.uleb128 0x1
 17408 0531 9F       		.byte	0x9f
 17409 0532 6C040000 		.4byte	.LVL186
 17410 0536 C0040000 		.4byte	.LVL191
 17411 053a 0100     		.2byte	0x1
 17412 053c 54       		.byte	0x54
 17413 053d C0040000 		.4byte	.LVL191
 17414 0541 C2040000 		.4byte	.LVL192
 17415 0545 0300     		.2byte	0x3
 17416 0547 70       		.byte	0x70
 17417 0548 01       		.sleb128 1
 17418 0549 9F       		.byte	0x9f
 17419 054a C2040000 		.4byte	.LVL192
 17420 054e 00050000 		.4byte	.LVL195
ARM GAS  /var/folders/sv/kgmgr77579zbf78p2zlhkdfr0000gn/T//ccMuP6SP.s 			page 307


 17421 0552 0300     		.2byte	0x3
 17422 0554 77       		.byte	0x77
 17423 0555 01       		.sleb128 1
 17424 0556 9F       		.byte	0x9f
 17425 0557 00050000 		.4byte	.LVL195
 17426 055b 12080000 		.4byte	.LVL232
 17427 055f 0100     		.2byte	0x1
 17428 0561 54       		.byte	0x54
 17429 0562 12080000 		.4byte	.LVL232
 17430 0566 6C080000 		.4byte	.LVL239
 17431 056a 0600     		.2byte	0x6
 17432 056c F3       		.byte	0xf3
 17433 056d 01       		.uleb128 0x1
 17434 056e 50       		.byte	0x50
 17435 056f 23       		.byte	0x23
 17436 0570 01       		.uleb128 0x1
 17437 0571 9F       		.byte	0x9f
 17438 0572 6C080000 		.4byte	.LVL239
 17439 0576 B8080000 		.4byte	.LVL249
 17440 057a 0100     		.2byte	0x1
 17441 057c 54       		.byte	0x54
 17442 057d B8080000 		.4byte	.LVL249
 17443 0581 BC080000 		.4byte	.LVL250
 17444 0585 0300     		.2byte	0x3
 17445 0587 77       		.byte	0x77
 17446 0588 01       		.sleb128 1
 17447 0589 9F       		.byte	0x9f
 17448 058a BC080000 		.4byte	.LVL250
 17449 058e 000D0000 		.4byte	.LVL326
 17450 0592 0600     		.2byte	0x6
 17451 0594 F3       		.byte	0xf3
 17452 0595 01       		.uleb128 0x1
 17453 0596 50       		.byte	0x50
 17454 0597 23       		.byte	0x23
 17455 0598 01       		.uleb128 0x1
 17456 0599 9F       		.byte	0x9f
 17457 059a 000D0000 		.4byte	.LVL326
 17458 059e AA120000 		.4byte	.LVL421
 17459 05a2 0100     		.2byte	0x1
 17460 05a4 54       		.byte	0x54
 17461 05a5 AA120000 		.4byte	.LVL421
 17462 05a9 B0120000 		.4byte	.LVL423
 17463 05ad 0600     		.2byte	0x6
 17464 05af F3       		.byte	0xf3
 17465 05b0 01       		.uleb128 0x1
 17466 05b1 50       		.byte	0x50
 17467 05b2 23       		.byte	0x23
 17468 05b3 01       		.uleb128 0x1
 17469 05b4 9F       		.byte	0x9f
 17470 05b5 B0120000 		.4byte	.LVL423
 17471 05b9 7A130000 		.4byte	.LVL443
 17472 05bd 0100     		.2byte	0x1
 17473 05bf 54       		.byte	0x54
 17474 05c0 7A130000 		.4byte	.LVL443
 17475 05c4 85130000 		.4byte	.LVL444-1
 17476 05c8 0300     		.2byte	0x3
 17477 05ca 70       		.byte	0x70
ARM GAS  /var/folders/sv/kgmgr77579zbf78p2zlhkdfr0000gn/T//ccMuP6SP.s 			page 308


 17478 05cb 01       		.sleb128 1
 17479 05cc 9F       		.byte	0x9f
 17480 05cd 85130000 		.4byte	.LVL444-1
 17481 05d1 C0140000 		.4byte	.LVL477
 17482 05d5 0300     		.2byte	0x3
 17483 05d7 77       		.byte	0x77
 17484 05d8 01       		.sleb128 1
 17485 05d9 9F       		.byte	0x9f
 17486 05da C0140000 		.4byte	.LVL477
 17487 05de E4140000 		.4byte	.LVL481
 17488 05e2 0100     		.2byte	0x1
 17489 05e4 54       		.byte	0x54
 17490 05e5 E4140000 		.4byte	.LVL481
 17491 05e9 FA140000 		.4byte	.LVL485
 17492 05ed 0300     		.2byte	0x3
 17493 05ef 77       		.byte	0x77
 17494 05f0 01       		.sleb128 1
 17495 05f1 9F       		.byte	0x9f
 17496 05f2 FA140000 		.4byte	.LVL485
 17497 05f6 40150000 		.4byte	.LVL492
 17498 05fa 0100     		.2byte	0x1
 17499 05fc 54       		.byte	0x54
 17500 05fd 40150000 		.4byte	.LVL492
 17501 0601 6A150000 		.4byte	.LVL495
 17502 0605 0300     		.2byte	0x3
 17503 0607 77       		.byte	0x77
 17504 0608 01       		.sleb128 1
 17505 0609 9F       		.byte	0x9f
 17506 060a 6A150000 		.4byte	.LVL495
 17507 060e 7E150000 		.4byte	.LVL498
 17508 0612 0100     		.2byte	0x1
 17509 0614 54       		.byte	0x54
 17510 0615 7E150000 		.4byte	.LVL498
 17511 0619 92150000 		.4byte	.LVL500
 17512 061d 0300     		.2byte	0x3
 17513 061f 77       		.byte	0x77
 17514 0620 01       		.sleb128 1
 17515 0621 9F       		.byte	0x9f
 17516 0622 92150000 		.4byte	.LVL500
 17517 0626 34160000 		.4byte	.LVL508
 17518 062a 0100     		.2byte	0x1
 17519 062c 54       		.byte	0x54
 17520 062d 34160000 		.4byte	.LVL508
 17521 0631 3C160000 		.4byte	.LVL509
 17522 0635 0300     		.2byte	0x3
 17523 0637 77       		.byte	0x77
 17524 0638 01       		.sleb128 1
 17525 0639 9F       		.byte	0x9f
 17526 063a 3C160000 		.4byte	.LVL509
 17527 063e 66160000 		.4byte	.LVL515
 17528 0642 0100     		.2byte	0x1
 17529 0644 54       		.byte	0x54
 17530 0645 66160000 		.4byte	.LVL515
 17531 0649 74160000 		.4byte	.LVL517
 17532 064d 0300     		.2byte	0x3
 17533 064f 77       		.byte	0x77
 17534 0650 01       		.sleb128 1
ARM GAS  /var/folders/sv/kgmgr77579zbf78p2zlhkdfr0000gn/T//ccMuP6SP.s 			page 309


 17535 0651 9F       		.byte	0x9f
 17536 0652 74160000 		.4byte	.LVL517
 17537 0656 82160000 		.4byte	.LVL518
 17538 065a 0600     		.2byte	0x6
 17539 065c F3       		.byte	0xf3
 17540 065d 01       		.uleb128 0x1
 17541 065e 50       		.byte	0x50
 17542 065f 23       		.byte	0x23
 17543 0660 01       		.uleb128 0x1
 17544 0661 9F       		.byte	0x9f
 17545 0662 82160000 		.4byte	.LVL518
 17546 0666 8C160000 		.4byte	.LVL520
 17547 066a 0100     		.2byte	0x1
 17548 066c 54       		.byte	0x54
 17549 066d 8C160000 		.4byte	.LVL520
 17550 0671 C6160000 		.4byte	.LVL525
 17551 0675 0300     		.2byte	0x3
 17552 0677 77       		.byte	0x77
 17553 0678 01       		.sleb128 1
 17554 0679 9F       		.byte	0x9f
 17555 067a C6160000 		.4byte	.LVL525
 17556 067e D8160000 		.4byte	.LVL527
 17557 0682 0600     		.2byte	0x6
 17558 0684 F3       		.byte	0xf3
 17559 0685 01       		.uleb128 0x1
 17560 0686 50       		.byte	0x50
 17561 0687 23       		.byte	0x23
 17562 0688 01       		.uleb128 0x1
 17563 0689 9F       		.byte	0x9f
 17564 068a D8160000 		.4byte	.LVL527
 17565 068e 04170000 		.4byte	.LFE260
 17566 0692 0100     		.2byte	0x1
 17567 0694 54       		.byte	0x54
 17568 0695 00000000 		.4byte	0
 17569 0699 00000000 		.4byte	0
 17570              	.LLST27:
 17571 069d 00000000 		.4byte	.LVL89
 17572 06a1 1A000000 		.4byte	.LVL91
 17573 06a5 0100     		.2byte	0x1
 17574 06a7 51       		.byte	0x51
 17575 06a8 1A000000 		.4byte	.LVL91
 17576 06ac 70000000 		.4byte	.LVL92
 17577 06b0 0100     		.2byte	0x1
 17578 06b2 55       		.byte	0x55
 17579 06b3 70000000 		.4byte	.LVL92
 17580 06b7 72000000 		.4byte	.LVL93
 17581 06bb 0100     		.2byte	0x1
 17582 06bd 51       		.byte	0x51
 17583 06be 72000000 		.4byte	.LVL93
 17584 06c2 7C000000 		.4byte	.LVL94
 17585 06c6 0100     		.2byte	0x1
 17586 06c8 55       		.byte	0x55
 17587 06c9 7C000000 		.4byte	.LVL94
 17588 06cd 0C010000 		.4byte	.LVL112
 17589 06d1 0600     		.2byte	0x6
 17590 06d3 F3       		.byte	0xf3
 17591 06d4 01       		.uleb128 0x1
ARM GAS  /var/folders/sv/kgmgr77579zbf78p2zlhkdfr0000gn/T//ccMuP6SP.s 			page 310


 17592 06d5 51       		.byte	0x51
 17593 06d6 31       		.byte	0x31
 17594 06d7 1C       		.byte	0x1c
 17595 06d8 9F       		.byte	0x9f
 17596 06d9 0C010000 		.4byte	.LVL112
 17597 06dd 42010000 		.4byte	.LVL117
 17598 06e1 0100     		.2byte	0x1
 17599 06e3 55       		.byte	0x55
 17600 06e4 42010000 		.4byte	.LVL117
 17601 06e8 55010000 		.4byte	.LVL119-1
 17602 06ec 0300     		.2byte	0x3
 17603 06ee 71       		.byte	0x71
 17604 06ef 7F       		.sleb128 -1
 17605 06f0 9F       		.byte	0x9f
 17606 06f1 55010000 		.4byte	.LVL119-1
 17607 06f5 9C010000 		.4byte	.LVL126
 17608 06f9 0600     		.2byte	0x6
 17609 06fb F3       		.byte	0xf3
 17610 06fc 01       		.uleb128 0x1
 17611 06fd 51       		.byte	0x51
 17612 06fe 31       		.byte	0x31
 17613 06ff 1C       		.byte	0x1c
 17614 0700 9F       		.byte	0x9f
 17615 0701 9C010000 		.4byte	.LVL126
 17616 0705 9E010000 		.4byte	.LVL127
 17617 0709 0100     		.2byte	0x1
 17618 070b 55       		.byte	0x55
 17619 070c 9E010000 		.4byte	.LVL127
 17620 0710 AD010000 		.4byte	.LVL129-1
 17621 0714 0300     		.2byte	0x3
 17622 0716 71       		.byte	0x71
 17623 0717 7F       		.sleb128 -1
 17624 0718 9F       		.byte	0x9f
 17625 0719 AD010000 		.4byte	.LVL129-1
 17626 071d B8010000 		.4byte	.LVL130
 17627 0721 0600     		.2byte	0x6
 17628 0723 F3       		.byte	0xf3
 17629 0724 01       		.uleb128 0x1
 17630 0725 51       		.byte	0x51
 17631 0726 31       		.byte	0x31
 17632 0727 1C       		.byte	0x1c
 17633 0728 9F       		.byte	0x9f
 17634 0729 B8010000 		.4byte	.LVL130
 17635 072d BA010000 		.4byte	.LVL131
 17636 0731 0100     		.2byte	0x1
 17637 0733 55       		.byte	0x55
 17638 0734 BA010000 		.4byte	.LVL131
 17639 0738 CD010000 		.4byte	.LVL133-1
 17640 073c 0300     		.2byte	0x3
 17641 073e 71       		.byte	0x71
 17642 073f 7F       		.sleb128 -1
 17643 0740 9F       		.byte	0x9f
 17644 0741 CD010000 		.4byte	.LVL133-1
 17645 0745 1C020000 		.4byte	.LVL140
 17646 0749 0600     		.2byte	0x6
 17647 074b F3       		.byte	0xf3
 17648 074c 01       		.uleb128 0x1
ARM GAS  /var/folders/sv/kgmgr77579zbf78p2zlhkdfr0000gn/T//ccMuP6SP.s 			page 311


 17649 074d 51       		.byte	0x51
 17650 074e 31       		.byte	0x31
 17651 074f 1C       		.byte	0x1c
 17652 0750 9F       		.byte	0x9f
 17653 0751 1C020000 		.4byte	.LVL140
 17654 0755 26020000 		.4byte	.LVL142
 17655 0759 0100     		.2byte	0x1
 17656 075b 55       		.byte	0x55
 17657 075c 26020000 		.4byte	.LVL142
 17658 0760 C2020000 		.4byte	.LVL155
 17659 0764 0600     		.2byte	0x6
 17660 0766 F3       		.byte	0xf3
 17661 0767 01       		.uleb128 0x1
 17662 0768 51       		.byte	0x51
 17663 0769 31       		.byte	0x31
 17664 076a 1C       		.byte	0x1c
 17665 076b 9F       		.byte	0x9f
 17666 076c C2020000 		.4byte	.LVL155
 17667 0770 D4020000 		.4byte	.LVL158
 17668 0774 0100     		.2byte	0x1
 17669 0776 55       		.byte	0x55
 17670 0777 D4020000 		.4byte	.LVL158
 17671 077b CC030000 		.4byte	.LVL171
 17672 077f 0600     		.2byte	0x6
 17673 0781 F3       		.byte	0xf3
 17674 0782 01       		.uleb128 0x1
 17675 0783 51       		.byte	0x51
 17676 0784 31       		.byte	0x31
 17677 0785 1C       		.byte	0x1c
 17678 0786 9F       		.byte	0x9f
 17679 0787 CC030000 		.4byte	.LVL171
 17680 078b D4030000 		.4byte	.LVL174
 17681 078f 0100     		.2byte	0x1
 17682 0791 55       		.byte	0x55
 17683 0792 D4030000 		.4byte	.LVL174
 17684 0796 6C040000 		.4byte	.LVL186
 17685 079a 0600     		.2byte	0x6
 17686 079c F3       		.byte	0xf3
 17687 079d 01       		.uleb128 0x1
 17688 079e 51       		.byte	0x51
 17689 079f 31       		.byte	0x31
 17690 07a0 1C       		.byte	0x1c
 17691 07a1 9F       		.byte	0x9f
 17692 07a2 6C040000 		.4byte	.LVL186
 17693 07a6 0C050000 		.4byte	.LVL197
 17694 07aa 0100     		.2byte	0x1
 17695 07ac 55       		.byte	0x55
 17696 07ad 0C050000 		.4byte	.LVL197
 17697 07b1 6C080000 		.4byte	.LVL239
 17698 07b5 0600     		.2byte	0x6
 17699 07b7 F3       		.byte	0xf3
 17700 07b8 01       		.uleb128 0x1
 17701 07b9 51       		.byte	0x51
 17702 07ba 31       		.byte	0x31
 17703 07bb 1C       		.byte	0x1c
 17704 07bc 9F       		.byte	0x9f
 17705 07bd 6C080000 		.4byte	.LVL239
ARM GAS  /var/folders/sv/kgmgr77579zbf78p2zlhkdfr0000gn/T//ccMuP6SP.s 			page 312


 17706 07c1 84080000 		.4byte	.LVL241
 17707 07c5 0100     		.2byte	0x1
 17708 07c7 55       		.byte	0x55
 17709 07c8 84080000 		.4byte	.LVL241
 17710 07cc A4080000 		.4byte	.LVL246
 17711 07d0 0600     		.2byte	0x6
 17712 07d2 F3       		.byte	0xf3
 17713 07d3 01       		.uleb128 0x1
 17714 07d4 51       		.byte	0x51
 17715 07d5 31       		.byte	0x31
 17716 07d6 1C       		.byte	0x1c
 17717 07d7 9F       		.byte	0x9f
 17718 07d8 A4080000 		.4byte	.LVL246
 17719 07dc B6080000 		.4byte	.LVL248
 17720 07e0 0100     		.2byte	0x1
 17721 07e2 55       		.byte	0x55
 17722 07e3 B6080000 		.4byte	.LVL248
 17723 07e7 000D0000 		.4byte	.LVL326
 17724 07eb 0600     		.2byte	0x6
 17725 07ed F3       		.byte	0xf3
 17726 07ee 01       		.uleb128 0x1
 17727 07ef 51       		.byte	0x51
 17728 07f0 31       		.byte	0x31
 17729 07f1 1C       		.byte	0x1c
 17730 07f2 9F       		.byte	0x9f
 17731 07f3 000D0000 		.4byte	.LVL326
 17732 07f7 060D0000 		.4byte	.LVL328
 17733 07fb 0100     		.2byte	0x1
 17734 07fd 55       		.byte	0x55
 17735 07fe 060D0000 		.4byte	.LVL328
 17736 0802 B0120000 		.4byte	.LVL423
 17737 0806 0600     		.2byte	0x6
 17738 0808 F3       		.byte	0xf3
 17739 0809 01       		.uleb128 0x1
 17740 080a 51       		.byte	0x51
 17741 080b 31       		.byte	0x31
 17742 080c 1C       		.byte	0x1c
 17743 080d 9F       		.byte	0x9f
 17744 080e B0120000 		.4byte	.LVL423
 17745 0812 76130000 		.4byte	.LVL442
 17746 0816 0100     		.2byte	0x1
 17747 0818 55       		.byte	0x55
 17748 0819 76130000 		.4byte	.LVL442
 17749 081d 85130000 		.4byte	.LVL444-1
 17750 0821 0300     		.2byte	0x3
 17751 0823 71       		.byte	0x71
 17752 0824 7F       		.sleb128 -1
 17753 0825 9F       		.byte	0x9f
 17754 0826 85130000 		.4byte	.LVL444-1
 17755 082a C0140000 		.4byte	.LVL477
 17756 082e 0600     		.2byte	0x6
 17757 0830 F3       		.byte	0xf3
 17758 0831 01       		.uleb128 0x1
 17759 0832 51       		.byte	0x51
 17760 0833 31       		.byte	0x31
 17761 0834 1C       		.byte	0x1c
 17762 0835 9F       		.byte	0x9f
ARM GAS  /var/folders/sv/kgmgr77579zbf78p2zlhkdfr0000gn/T//ccMuP6SP.s 			page 313


 17763 0836 C0140000 		.4byte	.LVL477
 17764 083a BC150000 		.4byte	.LVL501
 17765 083e 0100     		.2byte	0x1
 17766 0840 55       		.byte	0x55
 17767 0841 BC150000 		.4byte	.LVL501
 17768 0845 24160000 		.4byte	.LVL506
 17769 0849 0600     		.2byte	0x6
 17770 084b F3       		.byte	0xf3
 17771 084c 01       		.uleb128 0x1
 17772 084d 51       		.byte	0x51
 17773 084e 31       		.byte	0x31
 17774 084f 1C       		.byte	0x1c
 17775 0850 9F       		.byte	0x9f
 17776 0851 24160000 		.4byte	.LVL506
 17777 0855 34160000 		.4byte	.LVL508
 17778 0859 0100     		.2byte	0x1
 17779 085b 55       		.byte	0x55
 17780 085c 34160000 		.4byte	.LVL508
 17781 0860 44160000 		.4byte	.LVL510
 17782 0864 0600     		.2byte	0x6
 17783 0866 F3       		.byte	0xf3
 17784 0867 01       		.uleb128 0x1
 17785 0868 51       		.byte	0x51
 17786 0869 31       		.byte	0x31
 17787 086a 1C       		.byte	0x1c
 17788 086b 9F       		.byte	0x9f
 17789 086c 44160000 		.4byte	.LVL510
 17790 0870 74160000 		.4byte	.LVL517
 17791 0874 0100     		.2byte	0x1
 17792 0876 55       		.byte	0x55
 17793 0877 74160000 		.4byte	.LVL517
 17794 087b 82160000 		.4byte	.LVL518
 17795 087f 0600     		.2byte	0x6
 17796 0881 F3       		.byte	0xf3
 17797 0882 01       		.uleb128 0x1
 17798 0883 51       		.byte	0x51
 17799 0884 31       		.byte	0x31
 17800 0885 1C       		.byte	0x1c
 17801 0886 9F       		.byte	0x9f
 17802 0887 82160000 		.4byte	.LVL518
 17803 088b 84160000 		.4byte	.LVL519
 17804 088f 0100     		.2byte	0x1
 17805 0891 55       		.byte	0x55
 17806 0892 84160000 		.4byte	.LVL519
 17807 0896 04170000 		.4byte	.LFE260
 17808 089a 0600     		.2byte	0x6
 17809 089c F3       		.byte	0xf3
 17810 089d 01       		.uleb128 0x1
 17811 089e 51       		.byte	0x51
 17812 089f 31       		.byte	0x31
 17813 08a0 1C       		.byte	0x1c
 17814 08a1 9F       		.byte	0x9f
 17815 08a2 00000000 		.4byte	0
 17816 08a6 00000000 		.4byte	0
 17817              	.LLST28:
 17818 08aa 12000000 		.4byte	.LVL90
 17819 08ae 70000000 		.4byte	.LVL92
ARM GAS  /var/folders/sv/kgmgr77579zbf78p2zlhkdfr0000gn/T//ccMuP6SP.s 			page 314


 17820 08b2 0100     		.2byte	0x1
 17821 08b4 58       		.byte	0x58
 17822 08b5 72000000 		.4byte	.LVL93
 17823 08b9 02010000 		.4byte	.LVL111
 17824 08bd 0100     		.2byte	0x1
 17825 08bf 58       		.byte	0x58
 17826 08c0 0C010000 		.4byte	.LVL112
 17827 08c4 36020000 		.4byte	.LVL144
 17828 08c8 0100     		.2byte	0x1
 17829 08ca 58       		.byte	0x58
 17830 08cb C2020000 		.4byte	.LVL155
 17831 08cf D8020000 		.4byte	.LVL159
 17832 08d3 0100     		.2byte	0x1
 17833 08d5 58       		.byte	0x58
 17834 08d6 CC030000 		.4byte	.LVL171
 17835 08da 74160000 		.4byte	.LVL517
 17836 08de 0100     		.2byte	0x1
 17837 08e0 58       		.byte	0x58
 17838 08e1 82160000 		.4byte	.LVL518
 17839 08e5 C6160000 		.4byte	.LVL525
 17840 08e9 0100     		.2byte	0x1
 17841 08eb 58       		.byte	0x58
 17842 08ec 00000000 		.4byte	0
 17843 08f0 00000000 		.4byte	0
 17844              	.LLST29:
 17845 08f4 D8160000 		.4byte	.LVL527
 17846 08f8 E6160000 		.4byte	.LVL528
 17847 08fc 0200     		.2byte	0x2
 17848 08fe 31       		.byte	0x31
 17849 08ff 9F       		.byte	0x9f
 17850 0900 E6160000 		.4byte	.LVL528
 17851 0904 04170000 		.4byte	.LFE260
 17852 0908 0200     		.2byte	0x2
 17853 090a 3A       		.byte	0x3a
 17854 090b 9F       		.byte	0x9f
 17855 090c 00000000 		.4byte	0
 17856 0910 00000000 		.4byte	0
 17857              	.LLST30:
 17858 0914 D2140000 		.4byte	.LVL479
 17859 0918 DC140000 		.4byte	.LVL480
 17860 091c 0100     		.2byte	0x1
 17861 091e 50       		.byte	0x50
 17862 091f 06150000 		.4byte	.LVL487
 17863 0923 10150000 		.4byte	.LVL488
 17864 0927 0100     		.2byte	0x1
 17865 0929 50       		.byte	0x50
 17866 092a 00000000 		.4byte	0
 17867 092e 00000000 		.4byte	0
 17868              	.LLST31:
 17869 0932 C8140000 		.4byte	.LVL478
 17870 0936 D1140000 		.4byte	.LVL479-1
 17871 093a 0100     		.2byte	0x1
 17872 093c 50       		.byte	0x50
 17873 093d 00000000 		.4byte	0
 17874 0941 00000000 		.4byte	0
 17875              	.LLST32:
 17876 0945 88000000 		.4byte	.LVL96
ARM GAS  /var/folders/sv/kgmgr77579zbf78p2zlhkdfr0000gn/T//ccMuP6SP.s 			page 315


 17877 0949 8E000000 		.4byte	.LVL97
 17878 094d 0200     		.2byte	0x2
 17879 094f 90       		.byte	0x90
 17880 0950 40       		.uleb128 0x40
 17881 0951 8E000000 		.4byte	.LVL97
 17882 0955 FC000000 		.4byte	.LVL110
 17883 0959 0200     		.2byte	0x2
 17884 095b 90       		.byte	0x90
 17885 095c 50       		.uleb128 0x50
 17886 095d 3C160000 		.4byte	.LVL509
 17887 0961 44160000 		.4byte	.LVL510
 17888 0965 0200     		.2byte	0x2
 17889 0967 90       		.byte	0x90
 17890 0968 50       		.uleb128 0x50
 17891 0969 00000000 		.4byte	0
 17892 096d 00000000 		.4byte	0
 17893              	.LLST33:
 17894 0971 98000000 		.4byte	.LVL99
 17895 0975 9E000000 		.4byte	.LVL100
 17896 0979 0200     		.2byte	0x2
 17897 097b 90       		.byte	0x90
 17898 097c 40       		.uleb128 0x40
 17899 097d 9E000000 		.4byte	.LVL100
 17900 0981 FC000000 		.4byte	.LVL110
 17901 0985 0200     		.2byte	0x2
 17902 0987 90       		.byte	0x90
 17903 0988 52       		.uleb128 0x52
 17904 0989 3C160000 		.4byte	.LVL509
 17905 098d 44160000 		.4byte	.LVL510
 17906 0991 0200     		.2byte	0x2
 17907 0993 90       		.byte	0x90
 17908 0994 52       		.uleb128 0x52
 17909 0995 00000000 		.4byte	0
 17910 0999 00000000 		.4byte	0
 17911              	.LLST34:
 17912 099d A8000000 		.4byte	.LVL102
 17913 09a1 AE000000 		.4byte	.LVL103
 17914 09a5 0200     		.2byte	0x2
 17915 09a7 90       		.byte	0x90
 17916 09a8 40       		.uleb128 0x40
 17917 09a9 AE000000 		.4byte	.LVL103
 17918 09ad FC000000 		.4byte	.LVL110
 17919 09b1 0200     		.2byte	0x2
 17920 09b3 90       		.byte	0x90
 17921 09b4 51       		.uleb128 0x51
 17922 09b5 3C160000 		.4byte	.LVL509
 17923 09b9 44160000 		.4byte	.LVL510
 17924 09bd 0200     		.2byte	0x2
 17925 09bf 90       		.byte	0x90
 17926 09c0 51       		.uleb128 0x51
 17927 09c1 00000000 		.4byte	0
 17928 09c5 00000000 		.4byte	0
 17929              	.LLST35:
 17930 09c9 B2000000 		.4byte	.LVL104
 17931 09cd C6000000 		.4byte	.LVL105
 17932 09d1 0200     		.2byte	0x2
 17933 09d3 90       		.byte	0x90
ARM GAS  /var/folders/sv/kgmgr77579zbf78p2zlhkdfr0000gn/T//ccMuP6SP.s 			page 316


 17934 09d4 40       		.uleb128 0x40
 17935 09d5 C6000000 		.4byte	.LVL105
 17936 09d9 CB000000 		.4byte	.LVL106-1
 17937 09dd 0200     		.2byte	0x2
 17938 09df 90       		.byte	0x90
 17939 09e0 43       		.uleb128 0x43
 17940 09e1 00000000 		.4byte	0
 17941 09e5 00000000 		.4byte	0
 17942              	.LLST36:
 17943 09e9 CC000000 		.4byte	.LVL106
 17944 09ed EC000000 		.4byte	.LVL108
 17945 09f1 0100     		.2byte	0x1
 17946 09f3 50       		.byte	0x50
 17947 09f4 3C160000 		.4byte	.LVL509
 17948 09f8 44160000 		.4byte	.LVL510
 17949 09fc 0100     		.2byte	0x1
 17950 09fe 50       		.byte	0x50
 17951 09ff 00000000 		.4byte	0
 17952 0a03 00000000 		.4byte	0
 17953              	.LLST37:
 17954 0a07 64040000 		.4byte	.LVL185
 17955 0a0b 6C040000 		.4byte	.LVL186
 17956 0a0f 0100     		.2byte	0x1
 17957 0a11 51       		.byte	0x51
 17958 0a12 00000000 		.4byte	0
 17959 0a16 00000000 		.4byte	0
 17960              	.LLST38:
 17961 0a1a 64040000 		.4byte	.LVL185
 17962 0a1e 6C040000 		.4byte	.LVL186
 17963 0a22 0600     		.2byte	0x6
 17964 0a24 03       		.byte	0x3
 17965 0a25 00000000 		.4byte	send_buffer
 17966 0a29 9F       		.byte	0x9f
 17967 0a2a 00000000 		.4byte	0
 17968 0a2e 00000000 		.4byte	0
 17969              	.LLST39:
 17970 0a32 88010000 		.4byte	.LVL123
 17971 0a36 8E010000 		.4byte	.LVL124
 17972 0a3a 0100     		.2byte	0x1
 17973 0a3c 51       		.byte	0x51
 17974 0a3d 00000000 		.4byte	0
 17975 0a41 00000000 		.4byte	0
 17976              	.LLST40:
 17977 0a45 88010000 		.4byte	.LVL123
 17978 0a49 8E010000 		.4byte	.LVL124
 17979 0a4d 0600     		.2byte	0x6
 17980 0a4f 03       		.byte	0x3
 17981 0a50 00000000 		.4byte	send_buffer
 17982 0a54 9F       		.byte	0x9f
 17983 0a55 00000000 		.4byte	0
 17984 0a59 00000000 		.4byte	0
 17985              	.LLST41:
 17986 0a5d 74020000 		.4byte	.LVL148
 17987 0a61 81020000 		.4byte	.LVL149-1
 17988 0a65 0200     		.2byte	0x2
 17989 0a67 90       		.byte	0x90
 17990 0a68 40       		.uleb128 0x40
ARM GAS  /var/folders/sv/kgmgr77579zbf78p2zlhkdfr0000gn/T//ccMuP6SP.s 			page 317


 17991 0a69 81020000 		.4byte	.LVL149-1
 17992 0a6d C2020000 		.4byte	.LVL155
 17993 0a71 0200     		.2byte	0x2
 17994 0a73 90       		.byte	0x90
 17995 0a74 50       		.uleb128 0x50
 17996 0a75 C6160000 		.4byte	.LVL525
 17997 0a79 D8160000 		.4byte	.LVL527
 17998 0a7d 0200     		.2byte	0x2
 17999 0a7f 90       		.byte	0x90
 18000 0a80 50       		.uleb128 0x50
 18001 0a81 00000000 		.4byte	0
 18002 0a85 00000000 		.4byte	0
 18003              	.LLST42:
 18004 0a89 8E020000 		.4byte	.LVL151
 18005 0a8d A8020000 		.4byte	.LVL153
 18006 0a91 0100     		.2byte	0x1
 18007 0a93 54       		.byte	0x54
 18008 0a94 00000000 		.4byte	0
 18009 0a98 00000000 		.4byte	0
 18010              	.LLST43:
 18011 0a9c C6160000 		.4byte	.LVL525
 18012 0aa0 D8160000 		.4byte	.LVL527
 18013 0aa4 0200     		.2byte	0x2
 18014 0aa6 3A       		.byte	0x3a
 18015 0aa7 9F       		.byte	0x9f
 18016 0aa8 00000000 		.4byte	0
 18017 0aac 00000000 		.4byte	0
 18018              	.LLST44:
 18019 0ab0 C6160000 		.4byte	.LVL525
 18020 0ab4 D8160000 		.4byte	.LVL527
 18021 0ab8 0600     		.2byte	0x6
 18022 0aba 03       		.byte	0x3
 18023 0abb 00000000 		.4byte	send_buffer
 18024 0abf 9F       		.byte	0x9f
 18025 0ac0 00000000 		.4byte	0
 18026 0ac4 00000000 		.4byte	0
 18027              	.LLST45:
 18028 0ac8 28030000 		.4byte	.LVL163
 18029 0acc 33030000 		.4byte	.LVL164-1
 18030 0ad0 0200     		.2byte	0x2
 18031 0ad2 90       		.byte	0x90
 18032 0ad3 40       		.uleb128 0x40
 18033 0ad4 33030000 		.4byte	.LVL164-1
 18034 0ad8 CC030000 		.4byte	.LVL171
 18035 0adc 0200     		.2byte	0x2
 18036 0ade 90       		.byte	0x90
 18037 0adf 50       		.uleb128 0x50
 18038 0ae0 74160000 		.4byte	.LVL517
 18039 0ae4 82160000 		.4byte	.LVL518
 18040 0ae8 0200     		.2byte	0x2
 18041 0aea 90       		.byte	0x90
 18042 0aeb 50       		.uleb128 0x50
 18043 0aec 00000000 		.4byte	0
 18044 0af0 00000000 		.4byte	0
 18045              	.LLST46:
 18046 0af4 74160000 		.4byte	.LVL517
 18047 0af8 82160000 		.4byte	.LVL518
ARM GAS  /var/folders/sv/kgmgr77579zbf78p2zlhkdfr0000gn/T//ccMuP6SP.s 			page 318


 18048 0afc 0100     		.2byte	0x1
 18049 0afe 51       		.byte	0x51
 18050 0aff 00000000 		.4byte	0
 18051 0b03 00000000 		.4byte	0
 18052              	.LLST47:
 18053 0b07 74160000 		.4byte	.LVL517
 18054 0b0b 82160000 		.4byte	.LVL518
 18055 0b0f 0600     		.2byte	0x6
 18056 0b11 03       		.byte	0x3
 18057 0b12 00000000 		.4byte	send_buffer
 18058 0b16 9F       		.byte	0x9f
 18059 0b17 00000000 		.4byte	0
 18060 0b1b 00000000 		.4byte	0
 18061              	.LLST48:
 18062 0b1f 16040000 		.4byte	.LVL179
 18063 0b23 38040000 		.4byte	.LVL182
 18064 0b27 0100     		.2byte	0x1
 18065 0b29 54       		.byte	0x54
 18066 0b2a 34160000 		.4byte	.LVL508
 18067 0b2e 3C160000 		.4byte	.LVL509
 18068 0b32 0100     		.2byte	0x1
 18069 0b34 54       		.byte	0x54
 18070 0b35 00000000 		.4byte	0
 18071 0b39 00000000 		.4byte	0
 18072              	.LLST49:
 18073 0b3d 60080000 		.4byte	.LVL237
 18074 0b41 6C080000 		.4byte	.LVL239
 18075 0b45 0200     		.2byte	0x2
 18076 0b47 31       		.byte	0x31
 18077 0b48 9F       		.byte	0x9f
 18078 0b49 00000000 		.4byte	0
 18079 0b4d 00000000 		.4byte	0
 18080              	.LLST50:
 18081 0b51 60080000 		.4byte	.LVL237
 18082 0b55 6C080000 		.4byte	.LVL239
 18083 0b59 0600     		.2byte	0x6
 18084 0b5b 03       		.byte	0x3
 18085 0b5c 00000000 		.4byte	send_buffer
 18086 0b60 9F       		.byte	0x9f
 18087 0b61 00000000 		.4byte	0
 18088 0b65 00000000 		.4byte	0
 18089              	.LLST51:
 18090 0b69 88080000 		.4byte	.LVL242
 18091 0b6d 90080000 		.4byte	.LVL243
 18092 0b71 0100     		.2byte	0x1
 18093 0b73 50       		.byte	0x50
 18094 0b74 00000000 		.4byte	0
 18095 0b78 00000000 		.4byte	0
 18096              	.LLST52:
 18097 0b7c 94080000 		.4byte	.LVL244
 18098 0b80 97080000 		.4byte	.LVL245-1
 18099 0b84 0700     		.2byte	0x7
 18100 0b86 74       		.byte	0x74
 18101 0b87 00       		.sleb128 0
 18102 0b88 73       		.byte	0x73
 18103 0b89 00       		.sleb128 0
 18104 0b8a 22       		.byte	0x22
ARM GAS  /var/folders/sv/kgmgr77579zbf78p2zlhkdfr0000gn/T//ccMuP6SP.s 			page 319


 18105 0b8b 31       		.byte	0x31
 18106 0b8c 1C       		.byte	0x1c
 18107 0b8d 00000000 		.4byte	0
 18108 0b91 00000000 		.4byte	0
 18109              	.LLST53:
 18110 0b95 84080000 		.4byte	.LVL241
 18111 0b99 A4080000 		.4byte	.LVL246
 18112 0b9d 0100     		.2byte	0x1
 18113 0b9f 55       		.byte	0x55
 18114 0ba0 00000000 		.4byte	0
 18115 0ba4 00000000 		.4byte	0
 18116              	.LLST54:
 18117 0ba8 EE0C0000 		.4byte	.LVL325
 18118 0bac 000D0000 		.4byte	.LVL326
 18119 0bb0 0100     		.2byte	0x1
 18120 0bb2 51       		.byte	0x51
 18121 0bb3 00000000 		.4byte	0
 18122 0bb7 00000000 		.4byte	0
 18123              	.LLST55:
 18124 0bbb EE0C0000 		.4byte	.LVL325
 18125 0bbf 000D0000 		.4byte	.LVL326
 18126 0bc3 0600     		.2byte	0x6
 18127 0bc5 03       		.byte	0x3
 18128 0bc6 00000000 		.4byte	send_buffer
 18129 0bca 9F       		.byte	0x9f
 18130 0bcb 00000000 		.4byte	0
 18131 0bcf 00000000 		.4byte	0
 18132              	.LLST56:
 18133 0bd3 A2120000 		.4byte	.LVL420
 18134 0bd7 AA120000 		.4byte	.LVL421
 18135 0bdb 0200     		.2byte	0x2
 18136 0bdd 31       		.byte	0x31
 18137 0bde 9F       		.byte	0x9f
 18138 0bdf 00000000 		.4byte	0
 18139 0be3 00000000 		.4byte	0
 18140              	.LLST57:
 18141 0be7 A2120000 		.4byte	.LVL420
 18142 0beb AA120000 		.4byte	.LVL421
 18143 0bef 0600     		.2byte	0x6
 18144 0bf1 03       		.byte	0x3
 18145 0bf2 00000000 		.4byte	send_buffer
 18146 0bf6 9F       		.byte	0x9f
 18147 0bf7 00000000 		.4byte	0
 18148 0bfb 00000000 		.4byte	0
 18149              	.LLST58:
 18150 0bff 86150000 		.4byte	.LVL499
 18151 0c03 92150000 		.4byte	.LVL500
 18152 0c07 0200     		.2byte	0x2
 18153 0c09 32       		.byte	0x32
 18154 0c0a 9F       		.byte	0x9f
 18155 0c0b 00000000 		.4byte	0
 18156 0c0f 00000000 		.4byte	0
 18157              	.LLST59:
 18158 0c13 86150000 		.4byte	.LVL499
 18159 0c17 92150000 		.4byte	.LVL500
 18160 0c1b 0600     		.2byte	0x6
 18161 0c1d 03       		.byte	0x3
ARM GAS  /var/folders/sv/kgmgr77579zbf78p2zlhkdfr0000gn/T//ccMuP6SP.s 			page 320


 18162 0c1e 00000000 		.4byte	send_buffer
 18163 0c22 9F       		.byte	0x9f
 18164 0c23 00000000 		.4byte	0
 18165 0c27 00000000 		.4byte	0
 18166              	.LLST60:
 18167 0c2b B4140000 		.4byte	.LVL476
 18168 0c2f C0140000 		.4byte	.LVL477
 18169 0c33 0100     		.2byte	0x1
 18170 0c35 51       		.byte	0x51
 18171 0c36 00000000 		.4byte	0
 18172 0c3a 00000000 		.4byte	0
 18173              	.LLST61:
 18174 0c3e B4140000 		.4byte	.LVL476
 18175 0c42 C0140000 		.4byte	.LVL477
 18176 0c46 0600     		.2byte	0x6
 18177 0c48 03       		.byte	0x3
 18178 0c49 00000000 		.4byte	send_buffer
 18179 0c4d 9F       		.byte	0x9f
 18180 0c4e 00000000 		.4byte	0
 18181 0c52 00000000 		.4byte	0
 18182              	.LLST62:
 18183 0c56 E8140000 		.4byte	.LVL482
 18184 0c5a F2140000 		.4byte	.LVL483
 18185 0c5e 0200     		.2byte	0x2
 18186 0c60 32       		.byte	0x32
 18187 0c61 9F       		.byte	0x9f
 18188 0c62 00000000 		.4byte	0
 18189 0c66 00000000 		.4byte	0
 18190              	.LLST63:
 18191 0c6a E8140000 		.4byte	.LVL482
 18192 0c6e F2140000 		.4byte	.LVL483
 18193 0c72 0600     		.2byte	0x6
 18194 0c74 03       		.byte	0x3
 18195 0c75 00000000 		.4byte	send_buffer
 18196 0c79 9F       		.byte	0x9f
 18197 0c7a 00000000 		.4byte	0
 18198 0c7e 00000000 		.4byte	0
 18199              	.LLST64:
 18200 0c82 1A150000 		.4byte	.LVL489
 18201 0c86 26150000 		.4byte	.LVL490
 18202 0c8a 0200     		.2byte	0x2
 18203 0c8c 32       		.byte	0x32
 18204 0c8d 9F       		.byte	0x9f
 18205 0c8e 00000000 		.4byte	0
 18206 0c92 00000000 		.4byte	0
 18207              	.LLST65:
 18208 0c96 1A150000 		.4byte	.LVL489
 18209 0c9a 26150000 		.4byte	.LVL490
 18210 0c9e 0600     		.2byte	0x6
 18211 0ca0 03       		.byte	0x3
 18212 0ca1 00000000 		.4byte	send_buffer
 18213 0ca5 9F       		.byte	0x9f
 18214 0ca6 00000000 		.4byte	0
 18215 0caa 00000000 		.4byte	0
 18216              	.LLST66:
 18217 0cae 5C150000 		.4byte	.LVL493
 18218 0cb2 6A150000 		.4byte	.LVL495
ARM GAS  /var/folders/sv/kgmgr77579zbf78p2zlhkdfr0000gn/T//ccMuP6SP.s 			page 321


 18219 0cb6 0200     		.2byte	0x2
 18220 0cb8 43       		.byte	0x43
 18221 0cb9 9F       		.byte	0x9f
 18222 0cba 00000000 		.4byte	0
 18223 0cbe 00000000 		.4byte	0
 18224              	.LLST67:
 18225 0cc2 5C150000 		.4byte	.LVL493
 18226 0cc6 6A150000 		.4byte	.LVL495
 18227 0cca 0600     		.2byte	0x6
 18228 0ccc 03       		.byte	0x3
 18229 0ccd 00000000 		.4byte	send_buffer
 18230 0cd1 9F       		.byte	0x9f
 18231 0cd2 00000000 		.4byte	0
 18232 0cd6 00000000 		.4byte	0
 18233              	.LLST68:
 18234 0cda BA160000 		.4byte	.LVL524
 18235 0cde C6160000 		.4byte	.LVL525
 18236 0ce2 0100     		.2byte	0x1
 18237 0ce4 51       		.byte	0x51
 18238 0ce5 00000000 		.4byte	0
 18239 0ce9 00000000 		.4byte	0
 18240              	.LLST69:
 18241 0ced B8160000 		.4byte	.LVL523
 18242 0cf1 C6160000 		.4byte	.LVL525
 18243 0cf5 0600     		.2byte	0x6
 18244 0cf7 03       		.byte	0x3
 18245 0cf8 00000000 		.4byte	send_buffer
 18246 0cfc 9F       		.byte	0x9f
 18247 0cfd 00000000 		.4byte	0
 18248 0d01 00000000 		.4byte	0
 18249              		.section	.debug_aranges,"",%progbits
 18250 0000 74000000 		.4byte	0x74
 18251 0004 0200     		.2byte	0x2
 18252 0006 00000000 		.4byte	.Ldebug_info0
 18253 000a 04       		.byte	0x4
 18254 000b 00       		.byte	0
 18255 000c 0000     		.2byte	0
 18256 000e 0000     		.2byte	0
 18257 0010 00000000 		.4byte	.LFB268
 18258 0014 0C010000 		.4byte	.LFE268-.LFB268
 18259 0018 00000000 		.4byte	.LFB257
 18260 001c 24000000 		.4byte	.LFE257-.LFB257
 18261 0020 00000000 		.4byte	.LFB258
 18262 0024 0C000000 		.4byte	.LFE258-.LFB258
 18263 0028 00000000 		.4byte	.LFB259
 18264 002c 10000000 		.4byte	.LFE259-.LFB259
 18265 0030 00000000 		.4byte	.LFB261
 18266 0034 44000000 		.4byte	.LFE261-.LFB261
 18267 0038 00000000 		.4byte	.LFB262
 18268 003c 40000000 		.4byte	.LFE262-.LFB262
 18269 0040 00000000 		.4byte	.LFB263
 18270 0044 7C000000 		.4byte	.LFE263-.LFB263
 18271 0048 00000000 		.4byte	.LFB264
 18272 004c 0C000000 		.4byte	.LFE264-.LFB264
 18273 0050 00000000 		.4byte	.LFB265
 18274 0054 0C000000 		.4byte	.LFE265-.LFB265
 18275 0058 00000000 		.4byte	.LFB266
ARM GAS  /var/folders/sv/kgmgr77579zbf78p2zlhkdfr0000gn/T//ccMuP6SP.s 			page 322


 18276 005c 34000000 		.4byte	.LFE266-.LFB266
 18277 0060 00000000 		.4byte	.LFB267
 18278 0064 C8020000 		.4byte	.LFE267-.LFB267
 18279 0068 00000000 		.4byte	.LFB260
 18280 006c 04170000 		.4byte	.LFE260-.LFB260
 18281 0070 00000000 		.4byte	0
 18282 0074 00000000 		.4byte	0
 18283              		.section	.debug_ranges,"",%progbits
 18284              	.Ldebug_ranges0:
 18285 0000 04000000 		.4byte	.LBB66
 18286 0004 06000000 		.4byte	.LBE66
 18287 0008 08000000 		.4byte	.LBB70
 18288 000c 20000000 		.4byte	.LBE70
 18289 0010 2C000000 		.4byte	.LBB74
 18290 0014 2E000000 		.4byte	.LBE74
 18291 0018 00000000 		.4byte	0
 18292 001c 00000000 		.4byte	0
 18293 0020 28000000 		.4byte	.LBB71
 18294 0024 2C000000 		.4byte	.LBE71
 18295 0028 32000000 		.4byte	.LBB75
 18296 002c CC000000 		.4byte	.LBE75
 18297 0030 00000000 		.4byte	0
 18298 0034 00000000 		.4byte	0
 18299 0038 20000000 		.4byte	.LBB76
 18300 003c 24000000 		.4byte	.LBE76
 18301 0040 2C000000 		.4byte	.LBB79
 18302 0044 32000000 		.4byte	.LBE79
 18303 0048 00000000 		.4byte	0
 18304 004c 00000000 		.4byte	0
 18305 0050 26000000 		.4byte	.LBB80
 18306 0054 28000000 		.4byte	.LBE80
 18307 0058 2A000000 		.4byte	.LBB83
 18308 005c 32000000 		.4byte	.LBE83
 18309 0060 00000000 		.4byte	0
 18310 0064 00000000 		.4byte	0
 18311 0068 24000000 		.4byte	.LBB84
 18312 006c 26000000 		.4byte	.LBE84
 18313 0070 2E000000 		.4byte	.LBB85
 18314 0074 58000000 		.4byte	.LBE85
 18315 0078 00000000 		.4byte	0
 18316 007c 00000000 		.4byte	0
 18317 0080 18000000 		.4byte	.LBB88
 18318 0084 22000000 		.4byte	.LBE88
 18319 0088 26000000 		.4byte	.LBB91
 18320 008c 34000000 		.4byte	.LBE91
 18321 0090 00000000 		.4byte	0
 18322 0094 00000000 		.4byte	0
 18323 0098 9E020000 		.4byte	.LBB92
 18324 009c A0020000 		.4byte	.LBE92
 18325 00a0 A6020000 		.4byte	.LBB96
 18326 00a4 A8020000 		.4byte	.LBE96
 18327 00a8 B4020000 		.4byte	.LBB97
 18328 00ac BA020000 		.4byte	.LBE97
 18329 00b0 00000000 		.4byte	0
 18330 00b4 00000000 		.4byte	0
 18331 00b8 72000000 		.4byte	.LBB98
 18332 00bc 02010000 		.4byte	.LBE98
ARM GAS  /var/folders/sv/kgmgr77579zbf78p2zlhkdfr0000gn/T//ccMuP6SP.s 			page 323


 18333 00c0 60040000 		.4byte	.LBB118
 18334 00c4 6C040000 		.4byte	.LBE118
 18335 00c8 00000000 		.4byte	0
 18336 00cc 00000000 		.4byte	0
 18337 00d0 60040000 		.4byte	.LBB99
 18338 00d4 62040000 		.4byte	.LBE99
 18339 00d8 64040000 		.4byte	.LBB102
 18340 00dc 6C040000 		.4byte	.LBE102
 18341 00e0 00000000 		.4byte	0
 18342 00e4 00000000 		.4byte	0
 18343 00e8 84010000 		.4byte	.LBB103
 18344 00ec 86010000 		.4byte	.LBE103
 18345 00f0 88010000 		.4byte	.LBB106
 18346 00f4 8E010000 		.4byte	.LBE106
 18347 00f8 00000000 		.4byte	0
 18348 00fc 00000000 		.4byte	0
 18349 0100 3E020000 		.4byte	.LBB109
 18350 0104 C2020000 		.4byte	.LBE109
 18351 0108 C6160000 		.4byte	.LBB173
 18352 010c D8160000 		.4byte	.LBE173
 18353 0110 00000000 		.4byte	0
 18354 0114 00000000 		.4byte	0
 18355 0118 CE020000 		.4byte	.LBB112
 18356 011c CC030000 		.4byte	.LBE112
 18357 0120 74160000 		.4byte	.LBB166
 18358 0124 82160000 		.4byte	.LBE166
 18359 0128 00000000 		.4byte	0
 18360 012c 00000000 		.4byte	0
 18361 0130 92030000 		.4byte	.LBB113
 18362 0134 CC030000 		.4byte	.LBE113
 18363 0138 74160000 		.4byte	.LBB116
 18364 013c 82160000 		.4byte	.LBE116
 18365 0140 00000000 		.4byte	0
 18366 0144 00000000 		.4byte	0
 18367 0148 54080000 		.4byte	.LBB119
 18368 014c 56080000 		.4byte	.LBE119
 18369 0150 58080000 		.4byte	.LBB123
 18370 0154 5A080000 		.4byte	.LBE123
 18371 0158 60080000 		.4byte	.LBB124
 18372 015c 6C080000 		.4byte	.LBE124
 18373 0160 00000000 		.4byte	0
 18374 0164 00000000 		.4byte	0
 18375 0168 EA0C0000 		.4byte	.LBB126
 18376 016c EC0C0000 		.4byte	.LBE126
 18377 0170 EE0C0000 		.4byte	.LBB129
 18378 0174 000D0000 		.4byte	.LBE129
 18379 0178 00000000 		.4byte	0
 18380 017c 00000000 		.4byte	0
 18381 0180 96120000 		.4byte	.LBB130
 18382 0184 98120000 		.4byte	.LBE130
 18383 0188 9A120000 		.4byte	.LBB134
 18384 018c 9C120000 		.4byte	.LBE134
 18385 0190 A4120000 		.4byte	.LBB135
 18386 0194 AA120000 		.4byte	.LBE135
 18387 0198 00000000 		.4byte	0
 18388 019c 00000000 		.4byte	0
 18389 01a0 AA120000 		.4byte	.LBB136
ARM GAS  /var/folders/sv/kgmgr77579zbf78p2zlhkdfr0000gn/T//ccMuP6SP.s 			page 324


 18390 01a4 B0120000 		.4byte	.LBE136
 18391 01a8 76150000 		.4byte	.LBB163
 18392 01ac 78150000 		.4byte	.LBE163
 18393 01b0 7A150000 		.4byte	.LBB164
 18394 01b4 7C150000 		.4byte	.LBE164
 18395 01b8 88150000 		.4byte	.LBB165
 18396 01bc 92150000 		.4byte	.LBE165
 18397 01c0 00000000 		.4byte	0
 18398 01c4 00000000 		.4byte	0
 18399 01c8 B0140000 		.4byte	.LBB141
 18400 01cc B2140000 		.4byte	.LBE141
 18401 01d0 B4140000 		.4byte	.LBB144
 18402 01d4 C0140000 		.4byte	.LBE144
 18403 01d8 00000000 		.4byte	0
 18404 01dc 00000000 		.4byte	0
 18405 01e0 D2140000 		.4byte	.LBB145
 18406 01e4 D4140000 		.4byte	.LBE145
 18407 01e8 D6140000 		.4byte	.LBB149
 18408 01ec D8140000 		.4byte	.LBE149
 18409 01f0 EC140000 		.4byte	.LBB150
 18410 01f4 FA140000 		.4byte	.LBE150
 18411 01f8 00000000 		.4byte	0
 18412 01fc 00000000 		.4byte	0
 18413 0200 06150000 		.4byte	.LBB151
 18414 0204 08150000 		.4byte	.LBE151
 18415 0208 0A150000 		.4byte	.LBB155
 18416 020c 0C150000 		.4byte	.LBE155
 18417 0210 1E150000 		.4byte	.LBB156
 18418 0214 26150000 		.4byte	.LBE156
 18419 0218 00000000 		.4byte	0
 18420 021c 00000000 		.4byte	0
 18421 0220 48150000 		.4byte	.LBB157
 18422 0224 4A150000 		.4byte	.LBE157
 18423 0228 4E150000 		.4byte	.LBB161
 18424 022c 50150000 		.4byte	.LBE161
 18425 0230 5C150000 		.4byte	.LBB162
 18426 0234 6A150000 		.4byte	.LBE162
 18427 0238 00000000 		.4byte	0
 18428 023c 00000000 		.4byte	0
 18429 0240 B0160000 		.4byte	.LBB167
 18430 0244 B2160000 		.4byte	.LBE167
 18431 0248 B4160000 		.4byte	.LBB171
 18432 024c B6160000 		.4byte	.LBE171
 18433 0250 BC160000 		.4byte	.LBB172
 18434 0254 C6160000 		.4byte	.LBE172
 18435 0258 00000000 		.4byte	0
 18436 025c 00000000 		.4byte	0
 18437 0260 00000000 		.4byte	.LFB268
 18438 0264 0C010000 		.4byte	.LFE268
 18439 0268 00000000 		.4byte	.LFB257
 18440 026c 24000000 		.4byte	.LFE257
 18441 0270 00000000 		.4byte	.LFB258
 18442 0274 0C000000 		.4byte	.LFE258
 18443 0278 00000000 		.4byte	.LFB259
 18444 027c 10000000 		.4byte	.LFE259
 18445 0280 00000000 		.4byte	.LFB261
 18446 0284 44000000 		.4byte	.LFE261
ARM GAS  /var/folders/sv/kgmgr77579zbf78p2zlhkdfr0000gn/T//ccMuP6SP.s 			page 325


 18447 0288 00000000 		.4byte	.LFB262
 18448 028c 40000000 		.4byte	.LFE262
 18449 0290 00000000 		.4byte	.LFB263
 18450 0294 7C000000 		.4byte	.LFE263
 18451 0298 00000000 		.4byte	.LFB264
 18452 029c 0C000000 		.4byte	.LFE264
 18453 02a0 00000000 		.4byte	.LFB265
 18454 02a4 0C000000 		.4byte	.LFE265
 18455 02a8 00000000 		.4byte	.LFB266
 18456 02ac 34000000 		.4byte	.LFE266
 18457 02b0 00000000 		.4byte	.LFB267
 18458 02b4 C8020000 		.4byte	.LFE267
 18459 02b8 00000000 		.4byte	.LFB260
 18460 02bc 04170000 		.4byte	.LFE260
 18461 02c0 00000000 		.4byte	0
 18462 02c4 00000000 		.4byte	0
 18463              		.section	.debug_line,"",%progbits
 18464              	.Ldebug_line0:
 18465 0000 3A0B0000 		.section	.debug_str,"MS",%progbits,1
 18465      0200FD03 
 18465      00000201 
 18465      FB0E0D00 
 18465      01010101 
 18466              	.LASF327:
 18467 0000 4348554B 		.ascii	"CHUK_CTRL_TYPE_CURRENT\000"
 18467      5F435452 
 18467      4C5F5459 
 18467      50455F43 
 18467      55525245 
 18468              	.LASF91:
 18469 0017 706F7274 		.ascii	"port_intctx\000"
 18469      5F696E74 
 18469      63747800 
 18470              	.LASF283:
 18471 0023 6374726C 		.ascii	"ctrl_type\000"
 18471      5F747970 
 18471      6500
 18472              	.LASF173:
 18473 002d 6C5F6D61 		.ascii	"l_max_erpm_fbrake\000"
 18473      785F6572 
 18473      706D5F66 
 18473      6272616B 
 18473      6500
 18474              	.LASF169:
 18475 003f 6C5F6162 		.ascii	"l_abs_current_max\000"
 18475      735F6375 
 18475      7272656E 
 18475      745F6D61 
 18475      7800
 18476              	.LASF274:
 18477 0051 50504D5F 		.ascii	"PPM_CTRL_TYPE_NONE\000"
 18477      4354524C 
 18477      5F545950 
 18477      455F4E4F 
 18477      4E4500
 18478              	.LASF455:
 18479 0064 636F6D6D 		.ascii	"commands_printf\000"
ARM GAS  /var/folders/sv/kgmgr77579zbf78p2zlhkdfr0000gn/T//ccMuP6SP.s 			page 326


 18479      616E6473 
 18479      5F707269 
 18479      6E746600 
 18480              	.LASF29:
 18481 0074 6D73675F 		.ascii	"msg_t\000"
 18481      7400
 18482              	.LASF385:
 18483 007a 434F4D4D 		.ascii	"COMM_FW_VERSION\000"
 18483      5F46575F 
 18483      56455253 
 18483      494F4E00 
 18484              	.LASF439:
 18485 008a 464C4153 		.ascii	"FLASH_ERROR_PGA\000"
 18485      485F4552 
 18485      524F525F 
 18485      50474100 
 18486              	.LASF511:
 18487 009a 636F6E66 		.ascii	"conf_general_measure_flux_linkage\000"
 18487      5F67656E 
 18487      6572616C 
 18487      5F6D6561 
 18487      73757265 
 18488              	.LASF413:
 18489 00bc 434F4D4D 		.ascii	"COMM_DETECT_HALL_FOC\000"
 18489      5F444554 
 18489      4543545F 
 18489      48414C4C 
 18489      5F464F43 
 18490              	.LASF438:
 18491 00d1 464C4153 		.ascii	"FLASH_ERROR_PGP\000"
 18491      485F4552 
 18491      524F525F 
 18491      50475000 
 18492              	.LASF437:
 18493 00e1 464C4153 		.ascii	"FLASH_ERROR_PGS\000"
 18493      485F4552 
 18493      524F525F 
 18493      50475300 
 18494              	.LASF215:
 18495 00f1 666F635F 		.ascii	"foc_observer_gain_slow\000"
 18495      6F627365 
 18495      72766572 
 18495      5F676169 
 18495      6E5F736C 
 18496              	.LASF348:
 18497 0108 4E52465F 		.ascii	"NRF_RETR_DELAY_750US\000"
 18497      52455452 
 18497      5F44454C 
 18497      41595F37 
 18497      35305553 
 18498              	.LASF81:
 18499 011d 63685F73 		.ascii	"ch_system_t\000"
 18499      79737465 
 18499      6D5F7400 
 18500              	.LASF3:
 18501 0129 5F5F7569 		.ascii	"__uint8_t\000"
 18501      6E74385F 
ARM GAS  /var/folders/sv/kgmgr77579zbf78p2zlhkdfr0000gn/T//ccMuP6SP.s 			page 327


 18501      7400
 18502              	.LASF98:
 18503 0133 77747365 		.ascii	"wtsemp\000"
 18503      6D7000
 18504              	.LASF285:
 18505 013a 68797374 		.ascii	"hyst\000"
 18505      00
 18506              	.LASF258:
 18507 013f 5F426F6F 		.ascii	"_Bool\000"
 18507      6C00
 18508              	.LASF320:
 18509 0145 63635F62 		.ascii	"cc_button_inverted\000"
 18509      7574746F 
 18509      6E5F696E 
 18509      76657274 
 18509      656400
 18510              	.LASF452:
 18511 0158 636F6D6D 		.ascii	"commands_init\000"
 18511      616E6473 
 18511      5F696E69 
 18511      7400
 18512              	.LASF77:
 18513 0166 76745F73 		.ascii	"vt_systime\000"
 18513      79737469 
 18513      6D6500
 18514              	.LASF253:
 18515 0171 6D5F6472 		.ascii	"m_drv8301_oc_adj\000"
 18515      76383330 
 18515      315F6F63 
 18515      5F61646A 
 18515      00
 18516              	.LASF322:
 18517 0182 766F6C74 		.ascii	"voltage_inverted\000"
 18517      6167655F 
 18517      696E7665 
 18517      72746564 
 18517      00
 18518              	.LASF496:
 18519 0193 73656E64 		.ascii	"send_func\000"
 18519      5F66756E 
 18519      6300
 18520              	.LASF107:
 18521 019d 6D5F6E65 		.ascii	"m_next\000"
 18521      787400
 18522              	.LASF179:
 18523 01a4 6C5F736C 		.ascii	"l_slow_abs_current\000"
 18523      6F775F61 
 18523      62735F63 
 18523      75727265 
 18523      6E7400
 18524              	.LASF463:
 18525 01b7 73616D70 		.ascii	"samples\000"
 18525      6C657300 
 18526              	.LASF168:
 18527 01bf 6C5F696E 		.ascii	"l_in_current_min\000"
 18527      5F637572 
 18527      72656E74 
ARM GAS  /var/folders/sv/kgmgr77579zbf78p2zlhkdfr0000gn/T//ccMuP6SP.s 			page 328


 18527      5F6D696E 
 18527      00
 18528              	.LASF18:
 18529 01d0 75696E74 		.ascii	"uint16_t\000"
 18529      31365F74 
 18529      00
 18530              	.LASF336:
 18531 01d9 4E52465F 		.ascii	"NRF_POWER_M18DBM\000"
 18531      504F5745 
 18531      525F4D31 
 18531      3844424D 
 18531      00
 18532              	.LASF133:
 18533 01ea 44495350 		.ascii	"DISP_POS_MODE_ENCODER\000"
 18533      5F504F53 
 18533      5F4D4F44 
 18533      455F454E 
 18533      434F4445 
 18534              	.LASF442:
 18535 0200 464C4153 		.ascii	"FLASH_ERROR_OPERATION\000"
 18535      485F4552 
 18535      524F525F 
 18535      4F504552 
 18535      4154494F 
 18536              	.LASF433:
 18537 0216 4E52465F 		.ascii	"NRF_PAIR_OK\000"
 18537      50414952 
 18537      5F4F4B00 
 18538              	.LASF242:
 18539 0222 63635F73 		.ascii	"cc_startup_boost_duty\000"
 18539      74617274 
 18539      75705F62 
 18539      6F6F7374 
 18539      5F647574 
 18540              	.LASF131:
 18541 0238 44495350 		.ascii	"DISP_POS_MODE_INDUCTANCE\000"
 18541      5F504F53 
 18541      5F4D4F44 
 18541      455F494E 
 18541      44554354 
 18542              	.LASF58:
 18543 0251 63685F74 		.ascii	"ch_threads_queue\000"
 18543      68726561 
 18543      64735F71 
 18543      75657565 
 18543      00
 18544              	.LASF494:
 18545 0262 64657465 		.ascii	"detect_hall_table\000"
 18545      63745F68 
 18545      616C6C5F 
 18545      7461626C 
 18545      6500
 18546              	.LASF170:
 18547 0274 6C5F6D69 		.ascii	"l_min_erpm\000"
 18547      6E5F6572 
 18547      706D00
 18548              	.LASF497:
ARM GAS  /var/folders/sv/kgmgr77579zbf78p2zlhkdfr0000gn/T//ccMuP6SP.s 			page 329


 18549 027f 73656E64 		.ascii	"send_func_last\000"
 18549      5F66756E 
 18549      635F6C61 
 18549      737400
 18550              	.LASF38:
 18551 028e 705F6E65 		.ascii	"p_newer\000"
 18551      77657200 
 18552              	.LASF160:
 18553 0296 43414E5F 		.ascii	"CAN_BAUD\000"
 18553      42415544 
 18553      00
 18554              	.LASF567:
 18555 029f 666C6173 		.ascii	"flash_helper_write_new_app_data\000"
 18555      685F6865 
 18555      6C706572 
 18555      5F777269 
 18555      74655F6E 
 18556              	.LASF424:
 18557 02bf 6A735F78 		.ascii	"js_x\000"
 18557      00
 18558              	.LASF425:
 18559 02c4 6A735F79 		.ascii	"js_y\000"
 18559      00
 18560              	.LASF296:
 18561 02c9 6D756C74 		.ascii	"multi_esc\000"
 18561      695F6573 
 18561      6300
 18562              	.LASF367:
 18563 02d3 72657472 		.ascii	"retries\000"
 18563      69657300 
 18564              	.LASF305:
 18565 02db 4144435F 		.ascii	"ADC_CTRL_TYPE_CURRENT_NOREV_BRAKE_BUTTON\000"
 18565      4354524C 
 18565      5F545950 
 18565      455F4355 
 18565      5252454E 
 18566              	.LASF347:
 18567 0304 4E52465F 		.ascii	"NRF_RETR_DELAY_500US\000"
 18567      52455452 
 18567      5F44454C 
 18567      41595F35 
 18567      30305553 
 18568              	.LASF339:
 18569 0319 4E52465F 		.ascii	"NRF_POWER_0DBM\000"
 18569      504F5745 
 18569      525F3044 
 18569      424D00
 18570              	.LASF474:
 18571 0328 63687563 		.ascii	"chuck_d_tmp\000"
 18571      6B5F645F 
 18571      746D7000 
 18572              	.LASF498:
 18573 0334 61707064 		.ascii	"appdata_func\000"
 18573      6174615F 
 18573      66756E63 
 18573      00
 18574              	.LASF181:
ARM GAS  /var/folders/sv/kgmgr77579zbf78p2zlhkdfr0000gn/T//ccMuP6SP.s 			page 330


 18575 0341 6C5F7465 		.ascii	"l_temp_fet_end\000"
 18575      6D705F66 
 18575      65745F65 
 18575      6E6400
 18576              	.LASF33:
 18577 0350 74687265 		.ascii	"thread_t\000"
 18577      61645F74 
 18577      00
 18578              	.LASF76:
 18579 0359 63685F76 		.ascii	"ch_virtual_timers_list\000"
 18579      69727475 
 18579      616C5F74 
 18579      696D6572 
 18579      735F6C69 
 18580              	.LASF19:
 18581 0370 696E7433 		.ascii	"int32_t\000"
 18581      325F7400 
 18582              	.LASF32:
 18583 0378 73797374 		.ascii	"systime_t\000"
 18583      696D655F 
 18583      7400
 18584              	.LASF398:
 18585 0382 434F4D4D 		.ascii	"COMM_SET_MCCONF\000"
 18585      5F534554 
 18585      5F4D4343 
 18585      4F4E4600 
 18586              	.LASF142:
 18587 0392 44525638 		.ascii	"DRV8301_OC_LIMIT\000"
 18587      3330315F 
 18587      4F435F4C 
 18587      494D4954 
 18587      00
 18588              	.LASF362:
 18589 03a3 4E52465F 		.ascii	"NRF_RETR_DELAY\000"
 18589      52455452 
 18589      5F44454C 
 18589      415900
 18590              	.LASF112:
 18591 03b2 50574D5F 		.ascii	"PWM_MODE_BIPOLAR\000"
 18591      4D4F4445 
 18591      5F424950 
 18591      4F4C4152 
 18591      00
 18592              	.LASF113:
 18593 03c3 6D635F70 		.ascii	"mc_pwm_mode\000"
 18593      776D5F6D 
 18593      6F646500 
 18594              	.LASF492:
 18595 03cf 64657465 		.ascii	"detect_min_rpm\000"
 18595      63745F6D 
 18595      696E5F72 
 18595      706D00
 18596              	.LASF156:
 18597 03de 43414E5F 		.ascii	"CAN_BAUD_125K\000"
 18597      42415544 
 18597      5F313235 
 18597      4B00
ARM GAS  /var/folders/sv/kgmgr77579zbf78p2zlhkdfr0000gn/T//ccMuP6SP.s 			page 331


 18598              	.LASF381:
 18599 03ec 6170705F 		.ascii	"app_uart_baudrate\000"
 18599      75617274 
 18599      5F626175 
 18599      64726174 
 18599      6500
 18600              	.LASF543:
 18601 03fe 636F6E66 		.ascii	"conf_general_store_mc_configuration\000"
 18601      5F67656E 
 18601      6572616C 
 18601      5F73746F 
 18601      72655F6D 
 18602              	.LASF525:
 18603 0422 6170705F 		.ascii	"app_adc_get_decoded_level\000"
 18603      6164635F 
 18603      6765745F 
 18603      6465636F 
 18603      6465645F 
 18604              	.LASF486:
 18605 043c 64657465 		.ascii	"detect_thread_wa\000"
 18605      63745F74 
 18605      68726561 
 18605      645F7761 
 18605      00
 18606              	.LASF426:
 18607 044d 6163635F 		.ascii	"acc_x\000"
 18607      7800
 18608              	.LASF427:
 18609 0453 6163635F 		.ascii	"acc_y\000"
 18609      7900
 18610              	.LASF428:
 18611 0459 6163635F 		.ascii	"acc_z\000"
 18611      7A00
 18612              	.LASF84:
 18613 045f 76746C69 		.ascii	"vtlist\000"
 18613      737400
 18614              	.LASF269:
 18615 0466 6170705F 		.ascii	"app_use\000"
 18615      75736500 
 18616              	.LASF46:
 18617 046e 705F7761 		.ascii	"p_waiting\000"
 18617      6974696E 
 18617      6700
 18618              	.LASF461:
 18619 0478 696E6465 		.ascii	"index\000"
 18619      7800
 18620              	.LASF478:
 18621 047e 72657369 		.ascii	"resistance\000"
 18621      7374616E 
 18621      636500
 18622              	.LASF414:
 18623 0489 434F4D4D 		.ascii	"COMM_REBOOT\000"
 18623      5F524542 
 18623      4F4F5400 
 18624              	.LASF83:
 18625 0495 726C6973 		.ascii	"rlist\000"
 18625      7400
ARM GAS  /var/folders/sv/kgmgr77579zbf78p2zlhkdfr0000gn/T//ccMuP6SP.s 			page 332


 18626              	.LASF54:
 18627 049b 74687265 		.ascii	"threads_list_t\000"
 18627      6164735F 
 18627      6C697374 
 18627      5F7400
 18628              	.LASF196:
 18629 04aa 736C5F6D 		.ascii	"sl_min_erpm_cycle_int_limit\000"
 18629      696E5F65 
 18629      72706D5F 
 18629      6379636C 
 18629      655F696E 
 18630              	.LASF205:
 18631 04c6 666F635F 		.ascii	"foc_current_ki\000"
 18631      63757272 
 18631      656E745F 
 18631      6B6900
 18632              	.LASF383:
 18633 04d5 6170705F 		.ascii	"app_nrf_conf\000"
 18633      6E72665F 
 18633      636F6E66 
 18633      00
 18634              	.LASF297:
 18635 04e2 74635F6D 		.ascii	"tc_max_diff\000"
 18635      61785F64 
 18635      69666600 
 18636              	.LASF204:
 18637 04ee 666F635F 		.ascii	"foc_current_kp\000"
 18637      63757272 
 18637      656E745F 
 18637      6B7000
 18638              	.LASF457:
 18639 04fd 7072696E 		.ascii	"print_buffer\000"
 18639      745F6275 
 18639      66666572 
 18639      00
 18640              	.LASF337:
 18641 050a 4E52465F 		.ascii	"NRF_POWER_M12DBM\000"
 18641      504F5745 
 18641      525F4D31 
 18641      3244424D 
 18641      00
 18642              	.LASF432:
 18643 051b 4E52465F 		.ascii	"NRF_PAIR_STARTED\000"
 18643      50414952 
 18643      5F535441 
 18643      52544544 
 18643      00
 18644              	.LASF257:
 18645 052c 6D5F6E74 		.ascii	"m_ntc_motor_beta\000"
 18645      635F6D6F 
 18645      746F725F 
 18645      62657461 
 18645      00
 18646              	.LASF523:
 18647 053d 73657276 		.ascii	"servodec_get_last_pulse_len\000"
 18647      6F646563 
 18647      5F676574 
ARM GAS  /var/folders/sv/kgmgr77579zbf78p2zlhkdfr0000gn/T//ccMuP6SP.s 			page 333


 18647      5F6C6173 
 18647      745F7075 
 18648              	.LASF531:
 18649 0559 636F6E66 		.ascii	"conf_general_get_default_app_configuration\000"
 18649      5F67656E 
 18649      6572616C 
 18649      5F676574 
 18649      5F646566 
 18650              	.LASF293:
 18651 0584 7468726F 		.ascii	"throttle_exp_mode\000"
 18651      74746C65 
 18651      5F657870 
 18651      5F6D6F64 
 18651      6500
 18652              	.LASF28:
 18653 0596 74707269 		.ascii	"tprio_t\000"
 18653      6F5F7400 
 18654              	.LASF380:
 18655 059e 6170705F 		.ascii	"app_adc_conf\000"
 18655      6164635F 
 18655      636F6E66 
 18655      00
 18656              	.LASF345:
 18657 05ab 4E52465F 		.ascii	"NRF_CRC\000"
 18657      43524300 
 18658              	.LASF479:
 18659 05b3 6C696E6B 		.ascii	"linkage\000"
 18659      61676500 
 18660              	.LASF317:
 18661 05bb 766F6C74 		.ascii	"voltage2_start\000"
 18661      61676532 
 18661      5F737461 
 18661      727400
 18662              	.LASF122:
 18663 05ca 464F435F 		.ascii	"FOC_SENSOR_MODE_ENCODER\000"
 18663      53454E53 
 18663      4F525F4D 
 18663      4F44455F 
 18663      454E434F 
 18664              	.LASF298:
 18665 05e2 70706D5F 		.ascii	"ppm_config\000"
 18665      636F6E66 
 18665      696700
 18666              	.LASF581:
 18667 05ed 5F5F6469 		.ascii	"__disable_irq\000"
 18667      7361626C 
 18667      655F6972 
 18667      7100
 18668              	.LASF281:
 18669 05fb 50504D5F 		.ascii	"PPM_CTRL_TYPE_PID_NOREV\000"
 18669      4354524C 
 18669      5F545950 
 18669      455F5049 
 18669      445F4E4F 
 18670              	.LASF314:
 18671 0613 766F6C74 		.ascii	"voltage_start\000"
 18671      6167655F 
ARM GAS  /var/folders/sv/kgmgr77579zbf78p2zlhkdfr0000gn/T//ccMuP6SP.s 			page 334


 18671      73746172 
 18671      7400
 18672              	.LASF506:
 18673 0621 76736E70 		.ascii	"vsnprintf\000"
 18673      72696E74 
 18673      6600
 18674              	.LASF144:
 18675 062b 44525638 		.ascii	"DRV8301_OC_REPORT_ONLY\000"
 18675      3330315F 
 18675      4F435F52 
 18675      45504F52 
 18675      545F4F4E 
 18676              	.LASF267:
 18677 0642 4150505F 		.ascii	"APP_NRF\000"
 18677      4E524600 
 18678              	.LASF6:
 18679 064a 5F5F7569 		.ascii	"__uint16_t\000"
 18679      6E743136 
 18679      5F7400
 18680              	.LASF404:
 18681 0655 434F4D4D 		.ascii	"COMM_SAMPLE_PRINT\000"
 18681      5F53414D 
 18681      504C455F 
 18681      5052494E 
 18681      5400
 18682              	.LASF325:
 18683 0667 6164635F 		.ascii	"adc_config\000"
 18683      636F6E66 
 18683      696700
 18684              	.LASF48:
 18685 0672 705F6D73 		.ascii	"p_msg\000"
 18685      6700
 18686              	.LASF246:
 18687 0678 6D5F6661 		.ascii	"m_fault_stop_time_ms\000"
 18687      756C745F 
 18687      73746F70 
 18687      5F74696D 
 18687      655F6D73 
 18688              	.LASF527:
 18689 068d 6170705F 		.ascii	"app_adc_get_decoded_level2\000"
 18689      6164635F 
 18689      6765745F 
 18689      6465636F 
 18689      6465645F 
 18690              	.LASF546:
 18691 06a8 6D635F69 		.ascii	"mc_interface_set_pid_speed\000"
 18691      6E746572 
 18691      66616365 
 18691      5F736574 
 18691      5F706964 
 18692              	.LASF584:
 18693 06c3 6D656D63 		.ascii	"memcpy\000"
 18693      707900
 18694              	.LASF485:
 18695 06ca 6D6F6465 		.ascii	"mode\000"
 18695      00
 18696              	.LASF446:
ARM GAS  /var/folders/sv/kgmgr77579zbf78p2zlhkdfr0000gn/T//ccMuP6SP.s 			page 335


 18697 06cf 5F5F676E 		.ascii	"__gnuc_va_list\000"
 18697      75635F76 
 18697      615F6C69 
 18697      737400
 18698              	.LASF211:
 18699 06de 666F635F 		.ascii	"foc_motor_l\000"
 18699      6D6F746F 
 18699      725F6C00 
 18700              	.LASF212:
 18701 06ea 666F635F 		.ascii	"foc_motor_r\000"
 18701      6D6F746F 
 18701      725F7200 
 18702              	.LASF89:
 18703 06f6 73746B61 		.ascii	"stkalign_t\000"
 18703      6C69676E 
 18703      5F7400
 18704              	.LASF71:
 18705 0701 76745F70 		.ascii	"vt_prev\000"
 18705      72657600 
 18706              	.LASF505:
 18707 0709 63685468 		.ascii	"chThdCreateStatic\000"
 18707      64437265 
 18707      61746553 
 18707      74617469 
 18707      6300
 18708              	.LASF4:
 18709 071b 756E7369 		.ascii	"unsigned char\000"
 18709      676E6564 
 18709      20636861 
 18709      7200
 18710              	.LASF236:
 18711 0729 735F7069 		.ascii	"s_pid_min_erpm\000"
 18711      645F6D69 
 18711      6E5F6572 
 18711      706D00
 18712              	.LASF103:
 18713 0738 735F636E 		.ascii	"s_cnt\000"
 18713      7400
 18714              	.LASF59:
 18715 073e 72656164 		.ascii	"ready_list_t\000"
 18715      795F6C69 
 18715      73745F74 
 18715      00
 18716              	.LASF55:
 18717 074b 63685F74 		.ascii	"ch_thread\000"
 18717      68726561 
 18717      6400
 18718              	.LASF577:
 18719 0755 2F557365 		.ascii	"/Users/moslin/Documents/Project/torque_control\000"
 18719      72732F6D 
 18719      6F736C69 
 18719      6E2F446F 
 18719      63756D65 
 18720              	.LASF0:
 18721 0784 666C6F61 		.ascii	"float\000"
 18721      7400
 18722              	.LASF371:
ARM GAS  /var/folders/sv/kgmgr77579zbf78p2zlhkdfr0000gn/T//ccMuP6SP.s 			page 336


 18723 078a 6E72665F 		.ascii	"nrf_config\000"
 18723      636F6E66 
 18723      696700
 18724              	.LASF338:
 18725 0795 4E52465F 		.ascii	"NRF_POWER_M6DBM\000"
 18725      504F5745 
 18725      525F4D36 
 18725      44424D00 
 18726              	.LASF187:
 18727 07a5 6C5F7761 		.ascii	"l_watt_max\000"
 18727      74745F6D 
 18727      617800
 18728              	.LASF487:
 18729 07b0 64657465 		.ascii	"detect_tp\000"
 18729      63745F74 
 18729      7000
 18730              	.LASF206:
 18731 07ba 666F635F 		.ascii	"foc_f_sw\000"
 18731      665F7377 
 18731      00
 18732              	.LASF271:
 18733 07c3 5448525F 		.ascii	"THR_EXP_NATURAL\000"
 18733      4558505F 
 18733      4E415455 
 18733      52414C00 
 18734              	.LASF289:
 18735 07d3 6D656469 		.ascii	"median_filter\000"
 18735      616E5F66 
 18735      696C7465 
 18735      7200
 18736              	.LASF78:
 18737 07e1 73797374 		.ascii	"system_debug_t\000"
 18737      656D5F64 
 18737      65627567 
 18737      5F7400
 18738              	.LASF180:
 18739 07f0 6C5F7465 		.ascii	"l_temp_fet_start\000"
 18739      6D705F66 
 18739      65745F73 
 18739      74617274 
 18739      00
 18740              	.LASF250:
 18741 0801 6D5F7365 		.ascii	"m_sensor_port_mode\000"
 18741      6E736F72 
 18741      5F706F72 
 18741      745F6D6F 
 18741      646500
 18742              	.LASF491:
 18743 0814 64657465 		.ascii	"detect_current\000"
 18743      63745F63 
 18743      75727265 
 18743      6E7400
 18744              	.LASF323:
 18745 0823 766F6C74 		.ascii	"voltage2_inverted\000"
 18745      61676532 
 18745      5F696E76 
 18745      65727465 
ARM GAS  /var/folders/sv/kgmgr77579zbf78p2zlhkdfr0000gn/T//ccMuP6SP.s 			page 337


 18745      6400
 18746              	.LASF542:
 18747 0835 7574696C 		.ascii	"utils_truncate_number\000"
 18747      735F7472 
 18747      756E6361 
 18747      74655F6E 
 18747      756D6265 
 18748              	.LASF37:
 18749 084b 705F6374 		.ascii	"p_ctx\000"
 18749      7800
 18750              	.LASF74:
 18751 0851 76745F70 		.ascii	"vt_par\000"
 18751      617200
 18752              	.LASF324:
 18753 0858 75706461 		.ascii	"update_rate_hz\000"
 18753      74655F72 
 18753      6174655F 
 18753      687A00
 18754              	.LASF66:
 18755 0867 725F6375 		.ascii	"r_current\000"
 18755      7272656E 
 18755      7400
 18756              	.LASF415:
 18757 0871 434F4D4D 		.ascii	"COMM_ALIVE\000"
 18757      5F414C49 
 18757      564500
 18758              	.LASF162:
 18759 087c 636F6D6D 		.ascii	"comm_mode\000"
 18759      5F6D6F64 
 18759      6500
 18760              	.LASF214:
 18761 0886 666F635F 		.ascii	"foc_observer_gain\000"
 18761      6F627365 
 18761      72766572 
 18761      5F676169 
 18761      6E00
 18762              	.LASF330:
 18763 0898 73746963 		.ascii	"stick_erpm_per_s_in_cc\000"
 18763      6B5F6572 
 18763      706D5F70 
 18763      65725F73 
 18763      5F696E5F 
 18764              	.LASF583:
 18765 08af 636F6D6D 		.ascii	"commands_get_disp_pos_mode\000"
 18765      616E6473 
 18765      5F676574 
 18765      5F646973 
 18765      705F706F 
 18766              	.LASF21:
 18767 08ca 75696E74 		.ascii	"uint64_t\000"
 18767      36345F74 
 18767      00
 18768              	.LASF514:
 18769 08d3 6D637077 		.ascii	"mcpwm_foc_hall_detect\000"
 18769      6D5F666F 
 18769      635F6861 
 18769      6C6C5F64 
ARM GAS  /var/folders/sv/kgmgr77579zbf78p2zlhkdfr0000gn/T//ccMuP6SP.s 			page 338


 18769      65746563 
 18770              	.LASF361:
 18771 08e9 4E52465F 		.ascii	"NRF_RETR_DELAY_4000US\000"
 18771      52455452 
 18771      5F44454C 
 18771      41595F34 
 18771      30303055 
 18772              	.LASF436:
 18773 08ff 464C4153 		.ascii	"FLASH_ERROR_RD\000"
 18773      485F4552 
 18773      524F525F 
 18773      524400
 18774              	.LASF462:
 18775 090e 636F6D6D 		.ascii	"commands_send_experiment_samples\000"
 18775      616E6473 
 18775      5F73656E 
 18775      645F6578 
 18775      70657269 
 18776              	.LASF132:
 18777 092f 44495350 		.ascii	"DISP_POS_MODE_OBSERVER\000"
 18777      5F504F53 
 18777      5F4D4F44 
 18777      455F4F42 
 18777      53455256 
 18778              	.LASF553:
 18779 0946 6D635F69 		.ascii	"mc_interface_read_reset_avg_motor_current\000"
 18779      6E746572 
 18779      66616365 
 18779      5F726561 
 18779      645F7265 
 18780              	.LASF104:
 18781 0970 63685F6D 		.ascii	"ch_mutex\000"
 18781      75746578 
 18781      00
 18782              	.LASF130:
 18783 0979 44495350 		.ascii	"DISP_POS_MODE_NONE\000"
 18783      5F504F53 
 18783      5F4D4F44 
 18783      455F4E4F 
 18783      4E4500
 18784              	.LASF237:
 18785 098c 735F7069 		.ascii	"s_pid_allow_braking\000"
 18785      645F616C 
 18785      6C6F775F 
 18785      6272616B 
 18785      696E6700 
 18786              	.LASF441:
 18787 09a0 464C4153 		.ascii	"FLASH_ERROR_PROGRAM\000"
 18787      485F4552 
 18787      524F525F 
 18787      50524F47 
 18787      52414D00 
 18788              	.LASF572:
 18789 09b4 6170705F 		.ascii	"app_nunchuk_update_output\000"
 18789      6E756E63 
 18789      68756B5F 
 18789      75706461 
ARM GAS  /var/folders/sv/kgmgr77579zbf78p2zlhkdfr0000gn/T//ccMuP6SP.s 			page 339


 18789      74655F6F 
 18790              	.LASF118:
 18791 09ce 53454E53 		.ascii	"SENSOR_MODE_SENSORED\000"
 18791      4F525F4D 
 18791      4F44455F 
 18791      53454E53 
 18791      4F524544 
 18792              	.LASF302:
 18793 09e3 4144435F 		.ascii	"ADC_CTRL_TYPE_CURRENT_REV_BUTTON\000"
 18793      4354524C 
 18793      5F545950 
 18793      455F4355 
 18793      5252454E 
 18794              	.LASF449:
 18795 0a04 76615F6C 		.ascii	"va_list\000"
 18795      69737400 
 18796              	.LASF429:
 18797 0a0c 62745F63 		.ascii	"bt_c\000"
 18797      00
 18798              	.LASF493:
 18799 0a11 64657465 		.ascii	"detect_low_duty\000"
 18799      63745F6C 
 18799      6F775F64 
 18799      75747900 
 18800              	.LASF335:
 18801 0a21 4E52465F 		.ascii	"NRF_SPEED\000"
 18801      53504545 
 18801      4400
 18802              	.LASF295:
 18803 0a2b 72616D70 		.ascii	"ramp_time_neg\000"
 18803      5F74696D 
 18803      655F6E65 
 18803      6700
 18804              	.LASF430:
 18805 0a39 62745F7A 		.ascii	"bt_z\000"
 18805      00
 18806              	.LASF68:
 18807 0a3e 76697274 		.ascii	"virtual_timer_t\000"
 18807      75616C5F 
 18807      74696D65 
 18807      725F7400 
 18808              	.LASF63:
 18809 0a4e 725F6374 		.ascii	"r_ctx\000"
 18809      7800
 18810              	.LASF70:
 18811 0a54 76745F6E 		.ascii	"vt_next\000"
 18811      65787400 
 18812              	.LASF388:
 18813 0a5c 434F4D4D 		.ascii	"COMM_WRITE_NEW_APP_DATA\000"
 18813      5F575249 
 18813      54455F4E 
 18813      45575F41 
 18813      50505F44 
 18814              	.LASF387:
 18815 0a74 434F4D4D 		.ascii	"COMM_ERASE_NEW_APP\000"
 18815      5F455241 
 18815      53455F4E 
ARM GAS  /var/folders/sv/kgmgr77579zbf78p2zlhkdfr0000gn/T//ccMuP6SP.s 			page 340


 18815      45575F41 
 18815      505000
 18816              	.LASF23:
 18817 0a87 7274636E 		.ascii	"rtcnt_t\000"
 18817      745F7400 
 18818              	.LASF119:
 18819 0a8f 53454E53 		.ascii	"SENSOR_MODE_HYBRID\000"
 18819      4F525F4D 
 18819      4F44455F 
 18819      48594252 
 18819      494400
 18820              	.LASF435:
 18821 0aa2 464C4153 		.ascii	"FLASH_BUSY\000"
 18821      485F4255 
 18821      535900
 18822              	.LASF252:
 18823 0aad 6D5F6472 		.ascii	"m_drv8301_oc_mode\000"
 18823      76383330 
 18823      315F6F63 
 18823      5F6D6F64 
 18823      6500
 18824              	.LASF189:
 18825 0abf 6C6F5F63 		.ascii	"lo_current_max\000"
 18825      75727265 
 18825      6E745F6D 
 18825      617800
 18826              	.LASF209:
 18827 0ace 666F635F 		.ascii	"foc_encoder_inverted\000"
 18827      656E636F 
 18827      6465725F 
 18827      696E7665 
 18827      72746564 
 18828              	.LASF243:
 18829 0ae3 63635F6D 		.ascii	"cc_min_current\000"
 18829      696E5F63 
 18829      75727265 
 18829      6E7400
 18830              	.LASF287:
 18831 0af2 70756C73 		.ascii	"pulse_end\000"
 18831      655F656E 
 18831      6400
 18832              	.LASF139:
 18833 0afc 53454E53 		.ascii	"SENSOR_PORT_MODE_ABI\000"
 18833      4F525F50 
 18833      4F52545F 
 18833      4D4F4445 
 18833      5F414249 
 18834              	.LASF303:
 18835 0b11 4144435F 		.ascii	"ADC_CTRL_TYPE_CURRENT_REV_BUTTON_BRAKE_ADC\000"
 18835      4354524C 
 18835      5F545950 
 18835      455F4355 
 18835      5252454E 
 18836              	.LASF301:
 18837 0b3c 4144435F 		.ascii	"ADC_CTRL_TYPE_CURRENT_REV_CENTER\000"
 18837      4354524C 
 18837      5F545950 
ARM GAS  /var/folders/sv/kgmgr77579zbf78p2zlhkdfr0000gn/T//ccMuP6SP.s 			page 341


 18837      455F4355 
 18837      5252454E 
 18838              	.LASF536:
 18839 0b5d 6170705F 		.ascii	"app_set_configuration\000"
 18839      7365745F 
 18839      636F6E66 
 18839      69677572 
 18839      6174696F 
 18840              	.LASF22:
 18841 0b73 73697A65 		.ascii	"size_t\000"
 18841      5F7400
 18842              	.LASF140:
 18843 0b7a 53454E53 		.ascii	"SENSOR_PORT_MODE_AS5047_SPI\000"
 18843      4F525F50 
 18843      4F52545F 
 18843      4D4F4445 
 18843      5F415335 
 18844              	.LASF373:
 18845 0b96 74696D65 		.ascii	"timeout_msec\000"
 18845      6F75745F 
 18845      6D736563 
 18845      00
 18846              	.LASF151:
 18847 0ba3 44454255 		.ascii	"DEBUG_SAMPLING_TRIGGER_FAULT\000"
 18847      475F5341 
 18847      4D504C49 
 18847      4E475F54 
 18847      52494747 
 18848              	.LASF17:
 18849 0bc0 75696E74 		.ascii	"uint8_t\000"
 18849      385F7400 
 18850              	.LASF375:
 18851 0bc8 73656E64 		.ascii	"send_can_status\000"
 18851      5F63616E 
 18851      5F737461 
 18851      74757300 
 18852              	.LASF65:
 18853 0bd8 725F6F6C 		.ascii	"r_older\000"
 18853      64657200 
 18854              	.LASF35:
 18855 0be0 705F7072 		.ascii	"p_prev\000"
 18855      657600
 18856              	.LASF411:
 18857 0be7 434F4D4D 		.ascii	"COMM_DETECT_MOTOR_FLUX_LINKAGE\000"
 18857      5F444554 
 18857      4543545F 
 18857      4D4F544F 
 18857      525F464C 
 18858              	.LASF266:
 18859 0c06 4150505F 		.ascii	"APP_NUNCHUK\000"
 18859      4E554E43 
 18859      48554B00 
 18860              	.LASF194:
 18861 0c12 6C6F5F63 		.ascii	"lo_current_motor_min_now\000"
 18861      75727265 
 18861      6E745F6D 
 18861      6F746F72 
ARM GAS  /var/folders/sv/kgmgr77579zbf78p2zlhkdfr0000gn/T//ccMuP6SP.s 			page 342


 18861      5F6D696E 
 18862              	.LASF176:
 18863 0c2b 6C5F6D61 		.ascii	"l_max_vin\000"
 18863      785F7669 
 18863      6E00
 18864              	.LASF490:
 18865 0c35 64657465 		.ascii	"detect_coupling_k\000"
 18865      63745F63 
 18865      6F75706C 
 18865      696E675F 
 18865      6B00
 18866              	.LASF95:
 18867 0c47 65786974 		.ascii	"exitcode\000"
 18867      636F6465 
 18867      00
 18868              	.LASF370:
 18869 0c50 73656E64 		.ascii	"send_crc_ack\000"
 18869      5F637263 
 18869      5F61636B 
 18869      00
 18870              	.LASF467:
 18871 0c5d 7061636B 		.ascii	"packet_id\000"
 18871      65745F69 
 18871      6400
 18872              	.LASF261:
 18873 0c67 4150505F 		.ascii	"APP_PPM\000"
 18873      50504D00 
 18874              	.LASF554:
 18875 0c6f 6D635F69 		.ascii	"mc_interface_read_reset_avg_input_current\000"
 18875      6E746572 
 18875      66616365 
 18875      5F726561 
 18875      645F7265 
 18876              	.LASF558:
 18877 0c99 6D635F69 		.ascii	"mc_interface_get_rpm\000"
 18877      6E746572 
 18877      66616365 
 18877      5F676574 
 18877      5F72706D 
 18878              	.LASF509:
 18879 0cae 62756666 		.ascii	"buffer_append_uint16\000"
 18879      65725F61 
 18879      7070656E 
 18879      645F7569 
 18879      6E743136 
 18880              	.LASF308:
 18881 0cc3 4144435F 		.ascii	"ADC_CTRL_TYPE_DUTY_REV_CENTER\000"
 18881      4354524C 
 18881      5F545950 
 18881      455F4455 
 18881      54595F52 
 18882              	.LASF282:
 18883 0ce1 70706D5F 		.ascii	"ppm_control_type\000"
 18883      636F6E74 
 18883      726F6C5F 
 18883      74797065 
 18883      00
ARM GAS  /var/folders/sv/kgmgr77579zbf78p2zlhkdfr0000gn/T//ccMuP6SP.s 			page 343


 18884              	.LASF472:
 18885 0cf2 666C6173 		.ascii	"flash_res\000"
 18885      685F7265 
 18885      7300
 18886              	.LASF390:
 18887 0cfc 434F4D4D 		.ascii	"COMM_SET_DUTY\000"
 18887      5F534554 
 18887      5F445554 
 18887      5900
 18888              	.LASF177:
 18889 0d0a 6C5F6261 		.ascii	"l_battery_cut_start\000"
 18889      74746572 
 18889      795F6375 
 18889      745F7374 
 18889      61727400 
 18890              	.LASF135:
 18891 0d1e 44495350 		.ascii	"DISP_POS_MODE_PID_POS_ERROR\000"
 18891      5F504F53 
 18891      5F4D4F44 
 18891      455F5049 
 18891      445F504F 
 18892              	.LASF175:
 18893 0d3a 6C5F6D69 		.ascii	"l_min_vin\000"
 18893      6E5F7669 
 18893      6E00
 18894              	.LASF355:
 18895 0d44 4E52465F 		.ascii	"NRF_RETR_DELAY_2500US\000"
 18895      52455452 
 18895      5F44454C 
 18895      41595F32 
 18895      35303055 
 18896              	.LASF399:
 18897 0d5a 434F4D4D 		.ascii	"COMM_GET_MCCONF\000"
 18897      5F474554 
 18897      5F4D4343 
 18897      4F4E4600 
 18898              	.LASF226:
 18899 0d6a 666F635F 		.ascii	"foc_hall_table\000"
 18899      68616C6C 
 18899      5F746162 
 18899      6C6500
 18900              	.LASF159:
 18901 0d79 43414E5F 		.ascii	"CAN_BAUD_1M\000"
 18901      42415544 
 18901      5F314D00 
 18902              	.LASF557:
 18903 0d85 6D635F69 		.ascii	"mc_interface_get_duty_cycle_now\000"
 18903      6E746572 
 18903      66616365 
 18903      5F676574 
 18903      5F647574 
 18904              	.LASF416:
 18905 0da5 434F4D4D 		.ascii	"COMM_GET_DECODED_PPM\000"
 18905      5F474554 
 18905      5F444543 
 18905      4F444544 
 18905      5F50504D 
ARM GAS  /var/folders/sv/kgmgr77579zbf78p2zlhkdfr0000gn/T//ccMuP6SP.s 			page 344


 18906              	.LASF340:
 18907 0dba 4E52465F 		.ascii	"NRF_POWER_OFF\000"
 18907      504F5745 
 18907      525F4F46 
 18907      4600
 18908              	.LASF134:
 18909 0dc8 44495350 		.ascii	"DISP_POS_MODE_PID_POS\000"
 18909      5F504F53 
 18909      5F4D4F44 
 18909      455F5049 
 18909      445F504F 
 18910              	.LASF128:
 18911 0dde 4D4F544F 		.ascii	"MOTOR_TYPE_FOC\000"
 18911      525F5459 
 18911      50455F46 
 18911      4F4300
 18912              	.LASF195:
 18913 0ded 736C5F6D 		.ascii	"sl_min_erpm\000"
 18913      696E5F65 
 18913      72706D00 
 18914              	.LASF405:
 18915 0df9 434F4D4D 		.ascii	"COMM_TERMINAL_CMD\000"
 18915      5F544552 
 18915      4D494E41 
 18915      4C5F434D 
 18915      4400
 18916              	.LASF248:
 18917 0e0b 6D5F6375 		.ascii	"m_current_backoff_gain\000"
 18917      7272656E 
 18917      745F6261 
 18917      636B6F66 
 18917      665F6761 
 18918              	.LASF538:
 18919 0e22 63685468 		.ascii	"chThdSleep\000"
 18919      64536C65 
 18919      657000
 18920              	.LASF251:
 18921 0e2d 6D5F696E 		.ascii	"m_invert_direction\000"
 18921      76657274 
 18921      5F646972 
 18921      65637469 
 18921      6F6E00
 18922              	.LASF507:
 18923 0e40 62756666 		.ascii	"buffer_append_uint32\000"
 18923      65725F61 
 18923      7070656E 
 18923      645F7569 
 18923      6E743332 
 18924              	.LASF419:
 18925 0e55 434F4D4D 		.ascii	"COMM_FORWARD_CAN\000"
 18925      5F464F52 
 18925      57415244 
 18925      5F43414E 
 18925      00
 18926              	.LASF94:
 18927 0e66 7264796D 		.ascii	"rdymsg\000"
 18927      736700
ARM GAS  /var/folders/sv/kgmgr77579zbf78p2zlhkdfr0000gn/T//ccMuP6SP.s 			page 345


 18928              	.LASF186:
 18929 0e6d 6C5F6D61 		.ascii	"l_max_duty\000"
 18929      785F6475 
 18929      747900
 18930              	.LASF408:
 18931 0e78 434F4D4D 		.ascii	"COMM_EXPERIMENT_SAMPLE\000"
 18931      5F455850 
 18931      4552494D 
 18931      454E545F 
 18931      53414D50 
 18932              	.LASF468:
 18933 0e8f 61707063 		.ascii	"appconf\000"
 18933      6F6E6600 
 18934              	.LASF149:
 18935 0e97 44454255 		.ascii	"DEBUG_SAMPLING_START\000"
 18935      475F5341 
 18935      4D504C49 
 18935      4E475F53 
 18935      54415254 
 18936              	.LASF512:
 18937 0eac 62756666 		.ascii	"buffer_append_float32\000"
 18937      65725F61 
 18937      7070656E 
 18937      645F666C 
 18937      6F617433 
 18938              	.LASF36:
 18939 0ec2 705F7072 		.ascii	"p_prio\000"
 18939      696F00
 18940              	.LASF565:
 18941 0ec9 6D635F69 		.ascii	"mc_interface_get_fault\000"
 18941      6E746572 
 18941      66616365 
 18941      5F676574 
 18941      5F666175 
 18942              	.LASF13:
 18943 0ee0 5F5F7569 		.ascii	"__uint64_t\000"
 18943      6E743634 
 18943      5F7400
 18944              	.LASF126:
 18945 0eeb 4D4F544F 		.ascii	"MOTOR_TYPE_ATC\000"
 18945      525F5459 
 18945      50455F41 
 18945      544300
 18946              	.LASF359:
 18947 0efa 4E52465F 		.ascii	"NRF_RETR_DELAY_3500US\000"
 18947      52455452 
 18947      5F44454C 
 18947      41595F33 
 18947      35303055 
 18948              	.LASF227:
 18949 0f10 666F635F 		.ascii	"foc_sl_erpm\000"
 18949      736C5F65 
 18949      72706D00 
 18950              	.LASF521:
 18951 0f1c 74696D65 		.ascii	"timeout_reset\000"
 18951      6F75745F 
 18951      72657365 
ARM GAS  /var/folders/sv/kgmgr77579zbf78p2zlhkdfr0000gn/T//ccMuP6SP.s 			page 346


 18951      7400
 18952              	.LASF369:
 18953 0f2a 61646472 		.ascii	"address\000"
 18953      65737300 
 18954              	.LASF199:
 18955 0f32 736C5F70 		.ascii	"sl_phase_advance_at_br\000"
 18955      68617365 
 18955      5F616476 
 18955      616E6365 
 18955      5F61745F 
 18956              	.LASF304:
 18957 0f49 4144435F 		.ascii	"ADC_CTRL_TYPE_CURRENT_NOREV_BRAKE_CENTER\000"
 18957      4354524C 
 18957      5F545950 
 18957      455F4355 
 18957      5252454E 
 18958              	.LASF34:
 18959 0f72 705F6E65 		.ascii	"p_next\000"
 18959      787400
 18960              	.LASF534:
 18961 0f79 62756666 		.ascii	"buffer_get_float32_auto\000"
 18961      65725F67 
 18961      65745F66 
 18961      6C6F6174 
 18961      33325F61 
 18962              	.LASF368:
 18963 0f91 6368616E 		.ascii	"channel\000"
 18963      6E656C00 
 18964              	.LASF513:
 18965 0f99 6D635F69 		.ascii	"mc_interface_set_configuration\000"
 18965      6E746572 
 18965      66616365 
 18965      5F736574 
 18965      5F636F6E 
 18966              	.LASF244:
 18967 0fb8 63635F67 		.ascii	"cc_gain\000"
 18967      61696E00 
 18968              	.LASF351:
 18969 0fc0 4E52465F 		.ascii	"NRF_RETR_DELAY_1500US\000"
 18969      52455452 
 18969      5F44454C 
 18969      41595F31 
 18969      35303055 
 18970              	.LASF26:
 18971 0fd6 74726566 		.ascii	"trefs_t\000"
 18971      735F7400 
 18972              	.LASF576:
 18973 0fde 636F6D6D 		.ascii	"commands.c\000"
 18973      616E6473 
 18973      2E6300
 18974              	.LASF52:
 18975 0fe9 705F6D70 		.ascii	"p_mpool\000"
 18975      6F6F6C00 
 18976              	.LASF161:
 18977 0ff1 70776D5F 		.ascii	"pwm_mode\000"
 18977      6D6F6465 
 18977      00
ARM GAS  /var/folders/sv/kgmgr77579zbf78p2zlhkdfr0000gn/T//ccMuP6SP.s 			page 347


 18978              	.LASF309:
 18979 0ffa 4144435F 		.ascii	"ADC_CTRL_TYPE_DUTY_REV_BUTTON\000"
 18979      4354524C 
 18979      5F545950 
 18979      455F4455 
 18979      54595F52 
 18980              	.LASF163:
 18981 1018 6D6F746F 		.ascii	"motor_type\000"
 18981      725F7479 
 18981      706500
 18982              	.LASF190:
 18983 1023 6C6F5F63 		.ascii	"lo_current_min\000"
 18983      75727265 
 18983      6E745F6D 
 18983      696E00
 18984              	.LASF197:
 18985 1032 736C5F6D 		.ascii	"sl_max_fullbreak_current_dir_change\000"
 18985      61785F66 
 18985      756C6C62 
 18985      7265616B 
 18985      5F637572 
 18986              	.LASF489:
 18987 1056 64657465 		.ascii	"detect_cycle_int_limit\000"
 18987      63745F63 
 18987      79636C65 
 18987      5F696E74 
 18987      5F6C696D 
 18988              	.LASF24:
 18989 106d 746D6F64 		.ascii	"tmode_t\000"
 18989      655F7400 
 18990              	.LASF223:
 18991 1075 666F635F 		.ascii	"foc_sl_d_current_duty\000"
 18991      736C5F64 
 18991      5F637572 
 18991      72656E74 
 18991      5F647574 
 18992              	.LASF356:
 18993 108b 4E52465F 		.ascii	"NRF_RETR_DELAY_2750US\000"
 18993      52455452 
 18993      5F44454C 
 18993      41595F32 
 18993      37353055 
 18994              	.LASF202:
 18995 10a1 68616C6C 		.ascii	"hall_table\000"
 18995      5F746162 
 18995      6C6500
 18996              	.LASF566:
 18997 10ac 6D635F69 		.ascii	"mc_interface_get_pid_pos_now\000"
 18997      6E746572 
 18997      66616365 
 18997      5F676574 
 18997      5F706964 
 18998              	.LASF480:
 18999 10c9 68616C6C 		.ascii	"hall_tab\000"
 18999      5F746162 
 18999      00
 19000              	.LASF154:
ARM GAS  /var/folders/sv/kgmgr77579zbf78p2zlhkdfr0000gn/T//ccMuP6SP.s 			page 348


 19001 10d2 44454255 		.ascii	"DEBUG_SAMPLING_SEND_LAST_SAMPLES\000"
 19001      475F5341 
 19001      4D504C49 
 19001      4E475F53 
 19001      454E445F 
 19002              	.LASF127:
 19003 10f3 4D4F544F 		.ascii	"MOTOR_TYPE_DC\000"
 19003      525F5459 
 19003      50455F44 
 19003      4300
 19004              	.LASF352:
 19005 1101 4E52465F 		.ascii	"NRF_RETR_DELAY_1750US\000"
 19005      52455452 
 19005      5F44454C 
 19005      41595F31 
 19005      37353055 
 19006              	.LASF503:
 19007 1117 636F6E66 		.ascii	"conf_general_detect_motor_param\000"
 19007      5F67656E 
 19007      6572616C 
 19007      5F646574 
 19007      6563745F 
 19008              	.LASF275:
 19009 1137 50504D5F 		.ascii	"PPM_CTRL_TYPE_CURRENT\000"
 19009      4354524C 
 19009      5F545950 
 19009      455F4355 
 19009      5252454E 
 19010              	.LASF382:
 19011 114d 6170705F 		.ascii	"app_chuk_conf\000"
 19011      6368756B 
 19011      5F636F6E 
 19011      6600
 19012              	.LASF213:
 19013 115b 666F635F 		.ascii	"foc_motor_flux_linkage\000"
 19013      6D6F746F 
 19013      725F666C 
 19013      75785F6C 
 19013      696E6B61 
 19014              	.LASF434:
 19015 1172 4E52465F 		.ascii	"NRF_PAIR_FAIL\000"
 19015      50414952 
 19015      5F464149 
 19015      4C00
 19016              	.LASF198:
 19017 1180 736C5F63 		.ascii	"sl_cycle_int_limit\000"
 19017      79636C65 
 19017      5F696E74 
 19017      5F6C696D 
 19017      697400
 19018              	.LASF16:
 19019 1193 696E7438 		.ascii	"int8_t\000"
 19019      5F7400
 19020              	.LASF397:
 19021 119a 434F4D4D 		.ascii	"COMM_SET_SERVO_POS\000"
 19021      5F534554 
 19021      5F534552 
ARM GAS  /var/folders/sv/kgmgr77579zbf78p2zlhkdfr0000gn/T//ccMuP6SP.s 			page 349


 19021      564F5F50 
 19021      4F5300
 19022              	.LASF80:
 19023 11ad 70616E69 		.ascii	"panic_msg\000"
 19023      635F6D73 
 19023      6700
 19024              	.LASF374:
 19025 11b7 74696D65 		.ascii	"timeout_brake_current\000"
 19025      6F75745F 
 19025      6272616B 
 19025      655F6375 
 19025      7272656E 
 19026              	.LASF64:
 19027 11cd 725F6E65 		.ascii	"r_newer\000"
 19027      77657200 
 19028              	.LASF391:
 19029 11d5 434F4D4D 		.ascii	"COMM_SET_CURRENT\000"
 19029      5F534554 
 19029      5F435552 
 19029      52454E54 
 19029      00
 19030              	.LASF555:
 19031 11e6 6D635F69 		.ascii	"mc_interface_read_reset_avg_id\000"
 19031      6E746572 
 19031      66616365 
 19031      5F726561 
 19031      645F7265 
 19032              	.LASF423:
 19033 1205 434F4D4D 		.ascii	"COMM_PACKET_ID\000"
 19033      5F504143 
 19033      4B45545F 
 19033      494400
 19034              	.LASF270:
 19035 1214 5448525F 		.ascii	"THR_EXP_EXPO\000"
 19035      4558505F 
 19035      4558504F 
 19035      00
 19036              	.LASF27:
 19037 1221 74736C69 		.ascii	"tslices_t\000"
 19037      6365735F 
 19037      7400
 19038              	.LASF288:
 19039 122b 70756C73 		.ascii	"pulse_center\000"
 19039      655F6365 
 19039      6E746572 
 19039      00
 19040              	.LASF571:
 19041 1238 62756666 		.ascii	"buffer_get_int16\000"
 19041      65725F67 
 19041      65745F69 
 19041      6E743136 
 19041      00
 19042              	.LASF312:
 19043 1249 4144435F 		.ascii	"ADC_CTRL_TYPE_PID_REV_BUTTON\000"
 19043      4354524C 
 19043      5F545950 
 19043      455F5049 
ARM GAS  /var/folders/sv/kgmgr77579zbf78p2zlhkdfr0000gn/T//ccMuP6SP.s 			page 350


 19043      445F5245 
 19044              	.LASF72:
 19045 1266 76745F64 		.ascii	"vt_delta\000"
 19045      656C7461 
 19045      00
 19046              	.LASF87:
 19047 126f 73697A65 		.ascii	"sizetype\000"
 19047      74797065 
 19047      00
 19048              	.LASF7:
 19049 1278 73686F72 		.ascii	"short unsigned int\000"
 19049      7420756E 
 19049      7369676E 
 19049      65642069 
 19049      6E7400
 19050              	.LASF1:
 19051 128b 7369676E 		.ascii	"signed char\000"
 19051      65642063 
 19051      68617200 
 19052              	.LASF378:
 19053 1297 6170705F 		.ascii	"app_to_use\000"
 19053      746F5F75 
 19053      736500
 19054              	.LASF552:
 19055 12a2 6D635F69 		.ascii	"mc_interface_temp_motor_filtered\000"
 19055      6E746572 
 19055      66616365 
 19055      5F74656D 
 19055      705F6D6F 
 19056              	.LASF44:
 19057 12c3 705F7072 		.ascii	"p_preempt\000"
 19057      65656D70 
 19057      7400
 19058              	.LASF171:
 19059 12cd 6C5F6D61 		.ascii	"l_max_erpm\000"
 19059      785F6572 
 19059      706D00
 19060              	.LASF45:
 19061 12d8 705F7469 		.ascii	"p_time\000"
 19061      6D6500
 19062              	.LASF475:
 19063 12df 63757272 		.ascii	"current\000"
 19063      656E7400 
 19064              	.LASF539:
 19065 12e7 7465726D 		.ascii	"terminal_process_string\000"
 19065      696E616C 
 19065      5F70726F 
 19065      63657373 
 19065      5F737472 
 19066              	.LASF273:
 19067 12ff 7468725F 		.ascii	"thr_exp_mode\000"
 19067      6578705F 
 19067      6D6F6465 
 19067      00
 19068              	.LASF551:
 19069 130c 62756666 		.ascii	"buffer_append_float16\000"
 19069      65725F61 
ARM GAS  /var/folders/sv/kgmgr77579zbf78p2zlhkdfr0000gn/T//ccMuP6SP.s 			page 351


 19069      7070656E 
 19069      645F666C 
 19069      6F617431 
 19070              	.LASF541:
 19071 1322 62756666 		.ascii	"buffer_get_int32\000"
 19071      65725F67 
 19071      65745F69 
 19071      6E743332 
 19071      00
 19072              	.LASF570:
 19073 1333 6E72665F 		.ascii	"nrf_driver_start_pairing\000"
 19073      64726976 
 19073      65725F73 
 19073      74617274 
 19073      5F706169 
 19074              	.LASF379:
 19075 134c 6170705F 		.ascii	"app_ppm_conf\000"
 19075      70706D5F 
 19075      636F6E66 
 19075      00
 19076              	.LASF464:
 19077 1359 636F6D6D 		.ascii	"commands_set_app_data_handler\000"
 19077      616E6473 
 19077      5F736574 
 19077      5F617070 
 19077      5F646174 
 19078              	.LASF47:
 19079 1377 705F6D73 		.ascii	"p_msgqueue\000"
 19079      67717565 
 19079      756500
 19080              	.LASF495:
 19081 1382 64657465 		.ascii	"detect_hall_res\000"
 19081      63745F68 
 19081      616C6C5F 
 19081      72657300 
 19082              	.LASF219:
 19083 1392 666F635F 		.ascii	"foc_duty_dowmramp_ki\000"
 19083      64757479 
 19083      5F646F77 
 19083      6D72616D 
 19083      705F6B69 
 19084              	.LASF346:
 19085 13a7 4E52465F 		.ascii	"NRF_RETR_DELAY_250US\000"
 19085      52455452 
 19085      5F44454C 
 19085      41595F32 
 19085      35305553 
 19086              	.LASF106:
 19087 13bc 6D5F6F77 		.ascii	"m_owner\000"
 19087      6E657200 
 19088              	.LASF218:
 19089 13c4 666F635F 		.ascii	"foc_duty_dowmramp_kp\000"
 19089      64757479 
 19089      5F646F77 
 19089      6D72616D 
 19089      705F6B70 
 19090              	.LASF582:
ARM GAS  /var/folders/sv/kgmgr77579zbf78p2zlhkdfr0000gn/T//ccMuP6SP.s 			page 352


 19091 13d9 64657465 		.ascii	"detect_thread\000"
 19091      63745F74 
 19091      68726561 
 19091      6400
 19092              	.LASF172:
 19093 13e7 6C5F6572 		.ascii	"l_erpm_start\000"
 19093      706D5F73 
 19093      74617274 
 19093      00
 19094              	.LASF528:
 19095 13f4 6170705F 		.ascii	"app_adc_get_voltage2\000"
 19095      6164635F 
 19095      6765745F 
 19095      766F6C74 
 19095      61676532 
 19096              	.LASF82:
 19097 1409 63685F73 		.ascii	"ch_system\000"
 19097      79737465 
 19097      6D00
 19098              	.LASF165:
 19099 1413 6C5F6375 		.ascii	"l_current_max\000"
 19099      7272656E 
 19099      745F6D61 
 19099      7800
 19100              	.LASF454:
 19101 1421 66756E63 		.ascii	"func\000"
 19101      00
 19102              	.LASF332:
 19103 1426 4E52465F 		.ascii	"NRF_SPEED_250K\000"
 19103      53504545 
 19103      445F3235 
 19103      304B00
 19104              	.LASF101:
 19105 1435 63685F73 		.ascii	"ch_semaphore\000"
 19105      656D6170 
 19105      686F7265 
 19105      00
 19106              	.LASF277:
 19107 1442 50504D5F 		.ascii	"PPM_CTRL_TYPE_CURRENT_NOREV_BRAKE\000"
 19107      4354524C 
 19107      5F545950 
 19107      455F4355 
 19107      5252454E 
 19108              	.LASF328:
 19109 1464 4348554B 		.ascii	"CHUK_CTRL_TYPE_CURRENT_NOREV\000"
 19109      5F435452 
 19109      4C5F5459 
 19109      50455F43 
 19109      55525245 
 19110              	.LASF326:
 19111 1481 4348554B 		.ascii	"CHUK_CTRL_TYPE_NONE\000"
 19111      5F435452 
 19111      4C5F5459 
 19111      50455F4E 
 19111      4F4E4500 
 19112              	.LASF57:
 19113 1495 74687265 		.ascii	"threads_queue_t\000"
ARM GAS  /var/folders/sv/kgmgr77579zbf78p2zlhkdfr0000gn/T//ccMuP6SP.s 			page 353


 19113      6164735F 
 19113      71756575 
 19113      655F7400 
 19114              	.LASF138:
 19115 14a5 53454E53 		.ascii	"SENSOR_PORT_MODE_HALL\000"
 19115      4F525F50 
 19115      4F52545F 
 19115      4D4F4445 
 19115      5F48414C 
 19116              	.LASF365:
 19117 14bb 6372635F 		.ascii	"crc_type\000"
 19117      74797065 
 19117      00
 19118              	.LASF501:
 19119 14c4 4144435F 		.ascii	"ADC_Value\000"
 19119      56616C75 
 19119      6500
 19120              	.LASF121:
 19121 14ce 464F435F 		.ascii	"FOC_SENSOR_MODE_SENSORLESS\000"
 19121      53454E53 
 19121      4F525F4D 
 19121      4F44455F 
 19121      53454E53 
 19122              	.LASF43:
 19123 14e9 705F7265 		.ascii	"p_refs\000"
 19123      667300
 19124              	.LASF329:
 19125 14f0 6368756B 		.ascii	"chuk_control_type\000"
 19125      5F636F6E 
 19125      74726F6C 
 19125      5F747970 
 19125      6500
 19126              	.LASF548:
 19127 1502 6D635F69 		.ascii	"mc_interface_set_current\000"
 19127      6E746572 
 19127      66616365 
 19127      5F736574 
 19127      5F637572 
 19128              	.LASF120:
 19129 151b 6D635F73 		.ascii	"mc_sensor_mode\000"
 19129      656E736F 
 19129      725F6D6F 
 19129      646500
 19130              	.LASF9:
 19131 152a 6C6F6E67 		.ascii	"long int\000"
 19131      20696E74 
 19131      00
 19132              	.LASF85:
 19133 1533 6D61696E 		.ascii	"mainthread\000"
 19133      74687265 
 19133      616400
 19134              	.LASF105:
 19135 153e 6D5F7175 		.ascii	"m_queue\000"
 19135      65756500 
 19136              	.LASF396:
 19137 1546 434F4D4D 		.ascii	"COMM_SET_DETECT\000"
 19137      5F534554 
ARM GAS  /var/folders/sv/kgmgr77579zbf78p2zlhkdfr0000gn/T//ccMuP6SP.s 			page 354


 19137      5F444554 
 19137      45435400 
 19138              	.LASF456:
 19139 1556 666F726D 		.ascii	"format\000"
 19139      617400
 19140              	.LASF386:
 19141 155d 434F4D4D 		.ascii	"COMM_JUMP_TO_BOOTLOADER\000"
 19141      5F4A554D 
 19141      505F544F 
 19141      5F424F4F 
 19141      544C4F41 
 19142              	.LASF114:
 19143 1575 434F4D4D 		.ascii	"COMM_MODE_INTEGRATE\000"
 19143      5F4D4F44 
 19143      455F494E 
 19143      54454752 
 19143      41544500 
 19144              	.LASF291:
 19145 1589 7468726F 		.ascii	"throttle_exp\000"
 19145      74746C65 
 19145      5F657870 
 19145      00
 19146              	.LASF280:
 19147 1596 50504D5F 		.ascii	"PPM_CTRL_TYPE_PID\000"
 19147      4354524C 
 19147      5F545950 
 19147      455F5049 
 19147      4400
 19148              	.LASF97:
 19149 15a8 77747472 		.ascii	"wttrp\000"
 19149      7000
 19150              	.LASF90:
 19151 15ae 636F6E74 		.ascii	"context\000"
 19151      65787400 
 19152              	.LASF519:
 19153 15b6 6D635F69 		.ascii	"mc_interface_sample_print_data\000"
 19153      6E746572 
 19153      66616365 
 19153      5F73616D 
 19153      706C655F 
 19154              	.LASF473:
 19155 15d5 6E65775F 		.ascii	"new_app_offset\000"
 19155      6170705F 
 19155      6F666673 
 19155      657400
 19156              	.LASF540:
 19157 15e4 636F6E66 		.ascii	"conf_general_get_default_mc_configuration\000"
 19157      5F67656E 
 19157      6572616C 
 19157      5F676574 
 19157      5F646566 
 19158              	.LASF210:
 19159 160e 666F635F 		.ascii	"foc_encoder_ratio\000"
 19159      656E636F 
 19159      6465725F 
 19159      72617469 
 19159      6F00
ARM GAS  /var/folders/sv/kgmgr77579zbf78p2zlhkdfr0000gn/T//ccMuP6SP.s 			page 355


 19160              	.LASF20:
 19161 1620 75696E74 		.ascii	"uint32_t\000"
 19161      33325F74 
 19161      00
 19162              	.LASF418:
 19163 1629 434F4D4D 		.ascii	"COMM_GET_DECODED_CHUK\000"
 19163      5F474554 
 19163      5F444543 
 19163      4F444544 
 19163      5F434855 
 19164              	.LASF395:
 19165 163f 434F4D4D 		.ascii	"COMM_SET_HANDBRAKE\000"
 19165      5F534554 
 19165      5F48414E 
 19165      44425241 
 19165      4B4500
 19166              	.LASF431:
 19167 1652 63687563 		.ascii	"chuck_data\000"
 19167      6B5F6461 
 19167      746100
 19168              	.LASF178:
 19169 165d 6C5F6261 		.ascii	"l_battery_cut_end\000"
 19169      74746572 
 19169      795F6375 
 19169      745F656E 
 19169      6400
 19170              	.LASF341:
 19171 166f 4E52465F 		.ascii	"NRF_POWER\000"
 19171      504F5745 
 19171      5200
 19172              	.LASF445:
 19173 1679 6C6F6E67 		.ascii	"long double\000"
 19173      20646F75 
 19173      626C6500 
 19174              	.LASF394:
 19175 1685 434F4D4D 		.ascii	"COMM_SET_POS\000"
 19175      5F534554 
 19175      5F504F53 
 19175      00
 19176              	.LASF88:
 19177 1692 72656761 		.ascii	"regarm_t\000"
 19177      726D5F74 
 19177      00
 19178              	.LASF30:
 19179 169b 6576656E 		.ascii	"eventmask_t\000"
 19179      746D6173 
 19179      6B5F7400 
 19180              	.LASF483:
 19181 16a7 73616D70 		.ascii	"sample_len\000"
 19181      6C655F6C 
 19181      656E00
 19182              	.LASF569:
 19183 16b2 666C6173 		.ascii	"flash_helper_jump_to_bootloader\000"
 19183      685F6865 
 19183      6C706572 
 19183      5F6A756D 
 19183      705F746F 
ARM GAS  /var/folders/sv/kgmgr77579zbf78p2zlhkdfr0000gn/T//ccMuP6SP.s 			page 356


 19184              	.LASF318:
 19185 16d2 766F6C74 		.ascii	"voltage2_end\000"
 19185      61676532 
 19185      5F656E64 
 19185      00
 19186              	.LASF307:
 19187 16df 4144435F 		.ascii	"ADC_CTRL_TYPE_DUTY\000"
 19187      4354524C 
 19187      5F545950 
 19187      455F4455 
 19187      545900
 19188              	.LASF11:
 19189 16f2 6C6F6E67 		.ascii	"long unsigned int\000"
 19189      20756E73 
 19189      69676E65 
 19189      6420696E 
 19189      7400
 19190              	.LASF245:
 19191 1704 63635F72 		.ascii	"cc_ramp_step_max\000"
 19191      616D705F 
 19191      73746570 
 19191      5F6D6178 
 19191      00
 19192              	.LASF561:
 19193 1715 6D635F69 		.ascii	"mc_interface_get_watt_hours\000"
 19193      6E746572 
 19193      66616365 
 19193      5F676574 
 19193      5F776174 
 19194              	.LASF240:
 19195 1731 705F7069 		.ascii	"p_pid_kd\000"
 19195      645F6B64 
 19195      00
 19196              	.LASF239:
 19197 173a 705F7069 		.ascii	"p_pid_ki\000"
 19197      645F6B69 
 19197      00
 19198              	.LASF342:
 19199 1743 4E52465F 		.ascii	"NRF_CRC_DISABLED\000"
 19199      4352435F 
 19199      44495341 
 19199      424C4544 
 19199      00
 19200              	.LASF238:
 19201 1754 705F7069 		.ascii	"p_pid_kp\000"
 19201      645F6B70 
 19201      00
 19202              	.LASF563:
 19203 175d 6D635F69 		.ascii	"mc_interface_get_tachometer_value\000"
 19203      6E746572 
 19203      66616365 
 19203      5F676574 
 19203      5F746163 
 19204              	.LASF364:
 19205 177f 706F7765 		.ascii	"power\000"
 19205      7200
 19206              	.LASF260:
ARM GAS  /var/folders/sv/kgmgr77579zbf78p2zlhkdfr0000gn/T//ccMuP6SP.s 			page 357


 19207 1785 4150505F 		.ascii	"APP_NONE\000"
 19207      4E4F4E45 
 19207      00
 19208              	.LASF111:
 19209 178e 50574D5F 		.ascii	"PWM_MODE_SYNCHRONOUS\000"
 19209      4D4F4445 
 19209      5F53594E 
 19209      4348524F 
 19209      4E4F5553 
 19210              	.LASF255:
 19211 17a3 6D5F626C 		.ascii	"m_bldc_f_sw_max\000"
 19211      64635F66 
 19211      5F73775F 
 19211      6D617800 
 19212              	.LASF146:
 19213 17b3 64727638 		.ascii	"drv8301_oc_mode\000"
 19213      3330315F 
 19213      6F635F6D 
 19213      6F646500 
 19214              	.LASF231:
 19215 17c3 666F635F 		.ascii	"foc_temp_comp\000"
 19215      74656D70 
 19215      5F636F6D 
 19215      7000
 19216              	.LASF315:
 19217 17d1 766F6C74 		.ascii	"voltage_end\000"
 19217      6167655F 
 19217      656E6400 
 19218              	.LASF136:
 19219 17dd 44495350 		.ascii	"DISP_POS_MODE_ENCODER_OBSERVER_ERROR\000"
 19219      5F504F53 
 19219      5F4D4F44 
 19219      455F454E 
 19219      434F4445 
 19220              	.LASF108:
 19221 1802 63686172 		.ascii	"char\000"
 19221      00
 19222              	.LASF466:
 19223 1807 636F6D6D 		.ascii	"commands_send_appconf\000"
 19223      616E6473 
 19223      5F73656E 
 19223      645F6170 
 19223      70636F6E 
 19224              	.LASF61:
 19225 181d 725F7175 		.ascii	"r_queue\000"
 19225      65756500 
 19226              	.LASF201:
 19227 1825 736C5F62 		.ascii	"sl_bemf_coupling_k\000"
 19227      656D665F 
 19227      636F7570 
 19227      6C696E67 
 19227      5F6B00
 19228              	.LASF550:
 19229 1838 6D635F69 		.ascii	"mc_interface_temp_fet_filtered\000"
 19229      6E746572 
 19229      66616365 
 19229      5F74656D 
ARM GAS  /var/folders/sv/kgmgr77579zbf78p2zlhkdfr0000gn/T//ccMuP6SP.s 			page 358


 19229      705F6665 
 19230              	.LASF184:
 19231 1857 6C5F7465 		.ascii	"l_temp_accel_dec\000"
 19231      6D705F61 
 19231      6363656C 
 19231      5F646563 
 19231      00
 19232              	.LASF294:
 19233 1868 72616D70 		.ascii	"ramp_time_pos\000"
 19233      5F74696D 
 19233      655F706F 
 19233      7300
 19234              	.LASF459:
 19235 1876 726F746F 		.ascii	"rotor_pos\000"
 19235      725F706F 
 19235      7300
 19236              	.LASF360:
 19237 1880 4E52465F 		.ascii	"NRF_RETR_DELAY_3750US\000"
 19237      52455452 
 19237      5F44454C 
 19237      41595F33 
 19237      37353055 
 19238              	.LASF476:
 19239 1896 6D696E5F 		.ascii	"min_rpm\000"
 19239      72706D00 
 19240              	.LASF530:
 19241 189e 63684576 		.ascii	"chEvtSignal\000"
 19241      74536967 
 19241      6E616C00 
 19242              	.LASF264:
 19243 18aa 4150505F 		.ascii	"APP_PPM_UART\000"
 19243      50504D5F 
 19243      55415254 
 19243      00
 19244              	.LASF182:
 19245 18b7 6C5F7465 		.ascii	"l_temp_motor_start\000"
 19245      6D705F6D 
 19245      6F746F72 
 19245      5F737461 
 19245      727400
 19246              	.LASF578:
 19247 18ca 63685468 		.ascii	"chThdGetSelfX\000"
 19247      64476574 
 19247      53656C66 
 19247      5800
 19248              	.LASF556:
 19249 18d8 6D635F69 		.ascii	"mc_interface_read_reset_avg_iq\000"
 19249      6E746572 
 19249      66616365 
 19249      5F726561 
 19249      645F7265 
 19250              	.LASF560:
 19251 18f7 6D635F69 		.ascii	"mc_interface_get_amp_hours_charged\000"
 19251      6E746572 
 19251      66616365 
 19251      5F676574 
 19251      5F616D70 
ARM GAS  /var/folders/sv/kgmgr77579zbf78p2zlhkdfr0000gn/T//ccMuP6SP.s 			page 359


 19252              	.LASF504:
 19253 191a 62756666 		.ascii	"buffer_append_int32\000"
 19253      65725F61 
 19253      7070656E 
 19253      645F696E 
 19253      74333200 
 19254              	.LASF147:
 19255 192e 44454255 		.ascii	"DEBUG_SAMPLING_OFF\000"
 19255      475F5341 
 19255      4D504C49 
 19255      4E475F4F 
 19255      464600
 19256              	.LASF166:
 19257 1941 6C5F6375 		.ascii	"l_current_min\000"
 19257      7272656E 
 19257      745F6D69 
 19257      6E00
 19258              	.LASF460:
 19259 194f 62756666 		.ascii	"buffer\000"
 19259      657200
 19260              	.LASF262:
 19261 1956 4150505F 		.ascii	"APP_ADC\000"
 19261      41444300 
 19262              	.LASF412:
 19263 195e 434F4D4D 		.ascii	"COMM_DETECT_ENCODER\000"
 19263      5F444554 
 19263      4543545F 
 19263      454E434F 
 19263      44455200 
 19264              	.LASF400:
 19265 1972 434F4D4D 		.ascii	"COMM_GET_MCCONF_DEFAULT\000"
 19265      5F474554 
 19265      5F4D4343 
 19265      4F4E465F 
 19265      44454641 
 19266              	.LASF389:
 19267 198a 434F4D4D 		.ascii	"COMM_GET_VALUES\000"
 19267      5F474554 
 19267      5F56414C 
 19267      55455300 
 19268              	.LASF203:
 19269 199a 68616C6C 		.ascii	"hall_sl_erpm\000"
 19269      5F736C5F 
 19269      6572706D 
 19269      00
 19270              	.LASF31:
 19271 19a7 636E745F 		.ascii	"cnt_t\000"
 19271      7400
 19272              	.LASF453:
 19273 19ad 636F6D6D 		.ascii	"commands_set_send_func\000"
 19273      616E6473 
 19273      5F736574 
 19273      5F73656E 
 19273      645F6675 
 19274              	.LASF477:
 19275 19c4 64757479 		.ascii	"duty\000"
 19275      00
ARM GAS  /var/folders/sv/kgmgr77579zbf78p2zlhkdfr0000gn/T//ccMuP6SP.s 			page 360


 19276              	.LASF313:
 19277 19c9 6164635F 		.ascii	"adc_control_type\000"
 19277      636F6E74 
 19277      726F6C5F 
 19277      74797065 
 19277      00
 19278              	.LASF235:
 19279 19da 735F7069 		.ascii	"s_pid_kd\000"
 19279      645F6B64 
 19279      00
 19280              	.LASF234:
 19281 19e3 735F7069 		.ascii	"s_pid_ki\000"
 19281      645F6B69 
 19281      00
 19282              	.LASF153:
 19283 19ec 44454255 		.ascii	"DEBUG_SAMPLING_TRIGGER_FAULT_NOSEND\000"
 19283      475F5341 
 19283      4D504C49 
 19283      4E475F54 
 19283      52494747 
 19284              	.LASF233:
 19285 1a10 735F7069 		.ascii	"s_pid_kp\000"
 19285      645F6B70 
 19285      00
 19286              	.LASF520:
 19287 1a19 6D637077 		.ascii	"mcpwm_set_detect\000"
 19287      6D5F7365 
 19287      745F6465 
 19287      74656374 
 19287      00
 19288              	.LASF406:
 19289 1a2a 434F4D4D 		.ascii	"COMM_PRINT\000"
 19289      5F505249 
 19289      4E5400
 19290              	.LASF384:
 19291 1a35 6170705F 		.ascii	"app_configuration\000"
 19291      636F6E66 
 19291      69677572 
 19291      6174696F 
 19291      6E00
 19292              	.LASF443:
 19293 1a47 464C4153 		.ascii	"FLASH_COMPLETE\000"
 19293      485F434F 
 19293      4D504C45 
 19293      544500
 19294              	.LASF193:
 19295 1a56 6C6F5F63 		.ascii	"lo_current_motor_max_now\000"
 19295      75727265 
 19295      6E745F6D 
 19295      6F746F72 
 19295      5F6D6178 
 19296              	.LASF292:
 19297 1a6f 7468726F 		.ascii	"throttle_exp_brake\000"
 19297      74746C65 
 19297      5F657870 
 19297      5F627261 
 19297      6B6500
ARM GAS  /var/folders/sv/kgmgr77579zbf78p2zlhkdfr0000gn/T//ccMuP6SP.s 			page 361


 19298              	.LASF573:
 19299 1a82 636F6D6D 		.ascii	"comm_can_send_buffer\000"
 19299      5F63616E 
 19299      5F73656E 
 19299      645F6275 
 19299      66666572 
 19300              	.LASF333:
 19301 1a97 4E52465F 		.ascii	"NRF_SPEED_1M\000"
 19301      53504545 
 19301      445F314D 
 19301      00
 19302              	.LASF564:
 19303 1aa4 6D635F69 		.ascii	"mc_interface_get_tachometer_abs_value\000"
 19303      6E746572 
 19303      66616365 
 19303      5F676574 
 19303      5F746163 
 19304              	.LASF458:
 19305 1aca 636F6D6D 		.ascii	"commands_send_rotor_pos\000"
 19305      616E6473 
 19305      5F73656E 
 19305      645F726F 
 19305      746F725F 
 19306              	.LASF220:
 19307 1ae2 666F635F 		.ascii	"foc_openloop_rpm\000"
 19307      6F70656E 
 19307      6C6F6F70 
 19307      5F72706D 
 19307      00
 19308              	.LASF224:
 19309 1af3 666F635F 		.ascii	"foc_sl_d_current_factor\000"
 19309      736C5F64 
 19309      5F637572 
 19309      72656E74 
 19309      5F666163 
 19310              	.LASF217:
 19311 1b0b 666F635F 		.ascii	"foc_pll_ki\000"
 19311      706C6C5F 
 19311      6B6900
 19312              	.LASF216:
 19313 1b16 666F635F 		.ascii	"foc_pll_kp\000"
 19313      706C6C5F 
 19313      6B7000
 19314              	.LASF268:
 19315 1b21 4150505F 		.ascii	"APP_CUSTOM\000"
 19315      43555354 
 19315      4F4D00
 19316              	.LASF568:
 19317 1b2c 666C6173 		.ascii	"flash_helper_erase_new_app\000"
 19317      685F6865 
 19317      6C706572 
 19317      5F657261 
 19317      73655F6E 
 19318              	.LASF499:
 19319 1b47 64697370 		.ascii	"display_position_mode\000"
 19319      6C61795F 
 19319      706F7369 
ARM GAS  /var/folders/sv/kgmgr77579zbf78p2zlhkdfr0000gn/T//ccMuP6SP.s 			page 362


 19319      74696F6E 
 19319      5F6D6F64 
 19320              	.LASF517:
 19321 1b5d 6D637077 		.ascii	"mcpwm_foc_measure_res_ind\000"
 19321      6D5F666F 
 19321      635F6D65 
 19321      61737572 
 19321      655F7265 
 19322              	.LASF150:
 19323 1b77 44454255 		.ascii	"DEBUG_SAMPLING_TRIGGER_START\000"
 19323      475F5341 
 19323      4D504C49 
 19323      4E475F54 
 19323      52494747 
 19324              	.LASF481:
 19325 1b94 72617469 		.ascii	"ratio\000"
 19325      6F00
 19326              	.LASF574:
 19327 1b9a 6D635F69 		.ascii	"mc_interface_release_motor\000"
 19327      6E746572 
 19327      66616365 
 19327      5F72656C 
 19327      65617365 
 19328              	.LASF67:
 19329 1bb5 76746675 		.ascii	"vtfunc_t\000"
 19329      6E635F74 
 19329      00
 19330              	.LASF410:
 19331 1bbe 434F4D4D 		.ascii	"COMM_DETECT_MOTOR_R_L\000"
 19331      5F444554 
 19331      4543545F 
 19331      4D4F544F 
 19331      525F525F 
 19332              	.LASF334:
 19333 1bd4 4E52465F 		.ascii	"NRF_SPEED_2M\000"
 19333      53504545 
 19333      445F324D 
 19333      00
 19334              	.LASF518:
 19335 1be1 62756666 		.ascii	"buffer_get_uint16\000"
 19335      65725F67 
 19335      65745F75 
 19335      696E7431 
 19335      3600
 19336              	.LASF96:
 19337 1bf3 77746F62 		.ascii	"wtobjp\000"
 19337      6A7000
 19338              	.LASF263:
 19339 1bfa 4150505F 		.ascii	"APP_UART\000"
 19339      55415254 
 19339      00
 19340              	.LASF143:
 19341 1c03 44525638 		.ascii	"DRV8301_OC_LATCH_SHUTDOWN\000"
 19341      3330315F 
 19341      4F435F4C 
 19341      41544348 
 19341      5F534855 
ARM GAS  /var/folders/sv/kgmgr77579zbf78p2zlhkdfr0000gn/T//ccMuP6SP.s 			page 363


 19342              	.LASF51:
 19343 1c1d 705F7265 		.ascii	"p_realprio\000"
 19343      616C7072 
 19343      696F00
 19344              	.LASF265:
 19345 1c28 4150505F 		.ascii	"APP_ADC_UART\000"
 19345      4144435F 
 19345      55415254 
 19345      00
 19346              	.LASF420:
 19347 1c35 434F4D4D 		.ascii	"COMM_SET_CHUCK_DATA\000"
 19347      5F534554 
 19347      5F434855 
 19347      434B5F44 
 19347      41544100 
 19348              	.LASF99:
 19349 1c49 77746D74 		.ascii	"wtmtxp\000"
 19349      787000
 19350              	.LASF129:
 19351 1c50 6D635F6D 		.ascii	"mc_motor_type\000"
 19351      6F746F72 
 19351      5F747970 
 19351      6500
 19352              	.LASF321:
 19353 1c5e 7265765F 		.ascii	"rev_button_inverted\000"
 19353      62757474 
 19353      6F6E5F69 
 19353      6E766572 
 19353      74656400 
 19354              	.LASF148:
 19355 1c72 44454255 		.ascii	"DEBUG_SAMPLING_NOW\000"
 19355      475F5341 
 19355      4D504C49 
 19355      4E475F4E 
 19355      4F5700
 19356              	.LASF444:
 19357 1c85 646F7562 		.ascii	"double\000"
 19357      6C6500
 19358              	.LASF402:
 19359 1c8c 434F4D4D 		.ascii	"COMM_GET_APPCONF\000"
 19359      5F474554 
 19359      5F415050 
 19359      434F4E46 
 19359      00
 19360              	.LASF545:
 19361 1c9d 6D635F69 		.ascii	"mc_interface_set_pid_pos\000"
 19361      6E746572 
 19361      66616365 
 19361      5F736574 
 19361      5F706964 
 19362              	.LASF183:
 19363 1cb6 6C5F7465 		.ascii	"l_temp_motor_end\000"
 19363      6D705F6D 
 19363      6F746F72 
 19363      5F656E64 
 19363      00
 19364              	.LASF422:
ARM GAS  /var/folders/sv/kgmgr77579zbf78p2zlhkdfr0000gn/T//ccMuP6SP.s 			page 364


 19365 1cc7 434F4D4D 		.ascii	"COMM_NRF_START_PAIRING\000"
 19365      5F4E5246 
 19365      5F535441 
 19365      52545F50 
 19365      41495249 
 19366              	.LASF232:
 19367 1cde 666F635F 		.ascii	"foc_temp_comp_base_temp\000"
 19367      74656D70 
 19367      5F636F6D 
 19367      705F6261 
 19367      73655F74 
 19368              	.LASF164:
 19369 1cf6 73656E73 		.ascii	"sensor_mode\000"
 19369      6F725F6D 
 19369      6F646500 
 19370              	.LASF529:
 19371 1d02 656E636F 		.ascii	"encoder_is_configured\000"
 19371      6465725F 
 19371      69735F63 
 19371      6F6E6669 
 19371      67757265 
 19372              	.LASF117:
 19373 1d18 53454E53 		.ascii	"SENSOR_MODE_SENSORLESS\000"
 19373      4F525F4D 
 19373      4F44455F 
 19373      53454E53 
 19373      4F524C45 
 19374              	.LASF363:
 19375 1d2f 73706565 		.ascii	"speed\000"
 19375      6400
 19376              	.LASF60:
 19377 1d35 63685F72 		.ascii	"ch_ready_list\000"
 19377      65616479 
 19377      5F6C6973 
 19377      7400
 19378              	.LASF575:
 19379 1d43 474E5520 		.ascii	"GNU C99 5.4.1 20160919 (release) [ARM/embedded-5-br"
 19379      43393920 
 19379      352E342E 
 19379      31203230 
 19379      31363039 
 19380 1d76 616E6368 		.ascii	"anch revision 240496] -mcpu=cortex-m4 -mfloat-abi=h"
 19380      20726576 
 19380      6973696F 
 19380      6E203234 
 19380      30343936 
 19381 1da9 61726420 		.ascii	"ard -mfpu=fpv4-sp-d16 -mno-thumb-interwork -mthumb "
 19381      2D6D6670 
 19381      753D6670 
 19381      76342D73 
 19381      702D6431 
 19382 1ddc 2D676764 		.ascii	"-ggdb -O2 -std=gnu99 -fomit-frame-pointer -falign-f"
 19382      62202D4F 
 19382      32202D73 
 19382      74643D67 
 19382      6E753939 
 19383 1e0f 756E6374 		.ascii	"unctions=16 -ffunction-sections -fdata-sections -fn"
ARM GAS  /var/folders/sv/kgmgr77579zbf78p2zlhkdfr0000gn/T//ccMuP6SP.s 			page 365


 19383      696F6E73 
 19383      3D313620 
 19383      2D666675 
 19383      6E637469 
 19384 1e42 6F2D636F 		.ascii	"o-common -fsingle-precision-constant\000"
 19384      6D6D6F6E 
 19384      202D6673 
 19384      696E676C 
 19384      652D7072 
 19385              	.LASF8:
 19386 1e67 5F5F696E 		.ascii	"__int32_t\000"
 19386      7433325F 
 19386      7400
 19387              	.LASF158:
 19388 1e71 43414E5F 		.ascii	"CAN_BAUD_500K\000"
 19388      42415544 
 19388      5F353030 
 19388      4B00
 19389              	.LASF10:
 19390 1e7f 5F5F7569 		.ascii	"__uint32_t\000"
 19390      6E743332 
 19390      5F7400
 19391              	.LASF79:
 19392 1e8a 63685F73 		.ascii	"ch_system_debug\000"
 19392      79737465 
 19392      6D5F6465 
 19392      62756700 
 19393              	.LASF451:
 19394 1e9a 64617461 		.ascii	"data\000"
 19394      00
 19395              	.LASF533:
 19396 1e9f 62756666 		.ascii	"buffer_get_uint32\000"
 19396      65725F67 
 19396      65745F75 
 19396      696E7433 
 19396      3200
 19397              	.LASF465:
 19398 1eb1 636F6D6D 		.ascii	"commands_send_app_data\000"
 19398      616E6473 
 19398      5F73656E 
 19398      645F6170 
 19398      705F6461 
 19399              	.LASF331:
 19400 1ec8 6368756B 		.ascii	"chuk_config\000"
 19400      5F636F6E 
 19400      66696700 
 19401              	.LASF299:
 19402 1ed4 4144435F 		.ascii	"ADC_CTRL_TYPE_NONE\000"
 19402      4354524C 
 19402      5F545950 
 19402      455F4E4F 
 19402      4E4500
 19403              	.LASF152:
 19404 1ee7 44454255 		.ascii	"DEBUG_SAMPLING_TRIGGER_START_NOSEND\000"
 19404      475F5341 
 19404      4D504C49 
 19404      4E475F54 
ARM GAS  /var/folders/sv/kgmgr77579zbf78p2zlhkdfr0000gn/T//ccMuP6SP.s 			page 366


 19404      52494747 
 19405              	.LASF254:
 19406 1f0b 6D5F626C 		.ascii	"m_bldc_f_sw_min\000"
 19406      64635F66 
 19406      5F73775F 
 19406      6D696E00 
 19407              	.LASF470:
 19408 1f1b 6D63636F 		.ascii	"mcconf\000"
 19408      6E6600
 19409              	.LASF109:
 19410 1f22 6D757465 		.ascii	"mutex_t\000"
 19410      785F7400 
 19411              	.LASF208:
 19412 1f2a 666F635F 		.ascii	"foc_encoder_offset\000"
 19412      656E636F 
 19412      6465725F 
 19412      6F666673 
 19412      657400
 19413              	.LASF508:
 19414 1f3d 62756666 		.ascii	"buffer_append_float32_auto\000"
 19414      65725F61 
 19414      7070656E 
 19414      645F666C 
 19414      6F617433 
 19415              	.LASF49:
 19416 1f58 705F6570 		.ascii	"p_epending\000"
 19416      656E6469 
 19416      6E6700
 19417              	.LASF221:
 19418 1f63 666F635F 		.ascii	"foc_sl_openloop_hyst\000"
 19418      736C5F6F 
 19418      70656E6C 
 19418      6F6F705F 
 19418      68797374 
 19419              	.LASF290:
 19420 1f78 73616665 		.ascii	"safe_start\000"
 19420      5F737461 
 19420      727400
 19421              	.LASF417:
 19422 1f83 434F4D4D 		.ascii	"COMM_GET_DECODED_ADC\000"
 19422      5F474554 
 19422      5F444543 
 19422      4F444544 
 19422      5F414443 
 19423              	.LASF316:
 19424 1f98 766F6C74 		.ascii	"voltage_center\000"
 19424      6167655F 
 19424      63656E74 
 19424      657200
 19425              	.LASF401:
 19426 1fa7 434F4D4D 		.ascii	"COMM_SET_APPCONF\000"
 19426      5F534554 
 19426      5F415050 
 19426      434F4E46 
 19426      00
 19427              	.LASF469:
 19428 1fb8 636F6D6D 		.ascii	"commands_process_packet\000"
ARM GAS  /var/folders/sv/kgmgr77579zbf78p2zlhkdfr0000gn/T//ccMuP6SP.s 			page 367


 19428      616E6473 
 19428      5F70726F 
 19428      63657373 
 19428      5F706163 
 19429              	.LASF279:
 19430 1fd0 50504D5F 		.ascii	"PPM_CTRL_TYPE_DUTY_NOREV\000"
 19430      4354524C 
 19430      5F545950 
 19430      455F4455 
 19430      54595F4E 
 19431              	.LASF157:
 19432 1fe9 43414E5F 		.ascii	"CAN_BAUD_250K\000"
 19432      42415544 
 19432      5F323530 
 19432      4B00
 19433              	.LASF191:
 19434 1ff7 6C6F5F69 		.ascii	"lo_in_current_max\000"
 19434      6E5F6375 
 19434      7272656E 
 19434      745F6D61 
 19434      7800
 19435              	.LASF409:
 19436 2009 434F4D4D 		.ascii	"COMM_DETECT_MOTOR_PARAM\000"
 19436      5F444554 
 19436      4543545F 
 19436      4D4F544F 
 19436      525F5041 
 19437              	.LASF535:
 19438 2021 636F6E66 		.ascii	"conf_general_store_app_configuration\000"
 19438      5F67656E 
 19438      6572616C 
 19438      5F73746F 
 19438      72655F61 
 19439              	.LASF471:
 19440 2046 6D63636F 		.ascii	"mcconf_old\000"
 19440      6E665F6F 
 19440      6C6400
 19441              	.LASF62:
 19442 2051 725F7072 		.ascii	"r_prio\000"
 19442      696F00
 19443              	.LASF225:
 19444 2058 666F635F 		.ascii	"foc_sensor_mode\000"
 19444      73656E73 
 19444      6F725F6D 
 19444      6F646500 
 19445              	.LASF500:
 19446 2068 49544D5F 		.ascii	"ITM_RxBuffer\000"
 19446      52784275 
 19446      66666572 
 19446      00
 19447              	.LASF123:
 19448 2075 464F435F 		.ascii	"FOC_SENSOR_MODE_HALL\000"
 19448      53454E53 
 19448      4F525F4D 
 19448      4F44455F 
 19448      48414C4C 
 19449              	.LASF14:
ARM GAS  /var/folders/sv/kgmgr77579zbf78p2zlhkdfr0000gn/T//ccMuP6SP.s 			page 368


 19450 208a 6C6F6E67 		.ascii	"long long unsigned int\000"
 19450      206C6F6E 
 19450      6720756E 
 19450      7369676E 
 19450      65642069 
 19451              	.LASF92:
 19452 20a1 6F666673 		.ascii	"offset\000"
 19452      657400
 19453              	.LASF207:
 19454 20a8 666F635F 		.ascii	"foc_dt_us\000"
 19454      64745F75 
 19454      7300
 19455              	.LASF579:
 19456 20b2 63685265 		.ascii	"chRegSetThreadName\000"
 19456      67536574 
 19456      54687265 
 19456      61644E61 
 19456      6D6500
 19457              	.LASF230:
 19458 20c5 666F635F 		.ascii	"foc_sat_comp\000"
 19458      7361745F 
 19458      636F6D70 
 19458      00
 19459              	.LASF86:
 19460 20d2 69646C65 		.ascii	"idle_thread_wa\000"
 19460      5F746872 
 19460      6561645F 
 19460      776100
 19461              	.LASF73:
 19462 20e1 76745F66 		.ascii	"vt_func\000"
 19462      756E6300 
 19463              	.LASF547:
 19464 20e9 6D635F69 		.ascii	"mc_interface_set_brake_current\000"
 19464      6E746572 
 19464      66616365 
 19464      5F736574 
 19464      5F627261 
 19465              	.LASF392:
 19466 2108 434F4D4D 		.ascii	"COMM_SET_CURRENT_BRAKE\000"
 19466      5F534554 
 19466      5F435552 
 19466      52454E54 
 19466      5F425241 
 19467              	.LASF69:
 19468 211f 63685F76 		.ascii	"ch_virtual_timer\000"
 19468      69727475 
 19468      616C5F74 
 19468      696D6572 
 19468      00
 19469              	.LASF42:
 19470 2130 705F666C 		.ascii	"p_flags\000"
 19470      61677300 
 19471              	.LASF100:
 19472 2138 65776D61 		.ascii	"ewmask\000"
 19472      736B00
 19473              	.LASF515:
 19474 213f 6D635F69 		.ascii	"mc_interface_get_configuration\000"
ARM GAS  /var/folders/sv/kgmgr77579zbf78p2zlhkdfr0000gn/T//ccMuP6SP.s 			page 369


 19474      6E746572 
 19474      66616365 
 19474      5F676574 
 19474      5F636F6E 
 19475              	.LASF393:
 19476 215e 434F4D4D 		.ascii	"COMM_SET_RPM\000"
 19476      5F534554 
 19476      5F52504D 
 19476      00
 19477              	.LASF544:
 19478 216b 6D635F69 		.ascii	"mc_interface_set_handbrake\000"
 19478      6E746572 
 19478      66616365 
 19478      5F736574 
 19478      5F68616E 
 19479              	.LASF357:
 19480 2186 4E52465F 		.ascii	"NRF_RETR_DELAY_3000US\000"
 19480      52455452 
 19480      5F44454C 
 19480      41595F33 
 19480      30303055 
 19481              	.LASF50:
 19482 219c 705F6D74 		.ascii	"p_mtxlist\000"
 19482      786C6973 
 19482      7400
 19483              	.LASF200:
 19484 21a6 736C5F63 		.ascii	"sl_cycle_int_rpm_br\000"
 19484      79636C65 
 19484      5F696E74 
 19484      5F72706D 
 19484      5F627200 
 19485              	.LASF25:
 19486 21ba 74737461 		.ascii	"tstate_t\000"
 19486      74655F74 
 19486      00
 19487              	.LASF488:
 19488 21c3 73656E64 		.ascii	"send_buffer\000"
 19488      5F627566 
 19488      66657200 
 19489              	.LASF278:
 19490 21cf 50504D5F 		.ascii	"PPM_CTRL_TYPE_DUTY\000"
 19490      4354524C 
 19490      5F545950 
 19490      455F4455 
 19490      545900
 19491              	.LASF256:
 19492 21e2 6D5F6463 		.ascii	"m_dc_f_sw\000"
 19492      5F665F73 
 19492      7700
 19493              	.LASF229:
 19494 21ec 666F635F 		.ascii	"foc_sample_high_current\000"
 19494      73616D70 
 19494      6C655F68 
 19494      6967685F 
 19494      63757272 
 19495              	.LASF116:
 19496 2204 6D635F63 		.ascii	"mc_comm_mode\000"
ARM GAS  /var/folders/sv/kgmgr77579zbf78p2zlhkdfr0000gn/T//ccMuP6SP.s 			page 370


 19496      6F6D6D5F 
 19496      6D6F6465 
 19496      00
 19497              	.LASF40:
 19498 2211 705F6E61 		.ascii	"p_name\000"
 19498      6D6500
 19499              	.LASF440:
 19500 2218 464C4153 		.ascii	"FLASH_ERROR_WRP\000"
 19500      485F4552 
 19500      524F525F 
 19500      57525000 
 19501              	.LASF353:
 19502 2228 4E52465F 		.ascii	"NRF_RETR_DELAY_2000US\000"
 19502      52455452 
 19502      5F44454C 
 19502      41595F32 
 19502      30303055 
 19503              	.LASF448:
 19504 223e 5F5F6170 		.ascii	"__ap\000"
 19504      00
 19505              	.LASF311:
 19506 2243 4144435F 		.ascii	"ADC_CTRL_TYPE_PID_REV_CENTER\000"
 19506      4354524C 
 19506      5F545950 
 19506      455F5049 
 19506      445F5245 
 19507              	.LASF532:
 19508 2260 6170705F 		.ascii	"app_get_configuration\000"
 19508      6765745F 
 19508      636F6E66 
 19508      69677572 
 19508      6174696F 
 19509              	.LASF272:
 19510 2276 5448525F 		.ascii	"THR_EXP_POLY\000"
 19510      4558505F 
 19510      504F4C59 
 19510      00
 19511              	.LASF137:
 19512 2283 64697370 		.ascii	"disp_pos_mode\000"
 19512      5F706F73 
 19512      5F6D6F64 
 19512      6500
 19513              	.LASF450:
 19514 2291 6E616D65 		.ascii	"name\000"
 19514      00
 19515              	.LASF75:
 19516 2296 76697274 		.ascii	"virtual_timers_list_t\000"
 19516      75616C5F 
 19516      74696D65 
 19516      72735F6C 
 19516      6973745F 
 19517              	.LASF524:
 19518 22ac 6170705F 		.ascii	"app_nunchuk_get_decoded_chuk\000"
 19518      6E756E63 
 19518      68756B5F 
 19518      6765745F 
 19518      6465636F 
ARM GAS  /var/folders/sv/kgmgr77579zbf78p2zlhkdfr0000gn/T//ccMuP6SP.s 			page 371


 19519              	.LASF110:
 19520 22c9 50574D5F 		.ascii	"PWM_MODE_NONSYNCHRONOUS_HISW\000"
 19520      4D4F4445 
 19520      5F4E4F4E 
 19520      53594E43 
 19520      48524F4E 
 19521              	.LASF145:
 19522 22e6 44525638 		.ascii	"DRV8301_OC_DISABLED\000"
 19522      3330315F 
 19522      4F435F44 
 19522      49534142 
 19522      4C454400 
 19523              	.LASF559:
 19524 22fa 6D635F69 		.ascii	"mc_interface_get_amp_hours\000"
 19524      6E746572 
 19524      66616365 
 19524      5F676574 
 19524      5F616D70 
 19525              	.LASF421:
 19526 2315 434F4D4D 		.ascii	"COMM_CUSTOM_APP_DATA\000"
 19526      5F435553 
 19526      544F4D5F 
 19526      4150505F 
 19526      44415441 
 19527              	.LASF349:
 19528 232a 4E52465F 		.ascii	"NRF_RETR_DELAY_1000US\000"
 19528      52455452 
 19528      5F44454C 
 19528      41595F31 
 19528      30303055 
 19529              	.LASF407:
 19530 2340 434F4D4D 		.ascii	"COMM_ROTOR_POSITION\000"
 19530      5F524F54 
 19530      4F525F50 
 19530      4F534954 
 19530      494F4E00 
 19531              	.LASF102:
 19532 2354 735F7175 		.ascii	"s_queue\000"
 19532      65756500 
 19533              	.LASF319:
 19534 235c 7573655F 		.ascii	"use_filter\000"
 19534      66696C74 
 19534      657200
 19535              	.LASF155:
 19536 2367 64656275 		.ascii	"debug_sampling_mode\000"
 19536      675F7361 
 19536      6D706C69 
 19536      6E675F6D 
 19536      6F646500 
 19537              	.LASF247:
 19538 237b 6D5F6475 		.ascii	"m_duty_ramp_step\000"
 19538      74795F72 
 19538      616D705F 
 19538      73746570 
 19538      00
 19539              	.LASF259:
 19540 238c 6D635F63 		.ascii	"mc_configuration\000"
ARM GAS  /var/folders/sv/kgmgr77579zbf78p2zlhkdfr0000gn/T//ccMuP6SP.s 			page 372


 19540      6F6E6669 
 19540      67757261 
 19540      74696F6E 
 19540      00
 19541              	.LASF358:
 19542 239d 4E52465F 		.ascii	"NRF_RETR_DELAY_3250US\000"
 19542      52455452 
 19542      5F44454C 
 19542      41595F33 
 19542      32353055 
 19543              	.LASF12:
 19544 23b3 6C6F6E67 		.ascii	"long long int\000"
 19544      206C6F6E 
 19544      6720696E 
 19544      7400
 19545              	.LASF300:
 19546 23c1 4144435F 		.ascii	"ADC_CTRL_TYPE_CURRENT\000"
 19546      4354524C 
 19546      5F545950 
 19546      455F4355 
 19546      5252454E 
 19547              	.LASF188:
 19548 23d7 6C5F7761 		.ascii	"l_watt_min\000"
 19548      74745F6D 
 19548      696E00
 19549              	.LASF343:
 19550 23e2 4E52465F 		.ascii	"NRF_CRC_1B\000"
 19550      4352435F 
 19550      314200
 19551              	.LASF174:
 19552 23ed 6C5F6D61 		.ascii	"l_max_erpm_fbrake_cc\000"
 19552      785F6572 
 19552      706D5F66 
 19552      6272616B 
 19552      655F6363 
 19553              	.LASF354:
 19554 2402 4E52465F 		.ascii	"NRF_RETR_DELAY_2250US\000"
 19554      52455452 
 19554      5F44454C 
 19554      41595F32 
 19554      32353055 
 19555              	.LASF403:
 19556 2418 434F4D4D 		.ascii	"COMM_GET_APPCONF_DEFAULT\000"
 19556      5F474554 
 19556      5F415050 
 19556      434F4E46 
 19556      5F444546 
 19557              	.LASF284:
 19558 2431 7069645F 		.ascii	"pid_max_erpm\000"
 19558      6D61785F 
 19558      6572706D 
 19558      00
 19559              	.LASF516:
 19560 243e 6D637077 		.ascii	"mcpwm_foc_encoder_detect\000"
 19560      6D5F666F 
 19560      635F656E 
 19560      636F6465 
ARM GAS  /var/folders/sv/kgmgr77579zbf78p2zlhkdfr0000gn/T//ccMuP6SP.s 			page 373


 19560      725F6465 
 19561              	.LASF310:
 19562 2457 4144435F 		.ascii	"ADC_CTRL_TYPE_PID\000"
 19562      4354524C 
 19562      5F545950 
 19562      455F5049 
 19562      4400
 19563              	.LASF482:
 19564 2469 696E7665 		.ascii	"inverted\000"
 19564      72746564 
 19564      00
 19565              	.LASF366:
 19566 2472 72657472 		.ascii	"retry_delay\000"
 19566      795F6465 
 19566      6C617900 
 19567              	.LASF549:
 19568 247e 6D635F69 		.ascii	"mc_interface_set_duty\000"
 19568      6E746572 
 19568      66616365 
 19568      5F736574 
 19568      5F647574 
 19569              	.LASF377:
 19570 2494 63616E5F 		.ascii	"can_baud_rate\000"
 19570      62617564 
 19570      5F726174 
 19570      6500
 19571              	.LASF344:
 19572 24a2 4E52465F 		.ascii	"NRF_CRC_2B\000"
 19572      4352435F 
 19572      324200
 19573              	.LASF537:
 19574 24ad 74696D65 		.ascii	"timeout_configure\000"
 19574      6F75745F 
 19574      636F6E66 
 19574      69677572 
 19574      6500
 19575              	.LASF350:
 19576 24bf 4E52465F 		.ascii	"NRF_RETR_DELAY_1250US\000"
 19576      52455452 
 19576      5F44454C 
 19576      41595F31 
 19576      32353055 
 19577              	.LASF167:
 19578 24d5 6C5F696E 		.ascii	"l_in_current_max\000"
 19578      5F637572 
 19578      72656E74 
 19578      5F6D6178 
 19578      00
 19579              	.LASF39:
 19580 24e6 705F6F6C 		.ascii	"p_older\000"
 19580      64657200 
 19581              	.LASF376:
 19582 24ee 73656E64 		.ascii	"send_can_status_rate_hz\000"
 19582      5F63616E 
 19582      5F737461 
 19582      7475735F 
 19582      72617465 
ARM GAS  /var/folders/sv/kgmgr77579zbf78p2zlhkdfr0000gn/T//ccMuP6SP.s 			page 374


 19583              	.LASF510:
 19584 2506 62756666 		.ascii	"buffer_get_float32\000"
 19584      65725F67 
 19584      65745F66 
 19584      6C6F6174 
 19584      333200
 19585              	.LASF53:
 19586 2519 74687265 		.ascii	"thread_reference_t\000"
 19586      61645F72 
 19586      65666572 
 19586      656E6365 
 19586      5F7400
 19587              	.LASF241:
 19588 252c 705F7069 		.ascii	"p_pid_ang_div\000"
 19588      645F616E 
 19588      675F6469 
 19588      7600
 19589              	.LASF372:
 19590 253a 636F6E74 		.ascii	"controller_id\000"
 19590      726F6C6C 
 19590      65725F69 
 19590      6400
 19591              	.LASF222:
 19592 2548 666F635F 		.ascii	"foc_sl_openloop_time\000"
 19592      736C5F6F 
 19592      70656E6C 
 19592      6F6F705F 
 19592      74696D65 
 19593              	.LASF93:
 19594 255d 746D5F63 		.ascii	"tm_calibration_t\000"
 19594      616C6962 
 19594      72617469 
 19594      6F6E5F74 
 19594      00
 19595              	.LASF2:
 19596 256e 5F5F696E 		.ascii	"__int8_t\000"
 19596      74385F74 
 19596      00
 19597              	.LASF192:
 19598 2577 6C6F5F69 		.ascii	"lo_in_current_min\000"
 19598      6E5F6375 
 19598      7272656E 
 19598      745F6D69 
 19598      6E00
 19599              	.LASF286:
 19600 2589 70756C73 		.ascii	"pulse_start\000"
 19600      655F7374 
 19600      61727400 
 19601              	.LASF562:
 19602 2595 6D635F69 		.ascii	"mc_interface_get_watt_hours_charged\000"
 19602      6E746572 
 19602      66616365 
 19602      5F676574 
 19602      5F776174 
 19603              	.LASF185:
 19604 25b9 6C5F6D69 		.ascii	"l_min_duty\000"
 19604      6E5F6475 
ARM GAS  /var/folders/sv/kgmgr77579zbf78p2zlhkdfr0000gn/T//ccMuP6SP.s 			page 375


 19604      747900
 19605              	.LASF276:
 19606 25c4 50504D5F 		.ascii	"PPM_CTRL_TYPE_CURRENT_NOREV\000"
 19606      4354524C 
 19606      5F545950 
 19606      455F4355 
 19606      5252454E 
 19607              	.LASF141:
 19608 25e0 73656E73 		.ascii	"sensor_port_mode\000"
 19608      6F725F70 
 19608      6F72745F 
 19608      6D6F6465 
 19608      00
 19609              	.LASF526:
 19610 25f1 6170705F 		.ascii	"app_adc_get_voltage\000"
 19610      6164635F 
 19610      6765745F 
 19610      766F6C74 
 19610      61676500 
 19611              	.LASF124:
 19612 2605 6D635F66 		.ascii	"mc_foc_sensor_mode\000"
 19612      6F635F73 
 19612      656E736F 
 19612      725F6D6F 
 19612      646500
 19613              	.LASF15:
 19614 2618 756E7369 		.ascii	"unsigned int\000"
 19614      676E6564 
 19614      20696E74 
 19614      00
 19615              	.LASF502:
 19616 2625 63684576 		.ascii	"chEvtWaitAny\000"
 19616      74576169 
 19616      74416E79 
 19616      00
 19617              	.LASF306:
 19618 2632 4144435F 		.ascii	"ADC_CTRL_TYPE_CURRENT_NOREV_BRAKE_ADC\000"
 19618      4354524C 
 19618      5F545950 
 19618      455F4355 
 19618      5252454E 
 19619              	.LASF5:
 19620 2658 73686F72 		.ascii	"short int\000"
 19620      7420696E 
 19620      7400
 19621              	.LASF228:
 19622 2662 666F635F 		.ascii	"foc_sample_v0_v7\000"
 19622      73616D70 
 19622      6C655F76 
 19622      305F7637 
 19622      00
 19623              	.LASF484:
 19624 2673 64656369 		.ascii	"decimation\000"
 19624      6D617469 
 19624      6F6E00
 19625              	.LASF580:
 19626 267e 636F6D6D 		.ascii	"commands_send_packet\000"
ARM GAS  /var/folders/sv/kgmgr77579zbf78p2zlhkdfr0000gn/T//ccMuP6SP.s 			page 376


 19626      616E6473 
 19626      5F73656E 
 19626      645F7061 
 19626      636B6574 
 19627              	.LASF125:
 19628 2693 4D4F544F 		.ascii	"MOTOR_TYPE_BLDC\000"
 19628      525F5459 
 19628      50455F42 
 19628      4C444300 
 19629              	.LASF522:
 19630 26a3 6170705F 		.ascii	"app_ppm_get_decoded_level\000"
 19630      70706D5F 
 19630      6765745F 
 19630      6465636F 
 19630      6465645F 
 19631              	.LASF447:
 19632 26bd 5F5F7661 		.ascii	"__va_list\000"
 19632      5F6C6973 
 19632      7400
 19633              	.LASF41:
 19634 26c7 705F7374 		.ascii	"p_state\000"
 19634      61746500 
 19635              	.LASF56:
 19636 26cf 63685F74 		.ascii	"ch_threads_list\000"
 19636      68726561 
 19636      64735F6C 
 19636      69737400 
 19637              	.LASF115:
 19638 26df 434F4D4D 		.ascii	"COMM_MODE_DELAY\000"
 19638      5F4D4F44 
 19638      455F4445 
 19638      4C415900 
 19639              	.LASF249:
 19640 26ef 6D5F656E 		.ascii	"m_encoder_counts\000"
 19640      636F6465 
 19640      725F636F 
 19640      756E7473 
 19640      00
 19641              		.ident	"GCC: (GNU Tools for ARM Embedded Processors) 5.4.1 20160919 (release) [ARM/embedded-5-bran
ARM GAS  /var/folders/sv/kgmgr77579zbf78p2zlhkdfr0000gn/T//ccMuP6SP.s 			page 377


DEFINED SYMBOLS
                            *ABS*:0000000000000000 commands.c
/var/folders/sv/kgmgr77579zbf78p2zlhkdfr0000gn/T//ccMuP6SP.s:22     .text.detect_thread:0000000000000000 $t
/var/folders/sv/kgmgr77579zbf78p2zlhkdfr0000gn/T//ccMuP6SP.s:27     .text.detect_thread:0000000000000000 detect_thread
/var/folders/sv/kgmgr77579zbf78p2zlhkdfr0000gn/T//ccMuP6SP.s:203    .text.detect_thread:00000000000000d0 $d
/var/folders/sv/kgmgr77579zbf78p2zlhkdfr0000gn/T//ccMuP6SP.s:222    .text.commands_init:0000000000000000 $t
/var/folders/sv/kgmgr77579zbf78p2zlhkdfr0000gn/T//ccMuP6SP.s:228    .text.commands_init:0000000000000000 commands_init
/var/folders/sv/kgmgr77579zbf78p2zlhkdfr0000gn/T//ccMuP6SP.s:256    .text.commands_init:000000000000001c $d
/var/folders/sv/kgmgr77579zbf78p2zlhkdfr0000gn/T//ccMuP6SP.s:262    .text.commands_set_send_func:0000000000000000 $t
/var/folders/sv/kgmgr77579zbf78p2zlhkdfr0000gn/T//ccMuP6SP.s:268    .text.commands_set_send_func:0000000000000000 commands_set_send_func
/var/folders/sv/kgmgr77579zbf78p2zlhkdfr0000gn/T//ccMuP6SP.s:283    .text.commands_set_send_func:0000000000000008 $d
/var/folders/sv/kgmgr77579zbf78p2zlhkdfr0000gn/T//ccMuP6SP.s:288    .text.commands_send_packet:0000000000000000 $t
/var/folders/sv/kgmgr77579zbf78p2zlhkdfr0000gn/T//ccMuP6SP.s:294    .text.commands_send_packet:0000000000000000 commands_send_packet
/var/folders/sv/kgmgr77579zbf78p2zlhkdfr0000gn/T//ccMuP6SP.s:314    .text.commands_send_packet:000000000000000c $d
/var/folders/sv/kgmgr77579zbf78p2zlhkdfr0000gn/T//ccMuP6SP.s:319    .text.commands_printf:0000000000000000 $t
/var/folders/sv/kgmgr77579zbf78p2zlhkdfr0000gn/T//ccMuP6SP.s:325    .text.commands_printf:0000000000000000 commands_printf
/var/folders/sv/kgmgr77579zbf78p2zlhkdfr0000gn/T//ccMuP6SP.s:404    .text.commands_printf:000000000000003c $d
/var/folders/sv/kgmgr77579zbf78p2zlhkdfr0000gn/T//ccMuP6SP.s:410    .text.commands_send_rotor_pos:0000000000000000 $t
/var/folders/sv/kgmgr77579zbf78p2zlhkdfr0000gn/T//ccMuP6SP.s:416    .text.commands_send_rotor_pos:0000000000000000 commands_send_rotor_pos
/var/folders/sv/kgmgr77579zbf78p2zlhkdfr0000gn/T//ccMuP6SP.s:481    .text.commands_send_rotor_pos:0000000000000038 $d
/var/folders/sv/kgmgr77579zbf78p2zlhkdfr0000gn/T//ccMuP6SP.s:487    .text.commands_send_experiment_samples:0000000000000000 $t
/var/folders/sv/kgmgr77579zbf78p2zlhkdfr0000gn/T//ccMuP6SP.s:493    .text.commands_send_experiment_samples:0000000000000000 commands_send_experiment_samples
/var/folders/sv/kgmgr77579zbf78p2zlhkdfr0000gn/T//ccMuP6SP.s:619    .text.commands_send_experiment_samples:0000000000000074 $d
/var/folders/sv/kgmgr77579zbf78p2zlhkdfr0000gn/T//ccMuP6SP.s:625    .text.commands_get_disp_pos_mode:0000000000000000 $t
/var/folders/sv/kgmgr77579zbf78p2zlhkdfr0000gn/T//ccMuP6SP.s:631    .text.commands_get_disp_pos_mode:0000000000000000 commands_get_disp_pos_mode
/var/folders/sv/kgmgr77579zbf78p2zlhkdfr0000gn/T//ccMuP6SP.s:646    .text.commands_get_disp_pos_mode:0000000000000008 $d
/var/folders/sv/kgmgr77579zbf78p2zlhkdfr0000gn/T//ccMuP6SP.s:651    .text.commands_set_app_data_handler:0000000000000000 $t
/var/folders/sv/kgmgr77579zbf78p2zlhkdfr0000gn/T//ccMuP6SP.s:657    .text.commands_set_app_data_handler:0000000000000000 commands_set_app_data_handler
/var/folders/sv/kgmgr77579zbf78p2zlhkdfr0000gn/T//ccMuP6SP.s:672    .text.commands_set_app_data_handler:0000000000000008 $d
/var/folders/sv/kgmgr77579zbf78p2zlhkdfr0000gn/T//ccMuP6SP.s:677    .text.commands_send_app_data:0000000000000000 $t
/var/folders/sv/kgmgr77579zbf78p2zlhkdfr0000gn/T//ccMuP6SP.s:683    .text.commands_send_app_data:0000000000000000 commands_send_app_data
/var/folders/sv/kgmgr77579zbf78p2zlhkdfr0000gn/T//ccMuP6SP.s:749    .text.commands_send_app_data:000000000000002c $d
/var/folders/sv/kgmgr77579zbf78p2zlhkdfr0000gn/T//ccMuP6SP.s:757    .text.commands_send_appconf:0000000000000000 $t
/var/folders/sv/kgmgr77579zbf78p2zlhkdfr0000gn/T//ccMuP6SP.s:763    .text.commands_send_appconf:0000000000000000 commands_send_appconf
/var/folders/sv/kgmgr77579zbf78p2zlhkdfr0000gn/T//ccMuP6SP.s:1202   .text.commands_send_appconf:00000000000002c0 $d
/var/folders/sv/kgmgr77579zbf78p2zlhkdfr0000gn/T//ccMuP6SP.s:1208   .text.commands_process_packet:0000000000000000 $t
/var/folders/sv/kgmgr77579zbf78p2zlhkdfr0000gn/T//ccMuP6SP.s:1214   .text.commands_process_packet:0000000000000000 commands_process_packet
/var/folders/sv/kgmgr77579zbf78p2zlhkdfr0000gn/T//ccMuP6SP.s:1260   .text.commands_process_packet:0000000000000024 $d
/var/folders/sv/kgmgr77579zbf78p2zlhkdfr0000gn/T//ccMuP6SP.s:1299   .text.commands_process_packet:0000000000000070 $t
/var/folders/sv/kgmgr77579zbf78p2zlhkdfr0000gn/T//ccMuP6SP.s:1885   .text.commands_process_packet:0000000000000398 $d
/var/folders/sv/kgmgr77579zbf78p2zlhkdfr0000gn/T//ccMuP6SP.s:1905   .text.commands_process_packet:00000000000003cc $t
/var/folders/sv/kgmgr77579zbf78p2zlhkdfr0000gn/T//ccMuP6SP.s:2090   .text.commands_process_packet:00000000000004d0 $d
/var/folders/sv/kgmgr77579zbf78p2zlhkdfr0000gn/T//ccMuP6SP.s:2105   .text.commands_process_packet:0000000000000500 $t
/var/folders/sv/kgmgr77579zbf78p2zlhkdfr0000gn/T//ccMuP6SP.s:2764   .text.commands_process_packet:000000000000089c $d
/var/folders/sv/kgmgr77579zbf78p2zlhkdfr0000gn/T//ccMuP6SP.s:2769   .text.commands_process_packet:00000000000008a4 $t
/var/folders/sv/kgmgr77579zbf78p2zlhkdfr0000gn/T//ccMuP6SP.s:3312   .text.commands_process_packet:0000000000000c74 $d
/var/folders/sv/kgmgr77579zbf78p2zlhkdfr0000gn/T//ccMuP6SP.s:3315   .text.commands_process_packet:0000000000000c7c $t
/var/folders/sv/kgmgr77579zbf78p2zlhkdfr0000gn/T//ccMuP6SP.s:3395   .text.commands_process_packet:0000000000000cfc $d
/var/folders/sv/kgmgr77579zbf78p2zlhkdfr0000gn/T//ccMuP6SP.s:3401   .text.commands_process_packet:0000000000000d00 $t
/var/folders/sv/kgmgr77579zbf78p2zlhkdfr0000gn/T//ccMuP6SP.s:4020   .text.commands_process_packet:000000000000109c $d
/var/folders/sv/kgmgr77579zbf78p2zlhkdfr0000gn/T//ccMuP6SP.s:4033   .text.commands_process_packet:00000000000010cc $t
/var/folders/sv/kgmgr77579zbf78p2zlhkdfr0000gn/T//ccMuP6SP.s:4870   .text.commands_process_packet:00000000000015f0 $d
/var/folders/sv/kgmgr77579zbf78p2zlhkdfr0000gn/T//ccMuP6SP.s:4886   .text.commands_process_packet:0000000000001624 $t
/var/folders/sv/kgmgr77579zbf78p2zlhkdfr0000gn/T//ccMuP6SP.s:5033   .text.commands_process_packet:00000000000016ec $d
/var/folders/sv/kgmgr77579zbf78p2zlhkdfr0000gn/T//ccMuP6SP.s:5043   .bss.send_func:0000000000000000 $d
/var/folders/sv/kgmgr77579zbf78p2zlhkdfr0000gn/T//ccMuP6SP.s:5047   .bss.send_func:0000000000000000 send_func
/var/folders/sv/kgmgr77579zbf78p2zlhkdfr0000gn/T//ccMuP6SP.s:5050   .bss.detect_min_rpm:0000000000000000 $d
ARM GAS  /var/folders/sv/kgmgr77579zbf78p2zlhkdfr0000gn/T//ccMuP6SP.s 			page 378


/var/folders/sv/kgmgr77579zbf78p2zlhkdfr0000gn/T//ccMuP6SP.s:5054   .bss.detect_min_rpm:0000000000000000 detect_min_rpm
/var/folders/sv/kgmgr77579zbf78p2zlhkdfr0000gn/T//ccMuP6SP.s:5057   .bss.appdata_func:0000000000000000 $d
/var/folders/sv/kgmgr77579zbf78p2zlhkdfr0000gn/T//ccMuP6SP.s:5061   .bss.appdata_func:0000000000000000 appdata_func
/var/folders/sv/kgmgr77579zbf78p2zlhkdfr0000gn/T//ccMuP6SP.s:5064   .bss.mcconf_old.11692:0000000000000000 $d
/var/folders/sv/kgmgr77579zbf78p2zlhkdfr0000gn/T//ccMuP6SP.s:5068   .bss.mcconf_old.11692:0000000000000000 mcconf_old.11692
/var/folders/sv/kgmgr77579zbf78p2zlhkdfr0000gn/T//ccMuP6SP.s:5071   .bss.detect_hall_table:0000000000000000 $d
/var/folders/sv/kgmgr77579zbf78p2zlhkdfr0000gn/T//ccMuP6SP.s:5075   .bss.detect_hall_table:0000000000000000 detect_hall_table
/var/folders/sv/kgmgr77579zbf78p2zlhkdfr0000gn/T//ccMuP6SP.s:5078   .bss.print_buffer.11759:0000000000000000 $d
/var/folders/sv/kgmgr77579zbf78p2zlhkdfr0000gn/T//ccMuP6SP.s:5082   .bss.print_buffer.11759:0000000000000000 print_buffer.11759
/var/folders/sv/kgmgr77579zbf78p2zlhkdfr0000gn/T//ccMuP6SP.s:5085   .bss.mcconf.11691:0000000000000000 $d
/var/folders/sv/kgmgr77579zbf78p2zlhkdfr0000gn/T//ccMuP6SP.s:5089   .bss.mcconf.11691:0000000000000000 mcconf.11691
/var/folders/sv/kgmgr77579zbf78p2zlhkdfr0000gn/T//ccMuP6SP.s:5092   .bss.detect_hall_res:0000000000000000 $d
/var/folders/sv/kgmgr77579zbf78p2zlhkdfr0000gn/T//ccMuP6SP.s:5096   .bss.detect_hall_res:0000000000000000 detect_hall_res
/var/folders/sv/kgmgr77579zbf78p2zlhkdfr0000gn/T//ccMuP6SP.s:5099   .bss.detect_thread_wa:0000000000000000 $d
/var/folders/sv/kgmgr77579zbf78p2zlhkdfr0000gn/T//ccMuP6SP.s:5103   .bss.detect_thread_wa:0000000000000000 detect_thread_wa
/var/folders/sv/kgmgr77579zbf78p2zlhkdfr0000gn/T//ccMuP6SP.s:5106   .bss.send_buffer:0000000000000000 $d
/var/folders/sv/kgmgr77579zbf78p2zlhkdfr0000gn/T//ccMuP6SP.s:5110   .bss.send_buffer:0000000000000000 send_buffer
/var/folders/sv/kgmgr77579zbf78p2zlhkdfr0000gn/T//ccMuP6SP.s:5113   .rodata.str1.4:0000000000000000 $d
/var/folders/sv/kgmgr77579zbf78p2zlhkdfr0000gn/T//ccMuP6SP.s:5120   .bss.detect_tp:0000000000000000 $d
/var/folders/sv/kgmgr77579zbf78p2zlhkdfr0000gn/T//ccMuP6SP.s:5124   .bss.detect_tp:0000000000000000 detect_tp
/var/folders/sv/kgmgr77579zbf78p2zlhkdfr0000gn/T//ccMuP6SP.s:5127   .bss.detect_low_duty:0000000000000000 $d
/var/folders/sv/kgmgr77579zbf78p2zlhkdfr0000gn/T//ccMuP6SP.s:5131   .bss.detect_low_duty:0000000000000000 detect_low_duty
/var/folders/sv/kgmgr77579zbf78p2zlhkdfr0000gn/T//ccMuP6SP.s:5134   .bss.detect_current:0000000000000000 $d
/var/folders/sv/kgmgr77579zbf78p2zlhkdfr0000gn/T//ccMuP6SP.s:5138   .bss.detect_current:0000000000000000 detect_current
/var/folders/sv/kgmgr77579zbf78p2zlhkdfr0000gn/T//ccMuP6SP.s:5141   .bss.detect_coupling_k:0000000000000000 $d
/var/folders/sv/kgmgr77579zbf78p2zlhkdfr0000gn/T//ccMuP6SP.s:5145   .bss.detect_coupling_k:0000000000000000 detect_coupling_k
/var/folders/sv/kgmgr77579zbf78p2zlhkdfr0000gn/T//ccMuP6SP.s:5148   .bss.send_func_last:0000000000000000 $d
/var/folders/sv/kgmgr77579zbf78p2zlhkdfr0000gn/T//ccMuP6SP.s:5152   .bss.send_func_last:0000000000000000 send_func_last
/var/folders/sv/kgmgr77579zbf78p2zlhkdfr0000gn/T//ccMuP6SP.s:5155   .bss.detect_cycle_int_limit:0000000000000000 $d
/var/folders/sv/kgmgr77579zbf78p2zlhkdfr0000gn/T//ccMuP6SP.s:5159   .bss.detect_cycle_int_limit:0000000000000000 detect_cycle_int_limit
/var/folders/sv/kgmgr77579zbf78p2zlhkdfr0000gn/T//ccMuP6SP.s:5165   .bss.display_position_mode:0000000000000000 display_position_mode
/var/folders/sv/kgmgr77579zbf78p2zlhkdfr0000gn/T//ccMuP6SP.s:5166   .bss.display_position_mode:0000000000000000 $d
                     .debug_frame:0000000000000010 $d

UNDEFINED SYMBOLS
chEvtWaitAny
conf_general_detect_motor_param
buffer_append_int32
ch
chThdCreateStatic
vsnprintf
memcpy
buffer_append_uint32
buffer_append_float32_auto
buffer_append_uint16
buffer_get_float32
conf_general_measure_flux_linkage
buffer_append_float32
mc_interface_get_configuration
mcpwm_set_detect
timeout_reset
app_ppm_get_decoded_level
servodec_get_last_pulse_len
app_nunchuk_get_decoded_chuk
app_adc_get_decoded_level
app_adc_get_voltage
app_adc_get_decoded_level2
ARM GAS  /var/folders/sv/kgmgr77579zbf78p2zlhkdfr0000gn/T//ccMuP6SP.s 			page 379


app_adc_get_voltage2
mc_interface_set_configuration
mcpwm_foc_hall_detect
encoder_is_configured
mcpwm_foc_encoder_detect
mcpwm_foc_measure_res_ind
chEvtSignal
conf_general_get_default_app_configuration
app_get_configuration
buffer_get_uint32
buffer_get_float32_auto
buffer_get_uint16
conf_general_store_app_configuration
app_set_configuration
timeout_configure
chThdSleep
terminal_process_string
mc_interface_sample_print_data
conf_general_get_default_mc_configuration
buffer_get_int32
utils_truncate_number
conf_general_store_mc_configuration
mc_interface_set_handbrake
mc_interface_set_pid_pos
mc_interface_set_pid_speed
mc_interface_set_brake_current
mc_interface_set_current
mc_interface_set_duty
mc_interface_temp_fet_filtered
buffer_append_float16
mc_interface_temp_motor_filtered
mc_interface_read_reset_avg_motor_current
mc_interface_read_reset_avg_input_current
mc_interface_read_reset_avg_id
mc_interface_read_reset_avg_iq
mc_interface_get_duty_cycle_now
mc_interface_get_rpm
mc_interface_get_amp_hours
mc_interface_get_amp_hours_charged
mc_interface_get_watt_hours
mc_interface_get_watt_hours_charged
mc_interface_get_tachometer_value
mc_interface_get_tachometer_abs_value
mc_interface_get_fault
mc_interface_get_pid_pos_now
flash_helper_write_new_app_data
flash_helper_erase_new_app
flash_helper_jump_to_bootloader
nrf_driver_start_pairing
buffer_get_int16
app_nunchuk_update_output
ADC_Value
comm_can_send_buffer
mc_interface_release_motor
