ARM GAS  /var/folders/sv/kgmgr77579zbf78p2zlhkdfr0000gn/T//cc3758bJ.s 			page 1


   1              		.syntax unified
   2              		.cpu cortex-m4
   3              		.eabi_attribute 27, 1
   4              		.eabi_attribute 28, 1
   5              		.fpu fpv4-sp-d16
   6              		.eabi_attribute 20, 1
   7              		.eabi_attribute 21, 1
   8              		.eabi_attribute 23, 3
   9              		.eabi_attribute 24, 1
  10              		.eabi_attribute 25, 1
  11              		.eabi_attribute 26, 1
  12              		.eabi_attribute 30, 2
  13              		.eabi_attribute 34, 1
  14              		.eabi_attribute 18, 4
  15              		.thumb
  16              		.syntax unified
  17              		.file	"comm_usb_serial.c"
  18              		.text
  19              	.Ltext0:
  20              		.cfi_sections	.debug_frame
  21              		.section	.text.get_descriptor,"ax",%progbits
  22              		.align	2
  23              		.p2align 4,,15
  24              		.thumb
  25              		.thumb_func
  26              		.type	get_descriptor, %function
  27              	get_descriptor:
  28              	.LFB256:
  29              		.file 1 "comm_usb_serial.c"
  30              		.loc 1 190 0
  31              		.cfi_startproc
  32              		@ args = 0, pretend = 0, frame = 0
  33              		@ frame_needed = 0, uses_anonymous_args = 0
  34              		@ link register save eliminated.
  35              	.LVL0:
  36              		.loc 1 194 0
  37 0000 0229     		cmp	r1, #2
  38 0002 06D0     		beq	.L3
  39 0004 0329     		cmp	r1, #3
  40 0006 06D0     		beq	.L4
  41 0008 0129     		cmp	r1, #1
  42              		.loc 1 203 0
  43 000a 0648     		ldr	r0, .L9
  44              	.LVL1:
  45 000c 18BF     		it	ne
  46 000e 0020     		movne	r0, #0
  47 0010 7047     		bx	lr
  48              	.LVL2:
  49              	.L3:
  50              		.loc 1 198 0
  51 0012 0548     		ldr	r0, .L9+4
  52              	.LVL3:
  53 0014 7047     		bx	lr
  54              	.LVL4:
  55              	.L4:
  56              		.loc 1 200 0
  57 0016 032A     		cmp	r2, #3
ARM GAS  /var/folders/sv/kgmgr77579zbf78p2zlhkdfr0000gn/T//cc3758bJ.s 			page 2


  58              		.loc 1 201 0
  59 0018 9ABF     		itte	ls
  60 001a 044B     		ldrls	r3, .L9+8
  61              	.LVL5:
  62 001c 03EBC200 		addls	r0, r3, r2, lsl #3
  63              	.LVL6:
  64              		.loc 1 203 0
  65 0020 0020     		movhi	r0, #0
  66              		.loc 1 204 0
  67 0022 7047     		bx	lr
  68              	.L10:
  69              		.align	2
  70              	.L9:
  71 0024 00000000 		.word	.LANCHOR0
  72 0028 00000000 		.word	.LANCHOR1
  73 002c 00000000 		.word	.LANCHOR2
  74              		.cfi_endproc
  75              	.LFE256:
  76              		.size	get_descriptor, .-get_descriptor
  77              		.section	.text.usb_event,"ax",%progbits
  78              		.align	2
  79              		.p2align 4,,15
  80              		.thumb
  81              		.thumb_func
  82              		.type	usb_event, %function
  83              	usb_event:
  84              	.LFB257:
  85              		.loc 1 256 0
  86              		.cfi_startproc
  87              		@ args = 0, pretend = 0, frame = 0
  88              		@ frame_needed = 0, uses_anonymous_args = 0
  89              	.LVL7:
  90              		.loc 1 258 0
  91 0000 0229     		cmp	r1, #2
  92 0002 15D1     		bne	.L15
  93              		.loc 1 256 0
  94 0004 38B5     		push	{r3, r4, r5, lr}
  95              		.cfi_def_cfa_offset 16
  96              		.cfi_offset 3, -16
  97              		.cfi_offset 4, -12
  98              		.cfi_offset 5, -8
  99              		.cfi_offset 14, -4
 100 0006 0546     		mov	r5, r0
 101 0008 0C46     		mov	r4, r1
 102              	.LVL8:
 103              	.LBB58:
 104              	.LBB59:
 105              	.LBB60:
 106              	.LBB61:
 107              	.LBB62:
 108              	.LBB63:
 109              	.LBB64:
 110              		.file 2 "ChibiOS_3.0.2/os/ext/CMSIS/include/core_cmFunc.h"
 111              		.loc 2 546 0
 112 000a 2023     		movs	r3, #32
 113              		.syntax unified
 114              	@ 546 "ChibiOS_3.0.2/os/ext/CMSIS/include/core_cmFunc.h" 1
ARM GAS  /var/folders/sv/kgmgr77579zbf78p2zlhkdfr0000gn/T//cc3758bJ.s 			page 3


 115 000c 83F31188 		MSR basepri, r3
 116              	@ 0 "" 2
 117              	.LVL9:
 118              		.thumb
 119              		.syntax unified
 120              	.LBE64:
 121              	.LBE63:
 122              	.LBE62:
 123              	.LBE61:
 124              	.LBE60:
 125              		.loc 1 269 0
 126 0010 084A     		ldr	r2, .L16
 127 0012 0121     		movs	r1, #1
 128              	.LVL10:
 129 0014 FFF7FEFF 		bl	usbInitEndpointI
 130              	.LVL11:
 131              		.loc 1 270 0
 132 0018 2146     		mov	r1, r4
 133 001a 2846     		mov	r0, r5
 134 001c 064A     		ldr	r2, .L16+4
 135 001e FFF7FEFF 		bl	usbInitEndpointI
 136              	.LVL12:
 137              		.loc 1 273 0
 138 0022 0648     		ldr	r0, .L16+8
 139 0024 FFF7FEFF 		bl	sduConfigureHookI
 140              	.LVL13:
 141              	.LBB65:
 142              	.LBB66:
 143              	.LBB67:
 144              	.LBB68:
 145              	.LBB69:
 146              		.loc 2 546 0
 147 0028 0023     		movs	r3, #0
 148              		.syntax unified
 149              	@ 546 "ChibiOS_3.0.2/os/ext/CMSIS/include/core_cmFunc.h" 1
 150 002a 83F31188 		MSR basepri, r3
 151              	@ 0 "" 2
 152              	.LVL14:
 153              		.thumb
 154              		.syntax unified
 155 002e 38BD     		pop	{r3, r4, r5, pc}
 156              	.LVL15:
 157              	.L15:
 158              		.cfi_def_cfa_offset 0
 159              		.cfi_restore 3
 160              		.cfi_restore 4
 161              		.cfi_restore 5
 162              		.cfi_restore 14
 163 0030 7047     		bx	lr
 164              	.L17:
 165 0032 00BF     		.align	2
 166              	.L16:
 167 0034 00000000 		.word	.LANCHOR3
 168 0038 00000000 		.word	.LANCHOR4
 169 003c 00000000 		.word	.LANCHOR5
 170              	.LBE69:
 171              	.LBE68:
ARM GAS  /var/folders/sv/kgmgr77579zbf78p2zlhkdfr0000gn/T//cc3758bJ.s 			page 4


 172              	.LBE67:
 173              	.LBE66:
 174              	.LBE65:
 175              	.LBE59:
 176              	.LBE58:
 177              		.cfi_endproc
 178              	.LFE257:
 179              		.size	usb_event, .-usb_event
 180              		.section	.text.comm_usb_serial_init,"ax",%progbits
 181              		.align	2
 182              		.p2align 4,,15
 183              		.global	comm_usb_serial_init
 184              		.thumb
 185              		.thumb_func
 186              		.type	comm_usb_serial_init, %function
 187              	comm_usb_serial_init:
 188              	.LFB258:
 189              		.loc 1 307 0
 190              		.cfi_startproc
 191              		@ args = 0, pretend = 0, frame = 0
 192              		@ frame_needed = 0, uses_anonymous_args = 0
 193 0000 70B5     		push	{r4, r5, r6, lr}
 194              		.cfi_def_cfa_offset 16
 195              		.cfi_offset 4, -16
 196              		.cfi_offset 5, -12
 197              		.cfi_offset 6, -8
 198              		.cfi_offset 14, -4
 199              		.loc 1 308 0
 200 0002 154E     		ldr	r6, .L20
 201              		.loc 1 317 0
 202 0004 154D     		ldr	r5, .L20+4
 203              		.loc 1 325 0
 204 0006 164C     		ldr	r4, .L20+8
 205              		.loc 1 308 0
 206 0008 3046     		mov	r0, r6
 207 000a 40F20A52 		movw	r2, #1290
 208 000e 4FF40061 		mov	r1, #2048
 209 0012 FFF7FEFF 		bl	_pal_lld_setgroupmode
 210              	.LVL16:
 211              		.loc 1 312 0
 212 0016 40F20A52 		movw	r2, #1290
 213 001a 4FF48051 		mov	r1, #4096
 214 001e 3046     		mov	r0, r6
 215 0020 FFF7FEFF 		bl	_pal_lld_setgroupmode
 216              	.LVL17:
 217              		.loc 1 317 0
 218 0024 2846     		mov	r0, r5
 219 0026 FFF7FEFF 		bl	sduObjectInit
 220              	.LVL18:
 221              		.loc 1 318 0
 222 002a 0E49     		ldr	r1, .L20+12
 223 002c 2846     		mov	r0, r5
 224 002e FFF7FEFF 		bl	sduStart
 225              	.LVL19:
 226              		.loc 1 325 0
 227 0032 226D     		ldr	r2, [r4, #80]
 228 0034 936B     		ldr	r3, [r2, #56]
ARM GAS  /var/folders/sv/kgmgr77579zbf78p2zlhkdfr0000gn/T//cc3758bJ.s 			page 5


 229 0036 23F40023 		bic	r3, r3, #524288
 230 003a 9363     		str	r3, [r2, #56]
 231              		.loc 1 326 0
 232 003c 43F69820 		movw	r0, #15000
 233 0040 FFF7FEFF 		bl	chThdSleep
 234              	.LVL20:
 235              		.loc 1 327 0
 236 0044 2046     		mov	r0, r4
 237 0046 0849     		ldr	r1, .L20+16
 238 0048 FFF7FEFF 		bl	usbStart
 239              	.LVL21:
 240              		.loc 1 328 0
 241 004c 226D     		ldr	r2, [r4, #80]
 242 004e 936B     		ldr	r3, [r2, #56]
 243 0050 43F40023 		orr	r3, r3, #524288
 244 0054 9363     		str	r3, [r2, #56]
 245 0056 70BD     		pop	{r4, r5, r6, pc}
 246              	.L21:
 247              		.align	2
 248              	.L20:
 249 0058 00000240 		.word	1073872896
 250 005c 00000000 		.word	.LANCHOR5
 251 0060 00000000 		.word	USBD1
 252 0064 00000000 		.word	.LANCHOR6
 253 0068 00000000 		.word	.LANCHOR7
 254              		.cfi_endproc
 255              	.LFE258:
 256              		.size	comm_usb_serial_init, .-comm_usb_serial_init
 257              		.section	.text.comm_usb_serial_is_active,"ax",%progbits
 258              		.align	2
 259              		.p2align 4,,15
 260              		.global	comm_usb_serial_is_active
 261              		.thumb
 262              		.thumb_func
 263              		.type	comm_usb_serial_is_active, %function
 264              	comm_usb_serial_is_active:
 265              	.LFB259:
 266              		.loc 1 331 0
 267              		.cfi_startproc
 268              		@ args = 0, pretend = 0, frame = 0
 269              		@ frame_needed = 0, uses_anonymous_args = 0
 270              		@ link register save eliminated.
 271              		.loc 1 332 0
 272 0000 054B     		ldr	r3, .L23
 273 0002 D3F85432 		ldr	r3, [r3, #596]
 274 0006 1B68     		ldr	r3, [r3]
 275 0008 1878     		ldrb	r0, [r3]	@ zero_extendqisi2
 276              		.loc 1 333 0
 277 000a A0F10400 		sub	r0, #4
 278 000e B0FA80F0 		clz	r0, r0
 279 0012 4009     		lsrs	r0, r0, #5
 280 0014 7047     		bx	lr
 281              	.L24:
 282 0016 00BF     		.align	2
 283              	.L23:
 284 0018 00000000 		.word	.LANCHOR5
 285              		.cfi_endproc
ARM GAS  /var/folders/sv/kgmgr77579zbf78p2zlhkdfr0000gn/T//cc3758bJ.s 			page 6


 286              	.LFE259:
 287              		.size	comm_usb_serial_is_active, .-comm_usb_serial_is_active
 288              		.global	serusbcfg
 289              		.global	SDU1
 290              		.section	.rodata.ep1config,"a",%progbits
 291              		.align	2
 292              		.set	.LANCHOR3,. + 0
 293              		.type	ep1config, %object
 294              		.size	ep1config, 36
 295              	ep1config:
 296 0000 02000000 		.word	2
 297 0004 00000000 		.word	0
 298 0008 00000000 		.word	sduDataTransmitted
 299 000c 00000000 		.word	sduDataReceived
 300 0010 4000     		.short	64
 301 0012 4000     		.short	64
 302 0014 00000000 		.word	ep1instate
 303 0018 00000000 		.word	ep1outstate
 304 001c 0200     		.short	2
 305 001e 0000     		.space	2
 306 0020 00000000 		.word	0
 307              		.section	.bss.ep2instate,"aw",%nobits
 308              		.align	2
 309              		.type	ep2instate, %object
 310              		.size	ep2instate, 20
 311              	ep2instate:
 312 0000 00000000 		.space	20
 312      00000000 
 312      00000000 
 312      00000000 
 312      00000000 
 313              		.section	.bss.SDU1,"aw",%nobits
 314              		.align	2
 315              		.set	.LANCHOR5,. + 0
 316              		.type	SDU1, %object
 317              		.size	SDU1, 600
 318              	SDU1:
 319 0000 00000000 		.space	600
 319      00000000 
 319      00000000 
 319      00000000 
 319      00000000 
 320              		.section	.bss.ep1instate,"aw",%nobits
 321              		.align	2
 322              		.type	ep1instate, %object
 323              		.size	ep1instate, 20
 324              	ep1instate:
 325 0000 00000000 		.space	20
 325      00000000 
 325      00000000 
 325      00000000 
 325      00000000 
 326              		.section	.rodata.vcom_configuration_descriptor,"a",%progbits
 327              		.align	2
 328              		.set	.LANCHOR1,. + 0
 329              		.type	vcom_configuration_descriptor, %object
 330              		.size	vcom_configuration_descriptor, 8
ARM GAS  /var/folders/sv/kgmgr77579zbf78p2zlhkdfr0000gn/T//cc3758bJ.s 			page 7


 331              	vcom_configuration_descriptor:
 332 0000 43000000 		.word	67
 333 0004 00000000 		.word	vcom_configuration_descriptor_data
 334              		.section	.rodata.ep2config,"a",%progbits
 335              		.align	2
 336              		.set	.LANCHOR4,. + 0
 337              		.type	ep2config, %object
 338              		.size	ep2config, 36
 339              	ep2config:
 340 0000 03000000 		.word	3
 341 0004 00000000 		.word	0
 342 0008 00000000 		.word	sduInterruptTransmitted
 343 000c 00000000 		.word	0
 344 0010 1000     		.short	16
 345 0012 0000     		.short	0
 346 0014 00000000 		.word	ep2instate
 347 0018 00000000 		.word	0
 348 001c 0100     		.short	1
 349 001e 0000     		.space	2
 350 0020 00000000 		.word	0
 351              		.section	.rodata.usbcfg,"a",%progbits
 352              		.align	2
 353              		.set	.LANCHOR7,. + 0
 354              		.type	usbcfg, %object
 355              		.size	usbcfg, 16
 356              	usbcfg:
 357 0000 00000000 		.word	usb_event
 358 0004 00000000 		.word	get_descriptor
 359 0008 00000000 		.word	sduRequestsHook
 360 000c 00000000 		.word	0
 361              		.section	.rodata.vcom_configuration_descriptor_data,"a",%progbits
 362              		.align	2
 363              		.type	vcom_configuration_descriptor_data, %object
 364              		.size	vcom_configuration_descriptor_data, 67
 365              	vcom_configuration_descriptor_data:
 366 0000 09       		.byte	9
 367 0001 02       		.byte	2
 368 0002 43       		.byte	67
 369 0003 00       		.byte	0
 370 0004 02       		.byte	2
 371 0005 01       		.byte	1
 372 0006 00       		.byte	0
 373 0007 C0       		.byte	-64
 374 0008 32       		.byte	50
 375 0009 09       		.byte	9
 376 000a 04       		.byte	4
 377 000b 00       		.byte	0
 378 000c 00       		.byte	0
 379 000d 01       		.byte	1
 380 000e 02       		.byte	2
 381 000f 02       		.byte	2
 382 0010 01       		.byte	1
 383 0011 00       		.byte	0
 384 0012 05       		.byte	5
 385 0013 24       		.byte	36
 386 0014 00       		.byte	0
 387 0015 10       		.byte	16
ARM GAS  /var/folders/sv/kgmgr77579zbf78p2zlhkdfr0000gn/T//cc3758bJ.s 			page 8


 388 0016 01       		.byte	1
 389 0017 05       		.byte	5
 390 0018 24       		.byte	36
 391 0019 01       		.byte	1
 392 001a 00       		.byte	0
 393 001b 01       		.byte	1
 394 001c 04       		.byte	4
 395 001d 24       		.byte	36
 396 001e 02       		.byte	2
 397 001f 02       		.byte	2
 398 0020 05       		.byte	5
 399 0021 24       		.byte	36
 400 0022 06       		.byte	6
 401 0023 00       		.byte	0
 402 0024 01       		.byte	1
 403 0025 07       		.byte	7
 404 0026 05       		.byte	5
 405 0027 82       		.byte	-126
 406 0028 03       		.byte	3
 407 0029 08       		.byte	8
 408 002a 00       		.byte	0
 409 002b FF       		.byte	-1
 410 002c 09       		.byte	9
 411 002d 04       		.byte	4
 412 002e 01       		.byte	1
 413 002f 00       		.byte	0
 414 0030 02       		.byte	2
 415 0031 0A       		.byte	10
 416 0032 00       		.byte	0
 417 0033 00       		.byte	0
 418 0034 00       		.byte	0
 419 0035 07       		.byte	7
 420 0036 05       		.byte	5
 421 0037 01       		.byte	1
 422 0038 02       		.byte	2
 423 0039 40       		.byte	64
 424 003a 00       		.byte	0
 425 003b 00       		.byte	0
 426 003c 07       		.byte	7
 427 003d 05       		.byte	5
 428 003e 81       		.byte	-127
 429 003f 02       		.byte	2
 430 0040 40       		.byte	64
 431 0041 00       		.byte	0
 432 0042 00       		.byte	0
 433              		.section	.rodata.vcom_device_descriptor_data,"a",%progbits
 434              		.align	2
 435              		.type	vcom_device_descriptor_data, %object
 436              		.size	vcom_device_descriptor_data, 18
 437              	vcom_device_descriptor_data:
 438 0000 12       		.byte	18
 439 0001 01       		.byte	1
 440 0002 10       		.byte	16
 441 0003 01       		.byte	1
 442 0004 02       		.byte	2
 443 0005 00       		.byte	0
 444 0006 00       		.byte	0
ARM GAS  /var/folders/sv/kgmgr77579zbf78p2zlhkdfr0000gn/T//cc3758bJ.s 			page 9


 445 0007 40       		.byte	64
 446 0008 83       		.byte	-125
 447 0009 04       		.byte	4
 448 000a 40       		.byte	64
 449 000b 57       		.byte	87
 450 000c 00       		.byte	0
 451 000d 02       		.byte	2
 452 000e 01       		.byte	1
 453 000f 02       		.byte	2
 454 0010 03       		.byte	3
 455 0011 01       		.byte	1
 456              		.section	.bss.ep1outstate,"aw",%nobits
 457              		.align	2
 458              		.type	ep1outstate, %object
 459              		.size	ep1outstate, 20
 460              	ep1outstate:
 461 0000 00000000 		.space	20
 461      00000000 
 461      00000000 
 461      00000000 
 461      00000000 
 462              		.section	.rodata.vcom_string0,"a",%progbits
 463              		.align	2
 464              		.type	vcom_string0, %object
 465              		.size	vcom_string0, 4
 466              	vcom_string0:
 467 0000 04       		.byte	4
 468 0001 03       		.byte	3
 469 0002 09       		.byte	9
 470 0003 04       		.byte	4
 471              		.section	.rodata.vcom_string1,"a",%progbits
 472              		.align	2
 473              		.type	vcom_string1, %object
 474              		.size	vcom_string1, 38
 475              	vcom_string1:
 476 0000 26       		.byte	38
 477 0001 03       		.byte	3
 478 0002 53       		.byte	83
 479 0003 00       		.byte	0
 480 0004 54       		.byte	84
 481 0005 00       		.byte	0
 482 0006 4D       		.byte	77
 483 0007 00       		.byte	0
 484 0008 69       		.byte	105
 485 0009 00       		.byte	0
 486 000a 63       		.byte	99
 487 000b 00       		.byte	0
 488 000c 72       		.byte	114
 489 000d 00       		.byte	0
 490 000e 6F       		.byte	111
 491 000f 00       		.byte	0
 492 0010 65       		.byte	101
 493 0011 00       		.byte	0
 494 0012 6C       		.byte	108
 495 0013 00       		.byte	0
 496 0014 65       		.byte	101
 497 0015 00       		.byte	0
ARM GAS  /var/folders/sv/kgmgr77579zbf78p2zlhkdfr0000gn/T//cc3758bJ.s 			page 10


 498 0016 63       		.byte	99
 499 0017 00       		.byte	0
 500 0018 74       		.byte	116
 501 0019 00       		.byte	0
 502 001a 72       		.byte	114
 503 001b 00       		.byte	0
 504 001c 6F       		.byte	111
 505 001d 00       		.byte	0
 506 001e 6E       		.byte	110
 507 001f 00       		.byte	0
 508 0020 69       		.byte	105
 509 0021 00       		.byte	0
 510 0022 63       		.byte	99
 511 0023 00       		.byte	0
 512 0024 73       		.byte	115
 513 0025 00       		.byte	0
 514              		.section	.rodata.vcom_string2,"a",%progbits
 515              		.align	2
 516              		.type	vcom_string2, %object
 517              		.size	vcom_string2, 56
 518              	vcom_string2:
 519 0000 38       		.byte	56
 520 0001 03       		.byte	3
 521 0002 43       		.byte	67
 522 0003 00       		.byte	0
 523 0004 68       		.byte	104
 524 0005 00       		.byte	0
 525 0006 69       		.byte	105
 526 0007 00       		.byte	0
 527 0008 62       		.byte	98
 528 0009 00       		.byte	0
 529 000a 69       		.byte	105
 530 000b 00       		.byte	0
 531 000c 4F       		.byte	79
 532 000d 00       		.byte	0
 533 000e 53       		.byte	83
 534 000f 00       		.byte	0
 535 0010 2F       		.byte	47
 536 0011 00       		.byte	0
 537 0012 52       		.byte	82
 538 0013 00       		.byte	0
 539 0014 54       		.byte	84
 540 0015 00       		.byte	0
 541 0016 20       		.byte	32
 542 0017 00       		.byte	0
 543 0018 56       		.byte	86
 544 0019 00       		.byte	0
 545 001a 69       		.byte	105
 546 001b 00       		.byte	0
 547 001c 72       		.byte	114
 548 001d 00       		.byte	0
 549 001e 74       		.byte	116
 550 001f 00       		.byte	0
 551 0020 75       		.byte	117
 552 0021 00       		.byte	0
 553 0022 61       		.byte	97
 554 0023 00       		.byte	0
ARM GAS  /var/folders/sv/kgmgr77579zbf78p2zlhkdfr0000gn/T//cc3758bJ.s 			page 11


 555 0024 6C       		.byte	108
 556 0025 00       		.byte	0
 557 0026 20       		.byte	32
 558 0027 00       		.byte	0
 559 0028 43       		.byte	67
 560 0029 00       		.byte	0
 561 002a 4F       		.byte	79
 562 002b 00       		.byte	0
 563 002c 4D       		.byte	77
 564 002d 00       		.byte	0
 565 002e 20       		.byte	32
 566 002f 00       		.byte	0
 567 0030 50       		.byte	80
 568 0031 00       		.byte	0
 569 0032 6F       		.byte	111
 570 0033 00       		.byte	0
 571 0034 72       		.byte	114
 572 0035 00       		.byte	0
 573 0036 74       		.byte	116
 574 0037 00       		.byte	0
 575              		.section	.rodata.vcom_string3,"a",%progbits
 576              		.align	2
 577              		.type	vcom_string3, %object
 578              		.size	vcom_string3, 8
 579              	vcom_string3:
 580 0000 08       		.byte	8
 581 0001 03       		.byte	3
 582 0002 33       		.byte	51
 583 0003 00       		.byte	0
 584 0004 30       		.byte	48
 585 0005 00       		.byte	0
 586 0006 31       		.byte	49
 587 0007 00       		.byte	0
 588              		.section	.rodata.vcom_strings,"a",%progbits
 589              		.align	2
 590              		.set	.LANCHOR2,. + 0
 591              		.type	vcom_strings, %object
 592              		.size	vcom_strings, 32
 593              	vcom_strings:
 594 0000 04000000 		.word	4
 595 0004 00000000 		.word	vcom_string0
 596 0008 26000000 		.word	38
 597 000c 00000000 		.word	vcom_string1
 598 0010 38000000 		.word	56
 599 0014 00000000 		.word	vcom_string2
 600 0018 08000000 		.word	8
 601 001c 00000000 		.word	vcom_string3
 602              		.section	.rodata.serusbcfg,"a",%progbits
 603              		.align	2
 604              		.set	.LANCHOR6,. + 0
 605              		.type	serusbcfg, %object
 606              		.size	serusbcfg, 8
 607              	serusbcfg:
 608 0000 00000000 		.word	USBD1
 609 0004 01       		.byte	1
 610 0005 01       		.byte	1
 611 0006 02       		.byte	2
ARM GAS  /var/folders/sv/kgmgr77579zbf78p2zlhkdfr0000gn/T//cc3758bJ.s 			page 12


 612 0007 00       		.space	1
 613              		.section	.rodata.vcom_device_descriptor,"a",%progbits
 614              		.align	2
 615              		.set	.LANCHOR0,. + 0
 616              		.type	vcom_device_descriptor, %object
 617              		.size	vcom_device_descriptor, 8
 618              	vcom_device_descriptor:
 619 0000 12000000 		.word	18
 620 0004 00000000 		.word	vcom_device_descriptor_data
 621              		.text
 622              	.Letext0:
 623              		.file 3 "/usr/local/Cellar/gcc-arm-none-eabi/20160928/lib/gcc/arm-none-eabi/5.4.1/include/stddef.h
 624              		.file 4 "/usr/local/Cellar/gcc-arm-none-eabi/20160928/arm-none-eabi/include/machine/_default_types
 625              		.file 5 "/usr/local/Cellar/gcc-arm-none-eabi/20160928/arm-none-eabi/include/sys/_stdint.h"
 626              		.file 6 "ChibiOS_3.0.2/os/rt/ports/ARMCMx/compilers/GCC/chtypes.h"
 627              		.file 7 "ChibiOS_3.0.2/os/rt/include/chsystypes.h"
 628              		.file 8 "ChibiOS_3.0.2/os/rt/include/chschd.h"
 629              		.file 9 "ChibiOS_3.0.2/os/rt/ports/ARMCMx/chcore.h"
 630              		.file 10 "ChibiOS_3.0.2/os/rt/ports/ARMCMx/chcore_v7m.h"
 631              		.file 11 "ChibiOS_3.0.2/os/rt/include/chtm.h"
 632              		.file 12 "ChibiOS_3.0.2/os/rt/include/chsem.h"
 633              		.file 13 "ChibiOS_3.0.2/os/rt/include/chmtx.h"
 634              		.file 14 "ChibiOS_3.0.2/os/rt/include/chevents.h"
 635              		.file 15 "ChibiOS_3.0.2/os/rt/include/chqueues.h"
 636              		.file 16 "ChibiOS_3.0.2/os/hal/ports/STM32/LLD/GPIOv2/pal_lld.h"
 637              		.file 17 "ChibiOS_3.0.2/os/hal/include/usb.h"
 638              		.file 18 "ChibiOS_3.0.2/os/hal/ports/STM32/LLD/OTGv1/usb_lld.h"
 639              		.file 19 "ChibiOS_3.0.2/os/hal/ports/STM32/LLD/OTGv1/stm32_otg.h"
 640              		.file 20 "ChibiOS_3.0.2/os/hal/include/serial_usb.h"
 641              		.file 21 "ChibiOS_3.0.2/os/rt/include/chsys.h"
 642              		.file 22 "ChibiOS_3.0.2/os/ext/CMSIS/include/core_cm4.h"
 643              		.file 23 "ChibiOS_3.0.2/os/rt/include/chthreads.h"