ARM GAS  /var/folders/sv/kgmgr77579zbf78p2zlhkdfr0000gn/T//ccMuP6SP.s 			page 1


   1              		.syntax unified
   2              		.cpu cortex-m4
   3              		.eabi_attribute 27, 1
   4              		.eabi_attribute 28, 1
   5              		.fpu fpv4-sp-d16
   6              		.eabi_attribute 20, 1
   7              		.eabi_attribute 21, 1
   8              		.eabi_attribute 23, 3
   9              		.eabi_attribute 24, 1
  10              		.eabi_attribute 25, 1
  11              		.eabi_attribute 26, 1
  12              		.eabi_attribute 30, 2
  13              		.eabi_attribute 34, 1
  14              		.eabi_attribute 18, 4
  15              		.thumb
  16              		.syntax unified
  17              		.file	"commands.c"
  18              		.text
  19              	.Ltext0:
  20              		.cfi_sections	.debug_frame
  21              		.section	.text.detect_thread,"ax",%progbits
  22              		.align	2
  23              		.p2align 4,,15
  24              		.thumb
  25              		.thumb_func
  26              		.type	detect_thread, %function
  27              	detect_thread:
  28              	.LFB268:
  29              		.file 1 "commands.c"
  30              		.loc 1 997 0
  31              		.cfi_startproc
  32              		@ args = 0, pretend = 0, frame = 16
  33              		@ frame_needed = 0, uses_anonymous_args = 0
  34              	.LVL0:
  35 0000 2DE9F04F 		push	{r4, r5, r6, r7, r8, r9, r10, fp, lr}
  36              		.cfi_def_cfa_offset 36
  37              		.cfi_offset 4, -36
  38              		.cfi_offset 5, -32
  39              		.cfi_offset 6, -28
  40              		.cfi_offset 7, -24
  41              		.cfi_offset 8, -20
  42              		.cfi_offset 9, -16
  43              		.cfi_offset 10, -12
  44              		.cfi_offset 11, -8
  45              		.cfi_offset 14, -4
  46              	.LBB66:
  47              	.LBB67:
  48              		.file 2 "ChibiOS_3.0.2/os/rt/include/chregistry.h"
  49              		.loc 2 135 0
  50 0004 324B     		ldr	r3, .L12
  51              	.LBE67:
  52              	.LBE66:
  53              		.loc 1 1002 0
  54 0006 334A     		ldr	r2, .L12+4
  55              	.LBB70:
  56              	.LBB68:
  57              		.loc 2 135 0
ARM GAS  /var/folders/sv/kgmgr77579zbf78p2zlhkdfr0000gn/T//ccMuP6SP.s 			page 2


  58 0008 9B69     		ldr	r3, [r3, #24]
  59 000a 3349     		ldr	r1, .L12+8
  60 000c DFF8DCB0 		ldr	fp, .L12+28
  61 0010 DFF8ECA0 		ldr	r10, .L12+48
  62 0014 DFF8EC90 		ldr	r9, .L12+52
  63 0018 DFF8EC80 		ldr	r8, .L12+56
  64 001c 2F4C     		ldr	r4, .L12+12
  65 001e 304F     		ldr	r7, .L12+16
  66              	.LBE68:
  67              	.LBE70:
  68              		.loc 1 997 0
  69 0020 2DED028B 		vpush.64	{d8}
  70              		.cfi_def_cfa_offset 44
  71              		.cfi_offset 80, -44
  72              		.cfi_offset 81, -40
  73 0024 9FED2F8A 		vldr.32	s16, .L12+20
  74              	.LBB71:
  75              		.loc 1 1010 0
  76 0028 DFED2F8A 		vldr.32	s17, .L12+24
  77              	.LBE71:
  78              	.LBB74:
  79              	.LBB69:
  80              		.loc 2 135 0
  81 002c 9961     		str	r1, [r3, #24]
  82              	.LVL1:
  83              	.LBE69:
  84              	.LBE74:
  85              		.loc 1 997 0
  86 002e 85B0     		sub	sp, sp, #20
  87              		.cfi_def_cfa_offset 64
  88              		.loc 1 1002 0
  89 0030 1360     		str	r3, [r2]
  90              	.LVL2:
  91              	.L6:
  92              	.LBB75:
  93              		.loc 1 1007 0
  94 0032 2E4E     		ldr	r6, .L12+28
  95 0034 2E4D     		ldr	r5, .L12+32
  96              		.loc 1 1005 0
  97 0036 0120     		movs	r0, #1
  98 0038 FFF7FEFF 		bl	chEvtWaitAny
  99              	.LVL3:
 100              		.loc 1 1007 0
 101 003c 3146     		mov	r1, r6
 102 003e 2846     		mov	r0, r5
 103 0040 274B     		ldr	r3, .L12+16
 104 0042 2C4A     		ldr	r2, .L12+36
 105 0044 9AED001A 		vldr.32	s2, [r10]
 106 0048 D9ED000A 		vldr.32	s1, [r9]
 107 004c 98ED000A 		vldr.32	s0, [r8]
 108 0050 FFF7FEFF 		bl	conf_general_detect_motor_param
 109              	.LVL4:
 110 0054 68B3     		cbz	r0, .L2
 111 0056 D5ED007A 		vldr.32	s15, [r5]
 112 005a 67EE887A 		vmul.f32	s15, s15, s16
 113 005e FDEEE77A 		vcvt.s32.f32	s15, s15
 114 0062 CDED017A 		vstr.32	s15, [sp, #4]	@ int
ARM GAS  /var/folders/sv/kgmgr77579zbf78p2zlhkdfr0000gn/T//ccMuP6SP.s 			page 3


 115              	.L3:
 116              		.loc 1 1015 0
 117 0066 0120     		movs	r0, #1
 118 0068 1823     		movs	r3, #24
 119              		.loc 1 1016 0
 120 006a 03AA     		add	r2, sp, #12
 121 006c 0199     		ldr	r1, [sp, #4]
 122              		.loc 1 1015 0
 123 006e 0390     		str	r0, [sp, #12]
 124              		.loc 1 1016 0
 125 0070 1A48     		ldr	r0, .L12+12
 126              		.loc 1 1015 0
 127 0072 2370     		strb	r3, [r4]
 128              		.loc 1 1016 0
 129 0074 FFF7FEFF 		bl	buffer_append_int32
 130              	.LVL5:
 131              		.loc 1 1017 0
 132 0078 DBED007A 		vldr.32	s15, [fp]
 133 007c 1748     		ldr	r0, .L12+12
 134 007e 67EE887A 		vmul.f32	s15, s15, s16
 135 0082 03AA     		add	r2, sp, #12
 136 0084 FDEEE77A 		vcvt.s32.f32	s15, s15
 137 0088 17EE901A 		vmov	r1, s15	@ int
 138 008c FFF7FEFF 		bl	buffer_append_int32
 139              	.LVL6:
 140              		.loc 1 1022 0
 141 0090 1949     		ldr	r1, .L12+40
 142              		.loc 1 1018 0
 143 0092 184A     		ldr	r2, .L12+36
 144 0094 039B     		ldr	r3, [sp, #12]
 145              		.loc 1 1022 0
 146 0096 0D68     		ldr	r5, [r1]
 147              		.loc 1 1020 0
 148 0098 3E68     		ldr	r6, [r7]
 149              		.loc 1 1018 0
 150 009a 03CA     		ldmia	r2!, {r0, r1}
 151 009c E218     		adds	r2, r4, r3
 152 009e E050     		str	r0, [r4, r3]	@ unaligned
 153              		.loc 1 1020 0
 154 00a0 0933     		adds	r3, r3, #9
 155              		.loc 1 1018 0
 156 00a2 5160     		str	r1, [r2, #4]	@ unaligned
 157              		.loc 1 1023 0
 158 00a4 0D48     		ldr	r0, .L12+12
 159              		.loc 1 1020 0
 160 00a6 0393     		str	r3, [sp, #12]
 161              		.loc 1 1023 0
 162 00a8 1946     		mov	r1, r3
 163              		.loc 1 1020 0
 164 00aa 1672     		strb	r6, [r2, #8]
 165              		.loc 1 1022 0
 166 00ac 3DB1     		cbz	r5, .L4
 167              		.loc 1 1023 0
 168 00ae A847     		blx	r5
 169              	.LVL7:
 170 00b0 BFE7     		b	.L6
 171              	.L2:
ARM GAS  /var/folders/sv/kgmgr77579zbf78p2zlhkdfr0000gn/T//ccMuP6SP.s 			page 4


 172              		.loc 1 1010 0
 173 00b2 C5ED008A 		vstr.32	s17, [r5]
 174              		.loc 1 1011 0
 175 00b6 C6ED008A 		vstr.32	s17, [r6]
 176 00ba 0190     		str	r0, [sp, #4]
 177 00bc D3E7     		b	.L3
 178              	.L4:
 179              	.LVL8:
 180              	.LBB72:
 181              	.LBB73:
 182              		.loc 1 91 0
 183 00be 1946     		mov	r1, r3
 184              		.loc 1 90 0
 185 00c0 0E4B     		ldr	r3, .L12+44
 186              		.loc 1 91 0
 187 00c2 0648     		ldr	r0, .L12+12
 188              		.loc 1 90 0
 189 00c4 1B68     		ldr	r3, [r3]
 190 00c6 002B     		cmp	r3, #0
 191 00c8 B3D0     		beq	.L6
 192              		.loc 1 91 0
 193 00ca 9847     		blx	r3
 194              	.LVL9:
 195              	.LBE73:
 196              	.LBE72:
 197              	.LBE75:
 198              		.loc 1 1027 0
 199 00cc B1E7     		b	.L6
 200              	.L13:
 201 00ce 00BF     		.align	2
 202              	.L12:
 203 00d0 00000000 		.word	ch
 204 00d4 00000000 		.word	.LANCHOR0
 205 00d8 00000000 		.word	.LC0
 206 00dc 00000000 		.word	.LANCHOR8
 207 00e0 00000000 		.word	.LANCHOR1
 208 00e4 00007A44 		.word	1148846080
 209 00e8 00000000 		.word	0
 210 00ec 00000000 		.word	.LANCHOR3
 211 00f0 00000000 		.word	.LANCHOR4
 212 00f4 00000000 		.word	.LANCHOR2
 213 00f8 00000000 		.word	.LANCHOR9
 214 00fc 00000000 		.word	.LANCHOR10
 215 0100 00000000 		.word	.LANCHOR5
 216 0104 00000000 		.word	.LANCHOR6
 217 0108 00000000 		.word	.LANCHOR7
 218              		.cfi_endproc
 219              	.LFE268:
 220              		.size	detect_thread, .-detect_thread
 221              		.section	.text.commands_init,"ax",%progbits
 222              		.align	2
 223              		.p2align 4,,15
 224              		.global	commands_init
 225              		.thumb
 226              		.thumb_func
 227              		.type	commands_init, %function
 228              	commands_init:
ARM GAS  /var/folders/sv/kgmgr77579zbf78p2zlhkdfr0000gn/T//ccMuP6SP.s 			page 5


 229              	.LFB257:
 230              		.loc 1 66 0
 231              		.cfi_startproc
 232              		@ args = 0, pretend = 0, frame = 0
 233              		@ frame_needed = 0, uses_anonymous_args = 0
 234 0000 00B5     		push	{lr}
 235              		.cfi_def_cfa_offset 4
 236              		.cfi_offset 14, -4
 237 0002 83B0     		sub	sp, sp, #12
 238              		.cfi_def_cfa_offset 16
 239              		.loc 1 67 0
 240 0004 0023     		movs	r3, #0
 241 0006 0093     		str	r3, [sp]
 242 0008 4022     		movs	r2, #64
 243 000a 044B     		ldr	r3, .L16
 244 000c 0448     		ldr	r0, .L16+4
 245 000e 40F69811 		movw	r1, #2456
 246 0012 FFF7FEFF 		bl	chThdCreateStatic
 247              	.LVL10:
 248              		.loc 1 68 0
 249 0016 03B0     		add	sp, sp, #12
 250              		.cfi_def_cfa_offset 4
 251              		@ sp needed
 252 0018 5DF804FB 		ldr	pc, [sp], #4
 253              	.L17:
 254              		.align	2
 255              	.L16:
 256 001c 00000000 		.word	detect_thread
 257 0020 00000000 		.word	.LANCHOR11
 258              		.cfi_endproc
 259              	.LFE257:
 260              		.size	commands_init, .-commands_init
 261              		.section	.text.commands_set_send_func,"ax",%progbits
 262              		.align	2
 263              		.p2align 4,,15
 264              		.global	commands_set_send_func
 265              		.thumb
 266              		.thumb_func
 267              		.type	commands_set_send_func, %function
 268              	commands_set_send_func:
 269              	.LFB258:
 270              		.loc 1 76 0
 271              		.cfi_startproc
 272              		@ args = 0, pretend = 0, frame = 0
 273              		@ frame_needed = 0, uses_anonymous_args = 0
 274              		@ link register save eliminated.
 275              	.LVL11:
 276              		.loc 1 77 0
 277 0000 014B     		ldr	r3, .L19
 278 0002 1860     		str	r0, [r3]
 279 0004 7047     		bx	lr
 280              	.L20:
 281 0006 00BF     		.align	2
 282              	.L19:
 283 0008 00000000 		.word	.LANCHOR10
 284              		.cfi_endproc
 285              	.LFE258:
ARM GAS  /var/folders/sv/kgmgr77579zbf78p2zlhkdfr0000gn/T//ccMuP6SP.s 			page 6


 286              		.size	commands_set_send_func, .-commands_set_send_func
 287              		.section	.text.commands_send_packet,"ax",%progbits
 288              		.align	2
 289              		.p2align 4,,15
 290              		.global	commands_send_packet
 291              		.thumb
 292              		.thumb_func
 293              		.type	commands_send_packet, %function
 294              	commands_send_packet:
 295              	.LFB259:
 296              		.loc 1 89 0
 297              		.cfi_startproc
 298              		@ args = 0, pretend = 0, frame = 0
 299              		@ frame_needed = 0, uses_anonymous_args = 0
 300              		@ link register save eliminated.
 301              	.LVL12:
 302              		.loc 1 90 0
 303 0000 024B     		ldr	r3, .L23
 304 0002 1B68     		ldr	r3, [r3]
 305 0004 03B1     		cbz	r3, .L21
 306              		.loc 1 91 0
 307 0006 1847     		bx	r3	@ indirect register sibling call
 308              	.LVL13:
 309              	.L21:
 310 0008 7047     		bx	lr
 311              	.L24:
 312 000a 00BF     		.align	2
 313              	.L23:
 314 000c 00000000 		.word	.LANCHOR10
 315              		.cfi_endproc
 316              	.LFE259:
 317              		.size	commands_send_packet, .-commands_send_packet
 318              		.section	.text.commands_printf,"ax",%progbits
 319              		.align	2
 320              		.p2align 4,,15
 321              		.global	commands_printf
 322              		.thumb
 323              		.thumb_func
 324              		.type	commands_printf, %function
 325              	commands_printf:
 326              	.LFB261:
 327              		.loc 1 858 0
 328              		.cfi_startproc
 329              		@ args = 4, pretend = 16, frame = 8
 330              		@ frame_needed = 0, uses_anonymous_args = 1
 331              	.LVL14:
 332 0000 0FB4     		push	{r0, r1, r2, r3}
 333              		.cfi_def_cfa_offset 16
 334              		.cfi_offset 0, -16
 335              		.cfi_offset 1, -12
 336              		.cfi_offset 2, -8
 337              		.cfi_offset 3, -4
 338 0002 00B5     		push	{lr}
 339              		.cfi_def_cfa_offset 20
 340              		.cfi_offset 14, -20
 341 0004 83B0     		sub	sp, sp, #12
 342              		.cfi_def_cfa_offset 32
ARM GAS  /var/folders/sv/kgmgr77579zbf78p2zlhkdfr0000gn/T//ccMuP6SP.s 			page 7


 343              		.loc 1 858 0
 344 0006 04AB     		add	r3, sp, #16
 345              		.loc 1 864 0
 346 0008 0C48     		ldr	r0, .L33
 347              		.loc 1 858 0
 348 000a 53F8042B 		ldr	r2, [r3], #4
 349              		.loc 1 860 0
 350 000e 0193     		str	r3, [sp, #4]
 351              		.loc 1 864 0
 352 0010 1521     		movs	r1, #21
 353 0012 00F8011B 		strb	r1, [r0], #1
 354              		.loc 1 865 0
 355 0016 FE21     		movs	r1, #254
 356 0018 FFF7FEFF 		bl	vsnprintf
 357              	.LVL15:
 358              		.loc 1 868 0
 359 001c 0028     		cmp	r0, #0
 360 001e 08DD     		ble	.L25
 361              	.LVL16:
 362              	.LBB76:
 363              	.LBB77:
 364              		.loc 1 90 0
 365 0020 074B     		ldr	r3, .L33+4
 366 0022 1B68     		ldr	r3, [r3]
 367              	.LBE77:
 368              	.LBE76:
 369              		.loc 1 869 0
 370 0024 FD28     		cmp	r0, #253
 371 0026 D4BF     		ite	le
 372 0028 411C     		addle	r1, r0, #1
 373 002a FF21     		movgt	r1, #255
 374              	.LVL17:
 375              	.LBB79:
 376              	.LBB78:
 377              		.loc 1 90 0
 378 002c 0BB1     		cbz	r3, .L25
 379              		.loc 1 91 0
 380 002e 0348     		ldr	r0, .L33
 381              	.LVL18:
 382 0030 9847     		blx	r3
 383              	.LVL19:
 384              	.L25:
 385              	.LBE78:
 386              	.LBE79:
 387              		.loc 1 871 0
 388 0032 03B0     		add	sp, sp, #12
 389              		.cfi_def_cfa_offset 20
 390              		@ sp needed
 391 0034 5DF804EB 		ldr	lr, [sp], #4
 392              		.cfi_restore 14
 393              		.cfi_def_cfa_offset 16
 394 0038 04B0     		add	sp, sp, #16
 395              		.cfi_restore 3
 396              		.cfi_restore 2
 397              		.cfi_restore 1
 398              		.cfi_restore 0
 399              		.cfi_def_cfa_offset 0
ARM GAS  /var/folders/sv/kgmgr77579zbf78p2zlhkdfr0000gn/T//ccMuP6SP.s 			page 8


 400 003a 7047     		bx	lr
 401              	.L34:
 402              		.align	2
 403              	.L33:
 404 003c 00000000 		.word	.LANCHOR12
 405 0040 00000000 		.word	.LANCHOR10
 406              		.cfi_endproc
 407              	.LFE261:
 408              		.size	commands_printf, .-commands_printf
 409              		.section	.text.commands_send_rotor_pos,"ax",%progbits
 410              		.align	2
 411              		.p2align 4,,15
 412              		.global	commands_send_rotor_pos
 413              		.thumb
 414              		.thumb_func
 415              		.type	commands_send_rotor_pos, %function
 416              	commands_send_rotor_pos:
 417              	.LFB262:
 418              		.loc 1 873 0
 419              		.cfi_startproc
 420              		@ args = 0, pretend = 0, frame = 16
 421              		@ frame_needed = 0, uses_anonymous_args = 0
 422              	.LVL20:
 423 0000 10B5     		push	{r4, lr}
 424              		.cfi_def_cfa_offset 8
 425              		.cfi_offset 4, -8
 426              		.cfi_offset 14, -4
 427              		.loc 1 878 0
 428 0002 DFED0D7A 		vldr.32	s15, .L41
 429 0006 20EE270A 		vmul.f32	s0, s0, s15
 430              	.LVL21:
 431              		.loc 1 873 0
 432 000a 84B0     		sub	sp, sp, #16
 433              		.cfi_def_cfa_offset 24
 434              		.loc 1 878 0
 435 000c FDEEC07A 		vcvt.s32.f32	s15, s0
 436              		.loc 1 877 0
 437 0010 1623     		movs	r3, #22
 438              		.loc 1 878 0
 439 0012 17EE901A 		vmov	r1, s15	@ int
 440 0016 02A8     		add	r0, sp, #8
 441              		.loc 1 877 0
 442 0018 0124     		movs	r4, #1
 443              		.loc 1 878 0
 444 001a 01AA     		add	r2, sp, #4
 445              		.loc 1 877 0
 446 001c 8DF80830 		strb	r3, [sp, #8]
 447 0020 0194     		str	r4, [sp, #4]
 448              		.loc 1 878 0
 449 0022 FFF7FEFF 		bl	buffer_append_int32
 450              	.LVL22:
 451              	.LBB80:
 452              	.LBB81:
 453              		.loc 1 90 0
 454 0026 054B     		ldr	r3, .L41+4
 455              	.LBE81:
 456              	.LBE80:
ARM GAS  /var/folders/sv/kgmgr77579zbf78p2zlhkdfr0000gn/T//ccMuP6SP.s 			page 9


 457              		.loc 1 880 0
 458 0028 0199     		ldr	r1, [sp, #4]
 459              	.LVL23:
 460              	.LBB83:
 461              	.LBB82:
 462              		.loc 1 90 0
 463 002a 1B68     		ldr	r3, [r3]
 464 002c 0BB1     		cbz	r3, .L35
 465              		.loc 1 91 0
 466 002e 02A8     		add	r0, sp, #8
 467              	.LVL24:
 468 0030 9847     		blx	r3
 469              	.LVL25:
 470              	.L35:
 471              	.LBE82:
 472              	.LBE83:
 473              		.loc 1 881 0
 474 0032 04B0     		add	sp, sp, #16
 475              		.cfi_def_cfa_offset 8
 476              		@ sp needed
 477 0034 10BD     		pop	{r4, pc}
 478              	.L42:
 479 0036 00BF     		.align	2
 480              	.L41:
 481 0038 0050C347 		.word	1203982336
 482 003c 00000000 		.word	.LANCHOR10
 483              		.cfi_endproc
 484              	.LFE262:
 485              		.size	commands_send_rotor_pos, .-commands_send_rotor_pos
 486              		.section	.text.commands_send_experiment_samples,"ax",%progbits
 487              		.align	2
 488              		.p2align 4,,15
 489              		.global	commands_send_experiment_samples
 490              		.thumb
 491              		.thumb_func
 492              		.type	commands_send_experiment_samples, %function
 493              	commands_send_experiment_samples:
 494              	.LFB263:
 495              		.loc 1 883 0
 496              		.cfi_startproc
 497              		@ args = 0, pretend = 0, frame = 8
 498              		@ frame_needed = 1, uses_anonymous_args = 0
 499              	.LVL26:
 500              		.loc 1 884 0
 501 0000 8B00     		lsls	r3, r1, #2
 502 0002 FF2B     		cmp	r3, #255
 503 0004 34DC     		bgt	.L55
 504              	.LVL27:
 505              		.loc 1 883 0
 506 0006 2DE9F043 		push	{r4, r5, r6, r7, r8, r9, lr}
 507              		.cfi_def_cfa_offset 28
 508              		.cfi_offset 4, -28
 509              		.cfi_offset 5, -24
 510              		.cfi_offset 6, -20
 511              		.cfi_offset 7, -16
 512              		.cfi_offset 8, -12
 513              		.cfi_offset 9, -8
ARM GAS  /var/folders/sv/kgmgr77579zbf78p2zlhkdfr0000gn/T//ccMuP6SP.s 			page 10


 514              		.cfi_offset 14, -4
 515 000a 2DED028B 		vpush.64	{d8}
 516              		.cfi_def_cfa_offset 36
 517              		.cfi_offset 80, -36
 518              		.cfi_offset 81, -32
 519              		.loc 1 888 0
 520 000e 0833     		adds	r3, r3, #8
 521              	.LVL28:
 522              		.loc 1 883 0
 523 0010 83B0     		sub	sp, sp, #12
 524              		.cfi_def_cfa_offset 48
 525              		.loc 1 888 0
 526 0012 23F00703 		bic	r3, r3, #7
 527              	.LVL29:
 528              		.loc 1 883 0
 529 0016 0E46     		mov	r6, r1
 530 0018 00AF     		add	r7, sp, #0
 531              		.cfi_def_cfa_register 7
 532 001a E946     		mov	r9, sp
 533              		.loc 1 888 0
 534 001c ADEB030D 		sub	sp, sp, r3
 535              		.loc 1 891 0
 536 0020 0121     		movs	r1, #1
 537              	.LVL30:
 538 0022 1723     		movs	r3, #23
 539              	.LBB84:
 540              		.loc 1 893 0
 541 0024 002E     		cmp	r6, #0
 542              	.LBE84:
 543              		.loc 1 891 0
 544 0026 8DF80030 		strb	r3, [sp]
 545              		.loc 1 888 0
 546 002a E846     		mov	r8, sp
 547              	.LVL31:
 548              		.loc 1 891 0
 549 002c 7960     		str	r1, [r7, #4]
 550              	.LBB85:
 551              		.loc 1 893 0
 552 002e 13DD     		ble	.L45
 553              		.loc 1 894 0 discriminator 3
 554 0030 9FED108A 		vldr.32	s16, .L56
 555 0034 0546     		mov	r5, r0
 556              		.loc 1 893 0 discriminator 3
 557 0036 0024     		movs	r4, #0
 558              	.LVL32:
 559              	.L46:
 560              		.loc 1 894 0 discriminator 3
 561 0038 F5EC017A 		vldmia.32	r5!, {s15}
 562 003c 67EE887A 		vmul.f32	s15, s15, s16
 563              		.loc 1 893 0 discriminator 3
 564 0040 0134     		adds	r4, r4, #1
 565              	.LVL33:
 566              		.loc 1 894 0 discriminator 3
 567 0042 FDEEE77A 		vcvt.s32.f32	s15, s15
 568 0046 3A1D     		adds	r2, r7, #4
 569 0048 17EE901A 		vmov	r1, s15	@ int
 570 004c 4046     		mov	r0, r8
ARM GAS  /var/folders/sv/kgmgr77579zbf78p2zlhkdfr0000gn/T//ccMuP6SP.s 			page 11


 571 004e FFF7FEFF 		bl	buffer_append_int32
 572              	.LVL34:
 573              		.loc 1 893 0 discriminator 3
 574 0052 A642     		cmp	r6, r4
 575 0054 F0D1     		bne	.L46
 576 0056 7968     		ldr	r1, [r7, #4]
 577              	.LVL35:
 578              	.L45:
 579              	.LBE85:
 580              	.LBB86:
 581              	.LBB87:
 582              		.loc 1 90 0
 583 0058 074B     		ldr	r3, .L56+4
 584 005a 1B68     		ldr	r3, [r3]
 585 005c 0BB1     		cbz	r3, .L47
 586              		.loc 1 91 0
 587 005e 4046     		mov	r0, r8
 588 0060 9847     		blx	r3
 589              	.LVL36:
 590              	.L47:
 591              	.LBE87:
 592              	.LBE86:
 593              		.loc 1 898 0
 594 0062 0C37     		adds	r7, r7, #12
 595              		.cfi_def_cfa_offset 36
 596 0064 CD46     		mov	sp, r9
 597 0066 BD46     		mov	sp, r7
 598              		.cfi_def_cfa_register 13
 599              		@ sp needed
 600 0068 BDEC028B 		vldm	sp!, {d8}
 601              		.cfi_restore 80
 602              		.cfi_restore 81
 603              		.cfi_def_cfa_offset 28
 604 006c BDE8F083 		pop	{r4, r5, r6, r7, r8, r9, pc}
 605              	.LVL37:
 606              	.L55:
 607              		.cfi_def_cfa_offset 0
 608              		.cfi_restore 4
 609              		.cfi_restore 5
 610              		.cfi_restore 6
 611              		.cfi_restore 7
 612              		.cfi_restore 8
 613              		.cfi_restore 9
 614              		.cfi_restore 14
 615 0070 7047     		bx	lr
 616              	.L57:
 617 0072 00BF     		.align	2
 618              	.L56:
 619 0074 00401C46 		.word	1176256512
 620 0078 00000000 		.word	.LANCHOR10
 621              		.cfi_endproc
 622              	.LFE263:
 623              		.size	commands_send_experiment_samples, .-commands_send_experiment_samples
 624              		.section	.text.commands_get_disp_pos_mode,"ax",%progbits
 625              		.align	2
 626              		.p2align 4,,15
 627              		.global	commands_get_disp_pos_mode
ARM GAS  /var/folders/sv/kgmgr77579zbf78p2zlhkdfr0000gn/T//ccMuP6SP.s 			page 12


 628              		.thumb
 629              		.thumb_func
 630              		.type	commands_get_disp_pos_mode, %function
 631              	commands_get_disp_pos_mode:
 632              	.LFB264:
 633              		.loc 1 900 0
 634              		.cfi_startproc
 635              		@ args = 0, pretend = 0, frame = 0
 636              		@ frame_needed = 0, uses_anonymous_args = 0
 637              		@ link register save eliminated.
 638              		.loc 1 901 0
 639 0000 014B     		ldr	r3, .L59
 640              		.loc 1 902 0
 641 0002 1878     		ldrb	r0, [r3]	@ zero_extendqisi2
 642 0004 7047     		bx	lr
 643              	.L60:
 644 0006 00BF     		.align	2
 645              	.L59:
 646 0008 00000000 		.word	.LANCHOR13
 647              		.cfi_endproc
 648              	.LFE264:
 649              		.size	commands_get_disp_pos_mode, .-commands_get_disp_pos_mode
 650              		.section	.text.commands_set_app_data_handler,"ax",%progbits
 651              		.align	2
 652              		.p2align 4,,15
 653              		.global	commands_set_app_data_handler
 654              		.thumb
 655              		.thumb_func
 656              		.type	commands_set_app_data_handler, %function
 657              	commands_set_app_data_handler:
 658              	.LFB265:
 659              		.loc 1 904 0
 660              		.cfi_startproc
 661              		@ args = 0, pretend = 0, frame = 0
 662              		@ frame_needed = 0, uses_anonymous_args = 0
 663              		@ link register save eliminated.
 664              	.LVL38:
 665              		.loc 1 905 0
 666 0000 014B     		ldr	r3, .L62
 667 0002 1860     		str	r0, [r3]
 668 0004 7047     		bx	lr
 669              	.L63:
 670 0006 00BF     		.align	2
 671              	.L62:
 672 0008 00000000 		.word	.LANCHOR14
 673              		.cfi_endproc
 674              	.LFE265:
 675              		.size	commands_set_app_data_handler, .-commands_set_app_data_handler
 676              		.section	.text.commands_send_app_data,"ax",%progbits
 677              		.align	2
 678              		.p2align 4,,15
 679              		.global	commands_send_app_data
 680              		.thumb
 681              		.thumb_func
 682              		.type	commands_send_app_data, %function
 683              	commands_send_app_data:
 684              	.LFB266:
ARM GAS  /var/folders/sv/kgmgr77579zbf78p2zlhkdfr0000gn/T//ccMuP6SP.s 			page 13


 685              		.loc 1 908 0
 686              		.cfi_startproc
 687              		@ args = 0, pretend = 0, frame = 0
 688              		@ frame_needed = 0, uses_anonymous_args = 0
 689              	.LVL39:
 690 0000 70B5     		push	{r4, r5, r6, lr}
 691              		.cfi_def_cfa_offset 16
 692              		.cfi_offset 4, -16
 693              		.cfi_offset 5, -12
 694              		.cfi_offset 6, -8
 695              		.cfi_offset 14, -4
 696              		.loc 1 911 0
 697 0002 0A4D     		ldr	r5, .L67
 698              		.loc 1 908 0
 699 0004 0246     		mov	r2, r0
 700              		.loc 1 911 0
 701 0006 2846     		mov	r0, r5
 702              	.LVL40:
 703 0008 2423     		movs	r3, #36
 704              		.loc 1 908 0
 705 000a 0C46     		mov	r4, r1
 706              		.loc 1 911 0
 707 000c 00F8013B 		strb	r3, [r0], #1
 708              		.loc 1 912 0
 709 0010 1146     		mov	r1, r2
 710              	.LVL41:
 711 0012 2246     		mov	r2, r4
 712              	.LVL42:
 713 0014 FFF7FEFF 		bl	memcpy
 714              	.LVL43:
 715              	.LBB88:
 716              	.LBB89:
 717              		.loc 1 90 0
 718 0018 054B     		ldr	r3, .L67+4
 719 001a 1B68     		ldr	r3, [r3]
 720              	.LVL44:
 721 001c 23B1     		cbz	r3, .L64
 722 001e 611C     		adds	r1, r4, #1
 723              	.LVL45:
 724              		.loc 1 91 0
 725 0020 2846     		mov	r0, r5
 726              	.LBE89:
 727              	.LBE88:
 728              		.loc 1 916 0
 729 0022 BDE87040 		pop	{r4, r5, r6, lr}
 730              		.cfi_remember_state
 731              		.cfi_restore 14
 732              		.cfi_restore 6
 733              		.cfi_restore 5
 734              		.cfi_restore 4
 735              		.cfi_def_cfa_offset 0
 736              	.LVL46:
 737              	.LBB91:
 738              	.LBB90:
 739              		.loc 1 91 0
 740 0026 1847     		bx	r3	@ indirect register sibling call
 741              	.LVL47:
ARM GAS  /var/folders/sv/kgmgr77579zbf78p2zlhkdfr0000gn/T//ccMuP6SP.s 			page 14


 742              	.L64:
 743              		.cfi_restore_state
 744 0028 70BD     		pop	{r4, r5, r6, pc}
 745              	.LVL48:
 746              	.L68:
 747 002a 00BF     		.align	2
 748              	.L67:
 749 002c 00000000 		.word	.LANCHOR8
 750 0030 00000000 		.word	.LANCHOR10
 751              	.LBE90:
 752              	.LBE91:
 753              		.cfi_endproc
 754              	.LFE266:
 755              		.size	commands_send_app_data, .-commands_send_app_data
 756              		.section	.text.commands_send_appconf,"ax",%progbits
 757              		.align	2
 758              		.p2align 4,,15
 759              		.global	commands_send_appconf
 760              		.thumb
 761              		.thumb_func
 762              		.type	commands_send_appconf, %function
 763              	commands_send_appconf:
 764              	.LFB267:
 765              		.loc 1 918 0
 766              		.cfi_startproc
 767              		@ args = 0, pretend = 0, frame = 8
 768              		@ frame_needed = 0, uses_anonymous_args = 0
 769              	.LVL49:
 770 0000 F0B5     		push	{r4, r5, r6, r7, lr}
 771              		.cfi_def_cfa_offset 20
 772              		.cfi_offset 4, -20
 773              		.cfi_offset 5, -16
 774              		.cfi_offset 6, -12
 775              		.cfi_offset 7, -8
 776              		.cfi_offset 14, -4
 777              		.loc 1 920 0
 778 0002 AF4D     		ldr	r5, .L75
 779              		.loc 1 918 0
 780 0004 83B0     		sub	sp, sp, #12
 781              		.cfi_def_cfa_offset 32
 782              		.loc 1 921 0
 783 0006 02AE     		add	r6, sp, #8
 784              		.loc 1 920 0
 785 0008 2870     		strb	r0, [r5]
 786              		.loc 1 921 0
 787 000a 0222     		movs	r2, #2
 788 000c 46F8042D 		str	r2, [r6, #-4]!
 789 0010 0B78     		ldrb	r3, [r1]	@ zero_extendqisi2
 790 0012 6B70     		strb	r3, [r5, #1]
 791              		.loc 1 918 0
 792 0014 0C46     		mov	r4, r1
 793              		.loc 1 922 0
 794 0016 3246     		mov	r2, r6
 795 0018 4968     		ldr	r1, [r1, #4]
 796              	.LVL50:
 797 001a 2846     		mov	r0, r5
 798              	.LVL51:
ARM GAS  /var/folders/sv/kgmgr77579zbf78p2zlhkdfr0000gn/T//ccMuP6SP.s 			page 15


 799 001c FFF7FEFF 		bl	buffer_append_uint32
 800              	.LVL52:
 801              		.loc 1 923 0
 802 0020 3146     		mov	r1, r6
 803 0022 94ED020A 		vldr.32	s0, [r4, #8]
 804 0026 2846     		mov	r0, r5
 805 0028 FFF7FEFF 		bl	buffer_append_float32_auto
 806              	.LVL53:
 807              		.loc 1 924 0
 808 002c 019B     		ldr	r3, [sp, #4]
 809 002e 227B     		ldrb	r2, [r4, #12]	@ zero_extendqisi2
 810 0030 EA54     		strb	r2, [r5, r3]
 811              		.loc 1 925 0
 812 0032 2846     		mov	r0, r5
 813              		.loc 1 924 0
 814 0034 0133     		adds	r3, r3, #1
 815              		.loc 1 925 0
 816 0036 3246     		mov	r2, r6
 817 0038 218A     		ldrh	r1, [r4, #16]
 818              		.loc 1 924 0
 819 003a 0193     		str	r3, [sp, #4]
 820              		.loc 1 925 0
 821 003c FFF7FEFF 		bl	buffer_append_uint16
 822              	.LVL54:
 823              		.loc 1 926 0
 824 0040 019B     		ldr	r3, [sp, #4]
 825 0042 227D     		ldrb	r2, [r4, #20]	@ zero_extendqisi2
 826 0044 EA54     		strb	r2, [r5, r3]
 827              		.loc 1 928 0
 828 0046 EA18     		adds	r2, r5, r3
 829 0048 617D     		ldrb	r1, [r4, #21]	@ zero_extendqisi2
 830 004a 5170     		strb	r1, [r2, #1]
 831              		.loc 1 930 0
 832 004c 217E     		ldrb	r1, [r4, #24]	@ zero_extendqisi2
 833 004e 9170     		strb	r1, [r2, #2]
 834 0050 0333     		adds	r3, r3, #3
 835              		.loc 1 931 0
 836 0052 3146     		mov	r1, r6
 837 0054 94ED070A 		vldr.32	s0, [r4, #28]
 838              		.loc 1 930 0
 839 0058 0193     		str	r3, [sp, #4]
 840              		.loc 1 931 0
 841 005a 2846     		mov	r0, r5
 842 005c FFF7FEFF 		bl	buffer_append_float32_auto
 843              	.LVL55:
 844              		.loc 1 932 0
 845 0060 3146     		mov	r1, r6
 846 0062 94ED080A 		vldr.32	s0, [r4, #32]
 847 0066 2846     		mov	r0, r5
 848 0068 FFF7FEFF 		bl	buffer_append_float32_auto
 849              	.LVL56:
 850              		.loc 1 933 0
 851 006c 3146     		mov	r1, r6
 852 006e 94ED090A 		vldr.32	s0, [r4, #36]
 853 0072 2846     		mov	r0, r5
 854 0074 FFF7FEFF 		bl	buffer_append_float32_auto
 855              	.LVL57:
ARM GAS  /var/folders/sv/kgmgr77579zbf78p2zlhkdfr0000gn/T//ccMuP6SP.s 			page 16


 856              		.loc 1 934 0
 857 0078 3146     		mov	r1, r6
 858 007a 94ED0A0A 		vldr.32	s0, [r4, #40]
 859 007e 2846     		mov	r0, r5
 860 0080 FFF7FEFF 		bl	buffer_append_float32_auto
 861              	.LVL58:
 862              		.loc 1 935 0
 863 0084 3146     		mov	r1, r6
 864 0086 94ED0B0A 		vldr.32	s0, [r4, #44]
 865 008a 2846     		mov	r0, r5
 866 008c FFF7FEFF 		bl	buffer_append_float32_auto
 867              	.LVL59:
 868              		.loc 1 936 0
 869 0090 019B     		ldr	r3, [sp, #4]
 870 0092 94F83020 		ldrb	r2, [r4, #48]	@ zero_extendqisi2
 871 0096 EA54     		strb	r2, [r5, r3]
 872              		.loc 1 937 0
 873 0098 EA18     		adds	r2, r5, r3
 874 009a 94F83110 		ldrb	r1, [r4, #49]	@ zero_extendqisi2
 875 009e 5170     		strb	r1, [r2, #1]
 876 00a0 0233     		adds	r3, r3, #2
 877              		.loc 1 938 0
 878 00a2 3146     		mov	r1, r6
 879 00a4 94ED0D0A 		vldr.32	s0, [r4, #52]
 880              		.loc 1 937 0
 881 00a8 0193     		str	r3, [sp, #4]
 882              		.loc 1 938 0
 883 00aa 2846     		mov	r0, r5
 884 00ac FFF7FEFF 		bl	buffer_append_float32_auto
 885              	.LVL60:
 886              		.loc 1 939 0
 887 00b0 3146     		mov	r1, r6
 888 00b2 94ED0E0A 		vldr.32	s0, [r4, #56]
 889 00b6 2846     		mov	r0, r5
 890 00b8 FFF7FEFF 		bl	buffer_append_float32_auto
 891              	.LVL61:
 892              		.loc 1 940 0
 893 00bc 019B     		ldr	r3, [sp, #4]
 894 00be 94F83C20 		ldrb	r2, [r4, #60]	@ zero_extendqisi2
 895 00c2 EA54     		strb	r2, [r5, r3]
 896              		.loc 1 941 0
 897 00c4 3146     		mov	r1, r6
 898              		.loc 1 940 0
 899 00c6 0133     		adds	r3, r3, #1
 900              		.loc 1 941 0
 901 00c8 94ED100A 		vldr.32	s0, [r4, #64]
 902              		.loc 1 940 0
 903 00cc 0193     		str	r3, [sp, #4]
 904              		.loc 1 941 0
 905 00ce 2846     		mov	r0, r5
 906 00d0 FFF7FEFF 		bl	buffer_append_float32_auto
 907              	.LVL62:
 908              		.loc 1 942 0
 909 00d4 3146     		mov	r1, r6
 910 00d6 94ED110A 		vldr.32	s0, [r4, #68]
 911 00da 2846     		mov	r0, r5
 912 00dc FFF7FEFF 		bl	buffer_append_float32_auto
ARM GAS  /var/folders/sv/kgmgr77579zbf78p2zlhkdfr0000gn/T//ccMuP6SP.s 			page 17


 913              	.LVL63:
 914              		.loc 1 943 0
 915 00e0 019B     		ldr	r3, [sp, #4]
 916 00e2 94F84820 		ldrb	r2, [r4, #72]	@ zero_extendqisi2
 917 00e6 EA54     		strb	r2, [r5, r3]
 918              		.loc 1 944 0
 919 00e8 EA18     		adds	r2, r5, r3
 920 00ea 94F84910 		ldrb	r1, [r4, #73]	@ zero_extendqisi2
 921 00ee 5170     		strb	r1, [r2, #1]
 922 00f0 0233     		adds	r3, r3, #2
 923              		.loc 1 945 0
 924 00f2 3146     		mov	r1, r6
 925 00f4 94ED130A 		vldr.32	s0, [r4, #76]
 926              		.loc 1 944 0
 927 00f8 0193     		str	r3, [sp, #4]
 928              		.loc 1 945 0
 929 00fa 2846     		mov	r0, r5
 930 00fc FFF7FEFF 		bl	buffer_append_float32_auto
 931              	.LVL64:
 932              		.loc 1 947 0
 933 0100 019B     		ldr	r3, [sp, #4]
 934 0102 94F85020 		ldrb	r2, [r4, #80]	@ zero_extendqisi2
 935 0106 EA54     		strb	r2, [r5, r3]
 936              		.loc 1 948 0
 937 0108 3146     		mov	r1, r6
 938              		.loc 1 947 0
 939 010a 0133     		adds	r3, r3, #1
 940              		.loc 1 948 0
 941 010c 94ED150A 		vldr.32	s0, [r4, #84]
 942              		.loc 1 947 0
 943 0110 0193     		str	r3, [sp, #4]
 944              		.loc 1 948 0
 945 0112 2846     		mov	r0, r5
 946 0114 FFF7FEFF 		bl	buffer_append_float32_auto
 947              	.LVL65:
 948              		.loc 1 949 0
 949 0118 3146     		mov	r1, r6
 950 011a 94ED160A 		vldr.32	s0, [r4, #88]
 951 011e 2846     		mov	r0, r5
 952 0120 FFF7FEFF 		bl	buffer_append_float32_auto
 953              	.LVL66:
 954              		.loc 1 950 0
 955 0124 3146     		mov	r1, r6
 956 0126 94ED170A 		vldr.32	s0, [r4, #92]
 957 012a 2846     		mov	r0, r5
 958 012c FFF7FEFF 		bl	buffer_append_float32_auto
 959              	.LVL67:
 960              		.loc 1 951 0
 961 0130 3146     		mov	r1, r6
 962 0132 94ED180A 		vldr.32	s0, [r4, #96]
 963 0136 2846     		mov	r0, r5
 964 0138 FFF7FEFF 		bl	buffer_append_float32_auto
 965              	.LVL68:
 966              		.loc 1 952 0
 967 013c 3146     		mov	r1, r6
 968 013e 94ED190A 		vldr.32	s0, [r4, #100]
 969 0142 2846     		mov	r0, r5
ARM GAS  /var/folders/sv/kgmgr77579zbf78p2zlhkdfr0000gn/T//ccMuP6SP.s 			page 18


 970 0144 FFF7FEFF 		bl	buffer_append_float32_auto
 971              	.LVL69:
 972              		.loc 1 953 0
 973 0148 3146     		mov	r1, r6
 974 014a 94ED1A0A 		vldr.32	s0, [r4, #104]
 975 014e 2846     		mov	r0, r5
 976 0150 FFF7FEFF 		bl	buffer_append_float32_auto
 977              	.LVL70:
 978              		.loc 1 954 0
 979 0154 019B     		ldr	r3, [sp, #4]
 980 0156 94F86C20 		ldrb	r2, [r4, #108]	@ zero_extendqisi2
 981 015a EA54     		strb	r2, [r5, r3]
 982              		.loc 1 955 0
 983 015c EA18     		adds	r2, r5, r3
 984 015e 94F86D10 		ldrb	r1, [r4, #109]	@ zero_extendqisi2
 985 0162 5170     		strb	r1, [r2, #1]
 986              		.loc 1 956 0
 987 0164 94F86E10 		ldrb	r1, [r4, #110]	@ zero_extendqisi2
 988 0168 9170     		strb	r1, [r2, #2]
 989              		.loc 1 957 0
 990 016a 94F86F10 		ldrb	r1, [r4, #111]	@ zero_extendqisi2
 991 016e D170     		strb	r1, [r2, #3]
 992              		.loc 1 958 0
 993 0170 94F87010 		ldrb	r1, [r4, #112]	@ zero_extendqisi2
 994 0174 1171     		strb	r1, [r2, #4]
 995              		.loc 1 959 0
 996 0176 94F87110 		ldrb	r1, [r4, #113]	@ zero_extendqisi2
 997 017a 5171     		strb	r1, [r2, #5]
 998 017c 0633     		adds	r3, r3, #6
 999              		.loc 1 960 0
 1000 017e 3146     		mov	r1, r6
 1001 0180 94ED1D0A 		vldr.32	s0, [r4, #116]
 1002              		.loc 1 959 0
 1003 0184 0193     		str	r3, [sp, #4]
 1004              		.loc 1 960 0
 1005 0186 2846     		mov	r0, r5
 1006 0188 FFF7FEFF 		bl	buffer_append_float32_auto
 1007              	.LVL71:
 1008              		.loc 1 961 0
 1009 018c 3146     		mov	r1, r6
 1010 018e 94ED1E0A 		vldr.32	s0, [r4, #120]
 1011 0192 2846     		mov	r0, r5
 1012 0194 FFF7FEFF 		bl	buffer_append_float32_auto
 1013              	.LVL72:
 1014              		.loc 1 962 0
 1015 0198 019B     		ldr	r3, [sp, #4]
 1016 019a 94F87C20 		ldrb	r2, [r4, #124]	@ zero_extendqisi2
 1017 019e EA54     		strb	r2, [r5, r3]
 1018              		.loc 1 963 0
 1019 01a0 3146     		mov	r1, r6
 1020              		.loc 1 962 0
 1021 01a2 0133     		adds	r3, r3, #1
 1022              		.loc 1 963 0
 1023 01a4 94ED200A 		vldr.32	s0, [r4, #128]
 1024              		.loc 1 962 0
 1025 01a8 0193     		str	r3, [sp, #4]
 1026              		.loc 1 963 0
ARM GAS  /var/folders/sv/kgmgr77579zbf78p2zlhkdfr0000gn/T//ccMuP6SP.s 			page 19


 1027 01aa 2846     		mov	r0, r5
 1028 01ac FFF7FEFF 		bl	buffer_append_float32_auto
 1029              	.LVL73:
 1030              		.loc 1 964 0
 1031 01b0 3146     		mov	r1, r6
 1032 01b2 94ED210A 		vldr.32	s0, [r4, #132]
 1033 01b6 2846     		mov	r0, r5
 1034 01b8 FFF7FEFF 		bl	buffer_append_float32_auto
 1035              	.LVL74:
 1036              		.loc 1 965 0
 1037 01bc 019B     		ldr	r3, [sp, #4]
 1038 01be 94F88820 		ldrb	r2, [r4, #136]	@ zero_extendqisi2
 1039 01c2 EA54     		strb	r2, [r5, r3]
 1040              		.loc 1 966 0
 1041 01c4 EA18     		adds	r2, r5, r3
 1042 01c6 94F88910 		ldrb	r1, [r4, #137]	@ zero_extendqisi2
 1043 01ca 5170     		strb	r1, [r2, #1]
 1044 01cc 0233     		adds	r3, r3, #2
 1045              		.loc 1 967 0
 1046 01ce 94ED230A 		vldr.32	s0, [r4, #140]
 1047              		.loc 1 966 0
 1048 01d2 0193     		str	r3, [sp, #4]
 1049              		.loc 1 967 0
 1050 01d4 3146     		mov	r1, r6
 1051 01d6 2846     		mov	r0, r5
 1052 01d8 FFF7FEFF 		bl	buffer_append_float32_auto
 1053              	.LVL75:
 1054              		.loc 1 968 0
 1055 01dc 3246     		mov	r2, r6
 1056 01de B4F89010 		ldrh	r1, [r4, #144]
 1057 01e2 2846     		mov	r0, r5
 1058 01e4 FFF7FEFF 		bl	buffer_append_uint16
 1059              	.LVL76:
 1060              		.loc 1 970 0
 1061 01e8 3246     		mov	r2, r6
 1062 01ea D4F89410 		ldr	r1, [r4, #148]
 1063 01ee 2846     		mov	r0, r5
 1064 01f0 FFF7FEFF 		bl	buffer_append_uint32
 1065              	.LVL77:
 1066              		.loc 1 972 0
 1067 01f4 019B     		ldr	r3, [sp, #4]
 1068 01f6 94F89820 		ldrb	r2, [r4, #152]	@ zero_extendqisi2
 1069 01fa EA54     		strb	r2, [r5, r3]
 1070              		.loc 1 973 0
 1071 01fc 3146     		mov	r1, r6
 1072              		.loc 1 972 0
 1073 01fe 0133     		adds	r3, r3, #1
 1074              		.loc 1 973 0
 1075 0200 94ED270A 		vldr.32	s0, [r4, #156]
 1076              		.loc 1 972 0
 1077 0204 0193     		str	r3, [sp, #4]
 1078              		.loc 1 973 0
 1079 0206 2846     		mov	r0, r5
 1080 0208 FFF7FEFF 		bl	buffer_append_float32_auto
 1081              	.LVL78:
 1082              		.loc 1 974 0
 1083 020c 3146     		mov	r1, r6
ARM GAS  /var/folders/sv/kgmgr77579zbf78p2zlhkdfr0000gn/T//ccMuP6SP.s 			page 20


 1084 020e 94ED280A 		vldr.32	s0, [r4, #160]
 1085 0212 2846     		mov	r0, r5
 1086 0214 FFF7FEFF 		bl	buffer_append_float32_auto
 1087              	.LVL79:
 1088              		.loc 1 975 0
 1089 0218 3146     		mov	r1, r6
 1090 021a 94ED290A 		vldr.32	s0, [r4, #164]
 1091 021e 2846     		mov	r0, r5
 1092 0220 FFF7FEFF 		bl	buffer_append_float32_auto
 1093              	.LVL80:
 1094              		.loc 1 976 0
 1095 0224 3146     		mov	r1, r6
 1096 0226 94ED2A0A 		vldr.32	s0, [r4, #168]
 1097 022a 2846     		mov	r0, r5
 1098 022c FFF7FEFF 		bl	buffer_append_float32_auto
 1099              	.LVL81:
 1100              		.loc 1 977 0
 1101 0230 3146     		mov	r1, r6
 1102 0232 94ED2B0A 		vldr.32	s0, [r4, #172]
 1103 0236 2846     		mov	r0, r5
 1104 0238 FFF7FEFF 		bl	buffer_append_float32_auto
 1105              	.LVL82:
 1106              		.loc 1 978 0
 1107 023c 3146     		mov	r1, r6
 1108 023e 94ED2C0A 		vldr.32	s0, [r4, #176]
 1109 0242 2846     		mov	r0, r5
 1110 0244 FFF7FEFF 		bl	buffer_append_float32_auto
 1111              	.LVL83:
 1112              		.loc 1 979 0
 1113 0248 019B     		ldr	r3, [sp, #4]
 1114 024a 94F8B420 		ldrb	r2, [r4, #180]	@ zero_extendqisi2
 1115 024e EA54     		strb	r2, [r5, r3]
 1116              		.loc 1 980 0
 1117 0250 EA18     		adds	r2, r5, r3
 1118 0252 94F8B510 		ldrb	r1, [r4, #181]	@ zero_extendqisi2
 1119 0256 5170     		strb	r1, [r2, #1]
 1120              		.loc 1 981 0
 1121 0258 94F8B610 		ldrb	r1, [r4, #182]	@ zero_extendqisi2
 1122 025c 9170     		strb	r1, [r2, #2]
 1123 025e 0333     		adds	r3, r3, #3
 1124              		.loc 1 982 0
 1125 0260 3146     		mov	r1, r6
 1126 0262 2846     		mov	r0, r5
 1127 0264 94ED2E0A 		vldr.32	s0, [r4, #184]
 1128              		.loc 1 981 0
 1129 0268 0193     		str	r3, [sp, #4]
 1130              		.loc 1 982 0
 1131 026a FFF7FEFF 		bl	buffer_append_float32_auto
 1132              	.LVL84:
 1133              		.loc 1 984 0
 1134 026e 0199     		ldr	r1, [sp, #4]
 1135 0270 94F8BC30 		ldrb	r3, [r4, #188]	@ zero_extendqisi2
 1136 0274 6B54     		strb	r3, [r5, r1]
 1137              		.loc 1 985 0
 1138 0276 6B18     		adds	r3, r5, r1
 1139 0278 94F8BD20 		ldrb	r2, [r4, #189]	@ zero_extendqisi2
 1140 027c 5A70     		strb	r2, [r3, #1]
ARM GAS  /var/folders/sv/kgmgr77579zbf78p2zlhkdfr0000gn/T//ccMuP6SP.s 			page 21


 1141              		.loc 1 986 0
 1142 027e 94F8BE20 		ldrb	r2, [r4, #190]	@ zero_extendqisi2
 1143 0282 9A70     		strb	r2, [r3, #2]
 1144              		.loc 1 987 0
 1145 0284 94F8BF20 		ldrb	r2, [r4, #191]	@ zero_extendqisi2
 1146 0288 DA70     		strb	r2, [r3, #3]
 1147              		.loc 1 988 0
 1148 028a 94F8C020 		ldrb	r2, [r4, #192]	@ zero_extendqisi2
 1149 028e 1A71     		strb	r2, [r3, #4]
 1150              		.loc 1 989 0
 1151 0290 94F8C120 		ldrb	r2, [r4, #193]	@ zero_extendqisi2
 1152 0294 5A71     		strb	r2, [r3, #5]
 1153              		.loc 1 990 0
 1154 0296 2046     		mov	r0, r4
 1155 0298 8A1D     		adds	r2, r1, #6
 1156 029a 30F8C27F 		ldrh	r7, [r0, #194]!	@ unaligned
 1157              	.LBB92:
 1158              	.LBB93:
 1159              		.loc 1 90 0
 1160 029e 094E     		ldr	r6, .L75+4
 1161              	.LBE93:
 1162              	.LBE92:
 1163              		.loc 1 990 0
 1164 02a0 8078     		ldrb	r0, [r0, #2]	@ zero_extendqisi2
 1165 02a2 AF52     		strh	r7, [r5, r2]	@ unaligned
 1166 02a4 2A44     		add	r2, r2, r5
 1167              	.LBB96:
 1168              	.LBB94:
 1169              		.loc 1 90 0
 1170 02a6 3668     		ldr	r6, [r6]
 1171              	.LBE94:
 1172              	.LBE96:
 1173              		.loc 1 990 0
 1174 02a8 9070     		strb	r0, [r2, #2]
 1175              		.loc 1 992 0
 1176 02aa 94F8C520 		ldrb	r2, [r4, #197]	@ zero_extendqisi2
 1177 02ae 5A72     		strb	r2, [r3, #9]
 1178              	.LVL85:
 1179 02b0 0A31     		adds	r1, r1, #10
 1180              	.LVL86:
 1181 02b2 0191     		str	r1, [sp, #4]
 1182              	.LBB97:
 1183              	.LBB95:
 1184              		.loc 1 90 0
 1185 02b4 0EB1     		cbz	r6, .L69
 1186              		.loc 1 91 0
 1187 02b6 2846     		mov	r0, r5
 1188 02b8 B047     		blx	r6
 1189              	.LVL87:
 1190              	.L69:
 1191              	.LBE95:
 1192              	.LBE97:
 1193              		.loc 1 995 0
 1194 02ba 03B0     		add	sp, sp, #12
 1195              		.cfi_def_cfa_offset 20
 1196              		@ sp needed
 1197 02bc F0BD     		pop	{r4, r5, r6, r7, pc}
ARM GAS  /var/folders/sv/kgmgr77579zbf78p2zlhkdfr0000gn/T//ccMuP6SP.s 			page 22


 1198              	.LVL88:
 1199              	.L76:
 1200 02be 00BF     		.align	2
 1201              	.L75:
 1202 02c0 00000000 		.word	.LANCHOR8
 1203 02c4 00000000 		.word	.LANCHOR10
 1204              		.cfi_endproc
 1205              	.LFE267:
 1206              		.size	commands_send_appconf, .-commands_send_appconf
 1207              		.section	.text.commands_process_packet,"ax",%progbits
 1208              		.align	2
 1209              		.p2align 4,,15
 1210              		.global	commands_process_packet
 1211              		.thumb
 1212              		.thumb_func
 1213              		.type	commands_process_packet, %function
 1214              	commands_process_packet:
 1215              	.LFB260:
 1216              		.loc 1 104 0
 1217              		.cfi_startproc
 1218              		@ args = 0, pretend = 0, frame = 216
 1219              		@ frame_needed = 0, uses_anonymous_args = 0
 1220              	.LVL89:
 1221              		.loc 1 105 0
 1222 0000 B1B3     		cbz	r1, .L189
 1223              		.loc 1 104 0
 1224 0002 2DE9F047 		push	{r4, r5, r6, r7, r8, r9, r10, lr}
 1225              		.cfi_def_cfa_offset 32
 1226              		.cfi_offset 4, -32
 1227              		.cfi_offset 5, -28
 1228              		.cfi_offset 6, -24
 1229              		.cfi_offset 7, -20
 1230              		.cfi_offset 8, -16
 1231              		.cfi_offset 9, -12
 1232              		.cfi_offset 10, -8
 1233              		.cfi_offset 14, -4
 1234 0006 2DED048B 		vpush.64	{d8, d9}
 1235              		.cfi_def_cfa_offset 48
 1236              		.cfi_offset 80, -48
 1237              		.cfi_offset 81, -44
 1238              		.cfi_offset 82, -40
 1239              		.cfi_offset 83, -36
 1240              		.loc 1 117 0
 1241 000a 0446     		mov	r4, r0
 1242              		.loc 1 104 0
 1243 000c B6B0     		sub	sp, sp, #216
 1244              		.cfi_def_cfa_offset 264
 1245              		.loc 1 117 0
 1246 000e 14F8018B 		ldrb	r8, [r4], #1	@ zero_extendqisi2
 1247              	.LVL90:
 1248              		.loc 1 110 0
 1249 0012 0023     		movs	r3, #0
 1250 0014 0746     		mov	r7, r0
 1251 0016 0293     		str	r3, [sp, #8]
 1252              		.loc 1 119 0
 1253 0018 4D1E     		subs	r5, r1, #1
 1254              	.LVL91:
ARM GAS  /var/folders/sv/kgmgr77579zbf78p2zlhkdfr0000gn/T//ccMuP6SP.s 			page 23


 1255              		.loc 1 121 0
 1256 001a B8F1250F 		cmp	r8, #37
 1257 001e 70D8     		bhi	.L77
 1258 0020 DFE818F0 		tbh	[pc, r8, lsl #1]
 1259              	.L81:
 1260 0024 850A     		.2byte	(.L80-.L81)/2
 1261 0026 810A     		.2byte	(.L82-.L81)/2
 1262 0028 6B0A     		.2byte	(.L83-.L81)/2
 1263 002a 4E0A     		.2byte	(.L84-.L81)/2
 1264 002c A809     		.2byte	(.L85-.L81)/2
 1265 002e 9609     		.2byte	(.L86-.L81)/2
 1266 0030 8409     		.2byte	(.L87-.L81)/2
 1267 0032 7209     		.2byte	(.L88-.L81)/2
 1268 0034 6409     		.2byte	(.L89-.L81)/2
 1269 0036 5209     		.2byte	(.L90-.L81)/2
 1270 0038 4609     		.2byte	(.L91-.L81)/2
 1271 003a 7400     		.2byte	(.L92-.L81)/2
 1272 003c 6F00     		.2byte	(.L77-.L81)/2
 1273 003e 6E06     		.2byte	(.L93-.L81)/2
 1274 0040 4004     		.2byte	(.L94-.L81)/2
 1275 0042 4004     		.2byte	(.L94-.L81)/2
 1276 0044 6E02     		.2byte	(.L95-.L81)/2
 1277 0046 4902     		.2byte	(.L96-.L81)/2
 1278 0048 4902     		.2byte	(.L96-.L81)/2
 1279 004a 2A04     		.2byte	(.L97-.L81)/2
 1280 004c 2404     		.2byte	(.L98-.L81)/2
 1281 004e 6F00     		.2byte	(.L77-.L81)/2
 1282 0050 6F00     		.2byte	(.L77-.L81)/2
 1283 0052 6F00     		.2byte	(.L77-.L81)/2
 1284 0054 2402     		.2byte	(.L99-.L81)/2
 1285 0056 D401     		.2byte	(.L100-.L81)/2
 1286 0058 2700     		.2byte	(.L101-.L81)/2
 1287 005a 4F01     		.2byte	(.L102-.L81)/2
 1288 005c FE00     		.2byte	(.L103-.L81)/2
 1289 005e FC00     		.2byte	(.L104-.L81)/2
 1290 0060 8B00     		.2byte	(.L105-.L81)/2
 1291 0062 8E00     		.2byte	(.L106-.L81)/2
 1292 0064 CA00     		.2byte	(.L107-.L81)/2
 1293 0066 BC00     		.2byte	(.L108-.L81)/2
 1294 0068 000B     		.2byte	(.L109-.L81)/2
 1295 006a BF0A     		.2byte	(.L110-.L81)/2
 1296 006c B70A     		.2byte	(.L111-.L81)/2
 1297 006e A30A     		.2byte	(.L112-.L81)/2
 1298              	.LVL92:
 1299              		.p2align 1
 1300              	.L189:
 1301              		.cfi_def_cfa_offset 0
 1302              		.cfi_restore 4
 1303              		.cfi_restore 5
 1304              		.cfi_restore 6
 1305              		.cfi_restore 7
 1306              		.cfi_restore 8
 1307              		.cfi_restore 9
 1308              		.cfi_restore 10
 1309              		.cfi_restore 14
 1310              		.cfi_restore 80
 1311              		.cfi_restore 81
ARM GAS  /var/folders/sv/kgmgr77579zbf78p2zlhkdfr0000gn/T//ccMuP6SP.s 			page 24


 1312              		.cfi_restore 82
 1313              		.cfi_restore 83
 1314 0070 7047     		bx	lr
 1315              	.LVL93:
 1316              	.L101:
 1317              		.cfi_def_cfa_offset 264
 1318              		.cfi_offset 4, -32
 1319              		.cfi_offset 5, -28
 1320              		.cfi_offset 6, -24
 1321              		.cfi_offset 7, -20
 1322              		.cfi_offset 8, -16
 1323              		.cfi_offset 9, -12
 1324              		.cfi_offset 10, -8
 1325              		.cfi_offset 14, -4
 1326              		.cfi_offset 80, -48
 1327              		.cfi_offset 81, -44
 1328              		.cfi_offset 82, -40
 1329              		.cfi_offset 83, -36
 1330              	.LBB98:
 1331              		.loc 1 677 0
 1332 0072 02A9     		add	r1, sp, #8
 1333 0074 2046     		mov	r0, r4
 1334 0076 9FEDC80A 		vldr.32	s0, .L205
 1335              		.loc 1 682 0
 1336 007a C84D     		ldr	r5, .L205+4
 1337              	.LVL94:
 1338 007c C84E     		ldr	r6, .L205+8
 1339              		.loc 1 677 0
 1340 007e FFF7FEFF 		bl	buffer_get_float32
 1341              	.LVL95:
 1342              		.loc 1 678 0
 1343 0082 02A9     		add	r1, sp, #8
 1344              		.loc 1 677 0
 1345 0084 B0EE408A 		vmov.f32	s16, s0
 1346              	.LVL96:
 1347              		.loc 1 678 0
 1348 0088 2046     		mov	r0, r4
 1349 008a 9FEDC30A 		vldr.32	s0, .L205
 1350              	.LVL97:
 1351 008e FFF7FEFF 		bl	buffer_get_float32
 1352              	.LVL98:
 1353              		.loc 1 679 0
 1354 0092 02A9     		add	r1, sp, #8
 1355              		.loc 1 678 0
 1356 0094 B0EE409A 		vmov.f32	s18, s0
 1357              	.LVL99:
 1358              		.loc 1 679 0
 1359 0098 2046     		mov	r0, r4
 1360 009a 9FEDBF0A 		vldr.32	s0, .L205
 1361              	.LVL100:
 1362 009e FFF7FEFF 		bl	buffer_get_float32
 1363              	.LVL101:
 1364              		.loc 1 680 0
 1365 00a2 2046     		mov	r0, r4
 1366              		.loc 1 679 0
 1367 00a4 F0EE408A 		vmov.f32	s17, s0
 1368              	.LVL102:
ARM GAS  /var/folders/sv/kgmgr77579zbf78p2zlhkdfr0000gn/T//ccMuP6SP.s 			page 25


 1369              		.loc 1 680 0
 1370 00a8 02A9     		add	r1, sp, #8
 1371 00aa 9FEDBE0A 		vldr.32	s0, .L205+12
 1372              	.LVL103:
 1373 00ae FFF7FEFF 		bl	buffer_get_float32
 1374              	.LVL104:
 1375              		.loc 1 682 0
 1376 00b2 2B68     		ldr	r3, [r5]
 1377 00b4 3360     		str	r3, [r6]
 1378              		.loc 1 685 0
 1379 00b6 F0EE401A 		vmov.f32	s3, s0
 1380 00ba B0EE491A 		vmov.f32	s2, s18
 1381 00be F0EE680A 		vmov.f32	s1, s17
 1382 00c2 B0EE480A 		vmov.f32	s0, s16
 1383              	.LVL105:
 1384 00c6 04A8     		add	r0, sp, #16
 1385 00c8 FFF7FEFF 		bl	conf_general_measure_flux_linkage
 1386              	.LVL106:
 1387              		.loc 1 687 0
 1388 00cc 0028     		cmp	r0, #0
 1389 00ce 41F0B582 		bne	.L199
 1390              		.loc 1 688 0
 1391 00d2 DFEDB57A 		vldr.32	s15, .L205+16
 1392 00d6 B0EE670A 		vmov.f32	s0, s15
 1393 00da CDED047A 		vstr.32	s15, [sp, #16]
 1394              	.L126:
 1395              		.loc 1 692 0
 1396 00de B34C     		ldr	r4, .L205+20
 1397              	.LVL107:
 1398              		.loc 1 693 0
 1399 00e0 DFEDB30A 		vldr.32	s1, .L205+24
 1400              		.loc 1 692 0
 1401 00e4 0123     		movs	r3, #1
 1402 00e6 1A22     		movs	r2, #26
 1403              		.loc 1 693 0
 1404 00e8 02A9     		add	r1, sp, #8
 1405 00ea 2046     		mov	r0, r4
 1406              	.LVL108:
 1407              		.loc 1 692 0
 1408 00ec 0293     		str	r3, [sp, #8]
 1409 00ee 2270     		strb	r2, [r4]
 1410              		.loc 1 693 0
 1411 00f0 FFF7FEFF 		bl	buffer_append_float32
 1412              	.LVL109:
 1413              		.loc 1 694 0
 1414 00f4 3368     		ldr	r3, [r6]
 1415 00f6 002B     		cmp	r3, #0
 1416 00f8 00F0B281 		beq	.L127
 1417              	.LVL110:
 1418              	.L193:
 1419              		.loc 1 695 0
 1420 00fc 2046     		mov	r0, r4
 1421 00fe 0299     		ldr	r1, [sp, #8]
 1422 0100 9847     		blx	r3
 1423              	.LVL111:
 1424              	.L77:
 1425              	.LBE98:
ARM GAS  /var/folders/sv/kgmgr77579zbf78p2zlhkdfr0000gn/T//ccMuP6SP.s 			page 26


 1426              		.loc 1 856 0
 1427 0102 36B0     		add	sp, sp, #216
 1428              		.cfi_remember_state
 1429              		.cfi_def_cfa_offset 48
 1430              		@ sp needed
 1431 0104 BDEC048B 		vldm	sp!, {d8-d9}
 1432              		.cfi_restore 82
 1433              		.cfi_restore 83
 1434              		.cfi_restore 80
 1435              		.cfi_restore 81
 1436              		.cfi_def_cfa_offset 32
 1437 0108 BDE8F087 		pop	{r4, r5, r6, r7, r8, r9, r10, pc}
 1438              	.LVL112:
 1439              	.L92:
 1440              		.cfi_restore_state
 1441              		.loc 1 224 0
 1442 010c FFF7FEFF 		bl	mc_interface_get_configuration
 1443              	.LVL113:
 1444 0110 A84B     		ldr	r3, .L205+28
 1445 0112 0146     		mov	r1, r0
 1446 0114 4FF4BA72 		mov	r2, #372
 1447 0118 1846     		mov	r0, r3
 1448 011a FFF7FEFF 		bl	memcpy
 1449              	.LVL114:
 1450              		.loc 1 227 0
 1451 011e A649     		ldr	r1, .L205+32
 1452 0120 7B78     		ldrb	r3, [r7, #1]	@ zero_extendqisi2
 1453              		.loc 1 229 0
 1454 0122 8278     		ldrb	r2, [r0, #2]	@ zero_extendqisi2
 1455              		.loc 1 227 0
 1456 0124 0B70     		strb	r3, [r1]
 1457 0126 0121     		movs	r1, #1
 1458 0128 0291     		str	r1, [sp, #8]
 1459              		.loc 1 229 0
 1460 012a 32B9     		cbnz	r2, .L105
 1461              		.loc 1 230 0
 1462 012c 002B     		cmp	r3, #0
 1463 012e 01F09382 		beq	.L200
 1464              		.loc 1 232 0
 1465 0132 012B     		cmp	r3, #1
 1466 0134 01D1     		bne	.L105
 1467              		.loc 1 233 0
 1468 0136 FFF7FEFF 		bl	mcpwm_set_detect
 1469              	.LVL115:
 1470              	.L105:
 1471              		.loc 1 793 0
 1472 013a FFF7FEFF 		bl	timeout_reset
 1473              	.LVL116:
 1474              		.loc 1 794 0
 1475 013e E0E7     		b	.L77
 1476              	.L106:
 1477              		.loc 1 798 0
 1478 0140 36AD     		add	r5, sp, #216
 1479              	.LVL117:
 1480 0142 9A4C     		ldr	r4, .L205+20
 1481              	.LVL118:
 1482              		.loc 1 799 0
ARM GAS  /var/folders/sv/kgmgr77579zbf78p2zlhkdfr0000gn/T//ccMuP6SP.s 			page 27


 1483 0144 9FED978A 		vldr.32	s16, .L205+12
 1484              		.loc 1 798 0
 1485 0148 1F23     		movs	r3, #31
 1486 014a 0122     		movs	r2, #1
 1487 014c 2370     		strb	r3, [r4]
 1488 014e 45F8D02D 		str	r2, [r5, #-208]!
 1489              		.loc 1 799 0
 1490 0152 FFF7FEFF 		bl	app_ppm_get_decoded_level
 1491              	.LVL119:
 1492 0156 20EE080A 		vmul.f32	s0, s0, s16
 1493 015a 2A46     		mov	r2, r5
 1494 015c FDEEC07A 		vcvt.s32.f32	s15, s0
 1495 0160 2046     		mov	r0, r4
 1496 0162 17EE901A 		vmov	r1, s15	@ int
 1497 0166 FFF7FEFF 		bl	buffer_append_int32
 1498              	.LVL120:
 1499              		.loc 1 800 0
 1500 016a 0020     		movs	r0, #0
 1501 016c FFF7FEFF 		bl	servodec_get_last_pulse_len
 1502              	.LVL121:
 1503 0170 20EE080A 		vmul.f32	s0, s0, s16
 1504              	.L196:
 1505              		.loc 1 817 0
 1506 0174 FDEEC07A 		vcvt.s32.f32	s15, s0
 1507 0178 2A46     		mov	r2, r5
 1508 017a 17EE901A 		vmov	r1, s15	@ int
 1509 017e 2046     		mov	r0, r4
 1510 0180 FFF7FEFF 		bl	buffer_append_int32
 1511              	.LVL122:
 1512              	.LBB103:
 1513              	.LBB104:
 1514              		.loc 1 90 0
 1515 0184 854B     		ldr	r3, .L205+4
 1516              	.LBE104:
 1517              	.LBE103:
 1518              		.loc 1 818 0
 1519 0186 0299     		ldr	r1, [sp, #8]
 1520              	.LVL123:
 1521              	.LBB106:
 1522              	.LBB105:
 1523              		.loc 1 90 0
 1524 0188 1B68     		ldr	r3, [r3]
 1525 018a 002B     		cmp	r3, #0
 1526 018c B9D0     		beq	.L77
 1527              	.LVL124:
 1528              	.L191:
 1529              	.LBE105:
 1530              	.LBE106:
 1531              		.loc 1 839 0
 1532 018e 2046     		mov	r0, r4
 1533 0190 9847     		blx	r3
 1534              	.LVL125:
 1535              		.loc 1 856 0
 1536 0192 36B0     		add	sp, sp, #216
 1537              		.cfi_remember_state
 1538              		.cfi_def_cfa_offset 48
 1539              		@ sp needed
ARM GAS  /var/folders/sv/kgmgr77579zbf78p2zlhkdfr0000gn/T//ccMuP6SP.s 			page 28


 1540 0194 BDEC048B 		vldm	sp!, {d8-d9}
 1541              		.cfi_restore 80
 1542              		.cfi_restore 81
 1543              		.cfi_restore 82
 1544              		.cfi_restore 83
 1545              		.cfi_def_cfa_offset 32
 1546 0198 BDE8F087 		pop	{r4, r5, r6, r7, r8, r9, r10, pc}
 1547              	.LVL126:
 1548              	.L108:
 1549              		.cfi_restore_state
 1550              		.loc 1 816 0
 1551 019c 36AD     		add	r5, sp, #216
 1552              	.LVL127:
 1553 019e 834C     		ldr	r4, .L205+20
 1554              	.LVL128:
 1555 01a0 0122     		movs	r2, #1
 1556 01a2 2123     		movs	r3, #33
 1557 01a4 45F8D02D 		str	r2, [r5, #-208]!
 1558 01a8 2370     		strb	r3, [r4]
 1559              		.loc 1 817 0
 1560 01aa FFF7FEFF 		bl	app_nunchuk_get_decoded_chuk
 1561              	.LVL129:
 1562 01ae DFED7D7A 		vldr.32	s15, .L205+12
 1563 01b2 20EE270A 		vmul.f32	s0, s0, s15
 1564 01b6 DDE7     		b	.L196
 1565              	.LVL130:
 1566              	.L107:
 1567              		.loc 1 806 0
 1568 01b8 36AD     		add	r5, sp, #216
 1569              	.LVL131:
 1570 01ba 7C4C     		ldr	r4, .L205+20
 1571              	.LVL132:
 1572              		.loc 1 807 0
 1573 01bc 9FED798A 		vldr.32	s16, .L205+12
 1574              		.loc 1 806 0
 1575 01c0 2023     		movs	r3, #32
 1576 01c2 0122     		movs	r2, #1
 1577 01c4 2370     		strb	r3, [r4]
 1578 01c6 45F8D02D 		str	r2, [r5, #-208]!
 1579              		.loc 1 807 0
 1580 01ca FFF7FEFF 		bl	app_adc_get_decoded_level
 1581              	.LVL133:
 1582 01ce 20EE080A 		vmul.f32	s0, s0, s16
 1583 01d2 2A46     		mov	r2, r5
 1584 01d4 FDEEC07A 		vcvt.s32.f32	s15, s0
 1585 01d8 2046     		mov	r0, r4
 1586 01da 17EE901A 		vmov	r1, s15	@ int
 1587 01de FFF7FEFF 		bl	buffer_append_int32
 1588              	.LVL134:
 1589              		.loc 1 808 0
 1590 01e2 FFF7FEFF 		bl	app_adc_get_voltage
 1591              	.LVL135:
 1592 01e6 20EE080A 		vmul.f32	s0, s0, s16
 1593 01ea 2A46     		mov	r2, r5
 1594 01ec FDEEC07A 		vcvt.s32.f32	s15, s0
 1595 01f0 2046     		mov	r0, r4
 1596 01f2 17EE901A 		vmov	r1, s15	@ int
ARM GAS  /var/folders/sv/kgmgr77579zbf78p2zlhkdfr0000gn/T//ccMuP6SP.s 			page 29


 1597 01f6 FFF7FEFF 		bl	buffer_append_int32
 1598              	.LVL136:
 1599              		.loc 1 809 0
 1600 01fa FFF7FEFF 		bl	app_adc_get_decoded_level2
 1601              	.LVL137:
 1602 01fe 20EE080A 		vmul.f32	s0, s0, s16
 1603 0202 2A46     		mov	r2, r5
 1604 0204 FDEEC07A 		vcvt.s32.f32	s15, s0
 1605 0208 2046     		mov	r0, r4
 1606 020a 17EE901A 		vmov	r1, s15	@ int
 1607 020e FFF7FEFF 		bl	buffer_append_int32
 1608              	.LVL138:
 1609              		.loc 1 810 0
 1610 0212 FFF7FEFF 		bl	app_adc_get_voltage2
 1611              	.LVL139:
 1612 0216 20EE080A 		vmul.f32	s0, s0, s16
 1613 021a ABE7     		b	.L196
 1614              	.LVL140:
 1615              	.L104:
 1616              	.LBB107:
 1617              	.LBB108:
 1618              		.file 3 "ChibiOS_3.0.2/os/ext/CMSIS/include/core_cmFunc.h"
 1619              		.loc 3 342 0
 1620              		.syntax unified
 1621              	@ 342 "ChibiOS_3.0.2/os/ext/CMSIS/include/core_cmFunc.h" 1
 1622 021c 72B6     		cpsid i
 1623              	@ 0 "" 2
 1624              		.thumb
 1625              		.syntax unified
 1626              	.L135:
 1627 021e FEE7     		b	.L135
 1628              	.L103:
 1629              	.LBE108:
 1630              	.LBE107:
 1631              		.loc 1 746 0
 1632 0220 FFF7FEFF 		bl	mc_interface_get_configuration
 1633              	.LVL141:
 1634 0224 634D     		ldr	r5, .L205+28
 1635              	.LVL142:
 1636 0226 0146     		mov	r1, r0
 1637 0228 4FF4BA72 		mov	r2, #372
 1638 022c 2846     		mov	r0, r5
 1639 022e FFF7FEFF 		bl	memcpy
 1640              	.LVL143:
 1641              		.loc 1 748 0
 1642 0232 95F85C81 		ldrb	r8, [r5, #348]	@ zero_extendqisi2
 1643              	.LVL144:
 1644 0236 B8F1000F 		cmp	r8, #0
 1645 023a 41F04D82 		bne	.L132
 1646              	.LBB109:
 1647              		.loc 1 749 0
 1648 023e 4FF4BA72 		mov	r2, #372
 1649 0242 2946     		mov	r1, r5
 1650 0244 5D48     		ldr	r0, .L205+36
 1651              		.loc 1 753 0
 1652 0246 554E     		ldr	r6, .L205+4
 1653 0248 554F     		ldr	r7, .L205+8
ARM GAS  /var/folders/sv/kgmgr77579zbf78p2zlhkdfr0000gn/T//ccMuP6SP.s 			page 30


 1654              		.loc 1 749 0
 1655 024a FFF7FEFF 		bl	memcpy
 1656              	.LVL145:
 1657              		.loc 1 750 0
 1658 024e 36A9     		add	r1, sp, #216
 1659              		.loc 1 751 0
 1660 0250 2046     		mov	r0, r4
 1661              		.loc 1 750 0
 1662 0252 41F8D08D 		str	r8, [r1, #-208]!
 1663              		.loc 1 751 0
 1664 0256 9FED500A 		vldr.32	s0, .L205
 1665              		.loc 1 756 0
 1666 025a 594C     		ldr	r4, .L205+40
 1667              	.LVL146:
 1668              		.loc 1 751 0
 1669 025c FFF7FEFF 		bl	buffer_get_float32
 1670              	.LVL147:
 1671              		.loc 1 753 0
 1672 0260 3368     		ldr	r3, [r6]
 1673              		.loc 1 757 0
 1674 0262 5849     		ldr	r1, .L205+44
 1675              		.loc 1 753 0
 1676 0264 3B60     		str	r3, [r7]
 1677              		.loc 1 755 0
 1678 0266 0322     		movs	r2, #3
 1679              		.loc 1 758 0
 1680 0268 574B     		ldr	r3, .L205+48
 1681              		.loc 1 757 0
 1682 026a C5F8A410 		str	r1, [r5, #164]	@ float
 1683              		.loc 1 759 0
 1684 026e 2846     		mov	r0, r5
 1685              		.loc 1 751 0
 1686 0270 B0EE408A 		vmov.f32	s16, s0
 1687              	.LVL148:
 1688              		.loc 1 755 0
 1689 0274 AA70     		strb	r2, [r5, #2]
 1690              		.loc 1 758 0
 1691 0276 C5F8A830 		str	r3, [r5, #168]	@ float
 1692              		.loc 1 756 0
 1693 027a C5F8AC40 		str	r4, [r5, #172]	@ float
 1694              		.loc 1 759 0
 1695 027e FFF7FEFF 		bl	mc_interface_set_configuration
 1696              	.LVL149:
 1697              		.loc 1 762 0
 1698 0282 B0EE480A 		vmov.f32	s0, s16
 1699 0286 04A8     		add	r0, sp, #16
 1700 0288 FFF7FEFF 		bl	mcpwm_foc_hall_detect
 1701              	.LVL150:
 1702 028c 0446     		mov	r4, r0
 1703              	.LVL151:
 1704              		.loc 1 763 0
 1705 028e 4B48     		ldr	r0, .L205+36
 1706 0290 FFF7FEFF 		bl	mc_interface_set_configuration
 1707              	.LVL152:
 1708              		.loc 1 766 0
 1709 0294 454A     		ldr	r2, .L205+20
 1710              		.loc 1 771 0
ARM GAS  /var/folders/sv/kgmgr77579zbf78p2zlhkdfr0000gn/T//ccMuP6SP.s 			page 31


 1711 0296 3F68     		ldr	r7, [r7]
 1712              		.loc 1 766 0
 1713 0298 1546     		mov	r5, r2
 1714              		.loc 1 767 0
 1715 029a 04AB     		add	r3, sp, #16
 1716 029c 03CB     		ldmia	r3!, {r0, r1}
 1717              		.loc 1 766 0
 1718 029e 1C23     		movs	r3, #28
 1719 02a0 05F8013B 		strb	r3, [r5], #1
 1720              		.loc 1 769 0
 1721 02a4 84F00104 		eor	r4, r4, #1
 1722              	.LVL153:
 1723 02a8 0A23     		movs	r3, #10
 1724              		.loc 1 767 0
 1725 02aa C2F80100 		str	r0, [r2, #1]	@ unaligned
 1726              		.loc 1 769 0
 1727 02ae 0293     		str	r3, [sp, #8]
 1728              		.loc 1 767 0
 1729 02b0 6960     		str	r1, [r5, #4]	@ unaligned
 1730              		.loc 1 769 0
 1731 02b2 5472     		strb	r4, [r2, #9]
 1732              		.loc 1 771 0
 1733 02b4 002F     		cmp	r7, #0
 1734 02b6 01F00682 		beq	.L133
 1735              		.loc 1 772 0
 1736 02ba 1946     		mov	r1, r3
 1737 02bc 1046     		mov	r0, r2
 1738 02be B847     		blx	r7
 1739              	.LVL154:
 1740 02c0 1FE7     		b	.L77
 1741              	.LVL155:
 1742              	.L102:
 1743              	.LBE109:
 1744              		.loc 1 703 0
 1745 02c2 FFF7FEFF 		bl	encoder_is_configured
 1746              	.LVL156:
 1747 02c6 0646     		mov	r6, r0
 1748 02c8 0028     		cmp	r0, #0
 1749 02ca 01F0DA81 		beq	.L129
 1750              	.LBB112:
 1751              		.loc 1 704 0
 1752 02ce FFF7FEFF 		bl	mc_interface_get_configuration
 1753              	.LVL157:
 1754 02d2 384D     		ldr	r5, .L205+28
 1755              	.LVL158:
 1756              		.loc 1 707 0
 1757 02d4 DFF8C480 		ldr	r8, .L205+4
 1758              	.LVL159:
 1759 02d8 DFF8C490 		ldr	r9, .L205+8
 1760              		.loc 1 725 0
 1761 02dc 334E     		ldr	r6, .L205+20
 1762              		.loc 1 709 0
 1763 02de 36AF     		add	r7, sp, #216
 1764              		.loc 1 704 0
 1765 02e0 0146     		mov	r1, r0
 1766 02e2 4FF4BA72 		mov	r2, #372
 1767 02e6 2846     		mov	r0, r5
ARM GAS  /var/folders/sv/kgmgr77579zbf78p2zlhkdfr0000gn/T//ccMuP6SP.s 			page 32


 1768 02e8 FFF7FEFF 		bl	memcpy
 1769              	.LVL160:
 1770              		.loc 1 709 0
 1771 02ec 4FF0000A 		mov	r10, #0
 1772              		.loc 1 705 0
 1773 02f0 4FF4BA72 		mov	r2, #372
 1774 02f4 2946     		mov	r1, r5
 1775 02f6 3148     		ldr	r0, .L205+36
 1776 02f8 FFF7FEFF 		bl	memcpy
 1777              	.LVL161:
 1778              		.loc 1 709 0
 1779 02fc 47F8D0AD 		str	r10, [r7, #-208]!
 1780              		.loc 1 710 0
 1781 0300 2046     		mov	r0, r4
 1782              		.loc 1 707 0
 1783 0302 D8F80030 		ldr	r3, [r8]
 1784              		.loc 1 710 0
 1785 0306 9FED240A 		vldr.32	s0, .L205
 1786              		.loc 1 707 0
 1787 030a C9F80030 		str	r3, [r9]
 1788              		.loc 1 710 0
 1789 030e 3946     		mov	r1, r7
 1790 0310 FFF7FEFF 		bl	buffer_get_float32
 1791              	.LVL162:
 1792              		.loc 1 713 0
 1793 0314 2A4B     		ldr	r3, .L205+40
 1794              		.loc 1 714 0
 1795 0316 2B4A     		ldr	r2, .L205+44
 1796              		.loc 1 713 0
 1797 0318 C5F8AC30 		str	r3, [r5, #172]	@ float
 1798              		.loc 1 712 0
 1799 031c 0321     		movs	r1, #3
 1800              		.loc 1 715 0
 1801 031e 2A4B     		ldr	r3, .L205+48
 1802              		.loc 1 712 0
 1803 0320 A970     		strb	r1, [r5, #2]
 1804              		.loc 1 716 0
 1805 0322 2846     		mov	r0, r5
 1806              		.loc 1 710 0
 1807 0324 B0EE408A 		vmov.f32	s16, s0
 1808              	.LVL163:
 1809              		.loc 1 714 0
 1810 0328 C5F8A420 		str	r2, [r5, #164]	@ float
 1811              		.loc 1 715 0
 1812 032c C5F8A830 		str	r3, [r5, #168]	@ float
 1813              		.loc 1 716 0
 1814 0330 FFF7FEFF 		bl	mc_interface_set_configuration
 1815              	.LVL164:
 1816              		.loc 1 720 0
 1817 0334 36AB     		add	r3, sp, #216
 1818              		.loc 1 721 0
 1819 0336 B0EE480A 		vmov.f32	s0, s16
 1820              		.loc 1 720 0
 1821 033a 03F8D1AD 		strb	r10, [r3, #-209]!
 1822              		.loc 1 721 0
 1823 033e 04AA     		add	r2, sp, #16
 1824 0340 03A9     		add	r1, sp, #12
ARM GAS  /var/folders/sv/kgmgr77579zbf78p2zlhkdfr0000gn/T//ccMuP6SP.s 			page 33


 1825              		.loc 1 718 0
 1826 0342 0024     		movs	r4, #0
 1827              	.LVL165:
 1828              		.loc 1 721 0
 1829 0344 5046     		mov	r0, r10
 1830              		.loc 1 718 0
 1831 0346 0394     		str	r4, [sp, #12]	@ float
 1832              		.loc 1 719 0
 1833 0348 0494     		str	r4, [sp, #16]	@ float
 1834              		.loc 1 721 0
 1835 034a FFF7FEFF 		bl	mcpwm_foc_encoder_detect
 1836              	.LVL166:
 1837              		.loc 1 722 0
 1838 034e 1B48     		ldr	r0, .L205+36
 1839 0350 FFF7FEFF 		bl	mc_interface_set_configuration
 1840              	.LVL167:
 1841              		.loc 1 725 0
 1842 0354 1B22     		movs	r2, #27
 1843 0356 0123     		movs	r3, #1
 1844              		.loc 1 726 0
 1845 0358 3946     		mov	r1, r7
 1846 035a 3046     		mov	r0, r6
 1847 035c DFED110A 		vldr.32	s1, .L205+12
 1848 0360 9DED030A 		vldr.32	s0, [sp, #12]
 1849              		.loc 1 725 0
 1850 0364 3270     		strb	r2, [r6]
 1851 0366 0293     		str	r3, [sp, #8]
 1852              		.loc 1 726 0
 1853 0368 FFF7FEFF 		bl	buffer_append_float32
 1854              	.LVL168:
 1855              		.loc 1 727 0
 1856 036c 3946     		mov	r1, r7
 1857 036e 3046     		mov	r0, r6
 1858 0370 DFED0C0A 		vldr.32	s1, .L205+12
 1859 0374 9DED040A 		vldr.32	s0, [sp, #16]
 1860 0378 FFF7FEFF 		bl	buffer_append_float32
 1861              	.LVL169:
 1862              		.loc 1 728 0
 1863 037c 0299     		ldr	r1, [sp, #8]
 1864 037e 9DF80720 		ldrb	r2, [sp, #7]	@ zero_extendqisi2
 1865              		.loc 1 729 0
 1866 0382 D9F80030 		ldr	r3, [r9]
 1867              		.loc 1 728 0
 1868 0386 7254     		strb	r2, [r6, r1]
 1869 0388 0131     		adds	r1, r1, #1
 1870 038a 0291     		str	r1, [sp, #8]
 1871              		.loc 1 729 0
 1872 038c 002B     		cmp	r3, #0
 1873 038e 01F07181 		beq	.L201
 1874              	.L194:
 1875              	.LBB113:
 1876              	.LBB114:
 1877              		.loc 1 91 0
 1878 0392 3046     		mov	r0, r6
 1879 0394 9847     		blx	r3
 1880              	.LVL170:
 1881 0396 B4E6     		b	.L77
ARM GAS  /var/folders/sv/kgmgr77579zbf78p2zlhkdfr0000gn/T//ccMuP6SP.s 			page 34


 1882              	.L206:
 1883              		.align	2
 1884              	.L205:
 1885 0398 00007A44 		.word	1148846080
 1886 039c 00000000 		.word	.LANCHOR10
 1887 03a0 00000000 		.word	.LANCHOR9
 1888 03a4 00247449 		.word	1232348160
 1889 03a8 00000000 		.word	0
 1890 03ac 00000000 		.word	.LANCHOR8
 1891 03b0 8096184B 		.word	1259902592
 1892 03b4 00000000 		.word	.LANCHOR15
 1893 03b8 00000000 		.word	.LANCHOR13
 1894 03bc 00000000 		.word	.LANCHOR16
 1895 03c0 00401C46 		.word	1176256512
 1896 03c4 0AD7233C 		.word	1008981770
 1897 03c8 00002041 		.word	1092616192
 1898              	.LVL171:
 1899              	.L100:
 1900              	.LBE114:
 1901              	.LBE113:
 1902              	.LBE112:
 1903              	.LBB117:
 1904              		.loc 1 645 0
 1905 03cc FFF7FEFF 		bl	mc_interface_get_configuration
 1906              	.LVL172:
 1907 03d0 3F4C     		ldr	r4, .L207
 1908              	.LVL173:
 1909              		.loc 1 648 0
 1910 03d2 404D     		ldr	r5, .L207+4
 1911              	.LVL174:
 1912              		.loc 1 653 0
 1913 03d4 9FED408A 		vldr.32	s16, .L207+8
 1914              		.loc 1 648 0
 1915 03d8 404E     		ldr	r6, .L207+12
 1916              		.loc 1 645 0
 1917 03da 0146     		mov	r1, r0
 1918 03dc 4FF4BA72 		mov	r2, #372
 1919 03e0 2046     		mov	r0, r4
 1920 03e2 FFF7FEFF 		bl	memcpy
 1921              	.LVL175:
 1922              		.loc 1 646 0
 1923 03e6 2146     		mov	r1, r4
 1924 03e8 4FF4BA72 		mov	r2, #372
 1925 03ec 3C48     		ldr	r0, .L207+16
 1926 03ee FFF7FEFF 		bl	memcpy
 1927              	.LVL176:
 1928              		.loc 1 650 0
 1929 03f2 0322     		movs	r2, #3
 1930              		.loc 1 651 0
 1931 03f4 2046     		mov	r0, r4
 1932              		.loc 1 648 0
 1933 03f6 2B68     		ldr	r3, [r5]
 1934              		.loc 1 650 0
 1935 03f8 A270     		strb	r2, [r4, #2]
 1936              		.loc 1 648 0
 1937 03fa 3360     		str	r3, [r6]
 1938              		.loc 1 651 0
ARM GAS  /var/folders/sv/kgmgr77579zbf78p2zlhkdfr0000gn/T//ccMuP6SP.s 			page 35


 1939 03fc FFF7FEFF 		bl	mc_interface_set_configuration
 1940              	.LVL177:
 1941              		.loc 1 654 0
 1942 0400 36A9     		add	r1, sp, #216
 1943 0402 18EE103A 		vmov	r3, s16
 1944              		.loc 1 655 0
 1945 0406 03A8     		add	r0, sp, #12
 1946              		.loc 1 654 0
 1947 0408 41F8C83D 		str	r3, [r1, #-200]!	@ float
 1948              		.loc 1 653 0
 1949 040c 8DED038A 		vstr.32	s16, [sp, #12]
 1950              		.loc 1 655 0
 1951 0410 FFF7FEFF 		bl	mcpwm_foc_measure_res_ind
 1952              	.LVL178:
 1953 0414 0446     		mov	r4, r0
 1954              	.LVL179:
 1955              		.loc 1 656 0
 1956 0416 3248     		ldr	r0, .L207+16
 1957 0418 FFF7FEFF 		bl	mc_interface_set_configuration
 1958              	.LVL180:
 1959              		.loc 1 658 0
 1960 041c 002C     		cmp	r4, #0
 1961 041e 41F00981 		bne	.L202
 1962              		.loc 1 660 0
 1963 0422 B0EE480A 		vmov.f32	s0, s16
 1964              		.loc 1 659 0
 1965 0426 8DED038A 		vstr.32	s16, [sp, #12]
 1966              		.loc 1 660 0
 1967 042a 8DED048A 		vstr.32	s16, [sp, #16]
 1968              	.L122:
 1969              		.loc 1 664 0
 1970 042e 36AF     		add	r7, sp, #216
 1971              	.LVL181:
 1972 0430 0123     		movs	r3, #1
 1973 0432 47F8D03D 		str	r3, [r7, #-208]!
 1974 0436 2B4C     		ldr	r4, .L207+20
 1975              	.LVL182:
 1976              		.loc 1 665 0
 1977 0438 DFED2B0A 		vldr.32	s1, .L207+24
 1978              		.loc 1 664 0
 1979 043c 1923     		movs	r3, #25
 1980              		.loc 1 665 0
 1981 043e 3946     		mov	r1, r7
 1982 0440 2046     		mov	r0, r4
 1983              		.loc 1 664 0
 1984 0442 2370     		strb	r3, [r4]
 1985              		.loc 1 665 0
 1986 0444 FFF7FEFF 		bl	buffer_append_float32
 1987              	.LVL183:
 1988              		.loc 1 666 0
 1989 0448 3946     		mov	r1, r7
 1990 044a 2046     		mov	r0, r4
 1991 044c DFED270A 		vldr.32	s1, .L207+28
 1992 0450 9DED040A 		vldr.32	s0, [sp, #16]
 1993 0454 FFF7FEFF 		bl	buffer_append_float32
 1994              	.LVL184:
 1995              		.loc 1 667 0
ARM GAS  /var/folders/sv/kgmgr77579zbf78p2zlhkdfr0000gn/T//ccMuP6SP.s 			page 36


 1996 0458 3368     		ldr	r3, [r6]
 1997 045a 002B     		cmp	r3, #0
 1998 045c 7FF44EAE 		bne	.L193
 1999              	.L127:
 2000              	.LBE117:
 2001              	.LBB118:
 2002              	.LBB99:
 2003              	.LBB100:
 2004              		.loc 1 90 0
 2005 0460 2B68     		ldr	r3, [r5]
 2006              	.LBE100:
 2007              	.LBE99:
 2008              		.loc 1 697 0
 2009 0462 0299     		ldr	r1, [sp, #8]
 2010              	.LVL185:
 2011              	.LBB102:
 2012              	.LBB101:
 2013              		.loc 1 90 0
 2014 0464 002B     		cmp	r3, #0
 2015 0466 7FF492AE 		bne	.L191
 2016 046a 4AE6     		b	.L77
 2017              	.LVL186:
 2018              	.L99:
 2019              	.LBE101:
 2020              	.LBE102:
 2021              	.LBE118:
 2022              		.loc 1 635 0
 2023 046c 02A9     		add	r1, sp, #8
 2024 046e 2046     		mov	r0, r4
 2025 0470 9FED1E0A 		vldr.32	s0, .L207+28
 2026 0474 FFF7FEFF 		bl	buffer_get_float32
 2027              	.LVL187:
 2028 0478 1D4B     		ldr	r3, .L207+32
 2029              		.loc 1 636 0
 2030 047a 02A9     		add	r1, sp, #8
 2031              		.loc 1 635 0
 2032 047c 83ED000A 		vstr.32	s0, [r3]
 2033              		.loc 1 636 0
 2034 0480 2046     		mov	r0, r4
 2035 0482 9FED1A0A 		vldr.32	s0, .L207+28
 2036 0486 FFF7FEFF 		bl	buffer_get_float32
 2037              	.LVL188:
 2038 048a 1A4B     		ldr	r3, .L207+36
 2039              		.loc 1 637 0
 2040 048c 02A9     		add	r1, sp, #8
 2041 048e 2046     		mov	r0, r4
 2042              		.loc 1 636 0
 2043 0490 83ED000A 		vstr.32	s0, [r3]
 2044              		.loc 1 637 0
 2045 0494 9FED150A 		vldr.32	s0, .L207+28
 2046 0498 FFF7FEFF 		bl	buffer_get_float32
 2047              	.LVL189:
 2048 049c 1649     		ldr	r1, .L207+40
 2049              		.loc 1 639 0
 2050 049e 0D4A     		ldr	r2, .L207+4
 2051              		.loc 1 641 0
 2052 04a0 1648     		ldr	r0, .L207+44
ARM GAS  /var/folders/sv/kgmgr77579zbf78p2zlhkdfr0000gn/T//ccMuP6SP.s 			page 37


 2053              		.loc 1 639 0
 2054 04a2 0E4B     		ldr	r3, .L207+12
 2055 04a4 1268     		ldr	r2, [r2]
 2056              		.loc 1 637 0
 2057 04a6 81ED000A 		vstr.32	s0, [r1]
 2058              		.loc 1 641 0
 2059 04aa 0068     		ldr	r0, [r0]
 2060              		.loc 1 639 0
 2061 04ac 1A60     		str	r2, [r3]
 2062              		.loc 1 641 0
 2063 04ae 0121     		movs	r1, #1
 2064 04b0 FFF7FEFF 		bl	chEvtSignal
 2065              	.LVL190:
 2066              		.loc 1 642 0
 2067 04b4 25E6     		b	.L77
 2068              	.L96:
 2069              		.loc 1 607 0
 2070 04b6 B8F1110F 		cmp	r8, #17
 2071 04ba 01F0D180 		beq	.L203
 2072              		.loc 1 610 0
 2073 04be 04AC     		add	r4, sp, #16
 2074              	.LVL191:
 2075 04c0 2046     		mov	r0, r4
 2076              	.LVL192:
 2077 04c2 FFF7FEFF 		bl	conf_general_get_default_app_configuration
 2078              	.LVL193:
 2079              	.L120:
 2080              		.loc 1 613 0
 2081 04c6 2146     		mov	r1, r4
 2082 04c8 4046     		mov	r0, r8
 2083 04ca FFF7FEFF 		bl	commands_send_appconf
 2084              	.LVL194:
 2085              		.loc 1 614 0
 2086 04ce 18E6     		b	.L77
 2087              	.L208:
 2088              		.align	2
 2089              	.L207:
 2090 04d0 00000000 		.word	.LANCHOR15
 2091 04d4 00000000 		.word	.LANCHOR10
 2092 04d8 00000000 		.word	0
 2093 04dc 00000000 		.word	.LANCHOR9
 2094 04e0 00000000 		.word	.LANCHOR16
 2095 04e4 00000000 		.word	.LANCHOR8
 2096 04e8 00247449 		.word	1232348160
 2097 04ec 00007A44 		.word	1148846080
 2098 04f0 00000000 		.word	.LANCHOR7
 2099 04f4 00000000 		.word	.LANCHOR6
 2100 04f8 00000000 		.word	.LANCHOR5
 2101 04fc 00000000 		.word	.LANCHOR0
 2102              	.LVL195:
 2103              	.L95:
 2104              		.loc 1 519 0
 2105 0500 FFF7FEFF 		bl	app_get_configuration
 2106              	.LVL196:
 2107 0504 C822     		movs	r2, #200
 2108 0506 0146     		mov	r1, r0
 2109 0508 04A8     		add	r0, sp, #16
ARM GAS  /var/folders/sv/kgmgr77579zbf78p2zlhkdfr0000gn/T//ccMuP6SP.s 			page 38


 2110              		.loc 1 522 0
 2111 050a 0125     		movs	r5, #1
 2112              	.LVL197:
 2113              		.loc 1 519 0
 2114 050c FFF7FEFF 		bl	memcpy
 2115              	.LVL198:
 2116              		.loc 1 522 0
 2117 0510 7B78     		ldrb	r3, [r7, #1]	@ zero_extendqisi2
 2118 0512 8DF81030 		strb	r3, [sp, #16]
 2119              		.loc 1 523 0
 2120 0516 02A9     		add	r1, sp, #8
 2121 0518 2046     		mov	r0, r4
 2122              		.loc 1 522 0
 2123 051a 0295     		str	r5, [sp, #8]
 2124              		.loc 1 523 0
 2125 051c FFF7FEFF 		bl	buffer_get_uint32
 2126              	.LVL199:
 2127              		.loc 1 524 0
 2128 0520 02A9     		add	r1, sp, #8
 2129              		.loc 1 523 0
 2130 0522 0590     		str	r0, [sp, #20]
 2131              		.loc 1 524 0
 2132 0524 2046     		mov	r0, r4
 2133 0526 FFF7FEFF 		bl	buffer_get_float32_auto
 2134              	.LVL200:
 2135              		.loc 1 525 0
 2136 052a 029B     		ldr	r3, [sp, #8]
 2137 052c E25C     		ldrb	r2, [r4, r3]	@ zero_extendqisi2
 2138              		.loc 1 524 0
 2139 052e 8DED060A 		vstr.32	s0, [sp, #24]
 2140              		.loc 1 525 0
 2141 0532 0032     		adds	r2, r2, #0
 2142 0534 18BF     		it	ne
 2143 0536 0122     		movne	r2, #1
 2144 0538 2B44     		add	r3, r3, r5
 2145              		.loc 1 526 0
 2146 053a 02A9     		add	r1, sp, #8
 2147 053c 2046     		mov	r0, r4
 2148              		.loc 1 525 0
 2149 053e 8DF81C20 		strb	r2, [sp, #28]
 2150 0542 0293     		str	r3, [sp, #8]
 2151              		.loc 1 526 0
 2152 0544 FFF7FEFF 		bl	buffer_get_uint16
 2153              	.LVL201:
 2154              		.loc 1 527 0
 2155 0548 029B     		ldr	r3, [sp, #8]
 2156              		.loc 1 526 0
 2157 054a 0890     		str	r0, [sp, #32]
 2158              		.loc 1 529 0
 2159 054c 9A1C     		adds	r2, r3, #2
 2160              		.loc 1 527 0
 2161 054e 5919     		adds	r1, r3, r5
 2162              		.loc 1 531 0
 2163 0550 A05C     		ldrb	r0, [r4, r2]	@ zero_extendqisi2
 2164              		.loc 1 529 0
 2165 0552 615C     		ldrb	r1, [r4, r1]	@ zero_extendqisi2
 2166              		.loc 1 527 0
ARM GAS  /var/folders/sv/kgmgr77579zbf78p2zlhkdfr0000gn/T//ccMuP6SP.s 			page 39


 2167 0554 E25C     		ldrb	r2, [r4, r3]	@ zero_extendqisi2
 2168              		.loc 1 529 0
 2169 0556 8DF82510 		strb	r1, [sp, #37]
 2170              		.loc 1 531 0
 2171 055a 0333     		adds	r3, r3, #3
 2172              		.loc 1 532 0
 2173 055c 02A9     		add	r1, sp, #8
 2174              		.loc 1 531 0
 2175 055e 8DF82800 		strb	r0, [sp, #40]
 2176              		.loc 1 532 0
 2177 0562 2046     		mov	r0, r4
 2178              		.loc 1 527 0
 2179 0564 8DF82420 		strb	r2, [sp, #36]
 2180              		.loc 1 531 0
 2181 0568 0293     		str	r3, [sp, #8]
 2182              		.loc 1 532 0
 2183 056a FFF7FEFF 		bl	buffer_get_float32_auto
 2184              	.LVL202:
 2185              		.loc 1 533 0
 2186 056e 2046     		mov	r0, r4
 2187 0570 02A9     		add	r1, sp, #8
 2188              		.loc 1 532 0
 2189 0572 8DED0B0A 		vstr.32	s0, [sp, #44]
 2190              		.loc 1 533 0
 2191 0576 FFF7FEFF 		bl	buffer_get_float32_auto
 2192              	.LVL203:
 2193              		.loc 1 534 0
 2194 057a 2046     		mov	r0, r4
 2195 057c 02A9     		add	r1, sp, #8
 2196              		.loc 1 533 0
 2197 057e 8DED0C0A 		vstr.32	s0, [sp, #48]
 2198              		.loc 1 534 0
 2199 0582 FFF7FEFF 		bl	buffer_get_float32_auto
 2200              	.LVL204:
 2201              		.loc 1 535 0
 2202 0586 2046     		mov	r0, r4
 2203 0588 02A9     		add	r1, sp, #8
 2204              		.loc 1 534 0
 2205 058a 8DED0D0A 		vstr.32	s0, [sp, #52]
 2206              		.loc 1 535 0
 2207 058e FFF7FEFF 		bl	buffer_get_float32_auto
 2208              	.LVL205:
 2209              		.loc 1 536 0
 2210 0592 2046     		mov	r0, r4
 2211 0594 02A9     		add	r1, sp, #8
 2212              		.loc 1 535 0
 2213 0596 8DED0E0A 		vstr.32	s0, [sp, #56]
 2214              		.loc 1 536 0
 2215 059a FFF7FEFF 		bl	buffer_get_float32_auto
 2216              	.LVL206:
 2217              		.loc 1 537 0
 2218 059e 029B     		ldr	r3, [sp, #8]
 2219 05a0 5919     		adds	r1, r3, r5
 2220 05a2 E25C     		ldrb	r2, [r4, r3]	@ zero_extendqisi2
 2221              		.loc 1 538 0
 2222 05a4 605C     		ldrb	r0, [r4, r1]	@ zero_extendqisi2
 2223              		.loc 1 536 0
ARM GAS  /var/folders/sv/kgmgr77579zbf78p2zlhkdfr0000gn/T//ccMuP6SP.s 			page 40


 2224 05a6 8DED0F0A 		vstr.32	s0, [sp, #60]
 2225              		.loc 1 537 0
 2226 05aa 0032     		adds	r2, r2, #0
 2227 05ac 18BF     		it	ne
 2228 05ae 0122     		movne	r2, #1
 2229              		.loc 1 538 0
 2230 05b0 0030     		adds	r0, r0, #0
 2231 05b2 18BF     		it	ne
 2232 05b4 0120     		movne	r0, #1
 2233 05b6 0233     		adds	r3, r3, #2
 2234              		.loc 1 539 0
 2235 05b8 02A9     		add	r1, sp, #8
 2236              		.loc 1 538 0
 2237 05ba 8DF84100 		strb	r0, [sp, #65]
 2238              		.loc 1 539 0
 2239 05be 2046     		mov	r0, r4
 2240              		.loc 1 537 0
 2241 05c0 8DF84020 		strb	r2, [sp, #64]
 2242              		.loc 1 538 0
 2243 05c4 0293     		str	r3, [sp, #8]
 2244              		.loc 1 539 0
 2245 05c6 FFF7FEFF 		bl	buffer_get_float32_auto
 2246              	.LVL207:
 2247              		.loc 1 540 0
 2248 05ca 2046     		mov	r0, r4
 2249 05cc 02A9     		add	r1, sp, #8
 2250              		.loc 1 539 0
 2251 05ce 8DED110A 		vstr.32	s0, [sp, #68]
 2252              		.loc 1 540 0
 2253 05d2 FFF7FEFF 		bl	buffer_get_float32_auto
 2254              	.LVL208:
 2255              		.loc 1 541 0
 2256 05d6 029B     		ldr	r3, [sp, #8]
 2257              		.loc 1 542 0
 2258 05d8 2046     		mov	r0, r4
 2259              		.loc 1 541 0
 2260 05da 5A19     		adds	r2, r3, r5
 2261              		.loc 1 542 0
 2262 05dc 02A9     		add	r1, sp, #8
 2263              		.loc 1 541 0
 2264 05de E35C     		ldrb	r3, [r4, r3]	@ zero_extendqisi2
 2265 05e0 8DF84C30 		strb	r3, [sp, #76]
 2266 05e4 0292     		str	r2, [sp, #8]
 2267              		.loc 1 540 0
 2268 05e6 8DED120A 		vstr.32	s0, [sp, #72]
 2269              		.loc 1 542 0
 2270 05ea FFF7FEFF 		bl	buffer_get_float32_auto
 2271              	.LVL209:
 2272              		.loc 1 543 0
 2273 05ee 2046     		mov	r0, r4
 2274 05f0 02A9     		add	r1, sp, #8
 2275              		.loc 1 542 0
 2276 05f2 8DED140A 		vstr.32	s0, [sp, #80]
 2277              		.loc 1 543 0
 2278 05f6 FFF7FEFF 		bl	buffer_get_float32_auto
 2279              	.LVL210:
 2280              		.loc 1 544 0
ARM GAS  /var/folders/sv/kgmgr77579zbf78p2zlhkdfr0000gn/T//ccMuP6SP.s 			page 41


 2281 05fa 029B     		ldr	r3, [sp, #8]
 2282 05fc 5919     		adds	r1, r3, r5
 2283 05fe E25C     		ldrb	r2, [r4, r3]	@ zero_extendqisi2
 2284              		.loc 1 545 0
 2285 0600 605C     		ldrb	r0, [r4, r1]	@ zero_extendqisi2
 2286              		.loc 1 543 0
 2287 0602 8DED150A 		vstr.32	s0, [sp, #84]
 2288              		.loc 1 544 0
 2289 0606 0032     		adds	r2, r2, #0
 2290 0608 18BF     		it	ne
 2291 060a 0122     		movne	r2, #1
 2292              		.loc 1 545 0
 2293 060c 0030     		adds	r0, r0, #0
 2294 060e 18BF     		it	ne
 2295 0610 0120     		movne	r0, #1
 2296 0612 0233     		adds	r3, r3, #2
 2297              		.loc 1 546 0
 2298 0614 02A9     		add	r1, sp, #8
 2299              		.loc 1 545 0
 2300 0616 8DF85900 		strb	r0, [sp, #89]
 2301              		.loc 1 546 0
 2302 061a 2046     		mov	r0, r4
 2303              		.loc 1 544 0
 2304 061c 8DF85820 		strb	r2, [sp, #88]
 2305              		.loc 1 545 0
 2306 0620 0293     		str	r3, [sp, #8]
 2307              		.loc 1 546 0
 2308 0622 FFF7FEFF 		bl	buffer_get_float32_auto
 2309              	.LVL211:
 2310              		.loc 1 548 0
 2311 0626 029B     		ldr	r3, [sp, #8]
 2312              		.loc 1 549 0
 2313 0628 2046     		mov	r0, r4
 2314              		.loc 1 548 0
 2315 062a 5A19     		adds	r2, r3, r5
 2316              		.loc 1 549 0
 2317 062c 02A9     		add	r1, sp, #8
 2318              		.loc 1 548 0
 2319 062e E35C     		ldrb	r3, [r4, r3]	@ zero_extendqisi2
 2320 0630 8DF86030 		strb	r3, [sp, #96]
 2321 0634 0292     		str	r2, [sp, #8]
 2322              		.loc 1 546 0
 2323 0636 8DED170A 		vstr.32	s0, [sp, #92]
 2324              		.loc 1 549 0
 2325 063a FFF7FEFF 		bl	buffer_get_float32_auto
 2326              	.LVL212:
 2327              		.loc 1 550 0
 2328 063e 2046     		mov	r0, r4
 2329 0640 02A9     		add	r1, sp, #8
 2330              		.loc 1 549 0
 2331 0642 8DED190A 		vstr.32	s0, [sp, #100]
 2332              		.loc 1 550 0
 2333 0646 FFF7FEFF 		bl	buffer_get_float32_auto
 2334              	.LVL213:
 2335              		.loc 1 551 0
 2336 064a 2046     		mov	r0, r4
 2337 064c 02A9     		add	r1, sp, #8
ARM GAS  /var/folders/sv/kgmgr77579zbf78p2zlhkdfr0000gn/T//ccMuP6SP.s 			page 42


 2338              		.loc 1 550 0
 2339 064e 8DED1A0A 		vstr.32	s0, [sp, #104]
 2340              		.loc 1 551 0
 2341 0652 FFF7FEFF 		bl	buffer_get_float32_auto
 2342              	.LVL214:
 2343              		.loc 1 552 0
 2344 0656 2046     		mov	r0, r4
 2345 0658 02A9     		add	r1, sp, #8
 2346              		.loc 1 551 0
 2347 065a 8DED1B0A 		vstr.32	s0, [sp, #108]
 2348              		.loc 1 552 0
 2349 065e FFF7FEFF 		bl	buffer_get_float32_auto
 2350              	.LVL215:
 2351              		.loc 1 553 0
 2352 0662 2046     		mov	r0, r4
 2353 0664 02A9     		add	r1, sp, #8
 2354              		.loc 1 552 0
 2355 0666 8DED1C0A 		vstr.32	s0, [sp, #112]
 2356              		.loc 1 553 0
 2357 066a FFF7FEFF 		bl	buffer_get_float32_auto
 2358              	.LVL216:
 2359              		.loc 1 554 0
 2360 066e 2046     		mov	r0, r4
 2361 0670 02A9     		add	r1, sp, #8
 2362              		.loc 1 553 0
 2363 0672 8DED1D0A 		vstr.32	s0, [sp, #116]
 2364              		.loc 1 554 0
 2365 0676 FFF7FEFF 		bl	buffer_get_float32_auto
 2366              	.LVL217:
 2367              		.loc 1 555 0
 2368 067a 029B     		ldr	r3, [sp, #8]
 2369 067c 5E19     		adds	r6, r3, r5
 2370              		.loc 1 556 0
 2371 067e 981C     		adds	r0, r3, #2
 2372 0680 14F806E0 		ldrb	lr, [r4, r6]	@ zero_extendqisi2
 2373              		.loc 1 557 0
 2374 0684 275C     		ldrb	r7, [r4, r0]	@ zero_extendqisi2
 2375 0686 D91C     		adds	r1, r3, #3
 2376              		.loc 1 558 0
 2377 0688 1A1D     		adds	r2, r3, #4
 2378              		.loc 1 556 0
 2379 068a 1EF1000E 		adds	lr, lr, #0
 2380              		.loc 1 558 0
 2381 068e 665C     		ldrb	r6, [r4, r1]	@ zero_extendqisi2
 2382              		.loc 1 559 0
 2383 0690 A15C     		ldrb	r1, [r4, r2]	@ zero_extendqisi2
 2384              		.loc 1 555 0
 2385 0692 E25C     		ldrb	r2, [r4, r3]	@ zero_extendqisi2
 2386              		.loc 1 559 0
 2387 0694 03F10500 		add	r0, r3, #5
 2388              		.loc 1 556 0
 2389 0698 18BF     		it	ne
 2390 069a 4FF0010E 		movne	lr, #1
 2391              		.loc 1 557 0
 2392 069e 0037     		adds	r7, r7, #0
 2393              		.loc 1 560 0
 2394 06a0 205C     		ldrb	r0, [r4, r0]	@ zero_extendqisi2
ARM GAS  /var/folders/sv/kgmgr77579zbf78p2zlhkdfr0000gn/T//ccMuP6SP.s 			page 43


 2395              		.loc 1 556 0
 2396 06a2 8DF87DE0 		strb	lr, [sp, #125]
 2397              		.loc 1 557 0
 2398 06a6 18BF     		it	ne
 2399 06a8 0127     		movne	r7, #1
 2400              		.loc 1 558 0
 2401 06aa 0036     		adds	r6, r6, #0
 2402 06ac 18BF     		it	ne
 2403 06ae 0126     		movne	r6, #1
 2404              		.loc 1 559 0
 2405 06b0 0031     		adds	r1, r1, #0
 2406 06b2 18BF     		it	ne
 2407 06b4 0121     		movne	r1, #1
 2408              		.loc 1 560 0
 2409 06b6 0030     		adds	r0, r0, #0
 2410 06b8 18BF     		it	ne
 2411 06ba 0120     		movne	r0, #1
 2412              		.loc 1 555 0
 2413 06bc 0032     		adds	r2, r2, #0
 2414 06be 18BF     		it	ne
 2415 06c0 0122     		movne	r2, #1
 2416              		.loc 1 560 0
 2417 06c2 0633     		adds	r3, r3, #6
 2418              		.loc 1 559 0
 2419 06c4 8DF88010 		strb	r1, [sp, #128]
 2420              		.loc 1 560 0
 2421 06c8 8DF88100 		strb	r0, [sp, #129]
 2422              		.loc 1 561 0
 2423 06cc 02A9     		add	r1, sp, #8
 2424 06ce 2046     		mov	r0, r4
 2425              		.loc 1 555 0
 2426 06d0 8DF87C20 		strb	r2, [sp, #124]
 2427              		.loc 1 560 0
 2428 06d4 0293     		str	r3, [sp, #8]
 2429              		.loc 1 557 0
 2430 06d6 8DF87E70 		strb	r7, [sp, #126]
 2431              		.loc 1 558 0
 2432 06da 8DF87F60 		strb	r6, [sp, #127]
 2433              		.loc 1 554 0
 2434 06de 8DED1E0A 		vstr.32	s0, [sp, #120]
 2435              		.loc 1 561 0
 2436 06e2 FFF7FEFF 		bl	buffer_get_float32_auto
 2437              	.LVL218:
 2438              		.loc 1 562 0
 2439 06e6 2046     		mov	r0, r4
 2440 06e8 02A9     		add	r1, sp, #8
 2441              		.loc 1 561 0
 2442 06ea 8DED210A 		vstr.32	s0, [sp, #132]
 2443              		.loc 1 562 0
 2444 06ee FFF7FEFF 		bl	buffer_get_float32_auto
 2445              	.LVL219:
 2446              		.loc 1 563 0
 2447 06f2 029B     		ldr	r3, [sp, #8]
 2448              		.loc 1 564 0
 2449 06f4 2046     		mov	r0, r4
 2450              		.loc 1 563 0
 2451 06f6 5A19     		adds	r2, r3, r5
ARM GAS  /var/folders/sv/kgmgr77579zbf78p2zlhkdfr0000gn/T//ccMuP6SP.s 			page 44


 2452              		.loc 1 564 0
 2453 06f8 02A9     		add	r1, sp, #8
 2454              		.loc 1 563 0
 2455 06fa E35C     		ldrb	r3, [r4, r3]	@ zero_extendqisi2
 2456 06fc 8DF88C30 		strb	r3, [sp, #140]
 2457 0700 0292     		str	r2, [sp, #8]
 2458              		.loc 1 562 0
 2459 0702 8DED220A 		vstr.32	s0, [sp, #136]
 2460              		.loc 1 564 0
 2461 0706 FFF7FEFF 		bl	buffer_get_float32_auto
 2462              	.LVL220:
 2463              		.loc 1 565 0
 2464 070a 2046     		mov	r0, r4
 2465 070c 02A9     		add	r1, sp, #8
 2466              		.loc 1 564 0
 2467 070e 8DED240A 		vstr.32	s0, [sp, #144]
 2468              		.loc 1 565 0
 2469 0712 FFF7FEFF 		bl	buffer_get_float32_auto
 2470              	.LVL221:
 2471              		.loc 1 566 0
 2472 0716 029B     		ldr	r3, [sp, #8]
 2473 0718 5919     		adds	r1, r3, r5
 2474 071a E25C     		ldrb	r2, [r4, r3]	@ zero_extendqisi2
 2475              		.loc 1 567 0
 2476 071c 605C     		ldrb	r0, [r4, r1]	@ zero_extendqisi2
 2477              		.loc 1 565 0
 2478 071e 8DED250A 		vstr.32	s0, [sp, #148]
 2479              		.loc 1 566 0
 2480 0722 0032     		adds	r2, r2, #0
 2481 0724 18BF     		it	ne
 2482 0726 0122     		movne	r2, #1
 2483              		.loc 1 567 0
 2484 0728 0030     		adds	r0, r0, #0
 2485 072a 18BF     		it	ne
 2486 072c 0120     		movne	r0, #1
 2487 072e 0233     		adds	r3, r3, #2
 2488              		.loc 1 568 0
 2489 0730 02A9     		add	r1, sp, #8
 2490              		.loc 1 567 0
 2491 0732 8DF89900 		strb	r0, [sp, #153]
 2492              		.loc 1 568 0
 2493 0736 2046     		mov	r0, r4
 2494              		.loc 1 566 0
 2495 0738 8DF89820 		strb	r2, [sp, #152]
 2496              		.loc 1 567 0
 2497 073c 0293     		str	r3, [sp, #8]
 2498              		.loc 1 568 0
 2499 073e FFF7FEFF 		bl	buffer_get_float32_auto
 2500              	.LVL222:
 2501              		.loc 1 569 0
 2502 0742 02A9     		add	r1, sp, #8
 2503 0744 2046     		mov	r0, r4
 2504              		.loc 1 568 0
 2505 0746 8DED270A 		vstr.32	s0, [sp, #156]
 2506              		.loc 1 569 0
 2507 074a FFF7FEFF 		bl	buffer_get_uint16
 2508              	.LVL223:
ARM GAS  /var/folders/sv/kgmgr77579zbf78p2zlhkdfr0000gn/T//ccMuP6SP.s 			page 45


 2509              		.loc 1 571 0
 2510 074e 02A9     		add	r1, sp, #8
 2511              		.loc 1 569 0
 2512 0750 2890     		str	r0, [sp, #160]
 2513              		.loc 1 571 0
 2514 0752 2046     		mov	r0, r4
 2515 0754 FFF7FEFF 		bl	buffer_get_uint32
 2516              	.LVL224:
 2517              		.loc 1 573 0
 2518 0758 029B     		ldr	r3, [sp, #8]
 2519              		.loc 1 571 0
 2520 075a 2990     		str	r0, [sp, #164]
 2521              		.loc 1 573 0
 2522 075c 5A19     		adds	r2, r3, r5
 2523              		.loc 1 574 0
 2524 075e 2046     		mov	r0, r4
 2525              		.loc 1 573 0
 2526 0760 E35C     		ldrb	r3, [r4, r3]	@ zero_extendqisi2
 2527 0762 8DF8A830 		strb	r3, [sp, #168]
 2528              		.loc 1 574 0
 2529 0766 02A9     		add	r1, sp, #8
 2530              		.loc 1 573 0
 2531 0768 0292     		str	r2, [sp, #8]
 2532              		.loc 1 574 0
 2533 076a FFF7FEFF 		bl	buffer_get_float32_auto
 2534              	.LVL225:
 2535              		.loc 1 575 0
 2536 076e 2046     		mov	r0, r4
 2537 0770 02A9     		add	r1, sp, #8
 2538              		.loc 1 574 0
 2539 0772 8DED2B0A 		vstr.32	s0, [sp, #172]
 2540              		.loc 1 575 0
 2541 0776 FFF7FEFF 		bl	buffer_get_float32_auto
 2542              	.LVL226:
 2543              		.loc 1 576 0
 2544 077a 2046     		mov	r0, r4
 2545 077c 02A9     		add	r1, sp, #8
 2546              		.loc 1 575 0
 2547 077e 8DED2C0A 		vstr.32	s0, [sp, #176]
 2548              		.loc 1 576 0
 2549 0782 FFF7FEFF 		bl	buffer_get_float32_auto
 2550              	.LVL227:
 2551              		.loc 1 577 0
 2552 0786 2046     		mov	r0, r4
 2553 0788 02A9     		add	r1, sp, #8
 2554              		.loc 1 576 0
 2555 078a 8DED2D0A 		vstr.32	s0, [sp, #180]
 2556              		.loc 1 577 0
 2557 078e FFF7FEFF 		bl	buffer_get_float32_auto
 2558              	.LVL228:
 2559              		.loc 1 578 0
 2560 0792 2046     		mov	r0, r4
 2561 0794 02A9     		add	r1, sp, #8
 2562              		.loc 1 577 0
 2563 0796 8DED2E0A 		vstr.32	s0, [sp, #184]
 2564              		.loc 1 578 0
 2565 079a FFF7FEFF 		bl	buffer_get_float32_auto
ARM GAS  /var/folders/sv/kgmgr77579zbf78p2zlhkdfr0000gn/T//ccMuP6SP.s 			page 46


 2566              	.LVL229:
 2567              		.loc 1 579 0
 2568 079e 2046     		mov	r0, r4
 2569 07a0 02A9     		add	r1, sp, #8
 2570              		.loc 1 578 0
 2571 07a2 8DED2F0A 		vstr.32	s0, [sp, #188]
 2572              		.loc 1 579 0
 2573 07a6 FFF7FEFF 		bl	buffer_get_float32_auto
 2574              	.LVL230:
 2575              		.loc 1 580 0
 2576 07aa 029B     		ldr	r3, [sp, #8]
 2577 07ac 5919     		adds	r1, r3, r5
 2578              		.loc 1 581 0
 2579 07ae 9A1C     		adds	r2, r3, #2
 2580 07b0 665C     		ldrb	r6, [r4, r1]	@ zero_extendqisi2
 2581              		.loc 1 582 0
 2582 07b2 A25C     		ldrb	r2, [r4, r2]	@ zero_extendqisi2
 2583              		.loc 1 580 0
 2584 07b4 E15C     		ldrb	r1, [r4, r3]	@ zero_extendqisi2
 2585 07b6 8DF8C410 		strb	r1, [sp, #196]
 2586              		.loc 1 581 0
 2587 07ba 0036     		adds	r6, r6, #0
 2588 07bc 18BF     		it	ne
 2589 07be 0126     		movne	r6, #1
 2590              		.loc 1 582 0
 2591 07c0 0032     		adds	r2, r2, #0
 2592 07c2 18BF     		it	ne
 2593 07c4 0122     		movne	r2, #1
 2594 07c6 0333     		adds	r3, r3, #3
 2595              		.loc 1 583 0
 2596 07c8 2046     		mov	r0, r4
 2597 07ca 02A9     		add	r1, sp, #8
 2598              		.loc 1 581 0
 2599 07cc 8DF8C560 		strb	r6, [sp, #197]
 2600              		.loc 1 582 0
 2601 07d0 8DF8C620 		strb	r2, [sp, #198]
 2602 07d4 0293     		str	r3, [sp, #8]
 2603              		.loc 1 579 0
 2604 07d6 8DED300A 		vstr.32	s0, [sp, #192]
 2605              		.loc 1 583 0
 2606 07da FFF7FEFF 		bl	buffer_get_float32_auto
 2607              	.LVL231:
 2608              		.loc 1 585 0
 2609 07de 029B     		ldr	r3, [sp, #8]
 2610              		.loc 1 583 0
 2611 07e0 8DED320A 		vstr.32	s0, [sp, #200]
 2612              		.loc 1 585 0
 2613 07e4 5A19     		adds	r2, r3, r5
 2614              		.loc 1 586 0
 2615 07e6 9F1C     		adds	r7, r3, #2
 2616              		.loc 1 587 0
 2617 07e8 D81C     		adds	r0, r3, #3
 2618              		.loc 1 588 0
 2619 07ea 191D     		adds	r1, r3, #4
 2620              		.loc 1 589 0
 2621 07ec 5E1D     		adds	r6, r3, #5
 2622              		.loc 1 586 0
ARM GAS  /var/folders/sv/kgmgr77579zbf78p2zlhkdfr0000gn/T//ccMuP6SP.s 			page 47


 2623 07ee A25C     		ldrb	r2, [r4, r2]	@ zero_extendqisi2
 2624              		.loc 1 588 0
 2625 07f0 205C     		ldrb	r0, [r4, r0]	@ zero_extendqisi2
 2626              		.loc 1 589 0
 2627 07f2 615C     		ldrb	r1, [r4, r1]	@ zero_extendqisi2
 2628              		.loc 1 587 0
 2629 07f4 E75D     		ldrb	r7, [r4, r7]	@ zero_extendqisi2
 2630              		.loc 1 590 0
 2631 07f6 A65D     		ldrb	r6, [r4, r6]	@ zero_extendqisi2
 2632              		.loc 1 586 0
 2633 07f8 8DF8CD20 		strb	r2, [sp, #205]
 2634              		.loc 1 593 0
 2635 07fc E218     		adds	r2, r4, r3
 2636              		.loc 1 587 0
 2637 07fe 8DF8CE70 		strb	r7, [sp, #206]
 2638              		.loc 1 593 0
 2639 0802 527A     		ldrb	r2, [r2, #9]	@ zero_extendqisi2
 2640              		.loc 1 588 0
 2641 0804 8DF8CF00 		strb	r0, [sp, #207]
 2642              		.loc 1 589 0
 2643 0808 8DF8D010 		strb	r1, [sp, #208]
 2644              		.loc 1 590 0
 2645 080c 981D     		adds	r0, r3, #6
 2646              		.loc 1 591 0
 2647 080e 2118     		adds	r1, r4, r0
 2648              		.loc 1 585 0
 2649 0810 E45C     		ldrb	r4, [r4, r3]	@ zero_extendqisi2
 2650              	.LVL232:
 2651 0812 8DF8CC40 		strb	r4, [sp, #204]
 2652              		.loc 1 590 0
 2653 0816 0290     		str	r0, [sp, #8]
 2654 0818 8DF8D160 		strb	r6, [sp, #209]
 2655              		.loc 1 593 0
 2656 081c 0032     		adds	r2, r2, #0
 2657              		.loc 1 591 0
 2658 081e 8878     		ldrb	r0, [r1, #2]	@ zero_extendqisi2
 2659 0820 0988     		ldrh	r1, [r1]	@ unaligned
 2660 0822 8DF8D400 		strb	r0, [sp, #212]
 2661              		.loc 1 593 0
 2662 0826 18BF     		it	ne
 2663 0828 0122     		movne	r2, #1
 2664 082a 0A33     		adds	r3, r3, #10
 2665              		.loc 1 595 0
 2666 082c 04A8     		add	r0, sp, #16
 2667              		.loc 1 593 0
 2668 082e 8DF8D520 		strb	r2, [sp, #213]
 2669 0832 0293     		str	r3, [sp, #8]
 2670              		.loc 1 591 0
 2671 0834 ADF8D210 		strh	r1, [sp, #210]	@ unaligned
 2672              		.loc 1 595 0
 2673 0838 FFF7FEFF 		bl	conf_general_store_app_configuration
 2674              	.LVL233:
 2675              		.loc 1 596 0
 2676 083c 04A8     		add	r0, sp, #16
 2677 083e FFF7FEFF 		bl	app_set_configuration
 2678              	.LVL234:
 2679              		.loc 1 597 0
ARM GAS  /var/folders/sv/kgmgr77579zbf78p2zlhkdfr0000gn/T//ccMuP6SP.s 			page 48


 2680 0842 9DED060A 		vldr.32	s0, [sp, #24]
 2681 0846 0598     		ldr	r0, [sp, #20]
 2682 0848 FFF7FEFF 		bl	timeout_configure
 2683              	.LVL235:
 2684              		.loc 1 598 0
 2685 084c 4FF4FA60 		mov	r0, #2000
 2686 0850 FFF7FEFF 		bl	chThdSleep
 2687              	.LVL236:
 2688              	.LBB119:
 2689              	.LBB120:
 2690              		.loc 1 90 0
 2691 0854 114B     		ldr	r3, .L209
 2692              	.LBE120:
 2693              	.LBE119:
 2694              		.loc 1 601 0
 2695 0856 1248     		ldr	r0, .L209+4
 2696              	.LBB123:
 2697              	.LBB121:
 2698              		.loc 1 90 0
 2699 0858 1B68     		ldr	r3, [r3]
 2700              	.LBE121:
 2701              	.LBE123:
 2702              		.loc 1 601 0
 2703 085a 0295     		str	r5, [sp, #8]
 2704 085c 1022     		movs	r2, #16
 2705 085e 0270     		strb	r2, [r0]
 2706              	.LVL237:
 2707              	.LBB124:
 2708              	.LBB122:
 2709              		.loc 1 90 0
 2710 0860 002B     		cmp	r3, #0
 2711 0862 3FF44EAC 		beq	.L77
 2712              		.loc 1 91 0
 2713 0866 2946     		mov	r1, r5
 2714 0868 9847     		blx	r3
 2715              	.LVL238:
 2716 086a 4AE4     		b	.L77
 2717              	.LVL239:
 2718              	.L98:
 2719              	.LBE122:
 2720              	.LBE124:
 2721              		.loc 1 629 0
 2722 086c 0023     		movs	r3, #0
 2723 086e 6355     		strb	r3, [r4, r5]
 2724              		.loc 1 630 0
 2725 0870 2046     		mov	r0, r4
 2726 0872 FFF7FEFF 		bl	terminal_process_string
 2727              	.LVL240:
 2728              		.loc 1 631 0
 2729 0876 44E4     		b	.L77
 2730              	.L97:
 2731              	.LBB125:
 2732              		.loc 1 622 0
 2733 0878 36A9     		add	r1, sp, #216
 2734 087a 0123     		movs	r3, #1
 2735 087c 41F8D03D 		str	r3, [r1, #-208]!
 2736              		.loc 1 623 0
ARM GAS  /var/folders/sv/kgmgr77579zbf78p2zlhkdfr0000gn/T//ccMuP6SP.s 			page 49


 2737 0880 2046     		mov	r0, r4
 2738              		.loc 1 622 0
 2739 0882 7D78     		ldrb	r5, [r7, #1]	@ zero_extendqisi2
 2740              	.LVL241:
 2741              		.loc 1 623 0
 2742 0884 FFF7FEFF 		bl	buffer_get_uint16
 2743              	.LVL242:
 2744              		.loc 1 624 0
 2745 0888 029B     		ldr	r3, [sp, #8]
 2746              		.loc 1 625 0
 2747 088a 0146     		mov	r1, r0
 2748 088c E25C     		ldrb	r2, [r4, r3]	@ zero_extendqisi2
 2749 088e 2846     		mov	r0, r5
 2750              	.LVL243:
 2751              		.loc 1 624 0
 2752 0890 0133     		adds	r3, r3, #1
 2753 0892 0293     		str	r3, [sp, #8]
 2754              	.LVL244:
 2755              		.loc 1 625 0
 2756 0894 FFF7FEFF 		bl	mc_interface_sample_print_data
 2757              	.LVL245:
 2758              	.LBE125:
 2759              		.loc 1 626 0
 2760 0898 33E4     		b	.L77
 2761              	.L210:
 2762 089a 00BF     		.align	2
 2763              	.L209:
 2764 089c 00000000 		.word	.LANCHOR10
 2765 08a0 00000000 		.word	.LANCHOR8
 2766              	.LVL246:
 2767              	.L94:
 2768              		.loc 1 404 0
 2769 08a4 B8F10E0F 		cmp	r8, #14
 2770 08a8 00F0CC86 		beq	.L204
 2771              		.loc 1 407 0
 2772 08ac F148     		ldr	r0, .L211
 2773 08ae FFF7FEFF 		bl	conf_general_get_default_mc_configuration
 2774              	.LVL247:
 2775              	.L118:
 2776              		.loc 1 416 0
 2777 08b2 36AE     		add	r6, sp, #216
 2778              		.loc 1 413 0
 2779 08b4 EF4D     		ldr	r5, .L211
 2780              	.LVL248:
 2781              		.loc 1 411 0
 2782 08b6 F04C     		ldr	r4, .L211+4
 2783              	.LVL249:
 2784              		.loc 1 415 0
 2785 08b8 AA78     		ldrb	r2, [r5, #2]	@ zero_extendqisi2
 2786              		.loc 1 414 0
 2787 08ba 6F78     		ldrb	r7, [r5, #1]	@ zero_extendqisi2
 2788              	.LVL250:
 2789              		.loc 1 418 0
 2790 08bc 95ED010A 		vldr.32	s0, [r5, #4]
 2791              		.loc 1 415 0
 2792 08c0 E270     		strb	r2, [r4, #3]
 2793              		.loc 1 416 0
ARM GAS  /var/folders/sv/kgmgr77579zbf78p2zlhkdfr0000gn/T//ccMuP6SP.s 			page 50


 2794 08c2 0523     		movs	r3, #5
 2795 08c4 46F8D03D 		str	r3, [r6, #-208]!
 2796              		.loc 1 413 0
 2797 08c8 2B78     		ldrb	r3, [r5]	@ zero_extendqisi2
 2798 08ca 6370     		strb	r3, [r4, #1]
 2799              		.loc 1 418 0
 2800 08cc 3146     		mov	r1, r6
 2801              		.loc 1 416 0
 2802 08ce EB78     		ldrb	r3, [r5, #3]	@ zero_extendqisi2
 2803 08d0 2371     		strb	r3, [r4, #4]
 2804              		.loc 1 418 0
 2805 08d2 2046     		mov	r0, r4
 2806              		.loc 1 414 0
 2807 08d4 A770     		strb	r7, [r4, #2]
 2808              		.loc 1 411 0
 2809 08d6 84F80080 		strb	r8, [r4]
 2810              		.loc 1 418 0
 2811 08da FFF7FEFF 		bl	buffer_append_float32_auto
 2812              	.LVL251:
 2813              		.loc 1 419 0
 2814 08de 3146     		mov	r1, r6
 2815 08e0 95ED020A 		vldr.32	s0, [r5, #8]
 2816 08e4 2046     		mov	r0, r4
 2817 08e6 FFF7FEFF 		bl	buffer_append_float32_auto
 2818              	.LVL252:
 2819              		.loc 1 420 0
 2820 08ea 3146     		mov	r1, r6
 2821 08ec 95ED030A 		vldr.32	s0, [r5, #12]
 2822 08f0 2046     		mov	r0, r4
 2823 08f2 FFF7FEFF 		bl	buffer_append_float32_auto
 2824              	.LVL253:
 2825              		.loc 1 421 0
 2826 08f6 3146     		mov	r1, r6
 2827 08f8 95ED040A 		vldr.32	s0, [r5, #16]
 2828 08fc 2046     		mov	r0, r4
 2829 08fe FFF7FEFF 		bl	buffer_append_float32_auto
 2830              	.LVL254:
 2831              		.loc 1 422 0
 2832 0902 3146     		mov	r1, r6
 2833 0904 95ED050A 		vldr.32	s0, [r5, #20]
 2834 0908 2046     		mov	r0, r4
 2835 090a FFF7FEFF 		bl	buffer_append_float32_auto
 2836              	.LVL255:
 2837              		.loc 1 423 0
 2838 090e 3146     		mov	r1, r6
 2839 0910 95ED060A 		vldr.32	s0, [r5, #24]
 2840 0914 2046     		mov	r0, r4
 2841 0916 FFF7FEFF 		bl	buffer_append_float32_auto
 2842              	.LVL256:
 2843              		.loc 1 424 0
 2844 091a 3146     		mov	r1, r6
 2845 091c 95ED070A 		vldr.32	s0, [r5, #28]
 2846 0920 2046     		mov	r0, r4
 2847 0922 FFF7FEFF 		bl	buffer_append_float32_auto
 2848              	.LVL257:
 2849              		.loc 1 425 0
 2850 0926 3146     		mov	r1, r6
ARM GAS  /var/folders/sv/kgmgr77579zbf78p2zlhkdfr0000gn/T//ccMuP6SP.s 			page 51


 2851 0928 95ED080A 		vldr.32	s0, [r5, #32]
 2852 092c 2046     		mov	r0, r4
 2853 092e FFF7FEFF 		bl	buffer_append_float32_auto
 2854              	.LVL258:
 2855              		.loc 1 426 0
 2856 0932 3146     		mov	r1, r6
 2857 0934 95ED090A 		vldr.32	s0, [r5, #36]
 2858 0938 2046     		mov	r0, r4
 2859 093a FFF7FEFF 		bl	buffer_append_float32_auto
 2860              	.LVL259:
 2861              		.loc 1 427 0
 2862 093e 3146     		mov	r1, r6
 2863 0940 95ED0A0A 		vldr.32	s0, [r5, #40]
 2864 0944 2046     		mov	r0, r4
 2865 0946 FFF7FEFF 		bl	buffer_append_float32_auto
 2866              	.LVL260:
 2867              		.loc 1 428 0
 2868 094a 3146     		mov	r1, r6
 2869 094c 95ED0B0A 		vldr.32	s0, [r5, #44]
 2870 0950 2046     		mov	r0, r4
 2871 0952 FFF7FEFF 		bl	buffer_append_float32_auto
 2872              	.LVL261:
 2873              		.loc 1 429 0
 2874 0956 3146     		mov	r1, r6
 2875 0958 95ED0C0A 		vldr.32	s0, [r5, #48]
 2876 095c 2046     		mov	r0, r4
 2877 095e FFF7FEFF 		bl	buffer_append_float32_auto
 2878              	.LVL262:
 2879              		.loc 1 430 0
 2880 0962 3146     		mov	r1, r6
 2881 0964 95ED0D0A 		vldr.32	s0, [r5, #52]
 2882 0968 2046     		mov	r0, r4
 2883 096a FFF7FEFF 		bl	buffer_append_float32_auto
 2884              	.LVL263:
 2885              		.loc 1 431 0
 2886 096e 3146     		mov	r1, r6
 2887 0970 95ED0E0A 		vldr.32	s0, [r5, #56]
 2888 0974 2046     		mov	r0, r4
 2889 0976 FFF7FEFF 		bl	buffer_append_float32_auto
 2890              	.LVL264:
 2891              		.loc 1 432 0
 2892 097a 029B     		ldr	r3, [sp, #8]
 2893 097c 95F83C20 		ldrb	r2, [r5, #60]	@ zero_extendqisi2
 2894 0980 E254     		strb	r2, [r4, r3]
 2895              		.loc 1 433 0
 2896 0982 95ED100A 		vldr.32	s0, [r5, #64]
 2897              		.loc 1 432 0
 2898 0986 0133     		adds	r3, r3, #1
 2899              		.loc 1 433 0
 2900 0988 3146     		mov	r1, r6
 2901 098a 2046     		mov	r0, r4
 2902              		.loc 1 432 0
 2903 098c 0293     		str	r3, [sp, #8]
 2904              		.loc 1 433 0
 2905 098e FFF7FEFF 		bl	buffer_append_float32_auto
 2906              	.LVL265:
 2907              		.loc 1 434 0
ARM GAS  /var/folders/sv/kgmgr77579zbf78p2zlhkdfr0000gn/T//ccMuP6SP.s 			page 52


 2908 0992 3146     		mov	r1, r6
 2909 0994 95ED110A 		vldr.32	s0, [r5, #68]
 2910 0998 2046     		mov	r0, r4
 2911 099a FFF7FEFF 		bl	buffer_append_float32_auto
 2912              	.LVL266:
 2913              		.loc 1 435 0
 2914 099e 3146     		mov	r1, r6
 2915 09a0 95ED120A 		vldr.32	s0, [r5, #72]
 2916 09a4 2046     		mov	r0, r4
 2917 09a6 FFF7FEFF 		bl	buffer_append_float32_auto
 2918              	.LVL267:
 2919              		.loc 1 436 0
 2920 09aa 3146     		mov	r1, r6
 2921 09ac 95ED130A 		vldr.32	s0, [r5, #76]
 2922 09b0 2046     		mov	r0, r4
 2923 09b2 FFF7FEFF 		bl	buffer_append_float32_auto
 2924              	.LVL268:
 2925              		.loc 1 437 0
 2926 09b6 3146     		mov	r1, r6
 2927 09b8 95ED140A 		vldr.32	s0, [r5, #80]
 2928 09bc 2046     		mov	r0, r4
 2929 09be FFF7FEFF 		bl	buffer_append_float32_auto
 2930              	.LVL269:
 2931              		.loc 1 438 0
 2932 09c2 3146     		mov	r1, r6
 2933 09c4 95ED150A 		vldr.32	s0, [r5, #84]
 2934 09c8 2046     		mov	r0, r4
 2935 09ca FFF7FEFF 		bl	buffer_append_float32_auto
 2936              	.LVL270:
 2937              		.loc 1 439 0
 2938 09ce 3146     		mov	r1, r6
 2939 09d0 95ED160A 		vldr.32	s0, [r5, #88]
 2940 09d4 2046     		mov	r0, r4
 2941 09d6 FFF7FEFF 		bl	buffer_append_float32_auto
 2942              	.LVL271:
 2943              		.loc 1 440 0
 2944 09da 3146     		mov	r1, r6
 2945 09dc 95ED170A 		vldr.32	s0, [r5, #92]
 2946 09e0 2046     		mov	r0, r4
 2947 09e2 FFF7FEFF 		bl	buffer_append_float32_auto
 2948              	.LVL272:
 2949              		.loc 1 441 0
 2950 09e6 3146     		mov	r1, r6
 2951 09e8 95ED180A 		vldr.32	s0, [r5, #96]
 2952 09ec 2046     		mov	r0, r4
 2953 09ee FFF7FEFF 		bl	buffer_append_float32_auto
 2954              	.LVL273:
 2955              		.loc 1 443 0
 2956 09f2 3146     		mov	r1, r6
 2957 09f4 95ED1F0A 		vldr.32	s0, [r5, #124]
 2958 09f8 2046     		mov	r0, r4
 2959 09fa FFF7FEFF 		bl	buffer_append_float32_auto
 2960              	.LVL274:
 2961              		.loc 1 444 0
 2962 09fe 3146     		mov	r1, r6
 2963 0a00 95ED200A 		vldr.32	s0, [r5, #128]
 2964 0a04 2046     		mov	r0, r4
ARM GAS  /var/folders/sv/kgmgr77579zbf78p2zlhkdfr0000gn/T//ccMuP6SP.s 			page 53


 2965 0a06 FFF7FEFF 		bl	buffer_append_float32_auto
 2966              	.LVL275:
 2967              		.loc 1 445 0
 2968 0a0a 3146     		mov	r1, r6
 2969 0a0c 95ED210A 		vldr.32	s0, [r5, #132]
 2970 0a10 2046     		mov	r0, r4
 2971 0a12 FFF7FEFF 		bl	buffer_append_float32_auto
 2972              	.LVL276:
 2973              		.loc 1 446 0
 2974 0a16 3146     		mov	r1, r6
 2975 0a18 95ED220A 		vldr.32	s0, [r5, #136]
 2976 0a1c 2046     		mov	r0, r4
 2977 0a1e FFF7FEFF 		bl	buffer_append_float32_auto
 2978              	.LVL277:
 2979              		.loc 1 447 0
 2980 0a22 3146     		mov	r1, r6
 2981 0a24 95ED230A 		vldr.32	s0, [r5, #140]
 2982 0a28 2046     		mov	r0, r4
 2983 0a2a FFF7FEFF 		bl	buffer_append_float32_auto
 2984              	.LVL278:
 2985              		.loc 1 448 0
 2986 0a2e 3146     		mov	r1, r6
 2987 0a30 95ED240A 		vldr.32	s0, [r5, #144]
 2988 0a34 2046     		mov	r0, r4
 2989 0a36 FFF7FEFF 		bl	buffer_append_float32_auto
 2990              	.LVL279:
 2991              		.loc 1 449 0
 2992 0a3a 3146     		mov	r1, r6
 2993 0a3c 95ED250A 		vldr.32	s0, [r5, #148]
 2994 0a40 2046     		mov	r0, r4
 2995 0a42 FFF7FEFF 		bl	buffer_append_float32_auto
 2996              	.LVL280:
 2997              		.loc 1 451 0
 2998 0a46 029B     		ldr	r3, [sp, #8]
 2999              		.loc 1 453 0
 3000 0a48 95ED280A 		vldr.32	s0, [r5, #160]
 3001              		.loc 1 451 0
 3002 0a4c 05F19802 		add	r2, r5, #152
 3003 0a50 03CA     		ldmia	r2!, {r0, r1}
 3004 0a52 E218     		adds	r2, r4, r3
 3005 0a54 E050     		str	r0, [r4, r3]	@ unaligned
 3006              		.loc 1 452 0
 3007 0a56 0833     		adds	r3, r3, #8
 3008              		.loc 1 451 0
 3009 0a58 5160     		str	r1, [r2, #4]	@ unaligned
 3010              		.loc 1 453 0
 3011 0a5a 2046     		mov	r0, r4
 3012 0a5c 3146     		mov	r1, r6
 3013              		.loc 1 452 0
 3014 0a5e 0293     		str	r3, [sp, #8]
 3015              		.loc 1 453 0
 3016 0a60 FFF7FEFF 		bl	buffer_append_float32_auto
 3017              	.LVL281:
 3018              		.loc 1 455 0
 3019 0a64 3146     		mov	r1, r6
 3020 0a66 95ED290A 		vldr.32	s0, [r5, #164]
 3021 0a6a 2046     		mov	r0, r4
ARM GAS  /var/folders/sv/kgmgr77579zbf78p2zlhkdfr0000gn/T//ccMuP6SP.s 			page 54


 3022 0a6c FFF7FEFF 		bl	buffer_append_float32_auto
 3023              	.LVL282:
 3024              		.loc 1 456 0
 3025 0a70 3146     		mov	r1, r6
 3026 0a72 95ED2A0A 		vldr.32	s0, [r5, #168]
 3027 0a76 2046     		mov	r0, r4
 3028 0a78 FFF7FEFF 		bl	buffer_append_float32_auto
 3029              	.LVL283:
 3030              		.loc 1 457 0
 3031 0a7c 3146     		mov	r1, r6
 3032 0a7e 95ED2B0A 		vldr.32	s0, [r5, #172]
 3033 0a82 2046     		mov	r0, r4
 3034 0a84 FFF7FEFF 		bl	buffer_append_float32_auto
 3035              	.LVL284:
 3036              		.loc 1 458 0
 3037 0a88 3146     		mov	r1, r6
 3038 0a8a 95ED2C0A 		vldr.32	s0, [r5, #176]
 3039 0a8e 2046     		mov	r0, r4
 3040 0a90 FFF7FEFF 		bl	buffer_append_float32_auto
 3041              	.LVL285:
 3042              		.loc 1 459 0
 3043 0a94 029B     		ldr	r3, [sp, #8]
 3044 0a96 95F8B820 		ldrb	r2, [r5, #184]	@ zero_extendqisi2
 3045 0a9a E254     		strb	r2, [r4, r3]
 3046              		.loc 1 460 0
 3047 0a9c 95ED2D0A 		vldr.32	s0, [r5, #180]
 3048              		.loc 1 459 0
 3049 0aa0 0133     		adds	r3, r3, #1
 3050              		.loc 1 460 0
 3051 0aa2 3146     		mov	r1, r6
 3052 0aa4 2046     		mov	r0, r4
 3053              		.loc 1 459 0
 3054 0aa6 0293     		str	r3, [sp, #8]
 3055              		.loc 1 460 0
 3056 0aa8 FFF7FEFF 		bl	buffer_append_float32_auto
 3057              	.LVL286:
 3058              		.loc 1 461 0
 3059 0aac 3146     		mov	r1, r6
 3060 0aae 95ED2F0A 		vldr.32	s0, [r5, #188]
 3061 0ab2 2046     		mov	r0, r4
 3062 0ab4 FFF7FEFF 		bl	buffer_append_float32_auto
 3063              	.LVL287:
 3064              		.loc 1 462 0
 3065 0ab8 029B     		ldr	r3, [sp, #8]
 3066 0aba 95F8F820 		ldrb	r2, [r5, #248]	@ zero_extendqisi2
 3067 0abe E254     		strb	r2, [r4, r3]
 3068              		.loc 1 463 0
 3069 0ac0 95ED350A 		vldr.32	s0, [r5, #212]
 3070              		.loc 1 462 0
 3071 0ac4 0133     		adds	r3, r3, #1
 3072              		.loc 1 463 0
 3073 0ac6 3146     		mov	r1, r6
 3074 0ac8 2046     		mov	r0, r4
 3075              		.loc 1 462 0
 3076 0aca 0293     		str	r3, [sp, #8]
 3077              		.loc 1 463 0
 3078 0acc FFF7FEFF 		bl	buffer_append_float32_auto
ARM GAS  /var/folders/sv/kgmgr77579zbf78p2zlhkdfr0000gn/T//ccMuP6SP.s 			page 55


 3079              	.LVL288:
 3080              		.loc 1 464 0
 3081 0ad0 3146     		mov	r1, r6
 3082 0ad2 95ED360A 		vldr.32	s0, [r5, #216]
 3083 0ad6 2046     		mov	r0, r4
 3084 0ad8 FFF7FEFF 		bl	buffer_append_float32_auto
 3085              	.LVL289:
 3086              		.loc 1 465 0
 3087 0adc 3146     		mov	r1, r6
 3088 0ade 95ED300A 		vldr.32	s0, [r5, #192]
 3089 0ae2 2046     		mov	r0, r4
 3090 0ae4 FFF7FEFF 		bl	buffer_append_float32_auto
 3091              	.LVL290:
 3092              		.loc 1 466 0
 3093 0ae8 3146     		mov	r1, r6
 3094 0aea 95ED310A 		vldr.32	s0, [r5, #196]
 3095 0aee 2046     		mov	r0, r4
 3096 0af0 FFF7FEFF 		bl	buffer_append_float32_auto
 3097              	.LVL291:
 3098              		.loc 1 467 0
 3099 0af4 3146     		mov	r1, r6
 3100 0af6 95ED320A 		vldr.32	s0, [r5, #200]
 3101 0afa 2046     		mov	r0, r4
 3102 0afc FFF7FEFF 		bl	buffer_append_float32_auto
 3103              	.LVL292:
 3104              		.loc 1 468 0
 3105 0b00 3146     		mov	r1, r6
 3106 0b02 95ED330A 		vldr.32	s0, [r5, #204]
 3107 0b06 2046     		mov	r0, r4
 3108 0b08 FFF7FEFF 		bl	buffer_append_float32_auto
 3109              	.LVL293:
 3110              		.loc 1 469 0
 3111 0b0c 3146     		mov	r1, r6
 3112 0b0e 95ED340A 		vldr.32	s0, [r5, #208]
 3113 0b12 2046     		mov	r0, r4
 3114 0b14 FFF7FEFF 		bl	buffer_append_float32_auto
 3115              	.LVL294:
 3116              		.loc 1 470 0
 3117 0b18 3146     		mov	r1, r6
 3118 0b1a 95ED370A 		vldr.32	s0, [r5, #220]
 3119 0b1e 2046     		mov	r0, r4
 3120 0b20 FFF7FEFF 		bl	buffer_append_float32_auto
 3121              	.LVL295:
 3122              		.loc 1 471 0
 3123 0b24 3146     		mov	r1, r6
 3124 0b26 95ED380A 		vldr.32	s0, [r5, #224]
 3125 0b2a 2046     		mov	r0, r4
 3126 0b2c FFF7FEFF 		bl	buffer_append_float32_auto
 3127              	.LVL296:
 3128              		.loc 1 472 0
 3129 0b30 3146     		mov	r1, r6
 3130 0b32 95ED390A 		vldr.32	s0, [r5, #228]
 3131 0b36 2046     		mov	r0, r4
 3132 0b38 FFF7FEFF 		bl	buffer_append_float32_auto
 3133              	.LVL297:
 3134              		.loc 1 473 0
 3135 0b3c 3146     		mov	r1, r6
ARM GAS  /var/folders/sv/kgmgr77579zbf78p2zlhkdfr0000gn/T//ccMuP6SP.s 			page 56


 3136 0b3e 95ED3A0A 		vldr.32	s0, [r5, #232]
 3137 0b42 2046     		mov	r0, r4
 3138 0b44 FFF7FEFF 		bl	buffer_append_float32_auto
 3139              	.LVL298:
 3140              		.loc 1 474 0
 3141 0b48 3146     		mov	r1, r6
 3142 0b4a 95ED3B0A 		vldr.32	s0, [r5, #236]
 3143 0b4e 2046     		mov	r0, r4
 3144 0b50 FFF7FEFF 		bl	buffer_append_float32_auto
 3145              	.LVL299:
 3146              		.loc 1 475 0
 3147 0b54 3146     		mov	r1, r6
 3148 0b56 95ED3C0A 		vldr.32	s0, [r5, #240]
 3149 0b5a 2046     		mov	r0, r4
 3150 0b5c FFF7FEFF 		bl	buffer_append_float32_auto
 3151              	.LVL300:
 3152              		.loc 1 476 0
 3153 0b60 3146     		mov	r1, r6
 3154 0b62 95ED3D0A 		vldr.32	s0, [r5, #244]
 3155 0b66 2046     		mov	r0, r4
 3156 0b68 FFF7FEFF 		bl	buffer_append_float32_auto
 3157              	.LVL301:
 3158              		.loc 1 477 0
 3159 0b6c 2A46     		mov	r2, r5
 3160 0b6e 029B     		ldr	r3, [sp, #8]
 3161 0b70 52F8F91F 		ldr	r1, [r2, #249]!	@ unaligned
 3162 0b74 E150     		str	r1, [r4, r3]	@ unaligned
 3163 0b76 5768     		ldr	r7, [r2, #4]	@ unaligned
 3164              		.loc 1 479 0
 3165 0b78 95ED410A 		vldr.32	s0, [r5, #260]
 3166              		.loc 1 477 0
 3167 0b7c E218     		adds	r2, r4, r3
 3168              		.loc 1 479 0
 3169 0b7e 3146     		mov	r1, r6
 3170              		.loc 1 478 0
 3171 0b80 0833     		adds	r3, r3, #8
 3172              		.loc 1 477 0
 3173 0b82 5760     		str	r7, [r2, #4]	@ unaligned
 3174              		.loc 1 479 0
 3175 0b84 2046     		mov	r0, r4
 3176              		.loc 1 478 0
 3177 0b86 0293     		str	r3, [sp, #8]
 3178              		.loc 1 479 0
 3179 0b88 FFF7FEFF 		bl	buffer_append_float32_auto
 3180              	.LVL302:
 3181              		.loc 1 480 0
 3182 0b8c 029B     		ldr	r3, [sp, #8]
 3183 0b8e 95F80821 		ldrb	r2, [r5, #264]	@ zero_extendqisi2
 3184 0b92 E254     		strb	r2, [r4, r3]
 3185              		.loc 1 481 0
 3186 0b94 E218     		adds	r2, r4, r3
 3187 0b96 95F80971 		ldrb	r7, [r5, #265]	@ zero_extendqisi2
 3188              		.loc 1 482 0
 3189 0b9a 95ED430A 		vldr.32	s0, [r5, #268]
 3190              		.loc 1 481 0
 3191 0b9e 5770     		strb	r7, [r2, #1]
 3192 0ba0 0233     		adds	r3, r3, #2
ARM GAS  /var/folders/sv/kgmgr77579zbf78p2zlhkdfr0000gn/T//ccMuP6SP.s 			page 57


 3193              		.loc 1 482 0
 3194 0ba2 3146     		mov	r1, r6
 3195 0ba4 2046     		mov	r0, r4
 3196              		.loc 1 481 0
 3197 0ba6 0293     		str	r3, [sp, #8]
 3198              		.loc 1 482 0
 3199 0ba8 FFF7FEFF 		bl	buffer_append_float32_auto
 3200              	.LVL303:
 3201              		.loc 1 483 0
 3202 0bac 029B     		ldr	r3, [sp, #8]
 3203 0bae 95F81021 		ldrb	r2, [r5, #272]	@ zero_extendqisi2
 3204 0bb2 E254     		strb	r2, [r4, r3]
 3205              		.loc 1 484 0
 3206 0bb4 95ED450A 		vldr.32	s0, [r5, #276]
 3207              		.loc 1 483 0
 3208 0bb8 0133     		adds	r3, r3, #1
 3209              		.loc 1 484 0
 3210 0bba 3146     		mov	r1, r6
 3211 0bbc 2046     		mov	r0, r4
 3212              		.loc 1 483 0
 3213 0bbe 0293     		str	r3, [sp, #8]
 3214              		.loc 1 484 0
 3215 0bc0 FFF7FEFF 		bl	buffer_append_float32_auto
 3216              	.LVL304:
 3217              		.loc 1 486 0
 3218 0bc4 3146     		mov	r1, r6
 3219 0bc6 95ED460A 		vldr.32	s0, [r5, #280]
 3220 0bca 2046     		mov	r0, r4
 3221 0bcc FFF7FEFF 		bl	buffer_append_float32_auto
 3222              	.LVL305:
 3223              		.loc 1 487 0
 3224 0bd0 3146     		mov	r1, r6
 3225 0bd2 95ED470A 		vldr.32	s0, [r5, #284]
 3226 0bd6 2046     		mov	r0, r4
 3227 0bd8 FFF7FEFF 		bl	buffer_append_float32_auto
 3228              	.LVL306:
 3229              		.loc 1 488 0
 3230 0bdc 3146     		mov	r1, r6
 3231 0bde 95ED480A 		vldr.32	s0, [r5, #288]
 3232 0be2 2046     		mov	r0, r4
 3233 0be4 FFF7FEFF 		bl	buffer_append_float32_auto
 3234              	.LVL307:
 3235              		.loc 1 489 0
 3236 0be8 3146     		mov	r1, r6
 3237 0bea 95ED490A 		vldr.32	s0, [r5, #292]
 3238 0bee 2046     		mov	r0, r4
 3239 0bf0 FFF7FEFF 		bl	buffer_append_float32_auto
 3240              	.LVL308:
 3241              		.loc 1 490 0
 3242 0bf4 029B     		ldr	r3, [sp, #8]
 3243 0bf6 95F82821 		ldrb	r2, [r5, #296]	@ zero_extendqisi2
 3244 0bfa E254     		strb	r2, [r4, r3]
 3245              		.loc 1 492 0
 3246 0bfc 95ED4B0A 		vldr.32	s0, [r5, #300]
 3247              		.loc 1 490 0
 3248 0c00 0133     		adds	r3, r3, #1
 3249              		.loc 1 492 0
ARM GAS  /var/folders/sv/kgmgr77579zbf78p2zlhkdfr0000gn/T//ccMuP6SP.s 			page 58


 3250 0c02 3146     		mov	r1, r6
 3251 0c04 2046     		mov	r0, r4
 3252              		.loc 1 490 0
 3253 0c06 0293     		str	r3, [sp, #8]
 3254              		.loc 1 492 0
 3255 0c08 FFF7FEFF 		bl	buffer_append_float32_auto
 3256              	.LVL309:
 3257              		.loc 1 493 0
 3258 0c0c 3146     		mov	r1, r6
 3259 0c0e 95ED4C0A 		vldr.32	s0, [r5, #304]
 3260 0c12 2046     		mov	r0, r4
 3261 0c14 FFF7FEFF 		bl	buffer_append_float32_auto
 3262              	.LVL310:
 3263              		.loc 1 494 0
 3264 0c18 3146     		mov	r1, r6
 3265 0c1a 95ED4D0A 		vldr.32	s0, [r5, #308]
 3266 0c1e 2046     		mov	r0, r4
 3267 0c20 FFF7FEFF 		bl	buffer_append_float32_auto
 3268              	.LVL311:
 3269              		.loc 1 495 0
 3270 0c24 3146     		mov	r1, r6
 3271 0c26 95ED4E0A 		vldr.32	s0, [r5, #312]
 3272 0c2a 2046     		mov	r0, r4
 3273 0c2c FFF7FEFF 		bl	buffer_append_float32_auto
 3274              	.LVL312:
 3275              		.loc 1 497 0
 3276 0c30 3146     		mov	r1, r6
 3277 0c32 95ED4F0A 		vldr.32	s0, [r5, #316]
 3278 0c36 2046     		mov	r0, r4
 3279 0c38 FFF7FEFF 		bl	buffer_append_float32_auto
 3280              	.LVL313:
 3281              		.loc 1 498 0
 3282 0c3c 3146     		mov	r1, r6
 3283 0c3e 95ED500A 		vldr.32	s0, [r5, #320]
 3284 0c42 2046     		mov	r0, r4
 3285 0c44 FFF7FEFF 		bl	buffer_append_float32_auto
 3286              	.LVL314:
 3287              		.loc 1 499 0
 3288 0c48 3146     		mov	r1, r6
 3289 0c4a 95ED510A 		vldr.32	s0, [r5, #324]
 3290 0c4e 2046     		mov	r0, r4
 3291 0c50 FFF7FEFF 		bl	buffer_append_float32_auto
 3292              	.LVL315:
 3293              		.loc 1 500 0
 3294 0c54 95ED520A 		vldr.32	s0, [r5, #328]
 3295 0c58 3146     		mov	r1, r6
 3296 0c5a 2046     		mov	r0, r4
 3297 0c5c FFF7FEFF 		bl	buffer_append_float32_auto
 3298              	.LVL316:
 3299              		.loc 1 502 0
 3300 0c60 3246     		mov	r2, r6
 3301 0c62 D5F84C11 		ldr	r1, [r5, #332]
 3302 0c66 2046     		mov	r0, r4
 3303 0c68 FFF7FEFF 		bl	buffer_append_int32
 3304              	.LVL317:
 3305              		.loc 1 503 0
 3306 0c6c 3146     		mov	r1, r6
ARM GAS  /var/folders/sv/kgmgr77579zbf78p2zlhkdfr0000gn/T//ccMuP6SP.s 			page 59


 3307 0c6e 95ED540A 		vldr.32	s0, [r5, #336]
 3308 0c72 03E0     		b	.L212
 3309              	.L213:
 3310              		.align	2
 3311              	.L211:
 3312 0c74 00000000 		.word	.LANCHOR15
 3313 0c78 00000000 		.word	.LANCHOR8
 3314              	.L212:
 3315 0c7c 2046     		mov	r0, r4
 3316 0c7e FFF7FEFF 		bl	buffer_append_float32_auto
 3317              	.LVL318:
 3318              		.loc 1 504 0
 3319 0c82 95ED550A 		vldr.32	s0, [r5, #340]
 3320 0c86 3146     		mov	r1, r6
 3321 0c88 2046     		mov	r0, r4
 3322 0c8a FFF7FEFF 		bl	buffer_append_float32_auto
 3323              	.LVL319:
 3324              		.loc 1 505 0
 3325 0c8e 3246     		mov	r2, r6
 3326 0c90 D5F85811 		ldr	r1, [r5, #344]
 3327 0c94 2046     		mov	r0, r4
 3328 0c96 FFF7FEFF 		bl	buffer_append_uint32
 3329              	.LVL320:
 3330              		.loc 1 506 0
 3331 0c9a 029B     		ldr	r3, [sp, #8]
 3332 0c9c 95F85C21 		ldrb	r2, [r5, #348]	@ zero_extendqisi2
 3333 0ca0 E254     		strb	r2, [r4, r3]
 3334              		.loc 1 507 0
 3335 0ca2 E218     		adds	r2, r4, r3
 3336 0ca4 95F85D01 		ldrb	r0, [r5, #349]	@ zero_extendqisi2
 3337 0ca8 5070     		strb	r0, [r2, #1]
 3338              		.loc 1 509 0
 3339 0caa 0433     		adds	r3, r3, #4
 3340              		.loc 1 510 0
 3341 0cac 95ED590A 		vldr.32	s0, [r5, #356]
 3342              		.loc 1 508 0
 3343 0cb0 95F85E71 		ldrb	r7, [r5, #350]	@ zero_extendqisi2
 3344              		.loc 1 509 0
 3345 0cb4 0293     		str	r3, [sp, #8]
 3346              		.loc 1 510 0
 3347 0cb6 3146     		mov	r1, r6
 3348              		.loc 1 509 0
 3349 0cb8 D5F86031 		ldr	r3, [r5, #352]
 3350 0cbc D370     		strb	r3, [r2, #3]
 3351              		.loc 1 510 0
 3352 0cbe 2046     		mov	r0, r4
 3353              		.loc 1 508 0
 3354 0cc0 9770     		strb	r7, [r2, #2]
 3355              		.loc 1 510 0
 3356 0cc2 FFF7FEFF 		bl	buffer_append_float32_auto
 3357              	.LVL321:
 3358              		.loc 1 511 0
 3359 0cc6 3146     		mov	r1, r6
 3360 0cc8 95ED5A0A 		vldr.32	s0, [r5, #360]
 3361 0ccc 2046     		mov	r0, r4
 3362 0cce FFF7FEFF 		bl	buffer_append_float32_auto
 3363              	.LVL322:
ARM GAS  /var/folders/sv/kgmgr77579zbf78p2zlhkdfr0000gn/T//ccMuP6SP.s 			page 60


 3364              		.loc 1 512 0
 3365 0cd2 3146     		mov	r1, r6
 3366 0cd4 95ED5B0A 		vldr.32	s0, [r5, #364]
 3367 0cd8 2046     		mov	r0, r4
 3368 0cda FFF7FEFF 		bl	buffer_append_float32_auto
 3369              	.LVL323:
 3370              		.loc 1 513 0
 3371 0cde 3146     		mov	r1, r6
 3372 0ce0 95ED5C0A 		vldr.32	s0, [r5, #368]
 3373 0ce4 2046     		mov	r0, r4
 3374 0ce6 FFF7FEFF 		bl	buffer_append_float32_auto
 3375              	.LVL324:
 3376              	.LBB126:
 3377              	.LBB127:
 3378              		.loc 1 90 0
 3379 0cea 044B     		ldr	r3, .L214
 3380              	.LBE127:
 3381              	.LBE126:
 3382              		.loc 1 515 0
 3383 0cec 0299     		ldr	r1, [sp, #8]
 3384              	.LVL325:
 3385              	.LBB129:
 3386              	.LBB128:
 3387              		.loc 1 90 0
 3388 0cee 1B68     		ldr	r3, [r3]
 3389 0cf0 002B     		cmp	r3, #0
 3390 0cf2 7FF44CAA 		bne	.L191
 3391 0cf6 FFF704BA 		b	.L77
 3392              	.L215:
 3393 0cfa 00BF     		.align	2
 3394              	.L214:
 3395 0cfc 00000000 		.word	.LANCHOR10
 3396              	.LVL326:
 3397              	.L93:
 3398              	.LBE128:
 3399              	.LBE129:
 3400              		.loc 1 248 0
 3401 0d00 FFF7FEFF 		bl	mc_interface_get_configuration
 3402              	.LVL327:
 3403 0d04 E54D     		ldr	r5, .L216
 3404              	.LVL328:
 3405              		.loc 1 254 0
 3406 0d06 36AE     		add	r6, sp, #216
 3407              		.loc 1 248 0
 3408 0d08 0146     		mov	r1, r0
 3409 0d0a 4FF4BA72 		mov	r2, #372
 3410 0d0e 2846     		mov	r0, r5
 3411 0d10 FFF7FEFF 		bl	memcpy
 3412              	.LVL329:
 3413              		.loc 1 254 0
 3414 0d14 0423     		movs	r3, #4
 3415 0d16 46F8D03D 		str	r3, [r6, #-208]!
 3416              		.loc 1 251 0
 3417 0d1a 7978     		ldrb	r1, [r7, #1]	@ zero_extendqisi2
 3418              		.loc 1 252 0
 3419 0d1c 97F802E0 		ldrb	lr, [r7, #2]	@ zero_extendqisi2
 3420              		.loc 1 253 0
ARM GAS  /var/folders/sv/kgmgr77579zbf78p2zlhkdfr0000gn/T//ccMuP6SP.s 			page 61


 3421 0d20 FA78     		ldrb	r2, [r7, #3]	@ zero_extendqisi2
 3422              		.loc 1 254 0
 3423 0d22 3B79     		ldrb	r3, [r7, #4]	@ zero_extendqisi2
 3424              		.loc 1 251 0
 3425 0d24 2970     		strb	r1, [r5]
 3426              		.loc 1 256 0
 3427 0d26 2046     		mov	r0, r4
 3428 0d28 3146     		mov	r1, r6
 3429              		.loc 1 252 0
 3430 0d2a 85F801E0 		strb	lr, [r5, #1]
 3431              		.loc 1 253 0
 3432 0d2e AA70     		strb	r2, [r5, #2]
 3433              		.loc 1 254 0
 3434 0d30 EB70     		strb	r3, [r5, #3]
 3435              		.loc 1 256 0
 3436 0d32 FFF7FEFF 		bl	buffer_get_float32_auto
 3437              	.LVL330:
 3438              		.loc 1 257 0
 3439 0d36 3146     		mov	r1, r6
 3440 0d38 2046     		mov	r0, r4
 3441              		.loc 1 256 0
 3442 0d3a 85ED010A 		vstr.32	s0, [r5, #4]
 3443              		.loc 1 257 0
 3444 0d3e FFF7FEFF 		bl	buffer_get_float32_auto
 3445              	.LVL331:
 3446              		.loc 1 258 0
 3447 0d42 3146     		mov	r1, r6
 3448 0d44 2046     		mov	r0, r4
 3449              		.loc 1 257 0
 3450 0d46 85ED020A 		vstr.32	s0, [r5, #8]
 3451              		.loc 1 258 0
 3452 0d4a FFF7FEFF 		bl	buffer_get_float32_auto
 3453              	.LVL332:
 3454              		.loc 1 259 0
 3455 0d4e 3146     		mov	r1, r6
 3456 0d50 2046     		mov	r0, r4
 3457              		.loc 1 258 0
 3458 0d52 85ED030A 		vstr.32	s0, [r5, #12]
 3459              		.loc 1 259 0
 3460 0d56 FFF7FEFF 		bl	buffer_get_float32_auto
 3461              	.LVL333:
 3462              		.loc 1 260 0
 3463 0d5a 3146     		mov	r1, r6
 3464 0d5c 2046     		mov	r0, r4
 3465              		.loc 1 259 0
 3466 0d5e 85ED040A 		vstr.32	s0, [r5, #16]
 3467              		.loc 1 260 0
 3468 0d62 FFF7FEFF 		bl	buffer_get_float32_auto
 3469              	.LVL334:
 3470              		.loc 1 261 0
 3471 0d66 3146     		mov	r1, r6
 3472 0d68 2046     		mov	r0, r4
 3473              		.loc 1 260 0
 3474 0d6a 85ED050A 		vstr.32	s0, [r5, #20]
 3475              		.loc 1 261 0
 3476 0d6e FFF7FEFF 		bl	buffer_get_float32_auto
 3477              	.LVL335:
ARM GAS  /var/folders/sv/kgmgr77579zbf78p2zlhkdfr0000gn/T//ccMuP6SP.s 			page 62


 3478              		.loc 1 262 0
 3479 0d72 3146     		mov	r1, r6
 3480 0d74 2046     		mov	r0, r4
 3481              		.loc 1 261 0
 3482 0d76 85ED060A 		vstr.32	s0, [r5, #24]
 3483              		.loc 1 262 0
 3484 0d7a FFF7FEFF 		bl	buffer_get_float32_auto
 3485              	.LVL336:
 3486              		.loc 1 263 0
 3487 0d7e 3146     		mov	r1, r6
 3488 0d80 2046     		mov	r0, r4
 3489              		.loc 1 262 0
 3490 0d82 85ED070A 		vstr.32	s0, [r5, #28]
 3491              		.loc 1 263 0
 3492 0d86 FFF7FEFF 		bl	buffer_get_float32_auto
 3493              	.LVL337:
 3494              		.loc 1 264 0
 3495 0d8a 3146     		mov	r1, r6
 3496 0d8c 2046     		mov	r0, r4
 3497              		.loc 1 263 0
 3498 0d8e 85ED080A 		vstr.32	s0, [r5, #32]
 3499              		.loc 1 264 0
 3500 0d92 FFF7FEFF 		bl	buffer_get_float32_auto
 3501              	.LVL338:
 3502              		.loc 1 265 0
 3503 0d96 3146     		mov	r1, r6
 3504 0d98 2046     		mov	r0, r4
 3505              		.loc 1 264 0
 3506 0d9a 85ED090A 		vstr.32	s0, [r5, #36]
 3507              		.loc 1 265 0
 3508 0d9e FFF7FEFF 		bl	buffer_get_float32_auto
 3509              	.LVL339:
 3510              		.loc 1 266 0
 3511 0da2 3146     		mov	r1, r6
 3512 0da4 2046     		mov	r0, r4
 3513              		.loc 1 265 0
 3514 0da6 85ED0A0A 		vstr.32	s0, [r5, #40]
 3515              		.loc 1 266 0
 3516 0daa FFF7FEFF 		bl	buffer_get_float32_auto
 3517              	.LVL340:
 3518              		.loc 1 267 0
 3519 0dae 3146     		mov	r1, r6
 3520 0db0 2046     		mov	r0, r4
 3521              		.loc 1 266 0
 3522 0db2 85ED0B0A 		vstr.32	s0, [r5, #44]
 3523              		.loc 1 267 0
 3524 0db6 FFF7FEFF 		bl	buffer_get_float32_auto
 3525              	.LVL341:
 3526              		.loc 1 268 0
 3527 0dba 3146     		mov	r1, r6
 3528 0dbc 2046     		mov	r0, r4
 3529              		.loc 1 267 0
 3530 0dbe 85ED0C0A 		vstr.32	s0, [r5, #48]
 3531              		.loc 1 268 0
 3532 0dc2 FFF7FEFF 		bl	buffer_get_float32_auto
 3533              	.LVL342:
 3534              		.loc 1 269 0
ARM GAS  /var/folders/sv/kgmgr77579zbf78p2zlhkdfr0000gn/T//ccMuP6SP.s 			page 63


 3535 0dc6 3146     		mov	r1, r6
 3536 0dc8 2046     		mov	r0, r4
 3537              		.loc 1 268 0
 3538 0dca 85ED0D0A 		vstr.32	s0, [r5, #52]
 3539              		.loc 1 269 0
 3540 0dce FFF7FEFF 		bl	buffer_get_float32_auto
 3541              	.LVL343:
 3542              		.loc 1 270 0
 3543 0dd2 029B     		ldr	r3, [sp, #8]
 3544              		.loc 1 269 0
 3545 0dd4 85ED0E0A 		vstr.32	s0, [r5, #56]
 3546              		.loc 1 270 0
 3547 0dd8 E25C     		ldrb	r2, [r4, r3]	@ zero_extendqisi2
 3548 0dda 0032     		adds	r2, r2, #0
 3549 0ddc 18BF     		it	ne
 3550 0dde 0122     		movne	r2, #1
 3551 0de0 0133     		adds	r3, r3, #1
 3552              		.loc 1 271 0
 3553 0de2 3146     		mov	r1, r6
 3554 0de4 2046     		mov	r0, r4
 3555              		.loc 1 270 0
 3556 0de6 85F83C20 		strb	r2, [r5, #60]
 3557 0dea 0293     		str	r3, [sp, #8]
 3558              		.loc 1 271 0
 3559 0dec FFF7FEFF 		bl	buffer_get_float32_auto
 3560              	.LVL344:
 3561              		.loc 1 272 0
 3562 0df0 3146     		mov	r1, r6
 3563 0df2 2046     		mov	r0, r4
 3564              		.loc 1 271 0
 3565 0df4 85ED100A 		vstr.32	s0, [r5, #64]
 3566              		.loc 1 272 0
 3567 0df8 FFF7FEFF 		bl	buffer_get_float32_auto
 3568              	.LVL345:
 3569              		.loc 1 273 0
 3570 0dfc 3146     		mov	r1, r6
 3571 0dfe 2046     		mov	r0, r4
 3572              		.loc 1 272 0
 3573 0e00 85ED110A 		vstr.32	s0, [r5, #68]
 3574              		.loc 1 273 0
 3575 0e04 FFF7FEFF 		bl	buffer_get_float32_auto
 3576              	.LVL346:
 3577              		.loc 1 274 0
 3578 0e08 3146     		mov	r1, r6
 3579 0e0a 2046     		mov	r0, r4
 3580              		.loc 1 273 0
 3581 0e0c 85ED120A 		vstr.32	s0, [r5, #72]
 3582              		.loc 1 274 0
 3583 0e10 FFF7FEFF 		bl	buffer_get_float32_auto
 3584              	.LVL347:
 3585              		.loc 1 275 0
 3586 0e14 3146     		mov	r1, r6
 3587 0e16 2046     		mov	r0, r4
 3588              		.loc 1 274 0
 3589 0e18 85ED130A 		vstr.32	s0, [r5, #76]
 3590              		.loc 1 275 0
 3591 0e1c FFF7FEFF 		bl	buffer_get_float32_auto
ARM GAS  /var/folders/sv/kgmgr77579zbf78p2zlhkdfr0000gn/T//ccMuP6SP.s 			page 64


 3592              	.LVL348:
 3593              		.loc 1 276 0
 3594 0e20 3146     		mov	r1, r6
 3595 0e22 2046     		mov	r0, r4
 3596              		.loc 1 275 0
 3597 0e24 85ED140A 		vstr.32	s0, [r5, #80]
 3598              		.loc 1 276 0
 3599 0e28 FFF7FEFF 		bl	buffer_get_float32_auto
 3600              	.LVL349:
 3601              		.loc 1 277 0
 3602 0e2c 3146     		mov	r1, r6
 3603 0e2e 2046     		mov	r0, r4
 3604              		.loc 1 276 0
 3605 0e30 85ED150A 		vstr.32	s0, [r5, #84]
 3606              		.loc 1 277 0
 3607 0e34 FFF7FEFF 		bl	buffer_get_float32_auto
 3608              	.LVL350:
 3609              		.loc 1 278 0
 3610 0e38 3146     		mov	r1, r6
 3611 0e3a 2046     		mov	r0, r4
 3612              		.loc 1 277 0
 3613 0e3c 85ED160A 		vstr.32	s0, [r5, #88]
 3614              		.loc 1 278 0
 3615 0e40 FFF7FEFF 		bl	buffer_get_float32_auto
 3616              	.LVL351:
 3617              		.loc 1 279 0
 3618 0e44 3146     		mov	r1, r6
 3619 0e46 2046     		mov	r0, r4
 3620              		.loc 1 278 0
 3621 0e48 85ED170A 		vstr.32	s0, [r5, #92]
 3622              		.loc 1 279 0
 3623 0e4c FFF7FEFF 		bl	buffer_get_float32_auto
 3624              	.LVL352:
 3625              		.loc 1 283 0
 3626 0e50 E868     		ldr	r0, [r5, #12]	@ float
 3627              		.loc 1 281 0
 3628 0e52 6A68     		ldr	r2, [r5, #4]	@ float
 3629              		.loc 1 282 0
 3630 0e54 AB68     		ldr	r3, [r5, #8]	@ float
 3631              		.loc 1 284 0
 3632 0e56 2F69     		ldr	r7, [r5, #16]	@ float
 3633              		.loc 1 283 0
 3634 0e58 E866     		str	r0, [r5, #108]	@ float
 3635              		.loc 1 288 0
 3636 0e5a 3146     		mov	r1, r6
 3637 0e5c 2046     		mov	r0, r4
 3638              		.loc 1 281 0
 3639 0e5e 6A66     		str	r2, [r5, #100]	@ float
 3640              		.loc 1 285 0
 3641 0e60 6A67     		str	r2, [r5, #116]	@ float
 3642              		.loc 1 282 0
 3643 0e62 AB66     		str	r3, [r5, #104]	@ float
 3644              		.loc 1 286 0
 3645 0e64 AB67     		str	r3, [r5, #120]	@ float
 3646              		.loc 1 284 0
 3647 0e66 2F67     		str	r7, [r5, #112]	@ float
 3648              		.loc 1 279 0
ARM GAS  /var/folders/sv/kgmgr77579zbf78p2zlhkdfr0000gn/T//ccMuP6SP.s 			page 65


 3649 0e68 85ED180A 		vstr.32	s0, [r5, #96]
 3650              		.loc 1 288 0
 3651 0e6c FFF7FEFF 		bl	buffer_get_float32_auto
 3652              	.LVL353:
 3653              		.loc 1 289 0
 3654 0e70 3146     		mov	r1, r6
 3655 0e72 2046     		mov	r0, r4
 3656              		.loc 1 288 0
 3657 0e74 85ED1F0A 		vstr.32	s0, [r5, #124]
 3658              		.loc 1 289 0
 3659 0e78 FFF7FEFF 		bl	buffer_get_float32_auto
 3660              	.LVL354:
 3661              		.loc 1 290 0
 3662 0e7c 3146     		mov	r1, r6
 3663 0e7e 2046     		mov	r0, r4
 3664              		.loc 1 289 0
 3665 0e80 85ED200A 		vstr.32	s0, [r5, #128]
 3666              		.loc 1 290 0
 3667 0e84 FFF7FEFF 		bl	buffer_get_float32_auto
 3668              	.LVL355:
 3669              		.loc 1 291 0
 3670 0e88 3146     		mov	r1, r6
 3671 0e8a 2046     		mov	r0, r4
 3672              		.loc 1 290 0
 3673 0e8c 85ED210A 		vstr.32	s0, [r5, #132]
 3674              		.loc 1 291 0
 3675 0e90 FFF7FEFF 		bl	buffer_get_float32_auto
 3676              	.LVL356:
 3677              		.loc 1 292 0
 3678 0e94 3146     		mov	r1, r6
 3679 0e96 2046     		mov	r0, r4
 3680              		.loc 1 291 0
 3681 0e98 85ED220A 		vstr.32	s0, [r5, #136]
 3682              		.loc 1 292 0
 3683 0e9c FFF7FEFF 		bl	buffer_get_float32_auto
 3684              	.LVL357:
 3685              		.loc 1 293 0
 3686 0ea0 3146     		mov	r1, r6
 3687 0ea2 2046     		mov	r0, r4
 3688              		.loc 1 292 0
 3689 0ea4 85ED230A 		vstr.32	s0, [r5, #140]
 3690              		.loc 1 293 0
 3691 0ea8 FFF7FEFF 		bl	buffer_get_float32_auto
 3692              	.LVL358:
 3693              		.loc 1 294 0
 3694 0eac 3146     		mov	r1, r6
 3695 0eae 2046     		mov	r0, r4
 3696              		.loc 1 293 0
 3697 0eb0 85ED240A 		vstr.32	s0, [r5, #144]
 3698              		.loc 1 294 0
 3699 0eb4 FFF7FEFF 		bl	buffer_get_float32_auto
 3700              	.LVL359:
 3701              		.loc 1 296 0
 3702 0eb8 029B     		ldr	r3, [sp, #8]
 3703              		.loc 1 294 0
 3704 0eba 85ED250A 		vstr.32	s0, [r5, #148]
 3705              		.loc 1 296 0
ARM GAS  /var/folders/sv/kgmgr77579zbf78p2zlhkdfr0000gn/T//ccMuP6SP.s 			page 66


 3706 0ebe E118     		adds	r1, r4, r3
 3707 0ec0 05F19802 		add	r2, r5, #152
 3708 0ec4 0868     		ldr	r0, [r1]	@ unaligned
 3709 0ec6 4968     		ldr	r1, [r1, #4]	@ unaligned
 3710              		.loc 1 297 0
 3711 0ec8 0833     		adds	r3, r3, #8
 3712              		.loc 1 296 0
 3713 0eca 03C2     		stmia	r2!, {r0, r1}
 3714              		.loc 1 298 0
 3715 0ecc 3146     		mov	r1, r6
 3716 0ece 2046     		mov	r0, r4
 3717              		.loc 1 297 0
 3718 0ed0 0293     		str	r3, [sp, #8]
 3719              		.loc 1 298 0
 3720 0ed2 FFF7FEFF 		bl	buffer_get_float32_auto
 3721              	.LVL360:
 3722              		.loc 1 300 0
 3723 0ed6 3146     		mov	r1, r6
 3724 0ed8 2046     		mov	r0, r4
 3725              		.loc 1 298 0
 3726 0eda 85ED280A 		vstr.32	s0, [r5, #160]
 3727              		.loc 1 300 0
 3728 0ede FFF7FEFF 		bl	buffer_get_float32_auto
 3729              	.LVL361:
 3730              		.loc 1 301 0
 3731 0ee2 3146     		mov	r1, r6
 3732 0ee4 2046     		mov	r0, r4
 3733              		.loc 1 300 0
 3734 0ee6 85ED290A 		vstr.32	s0, [r5, #164]
 3735              		.loc 1 301 0
 3736 0eea FFF7FEFF 		bl	buffer_get_float32_auto
 3737              	.LVL362:
 3738              		.loc 1 302 0
 3739 0eee 3146     		mov	r1, r6
 3740 0ef0 2046     		mov	r0, r4
 3741              		.loc 1 301 0
 3742 0ef2 85ED2A0A 		vstr.32	s0, [r5, #168]
 3743              		.loc 1 302 0
 3744 0ef6 FFF7FEFF 		bl	buffer_get_float32_auto
 3745              	.LVL363:
 3746              		.loc 1 303 0
 3747 0efa 3146     		mov	r1, r6
 3748 0efc 2046     		mov	r0, r4
 3749              		.loc 1 302 0
 3750 0efe 85ED2B0A 		vstr.32	s0, [r5, #172]
 3751              		.loc 1 303 0
 3752 0f02 FFF7FEFF 		bl	buffer_get_float32_auto
 3753              	.LVL364:
 3754              		.loc 1 304 0
 3755 0f06 029B     		ldr	r3, [sp, #8]
 3756              		.loc 1 303 0
 3757 0f08 85ED2C0A 		vstr.32	s0, [r5, #176]
 3758              		.loc 1 304 0
 3759 0f0c E25C     		ldrb	r2, [r4, r3]	@ zero_extendqisi2
 3760 0f0e 0032     		adds	r2, r2, #0
 3761 0f10 18BF     		it	ne
 3762 0f12 0122     		movne	r2, #1
ARM GAS  /var/folders/sv/kgmgr77579zbf78p2zlhkdfr0000gn/T//ccMuP6SP.s 			page 67


 3763 0f14 0133     		adds	r3, r3, #1
 3764              		.loc 1 305 0
 3765 0f16 3146     		mov	r1, r6
 3766 0f18 2046     		mov	r0, r4
 3767              		.loc 1 304 0
 3768 0f1a 85F8B820 		strb	r2, [r5, #184]
 3769 0f1e 0293     		str	r3, [sp, #8]
 3770              		.loc 1 305 0
 3771 0f20 FFF7FEFF 		bl	buffer_get_float32_auto
 3772              	.LVL365:
 3773              		.loc 1 306 0
 3774 0f24 3146     		mov	r1, r6
 3775 0f26 2046     		mov	r0, r4
 3776              		.loc 1 305 0
 3777 0f28 85ED2D0A 		vstr.32	s0, [r5, #180]
 3778              		.loc 1 306 0
 3779 0f2c FFF7FEFF 		bl	buffer_get_float32_auto
 3780              	.LVL366:
 3781              		.loc 1 307 0
 3782 0f30 029B     		ldr	r3, [sp, #8]
 3783              		.loc 1 306 0
 3784 0f32 85ED2F0A 		vstr.32	s0, [r5, #188]
 3785              		.loc 1 307 0
 3786 0f36 E25C     		ldrb	r2, [r4, r3]	@ zero_extendqisi2
 3787 0f38 85F8F820 		strb	r2, [r5, #248]
 3788 0f3c 0133     		adds	r3, r3, #1
 3789              		.loc 1 308 0
 3790 0f3e 3146     		mov	r1, r6
 3791 0f40 2046     		mov	r0, r4
 3792              		.loc 1 307 0
 3793 0f42 0293     		str	r3, [sp, #8]
 3794              		.loc 1 308 0
 3795 0f44 FFF7FEFF 		bl	buffer_get_float32_auto
 3796              	.LVL367:
 3797              		.loc 1 309 0
 3798 0f48 3146     		mov	r1, r6
 3799 0f4a 2046     		mov	r0, r4
 3800              		.loc 1 308 0
 3801 0f4c 85ED350A 		vstr.32	s0, [r5, #212]
 3802              		.loc 1 309 0
 3803 0f50 FFF7FEFF 		bl	buffer_get_float32_auto
 3804              	.LVL368:
 3805              		.loc 1 310 0
 3806 0f54 3146     		mov	r1, r6
 3807 0f56 2046     		mov	r0, r4
 3808              		.loc 1 309 0
 3809 0f58 85ED360A 		vstr.32	s0, [r5, #216]
 3810              		.loc 1 310 0
 3811 0f5c FFF7FEFF 		bl	buffer_get_float32_auto
 3812              	.LVL369:
 3813              		.loc 1 311 0
 3814 0f60 3146     		mov	r1, r6
 3815 0f62 2046     		mov	r0, r4
 3816              		.loc 1 310 0
 3817 0f64 85ED300A 		vstr.32	s0, [r5, #192]
 3818              		.loc 1 311 0
 3819 0f68 FFF7FEFF 		bl	buffer_get_float32_auto
ARM GAS  /var/folders/sv/kgmgr77579zbf78p2zlhkdfr0000gn/T//ccMuP6SP.s 			page 68


 3820              	.LVL370:
 3821              		.loc 1 312 0
 3822 0f6c 3146     		mov	r1, r6
 3823 0f6e 2046     		mov	r0, r4
 3824              		.loc 1 311 0
 3825 0f70 85ED310A 		vstr.32	s0, [r5, #196]
 3826              		.loc 1 312 0
 3827 0f74 FFF7FEFF 		bl	buffer_get_float32_auto
 3828              	.LVL371:
 3829              		.loc 1 313 0
 3830 0f78 3146     		mov	r1, r6
 3831 0f7a 2046     		mov	r0, r4
 3832              		.loc 1 312 0
 3833 0f7c 85ED320A 		vstr.32	s0, [r5, #200]
 3834              		.loc 1 313 0
 3835 0f80 FFF7FEFF 		bl	buffer_get_float32_auto
 3836              	.LVL372:
 3837              		.loc 1 314 0
 3838 0f84 3146     		mov	r1, r6
 3839 0f86 2046     		mov	r0, r4
 3840              		.loc 1 313 0
 3841 0f88 85ED330A 		vstr.32	s0, [r5, #204]
 3842              		.loc 1 314 0
 3843 0f8c FFF7FEFF 		bl	buffer_get_float32_auto
 3844              	.LVL373:
 3845              		.loc 1 315 0
 3846 0f90 3146     		mov	r1, r6
 3847 0f92 2046     		mov	r0, r4
 3848              		.loc 1 314 0
 3849 0f94 85ED340A 		vstr.32	s0, [r5, #208]
 3850              		.loc 1 315 0
 3851 0f98 FFF7FEFF 		bl	buffer_get_float32_auto
 3852              	.LVL374:
 3853              		.loc 1 316 0
 3854 0f9c 3146     		mov	r1, r6
 3855 0f9e 2046     		mov	r0, r4
 3856              		.loc 1 315 0
 3857 0fa0 85ED370A 		vstr.32	s0, [r5, #220]
 3858              		.loc 1 316 0
 3859 0fa4 FFF7FEFF 		bl	buffer_get_float32_auto
 3860              	.LVL375:
 3861              		.loc 1 317 0
 3862 0fa8 3146     		mov	r1, r6
 3863 0faa 2046     		mov	r0, r4
 3864              		.loc 1 316 0
 3865 0fac 85ED380A 		vstr.32	s0, [r5, #224]
 3866              		.loc 1 317 0
 3867 0fb0 FFF7FEFF 		bl	buffer_get_float32_auto
 3868              	.LVL376:
 3869              		.loc 1 318 0
 3870 0fb4 3146     		mov	r1, r6
 3871 0fb6 2046     		mov	r0, r4
 3872              		.loc 1 317 0
 3873 0fb8 85ED390A 		vstr.32	s0, [r5, #228]
 3874              		.loc 1 318 0
 3875 0fbc FFF7FEFF 		bl	buffer_get_float32_auto
 3876              	.LVL377:
ARM GAS  /var/folders/sv/kgmgr77579zbf78p2zlhkdfr0000gn/T//ccMuP6SP.s 			page 69


 3877              		.loc 1 319 0
 3878 0fc0 3146     		mov	r1, r6
 3879 0fc2 2046     		mov	r0, r4
 3880              		.loc 1 318 0
 3881 0fc4 85ED3A0A 		vstr.32	s0, [r5, #232]
 3882              		.loc 1 319 0
 3883 0fc8 FFF7FEFF 		bl	buffer_get_float32_auto
 3884              	.LVL378:
 3885              		.loc 1 320 0
 3886 0fcc 3146     		mov	r1, r6
 3887 0fce 2046     		mov	r0, r4
 3888              		.loc 1 319 0
 3889 0fd0 85ED3B0A 		vstr.32	s0, [r5, #236]
 3890              		.loc 1 320 0
 3891 0fd4 FFF7FEFF 		bl	buffer_get_float32_auto
 3892              	.LVL379:
 3893              		.loc 1 321 0
 3894 0fd8 3146     		mov	r1, r6
 3895 0fda 2046     		mov	r0, r4
 3896              		.loc 1 320 0
 3897 0fdc 85ED3C0A 		vstr.32	s0, [r5, #240]
 3898              		.loc 1 321 0
 3899 0fe0 FFF7FEFF 		bl	buffer_get_float32_auto
 3900              	.LVL380:
 3901              		.loc 1 322 0
 3902 0fe4 029B     		ldr	r3, [sp, #8]
 3903              		.loc 1 321 0
 3904 0fe6 85ED3D0A 		vstr.32	s0, [r5, #244]
 3905              		.loc 1 322 0
 3906 0fea E218     		adds	r2, r4, r3
 3907              		.loc 1 324 0
 3908 0fec 3146     		mov	r1, r6
 3909              		.loc 1 322 0
 3910 0fee 1768     		ldr	r7, [r2]	@ unaligned
 3911 0ff0 5268     		ldr	r2, [r2, #4]	@ unaligned
 3912 0ff2 C5F8FD20 		str	r2, [r5, #253]	@ unaligned
 3913              		.loc 1 323 0
 3914 0ff6 0833     		adds	r3, r3, #8
 3915              		.loc 1 324 0
 3916 0ff8 2046     		mov	r0, r4
 3917              		.loc 1 322 0
 3918 0ffa C5F8F970 		str	r7, [r5, #249]	@ unaligned
 3919              		.loc 1 323 0
 3920 0ffe 0293     		str	r3, [sp, #8]
 3921              		.loc 1 324 0
 3922 1000 FFF7FEFF 		bl	buffer_get_float32_auto
 3923              	.LVL381:
 3924              		.loc 1 325 0
 3925 1004 029B     		ldr	r3, [sp, #8]
 3926              		.loc 1 324 0
 3927 1006 85ED410A 		vstr.32	s0, [r5, #260]
 3928              		.loc 1 325 0
 3929 100a E25C     		ldrb	r2, [r4, r3]	@ zero_extendqisi2
 3930 100c 0032     		adds	r2, r2, #0
 3931 100e 03F10101 		add	r1, r3, #1
 3932 1012 18BF     		it	ne
 3933 1014 0122     		movne	r2, #1
ARM GAS  /var/folders/sv/kgmgr77579zbf78p2zlhkdfr0000gn/T//ccMuP6SP.s 			page 70


 3934 1016 85F80821 		strb	r2, [r5, #264]
 3935              		.loc 1 326 0
 3936 101a 625C     		ldrb	r2, [r4, r1]	@ zero_extendqisi2
 3937 101c 0032     		adds	r2, r2, #0
 3938 101e 18BF     		it	ne
 3939 1020 0122     		movne	r2, #1
 3940 1022 0233     		adds	r3, r3, #2
 3941              		.loc 1 327 0
 3942 1024 3146     		mov	r1, r6
 3943 1026 2046     		mov	r0, r4
 3944              		.loc 1 326 0
 3945 1028 85F80921 		strb	r2, [r5, #265]
 3946 102c 0293     		str	r3, [sp, #8]
 3947              		.loc 1 327 0
 3948 102e FFF7FEFF 		bl	buffer_get_float32_auto
 3949              	.LVL382:
 3950              		.loc 1 328 0
 3951 1032 029B     		ldr	r3, [sp, #8]
 3952              		.loc 1 327 0
 3953 1034 85ED430A 		vstr.32	s0, [r5, #268]
 3954              		.loc 1 328 0
 3955 1038 E25C     		ldrb	r2, [r4, r3]	@ zero_extendqisi2
 3956 103a 0032     		adds	r2, r2, #0
 3957 103c 18BF     		it	ne
 3958 103e 0122     		movne	r2, #1
 3959 1040 0133     		adds	r3, r3, #1
 3960              		.loc 1 329 0
 3961 1042 3146     		mov	r1, r6
 3962 1044 2046     		mov	r0, r4
 3963              		.loc 1 328 0
 3964 1046 85F81021 		strb	r2, [r5, #272]
 3965 104a 0293     		str	r3, [sp, #8]
 3966              		.loc 1 329 0
 3967 104c FFF7FEFF 		bl	buffer_get_float32_auto
 3968              	.LVL383:
 3969              		.loc 1 331 0
 3970 1050 3146     		mov	r1, r6
 3971 1052 2046     		mov	r0, r4
 3972              		.loc 1 329 0
 3973 1054 85ED450A 		vstr.32	s0, [r5, #276]
 3974              		.loc 1 331 0
 3975 1058 FFF7FEFF 		bl	buffer_get_float32_auto
 3976              	.LVL384:
 3977              		.loc 1 332 0
 3978 105c 3146     		mov	r1, r6
 3979 105e 2046     		mov	r0, r4
 3980              		.loc 1 331 0
 3981 1060 85ED460A 		vstr.32	s0, [r5, #280]
 3982              		.loc 1 332 0
 3983 1064 FFF7FEFF 		bl	buffer_get_float32_auto
 3984              	.LVL385:
 3985              		.loc 1 333 0
 3986 1068 3146     		mov	r1, r6
 3987 106a 2046     		mov	r0, r4
 3988              		.loc 1 332 0
 3989 106c 85ED470A 		vstr.32	s0, [r5, #284]
 3990              		.loc 1 333 0
ARM GAS  /var/folders/sv/kgmgr77579zbf78p2zlhkdfr0000gn/T//ccMuP6SP.s 			page 71


 3991 1070 FFF7FEFF 		bl	buffer_get_float32_auto
 3992              	.LVL386:
 3993              		.loc 1 334 0
 3994 1074 3146     		mov	r1, r6
 3995 1076 2046     		mov	r0, r4
 3996              		.loc 1 333 0
 3997 1078 85ED480A 		vstr.32	s0, [r5, #288]
 3998              		.loc 1 334 0
 3999 107c FFF7FEFF 		bl	buffer_get_float32_auto
 4000              	.LVL387:
 4001              		.loc 1 335 0
 4002 1080 029B     		ldr	r3, [sp, #8]
 4003              		.loc 1 334 0
 4004 1082 85ED490A 		vstr.32	s0, [r5, #292]
 4005              		.loc 1 335 0
 4006 1086 E25C     		ldrb	r2, [r4, r3]	@ zero_extendqisi2
 4007 1088 0032     		adds	r2, r2, #0
 4008 108a 18BF     		it	ne
 4009 108c 0122     		movne	r2, #1
 4010 108e 0133     		adds	r3, r3, #1
 4011              		.loc 1 337 0
 4012 1090 3146     		mov	r1, r6
 4013 1092 2046     		mov	r0, r4
 4014              		.loc 1 335 0
 4015 1094 85F82821 		strb	r2, [r5, #296]
 4016 1098 18E0     		b	.L217
 4017              	.L218:
 4018 109a 00BF     		.align	2
 4019              	.L216:
 4020 109c 00000000 		.word	.LANCHOR15
 4021 10a0 0000C842 		.word	1120403456
 4022 10a4 0000C8C2 		.word	3267887104
 4023 10a8 00001643 		.word	1125515264
 4024 10ac 00006442 		.word	1113849856
 4025 10b0 00504348 		.word	1212370944
 4026 10b4 005043C8 		.word	3359854592
 4027 10b8 CDCCCC3D 		.word	1036831949
 4028 10bc 3333733F 		.word	1064514355
 4029 10c0 00000000 		.word	0
 4030 10c4 0000DC42 		.word	1121714176
 4031 10c8 000020C2 		.word	3256877056
 4032              	.L217:
 4033 10cc 0293     		str	r3, [sp, #8]
 4034              		.loc 1 337 0
 4035 10ce FFF7FEFF 		bl	buffer_get_float32_auto
 4036              	.LVL388:
 4037              		.loc 1 338 0
 4038 10d2 3146     		mov	r1, r6
 4039 10d4 2046     		mov	r0, r4
 4040              		.loc 1 337 0
 4041 10d6 85ED4B0A 		vstr.32	s0, [r5, #300]
 4042              		.loc 1 338 0
 4043 10da FFF7FEFF 		bl	buffer_get_float32_auto
 4044              	.LVL389:
 4045              		.loc 1 339 0
 4046 10de 3146     		mov	r1, r6
 4047 10e0 2046     		mov	r0, r4
ARM GAS  /var/folders/sv/kgmgr77579zbf78p2zlhkdfr0000gn/T//ccMuP6SP.s 			page 72


 4048              		.loc 1 338 0
 4049 10e2 85ED4C0A 		vstr.32	s0, [r5, #304]
 4050              		.loc 1 339 0
 4051 10e6 FFF7FEFF 		bl	buffer_get_float32_auto
 4052              	.LVL390:
 4053              		.loc 1 340 0
 4054 10ea 3146     		mov	r1, r6
 4055 10ec 2046     		mov	r0, r4
 4056              		.loc 1 339 0
 4057 10ee 85ED4D0A 		vstr.32	s0, [r5, #308]
 4058              		.loc 1 340 0
 4059 10f2 FFF7FEFF 		bl	buffer_get_float32_auto
 4060              	.LVL391:
 4061              		.loc 1 342 0
 4062 10f6 3146     		mov	r1, r6
 4063 10f8 2046     		mov	r0, r4
 4064              		.loc 1 340 0
 4065 10fa 85ED4E0A 		vstr.32	s0, [r5, #312]
 4066              		.loc 1 342 0
 4067 10fe FFF7FEFF 		bl	buffer_get_float32_auto
 4068              	.LVL392:
 4069              		.loc 1 343 0
 4070 1102 3146     		mov	r1, r6
 4071 1104 2046     		mov	r0, r4
 4072              		.loc 1 342 0
 4073 1106 85ED4F0A 		vstr.32	s0, [r5, #316]
 4074              		.loc 1 343 0
 4075 110a FFF7FEFF 		bl	buffer_get_float32_auto
 4076              	.LVL393:
 4077              		.loc 1 344 0
 4078 110e 3146     		mov	r1, r6
 4079 1110 2046     		mov	r0, r4
 4080              		.loc 1 343 0
 4081 1112 85ED500A 		vstr.32	s0, [r5, #320]
 4082              		.loc 1 344 0
 4083 1116 FFF7FEFF 		bl	buffer_get_float32_auto
 4084              	.LVL394:
 4085              		.loc 1 345 0
 4086 111a 3146     		mov	r1, r6
 4087 111c 2046     		mov	r0, r4
 4088              		.loc 1 344 0
 4089 111e 85ED510A 		vstr.32	s0, [r5, #324]
 4090              		.loc 1 345 0
 4091 1122 FFF7FEFF 		bl	buffer_get_float32_auto
 4092              	.LVL395:
 4093              		.loc 1 347 0
 4094 1126 3146     		mov	r1, r6
 4095 1128 2046     		mov	r0, r4
 4096              		.loc 1 345 0
 4097 112a 85ED520A 		vstr.32	s0, [r5, #328]
 4098              		.loc 1 347 0
 4099 112e FFF7FEFF 		bl	buffer_get_int32
 4100              	.LVL396:
 4101              		.loc 1 348 0
 4102 1132 3146     		mov	r1, r6
 4103              		.loc 1 347 0
 4104 1134 C5F84C01 		str	r0, [r5, #332]
ARM GAS  /var/folders/sv/kgmgr77579zbf78p2zlhkdfr0000gn/T//ccMuP6SP.s 			page 73


 4105              		.loc 1 348 0
 4106 1138 2046     		mov	r0, r4
 4107 113a FFF7FEFF 		bl	buffer_get_float32_auto
 4108              	.LVL397:
 4109              		.loc 1 349 0
 4110 113e 3146     		mov	r1, r6
 4111 1140 2046     		mov	r0, r4
 4112              		.loc 1 348 0
 4113 1142 85ED540A 		vstr.32	s0, [r5, #336]
 4114              		.loc 1 349 0
 4115 1146 FFF7FEFF 		bl	buffer_get_float32_auto
 4116              	.LVL398:
 4117              		.loc 1 350 0
 4118 114a 3146     		mov	r1, r6
 4119 114c 2046     		mov	r0, r4
 4120              		.loc 1 349 0
 4121 114e 85ED550A 		vstr.32	s0, [r5, #340]
 4122              		.loc 1 350 0
 4123 1152 FFF7FEFF 		bl	buffer_get_uint32
 4124              	.LVL399:
 4125              		.loc 1 351 0
 4126 1156 029B     		ldr	r3, [sp, #8]
 4127              		.loc 1 350 0
 4128 1158 C5F85801 		str	r0, [r5, #344]
 4129              		.loc 1 351 0
 4130 115c E25C     		ldrb	r2, [r4, r3]	@ zero_extendqisi2
 4131 115e 85F85C21 		strb	r2, [r5, #348]
 4132 1162 5A1C     		adds	r2, r3, #1
 4133              		.loc 1 352 0
 4134 1164 991C     		adds	r1, r3, #2
 4135 1166 A25C     		ldrb	r2, [r4, r2]	@ zero_extendqisi2
 4136 1168 0032     		adds	r2, r2, #0
 4137 116a 18BF     		it	ne
 4138 116c 0122     		movne	r2, #1
 4139 116e 85F85D21 		strb	r2, [r5, #349]
 4140              		.loc 1 353 0
 4141 1172 625C     		ldrb	r2, [r4, r1]	@ zero_extendqisi2
 4142 1174 85F85E21 		strb	r2, [r5, #350]
 4143 1178 DA1C     		adds	r2, r3, #3
 4144              		.loc 1 355 0
 4145 117a 3146     		mov	r1, r6
 4146              		.loc 1 354 0
 4147 117c A25C     		ldrb	r2, [r4, r2]	@ zero_extendqisi2
 4148 117e C5F86021 		str	r2, [r5, #352]
 4149 1182 0433     		adds	r3, r3, #4
 4150              		.loc 1 355 0
 4151 1184 2046     		mov	r0, r4
 4152              		.loc 1 354 0
 4153 1186 0293     		str	r3, [sp, #8]
 4154              		.loc 1 355 0
 4155 1188 FFF7FEFF 		bl	buffer_get_float32_auto
 4156              	.LVL400:
 4157              		.loc 1 356 0
 4158 118c 3146     		mov	r1, r6
 4159 118e 2046     		mov	r0, r4
 4160              		.loc 1 355 0
 4161 1190 85ED590A 		vstr.32	s0, [r5, #356]
ARM GAS  /var/folders/sv/kgmgr77579zbf78p2zlhkdfr0000gn/T//ccMuP6SP.s 			page 74


 4162              		.loc 1 356 0
 4163 1194 FFF7FEFF 		bl	buffer_get_float32_auto
 4164              	.LVL401:
 4165              		.loc 1 357 0
 4166 1198 3146     		mov	r1, r6
 4167 119a 2046     		mov	r0, r4
 4168              		.loc 1 356 0
 4169 119c 85ED5A0A 		vstr.32	s0, [r5, #360]
 4170              		.loc 1 357 0
 4171 11a0 FFF7FEFF 		bl	buffer_get_float32_auto
 4172              	.LVL402:
 4173              		.loc 1 358 0
 4174 11a4 3146     		mov	r1, r6
 4175 11a6 2046     		mov	r0, r4
 4176              		.loc 1 357 0
 4177 11a8 85ED5B0A 		vstr.32	s0, [r5, #364]
 4178              		.loc 1 358 0
 4179 11ac FFF7FEFF 		bl	buffer_get_float32_auto
 4180              	.LVL403:
 4181              		.loc 1 363 0
 4182 11b0 5FED450A 		vldr.32	s1, .L216+4
 4183              		.loc 1 358 0
 4184 11b4 85ED5C0A 		vstr.32	s0, [r5, #368]
 4185              		.loc 1 363 0
 4186 11b8 281D     		adds	r0, r5, #4
 4187 11ba 1FED460A 		vldr.32	s0, .L216+8
 4188 11be FFF7FEFF 		bl	utils_truncate_number
 4189              	.LVL404:
 4190              		.loc 1 364 0
 4191 11c2 5FED490A 		vldr.32	s1, .L216+4
 4192 11c6 1FED490A 		vldr.32	s0, .L216+8
 4193 11ca 05F10800 		add	r0, r5, #8
 4194 11ce FFF7FEFF 		bl	utils_truncate_number
 4195              	.LVL405:
 4196              		.loc 1 367 0
 4197 11d2 5FED4D0A 		vldr.32	s1, .L216+4
 4198 11d6 1FED4D0A 		vldr.32	s0, .L216+8
 4199 11da 05F10C00 		add	r0, r5, #12
 4200 11de FFF7FEFF 		bl	utils_truncate_number
 4201              	.LVL406:
 4202              		.loc 1 368 0
 4203 11e2 5FED510A 		vldr.32	s1, .L216+4
 4204 11e6 1FED510A 		vldr.32	s0, .L216+8
 4205 11ea 05F11000 		add	r0, r5, #16
 4206 11ee FFF7FEFF 		bl	utils_truncate_number
 4207              	.LVL407:
 4208              		.loc 1 371 0
 4209 11f2 5FED530A 		vldr.32	s1, .L216+12
 4210 11f6 1FED4E0A 		vldr.32	s0, .L216+36
 4211 11fa 05F11400 		add	r0, r5, #20
 4212 11fe FFF7FEFF 		bl	utils_truncate_number
 4213              	.LVL408:
 4214              		.loc 1 374 0
 4215 1202 5FED560A 		vldr.32	s1, .L216+16
 4216 1206 B1EE080A 		vmov.f32	s0, #6.0e+0
 4217 120a 05F13000 		add	r0, r5, #48
 4218 120e FFF7FEFF 		bl	utils_truncate_number
ARM GAS  /var/folders/sv/kgmgr77579zbf78p2zlhkdfr0000gn/T//ccMuP6SP.s 			page 75


 4219              	.LVL409:
 4220              		.loc 1 375 0
 4221 1212 5FED5A0A 		vldr.32	s1, .L216+16
 4222 1216 B1EE080A 		vmov.f32	s0, #6.0e+0
 4223 121a 05F12C00 		add	r0, r5, #44
 4224 121e FFF7FEFF 		bl	utils_truncate_number
 4225              	.LVL410:
 4226              		.loc 1 378 0
 4227 1222 5FED5D0A 		vldr.32	s1, .L216+20
 4228 1226 1FED5D0A 		vldr.32	s0, .L216+24
 4229 122a 05F11C00 		add	r0, r5, #28
 4230 122e FFF7FEFF 		bl	utils_truncate_number
 4231              	.LVL411:
 4232              		.loc 1 379 0
 4233 1232 5FED610A 		vldr.32	s1, .L216+20
 4234 1236 1FED610A 		vldr.32	s0, .L216+24
 4235 123a 05F11800 		add	r0, r5, #24
 4236 123e FFF7FEFF 		bl	utils_truncate_number
 4237              	.LVL412:
 4238              		.loc 1 382 0
 4239 1242 5FED630A 		vldr.32	s1, .L216+28
 4240 1246 1FED620A 		vldr.32	s0, .L216+36
 4241 124a 05F15400 		add	r0, r5, #84
 4242 124e FFF7FEFF 		bl	utils_truncate_number
 4243              	.LVL413:
 4244              		.loc 1 385 0
 4245 1252 5FED660A 		vldr.32	s1, .L216+32
 4246 1256 1FED660A 		vldr.32	s0, .L216+36
 4247 125a 05F15800 		add	r0, r5, #88
 4248 125e FFF7FEFF 		bl	utils_truncate_number
 4249              	.LVL414:
 4250              		.loc 1 388 0
 4251 1262 5FED680A 		vldr.32	s1, .L216+40
 4252 1266 1FED680A 		vldr.32	s0, .L216+44
 4253 126a 05F14000 		add	r0, r5, #64
 4254 126e FFF7FEFF 		bl	utils_truncate_number
 4255              	.LVL415:
 4256              		.loc 1 389 0
 4257 1272 5FED6C0A 		vldr.32	s1, .L216+40
 4258 1276 1FED6C0A 		vldr.32	s0, .L216+44
 4259 127a 05F14400 		add	r0, r5, #68
 4260 127e FFF7FEFF 		bl	utils_truncate_number
 4261              	.LVL416:
 4262              		.loc 1 393 0
 4263 1282 2846     		mov	r0, r5
 4264 1284 FFF7FEFF 		bl	conf_general_store_mc_configuration
 4265              	.LVL417:
 4266              		.loc 1 394 0
 4267 1288 2846     		mov	r0, r5
 4268 128a FFF7FEFF 		bl	mc_interface_set_configuration
 4269              	.LVL418:
 4270              		.loc 1 395 0
 4271 128e 4FF4FA60 		mov	r0, #2000
 4272 1292 FFF7FEFF 		bl	chThdSleep
 4273              	.LVL419:
 4274              	.LBB130:
 4275              	.LBB131:
ARM GAS  /var/folders/sv/kgmgr77579zbf78p2zlhkdfr0000gn/T//ccMuP6SP.s 			page 76


 4276              		.loc 1 90 0
 4277 1296 D64B     		ldr	r3, .L219
 4278              	.LBE131:
 4279              	.LBE130:
 4280              		.loc 1 398 0
 4281 1298 D648     		ldr	r0, .L219+4
 4282              	.LBB134:
 4283              	.LBB132:
 4284              		.loc 1 90 0
 4285 129a 1B68     		ldr	r3, [r3]
 4286              	.LBE132:
 4287              	.LBE134:
 4288              		.loc 1 398 0
 4289 129c 0D22     		movs	r2, #13
 4290 129e 0121     		movs	r1, #1
 4291 12a0 0270     		strb	r2, [r0]
 4292              	.LVL420:
 4293 12a2 0291     		str	r1, [sp, #8]
 4294              	.LBB135:
 4295              	.LBB133:
 4296              		.loc 1 90 0
 4297 12a4 002B     		cmp	r3, #0
 4298 12a6 3EF42CAF 		beq	.L77
 4299              	.LVL421:
 4300              	.L192:
 4301              	.LBE133:
 4302              	.LBE135:
 4303              	.LBB136:
 4304              	.LBB137:
 4305              		.loc 1 91 0
 4306 12aa 9847     		blx	r3
 4307              	.LVL422:
 4308 12ac FEF729BF 		b	.L77
 4309              	.LVL423:
 4310              	.L91:
 4311              	.LBE137:
 4312              	.LBE136:
 4313              		.loc 1 219 0
 4314 12b0 2046     		mov	r0, r4
 4315 12b2 02A9     		add	r1, sp, #8
 4316 12b4 9FEDD00A 		vldr.32	s0, .L219+8
 4317 12b8 FFF7FEFF 		bl	buffer_get_float32
 4318              	.LVL424:
 4319 12bc FFF7FEFF 		bl	mc_interface_set_handbrake
 4320              	.LVL425:
 4321              		.loc 1 220 0
 4322 12c0 FFF7FEFF 		bl	timeout_reset
 4323              	.LVL426:
 4324              		.loc 1 221 0
 4325 12c4 FEF71DBF 		b	.L77
 4326              	.L90:
 4327              		.loc 1 213 0
 4328 12c8 02A9     		add	r1, sp, #8
 4329 12ca 2046     		mov	r0, r4
 4330 12cc FFF7FEFF 		bl	buffer_get_int32
 4331              	.LVL427:
 4332 12d0 07EE100A 		vmov	s14, r0	@ int
ARM GAS  /var/folders/sv/kgmgr77579zbf78p2zlhkdfr0000gn/T//ccMuP6SP.s 			page 77


 4333 12d4 DFEDC97A 		vldr.32	s15, .L219+12
 4334 12d8 B8EEC70A 		vcvt.f32.s32	s0, s14
 4335 12dc 80EE270A 		vdiv.f32	s0, s0, s15
 4336 12e0 FFF7FEFF 		bl	mc_interface_set_pid_pos
 4337              	.LVL428:
 4338              		.loc 1 214 0
 4339 12e4 FFF7FEFF 		bl	timeout_reset
 4340              	.LVL429:
 4341              		.loc 1 215 0
 4342 12e8 FEF70BBF 		b	.L77
 4343              	.L89:
 4344              		.loc 1 207 0
 4345 12ec 02A9     		add	r1, sp, #8
 4346 12ee 2046     		mov	r0, r4
 4347 12f0 FFF7FEFF 		bl	buffer_get_int32
 4348              	.LVL430:
 4349 12f4 07EE900A 		vmov	s15, r0	@ int
 4350 12f8 B8EEE70A 		vcvt.f32.s32	s0, s15
 4351 12fc FFF7FEFF 		bl	mc_interface_set_pid_speed
 4352              	.LVL431:
 4353              		.loc 1 208 0
 4354 1300 FFF7FEFF 		bl	timeout_reset
 4355              	.LVL432:
 4356              		.loc 1 209 0
 4357 1304 FEF7FDBE 		b	.L77
 4358              	.L88:
 4359              		.loc 1 201 0
 4360 1308 02A9     		add	r1, sp, #8
 4361 130a 2046     		mov	r0, r4
 4362 130c FFF7FEFF 		bl	buffer_get_int32
 4363              	.LVL433:
 4364 1310 07EE100A 		vmov	s14, r0	@ int
 4365 1314 DFEDB87A 		vldr.32	s15, .L219+8
 4366 1318 B8EEC70A 		vcvt.f32.s32	s0, s14
 4367 131c 80EE270A 		vdiv.f32	s0, s0, s15
 4368 1320 FFF7FEFF 		bl	mc_interface_set_brake_current
 4369              	.LVL434:
 4370              		.loc 1 202 0
 4371 1324 FFF7FEFF 		bl	timeout_reset
 4372              	.LVL435:
 4373              		.loc 1 203 0
 4374 1328 FEF7EBBE 		b	.L77
 4375              	.L87:
 4376              		.loc 1 195 0
 4377 132c 02A9     		add	r1, sp, #8
 4378 132e 2046     		mov	r0, r4
 4379 1330 FFF7FEFF 		bl	buffer_get_int32
 4380              	.LVL436:
 4381 1334 07EE100A 		vmov	s14, r0	@ int
 4382 1338 DFEDAF7A 		vldr.32	s15, .L219+8
 4383 133c B8EEC70A 		vcvt.f32.s32	s0, s14
 4384 1340 80EE270A 		vdiv.f32	s0, s0, s15
 4385 1344 FFF7FEFF 		bl	mc_interface_set_current
 4386              	.LVL437:
 4387              		.loc 1 196 0
 4388 1348 FFF7FEFF 		bl	timeout_reset
 4389              	.LVL438:
ARM GAS  /var/folders/sv/kgmgr77579zbf78p2zlhkdfr0000gn/T//ccMuP6SP.s 			page 78


 4390              		.loc 1 197 0
 4391 134c FEF7D9BE 		b	.L77
 4392              	.L86:
 4393              		.loc 1 189 0
 4394 1350 02A9     		add	r1, sp, #8
 4395 1352 2046     		mov	r0, r4
 4396 1354 FFF7FEFF 		bl	buffer_get_int32
 4397              	.LVL439:
 4398 1358 07EE100A 		vmov	s14, r0	@ int
 4399 135c DFEDA87A 		vldr.32	s15, .L219+16
 4400 1360 B8EEC70A 		vcvt.f32.s32	s0, s14
 4401 1364 80EE270A 		vdiv.f32	s0, s0, s15
 4402 1368 FFF7FEFF 		bl	mc_interface_set_duty
 4403              	.LVL440:
 4404              		.loc 1 190 0
 4405 136c FFF7FEFF 		bl	timeout_reset
 4406              	.LVL441:
 4407              		.loc 1 191 0
 4408 1370 FEF7C7BE 		b	.L77
 4409              	.L85:
 4410              		.loc 1 166 0
 4411 1374 36AD     		add	r5, sp, #216
 4412              	.LVL442:
 4413 1376 0123     		movs	r3, #1
 4414 1378 9E4C     		ldr	r4, .L219+4
 4415              	.LVL443:
 4416 137a 45F8D03D 		str	r3, [r5, #-208]!
 4417 137e 0423     		movs	r3, #4
 4418 1380 2370     		strb	r3, [r4]
 4419              		.loc 1 167 0
 4420 1382 FFF7FEFF 		bl	mc_interface_temp_fet_filtered
 4421              	.LVL444:
 4422 1386 2946     		mov	r1, r5
 4423 1388 2046     		mov	r0, r4
 4424 138a F2EE040A 		vmov.f32	s1, #1.0e+1
 4425 138e FFF7FEFF 		bl	buffer_append_float16
 4426              	.LVL445:
 4427              		.loc 1 168 0
 4428 1392 FFF7FEFF 		bl	mc_interface_temp_motor_filtered
 4429              	.LVL446:
 4430 1396 2946     		mov	r1, r5
 4431 1398 2046     		mov	r0, r4
 4432 139a F2EE040A 		vmov.f32	s1, #1.0e+1
 4433 139e FFF7FEFF 		bl	buffer_append_float16
 4434              	.LVL447:
 4435              		.loc 1 169 0
 4436 13a2 FFF7FEFF 		bl	mc_interface_read_reset_avg_motor_current
 4437              	.LVL448:
 4438 13a6 2946     		mov	r1, r5
 4439 13a8 2046     		mov	r0, r4
 4440 13aa DFED960A 		vldr.32	s1, .L219+20
 4441 13ae FFF7FEFF 		bl	buffer_append_float32
 4442              	.LVL449:
 4443              		.loc 1 170 0
 4444 13b2 FFF7FEFF 		bl	mc_interface_read_reset_avg_input_current
 4445              	.LVL450:
 4446 13b6 2946     		mov	r1, r5
ARM GAS  /var/folders/sv/kgmgr77579zbf78p2zlhkdfr0000gn/T//ccMuP6SP.s 			page 79


 4447 13b8 2046     		mov	r0, r4
 4448 13ba DFED920A 		vldr.32	s1, .L219+20
 4449 13be FFF7FEFF 		bl	buffer_append_float32
 4450              	.LVL451:
 4451              		.loc 1 171 0
 4452 13c2 FFF7FEFF 		bl	mc_interface_read_reset_avg_id
 4453              	.LVL452:
 4454 13c6 2946     		mov	r1, r5
 4455 13c8 2046     		mov	r0, r4
 4456 13ca DFED8E0A 		vldr.32	s1, .L219+20
 4457 13ce FFF7FEFF 		bl	buffer_append_float32
 4458              	.LVL453:
 4459              		.loc 1 172 0
 4460 13d2 FFF7FEFF 		bl	mc_interface_read_reset_avg_iq
 4461              	.LVL454:
 4462 13d6 2946     		mov	r1, r5
 4463 13d8 2046     		mov	r0, r4
 4464 13da DFED8A0A 		vldr.32	s1, .L219+20
 4465 13de FFF7FEFF 		bl	buffer_append_float32
 4466              	.LVL455:
 4467              		.loc 1 173 0
 4468 13e2 FFF7FEFF 		bl	mc_interface_get_duty_cycle_now
 4469              	.LVL456:
 4470 13e6 2946     		mov	r1, r5
 4471 13e8 2046     		mov	r0, r4
 4472 13ea DFED830A 		vldr.32	s1, .L219+8
 4473 13ee FFF7FEFF 		bl	buffer_append_float16
 4474              	.LVL457:
 4475              		.loc 1 174 0
 4476 13f2 FFF7FEFF 		bl	mc_interface_get_rpm
 4477              	.LVL458:
 4478 13f6 2946     		mov	r1, r5
 4479 13f8 2046     		mov	r0, r4
 4480 13fa F7EE000A 		vmov.f32	s1, #1.0e+0
 4481 13fe FFF7FEFF 		bl	buffer_append_float32
 4482              	.LVL459:
 4483              		.loc 1 175 0
 4484 1402 814B     		ldr	r3, .L219+24
 4485 1404 9FED817A 		vldr.32	s14, .L219+28
 4486 1408 1B8A     		ldrh	r3, [r3, #16]
 4487 140a 9FED810A 		vldr.32	s0, .L219+32
 4488 140e 9BB2     		uxth	r3, r3
 4489 1410 07EE903A 		vmov	s15, r3	@ int
 4490 1414 F8EE677A 		vcvt.f32.u32	s15, s15
 4491 1418 2946     		mov	r1, r5
 4492 141a 67EE877A 		vmul.f32	s15, s15, s14
 4493 141e F2EE040A 		vmov.f32	s1, #1.0e+1
 4494 1422 27EE800A 		vmul.f32	s0, s15, s0
 4495 1426 2046     		mov	r0, r4
 4496 1428 FFF7FEFF 		bl	buffer_append_float16
 4497              	.LVL460:
 4498              		.loc 1 176 0
 4499 142c 0020     		movs	r0, #0
 4500 142e FFF7FEFF 		bl	mc_interface_get_amp_hours
 4501              	.LVL461:
 4502 1432 2946     		mov	r1, r5
 4503 1434 DFED770A 		vldr.32	s1, .L219+36
ARM GAS  /var/folders/sv/kgmgr77579zbf78p2zlhkdfr0000gn/T//ccMuP6SP.s 			page 80


 4504 1438 2046     		mov	r0, r4
 4505 143a FFF7FEFF 		bl	buffer_append_float32
 4506              	.LVL462:
 4507              		.loc 1 177 0
 4508 143e 0020     		movs	r0, #0
 4509 1440 FFF7FEFF 		bl	mc_interface_get_amp_hours_charged
 4510              	.LVL463:
 4511 1444 2946     		mov	r1, r5
 4512 1446 DFED730A 		vldr.32	s1, .L219+36
 4513 144a 2046     		mov	r0, r4
 4514 144c FFF7FEFF 		bl	buffer_append_float32
 4515              	.LVL464:
 4516              		.loc 1 178 0
 4517 1450 0020     		movs	r0, #0
 4518 1452 FFF7FEFF 		bl	mc_interface_get_watt_hours
 4519              	.LVL465:
 4520 1456 2946     		mov	r1, r5
 4521 1458 DFED6E0A 		vldr.32	s1, .L219+36
 4522 145c 2046     		mov	r0, r4
 4523 145e FFF7FEFF 		bl	buffer_append_float32
 4524              	.LVL466:
 4525              		.loc 1 179 0
 4526 1462 0020     		movs	r0, #0
 4527 1464 FFF7FEFF 		bl	mc_interface_get_watt_hours_charged
 4528              	.LVL467:
 4529 1468 DFED6A0A 		vldr.32	s1, .L219+36
 4530 146c 2946     		mov	r1, r5
 4531 146e 2046     		mov	r0, r4
 4532 1470 FFF7FEFF 		bl	buffer_append_float32
 4533              	.LVL468:
 4534              		.loc 1 180 0
 4535 1474 0020     		movs	r0, #0
 4536 1476 FFF7FEFF 		bl	mc_interface_get_tachometer_value
 4537              	.LVL469:
 4538 147a 2A46     		mov	r2, r5
 4539 147c 0146     		mov	r1, r0
 4540 147e 2046     		mov	r0, r4
 4541 1480 FFF7FEFF 		bl	buffer_append_int32
 4542              	.LVL470:
 4543              		.loc 1 181 0
 4544 1484 0020     		movs	r0, #0
 4545 1486 FFF7FEFF 		bl	mc_interface_get_tachometer_abs_value
 4546              	.LVL471:
 4547 148a 2A46     		mov	r2, r5
 4548 148c 0146     		mov	r1, r0
 4549 148e 2046     		mov	r0, r4
 4550 1490 FFF7FEFF 		bl	buffer_append_int32
 4551              	.LVL472:
 4552              		.loc 1 182 0
 4553 1494 029E     		ldr	r6, [sp, #8]
 4554 1496 731C     		adds	r3, r6, #1
 4555 1498 0293     		str	r3, [sp, #8]
 4556 149a FFF7FEFF 		bl	mc_interface_get_fault
 4557              	.LVL473:
 4558 149e A055     		strb	r0, [r4, r6]
 4559              		.loc 1 183 0
 4560 14a0 FFF7FEFF 		bl	mc_interface_get_pid_pos_now
ARM GAS  /var/folders/sv/kgmgr77579zbf78p2zlhkdfr0000gn/T//ccMuP6SP.s 			page 81


 4561              	.LVL474:
 4562 14a4 2946     		mov	r1, r5
 4563 14a6 2046     		mov	r0, r4
 4564 14a8 DFED540A 		vldr.32	s1, .L219+12
 4565 14ac FFF7FEFF 		bl	buffer_append_float32
 4566              	.LVL475:
 4567              	.LBB141:
 4568              	.LBB142:
 4569              		.loc 1 90 0
 4570 14b0 4F4B     		ldr	r3, .L219
 4571              	.LBE142:
 4572              	.LBE141:
 4573              		.loc 1 184 0
 4574 14b2 0299     		ldr	r1, [sp, #8]
 4575              	.LVL476:
 4576              	.LBB144:
 4577              	.LBB143:
 4578              		.loc 1 90 0
 4579 14b4 1B68     		ldr	r3, [r3]
 4580 14b6 002B     		cmp	r3, #0
 4581 14b8 7EF469AE 		bne	.L191
 4582 14bc FEF721BE 		b	.L77
 4583              	.LVL477:
 4584              	.L84:
 4585              	.LBE143:
 4586              	.LBE144:
 4587              		.loc 1 155 0
 4588 14c0 02A9     		add	r1, sp, #8
 4589 14c2 2046     		mov	r0, r4
 4590 14c4 FFF7FEFF 		bl	buffer_get_uint32
 4591              	.LVL478:
 4592              		.loc 1 156 0
 4593 14c8 0299     		ldr	r1, [sp, #8]
 4594 14ca 6A1A     		subs	r2, r5, r1
 4595 14cc 2144     		add	r1, r1, r4
 4596 14ce FFF7FEFF 		bl	flash_helper_write_new_app_data
 4597              	.LVL479:
 4598              	.LBB145:
 4599              	.LBB146:
 4600              		.loc 1 90 0
 4601 14d2 474A     		ldr	r2, .L219
 4602              	.LBE146:
 4603              	.LBE145:
 4604              		.loc 1 159 0
 4605 14d4 474B     		ldr	r3, .L219+4
 4606              	.LBB149:
 4607              	.LBB147:
 4608              		.loc 1 90 0
 4609 14d6 1268     		ldr	r2, [r2]
 4610              	.LBE147:
 4611              	.LBE149:
 4612              		.loc 1 160 0
 4613 14d8 A0F10900 		sub	r0, #9
 4614              	.LVL480:
 4615 14dc B0FA80F0 		clz	r0, r0
 4616 14e0 4009     		lsrs	r0, r0, #5
 4617              		.loc 1 159 0
ARM GAS  /var/folders/sv/kgmgr77579zbf78p2zlhkdfr0000gn/T//ccMuP6SP.s 			page 82


 4618 14e2 0324     		movs	r4, #3
 4619              	.LVL481:
 4620              		.loc 1 160 0
 4621 14e4 0221     		movs	r1, #2
 4622 14e6 5870     		strb	r0, [r3, #1]
 4623              	.LVL482:
 4624              		.loc 1 159 0
 4625 14e8 1C70     		strb	r4, [r3]
 4626              		.loc 1 160 0
 4627 14ea 0291     		str	r1, [sp, #8]
 4628              	.LBB150:
 4629              	.LBB148:
 4630              		.loc 1 90 0
 4631 14ec 002A     		cmp	r2, #0
 4632 14ee 3EF408AE 		beq	.L77
 4633              	.LVL483:
 4634              	.L190:
 4635              		.loc 1 91 0
 4636 14f2 1846     		mov	r0, r3
 4637 14f4 9047     		blx	r2
 4638              	.LVL484:
 4639 14f6 FEF704BE 		b	.L77
 4640              	.LVL485:
 4641              	.L83:
 4642              	.LBE148:
 4643              	.LBE150:
 4644              		.loc 1 145 0
 4645 14fa 02A9     		add	r1, sp, #8
 4646 14fc 2046     		mov	r0, r4
 4647 14fe FFF7FEFF 		bl	buffer_get_uint32
 4648              	.LVL486:
 4649 1502 FFF7FEFF 		bl	flash_helper_erase_new_app
 4650              	.LVL487:
 4651              	.LBB151:
 4652              	.LBB152:
 4653              		.loc 1 90 0
 4654 1506 3A4A     		ldr	r2, .L219
 4655              	.LBE152:
 4656              	.LBE151:
 4657              		.loc 1 148 0
 4658 1508 3A4B     		ldr	r3, .L219+4
 4659              	.LBB155:
 4660              	.LBB153:
 4661              		.loc 1 90 0
 4662 150a 1268     		ldr	r2, [r2]
 4663              	.LBE153:
 4664              	.LBE155:
 4665              		.loc 1 149 0
 4666 150c A0F10900 		sub	r0, #9
 4667              	.LVL488:
 4668 1510 B0FA80F0 		clz	r0, r0
 4669              		.loc 1 148 0
 4670 1514 0221     		movs	r1, #2
 4671              		.loc 1 149 0
 4672 1516 4009     		lsrs	r0, r0, #5
 4673 1518 5870     		strb	r0, [r3, #1]
 4674              	.LVL489:
ARM GAS  /var/folders/sv/kgmgr77579zbf78p2zlhkdfr0000gn/T//ccMuP6SP.s 			page 83


 4675              		.loc 1 148 0
 4676 151a 1970     		strb	r1, [r3]
 4677              		.loc 1 149 0
 4678 151c 0291     		str	r1, [sp, #8]
 4679              	.LBB156:
 4680              	.LBB154:
 4681              		.loc 1 90 0
 4682 151e 002A     		cmp	r2, #0
 4683 1520 E7D1     		bne	.L190
 4684 1522 FEF7EEBD 		b	.L77
 4685              	.LVL490:
 4686              	.L82:
 4687              	.LBE154:
 4688              	.LBE156:
 4689              		.loc 1 140 0
 4690 1526 FFF7FEFF 		bl	flash_helper_jump_to_bootloader
 4691              	.LVL491:
 4692              		.loc 1 141 0
 4693 152a FEF7EABD 		b	.L77
 4694              	.L80:
 4695              		.loc 1 129 0
 4696 152e 3A4A     		ldr	r2, .L219+40
 4697              		.loc 1 124 0
 4698 1530 304B     		ldr	r3, .L219+4
 4699              		.loc 1 129 0
 4700 1532 1068     		ldr	r0, [r2]	@ unaligned
 4701 1534 C3F80300 		str	r0, [r3, #3]	@ unaligned
 4702              		.loc 1 125 0
 4703 1538 0321     		movs	r1, #3
 4704              		.loc 1 124 0
 4705 153a 0020     		movs	r0, #0
 4706              		.loc 1 126 0
 4707 153c 2222     		movs	r2, #34
 4708              		.loc 1 132 0
 4709 153e 374C     		ldr	r4, .L219+44
 4710              	.LVL492:
 4711              		.loc 1 124 0
 4712 1540 1870     		strb	r0, [r3]
 4713              		.loc 1 125 0
 4714 1542 5970     		strb	r1, [r3, #1]
 4715              		.loc 1 126 0
 4716 1544 9A70     		strb	r2, [r3, #2]
 4717              		.loc 1 132 0
 4718 1546 07CC     		ldmia	r4!, {r0, r1, r2}
 4719              	.LBB157:
 4720              	.LBB158:
 4721              		.loc 1 90 0
 4722 1548 294C     		ldr	r4, .L219
 4723              	.LBE158:
 4724              	.LBE157:
 4725              		.loc 1 132 0
 4726 154a C3F80B10 		str	r1, [r3, #11]	@ unaligned
 4727              	.LBB161:
 4728              	.LBB159:
 4729              		.loc 1 90 0
 4730 154e 2468     		ldr	r4, [r4]
 4731              	.LBE159:
ARM GAS  /var/folders/sv/kgmgr77579zbf78p2zlhkdfr0000gn/T//ccMuP6SP.s 			page 84


 4732              	.LBE161:
 4733              		.loc 1 132 0
 4734 1550 C3F80700 		str	r0, [r3, #7]	@ unaligned
 4735              		.loc 1 133 0
 4736 1554 1321     		movs	r1, #19
 4737              		.loc 1 132 0
 4738 1556 C3F80F20 		str	r2, [r3, #15]	@ unaligned
 4739              		.loc 1 133 0
 4740 155a 0291     		str	r1, [sp, #8]
 4741              	.LVL493:
 4742              	.LBB162:
 4743              	.LBB160:
 4744              		.loc 1 90 0
 4745 155c 002C     		cmp	r4, #0
 4746 155e 3EF4D0AD 		beq	.L77
 4747              		.loc 1 91 0
 4748 1562 1846     		mov	r0, r3
 4749 1564 A047     		blx	r4
 4750              	.LVL494:
 4751 1566 FEF7CCBD 		b	.L77
 4752              	.LVL495:
 4753              	.L112:
 4754              	.LBE160:
 4755              	.LBE162:
 4756              		.loc 1 845 0
 4757 156a 02A9     		add	r1, sp, #8
 4758 156c 2046     		mov	r0, r4
 4759 156e FFF7FEFF 		bl	buffer_get_int32
 4760              	.LVL496:
 4761 1572 FFF7FEFF 		bl	nrf_driver_start_pairing
 4762              	.LVL497:
 4763              	.LBB163:
 4764              	.LBB138:
 4765              		.loc 1 90 0
 4766 1576 1E4B     		ldr	r3, .L219
 4767              	.LBE138:
 4768              	.LBE163:
 4769              		.loc 1 848 0
 4770 1578 1E48     		ldr	r0, .L219+4
 4771              	.LBB164:
 4772              	.LBB139:
 4773              		.loc 1 90 0
 4774 157a 1B68     		ldr	r3, [r3]
 4775              	.LBE139:
 4776              	.LBE164:
 4777              		.loc 1 848 0
 4778 157c 2524     		movs	r4, #37
 4779              	.LVL498:
 4780              		.loc 1 849 0
 4781 157e 0022     		movs	r2, #0
 4782 1580 0221     		movs	r1, #2
 4783              		.loc 1 848 0
 4784 1582 0470     		strb	r4, [r0]
 4785              		.loc 1 849 0
 4786 1584 4270     		strb	r2, [r0, #1]
 4787              	.LVL499:
 4788 1586 0291     		str	r1, [sp, #8]
ARM GAS  /var/folders/sv/kgmgr77579zbf78p2zlhkdfr0000gn/T//ccMuP6SP.s 			page 85


 4789              	.LBB165:
 4790              	.LBB140:
 4791              		.loc 1 90 0
 4792 1588 002B     		cmp	r3, #0
 4793 158a 7FF48EAE 		bne	.L192
 4794 158e FEF7B8BD 		b	.L77
 4795              	.LVL500:
 4796              	.L111:
 4797              	.LBE140:
 4798              	.LBE165:
 4799              		.loc 1 838 0
 4800 1592 234B     		ldr	r3, .L219+48
 4801 1594 1B68     		ldr	r3, [r3]
 4802 1596 002B     		cmp	r3, #0
 4803 1598 3EF4B3AD 		beq	.L77
 4804              		.loc 1 839 0
 4805 159c 2946     		mov	r1, r5
 4806 159e FEF7F6BD 		b	.L191
 4807              	.L110:
 4808              		.loc 1 829 0
 4809 15a2 C278     		ldrb	r2, [r0, #3]	@ zero_extendqisi2
 4810              		.loc 1 830 0
 4811 15a4 0379     		ldrb	r3, [r0, #4]	@ zero_extendqisi2
 4812              		.loc 1 827 0
 4813 15a6 4178     		ldrb	r1, [r0, #1]	@ zero_extendqisi2
 4814              		.loc 1 828 0
 4815 15a8 8678     		ldrb	r6, [r0, #2]	@ zero_extendqisi2
 4816              		.loc 1 827 0
 4817 15aa 0491     		str	r1, [sp, #16]
 4818              		.loc 1 829 0
 4819 15ac 0032     		adds	r2, r2, #0
 4820 15ae 18BF     		it	ne
 4821 15b0 0122     		movne	r2, #1
 4822              		.loc 1 830 0
 4823 15b2 0033     		adds	r3, r3, #0
 4824 15b4 18BF     		it	ne
 4825 15b6 0123     		movne	r3, #1
 4826              		.loc 1 831 0
 4827 15b8 02A9     		add	r1, sp, #8
 4828              		.loc 1 830 0
 4829 15ba 0425     		movs	r5, #4
 4830              	.LVL501:
 4831              		.loc 1 831 0
 4832 15bc 2046     		mov	r0, r4
 4833              		.loc 1 829 0
 4834 15be 8DF82420 		strb	r2, [sp, #36]
 4835              		.loc 1 830 0
 4836 15c2 8DF82530 		strb	r3, [sp, #37]
 4837              		.loc 1 828 0
 4838 15c6 0596     		str	r6, [sp, #20]
 4839              		.loc 1 830 0
 4840 15c8 0295     		str	r5, [sp, #8]
 4841              		.loc 1 831 0
 4842 15ca FFF7FEFF 		bl	buffer_get_int16
 4843              	.LVL502:
 4844              		.loc 1 832 0
 4845 15ce 02A9     		add	r1, sp, #8
ARM GAS  /var/folders/sv/kgmgr77579zbf78p2zlhkdfr0000gn/T//ccMuP6SP.s 			page 86


 4846              		.loc 1 831 0
 4847 15d0 0690     		str	r0, [sp, #24]
 4848              		.loc 1 832 0
 4849 15d2 2046     		mov	r0, r4
 4850 15d4 FFF7FEFF 		bl	buffer_get_int16
 4851              	.LVL503:
 4852              		.loc 1 833 0
 4853 15d8 02A9     		add	r1, sp, #8
 4854              		.loc 1 832 0
 4855 15da 0790     		str	r0, [sp, #28]
 4856              		.loc 1 833 0
 4857 15dc 2046     		mov	r0, r4
 4858 15de FFF7FEFF 		bl	buffer_get_int16
 4859              	.LVL504:
 4860 15e2 0890     		str	r0, [sp, #32]
 4861              		.loc 1 834 0
 4862 15e4 04A8     		add	r0, sp, #16
 4863 15e6 FFF7FEFF 		bl	app_nunchuk_update_output
 4864              	.LVL505:
 4865              		.loc 1 835 0
 4866 15ea FEF78ABD 		b	.L77
 4867              	.L220:
 4868 15ee 00BF     		.align	2
 4869              	.L219:
 4870 15f0 00000000 		.word	.LANCHOR10
 4871 15f4 00000000 		.word	.LANCHOR8
 4872 15f8 00007A44 		.word	1148846080
 4873 15fc 00247449 		.word	1232348160
 4874 1600 0050C347 		.word	1203982336
 4875 1604 0000C842 		.word	1120403456
 4876 1608 00000000 		.word	ADC_Value
 4877 160c 6740533A 		.word	978534503
 4878 1610 74D19541 		.word	1100337524
 4879 1614 00401C46 		.word	1176256512
 4880 1618 08000000 		.word	.LC1
 4881 161c 107AFF1F 		.word	536836624
 4882 1620 00000000 		.word	.LANCHOR14
 4883              	.LVL506:
 4884              	.L109:
 4885              		.loc 1 822 0
 4886 1624 8A1E     		subs	r2, r1, #2
 4887 1626 0023     		movs	r3, #0
 4888 1628 811C     		adds	r1, r0, #2
 4889 162a 4078     		ldrb	r0, [r0, #1]	@ zero_extendqisi2
 4890 162c FFF7FEFF 		bl	comm_can_send_buffer
 4891              	.LVL507:
 4892              		.loc 1 823 0
 4893 1630 FEF767BD 		b	.L77
 4894              	.LVL508:
 4895              	.L202:
 4896 1634 9DED030A 		vldr.32	s0, [sp, #12]
 4897 1638 FEF7F9BE 		b	.L122
 4898              	.LVL509:
 4899              	.L199:
 4900 163c 9DED040A 		vldr.32	s0, [sp, #16]
 4901 1640 FEF74DBD 		b	.L126
 4902              	.LVL510:
ARM GAS  /var/folders/sv/kgmgr77579zbf78p2zlhkdfr0000gn/T//ccMuP6SP.s 			page 87


 4903              	.L204:
 4904              		.loc 1 405 0
 4905 1644 FFF7FEFF 		bl	mc_interface_get_configuration
 4906              	.LVL511:
 4907 1648 4FF4BA72 		mov	r2, #372
 4908 164c 0146     		mov	r1, r0
 4909 164e 2748     		ldr	r0, .L221
 4910 1650 FFF7FEFF 		bl	memcpy
 4911              	.LVL512:
 4912 1654 FFF72DB9 		b	.L118
 4913              	.L200:
 4914              		.loc 1 231 0
 4915 1658 FFF7FEFF 		bl	mc_interface_release_motor
 4916              	.LVL513:
 4917 165c FEF76DBD 		b	.L105
 4918              	.L203:
 4919              		.loc 1 608 0
 4920 1660 FFF7FEFF 		bl	app_get_configuration
 4921              	.LVL514:
 4922 1664 04AC     		add	r4, sp, #16
 4923              	.LVL515:
 4924 1666 0146     		mov	r1, r0
 4925 1668 C822     		movs	r2, #200
 4926 166a 2046     		mov	r0, r4
 4927 166c FFF7FEFF 		bl	memcpy
 4928              	.LVL516:
 4929 1670 FEF729BF 		b	.L120
 4930              	.LVL517:
 4931              	.L201:
 4932              	.LBB166:
 4933              	.LBB116:
 4934              	.LBB115:
 4935              		.loc 1 90 0
 4936 1674 D8F80030 		ldr	r3, [r8]
 4937 1678 002B     		cmp	r3, #0
 4938 167a 7EF48AAE 		bne	.L194
 4939 167e FEF740BD 		b	.L77
 4940              	.LVL518:
 4941              	.L129:
 4942              	.LBE115:
 4943              	.LBE116:
 4944              	.LBE166:
 4945              		.loc 1 736 0
 4946 1682 36AD     		add	r5, sp, #216
 4947              	.LVL519:
 4948 1684 0123     		movs	r3, #1
 4949 1686 45F8D03D 		str	r3, [r5, #-208]!
 4950 168a 194C     		ldr	r4, .L221+4
 4951              	.LVL520:
 4952              		.loc 1 737 0
 4953 168c DFED190A 		vldr.32	s1, .L221+8
 4954 1690 9FED190A 		vldr.32	s0, .L221+12
 4955              		.loc 1 736 0
 4956 1694 1B23     		movs	r3, #27
 4957              		.loc 1 737 0
 4958 1696 2946     		mov	r1, r5
 4959 1698 2046     		mov	r0, r4
ARM GAS  /var/folders/sv/kgmgr77579zbf78p2zlhkdfr0000gn/T//ccMuP6SP.s 			page 88


 4960              		.loc 1 736 0
 4961 169a 2370     		strb	r3, [r4]
 4962              		.loc 1 737 0
 4963 169c FFF7FEFF 		bl	buffer_append_float32
 4964              	.LVL521:
 4965              		.loc 1 738 0
 4966 16a0 2946     		mov	r1, r5
 4967 16a2 2046     		mov	r0, r4
 4968 16a4 DFED130A 		vldr.32	s1, .L221+8
 4969 16a8 9FED140A 		vldr.32	s0, .L221+16
 4970 16ac FFF7FEFF 		bl	buffer_append_float32
 4971              	.LVL522:
 4972              	.LBB167:
 4973              	.LBB168:
 4974              		.loc 1 90 0
 4975 16b0 134B     		ldr	r3, .L221+20
 4976              	.LBE168:
 4977              	.LBE167:
 4978              		.loc 1 739 0
 4979 16b2 0299     		ldr	r1, [sp, #8]
 4980              	.LBB171:
 4981              	.LBB169:
 4982              		.loc 1 90 0
 4983 16b4 1B68     		ldr	r3, [r3]
 4984              	.LBE169:
 4985              	.LBE171:
 4986              		.loc 1 739 0
 4987 16b6 6654     		strb	r6, [r4, r1]
 4988              	.LVL523:
 4989 16b8 0131     		adds	r1, r1, #1
 4990              	.LVL524:
 4991 16ba 0291     		str	r1, [sp, #8]
 4992              	.LBB172:
 4993              	.LBB170:
 4994              		.loc 1 90 0
 4995 16bc 002B     		cmp	r3, #0
 4996 16be 7EF466AD 		bne	.L191
 4997 16c2 FEF71EBD 		b	.L77
 4998              	.LVL525:
 4999              	.L133:
 5000              	.LBE170:
 5001              	.LBE172:
 5002              	.LBB173:
 5003              	.LBB110:
 5004              	.LBB111:
 5005 16c6 3468     		ldr	r4, [r6]
 5006 16c8 002C     		cmp	r4, #0
 5007 16ca 3EF41AAD 		beq	.L77
 5008              		.loc 1 91 0
 5009 16ce 1946     		mov	r1, r3
 5010 16d0 1046     		mov	r0, r2
 5011 16d2 A047     		blx	r4
 5012              	.LVL526:
 5013 16d4 FEF715BD 		b	.L77
 5014              	.LVL527:
 5015              	.L132:
 5016              	.LBE111:
ARM GAS  /var/folders/sv/kgmgr77579zbf78p2zlhkdfr0000gn/T//ccMuP6SP.s 			page 89


 5017              	.LBE110:
 5018              	.LBE173:
 5019              		.loc 1 779 0
 5020 16d8 054B     		ldr	r3, .L221+4
 5021 16da 4FF0FF32 		mov	r2, #-1
 5022              		.loc 1 781 0
 5023 16de 0021     		movs	r1, #0
 5024 16e0 5972     		strb	r1, [r3, #9]
 5025              		.loc 1 779 0
 5026 16e2 1A60     		str	r2, [r3]
 5027 16e4 5A60     		str	r2, [r3, #4]
 5028              	.LVL528:
 5029 16e6 FEF70CBD 		b	.L77
 5030              	.L222:
 5031 16ea 00BF     		.align	2
 5032              	.L221:
 5033 16ec 00000000 		.word	.LANCHOR15
 5034 16f0 00000000 		.word	.LANCHOR8
 5035 16f4 00247449 		.word	1232348160
 5036 16f8 00407A44 		.word	1148862464
 5037 16fc 00000000 		.word	0
 5038 1700 00000000 		.word	.LANCHOR10
 5039              		.cfi_endproc
 5040              	.LFE260:
 5041              		.size	commands_process_packet, .-commands_process_packet
 5042              		.section	.bss.send_func,"aw",%nobits
 5043              		.align	2
 5044              		.set	.LANCHOR10,. + 0
 5045              		.type	send_func, %object
 5046              		.size	send_func, 4
 5047              	send_func:
 5048 0000 00000000 		.space	4
 5049              		.section	.bss.detect_min_rpm,"aw",%nobits
 5050              		.align	2
 5051              		.set	.LANCHOR6,. + 0
 5052              		.type	detect_min_rpm, %object
 5053              		.size	detect_min_rpm, 4
 5054              	detect_min_rpm:
 5055 0000 00000000 		.space	4
 5056              		.section	.bss.appdata_func,"aw",%nobits
 5057              		.align	2
 5058              		.set	.LANCHOR14,. + 0
 5059              		.type	appdata_func, %object
 5060              		.size	appdata_func, 4
 5061              	appdata_func:
 5062 0000 00000000 		.space	4
 5063              		.section	.bss.mcconf_old.11692,"aw",%nobits
 5064              		.align	2
 5065              		.set	.LANCHOR16,. + 0
 5066              		.type	mcconf_old.11692, %object
 5067              		.size	mcconf_old.11692, 372
 5068              	mcconf_old.11692:
 5069 0000 00000000 		.space	372
 5069      00000000 
 5069      00000000 
 5069      00000000 
 5069      00000000 
ARM GAS  /var/folders/sv/kgmgr77579zbf78p2zlhkdfr0000gn/T//ccMuP6SP.s 			page 90


 5070              		.section	.bss.detect_hall_table,"aw",%nobits
 5071              		.align	2
 5072              		.set	.LANCHOR2,. + 0
 5073              		.type	detect_hall_table, %object
 5074              		.size	detect_hall_table, 8
 5075              	detect_hall_table:
 5076 0000 00000000 		.space	8
 5076      00000000 
 5077              		.section	.bss.print_buffer.11759,"aw",%nobits
 5078              		.align	2
 5079              		.set	.LANCHOR12,. + 0
 5080              		.type	print_buffer.11759, %object
 5081              		.size	print_buffer.11759, 255
 5082              	print_buffer.11759:
 5083 0000 00000000 		.space	255
 5083      00000000 
 5083      00000000 
 5083      00000000 
 5083      00000000 
 5084              		.section	.bss.mcconf.11691,"aw",%nobits
 5085              		.align	2
 5086              		.set	.LANCHOR15,. + 0
 5087              		.type	mcconf.11691, %object
 5088              		.size	mcconf.11691, 372
 5089              	mcconf.11691:
 5090 0000 00000000 		.space	372
 5090      00000000 
 5090      00000000 
 5090      00000000 
 5090      00000000 
 5091              		.section	.bss.detect_hall_res,"aw",%nobits
 5092              		.align	2
 5093              		.set	.LANCHOR1,. + 0
 5094              		.type	detect_hall_res, %object
 5095              		.size	detect_hall_res, 4
 5096              	detect_hall_res:
 5097 0000 00000000 		.space	4
 5098              		.section	.bss.detect_thread_wa,"aw",%nobits
 5099              		.align	3
 5100              		.set	.LANCHOR11,. + 0
 5101              		.type	detect_thread_wa, %object
 5102              		.size	detect_thread_wa, 2456
 5103              	detect_thread_wa:
 5104 0000 00000000 		.space	2456
 5104      00000000 
 5104      00000000 
 5104      00000000 
 5104      00000000 
 5105              		.section	.bss.send_buffer,"aw",%nobits
 5106              		.align	2
 5107              		.set	.LANCHOR8,. + 0
 5108              		.type	send_buffer, %object
 5109              		.size	send_buffer, 1024
 5110              	send_buffer:
 5111 0000 00000000 		.space	1024
 5111      00000000 
 5111      00000000 
ARM GAS  /var/folders/sv/kgmgr77579zbf78p2zlhkdfr0000gn/T//ccMuP6SP.s 			page 91


 5111      00000000 
 5111      00000000 
 5112              		.section	.rodata.str1.4,"aMS",%progbits,1
 5113              		.align	2
 5114              	.LC0:
 5115 0000 44657465 		.ascii	"Detect\000"
 5115      637400
 5116 0007 00       		.space	1
 5117              	.LC1:
 5118 0008 34313000 		.ascii	"410\000"
 5119              		.section	.bss.detect_tp,"aw",%nobits
 5120              		.align	2
 5121              		.set	.LANCHOR0,. + 0
 5122              		.type	detect_tp, %object
 5123              		.size	detect_tp, 4
 5124              	detect_tp:
 5125 0000 00000000 		.space	4
 5126              		.section	.bss.detect_low_duty,"aw",%nobits
 5127              		.align	2
 5128              		.set	.LANCHOR5,. + 0
 5129              		.type	detect_low_duty, %object
 5130              		.size	detect_low_duty, 4
 5131              	detect_low_duty:
 5132 0000 00000000 		.space	4
 5133              		.section	.bss.detect_current,"aw",%nobits
 5134              		.align	2
 5135              		.set	.LANCHOR7,. + 0
 5136              		.type	detect_current, %object
 5137              		.size	detect_current, 4
 5138              	detect_current:
 5139 0000 00000000 		.space	4
 5140              		.section	.bss.detect_coupling_k,"aw",%nobits
 5141              		.align	2
 5142              		.set	.LANCHOR3,. + 0
 5143              		.type	detect_coupling_k, %object
 5144              		.size	detect_coupling_k, 4
 5145              	detect_coupling_k:
 5146 0000 00000000 		.space	4
 5147              		.section	.bss.send_func_last,"aw",%nobits
 5148              		.align	2
 5149              		.set	.LANCHOR9,. + 0
 5150              		.type	send_func_last, %object
 5151              		.size	send_func_last, 4
 5152              	send_func_last:
 5153 0000 00000000 		.space	4
 5154              		.section	.bss.detect_cycle_int_limit,"aw",%nobits
 5155              		.align	2
 5156              		.set	.LANCHOR4,. + 0
 5157              		.type	detect_cycle_int_limit, %object
 5158              		.size	detect_cycle_int_limit, 4
 5159              	detect_cycle_int_limit:
 5160 0000 00000000 		.space	4
 5161              		.section	.bss.display_position_mode,"aw",%nobits
 5162              		.set	.LANCHOR13,. + 0
 5163              		.type	display_position_mode, %object
 5164              		.size	display_position_mode, 1
 5165              	display_position_mode:
ARM GAS  /var/folders/sv/kgmgr77579zbf78p2zlhkdfr0000gn/T//ccMuP6SP.s 			page 92


 5166 0000 00       		.space	1
 5167              		.text
 5168              	.Letext0:
 5169              		.file 4 "/usr/local/Cellar/gcc-arm-none-eabi/20160928/arm-none-eabi/include/machine/_default_types
 5170              		.file 5 "/usr/local/Cellar/gcc-arm-none-eabi/20160928/arm-none-eabi/include/sys/_stdint.h"
 5171              		.file 6 "/usr/local/Cellar/gcc-arm-none-eabi/20160928/lib/gcc/arm-none-eabi/5.4.1/include/stddef.h
 5172              		.file 7 "ChibiOS_3.0.2/os/rt/ports/ARMCMx/compilers/GCC/chtypes.h"
 5173              		.file 8 "ChibiOS_3.0.2/os/rt/include/chsystypes.h"
 5174              		.file 9 "ChibiOS_3.0.2/os/rt/include/chschd.h"
 5175              		.file 10 "ChibiOS_3.0.2/os/rt/ports/ARMCMx/chcore.h"
 5176              		.file 11 "ChibiOS_3.0.2/os/rt/ports/ARMCMx/chcore_v7m.h"
 5177              		.file 12 "ChibiOS_3.0.2/os/rt/include/chtm.h"
 5178              		.file 13 "ChibiOS_3.0.2/os/rt/include/chsem.h"
 5179              		.file 14 "ChibiOS_3.0.2/os/rt/include/chmtx.h"
 5180              		.file 15 "datatypes.h"
 5181              		.file 16 "ChibiOS_3.0.2/ext/stdperiph_stm32f4/inc/stm32f4xx_flash.h"
 5182              		.file 17 "/usr/local/Cellar/gcc-arm-none-eabi/20160928/lib/gcc/arm-none-eabi/5.4.1/include/stdarg.
 5183              		.file 18 "<built-in>"
 5184              		.file 19 "ChibiOS_3.0.2/os/ext/CMSIS/include/core_cm4.h"
 5185              		.file 20 "mc_interface.h"
 5186              		.file 21 "ChibiOS_3.0.2/os/rt/include/chevents.h"
 5187              		.file 22 "./conf_general.h"
 5188              		.file 23 "buffer.h"
 5189              		.file 24 "ChibiOS_3.0.2/os/rt/include/chthreads.h"
 5190              		.file 25 "/usr/local/Cellar/gcc-arm-none-eabi/20160928/arm-none-eabi/include/stdio.h"
 5191              		.file 26 "mcpwm_foc.h"
 5192              		.file 27 "mcpwm.h"
 5193              		.file 28 "timeout.h"
 5194              		.file 29 "applications/app.h"
 5195              		.file 30 "servo_dec.h"
 5196              		.file 31 "encoder.h"
 5197              		.file 32 "terminal.h"
 5198              		.file 33 "utils.h"
 5199              		.file 34 "flash_helper.h"
 5200              		.file 35 "nrf/nrf_driver.h"
 5201              		.file 36 "comm_can.h"