ARM GAS  /var/folders/sv/kgmgr77579zbf78p2zlhkdfr0000gn/T//cc39nIKV.s 			page 1


   1              		.syntax unified
   2              		.cpu cortex-m4
   3              		.eabi_attribute 27, 1
   4              		.eabi_attribute 28, 1
   5              		.fpu fpv4-sp-d16
   6              		.eabi_attribute 20, 1
   7              		.eabi_attribute 21, 1
   8              		.eabi_attribute 23, 3
   9              		.eabi_attribute 24, 1
  10              		.eabi_attribute 25, 1
  11              		.eabi_attribute 26, 1
  12              		.eabi_attribute 30, 2
  13              		.eabi_attribute 34, 1
  14              		.eabi_attribute 18, 4
  15              		.thumb
  16              		.syntax unified
  17              		.file	"encoder.c"
  18              		.text
  19              	.Ltext0:
  20              		.cfi_sections	.debug_frame
  21              		.section	.text.encoder_deinit,"ax",%progbits
  22              		.align	2
  23              		.p2align 4,,15
  24              		.global	encoder_deinit
  25              		.thumb
  26              		.thumb_func
  27              		.type	encoder_deinit, %function
  28              	encoder_deinit:
  29              	.LFB256:
  30              		.file 1 "encoder.c"
  31              		.loc 1 80 0
  32              		.cfi_startproc
  33              		@ args = 0, pretend = 0, frame = 0
  34              		@ frame_needed = 0, uses_anonymous_args = 0
  35 0000 38B5     		push	{r3, r4, r5, lr}
  36              		.cfi_def_cfa_offset 16
  37              		.cfi_offset 3, -16
  38              		.cfi_offset 4, -12
  39              		.cfi_offset 5, -8
  40              		.cfi_offset 14, -4
  41              		.loc 1 81 0
  42 0002 2820     		movs	r0, #40
  43 0004 FFF7FEFF 		bl	nvicDisableVector
  44              	.LVL0:
  45              		.loc 1 86 0
  46 0008 144C     		ldr	r4, .L3
  47              		.loc 1 90 0
  48 000a 154D     		ldr	r5, .L3+4
  49              		.loc 1 82 0
  50 000c 1E20     		movs	r0, #30
  51 000e FFF7FEFF 		bl	nvicDisableVector
  52              	.LVL1:
  53              		.loc 1 84 0
  54 0012 1448     		ldr	r0, .L3+8
  55 0014 FFF7FEFF 		bl	TIM_DeInit
  56              	.LVL2:
  57              		.loc 1 86 0
ARM GAS  /var/folders/sv/kgmgr77579zbf78p2zlhkdfr0000gn/T//cc39nIKV.s 			page 2


  58 0018 2046     		mov	r0, r4
  59 001a 2022     		movs	r2, #32
  60 001c 4021     		movs	r1, #64
  61 001e FFF7FEFF 		bl	_pal_lld_setgroupmode
  62              	.LVL3:
  63              		.loc 1 87 0
  64 0022 2022     		movs	r2, #32
  65 0024 2046     		mov	r0, r4
  66 0026 1146     		mov	r1, r2
  67 0028 FFF7FEFF 		bl	_pal_lld_setgroupmode
  68              	.LVL4:
  69              		.loc 1 88 0
  70 002c 2046     		mov	r0, r4
  71 002e 2022     		movs	r2, #32
  72 0030 1021     		movs	r1, #16
  73 0032 FFF7FEFF 		bl	_pal_lld_setgroupmode
  74              	.LVL5:
  75              		.loc 1 90 0
  76 0036 2846     		mov	r0, r5
  77 0038 2022     		movs	r2, #32
  78 003a 4021     		movs	r1, #64
  79 003c FFF7FEFF 		bl	_pal_lld_setgroupmode
  80              	.LVL6:
  81              		.loc 1 91 0
  82 0040 2846     		mov	r0, r5
  83 0042 2022     		movs	r2, #32
  84 0044 8021     		movs	r1, #128
  85 0046 FFF7FEFF 		bl	_pal_lld_setgroupmode
  86              	.LVL7:
  87              		.loc 1 93 0
  88 004a 074C     		ldr	r4, .L3+12
  89              		.loc 1 94 0
  90 004c 0748     		ldr	r0, .L3+16
  91              		.loc 1 95 0
  92 004e 084A     		ldr	r2, .L3+20
  93              		.loc 1 93 0
  94 0050 0023     		movs	r3, #0
  95              		.loc 1 95 0
  96 0052 0021     		movs	r1, #0
  97              		.loc 1 93 0
  98 0054 2370     		strb	r3, [r4]
  99              		.loc 1 94 0
 100 0056 0370     		strb	r3, [r0]
 101              		.loc 1 95 0
 102 0058 1160     		str	r1, [r2]	@ float
 103 005a 38BD     		pop	{r3, r4, r5, pc}
 104              	.L4:
 105              		.align	2
 106              	.L3:
 107 005c 00000240 		.word	1073872896
 108 0060 00040240 		.word	1073873920
 109 0064 00080040 		.word	1073743872
 110 0068 00000000 		.word	.LANCHOR0
 111 006c 00000000 		.word	.LANCHOR1
 112 0070 00000000 		.word	.LANCHOR2
 113              		.cfi_endproc
 114              	.LFE256:
ARM GAS  /var/folders/sv/kgmgr77579zbf78p2zlhkdfr0000gn/T//cc39nIKV.s 			page 3


 115              		.size	encoder_deinit, .-encoder_deinit
 116              		.section	.text.encoder_init_abi,"ax",%progbits
 117              		.align	2
 118              		.p2align 4,,15
 119              		.global	encoder_init_abi
 120              		.thumb
 121              		.thumb_func
 122              		.type	encoder_init_abi, %function
 123              	encoder_init_abi:
 124              	.LFB257:
 125              		.loc 1 98 0
 126              		.cfi_startproc
 127              		@ args = 0, pretend = 0, frame = 8
 128              		@ frame_needed = 0, uses_anonymous_args = 0
 129              	.LVL8:
 130 0000 70B5     		push	{r4, r5, r6, lr}
 131              		.cfi_def_cfa_offset 16
 132              		.cfi_offset 4, -16
 133              		.cfi_offset 5, -12
 134              		.cfi_offset 6, -8
 135              		.cfi_offset 14, -4
 136              		.loc 1 103 0
 137 0002 284E     		ldr	r6, .L7
 138              		.loc 1 105 0
 139 0004 284C     		ldr	r4, .L7+4
 140              		.loc 1 102 0
 141 0006 294B     		ldr	r3, .L7+8
 142              		.loc 1 103 0
 143 0008 3060     		str	r0, [r6]
 144              		.loc 1 98 0
 145 000a 82B0     		sub	sp, sp, #8
 146              		.cfi_def_cfa_offset 24
 147              		.loc 1 102 0
 148 000c 0025     		movs	r5, #0
 149              		.loc 1 105 0
 150 000e 2046     		mov	r0, r4
 151              	.LVL9:
 152 0010 4FF48172 		mov	r2, #258
 153 0014 4021     		movs	r1, #64
 154              		.loc 1 102 0
 155 0016 1D70     		strb	r5, [r3]
 156              		.loc 1 105 0
 157 0018 FFF7FEFF 		bl	_pal_lld_setgroupmode
 158              	.LVL10:
 159              		.loc 1 106 0
 160 001c 4FF48172 		mov	r2, #258
 161 0020 2046     		mov	r0, r4
 162 0022 8021     		movs	r1, #128
 163 0024 FFF7FEFF 		bl	_pal_lld_setgroupmode
 164              	.LVL11:
 165              		.loc 1 110 0
 166 0028 0121     		movs	r1, #1
 167 002a 0420     		movs	r0, #4
 168              		.loc 1 115 0
 169 002c A4F5FE34 		sub	r4, r4, #130048
 170              		.loc 1 110 0
 171 0030 FFF7FEFF 		bl	RCC_APB1PeriphClockCmd
ARM GAS  /var/folders/sv/kgmgr77579zbf78p2zlhkdfr0000gn/T//cc39nIKV.s 			page 4


 172              	.LVL12:
 173              		.loc 1 113 0
 174 0034 0121     		movs	r1, #1
 175 0036 4FF48040 		mov	r0, #16384
 176 003a FFF7FEFF 		bl	RCC_APB2PeriphClockCmd
 177              	.LVL13:
 178              		.loc 1 115 0
 179 003e 2A46     		mov	r2, r5
 180 0040 2B46     		mov	r3, r5
 181 0042 2046     		mov	r0, r4
 182 0044 0321     		movs	r1, #3
 183 0046 FFF7FEFF 		bl	TIM_EncoderInterfaceConfig
 184              	.LVL14:
 185              		.loc 1 118 0
 186 004a 3168     		ldr	r1, [r6]
 187 004c 2046     		mov	r0, r4
 188 004e 0139     		subs	r1, r1, #1
 189 0050 FFF7FEFF 		bl	TIM_SetAutoreload
 190              	.LVL15:
 191              		.loc 1 121 0
 192 0054 A369     		ldr	r3, [r4, #24]
 193 0056 43F4C043 		orr	r3, r3, #24576
 194 005a 43F06003 		orr	r3, r3, #96
 195 005e A361     		str	r3, [r4, #24]
 196              		.loc 1 122 0
 197 0060 E369     		ldr	r3, [r4, #28]
 198 0062 43F06003 		orr	r3, r3, #96
 199 0066 E361     		str	r3, [r4, #28]
 200              		.loc 1 124 0
 201 0068 2046     		mov	r0, r4
 202 006a 0121     		movs	r1, #1
 203 006c FFF7FEFF 		bl	TIM_Cmd
 204              	.LVL16:
 205              		.loc 1 129 0
 206 0070 0B21     		movs	r1, #11
 207 0072 0220     		movs	r0, #2
 208 0074 FFF7FEFF 		bl	SYSCFG_EXTILineConfig
 209              	.LVL17:
 210              		.loc 1 135 0
 211 0078 0124     		movs	r4, #1
 212              		.loc 1 132 0
 213 007a 4FF40062 		mov	r2, #2048
 214              		.loc 1 134 0
 215 007e 0823     		movs	r3, #8
 216              		.loc 1 136 0
 217 0080 6846     		mov	r0, sp
 218              		.loc 1 134 0
 219 0082 8DF80530 		strb	r3, [sp, #5]
 220              		.loc 1 132 0
 221 0086 0092     		str	r2, [sp]
 222              		.loc 1 133 0
 223 0088 8DF80450 		strb	r5, [sp, #4]
 224              		.loc 1 135 0
 225 008c 8DF80640 		strb	r4, [sp, #6]
 226              		.loc 1 136 0
 227 0090 FFF7FEFF 		bl	EXTI_Init
 228              	.LVL18:
ARM GAS  /var/folders/sv/kgmgr77579zbf78p2zlhkdfr0000gn/T//cc39nIKV.s 			page 5


 229              		.loc 1 139 0
 230 0094 2946     		mov	r1, r5
 231 0096 2820     		movs	r0, #40
 232 0098 FFF7FEFF 		bl	nvicEnableVector
 233              	.LVL19:
 234              		.loc 1 141 0
 235 009c 044B     		ldr	r3, .L7+12
 236 009e 1C70     		strb	r4, [r3]
 237              		.loc 1 142 0
 238 00a0 02B0     		add	sp, sp, #8
 239              		.cfi_def_cfa_offset 16
 240              		@ sp needed
 241 00a2 70BD     		pop	{r4, r5, r6, pc}
 242              	.L8:
 243              		.align	2
 244              	.L7:
 245 00a4 00000000 		.word	.LANCHOR3
 246 00a8 00040240 		.word	1073873920
 247 00ac 00000000 		.word	.LANCHOR0
 248 00b0 00000000 		.word	.LANCHOR1
 249              		.cfi_endproc
 250              	.LFE257:
 251              		.size	encoder_init_abi, .-encoder_init_abi
 252              		.section	.text.encoder_init_as5047p_spi,"ax",%progbits
 253              		.align	2
 254              		.p2align 4,,15
 255              		.global	encoder_init_as5047p_spi
 256              		.thumb
 257              		.thumb_func
 258              		.type	encoder_init_as5047p_spi, %function
 259              	encoder_init_as5047p_spi:
 260              	.LFB258:
 261              		.loc 1 144 0
 262              		.cfi_startproc
 263              		@ args = 0, pretend = 0, frame = 16
 264              		@ frame_needed = 0, uses_anonymous_args = 0
 265 0000 30B5     		push	{r4, r5, lr}
 266              		.cfi_def_cfa_offset 12
 267              		.cfi_offset 4, -12
 268              		.cfi_offset 5, -8
 269              		.cfi_offset 14, -4
 270              		.loc 1 147 0
 271 0002 214C     		ldr	r4, .L11
 272              		.loc 1 166 0
 273 0004 214D     		ldr	r5, .L11+4
 274              		.loc 1 144 0
 275 0006 85B0     		sub	sp, sp, #20
 276              		.cfi_def_cfa_offset 32
 277              		.loc 1 147 0
 278 0008 2046     		mov	r0, r4
 279 000a 0022     		movs	r2, #0
 280 000c 4021     		movs	r1, #64
 281 000e FFF7FEFF 		bl	_pal_lld_setgroupmode
 282              	.LVL20:
 283              		.loc 1 148 0
 284 0012 2046     		mov	r0, r4
 285 0014 1922     		movs	r2, #25
ARM GAS  /var/folders/sv/kgmgr77579zbf78p2zlhkdfr0000gn/T//cc39nIKV.s 			page 6


 286 0016 2021     		movs	r1, #32
 287 0018 FFF7FEFF 		bl	_pal_lld_setgroupmode
 288              	.LVL21:
 289              		.loc 1 149 0
 290 001c 2046     		mov	r0, r4
 291 001e 1922     		movs	r2, #25
 292 0020 1021     		movs	r1, #16
 293 0022 FFF7FEFF 		bl	_pal_lld_setgroupmode
 294              	.LVL22:
 295              		.loc 1 153 0
 296 0026 2046     		mov	r0, r4
 297 0028 1922     		movs	r2, #25
 298 002a 8021     		movs	r1, #128
 299 002c FFF7FEFF 		bl	_pal_lld_setgroupmode
 300              	.LVL23:
 301              		.loc 1 154 0
 302 0030 8023     		movs	r3, #128
 303 0032 2383     		strh	r3, [r4, #24]	@ movhi
 304              		.loc 1 158 0
 305 0034 0121     		movs	r1, #1
 306 0036 0420     		movs	r0, #4
 307 0038 FFF7FEFF 		bl	RCC_APB1PeriphClockCmd
 308              	.LVL24:
 309              		.loc 1 161 0
 310 003c 0023     		movs	r3, #0
 311              		.loc 1 166 0
 312 003e 2846     		mov	r0, r5
 313              		.loc 1 163 0
 314 0040 41F26702 		movw	r2, #4199
 315              		.loc 1 166 0
 316 0044 01A9     		add	r1, sp, #4
 317              		.loc 1 161 0
 318 0046 ADF80430 		strh	r3, [sp, #4]	@ movhi
 319              		.loc 1 162 0
 320 004a ADF80630 		strh	r3, [sp, #6]	@ movhi
 321              		.loc 1 164 0
 322 004e ADF80C30 		strh	r3, [sp, #12]	@ movhi
 323              		.loc 1 165 0
 324 0052 8DF80E30 		strb	r3, [sp, #14]
 325              		.loc 1 163 0
 326 0056 0292     		str	r2, [sp, #8]
 327              		.loc 1 166 0
 328 0058 FFF7FEFF 		bl	TIM_TimeBaseInit
 329              	.LVL25:
 330              		.loc 1 169 0
 331 005c 0122     		movs	r2, #1
 332 005e 1146     		mov	r1, r2
 333 0060 2846     		mov	r0, r5
 334 0062 FFF7FEFF 		bl	TIM_ITConfig
 335              	.LVL26:
 336              		.loc 1 172 0
 337 0066 2846     		mov	r0, r5
 338 0068 0121     		movs	r1, #1
 339 006a FFF7FEFF 		bl	TIM_Cmd
 340              	.LVL27:
 341              		.loc 1 174 0
 342 006e 0621     		movs	r1, #6
ARM GAS  /var/folders/sv/kgmgr77579zbf78p2zlhkdfr0000gn/T//cc39nIKV.s 			page 7


 343 0070 1E20     		movs	r0, #30
 344 0072 FFF7FEFF 		bl	nvicEnableVector
 345              	.LVL28:
 346              		.loc 1 176 0
 347 0076 0649     		ldr	r1, .L11+8
 348              		.loc 1 177 0
 349 0078 064B     		ldr	r3, .L11+12
 350              		.loc 1 176 0
 351 007a 0220     		movs	r0, #2
 352              		.loc 1 177 0
 353 007c 0122     		movs	r2, #1
 354              		.loc 1 176 0
 355 007e 0870     		strb	r0, [r1]
 356              		.loc 1 177 0
 357 0080 1A70     		strb	r2, [r3]
 358              		.loc 1 178 0
 359 0082 05B0     		add	sp, sp, #20
 360              		.cfi_def_cfa_offset 12
 361              		@ sp needed
 362 0084 30BD     		pop	{r4, r5, pc}
 363              	.L12:
 364 0086 00BF     		.align	2
 365              	.L11:
 366 0088 00000240 		.word	1073872896
 367 008c 00080040 		.word	1073743872
 368 0090 00000000 		.word	.LANCHOR1
 369 0094 00000000 		.word	.LANCHOR0
 370              		.cfi_endproc
 371              	.LFE258:
 372              		.size	encoder_init_as5047p_spi, .-encoder_init_as5047p_spi
 373              		.section	.text.encoder_is_configured,"ax",%progbits
 374              		.align	2
 375              		.p2align 4,,15
 376              		.global	encoder_is_configured
 377              		.thumb
 378              		.thumb_func
 379              		.type	encoder_is_configured, %function
 380              	encoder_is_configured:
 381              	.LFB259:
 382              		.loc 1 180 0
 383              		.cfi_startproc
 384              		@ args = 0, pretend = 0, frame = 0
 385              		@ frame_needed = 0, uses_anonymous_args = 0
 386              		@ link register save eliminated.
 387              		.loc 1 181 0
 388 0000 024B     		ldr	r3, .L14
 389 0002 1878     		ldrb	r0, [r3]	@ zero_extendqisi2
 390              		.loc 1 182 0
 391 0004 0030     		adds	r0, r0, #0
 392 0006 18BF     		it	ne
 393 0008 0120     		movne	r0, #1
 394 000a 7047     		bx	lr
 395              	.L15:
 396              		.align	2
 397              	.L14:
 398 000c 00000000 		.word	.LANCHOR1
 399              		.cfi_endproc
ARM GAS  /var/folders/sv/kgmgr77579zbf78p2zlhkdfr0000gn/T//cc39nIKV.s 			page 8


 400              	.LFE259:
 401              		.size	encoder_is_configured, .-encoder_is_configured
 402              		.section	.text.encoder_read_deg,"ax",%progbits
 403              		.align	2
 404              		.p2align 4,,15
 405              		.global	encoder_read_deg
 406              		.thumb
 407              		.thumb_func
 408              		.type	encoder_read_deg, %function
 409              	encoder_read_deg:
 410              	.LFB260:
 411              		.loc 1 184 0
 412              		.cfi_startproc
 413              		@ args = 0, pretend = 0, frame = 0
 414              		@ frame_needed = 0, uses_anonymous_args = 0
 415              		.loc 1 187 0
 416 0000 144B     		ldr	r3, .L25
 417 0002 1B78     		ldrb	r3, [r3]	@ zero_extendqisi2
 418 0004 012B     		cmp	r3, #1
 419 0006 10D0     		beq	.L18
 420 0008 022B     		cmp	r3, #2
 421 000a 0AD1     		bne	.L24
 422              		.loc 1 184 0
 423 000c 10B5     		push	{r4, lr}
 424              		.cfi_def_cfa_offset 8
 425              		.cfi_offset 4, -8
 426              		.cfi_offset 14, -4
 427              		.loc 1 193 0
 428 000e 124C     		ldr	r4, .L25+4
 429 0010 2046     		mov	r0, r4
 430 0012 FFF7FEFF 		bl	utils_norm_angle
 431              	.LVL29:
 432              		.loc 1 194 0
 433 0016 94ED000A 		vldr.32	s0, [r4]
 434 001a 104B     		ldr	r3, .L25+8
 435 001c 83ED000A 		vstr.32	s0, [r3]
 436              		.loc 1 202 0
 437 0020 10BD     		pop	{r4, pc}
 438              	.L24:
 439              		.cfi_def_cfa_offset 0
 440              		.cfi_restore 4
 441              		.cfi_restore 14
 442 0022 0E4B     		ldr	r3, .L25+8
 443 0024 93ED000A 		vldr.32	s0, [r3]
 444 0028 7047     		bx	lr
 445              	.L18:
 446              		.loc 1 189 0
 447 002a 0D4A     		ldr	r2, .L25+12
 448 002c 0D4B     		ldr	r3, .L25+16
 449 002e D2ED097A 		vldr.32	s15, [r2, #36]	@ int
 450 0032 93ED007A 		vldr.32	s14, [r3]	@ int
 451 0036 DFED0C6A 		vldr.32	s13, .L25+20
 452 003a 084B     		ldr	r3, .L25+8
 453 003c F8EE677A 		vcvt.f32.u32	s15, s15
 454 0040 B8EE477A 		vcvt.f32.u32	s14, s14
 455 0044 67EEA67A 		vmul.f32	s15, s15, s13
 456 0048 87EE870A 		vdiv.f32	s0, s15, s14
ARM GAS  /var/folders/sv/kgmgr77579zbf78p2zlhkdfr0000gn/T//cc39nIKV.s 			page 9


 457 004c 83ED000A 		vstr.32	s0, [r3]
 458              		.loc 1 190 0
 459 0050 7047     		bx	lr
 460              	.L26:
 461 0052 00BF     		.align	2
 462              	.L25:
 463 0054 00000000 		.word	.LANCHOR1
 464 0058 00000000 		.word	.LANCHOR2
 465 005c 00000000 		.word	.LANCHOR4
 466 0060 00080040 		.word	1073743872
 467 0064 00000000 		.word	.LANCHOR3
 468 0068 0000B443 		.word	1135869952
 469              		.cfi_endproc
 470              	.LFE260:
 471              		.size	encoder_read_deg, .-encoder_read_deg
 472              		.section	.text.encoder_reset,"ax",%progbits
 473              		.align	2
 474              		.p2align 4,,15
 475              		.global	encoder_reset
 476              		.thumb
 477              		.thumb_func
 478              		.type	encoder_reset, %function
 479              	encoder_reset:
 480              	.LFB261:
 481              		.loc 1 207 0
 482              		.cfi_startproc
 483              		@ args = 0, pretend = 0, frame = 0
 484              		@ frame_needed = 0, uses_anonymous_args = 0
 485              	.LBB139:
 486              	.LBB140:
 487              		.file 2 "ChibiOS_3.0.2/os/ext/CMSIS/include/core_cmInstr.h"
 488              		.loc 2 327 0
 489              		.syntax unified
 490              	@ 327 "ChibiOS_3.0.2/os/ext/CMSIS/include/core_cmInstr.h" 1
 491 0000 00BF     		nop
 492              	@ 0 "" 2
 493              		.thumb
 494              		.syntax unified
 495              	.LBE140:
 496              	.LBE139:
 497              	.LBB141:
 498              	.LBB142:
 499              		.syntax unified
 500              	@ 327 "ChibiOS_3.0.2/os/ext/CMSIS/include/core_cmInstr.h" 1
 501 0002 00BF     		nop
 502              	@ 0 "" 2
 503              		.thumb
 504              		.syntax unified
 505              	.LBE142:
 506              	.LBE141:
 507              	.LBB143:
 508              	.LBB144:
 509              		.syntax unified
 510              	@ 327 "ChibiOS_3.0.2/os/ext/CMSIS/include/core_cmInstr.h" 1
 511 0004 00BF     		nop
 512              	@ 0 "" 2
 513              		.thumb
ARM GAS  /var/folders/sv/kgmgr77579zbf78p2zlhkdfr0000gn/T//cc39nIKV.s 			page 10


 514              		.syntax unified
 515              	.LBE144:
 516              	.LBE143:
 517              	.LBB145:
 518              	.LBB146:
 519              		.syntax unified
 520              	@ 327 "ChibiOS_3.0.2/os/ext/CMSIS/include/core_cmInstr.h" 1
 521 0006 00BF     		nop
 522              	@ 0 "" 2
 523              		.thumb
 524              		.syntax unified
 525              	.LBE146:
 526              	.LBE145:
 527              		.loc 1 214 0
 528 0008 174B     		ldr	r3, .L36
 529 000a 1B69     		ldr	r3, [r3, #16]
 530 000c 1B05     		lsls	r3, r3, #20
 531 000e 1AD5     		bpl	.L35
 532              	.LBB147:
 533              		.loc 1 219 0
 534 0010 164A     		ldr	r2, .L36+4
 535              		.loc 1 215 0
 536 0012 1749     		ldr	r1, .L36+8
 537              		.loc 1 219 0
 538 0014 1378     		ldrb	r3, [r2]	@ zero_extendqisi2
 539              		.loc 1 215 0
 540 0016 486A     		ldr	r0, [r1, #36]
 541              	.LVL30:
 542              		.loc 1 219 0
 543 0018 B3B1     		cbz	r3, .L30
 544              		.loc 1 217 0
 545 001a 1649     		ldr	r1, .L36+12
 546 001c 164B     		ldr	r3, .L36+16
 547 001e 0968     		ldr	r1, [r1]
 548              	.LBE147:
 549              		.loc 1 207 0
 550 0020 00B5     		push	{lr}
 551              		.cfi_def_cfa_offset 4
 552              		.cfi_offset 14, -4
 553              	.LBB148:
 554              		.loc 1 217 0
 555 0022 A3FB01E3 		umull	lr, r3, r3, r1
 556 0026 1B09     		lsrs	r3, r3, #4
 557              		.loc 1 221 0
 558 0028 C91A     		subs	r1, r1, r3
 559 002a 8842     		cmp	r0, r1
 560 002c 12D8     		bhi	.L31
 561              		.loc 1 221 0 is_stmt 0 discriminator 1
 562 002e 9842     		cmp	r0, r3
 563 0030 10D3     		bcc	.L31
 564              		.loc 1 225 0 is_stmt 1
 565 0032 1249     		ldr	r1, .L36+20
 566 0034 0B68     		ldr	r3, [r1]
 567 0036 0133     		adds	r3, r3, #1
 568              		.loc 1 227 0
 569 0038 052B     		cmp	r3, #5
 570              		.loc 1 225 0
ARM GAS  /var/folders/sv/kgmgr77579zbf78p2zlhkdfr0000gn/T//cc39nIKV.s 			page 11


 571 003a 0B60     		str	r3, [r1]
 572              		.loc 1 227 0
 573 003c 11DD     		ble	.L27
 574              		.loc 1 228 0
 575 003e 0023     		movs	r3, #0
 576 0040 1370     		strb	r3, [r2]
 577 0042 5DF804FB 		ldr	pc, [sp], #4
 578              	.LVL31:
 579              	.L35:
 580              		.cfi_def_cfa_offset 0
 581              		.cfi_restore 14
 582 0046 7047     		bx	lr
 583              	.LVL32:
 584              	.L30:
 585              		.loc 1 234 0
 586 0048 0C48     		ldr	r0, .L36+20
 587              	.LVL33:
 588              		.loc 1 232 0
 589 004a 4B62     		str	r3, [r1, #36]
 590              	.LVL34:
 591              		.loc 1 233 0
 592 004c 0121     		movs	r1, #1
 593              		.loc 1 234 0
 594 004e 0360     		str	r3, [r0]
 595              		.loc 1 233 0
 596 0050 1170     		strb	r1, [r2]
 597              	.LBE148:
 598              		.loc 1 237 0
 599 0052 7047     		bx	lr
 600              	.LVL35:
 601              	.L31:
 602              		.cfi_def_cfa_offset 4
 603              		.cfi_offset 14, -4
 604              	.LBB149:
 605              		.loc 1 222 0
 606 0054 0649     		ldr	r1, .L36+8
 607              		.loc 1 223 0
 608 0056 094A     		ldr	r2, .L36+20
 609              		.loc 1 222 0
 610 0058 0023     		movs	r3, #0
 611 005a 4B62     		str	r3, [r1, #36]
 612              	.LVL36:
 613              		.loc 1 223 0
 614 005c 1360     		str	r3, [r2]
 615 005e 5DF804FB 		ldr	pc, [sp], #4
 616              	.LVL37:
 617              	.L27:
 618 0062 5DF804FB 		ldr	pc, [sp], #4
 619              	.L37:
 620 0066 00BF     		.align	2
 621              	.L36:
 622 0068 00080240 		.word	1073874944
 623 006c 00000000 		.word	.LANCHOR0
 624 0070 00080040 		.word	1073743872
 625 0074 00000000 		.word	.LANCHOR3
 626 0078 CDCCCCCC 		.word	-858993459
 627 007c 00000000 		.word	.LANCHOR5
ARM GAS  /var/folders/sv/kgmgr77579zbf78p2zlhkdfr0000gn/T//cc39nIKV.s 			page 12


 628              	.LBE149:
 629              		.cfi_endproc
 630              	.LFE261:
 631              		.size	encoder_reset, .-encoder_reset
 632              		.section	.text.encoder_tim_isr,"ax",%progbits
 633              		.align	2
 634              		.p2align 4,,15
 635              		.global	encoder_tim_isr
 636              		.thumb
 637              		.thumb_func
 638              		.type	encoder_tim_isr, %function
 639              	encoder_tim_isr:
 640              	.LFB262:
 641              		.loc 1 242 0
 642              		.cfi_startproc
 643              		@ args = 0, pretend = 0, frame = 0
 644              		@ frame_needed = 0, uses_anonymous_args = 0
 645 0000 2DE9F041 		push	{r4, r5, r6, r7, r8, lr}
 646              		.cfi_def_cfa_offset 24
 647              		.cfi_offset 4, -24
 648              		.cfi_offset 5, -20
 649              		.cfi_offset 6, -16
 650              		.cfi_offset 7, -12
 651              		.cfi_offset 8, -8
 652              		.cfi_offset 14, -4
 653              	.LBB191:
 654              	.LBB192:
 655              		.loc 1 314 0
 656 0004 244D     		ldr	r5, .L47
 657 0006 1026     		movs	r6, #16
 658              	.LBE192:
 659              	.LBE191:
 660              	.LBB195:
 661              	.LBB196:
 662              	.LBB197:
 663              	.LBB198:
 664              	.LBB199:
 665              		.loc 1 288 0
 666 0008 2027     		movs	r7, #32
 667              	.LBE199:
 668              	.LBE198:
 669              	.LBE197:
 670              	.LBE196:
 671              	.LBE195:
 672              	.LBB239:
 673              	.LBB193:
 674              		.loc 1 314 0
 675 000a 6E83     		strh	r6, [r5, #26]	@ movhi
 676              	.LVL38:
 677              	.LBE193:
 678              	.LBE239:
 679              	.LBB240:
 680              	.LBB237:
 681              	.LBB235:
 682              	.LBB233:
 683              	.LBB231:
 684              		.loc 1 288 0
ARM GAS  /var/folders/sv/kgmgr77579zbf78p2zlhkdfr0000gn/T//cc39nIKV.s 			page 13


 685 000c B846     		mov	r8, r7	@ movhi
 686              	.LBE231:
 687              	.LBE233:
 688              	.LBE235:
 689              	.LBE237:
 690              	.LBE240:
 691              	.LBB241:
 692              	.LBB194:
 693              		.loc 1 314 0
 694 000e 0024     		movs	r4, #0
 695              	.LVL39:
 696              	.L40:
 697              	.LBE194:
 698              	.LBE241:
 699              	.LBB242:
 700              	.LBB238:
 701              	.LBB236:
 702              	.LBB234:
 703              	.LBB232:
 704              	.LBB200:
 705              	.LBB201:
 706              	.LBB202:
 707              		.loc 2 327 0
 708              		.syntax unified
 709              	@ 327 "ChibiOS_3.0.2/os/ext/CMSIS/include/core_cmInstr.h" 1
 710 0010 00BF     		nop
 711              	@ 0 "" 2
 712              		.thumb
 713              		.syntax unified
 714              	.LBE202:
 715              	.LBE201:
 716              	.LBB203:
 717              	.LBB204:
 718              		.syntax unified
 719              	@ 327 "ChibiOS_3.0.2/os/ext/CMSIS/include/core_cmInstr.h" 1
 720 0012 00BF     		nop
 721              	@ 0 "" 2
 722              		.thumb
 723              		.syntax unified
 724              	.LBE204:
 725              	.LBE203:
 726              	.LBB205:
 727              	.LBB206:
 728              		.syntax unified
 729              	@ 327 "ChibiOS_3.0.2/os/ext/CMSIS/include/core_cmInstr.h" 1
 730 0014 00BF     		nop
 731              	@ 0 "" 2
 732              		.thumb
 733              		.syntax unified
 734              	.LBE206:
 735              	.LBE205:
 736              	.LBB207:
 737              	.LBB208:
 738              		.syntax unified
 739              	@ 327 "ChibiOS_3.0.2/os/ext/CMSIS/include/core_cmInstr.h" 1
 740 0016 00BF     		nop
 741              	@ 0 "" 2
ARM GAS  /var/folders/sv/kgmgr77579zbf78p2zlhkdfr0000gn/T//cc39nIKV.s 			page 14


 742              		.thumb
 743              		.syntax unified
 744              	.LBE208:
 745              	.LBE207:
 746              	.LBE200:
 747              		.loc 1 288 0
 748 0018 A5F81880 		strh	r8, [r5, #24]	@ movhi
 749              	.LBB209:
 750              	.LBB210:
 751              	.LBB211:
 752              		.loc 2 327 0
 753              		.syntax unified
 754              	@ 327 "ChibiOS_3.0.2/os/ext/CMSIS/include/core_cmInstr.h" 1
 755 001c 00BF     		nop
 756              	@ 0 "" 2
 757              		.thumb
 758              		.syntax unified
 759              	.LBE211:
 760              	.LBE210:
 761              	.LBB212:
 762              	.LBB213:
 763              		.syntax unified
 764              	@ 327 "ChibiOS_3.0.2/os/ext/CMSIS/include/core_cmInstr.h" 1
 765 001e 00BF     		nop
 766              	@ 0 "" 2
 767              		.thumb
 768              		.syntax unified
 769              	.LBE213:
 770              	.LBE212:
 771              	.LBB214:
 772              	.LBB215:
 773              		.syntax unified
 774              	@ 327 "ChibiOS_3.0.2/os/ext/CMSIS/include/core_cmInstr.h" 1
 775 0020 00BF     		nop
 776              	@ 0 "" 2
 777              		.thumb
 778              		.syntax unified
 779              	.LBE215:
 780              	.LBE214:
 781              	.LBB216:
 782              	.LBB217:
 783              		.syntax unified
 784              	@ 327 "ChibiOS_3.0.2/os/ext/CMSIS/include/core_cmInstr.h" 1
 785 0022 00BF     		nop
 786              	@ 0 "" 2
 787              		.thumb
 788              		.syntax unified
 789              	.LBE217:
 790              	.LBE216:
 791              	.LBE209:
 792              		.loc 1 292 0
 793 0024 2869     		ldr	r0, [r5, #16]
 794              	.LVL40:
 795              	.LBB218:
 796              	.LBB219:
 797              		.loc 2 327 0
 798              		.syntax unified
ARM GAS  /var/folders/sv/kgmgr77579zbf78p2zlhkdfr0000gn/T//cc39nIKV.s 			page 15


 799              	@ 327 "ChibiOS_3.0.2/os/ext/CMSIS/include/core_cmInstr.h" 1
 800 0026 00BF     		nop
 801              	@ 0 "" 2
 802              		.thumb
 803              		.syntax unified
 804              	.LBE219:
 805              	.LBE218:
 806              		.loc 1 294 0
 807 0028 2969     		ldr	r1, [r5, #16]
 808              	.LVL41:
 809              	.LBB220:
 810              	.LBB221:
 811              		.loc 2 327 0
 812              		.syntax unified
 813              	@ 327 "ChibiOS_3.0.2/os/ext/CMSIS/include/core_cmInstr.h" 1
 814 002a 00BF     		nop
 815              	@ 0 "" 2
 816              		.thumb
 817              		.syntax unified
 818              	.LBE221:
 819              	.LBE220:
 820              		.loc 1 296 0
 821 002c 2A69     		ldr	r2, [r5, #16]
 822              	.LVL42:
 823              		.loc 1 298 0
 824 002e 6400     		lsls	r4, r4, #1
 825              	.LVL43:
 826              		.loc 1 299 0
 827 0030 C1F38011 		ubfx	r1, r1, #6, #1
 828              	.LVL44:
 829 0034 C0F38010 		ubfx	r0, r0, #6, #1
 830              	.LVL45:
 831 0038 C2F38012 		ubfx	r2, r2, #6, #1
 832              	.LVL46:
 833              		.loc 1 298 0
 834 003c A4B2     		uxth	r4, r4
 835              	.LVL47:
 836              		.loc 1 299 0
 837 003e FFF7FEFF 		bl	utils_middle_of_3_int
 838              	.LVL48:
 839 0042 08B1     		cbz	r0, .L42
 840              		.loc 1 300 0
 841 0044 44F00104 		orr	r4, r4, #1
 842              	.LVL49:
 843              	.L42:
 844              		.loc 1 303 0
 845 0048 6F83     		strh	r7, [r5, #26]	@ movhi
 846 004a 134B     		ldr	r3, .L47
 847              	.LBB222:
 848              	.LBB223:
 849              	.LBB224:
 850              		.loc 2 327 0
 851              		.syntax unified
 852              	@ 327 "ChibiOS_3.0.2/os/ext/CMSIS/include/core_cmInstr.h" 1
 853 004c 00BF     		nop
 854              	@ 0 "" 2
 855              		.thumb
ARM GAS  /var/folders/sv/kgmgr77579zbf78p2zlhkdfr0000gn/T//cc39nIKV.s 			page 16


 856              		.syntax unified
 857              	.LBE224:
 858              	.LBE223:
 859              	.LBB225:
 860              	.LBB226:
 861              		.syntax unified
 862              	@ 327 "ChibiOS_3.0.2/os/ext/CMSIS/include/core_cmInstr.h" 1
 863 004e 00BF     		nop
 864              	@ 0 "" 2
 865              		.thumb
 866              		.syntax unified
 867              	.LBE226:
 868              	.LBE225:
 869              	.LBB227:
 870              	.LBB228:
 871              		.syntax unified
 872              	@ 327 "ChibiOS_3.0.2/os/ext/CMSIS/include/core_cmInstr.h" 1
 873 0050 00BF     		nop
 874              	@ 0 "" 2
 875              		.thumb
 876              		.syntax unified
 877              	.LBE228:
 878              	.LBE227:
 879              	.LBB229:
 880              	.LBB230:
 881              		.syntax unified
 882              	@ 327 "ChibiOS_3.0.2/os/ext/CMSIS/include/core_cmInstr.h" 1
 883 0052 00BF     		nop
 884              	@ 0 "" 2
 885              	.LVL50:
 886              		.thumb
 887              		.syntax unified
 888              	.LBE230:
 889              	.LBE229:
 890              	.LBE222:
 891              	.LBE232:
 892              		.loc 1 283 0
 893 0054 013E     		subs	r6, r6, #1
 894              	.LVL51:
 895 0056 DBD1     		bne	.L40
 896              	.LVL52:
 897              	.LBE234:
 898              	.LBE236:
 899              	.LBE238:
 900              	.LBE242:
 901              		.loc 1 250 0
 902 0058 C4F30D02 		ubfx	r2, r4, #0, #14
 903 005c 07EE902A 		vmov	s15, r2	@ int
 904 0060 9FED0E7A 		vldr.32	s14, .L47+4
 905 0064 0E4C     		ldr	r4, .L47+8
 906              	.LVL53:
 907 0066 DFED0F0A 		vldr.32	s1, .L47+12
 908 006a F8EE677A 		vcvt.f32.u32	s15, s15
 909              	.LBB243:
 910              	.LBB244:
 911              		.loc 1 318 0
 912 006e 1022     		movs	r2, #16
ARM GAS  /var/folders/sv/kgmgr77579zbf78p2zlhkdfr0000gn/T//cc39nIKV.s 			page 17


 913              	.LBE244:
 914              	.LBE243:
 915              		.loc 1 250 0
 916 0070 67EE877A 		vmul.f32	s15, s15, s14
 917              	.LBB246:
 918              	.LBB245:
 919              		.loc 1 318 0
 920 0074 1A83     		strh	r2, [r3, #24]	@ movhi
 921              	.LBE245:
 922              	.LBE246:
 923              		.loc 1 250 0
 924 0076 67EEA00A 		vmul.f32	s1, s15, s1
 925 007a 94ED000A 		vldr.32	s0, [r4]
 926 007e FFF7FEFF 		bl	utils_angle_difference
 927              	.LVL54:
 928 0082 D4ED007A 		vldr.32	s15, [r4]
 929 0086 9FED087A 		vldr.32	s14, .L47+16
 930 008a E0EE477A 		vfms.f32	s15, s0, s14
 931 008e C4ED007A 		vstr.32	s15, [r4]
 932 0092 BDE8F081 		pop	{r4, r5, r6, r7, r8, pc}
 933              	.L48:
 934 0096 00BF     		.align	2
 935              	.L47:
 936 0098 00000240 		.word	1073872896
 937 009c 0000B443 		.word	1135869952
 938 00a0 00000000 		.word	.LANCHOR2
 939 00a4 00008038 		.word	947912704
 940 00a8 0AD7233C 		.word	1008981770
 941              		.cfi_endproc
 942              	.LFE262:
 943              		.size	encoder_tim_isr, .-encoder_tim_isr
 944              		.section	.text.encoder_set_counts,"ax",%progbits
 945              		.align	2
 946              		.p2align 4,,15
 947              		.global	encoder_set_counts
 948              		.thumb
 949              		.thumb_func
 950              		.type	encoder_set_counts, %function
 951              	encoder_set_counts:
 952              	.LFB263:
 953              		.loc 1 259 0
 954              		.cfi_startproc
 955              		@ args = 0, pretend = 0, frame = 0
 956              		@ frame_needed = 0, uses_anonymous_args = 0
 957              	.LVL55:
 958              		.loc 1 260 0
 959 0000 074A     		ldr	r2, .L52
 960              		.loc 1 259 0
 961 0002 08B5     		push	{r3, lr}
 962              		.cfi_def_cfa_offset 8
 963              		.cfi_offset 3, -8
 964              		.cfi_offset 14, -4
 965              		.loc 1 260 0
 966 0004 1368     		ldr	r3, [r2]
 967 0006 8342     		cmp	r3, r0
 968 0008 08D0     		beq	.L49
 969 000a 0346     		mov	r3, r0
ARM GAS  /var/folders/sv/kgmgr77579zbf78p2zlhkdfr0000gn/T//cc39nIKV.s 			page 18


 970              		.loc 1 262 0
 971 000c 411E     		subs	r1, r0, #1
 972 000e 0548     		ldr	r0, .L52+4
 973              	.LVL56:
 974              		.loc 1 261 0
 975 0010 1360     		str	r3, [r2]
 976              		.loc 1 262 0
 977 0012 FFF7FEFF 		bl	TIM_SetAutoreload
 978              	.LVL57:
 979              		.loc 1 263 0
 980 0016 044B     		ldr	r3, .L52+8
 981 0018 0022     		movs	r2, #0
 982 001a 1A70     		strb	r2, [r3]
 983              	.L49:
 984 001c 08BD     		pop	{r3, pc}
 985              	.L53:
 986 001e 00BF     		.align	2
 987              	.L52:
 988 0020 00000000 		.word	.LANCHOR3
 989 0024 00080040 		.word	1073743872
 990 0028 00000000 		.word	.LANCHOR0
 991              		.cfi_endproc
 992              	.LFE263:
 993              		.size	encoder_set_counts, .-encoder_set_counts
 994              		.section	.text.encoder_index_found,"ax",%progbits
 995              		.align	2
 996              		.p2align 4,,15
 997              		.global	encoder_index_found
 998              		.thumb
 999              		.thumb_func
 1000              		.type	encoder_index_found, %function
 1001              	encoder_index_found:
 1002              	.LFB264:
 1003              		.loc 1 273 0
 1004              		.cfi_startproc
 1005              		@ args = 0, pretend = 0, frame = 0
 1006              		@ frame_needed = 0, uses_anonymous_args = 0
 1007              		@ link register save eliminated.
 1008              		.loc 1 274 0
 1009 0000 014B     		ldr	r3, .L55
 1010              		.loc 1 275 0
 1011 0002 1878     		ldrb	r0, [r3]	@ zero_extendqisi2
 1012 0004 7047     		bx	lr
 1013              	.L56:
 1014 0006 00BF     		.align	2
 1015              	.L55:
 1016 0008 00000000 		.word	.LANCHOR0
 1017              		.cfi_endproc
 1018              	.LFE264:
 1019              		.size	encoder_index_found, .-encoder_index_found
 1020              		.section	.data.enc_counts,"aw",%progbits
 1021              		.align	2
 1022              		.set	.LANCHOR3,. + 0
 1023              		.type	enc_counts, %object
 1024              		.size	enc_counts, 4
 1025              	enc_counts:
 1026 0000 10270000 		.word	10000
ARM GAS  /var/folders/sv/kgmgr77579zbf78p2zlhkdfr0000gn/T//cc39nIKV.s 			page 19


 1027              		.section	.bss.bad_pulses.9372,"aw",%nobits
 1028              		.align	2
 1029              		.set	.LANCHOR5,. + 0
 1030              		.type	bad_pulses.9372, %object
 1031              		.size	bad_pulses.9372, 4
 1032              	bad_pulses.9372:
 1033 0000 00000000 		.space	4
 1034              		.section	.bss.index_found,"aw",%nobits
 1035              		.set	.LANCHOR0,. + 0
 1036              		.type	index_found, %object
 1037              		.size	index_found, 1
 1038              	index_found:
 1039 0000 00       		.space	1
 1040              		.section	.bss.mode,"aw",%nobits
 1041              		.set	.LANCHOR1,. + 0
 1042              		.type	mode, %object
 1043              		.size	mode, 1
 1044              	mode:
 1045 0000 00       		.space	1
 1046              		.section	.bss.angle.9363,"aw",%nobits
 1047              		.align	2
 1048              		.set	.LANCHOR4,. + 0
 1049              		.type	angle.9363, %object
 1050              		.size	angle.9363, 4
 1051              	angle.9363:
 1052 0000 00000000 		.space	4
 1053              		.section	.bss.last_enc_angle,"aw",%nobits
 1054              		.align	2
 1055              		.set	.LANCHOR2,. + 0
 1056              		.type	last_enc_angle, %object
 1057              		.size	last_enc_angle, 4
 1058              	last_enc_angle:
 1059 0000 00000000 		.space	4
 1060              		.text
 1061              	.Letext0:
 1062              		.file 3 "/usr/local/Cellar/gcc-arm-none-eabi/20160928/arm-none-eabi/include/machine/_default_types
 1063              		.file 4 "/usr/local/Cellar/gcc-arm-none-eabi/20160928/arm-none-eabi/include/sys/_stdint.h"
 1064              		.file 5 "/usr/local/Cellar/gcc-arm-none-eabi/20160928/lib/gcc/arm-none-eabi/5.4.1/include/stddef.h
 1065              		.file 6 "ChibiOS_3.0.2/os/rt/ports/ARMCMx/compilers/GCC/chtypes.h"
 1066              		.file 7 "ChibiOS_3.0.2/os/rt/include/chsystypes.h"
 1067              		.file 8 "ChibiOS_3.0.2/os/rt/include/chschd.h"
 1068              		.file 9 "ChibiOS_3.0.2/os/ext/CMSIS/ST/stm32f407xx.h"
 1069              		.file 10 "ChibiOS_3.0.2/os/ext/CMSIS/ST/stm32f4xx.h"
 1070              		.file 11 "ChibiOS_3.0.2/os/rt/ports/ARMCMx/chcore.h"
 1071              		.file 12 "ChibiOS_3.0.2/os/rt/ports/ARMCMx/chcore_v7m.h"
 1072              		.file 13 "ChibiOS_3.0.2/os/rt/include/chtm.h"
 1073              		.file 14 "ChibiOS_3.0.2/os/rt/include/chsem.h"
 1074              		.file 15 "ChibiOS_3.0.2/os/rt/include/chmtx.h"
 1075              		.file 16 "ChibiOS_3.0.2/os/hal/ports/STM32/LLD/GPIOv2/pal_lld.h"
 1076              		.file 17 "ChibiOS_3.0.2/ext/stdperiph_stm32f4/inc/stm32f4xx_exti.h"
 1077              		.file 18 "ChibiOS_3.0.2/ext/stdperiph_stm32f4/inc/stm32f4xx_tim.h"
 1078              		.file 19 "ChibiOS_3.0.2/os/hal/ports/common/ARMCMx/nvic.h"
 1079              		.file 20 "ChibiOS_3.0.2/ext/stdperiph_stm32f4/inc/stm32f4xx_rcc.h"
 1080              		.file 21 "ChibiOS_3.0.2/ext/stdperiph_stm32f4/inc/stm32f4xx_syscfg.h"
 1081              		.file 22 "utils.h"
 1082              		.file 23 "ChibiOS_3.0.2/os/ext/CMSIS/include/core_cm4.h"