ARM GAS  /var/folders/sv/kgmgr77579zbf78p2zlhkdfr0000gn/T//ccOgYCfJ.s 			page 1


   1              		.syntax unified
   2              		.cpu cortex-m4
   3              		.eabi_attribute 27, 1
   4              		.eabi_attribute 28, 1
   5              		.fpu fpv4-sp-d16
   6              		.eabi_attribute 20, 1
   7              		.eabi_attribute 21, 1
   8              		.eabi_attribute 23, 3
   9              		.eabi_attribute 24, 1
  10              		.eabi_attribute 25, 1
  11              		.eabi_attribute 26, 1
  12              		.eabi_attribute 30, 2
  13              		.eabi_attribute 34, 1
  14              		.eabi_attribute 18, 4
  15              		.thumb
  16              		.syntax unified
  17              		.file	"icu.c"
  18              		.text
  19              	.Ltext0:
  20              		.cfi_sections	.debug_frame
  21              		.section	.text.icuInit,"ax",%progbits
  22              		.align	2
  23              		.p2align 4,,15
  24              		.global	icuInit
  25              		.thumb
  26              		.thumb_func
  27              		.type	icuInit, %function
  28              	icuInit:
  29              	.LFB256:
  30              		.file 1 "ChibiOS_3.0.2/os/hal/src/icu.c"
  31              		.loc 1 56 0
  32              		.cfi_startproc
  33              		@ args = 0, pretend = 0, frame = 0
  34              		@ frame_needed = 0, uses_anonymous_args = 0
  35              		@ link register save eliminated.
  36              		.loc 1 58 0
  37 0000 FFF7FEBF 		b	icu_lld_init
  38              	.LVL0:
  39              		.cfi_endproc
  40              	.LFE256:
  41              		.size	icuInit, .-icuInit
  42              		.section	.text.icuObjectInit,"ax",%progbits
  43              		.align	2
  44              		.p2align 4,,15
  45              		.global	icuObjectInit
  46              		.thumb
  47              		.thumb_func
  48              		.type	icuObjectInit, %function
  49              	icuObjectInit:
  50              	.LFB257:
  51              		.loc 1 68 0
  52              		.cfi_startproc
  53              		@ args = 0, pretend = 0, frame = 0
  54              		@ frame_needed = 0, uses_anonymous_args = 0
  55              		@ link register save eliminated.
  56              	.LVL1:
  57              		.loc 1 70 0
ARM GAS  /var/folders/sv/kgmgr77579zbf78p2zlhkdfr0000gn/T//ccOgYCfJ.s 			page 2


  58 0000 0122     		movs	r2, #1
  59              		.loc 1 71 0
  60 0002 0023     		movs	r3, #0
  61              		.loc 1 70 0
  62 0004 0270     		strb	r2, [r0]
  63              		.loc 1 71 0
  64 0006 4360     		str	r3, [r0, #4]
  65 0008 7047     		bx	lr
  66              		.cfi_endproc
  67              	.LFE257:
  68              		.size	icuObjectInit, .-icuObjectInit
  69 000a 00BF     		.section	.text.icuStart,"ax",%progbits
  70              		.align	2
  71              		.p2align 4,,15
  72              		.global	icuStart
  73              		.thumb
  74              		.thumb_func
  75              		.type	icuStart, %function
  76              	icuStart:
  77              	.LFB258:
  78              		.loc 1 82 0
  79              		.cfi_startproc
  80              		@ args = 0, pretend = 0, frame = 0
  81              		@ frame_needed = 0, uses_anonymous_args = 0
  82              	.LVL2:
  83 0000 10B5     		push	{r4, lr}
  84              		.cfi_def_cfa_offset 8
  85              		.cfi_offset 4, -8
  86              		.cfi_offset 14, -4
  87              	.LBB115:
  88              	.LBB116:
  89              	.LBB117:
  90              	.LBB118:
  91              	.LBB119:
  92              		.file 2 "ChibiOS_3.0.2/os/ext/CMSIS/include/core_cmFunc.h"
  93              		.loc 2 546 0
  94 0002 2023     		movs	r3, #32
  95              	.LBE119:
  96              	.LBE118:
  97              	.LBE117:
  98              	.LBE116:
  99              	.LBE115:
 100              		.loc 1 82 0
 101 0004 0446     		mov	r4, r0
 102              	.LBB124:
 103              	.LBB123:
 104              	.LBB122:
 105              	.LBB121:
 106              	.LBB120:
 107              		.loc 2 546 0
 108              		.syntax unified
 109              	@ 546 "ChibiOS_3.0.2/os/ext/CMSIS/include/core_cmFunc.h" 1
 110 0006 83F31188 		MSR basepri, r3
 111              	@ 0 "" 2
 112              	.LVL3:
 113              		.thumb
 114              		.syntax unified
ARM GAS  /var/folders/sv/kgmgr77579zbf78p2zlhkdfr0000gn/T//ccOgYCfJ.s 			page 3


 115              	.LBE120:
 116              	.LBE121:
 117              	.LBE122:
 118              	.LBE123:
 119              	.LBE124:
 120              		.loc 1 89 0
 121 000a 4160     		str	r1, [r0, #4]
 122              		.loc 1 90 0
 123 000c FFF7FEFF 		bl	icu_lld_start
 124              	.LVL4:
 125              		.loc 1 91 0
 126 0010 0223     		movs	r3, #2
 127 0012 2370     		strb	r3, [r4]
 128              	.LVL5:
 129              	.LBB125:
 130              	.LBB126:
 131              	.LBB127:
 132              	.LBB128:
 133              	.LBB129:
 134              	.LBB130:
 135              		.loc 2 546 0
 136 0014 0023     		movs	r3, #0
 137              		.syntax unified
 138              	@ 546 "ChibiOS_3.0.2/os/ext/CMSIS/include/core_cmFunc.h" 1
 139 0016 83F31188 		MSR basepri, r3
 140              	@ 0 "" 2
 141              	.LVL6:
 142              		.thumb
 143              		.syntax unified
 144 001a 10BD     		pop	{r4, pc}
 145              	.LBE130:
 146              	.LBE129:
 147              	.LBE128:
 148              	.LBE127:
 149              	.LBE126:
 150              	.LBE125:
 151              		.cfi_endproc
 152              	.LFE258:
 153              		.size	icuStart, .-icuStart
 154              		.section	.text.icuStop,"ax",%progbits
 155              		.align	2
 156              		.p2align 4,,15
 157              		.global	icuStop
 158              		.thumb
 159              		.thumb_func
 160              		.type	icuStop, %function
 161              	icuStop:
 162              	.LFB259:
 163              		.loc 1 102 0
 164              		.cfi_startproc
 165              		@ args = 0, pretend = 0, frame = 0
 166              		@ frame_needed = 0, uses_anonymous_args = 0
 167              	.LVL7:
 168 0000 10B5     		push	{r4, lr}
 169              		.cfi_def_cfa_offset 8
 170              		.cfi_offset 4, -8
 171              		.cfi_offset 14, -4
ARM GAS  /var/folders/sv/kgmgr77579zbf78p2zlhkdfr0000gn/T//ccOgYCfJ.s 			page 4


 172              	.LBB131:
 173              	.LBB132:
 174              	.LBB133:
 175              	.LBB134:
 176              	.LBB135:
 177              		.loc 2 546 0
 178 0002 2023     		movs	r3, #32
 179              	.LBE135:
 180              	.LBE134:
 181              	.LBE133:
 182              	.LBE132:
 183              	.LBE131:
 184              		.loc 1 102 0
 185 0004 0446     		mov	r4, r0
 186              	.LBB140:
 187              	.LBB139:
 188              	.LBB138:
 189              	.LBB137:
 190              	.LBB136:
 191              		.loc 2 546 0
 192              		.syntax unified
 193              	@ 546 "ChibiOS_3.0.2/os/ext/CMSIS/include/core_cmFunc.h" 1
 194 0006 83F31188 		MSR basepri, r3
 195              	@ 0 "" 2
 196              	.LVL8:
 197              		.thumb
 198              		.syntax unified
 199              	.LBE136:
 200              	.LBE137:
 201              	.LBE138:
 202              	.LBE139:
 203              	.LBE140:
 204              		.loc 1 109 0
 205 000a FFF7FEFF 		bl	icu_lld_stop
 206              	.LVL9:
 207              		.loc 1 110 0
 208 000e 0123     		movs	r3, #1
 209 0010 2370     		strb	r3, [r4]
 210              	.LVL10:
 211              	.LBB141:
 212              	.LBB142:
 213              	.LBB143:
 214              	.LBB144:
 215              	.LBB145:
 216              	.LBB146:
 217              		.loc 2 546 0
 218 0012 0023     		movs	r3, #0
 219              		.syntax unified
 220              	@ 546 "ChibiOS_3.0.2/os/ext/CMSIS/include/core_cmFunc.h" 1
 221 0014 83F31188 		MSR basepri, r3
 222              	@ 0 "" 2
 223              	.LVL11:
 224              		.thumb
 225              		.syntax unified
 226 0018 10BD     		pop	{r4, pc}
 227              	.LBE146:
 228              	.LBE145:
ARM GAS  /var/folders/sv/kgmgr77579zbf78p2zlhkdfr0000gn/T//ccOgYCfJ.s 			page 5


 229              	.LBE144:
 230              	.LBE143:
 231              	.LBE142:
 232              	.LBE141:
 233              		.cfi_endproc
 234              	.LFE259:
 235              		.size	icuStop, .-icuStop
 236 001a 00BF     		.section	.text.icuStartCapture,"ax",%progbits
 237              		.align	2
 238              		.p2align 4,,15
 239              		.global	icuStartCapture
 240              		.thumb
 241              		.thumb_func
 242              		.type	icuStartCapture, %function
 243              	icuStartCapture:
 244              	.LFB260:
 245              		.loc 1 121 0
 246              		.cfi_startproc
 247              		@ args = 0, pretend = 0, frame = 0
 248              		@ frame_needed = 0, uses_anonymous_args = 0
 249              	.LVL12:
 250 0000 10B5     		push	{r4, lr}
 251              		.cfi_def_cfa_offset 8
 252              		.cfi_offset 4, -8
 253              		.cfi_offset 14, -4
 254              	.LBB147:
 255              	.LBB148:
 256              	.LBB149:
 257              	.LBB150:
 258              	.LBB151:
 259              		.loc 2 546 0
 260 0002 2023     		movs	r3, #32
 261              	.LBE151:
 262              	.LBE150:
 263              	.LBE149:
 264              	.LBE148:
 265              	.LBE147:
 266              		.loc 1 121 0
 267 0004 0446     		mov	r4, r0
 268              	.LBB156:
 269              	.LBB155:
 270              	.LBB154:
 271              	.LBB153:
 272              	.LBB152:
 273              		.loc 2 546 0
 274              		.syntax unified
 275              	@ 546 "ChibiOS_3.0.2/os/ext/CMSIS/include/core_cmFunc.h" 1
 276 0006 83F31188 		MSR basepri, r3
 277              	@ 0 "" 2
 278              	.LVL13:
 279              		.thumb
 280              		.syntax unified
 281              	.LBE152:
 282              	.LBE153:
 283              	.LBE154:
 284              	.LBE155:
 285              	.LBE156:
ARM GAS  /var/folders/sv/kgmgr77579zbf78p2zlhkdfr0000gn/T//ccOgYCfJ.s 			page 6


 286              		.loc 1 127 0
 287 000a FFF7FEFF 		bl	icu_lld_start_capture
 288              	.LVL14:
 289 000e 0323     		movs	r3, #3
 290 0010 2370     		strb	r3, [r4]
 291              	.LVL15:
 292              	.LBB157:
 293              	.LBB158:
 294              	.LBB159:
 295              	.LBB160:
 296              	.LBB161:
 297              	.LBB162:
 298              		.loc 2 546 0
 299 0012 0023     		movs	r3, #0
 300              		.syntax unified
 301              	@ 546 "ChibiOS_3.0.2/os/ext/CMSIS/include/core_cmFunc.h" 1
 302 0014 83F31188 		MSR basepri, r3
 303              	@ 0 "" 2
 304              	.LVL16:
 305              		.thumb
 306              		.syntax unified
 307 0018 10BD     		pop	{r4, pc}
 308              	.LBE162:
 309              	.LBE161:
 310              	.LBE160:
 311              	.LBE159:
 312              	.LBE158:
 313              	.LBE157:
 314              		.cfi_endproc
 315              	.LFE260:
 316              		.size	icuStartCapture, .-icuStartCapture
 317 001a 00BF     		.section	.text.icuWaitCapture,"ax",%progbits
 318              		.align	2
 319              		.p2align 4,,15
 320              		.global	icuWaitCapture
 321              		.thumb
 322              		.thumb_func
 323              		.type	icuWaitCapture, %function
 324              	icuWaitCapture:
 325              	.LFB261:
 326              		.loc 1 147 0
 327              		.cfi_startproc
 328              		@ args = 0, pretend = 0, frame = 0
 329              		@ frame_needed = 0, uses_anonymous_args = 0
 330              	.LVL17:
 331 0000 10B5     		push	{r4, lr}
 332              		.cfi_def_cfa_offset 8
 333              		.cfi_offset 4, -8
 334              		.cfi_offset 14, -4
 335              	.LBB163:
 336              	.LBB164:
 337              	.LBB165:
 338              	.LBB166:
 339              	.LBB167:
 340              		.loc 2 546 0
 341 0002 2023     		movs	r3, #32
 342              	.LBE167:
ARM GAS  /var/folders/sv/kgmgr77579zbf78p2zlhkdfr0000gn/T//ccOgYCfJ.s 			page 7


 343              	.LBE166:
 344              	.LBE165:
 345              	.LBE164:
 346              	.LBE163:
 347              		.loc 1 147 0
 348 0004 0446     		mov	r4, r0
 349              	.LBB172:
 350              	.LBB171:
 351              	.LBB170:
 352              	.LBB169:
 353              	.LBB168:
 354              		.loc 2 546 0
 355              		.syntax unified
 356              	@ 546 "ChibiOS_3.0.2/os/ext/CMSIS/include/core_cmFunc.h" 1
 357 0006 83F31188 		MSR basepri, r3
 358              	@ 0 "" 2
 359              	.LVL18:
 360              		.thumb
 361              		.syntax unified
 362              	.LBE168:
 363              	.LBE169:
 364              	.LBE170:
 365              	.LBE171:
 366              	.LBE172:
 367              		.loc 1 157 0
 368 000a FFF7FEFF 		bl	icu_lld_wait_capture
 369              	.LVL19:
 370              		.loc 1 158 0
 371 000e 0028     		cmp	r0, #0
 372 0010 14BF     		ite	ne
 373 0012 0323     		movne	r3, #3
 374 0014 0423     		moveq	r3, #4
 375 0016 2370     		strb	r3, [r4]
 376              	.LVL20:
 377              	.LBB173:
 378              	.LBB174:
 379              	.LBB175:
 380              	.LBB176:
 381              	.LBB177:
 382              	.LBB178:
 383              		.loc 2 546 0
 384 0018 0023     		movs	r3, #0
 385              		.syntax unified
 386              	@ 546 "ChibiOS_3.0.2/os/ext/CMSIS/include/core_cmFunc.h" 1
 387 001a 83F31188 		MSR basepri, r3
 388              	@ 0 "" 2
 389              	.LVL21:
 390              		.thumb
 391              		.syntax unified
 392              	.LBE178:
 393              	.LBE177:
 394              	.LBE176:
 395              	.LBE175:
 396              	.LBE174:
 397              	.LBE173:
 398              		.loc 1 162 0
 399 001e 10BD     		pop	{r4, pc}
ARM GAS  /var/folders/sv/kgmgr77579zbf78p2zlhkdfr0000gn/T//ccOgYCfJ.s 			page 8


 400              		.cfi_endproc
 401              	.LFE261:
 402              		.size	icuWaitCapture, .-icuWaitCapture
 403              		.section	.text.icuStopCapture,"ax",%progbits
 404              		.align	2
 405              		.p2align 4,,15
 406              		.global	icuStopCapture
 407              		.thumb
 408              		.thumb_func
 409              		.type	icuStopCapture, %function
 410              	icuStopCapture:
 411              	.LFB262:
 412              		.loc 1 171 0
 413              		.cfi_startproc
 414              		@ args = 0, pretend = 0, frame = 0
 415              		@ frame_needed = 0, uses_anonymous_args = 0
 416              	.LVL22:
 417 0000 10B5     		push	{r4, lr}
 418              		.cfi_def_cfa_offset 8
 419              		.cfi_offset 4, -8
 420              		.cfi_offset 14, -4
 421              	.LBB179:
 422              	.LBB180:
 423              	.LBB181:
 424              	.LBB182:
 425              	.LBB183:
 426              		.loc 2 546 0
 427 0002 2023     		movs	r3, #32
 428              	.LBE183:
 429              	.LBE182:
 430              	.LBE181:
 431              	.LBE180:
 432              	.LBE179:
 433              		.loc 1 171 0
 434 0004 0446     		mov	r4, r0
 435              	.LBB188:
 436              	.LBB187:
 437              	.LBB186:
 438              	.LBB185:
 439              	.LBB184:
 440              		.loc 2 546 0
 441              		.syntax unified
 442              	@ 546 "ChibiOS_3.0.2/os/ext/CMSIS/include/core_cmFunc.h" 1
 443 0006 83F31188 		MSR basepri, r3
 444              	@ 0 "" 2
 445              	.LVL23:
 446              		.thumb
 447              		.syntax unified
 448              	.LBE184:
 449              	.LBE185:
 450              	.LBE186:
 451              	.LBE187:
 452              	.LBE188:
 453              		.loc 1 179 0
 454 000a FFF7FEFF 		bl	icu_lld_stop_capture
 455              	.LVL24:
 456 000e 0223     		movs	r3, #2
ARM GAS  /var/folders/sv/kgmgr77579zbf78p2zlhkdfr0000gn/T//ccOgYCfJ.s 			page 9


 457 0010 2370     		strb	r3, [r4]
 458              	.LVL25:
 459              	.LBB189:
 460              	.LBB190:
 461              	.LBB191:
 462              	.LBB192:
 463              	.LBB193:
 464              	.LBB194:
 465              		.loc 2 546 0
 466 0012 0023     		movs	r3, #0
 467              		.syntax unified
 468              	@ 546 "ChibiOS_3.0.2/os/ext/CMSIS/include/core_cmFunc.h" 1
 469 0014 83F31188 		MSR basepri, r3
 470              	@ 0 "" 2
 471              	.LVL26:
 472              		.thumb
 473              		.syntax unified
 474 0018 10BD     		pop	{r4, pc}
 475              	.LBE194:
 476              	.LBE193:
 477              	.LBE192:
 478              	.LBE191:
 479              	.LBE190:
 480              	.LBE189:
 481              		.cfi_endproc
 482              	.LFE262:
 483              		.size	icuStopCapture, .-icuStopCapture
 484 001a 00BF     		.section	.text.icuEnableNotifications,"ax",%progbits
 485              		.align	2
 486              		.p2align 4,,15
 487              		.global	icuEnableNotifications
 488              		.thumb
 489              		.thumb_func
 490              		.type	icuEnableNotifications, %function
 491              	icuEnableNotifications:
 492              	.LFB263:
 493              		.loc 1 192 0
 494              		.cfi_startproc
 495              		@ args = 0, pretend = 0, frame = 0
 496              		@ frame_needed = 0, uses_anonymous_args = 0
 497              	.LVL27:
 498 0000 08B5     		push	{r3, lr}
 499              		.cfi_def_cfa_offset 8
 500              		.cfi_offset 3, -8
 501              		.cfi_offset 14, -4
 502              	.LBB195:
 503              	.LBB196:
 504              	.LBB197:
 505              	.LBB198:
 506              	.LBB199:
 507              		.loc 2 546 0
 508 0002 2023     		movs	r3, #32
 509              		.syntax unified
 510              	@ 546 "ChibiOS_3.0.2/os/ext/CMSIS/include/core_cmFunc.h" 1
 511 0004 83F31188 		MSR basepri, r3
 512              	@ 0 "" 2
 513              	.LVL28:
ARM GAS  /var/folders/sv/kgmgr77579zbf78p2zlhkdfr0000gn/T//ccOgYCfJ.s 			page 10


 514              		.thumb
 515              		.syntax unified
 516              	.LBE199:
 517              	.LBE198:
 518              	.LBE197:
 519              	.LBE196:
 520              	.LBE195:
 521              		.loc 1 199 0
 522 0008 FFF7FEFF 		bl	icu_lld_enable_notifications
 523              	.LVL29:
 524              	.LBB200:
 525              	.LBB201:
 526              	.LBB202:
 527              	.LBB203:
 528              	.LBB204:
 529              	.LBB205:
 530              		.loc 2 546 0
 531 000c 0023     		movs	r3, #0
 532              		.syntax unified
 533              	@ 546 "ChibiOS_3.0.2/os/ext/CMSIS/include/core_cmFunc.h" 1
 534 000e 83F31188 		MSR basepri, r3
 535              	@ 0 "" 2
 536              	.LVL30:
 537              		.thumb
 538              		.syntax unified
 539 0012 08BD     		pop	{r3, pc}
 540              	.LBE205:
 541              	.LBE204:
 542              	.LBE203:
 543              	.LBE202:
 544              	.LBE201:
 545              	.LBE200:
 546              		.cfi_endproc
 547              	.LFE263:
 548              		.size	icuEnableNotifications, .-icuEnableNotifications
 549              		.section	.text.icuDisableNotifications,"ax",%progbits
 550              		.align	2
 551              		.p2align 4,,15
 552              		.global	icuDisableNotifications
 553              		.thumb
 554              		.thumb_func
 555              		.type	icuDisableNotifications, %function
 556              	icuDisableNotifications:
 557              	.LFB264:
 558              		.loc 1 212 0
 559              		.cfi_startproc
 560              		@ args = 0, pretend = 0, frame = 0
 561              		@ frame_needed = 0, uses_anonymous_args = 0
 562              	.LVL31:
 563 0000 08B5     		push	{r3, lr}
 564              		.cfi_def_cfa_offset 8
 565              		.cfi_offset 3, -8
 566              		.cfi_offset 14, -4
 567              	.LBB206:
 568              	.LBB207:
 569              	.LBB208:
 570              	.LBB209:
ARM GAS  /var/folders/sv/kgmgr77579zbf78p2zlhkdfr0000gn/T//ccOgYCfJ.s 			page 11


 571              	.LBB210:
 572              		.loc 2 546 0
 573 0002 2023     		movs	r3, #32
 574              		.syntax unified
 575              	@ 546 "ChibiOS_3.0.2/os/ext/CMSIS/include/core_cmFunc.h" 1
 576 0004 83F31188 		MSR basepri, r3
 577              	@ 0 "" 2
 578              	.LVL32:
 579              		.thumb
 580              		.syntax unified
 581              	.LBE210:
 582              	.LBE209:
 583              	.LBE208:
 584              	.LBE207:
 585              	.LBE206:
 586              		.loc 1 219 0
 587 0008 FFF7FEFF 		bl	icu_lld_disable_notifications
 588              	.LVL33:
 589              	.LBB211:
 590              	.LBB212:
 591              	.LBB213:
 592              	.LBB214:
 593              	.LBB215:
 594              	.LBB216:
 595              		.loc 2 546 0
 596 000c 0023     		movs	r3, #0
 597              		.syntax unified
 598              	@ 546 "ChibiOS_3.0.2/os/ext/CMSIS/include/core_cmFunc.h" 1
 599 000e 83F31188 		MSR basepri, r3
 600              	@ 0 "" 2
 601              	.LVL34:
 602              		.thumb
 603              		.syntax unified
 604 0012 08BD     		pop	{r3, pc}
 605              	.LBE216:
 606              	.LBE215:
 607              	.LBE214:
 608              	.LBE213:
 609              	.LBE212:
 610              	.LBE211:
 611              		.cfi_endproc
 612              	.LFE264:
 613              		.size	icuDisableNotifications, .-icuDisableNotifications
 614              		.text
 615              	.Letext0:
 616              		.file 3 "/usr/local/Cellar/gcc-arm-none-eabi/20160928/arm-none-eabi/include/machine/_default_types
 617              		.file 4 "/usr/local/Cellar/gcc-arm-none-eabi/20160928/arm-none-eabi/include/sys/_stdint.h"
 618              		.file 5 "ChibiOS_3.0.2/os/rt/ports/ARMCMx/compilers/GCC/chtypes.h"
 619              		.file 6 "ChibiOS_3.0.2/os/rt/include/chsystypes.h"
 620              		.file 7 "ChibiOS_3.0.2/os/rt/include/chschd.h"
 621              		.file 8 "ChibiOS_3.0.2/os/rt/ports/ARMCMx/chcore.h"
 622              		.file 9 "ChibiOS_3.0.2/os/rt/ports/ARMCMx/chcore_v7m.h"
 623              		.file 10 "ChibiOS_3.0.2/os/rt/include/chtm.h"
 624              		.file 11 "ChibiOS_3.0.2/os/rt/include/chsem.h"
 625              		.file 12 "ChibiOS_3.0.2/os/rt/include/chmtx.h"
 626              		.file 13 "ChibiOS_3.0.2/os/hal/include/icu.h"
 627              		.file 14 "ChibiOS_3.0.2/os/hal/ports/STM32/LLD/TIMv1/icu_lld.h"
ARM GAS  /var/folders/sv/kgmgr77579zbf78p2zlhkdfr0000gn/T//ccOgYCfJ.s 			page 12


 628              		.file 15 "ChibiOS_3.0.2/os/hal/ports/STM32/LLD/TIMv1/stm32_tim.h"
 629              		.file 16 "ChibiOS_3.0.2/os/rt/include/chsys.h"
 630              		.file 17 "ChibiOS_3.0.2/os/hal/osal/rt/osal.h"
 631              		.file 18 "ChibiOS_3.0.2/os/ext/CMSIS/include/core_cm4.h"