ARM GAS  /var/folders/sv/kgmgr77579zbf78p2zlhkdfr0000gn/T//ccT0lP9z.s 			page 1


   1              		.syntax unified
   2              		.cpu cortex-m4
   3              		.eabi_attribute 27, 1
   4              		.eabi_attribute 28, 1
   5              		.fpu fpv4-sp-d16
   6              		.eabi_attribute 20, 1
   7              		.eabi_attribute 21, 1
   8              		.eabi_attribute 23, 3
   9              		.eabi_attribute 24, 1
  10              		.eabi_attribute 25, 1
  11              		.eabi_attribute 26, 1
  12              		.eabi_attribute 30, 2
  13              		.eabi_attribute 34, 1
  14              		.eabi_attribute 18, 4
  15              		.thumb
  16              		.syntax unified
  17              		.file	"main.c"
  18              		.text
  19              	.Ltext0:
  20              		.cfi_sections	.debug_frame
  21              		.section	.text.timer_thread,"ax",%progbits
  22              		.align	2
  23              		.p2align 4,,15
  24              		.thumb
  25              		.thumb_func
  26              		.type	timer_thread, %function
  27              	timer_thread:
  28              	.LFB258:
  29              		.file 1 "main.c"
  30              		.loc 1 167 0
  31              		.cfi_startproc
  32              		@ Volatile: function does not return.
  33              		@ args = 0, pretend = 0, frame = 0
  34              		@ frame_needed = 0, uses_anonymous_args = 0
  35              	.LVL0:
  36 0000 08B5     		push	{r3, lr}
  37              		.cfi_def_cfa_offset 8
  38              		.cfi_offset 3, -8
  39              		.cfi_offset 14, -4
  40              	.LBB8:
  41              	.LBB9:
  42              		.file 2 "ChibiOS_3.0.2/os/rt/include/chregistry.h"
  43              		.loc 2 135 0
  44 0002 054B     		ldr	r3, .L5
  45 0004 054A     		ldr	r2, .L5+4
  46 0006 9B69     		ldr	r3, [r3, #24]
  47 0008 9A61     		str	r2, [r3, #24]
  48              	.LVL1:
  49              	.L2:
  50              	.LBE9:
  51              	.LBE8:
  52              		.loc 1 173 0 discriminator 1
  53 000a FFF7FEFF 		bl	packet_timerfunc
  54              	.LVL2:
  55              		.loc 1 174 0 discriminator 1
  56 000e 0A20     		movs	r0, #10
  57 0010 FFF7FEFF 		bl	chThdSleep
ARM GAS  /var/folders/sv/kgmgr77579zbf78p2zlhkdfr0000gn/T//ccT0lP9z.s 			page 2


  58              	.LVL3:
  59 0014 F9E7     		b	.L2
  60              	.L6:
  61 0016 00BF     		.align	2
  62              	.L5:
  63 0018 00000000 		.word	ch
  64 001c 00000000 		.word	.LC0
  65              		.cfi_endproc
  66              	.LFE258:
  67              		.size	timer_thread, .-timer_thread
  68              		.section	.text.periodic_thread,"ax",%progbits
  69              		.align	2
  70              		.p2align 4,,15
  71              		.thumb
  72              		.thumb_func
  73              		.type	periodic_thread, %function
  74              	periodic_thread:
  75              	.LFB257:
  76              		.loc 1 79 0
  77              		.cfi_startproc
  78              		@ args = 0, pretend = 0, frame = 0
  79              		@ frame_needed = 0, uses_anonymous_args = 0
  80              	.LVL4:
  81 0000 38B5     		push	{r3, r4, r5, lr}
  82              		.cfi_def_cfa_offset 16
  83              		.cfi_offset 3, -16
  84              		.cfi_offset 4, -12
  85              		.cfi_offset 5, -8
  86              		.cfi_offset 14, -4
  87              	.LBB10:
  88              	.LBB11:
  89              		.loc 2 135 0
  90 0002 454B     		ldr	r3, .L33
  91 0004 454A     		ldr	r2, .L33+4
  92 0006 9B69     		ldr	r3, [r3, #24]
  93              	.LBE11:
  94              	.LBE10:
  95              		.loc 1 79 0
  96 0008 2DED028B 		vpush.64	{d8}
  97              		.cfi_def_cfa_offset 24
  98              		.cfi_offset 80, -24
  99              		.cfi_offset 81, -20
 100              	.LBB13:
 101              	.LBB12:
 102              		.loc 2 135 0
 103 000c 9A61     		str	r2, [r3, #24]
 104              	.LVL5:
 105              	.L21:
 106              	.LBE12:
 107              	.LBE13:
 108              	.LBB14:
 109              		.loc 1 85 0
 110 000e FFF7FEFF 		bl	mc_interface_get_state
 111              	.LVL6:
 112 0012 0228     		cmp	r0, #2
 113              		.loc 1 86 0
 114 0014 0CBF     		ite	eq
ARM GAS  /var/folders/sv/kgmgr77579zbf78p2zlhkdfr0000gn/T//ccT0lP9z.s 			page 3


 115 0016 B7EE000A 		vmoveq.f32	s0, #1.0e+0
 116              		.loc 1 88 0
 117 001a 9FED410A 		vldrne.32	s0, .L33+8
 118 001e 0020     		movs	r0, #0
 119 0020 FFF7FEFF 		bl	ledpwm_set_intensity
 120              	.LVL7:
 121              		.loc 1 91 0
 122 0024 FFF7FEFF 		bl	mc_interface_get_fault
 123              	.LVL8:
 124              		.loc 1 92 0
 125 0028 0546     		mov	r5, r0
 126 002a 0028     		cmp	r0, #0
 127 002c 41D0     		beq	.L29
 128              	.LVL9:
 129              	.LBB15:
 130              		.loc 1 93 0
 131 002e 0024     		movs	r4, #0
 132              	.LVL10:
 133              	.L10:
 134              		.loc 1 94 0 discriminator 3
 135 0030 B7EE000A 		vmov.f32	s0, #1.0e+0
 136 0034 0120     		movs	r0, #1
 137 0036 FFF7FEFF 		bl	ledpwm_set_intensity
 138              	.LVL11:
 139              		.loc 1 95 0 discriminator 3
 140 003a 40F6C410 		movw	r0, #2500
 141 003e FFF7FEFF 		bl	chThdSleep
 142              	.LVL12:
 143              		.loc 1 96 0 discriminator 3
 144 0042 0120     		movs	r0, #1
 145 0044 9FED370A 		vldr.32	s0, .L33+12
 146              		.loc 1 93 0 discriminator 3
 147 0048 0444     		add	r4, r4, r0
 148              	.LVL13:
 149              		.loc 1 96 0 discriminator 3
 150 004a FFF7FEFF 		bl	ledpwm_set_intensity
 151              	.LVL14:
 152              		.loc 1 97 0 discriminator 3
 153 004e 40F6C410 		movw	r0, #2500
 154 0052 FFF7FEFF 		bl	chThdSleep
 155              	.LVL15:
 156              		.loc 1 93 0 discriminator 3
 157 0056 AC42     		cmp	r4, r5
 158 0058 EAD1     		bne	.L10
 159              	.LBE15:
 160              		.loc 1 100 0
 161 005a 41F28830 		movw	r0, #5000
 162 005e FFF7FEFF 		bl	chThdSleep
 163              	.LVL16:
 164              		.loc 1 105 0
 165 0062 FFF7FEFF 		bl	mc_interface_get_state
 166              	.LVL17:
 167 0066 0128     		cmp	r0, #1
 168 0068 2CD0     		beq	.L30
 169              	.LVL18:
 170              	.L12:
 171              		.loc 1 109 0
ARM GAS  /var/folders/sv/kgmgr77579zbf78p2zlhkdfr0000gn/T//ccT0lP9z.s 			page 4


 172 006a FFF7FEFF 		bl	commands_get_disp_pos_mode
 173              	.LVL19:
 174              		.loc 1 111 0
 175 006e 0428     		cmp	r0, #4
 176              		.loc 1 109 0
 177 0070 0446     		mov	r4, r0
 178              	.LVL20:
 179              		.loc 1 111 0
 180 0072 30D0     		beq	.L14
 181              	.L32:
 182 0074 0528     		cmp	r0, #5
 183 0076 3BD0     		beq	.L15
 184 0078 0328     		cmp	r0, #3
 185 007a 31D0     		beq	.L31
 186              		.loc 1 128 0
 187 007c FFF7FEFF 		bl	mc_interface_get_configuration
 188              	.LVL21:
 189 0080 8378     		ldrb	r3, [r0, #2]	@ zero_extendqisi2
 190 0082 032B     		cmp	r3, #3
 191 0084 11D1     		bne	.L18
 192              		.loc 1 129 0
 193 0086 022C     		cmp	r4, #2
 194 0088 41D0     		beq	.L19
 195 008a 062C     		cmp	r4, #6
 196 008c 0DD1     		bne	.L18
 197              		.loc 1 135 0
 198 008e FFF7FEFF 		bl	mcpwm_foc_get_phase_observer
 199              	.LVL22:
 200 0092 B0EE408A 		vmov.f32	s16, s0
 201 0096 FFF7FEFF 		bl	mcpwm_foc_get_phase_encoder
 202              	.LVL23:
 203 009a F0EE400A 		vmov.f32	s1, s0
 204 009e B0EE480A 		vmov.f32	s0, s16
 205 00a2 FFF7FEFF 		bl	utils_angle_difference
 206              	.LVL24:
 207 00a6 FFF7FEFF 		bl	commands_send_rotor_pos
 208              	.LVL25:
 209              	.L18:
 210              		.loc 1 143 0
 211 00aa 6420     		movs	r0, #100
 212 00ac FFF7FEFF 		bl	chThdSleep
 213              	.LVL26:
 214              	.LBE14:
 215              		.loc 1 164 0
 216 00b0 ADE7     		b	.L21
 217              	.LVL27:
 218              	.L29:
 219              	.LBB16:
 220              		.loc 1 102 0
 221 00b2 9FED1C0A 		vldr.32	s0, .L33+12
 222 00b6 0120     		movs	r0, #1
 223              	.LVL28:
 224 00b8 FFF7FEFF 		bl	ledpwm_set_intensity
 225              	.LVL29:
 226              		.loc 1 105 0
 227 00bc FFF7FEFF 		bl	mc_interface_get_state
 228              	.LVL30:
ARM GAS  /var/folders/sv/kgmgr77579zbf78p2zlhkdfr0000gn/T//ccT0lP9z.s 			page 5


 229 00c0 0128     		cmp	r0, #1
 230 00c2 D2D1     		bne	.L12
 231              	.L30:
 232              		.loc 1 106 0
 233 00c4 FFF7FEFF 		bl	mcpwm_get_detect_pos
 234              	.LVL31:
 235 00c8 FFF7FEFF 		bl	commands_send_rotor_pos
 236              	.LVL32:
 237              		.loc 1 109 0
 238 00cc FFF7FEFF 		bl	commands_get_disp_pos_mode
 239              	.LVL33:
 240              		.loc 1 111 0
 241 00d0 0428     		cmp	r0, #4
 242              		.loc 1 109 0
 243 00d2 0446     		mov	r4, r0
 244              	.LVL34:
 245              		.loc 1 111 0
 246 00d4 CED1     		bne	.L32
 247              	.L14:
 248              		.loc 1 117 0
 249 00d6 FFF7FEFF 		bl	mc_interface_get_pid_pos_now
 250              	.LVL35:
 251 00da FFF7FEFF 		bl	commands_send_rotor_pos
 252              	.LVL36:
 253              		.loc 1 118 0
 254 00de 03E0     		b	.L17
 255              	.LVL37:
 256              	.L31:
 257              		.loc 1 113 0
 258 00e0 FFF7FEFF 		bl	encoder_read_deg
 259              	.LVL38:
 260 00e4 FFF7FEFF 		bl	commands_send_rotor_pos
 261              	.LVL39:
 262              	.L17:
 263              		.loc 1 128 0
 264 00e8 FFF7FEFF 		bl	mc_interface_get_configuration
 265              	.LVL40:
 266 00ec 8378     		ldrb	r3, [r0, #2]	@ zero_extendqisi2
 267 00ee DCE7     		b	.L18
 268              	.LVL41:
 269              	.L15:
 270              		.loc 1 121 0
 271 00f0 FFF7FEFF 		bl	mc_interface_get_pid_pos_set
 272              	.LVL42:
 273 00f4 B0EE408A 		vmov.f32	s16, s0
 274 00f8 FFF7FEFF 		bl	mc_interface_get_pid_pos_now
 275              	.LVL43:
 276 00fc F0EE400A 		vmov.f32	s1, s0
 277 0100 B0EE480A 		vmov.f32	s0, s16
 278 0104 FFF7FEFF 		bl	utils_angle_difference
 279              	.LVL44:
 280 0108 FFF7FEFF 		bl	commands_send_rotor_pos
 281              	.LVL45:
 282              		.loc 1 122 0
 283 010c ECE7     		b	.L17
 284              	.L19:
 285              		.loc 1 131 0
ARM GAS  /var/folders/sv/kgmgr77579zbf78p2zlhkdfr0000gn/T//ccT0lP9z.s 			page 6


 286 010e FFF7FEFF 		bl	mcpwm_foc_get_phase_observer
 287              	.LVL46:
 288 0112 FFF7FEFF 		bl	commands_send_rotor_pos
 289              	.LVL47:
 290              		.loc 1 132 0
 291 0116 C8E7     		b	.L18
 292              	.L34:
 293              		.align	2
 294              	.L33:
 295 0118 00000000 		.word	ch
 296 011c 0C000000 		.word	.LC1
 297 0120 CDCC4C3E 		.word	1045220557
 298 0124 00000000 		.word	0
 299              	.LBE16:
 300              		.cfi_endproc
 301              	.LFE257:
 302              		.size	periodic_thread, .-periodic_thread
 303              		.section	.text.startup.main,"ax",%progbits
 304              		.align	2
 305              		.p2align 4,,15
 306              		.global	main
 307              		.thumb
 308              		.thumb_func
 309              		.type	main, %function
 310              	main:
 311              	.LFB259:
 312              		.loc 1 178 0
 313              		.cfi_startproc
 314              		@ args = 0, pretend = 0, frame = 576
 315              		@ frame_needed = 0, uses_anonymous_args = 0
 316 0000 10B5     		push	{r4, lr}
 317              		.cfi_def_cfa_offset 8
 318              		.cfi_offset 4, -8
 319              		.cfi_offset 14, -4
 320 0002 ADF5127D 		sub	sp, sp, #584
 321              		.cfi_def_cfa_offset 592
 322              		.loc 1 179 0
 323 0006 FFF7FEFF 		bl	halInit
 324              	.LVL48:
 325              		.loc 1 180 0
 326 000a FFF7FEFF 		bl	chSysInit
 327              	.LVL49:
 328              		.loc 1 189 0
 329 000e 42F21070 		movw	r0, #10000
 330 0012 FFF7FEFF 		bl	chThdSleep
 331              	.LVL50:
 332              		.loc 1 191 0
 333 0016 FFF7FEFF 		bl	hw_init_gpio
 334              	.LVL51:
 335              		.loc 1 192 0
 336 001a 1C4B     		ldr	r3, .L38
 337 001c 2021     		movs	r1, #32
 338              		.loc 1 193 0
 339 001e 1022     		movs	r2, #16
 340              		.loc 1 192 0
 341 0020 5983     		strh	r1, [r3, #26]	@ movhi
 342              		.loc 1 193 0
ARM GAS  /var/folders/sv/kgmgr77579zbf78p2zlhkdfr0000gn/T//ccT0lP9z.s 			page 7


 343 0022 5A83     		strh	r2, [r3, #26]	@ movhi
 344              		.loc 1 195 0
 345 0024 FFF7FEFF 		bl	conf_general_init
 346              	.LVL52:
 347              		.loc 1 196 0
 348 0028 FFF7FEFF 		bl	ledpwm_init
 349              	.LVL53:
 350              		.loc 1 199 0
 351 002c 35A8     		add	r0, sp, #212
 352 002e FFF7FEFF 		bl	conf_general_read_mc_configuration
 353              	.LVL54:
 354              		.loc 1 200 0
 355 0032 35A8     		add	r0, sp, #212
 356 0034 FFF7FEFF 		bl	mc_interface_init
 357              	.LVL55:
 358              		.loc 1 202 0
 359 0038 FFF7FEFF 		bl	commands_init
 360              	.LVL56:
 361              		.loc 1 203 0
 362 003c FFF7FEFF 		bl	comm_usb_init
 363              	.LVL57:
 364              		.loc 1 206 0
 365 0040 FFF7FEFF 		bl	comm_can_init
 366              	.LVL58:
 367              		.loc 1 210 0
 368 0044 03A8     		add	r0, sp, #12
 369 0046 FFF7FEFF 		bl	conf_general_read_app_configuration
 370              	.LVL59:
 371              		.loc 1 211 0
 372 004a 03A8     		add	r0, sp, #12
 373 004c FFF7FEFF 		bl	app_set_configuration
 374              	.LVL60:
 375              		.loc 1 244 0
 376 0050 0024     		movs	r4, #0
 377              		.loc 1 229 0
 378 0052 FFF7FEFF 		bl	timeout_init
 379              	.LVL61:
 380              		.loc 1 230 0
 381 0056 9DED050A 		vldr.32	s0, [sp, #20]
 382 005a 0498     		ldr	r0, [sp, #16]
 383 005c FFF7FEFF 		bl	timeout_configure
 384              	.LVL62:
 385              		.loc 1 244 0
 386 0060 0B4B     		ldr	r3, .L38+4
 387 0062 0094     		str	r4, [sp]
 388 0064 4022     		movs	r2, #64
 389 0066 4FF4B361 		mov	r1, #1432
 390 006a 0A48     		ldr	r0, .L38+8
 391 006c FFF7FEFF 		bl	chThdCreateStatic
 392              	.LVL63:
 393              		.loc 1 245 0
 394 0070 0094     		str	r4, [sp]
 395 0072 094B     		ldr	r3, .L38+12
 396 0074 0948     		ldr	r0, .L38+16
 397 0076 4022     		movs	r2, #64
 398 0078 4FF40671 		mov	r1, #536
 399 007c FFF7FEFF 		bl	chThdCreateStatic
ARM GAS  /var/folders/sv/kgmgr77579zbf78p2zlhkdfr0000gn/T//ccT0lP9z.s 			page 8


 400              	.LVL64:
 401              	.L36:
 402              		.loc 1 308 0
 403 0080 6420     		movs	r0, #100
 404 0082 FFF7FEFF 		bl	chThdSleep
 405              	.LVL65:
 406              		.loc 1 310 0
 407 0086 FFF7FEFF 		bl	encoder_is_configured
 408              	.LVL66:
 409 008a F9E7     		b	.L36
 410              	.L39:
 411              		.align	2
 412              	.L38:
 413 008c 00080240 		.word	1073874944
 414 0090 00000000 		.word	periodic_thread
 415 0094 00000000 		.word	.LANCHOR0
 416 0098 00000000 		.word	timer_thread
 417 009c 00000000 		.word	.LANCHOR1
 418              		.cfi_endproc
 419              	.LFE259:
 420              		.size	main, .-main
 421              		.section	.bss.timer_thread_wa,"aw",%nobits
 422              		.align	3
 423              		.set	.LANCHOR1,. + 0
 424              		.type	timer_thread_wa, %object
 425              		.size	timer_thread_wa, 536
 426              	timer_thread_wa:
 427 0000 00000000 		.space	536
 427      00000000 
 427      00000000 
 427      00000000 
 427      00000000 
 428              		.section	.rodata.str1.4,"aMS",%progbits,1
 429              		.align	2
 430              	.LC0:
 431 0000 6D736563 		.ascii	"msec_timer\000"
 431      5F74696D 
 431      657200
 432 000b 00       		.space	1
 433              	.LC1:
 434 000c 4D61696E 		.ascii	"Main periodic\000"
 434      20706572 
 434      696F6469 
 434      6300
 435              		.section	.bss.periodic_thread_wa,"aw",%nobits
 436              		.align	3
 437              		.set	.LANCHOR0,. + 0
 438              		.type	periodic_thread_wa, %object
 439              		.size	periodic_thread_wa, 1432
 440              	periodic_thread_wa:
 441 0000 00000000 		.space	1432
 441      00000000 
 441      00000000 
 441      00000000 
 441      00000000 
 442              		.text
 443              	.Letext0:
ARM GAS  /var/folders/sv/kgmgr77579zbf78p2zlhkdfr0000gn/T//ccT0lP9z.s 			page 9


 444              		.file 3 "/usr/local/Cellar/gcc-arm-none-eabi/20160928/lib/gcc/arm-none-eabi/5.4.1/include/stddef.h
 445              		.file 4 "/usr/local/Cellar/gcc-arm-none-eabi/20160928/arm-none-eabi/include/machine/_default_types
 446              		.file 5 "/usr/local/Cellar/gcc-arm-none-eabi/20160928/arm-none-eabi/include/sys/_stdint.h"
 447              		.file 6 "ChibiOS_3.0.2/os/rt/ports/ARMCMx/compilers/GCC/chtypes.h"
 448              		.file 7 "ChibiOS_3.0.2/os/rt/include/chsystypes.h"
 449              		.file 8 "ChibiOS_3.0.2/os/rt/include/chschd.h"
 450              		.file 9 "ChibiOS_3.0.2/os/rt/ports/ARMCMx/chcore.h"
 451              		.file 10 "ChibiOS_3.0.2/os/rt/ports/ARMCMx/chcore_v7m.h"
 452              		.file 11 "ChibiOS_3.0.2/os/rt/include/chtm.h"
 453              		.file 12 "ChibiOS_3.0.2/os/rt/include/chsem.h"
 454              		.file 13 "ChibiOS_3.0.2/os/rt/include/chmtx.h"
 455              		.file 14 "./datatypes.h"
 456              		.file 15 "ChibiOS_3.0.2/os/hal/ports/STM32/LLD/GPIOv2/pal_lld.h"
 457              		.file 16 "packet.h"
 458              		.file 17 "ChibiOS_3.0.2/os/rt/include/chthreads.h"
 459              		.file 18 "ledpwm.h"
 460              		.file 19 "mc_interface.h"
 461              		.file 20 "commands.h"
 462              		.file 21 "mcpwm_foc.h"
 463              		.file 22 "utils.h"
 464              		.file 23 "mcpwm.h"
 465              		.file 24 "encoder.h"
 466              		.file 25 "ChibiOS_3.0.2/os/hal/include/hal.h"
 467              		.file 26 "ChibiOS_3.0.2/os/rt/include/chsys.h"
 468              		.file 27 "hwconf/hw.h"
 469              		.file 28 "./conf_general.h"
 470              		.file 29 "comm_usb.h"
 471              		.file 30 "comm_can.h"
 472              		.file 31 "applications/app.h"
 473              		.file 32 "timeout.h"
 474              		.file 33 "ChibiOS_3.0.2/os/ext/CMSIS/include/core_cm4.h"