ARM GAS  /var/folders/sv/kgmgr77579zbf78p2zlhkdfr0000gn/T//ccOxe4My.s 			page 1


   1              		.syntax unified
   2              		.cpu cortex-m4
   3              		.eabi_attribute 27, 1
   4              		.eabi_attribute 28, 1
   5              		.fpu fpv4-sp-d16
   6              		.eabi_attribute 20, 1
   7              		.eabi_attribute 21, 1
   8              		.eabi_attribute 23, 3
   9              		.eabi_attribute 24, 1
  10              		.eabi_attribute 25, 1
  11              		.eabi_attribute 26, 1
  12              		.eabi_attribute 30, 2
  13              		.eabi_attribute 34, 1
  14              		.eabi_attribute 18, 4
  15              		.thumb
  16              		.syntax unified
  17              		.file	"mc_interface.c"
  18              		.text
  19              	.Ltext0:
  20              		.cfi_sections	.debug_frame
  21              		.section	.text.sample_send_thread,"ax",%progbits
  22              		.align	2
  23              		.p2align 4,,15
  24              		.thumb
  25              		.thumb_func
  26              		.type	sample_send_thread, %function
  27              	sample_send_thread:
  28              	.LFB312:
  29              		.file 1 "mc_interface.c"
  30              		.loc 1 1596 0
  31              		.cfi_startproc
  32              		@ args = 0, pretend = 0, frame = 48
  33              		@ frame_needed = 0, uses_anonymous_args = 0
  34              	.LVL0:
  35 0000 2DE9F04F 		push	{r4, r5, r6, r7, r8, r9, r10, fp, lr}
  36              		.cfi_def_cfa_offset 36
  37              		.cfi_offset 4, -36
  38              		.cfi_offset 5, -32
  39              		.cfi_offset 6, -28
  40              		.cfi_offset 7, -24
  41              		.cfi_offset 8, -20
  42              		.cfi_offset 9, -16
  43              		.cfi_offset 10, -12
  44              		.cfi_offset 11, -8
  45              		.cfi_offset 14, -4
  46              	.LBB111:
  47              	.LBB112:
  48              		.file 2 "ChibiOS_3.0.2/os/rt/include/chregistry.h"
  49              		.loc 2 135 0
  50 0004 7A4B     		ldr	r3, .L20
  51              	.LBE112:
  52              	.LBE111:
  53              		.loc 1 1601 0
  54 0006 7B4A     		ldr	r2, .L20+4
  55              	.LBB115:
  56              	.LBB113:
  57              		.loc 2 135 0
ARM GAS  /var/folders/sv/kgmgr77579zbf78p2zlhkdfr0000gn/T//ccOxe4My.s 			page 2


  58 0008 9B69     		ldr	r3, [r3, #24]
  59 000a 7B49     		ldr	r1, .L20+8
  60 000c 7B4E     		ldr	r6, .L20+12
  61 000e DFF824B2 		ldr	fp, .L20+68
  62 0012 DFF824A2 		ldr	r10, .L20+72
  63              	.LBE113:
  64              	.LBE115:
  65              		.loc 1 1596 0
  66 0016 2DED068B 		vpush.64	{d8, d9, d10}
  67              		.cfi_def_cfa_offset 60
  68              		.cfi_offset 80, -60
  69              		.cfi_offset 81, -56
  70              		.cfi_offset 82, -52
  71              		.cfi_offset 83, -48
  72              		.cfi_offset 84, -44
  73              		.cfi_offset 85, -40
  74              	.LBB116:
  75              	.LBB117:
  76              	.LBB118:
  77              		.loc 1 1641 0
  78 001a DFED799A 		vldr.32	s19, .L20+16
  79              		.loc 1 1643 0
  80 001e 9FED799A 		vldr.32	s18, .L20+20
  81 0022 DFED798A 		vldr.32	s17, .L20+24
  82 0026 9FED798A 		vldr.32	s16, .L20+28
  83              	.LBE118:
  84              	.LBE117:
  85              	.LBE116:
  86              	.LBB126:
  87              	.LBB114:
  88              		.loc 2 135 0
  89 002a 9961     		str	r1, [r3, #24]
  90              	.LVL1:
  91              	.LBE114:
  92              	.LBE126:
  93              		.loc 1 1596 0
  94 002c 8DB0     		sub	sp, sp, #52
  95              		.cfi_def_cfa_offset 112
  96              		.loc 1 1601 0
  97 002e 1360     		str	r3, [r2]
  98              	.LVL2:
  99              	.L7:
 100              	.LBB127:
 101              		.loc 1 1604 0
 102 0030 0120     		movs	r0, #1
 103 0032 FFF7FEFF 		bl	chEvtWaitAny
 104              	.LVL3:
 105              		.loc 1 1609 0
 106 0036 764B     		ldr	r3, .L20+32
 107 0038 1B78     		ldrb	r3, [r3]	@ zero_extendqisi2
 108 003a 013B     		subs	r3, r3, #1
 109 003c 052B     		cmp	r3, #5
 110 003e F7D8     		bhi	.L7
 111 0040 DFE803F0 		tbb	[pc, r3]
 112              	.L4:
 113 0044 CE       		.byte	(.L3-.L4)/2
 114 0045 CE       		.byte	(.L3-.L4)/2
ARM GAS  /var/folders/sv/kgmgr77579zbf78p2zlhkdfr0000gn/T//ccOxe4My.s 			page 3


 115 0046 03       		.byte	(.L5-.L4)/2
 116 0047 03       		.byte	(.L5-.L4)/2
 117 0048 03       		.byte	(.L5-.L4)/2
 118 0049 03       		.byte	(.L5-.L4)/2
 119              		.p2align 1
 120              	.L5:
 121              	.LVL4:
 122              		.loc 1 1620 0
 123 004a 724B     		ldr	r3, .L20+36
 124 004c 724A     		ldr	r2, .L20+40
 125 004e 1B68     		ldr	r3, [r3]
 126 0050 1268     		ldr	r2, [r2]
 127              		.loc 1 1619 0
 128 0052 4FF4FA67 		mov	r7, #2000
 129              		.loc 1 1620 0
 130 0056 9B1A     		subs	r3, r3, r2
 131              	.LVL5:
 132              	.L6:
 133 0058 9846     		mov	r8, r3
 134              	.LBB123:
 135              	.LBB119:
 136              		.loc 1 1632 0
 137 005a B8F5FA6F 		cmp	r8, #2000
 138              		.loc 1 1647 0
 139 005e 9FED6FAA 		vldr.32	s20, .L20+44
 140              	.LBE119:
 141              	.LBE123:
 142              		.loc 1 1619 0
 143 0062 4FF00005 		mov	r5, #0
 144              	.LVL6:
 145              	.LBB124:
 146              	.LBB120:
 147              		.loc 1 1630 0
 148 0066 4446     		mov	r4, r8
 149              	.LVL7:
 150              		.loc 1 1632 0
 151 0068 C0F2B280 		blt	.L8
 152              	.LVL8:
 153              	.L9:
 154              		.loc 1 1633 0
 155 006c A4F5FA64 		sub	r4, r4, #2000
 156              	.LVL9:
 157              		.loc 1 1632 0
 158 0070 B4F5FA6F 		cmp	r4, #2000
 159 0074 FADA     		bge	.L9
 160              	.L10:
 161              		.loc 1 1641 0 discriminator 2
 162 0076 36F81430 		ldrh	r3, [r6, r4, lsl #1]
 163 007a 1BB2     		sxth	r3, r3
 164 007c 07EE903A 		vmov	s15, r3	@ int
 165 0080 B8EEE70A 		vcvt.f32.s32	s0, s15
 166              		.loc 1 1640 0 discriminator 2
 167 0084 0122     		movs	r2, #1
 168              		.loc 1 1642 0 discriminator 2
 169 0086 04FA02F9 		lsl	r9, r4, r2
 170              		.loc 1 1640 0 discriminator 2
 171 008a 1323     		movs	r3, #19
ARM GAS  /var/folders/sv/kgmgr77579zbf78p2zlhkdfr0000gn/T//ccOxe4My.s 			page 4


 172              		.loc 1 1641 0 discriminator 2
 173 008c 20EE290A 		vmul.f32	s0, s0, s19
 174 0090 01A9     		add	r1, sp, #4
 175 0092 02A8     		add	r0, sp, #8
 176              		.loc 1 1640 0 discriminator 2
 177 0094 0192     		str	r2, [sp, #4]
 178 0096 8DF80830 		strb	r3, [sp, #8]
 179              		.loc 1 1641 0 discriminator 2
 180 009a FFF7FEFF 		bl	buffer_append_float32_auto
 181              	.LVL10:
 182              		.loc 1 1642 0 discriminator 2
 183 009e 06EB0903 		add	r3, r6, r9
 184 00a2 01A9     		add	r1, sp, #4
 185 00a4 B3F8A03F 		ldrh	r3, [r3, #4000]
 186 00a8 1BB2     		sxth	r3, r3
 187 00aa 07EE903A 		vmov	s15, r3	@ int
 188 00ae B8EEE70A 		vcvt.f32.s32	s0, s15
 189 00b2 02A8     		add	r0, sp, #8
 190 00b4 20EE290A 		vmul.f32	s0, s0, s19
 191 00b8 FFF7FEFF 		bl	buffer_append_float32_auto
 192              	.LVL11:
 193              		.loc 1 1643 0 discriminator 2
 194 00bc 0BEB0903 		add	r3, fp, r9
 195 00c0 01A9     		add	r1, sp, #4
 196 00c2 B3F8483E 		ldrh	r3, [r3, #3656]
 197 00c6 1BB2     		sxth	r3, r3
 198 00c8 07EE903A 		vmov	s15, r3	@ int
 199 00cc B8EEE70A 		vcvt.f32.s32	s0, s15
 200 00d0 02A8     		add	r0, sp, #8
 201 00d2 20EE090A 		vmul.f32	s0, s0, s18
 202              	.LBE120:
 203              		.loc 1 1627 0 discriminator 2
 204 00d6 0135     		adds	r5, r5, #1
 205              	.LVL12:
 206              	.LBB121:
 207              		.loc 1 1643 0 discriminator 2
 208 00d8 20EE280A 		vmul.f32	s0, s0, s17
 209 00dc 08F10108 		add	r8, r8, #1
 210 00e0 20EE080A 		vmul.f32	s0, s0, s16
 211 00e4 FFF7FEFF 		bl	buffer_append_float32_auto
 212              	.LVL13:
 213              		.loc 1 1644 0 discriminator 2
 214 00e8 0AEB0903 		add	r3, r10, r9
 215 00ec 01A9     		add	r1, sp, #4
 216 00ee B3F8F03C 		ldrh	r3, [r3, #3312]
 217 00f2 1BB2     		sxth	r3, r3
 218 00f4 07EE903A 		vmov	s15, r3	@ int
 219 00f8 B8EEE70A 		vcvt.f32.s32	s0, s15
 220 00fc 02A8     		add	r0, sp, #8
 221 00fe 20EE090A 		vmul.f32	s0, s0, s18
 222 0102 20EE280A 		vmul.f32	s0, s0, s17
 223 0106 20EE080A 		vmul.f32	s0, s0, s16
 224 010a FFF7FEFF 		bl	buffer_append_float32_auto
 225              	.LVL14:
 226              		.loc 1 1645 0 discriminator 2
 227 010e 444B     		ldr	r3, .L20+48
 228 0110 4B44     		add	r3, r3, r9
ARM GAS  /var/folders/sv/kgmgr77579zbf78p2zlhkdfr0000gn/T//ccOxe4My.s 			page 5


 229 0112 01A9     		add	r1, sp, #4
 230 0114 B3F8983B 		ldrh	r3, [r3, #2968]
 231 0118 1BB2     		sxth	r3, r3
 232 011a 07EE903A 		vmov	s15, r3	@ int
 233 011e B8EEE70A 		vcvt.f32.s32	s0, s15
 234 0122 02A8     		add	r0, sp, #8
 235 0124 20EE090A 		vmul.f32	s0, s0, s18
 236 0128 20EE280A 		vmul.f32	s0, s0, s17
 237 012c 20EE080A 		vmul.f32	s0, s0, s16
 238 0130 FFF7FEFF 		bl	buffer_append_float32_auto
 239              	.LVL15:
 240              		.loc 1 1646 0 discriminator 2
 241 0134 3B4B     		ldr	r3, .L20+52
 242 0136 4B44     		add	r3, r3, r9
 243 0138 01A9     		add	r1, sp, #4
 244 013a B3F8403A 		ldrh	r3, [r3, #2624]
 245 013e 1BB2     		sxth	r3, r3
 246 0140 07EE903A 		vmov	s15, r3	@ int
 247 0144 B8EEE70A 		vcvt.f32.s32	s0, s15
 248 0148 02A8     		add	r0, sp, #8
 249 014a 20EE090A 		vmul.f32	s0, s0, s18
 250 014e 20EE280A 		vmul.f32	s0, s0, s17
 251 0152 20EE080A 		vmul.f32	s0, s0, s16
 252 0156 FFF7FEFF 		bl	buffer_append_float32_auto
 253              	.LVL16:
 254              		.loc 1 1647 0 discriminator 2
 255 015a 334B     		ldr	r3, .L20+56
 256 015c 4B44     		add	r3, r3, r9
 257 015e 01A9     		add	r1, sp, #4
 258 0160 B3F8E838 		ldrh	r3, [r3, #2280]
 259 0164 1BB2     		sxth	r3, r3
 260 0166 07EE903A 		vmov	s15, r3	@ int
 261 016a B8EEE70A 		vcvt.f32.s32	s0, s15
 262 016e 02A8     		add	r0, sp, #8
 263 0170 80EE0A0A 		vdiv.f32	s0, s0, s20
 264 0174 FFF7FEFF 		bl	buffer_append_float32_auto
 265              	.LVL17:
 266              		.loc 1 1648 0 discriminator 2
 267 0178 2C4B     		ldr	r3, .L20+60
 268 017a 9944     		add	r9, r9, r3
 269 017c 01A9     		add	r1, sp, #4
 270 017e B9F89037 		ldrh	r3, [r9, #1936]
 271 0182 1BB2     		sxth	r3, r3
 272 0184 02A8     		add	r0, sp, #8
 273 0186 07EE903A 		vmov	s15, r3	@ int
 274 018a F8EEE77A 		vcvt.f32.s32	s15, s15
 275 018e B2EE040A 		vmov.f32	s0, #1.0e+1
 276 0192 27EE800A 		vmul.f32	s0, s15, s0
 277 0196 FFF7FEFF 		bl	buffer_append_float32_auto
 278              	.LVL18:
 279              		.loc 1 1649 0 discriminator 2
 280 019a 254A     		ldr	r2, .L20+64
 281 019c 019B     		ldr	r3, [sp, #4]
 282 019e 1444     		add	r4, r4, r2
 283              	.LVL19:
 284 01a0 0CAA     		add	r2, sp, #48
 285 01a2 1A44     		add	r2, r2, r3
ARM GAS  /var/folders/sv/kgmgr77579zbf78p2zlhkdfr0000gn/T//ccOxe4My.s 			page 6


 286 01a4 94F83816 		ldrb	r1, [r4, #1592]	@ zero_extendqisi2
 287 01a8 02F8281C 		strb	r1, [r2, #-40]
 288              		.loc 1 1650 0 discriminator 2
 289 01ac 0233     		adds	r3, r3, #2
 290 01ae 94F8084E 		ldrb	r4, [r4, #3592]	@ zero_extendqisi2
 291              	.LVL20:
 292 01b2 02F8274C 		strb	r4, [r2, #-39]
 293              		.loc 1 1652 0 discriminator 2
 294 01b6 1946     		mov	r1, r3
 295 01b8 02A8     		add	r0, sp, #8
 296              		.loc 1 1650 0 discriminator 2
 297 01ba 0193     		str	r3, [sp, #4]
 298              		.loc 1 1652 0 discriminator 2
 299 01bc FFF7FEFF 		bl	commands_send_packet
 300              	.LVL21:
 301              	.LBE121:
 302              		.loc 1 1627 0 discriminator 2
 303 01c0 BD42     		cmp	r5, r7
 304 01c2 BFF635AF 		bge	.L7
 305              	.LBB122:
 306              		.loc 1 1632 0
 307 01c6 B8F5FA6F 		cmp	r8, #2000
 308              		.loc 1 1630 0
 309 01ca 4446     		mov	r4, r8
 310              	.LVL22:
 311              		.loc 1 1632 0
 312 01cc BFF64EAF 		bge	.L9
 313              	.L8:
 314              		.loc 1 1636 0
 315 01d0 B8F1000F 		cmp	r8, #0
 316 01d4 BFF64FAF 		bge	.L10
 317              	.L11:
 318              	.LVL23:
 319 01d8 14F5FA64 		adds	r4, r4, #2000
 320              	.LVL24:
 321 01dc FCD4     		bmi	.L11
 322 01de 4AE7     		b	.L10
 323              	.LVL25:
 324              	.L3:
 325              	.LBE122:
 326              	.LBE124:
 327              		.loc 1 1612 0
 328 01e0 0D4B     		ldr	r3, .L20+40
 329 01e2 1F68     		ldr	r7, [r3]
 330              	.LVL26:
 331              	.LBB125:
 332              		.loc 1 1627 0
 333 01e4 002F     		cmp	r7, #0
 334 01e6 C8BF     		it	gt
 335 01e8 0023     		movgt	r3, #0
 336 01ea 3FF735AF 		bgt	.L6
 337 01ee 1FE7     		b	.L7
 338              	.L21:
 339              		.align	2
 340              	.L20:
 341 01f0 00000000 		.word	ch
 342 01f4 00000000 		.word	.LANCHOR0
ARM GAS  /var/folders/sv/kgmgr77579zbf78p2zlhkdfr0000gn/T//ccOxe4My.s 			page 7


 343 01f8 00000000 		.word	.LC0
 344 01fc 00000000 		.word	.LANCHOR4
 345 0200 500AA53D 		.word	1034226256
 346 0204 00008039 		.word	964689920
 347 0208 33335340 		.word	1079194419
 348 020c 74D19541 		.word	1100337524
 349 0210 00000000 		.word	.LANCHOR1
 350 0214 00000000 		.word	.LANCHOR3
 351 0218 00000000 		.word	.LANCHOR2
 352 021c A48BC642 		.word	1120308132
 353 0220 E8320000 		.word	.LANCHOR7
 354 0224 E0430000 		.word	.LANCHOR8
 355 0228 D8540000 		.word	.LANCHOR9
 356 022c D0650000 		.word	.LANCHOR10
 357 0230 C8760000 		.word	.LANCHOR11
 358 0234 F8100000 		.word	.LANCHOR5
 359 0238 F0210000 		.word	.LANCHOR6
 360              	.LBE125:
 361              	.LBE127:
 362              		.cfi_endproc
 363              	.LFE312:
 364              		.size	sample_send_thread, .-sample_send_thread
 365              		.section	.text.mc_interface_set_handbrake.part.3,"ax",%progbits
 366              		.align	2
 367              		.p2align 4,,15
 368              		.thumb
 369              		.thumb_func
 370              		.type	mc_interface_set_handbrake.part.3, %function
 371              	mc_interface_set_handbrake.part.3:
 372              	.LFB316:
 373              		.loc 1 514 0
 374              		.cfi_startproc
 375              		@ args = 0, pretend = 0, frame = 0
 376              		@ frame_needed = 0, uses_anonymous_args = 0
 377              		@ link register save eliminated.
 378              	.LVL27:
 379              		.loc 1 519 0
 380 0000 074B     		ldr	r3, .L28
 381 0002 9B78     		ldrb	r3, [r3, #2]	@ zero_extendqisi2
 382 0004 032B     		cmp	r3, #3
 383 0006 09D8     		bhi	.L22
 384 0008 DFE803F0 		tbb	[pc, r3]
 385              	.L25:
 386 000c 06       		.byte	(.L24-.L25)/2
 387 000d 04       		.byte	(.L26-.L25)/2
 388 000e 06       		.byte	(.L24-.L25)/2
 389 000f 02       		.byte	(.L27-.L25)/2
 390              		.p2align 1
 391              	.L27:
 392              		.loc 1 529 0
 393 0010 FFF7FEBF 		b	mcpwm_foc_set_handbrake
 394              	.LVL28:
 395              	.L26:
 396              		.loc 1 526 0
 397 0014 FFF7FEBF 		b	mcpwm_atc_set_brake_current
 398              	.LVL29:
 399              	.L24:
ARM GAS  /var/folders/sv/kgmgr77579zbf78p2zlhkdfr0000gn/T//ccOxe4My.s 			page 8


 400              		.loc 1 523 0
 401 0018 FFF7FEBF 		b	mcpwm_set_brake_current
 402              	.LVL30:
 403              	.L22:
 404 001c 7047     		bx	lr
 405              	.L29:
 406 001e 00BF     		.align	2
 407              	.L28:
 408 0020 00000000 		.word	.LANCHOR12
 409              		.cfi_endproc
 410              	.LFE316:
 411              		.size	mc_interface_set_handbrake.part.3, .-mc_interface_set_handbrake.part.3
 412              		.section	.text.mc_interface_init,"ax",%progbits
 413              		.align	2
 414              		.p2align 4,,15
 415              		.global	mc_interface_init
 416              		.thumb
 417              		.thumb_func
 418              		.type	mc_interface_init, %function
 419              	mc_interface_init:
 420              	.LFB256:
 421              		.loc 1 100 0
 422              		.cfi_startproc
 423              		@ args = 0, pretend = 0, frame = 0
 424              		@ frame_needed = 0, uses_anonymous_args = 0
 425              	.LVL31:
 426 0000 F0B5     		push	{r4, r5, r6, r7, lr}
 427              		.cfi_def_cfa_offset 20
 428              		.cfi_offset 4, -20
 429              		.cfi_offset 5, -16
 430              		.cfi_offset 6, -12
 431              		.cfi_offset 7, -8
 432              		.cfi_offset 14, -4
 433              		.loc 1 101 0
 434 0002 3F4D     		ldr	r5, .L40
 435              		.loc 1 104 0
 436 0004 3F4E     		ldr	r6, .L40+4
 437              		.loc 1 108 0
 438 0006 404F     		ldr	r7, .L40+8
 439              		.loc 1 100 0
 440 0008 83B0     		sub	sp, sp, #12
 441              		.cfi_def_cfa_offset 32
 442              		.loc 1 101 0
 443 000a 0146     		mov	r1, r0
 444 000c 4FF4BA72 		mov	r2, #372
 445 0010 2846     		mov	r0, r5
 446              	.LVL32:
 447 0012 FFF7FEFF 		bl	memcpy
 448              	.LVL33:
 449              		.loc 1 105 0
 450 0016 3D4A     		ldr	r2, .L40+12
 451              		.loc 1 106 0
 452 0018 3D49     		ldr	r1, .L40+16
 453              		.loc 1 107 0
 454 001a 3E48     		ldr	r0, .L40+20
 455              		.loc 1 124 0
 456 001c DFF85CE1 		ldr	lr, .L40+124
ARM GAS  /var/folders/sv/kgmgr77579zbf78p2zlhkdfr0000gn/T//ccOxe4My.s 			page 9


 457              		.loc 1 107 0
 458 0020 0023     		movs	r3, #0
 459              		.loc 1 102 0
 460 0022 0024     		movs	r4, #0
 461              		.loc 1 132 0
 462 0024 0094     		str	r4, [sp]
 463              		.loc 1 104 0
 464 0026 3460     		str	r4, [r6]
 465              		.loc 1 105 0
 466 0028 1470     		strb	r4, [r2]
 467              		.loc 1 109 0
 468 002a 3B4E     		ldr	r6, .L40+24
 469              		.loc 1 106 0
 470 002c 0C70     		strb	r4, [r1]
 471              		.loc 1 110 0
 472 002e 3B4A     		ldr	r2, .L40+28
 473              		.loc 1 107 0
 474 0030 0360     		str	r3, [r0]	@ float
 475              		.loc 1 111 0
 476 0032 3B49     		ldr	r1, .L40+32
 477              		.loc 1 112 0
 478 0034 3B48     		ldr	r0, .L40+36
 479              		.loc 1 108 0
 480 0036 3B60     		str	r3, [r7]	@ float
 481              		.loc 1 109 0
 482 0038 3360     		str	r3, [r6]	@ float
 483              		.loc 1 113 0
 484 003a 3B4F     		ldr	r7, .L40+40
 485              		.loc 1 110 0
 486 003c 1360     		str	r3, [r2]	@ float
 487              		.loc 1 114 0
 488 003e 3B4E     		ldr	r6, .L40+44
 489              		.loc 1 111 0
 490 0040 0B60     		str	r3, [r1]	@ float
 491              		.loc 1 115 0
 492 0042 3B4A     		ldr	r2, .L40+48
 493              		.loc 1 112 0
 494 0044 0360     		str	r3, [r0]	@ float
 495              		.loc 1 116 0
 496 0046 3B49     		ldr	r1, .L40+52
 497              		.loc 1 117 0
 498 0048 3B48     		ldr	r0, .L40+56
 499              		.loc 1 113 0
 500 004a 3B60     		str	r3, [r7]	@ float
 501              		.loc 1 114 0
 502 004c 3360     		str	r3, [r6]	@ float
 503              		.loc 1 118 0
 504 004e 3B4F     		ldr	r7, .L40+60
 505              		.loc 1 115 0
 506 0050 1360     		str	r3, [r2]	@ float
 507              		.loc 1 119 0
 508 0052 3B4E     		ldr	r6, .L40+64
 509              		.loc 1 116 0
 510 0054 0B60     		str	r3, [r1]	@ float
 511              		.loc 1 120 0
 512 0056 3B4A     		ldr	r2, .L40+68
 513              		.loc 1 117 0
ARM GAS  /var/folders/sv/kgmgr77579zbf78p2zlhkdfr0000gn/T//ccOxe4My.s 			page 10


 514 0058 0360     		str	r3, [r0]	@ float
 515              		.loc 1 121 0
 516 005a 3B49     		ldr	r1, .L40+72
 517              		.loc 1 122 0
 518 005c 3B48     		ldr	r0, .L40+76
 519              		.loc 1 118 0
 520 005e 3B60     		str	r3, [r7]	@ float
 521              		.loc 1 119 0
 522 0060 3360     		str	r3, [r6]	@ float
 523              		.loc 1 120 0
 524 0062 1360     		str	r3, [r2]	@ float
 525              		.loc 1 121 0
 526 0064 0B60     		str	r3, [r1]	@ float
 527              		.loc 1 122 0
 528 0066 0360     		str	r3, [r0]	@ float
 529              		.loc 1 102 0
 530 0068 394B     		ldr	r3, .L40+80
 531              		.loc 1 125 0
 532 006a 3A4E     		ldr	r6, .L40+84
 533              		.loc 1 102 0
 534 006c 1C70     		strb	r4, [r3]
 535              		.loc 1 124 0
 536 006e 4FF47A73 		mov	r3, #1000
 537 0072 CEF80030 		str	r3, [lr]
 538              		.loc 1 125 0
 539 0076 0123     		movs	r3, #1
 540 0078 3360     		str	r3, [r6]
 541              		.loc 1 126 0
 542 007a 374A     		ldr	r2, .L40+88
 543              		.loc 1 127 0
 544 007c 3749     		ldr	r1, .L40+92
 545              		.loc 1 128 0
 546 007e 3848     		ldr	r0, .L40+96
 547              		.loc 1 103 0
 548 0080 384F     		ldr	r7, .L40+100
 549              		.loc 1 129 0
 550 0082 394E     		ldr	r6, .L40+104
 551              		.loc 1 126 0
 552 0084 1460     		str	r4, [r2]
 553              		.loc 1 132 0
 554 0086 394B     		ldr	r3, .L40+108
 555              		.loc 1 127 0
 556 0088 0C60     		str	r4, [r1]
 557              		.loc 1 132 0
 558 008a 4022     		movs	r2, #64
 559              		.loc 1 128 0
 560 008c 0470     		strb	r4, [r0]
 561              		.loc 1 132 0
 562 008e 4FF4B361 		mov	r1, #1432
 563 0092 3748     		ldr	r0, .L40+112
 564              		.loc 1 103 0
 565 0094 3C60     		str	r4, [r7]
 566              		.loc 1 129 0
 567 0096 3470     		strb	r4, [r6]
 568              		.loc 1 132 0
 569 0098 FFF7FEFF 		bl	chThdCreateStatic
 570              	.LVL34:
ARM GAS  /var/folders/sv/kgmgr77579zbf78p2zlhkdfr0000gn/T//ccOxe4My.s 			page 11


 571              		.loc 1 133 0
 572 009c 354B     		ldr	r3, .L40+116
 573 009e 0094     		str	r4, [sp]
 574 00a0 3548     		ldr	r0, .L40+120
 575 00a2 3F22     		movs	r2, #63
 576 00a4 4FF4B361 		mov	r1, #1432
 577 00a8 FFF7FEFF 		bl	chThdCreateStatic
 578              	.LVL35:
 579              		.loc 1 142 0
 580 00ac 95F85C31 		ldrb	r3, [r5, #348]	@ zero_extendqisi2
 581 00b0 DBB2     		uxtb	r3, r3
 582 00b2 012B     		cmp	r3, #1
 583 00b4 1CD0     		beq	.L32
 584 00b6 022B     		cmp	r3, #2
 585 00b8 01D1     		bne	.L31
 586              		.loc 1 148 0
 587 00ba FFF7FEFF 		bl	encoder_init_as5047p_spi
 588              	.LVL36:
 589              	.L31:
 590              		.loc 1 157 0
 591 00be AB78     		ldrb	r3, [r5, #2]	@ zero_extendqisi2
 592 00c0 032B     		cmp	r3, #3
 593 00c2 1AD8     		bhi	.L30
 594 00c4 DFE803F0 		tbb	[pc, r3]
 595              	.L36:
 596 00c8 0E       		.byte	(.L35-.L36)/2
 597 00c9 08       		.byte	(.L37-.L36)/2
 598 00ca 0E       		.byte	(.L35-.L36)/2
 599 00cb 02       		.byte	(.L38-.L36)/2
 600              		.p2align 1
 601              	.L38:
 602              		.loc 1 166 0
 603 00cc 0C48     		ldr	r0, .L40
 604              		.loc 1 172 0
 605 00ce 03B0     		add	sp, sp, #12
 606              		.cfi_remember_state
 607              		.cfi_def_cfa_offset 20
 608              		@ sp needed
 609 00d0 BDE8F040 		pop	{r4, r5, r6, r7, lr}
 610              		.cfi_restore 14
 611              		.cfi_restore 7
 612              		.cfi_restore 6
 613              		.cfi_restore 5
 614              		.cfi_restore 4
 615              		.cfi_def_cfa_offset 0
 616              		.loc 1 166 0
 617 00d4 FFF7FEBF 		b	mcpwm_foc_init
 618              	.LVL37:
 619              	.L37:
 620              		.cfi_restore_state
 621              		.loc 1 163 0
 622 00d8 0948     		ldr	r0, .L40
 623              		.loc 1 172 0
 624 00da 03B0     		add	sp, sp, #12
 625              		.cfi_remember_state
 626              		.cfi_def_cfa_offset 20
 627              		@ sp needed
ARM GAS  /var/folders/sv/kgmgr77579zbf78p2zlhkdfr0000gn/T//ccOxe4My.s 			page 12


 628 00dc BDE8F040 		pop	{r4, r5, r6, r7, lr}
 629              		.cfi_restore 14
 630              		.cfi_restore 7
 631              		.cfi_restore 6
 632              		.cfi_restore 5
 633              		.cfi_restore 4
 634              		.cfi_def_cfa_offset 0
 635              		.loc 1 163 0
 636 00e0 FFF7FEBF 		b	mcpwm_atc_init
 637              	.LVL38:
 638              	.L35:
 639              		.cfi_restore_state
 640              		.loc 1 160 0
 641 00e4 0648     		ldr	r0, .L40
 642              		.loc 1 172 0
 643 00e6 03B0     		add	sp, sp, #12
 644              		.cfi_remember_state
 645              		.cfi_def_cfa_offset 20
 646              		@ sp needed
 647 00e8 BDE8F040 		pop	{r4, r5, r6, r7, lr}
 648              		.cfi_restore 14
 649              		.cfi_restore 7
 650              		.cfi_restore 6
 651              		.cfi_restore 5
 652              		.cfi_restore 4
 653              		.cfi_def_cfa_offset 0
 654              		.loc 1 160 0
 655 00ec FFF7FEBF 		b	mcpwm_init
 656              	.LVL39:
 657              	.L32:
 658              		.cfi_restore_state
 659              		.loc 1 144 0
 660 00f0 D5F85801 		ldr	r0, [r5, #344]
 661 00f4 FFF7FEFF 		bl	encoder_init_abi
 662              	.LVL40:
 663              		.loc 1 145 0
 664 00f8 E1E7     		b	.L31
 665              	.L30:
 666              		.loc 1 172 0
 667 00fa 03B0     		add	sp, sp, #12
 668              		@ sp needed
 669 00fc F0BD     		pop	{r4, r5, r6, r7, pc}
 670              	.L41:
 671 00fe 00BF     		.align	2
 672              	.L40:
 673 0100 00000000 		.word	.LANCHOR12
 674 0104 00000000 		.word	.LANCHOR15
 675 0108 00000000 		.word	.LANCHOR19
 676 010c 00000000 		.word	.LANCHOR16
 677 0110 00000000 		.word	.LANCHOR17
 678 0114 00000000 		.word	.LANCHOR18
 679 0118 00000000 		.word	.LANCHOR20
 680 011c 00000000 		.word	.LANCHOR21
 681 0120 00000000 		.word	.LANCHOR22
 682 0124 00000000 		.word	.LANCHOR23
 683 0128 00000000 		.word	.LANCHOR24
 684 012c 00000000 		.word	.LANCHOR25
ARM GAS  /var/folders/sv/kgmgr77579zbf78p2zlhkdfr0000gn/T//ccOxe4My.s 			page 13


 685 0130 00000000 		.word	.LANCHOR26
 686 0134 00000000 		.word	.LANCHOR27
 687 0138 00000000 		.word	.LANCHOR28
 688 013c 00000000 		.word	.LANCHOR29
 689 0140 00000000 		.word	.LANCHOR30
 690 0144 00000000 		.word	.LANCHOR31
 691 0148 00000000 		.word	.LANCHOR32
 692 014c 00000000 		.word	.LANCHOR33
 693 0150 00000000 		.word	.LANCHOR13
 694 0154 00000000 		.word	.LANCHOR34
 695 0158 00000000 		.word	.LANCHOR35
 696 015c 00000000 		.word	.LANCHOR3
 697 0160 00000000 		.word	.LANCHOR36
 698 0164 00000000 		.word	.LANCHOR14
 699 0168 00000000 		.word	.LANCHOR1
 700 016c 00000000 		.word	timer_thread
 701 0170 00000000 		.word	.LANCHOR37
 702 0174 00000000 		.word	sample_send_thread
 703 0178 00000000 		.word	.LANCHOR38
 704 017c 00000000 		.word	.LANCHOR2
 705              		.cfi_endproc
 706              	.LFE256:
 707              		.size	mc_interface_init, .-mc_interface_init
 708              		.section	.text.mc_interface_get_configuration,"ax",%progbits
 709              		.align	2
 710              		.p2align 4,,15
 711              		.global	mc_interface_get_configuration
 712              		.thumb
 713              		.thumb_func
 714              		.type	mc_interface_get_configuration, %function
 715              	mc_interface_get_configuration:
 716              	.LFB257:
 717              		.loc 1 174 0
 718              		.cfi_startproc
 719              		@ args = 0, pretend = 0, frame = 0
 720              		@ frame_needed = 0, uses_anonymous_args = 0
 721              		@ link register save eliminated.
 722              		.loc 1 176 0
 723 0000 0048     		ldr	r0, .L43
 724 0002 7047     		bx	lr
 725              	.L44:
 726              		.align	2
 727              	.L43:
 728 0004 00000000 		.word	.LANCHOR12
 729              		.cfi_endproc
 730              	.LFE257:
 731              		.size	mc_interface_get_configuration, .-mc_interface_get_configuration
 732              		.section	.text.mc_interface_dccal_done,"ax",%progbits
 733              		.align	2
 734              		.p2align 4,,15
 735              		.global	mc_interface_dccal_done
 736              		.thumb
 737              		.thumb_func
 738              		.type	mc_interface_dccal_done, %function
 739              	mc_interface_dccal_done:
 740              	.LFB259:
 741              		.loc 1 258 0
ARM GAS  /var/folders/sv/kgmgr77579zbf78p2zlhkdfr0000gn/T//ccOxe4My.s 			page 14


 742              		.cfi_startproc
 743              		@ args = 0, pretend = 0, frame = 0
 744              		@ frame_needed = 0, uses_anonymous_args = 0
 745              	.LVL41:
 746 0000 08B5     		push	{r3, lr}
 747              		.cfi_def_cfa_offset 8
 748              		.cfi_offset 3, -8
 749              		.cfi_offset 14, -4
 750              		.loc 1 260 0
 751 0002 0A4B     		ldr	r3, .L52
 752 0004 9B78     		ldrb	r3, [r3, #2]	@ zero_extendqisi2
 753 0006 032B     		cmp	r3, #3
 754 0008 0DD8     		bhi	.L46
 755 000a DFE803F0 		tbb	[pc, r3]
 756              	.L48:
 757 000e 08       		.byte	(.L47-.L48)/2
 758 000f 02       		.byte	(.L49-.L48)/2
 759 0010 08       		.byte	(.L47-.L48)/2
 760 0011 04       		.byte	(.L50-.L48)/2
 761              		.p2align 1
 762              	.L49:
 763              		.loc 1 266 0
 764 0012 FFF7FEFF 		bl	mcpwm_atc_is_dccal_done
 765              	.LVL42:
 766              	.L50:
 767              		.loc 1 276 0
 768 0016 BDE80840 		pop	{r3, lr}
 769              		.cfi_remember_state
 770              		.cfi_restore 14
 771              		.cfi_restore 3
 772              		.cfi_def_cfa_offset 0
 773              		.loc 1 268 0
 774 001a FFF7FEBF 		b	mcpwm_foc_is_dccal_done
 775              	.LVL43:
 776              	.L47:
 777              		.cfi_restore_state
 778              		.loc 1 276 0
 779 001e BDE80840 		pop	{r3, lr}
 780              		.cfi_restore 14
 781              		.cfi_restore 3
 782              		.cfi_def_cfa_offset 0
 783              		.loc 1 263 0
 784 0022 FFF7FEBF 		b	mcpwm_is_dccal_done
 785              	.LVL44:
 786              	.L46:
 787              		.loc 1 276 0
 788 0026 0020     		movs	r0, #0
 789 0028 08BD     		pop	{r3, pc}
 790              	.L53:
 791 002a 00BF     		.align	2
 792              	.L52:
 793 002c 00000000 		.word	.LANCHOR12
 794              		.cfi_endproc
 795              	.LFE259:
 796              		.size	mc_interface_dccal_done, .-mc_interface_dccal_done
 797              		.section	.text.mc_interface_set_pwm_callback,"ax",%progbits
 798              		.align	2
ARM GAS  /var/folders/sv/kgmgr77579zbf78p2zlhkdfr0000gn/T//ccOxe4My.s 			page 15


 799              		.p2align 4,,15
 800              		.global	mc_interface_set_pwm_callback
 801              		.thumb
 802              		.thumb_func
 803              		.type	mc_interface_set_pwm_callback, %function
 804              	mc_interface_set_pwm_callback:
 805              	.LFB260:
 806              		.loc 1 284 0
 807              		.cfi_startproc
 808              		@ args = 0, pretend = 0, frame = 0
 809              		@ frame_needed = 0, uses_anonymous_args = 0
 810              		@ link register save eliminated.
 811              	.LVL45:
 812              		.loc 1 285 0
 813 0000 014B     		ldr	r3, .L55
 814 0002 1860     		str	r0, [r3]
 815 0004 7047     		bx	lr
 816              	.L56:
 817 0006 00BF     		.align	2
 818              	.L55:
 819 0008 00000000 		.word	.LANCHOR39
 820              		.cfi_endproc
 821              	.LFE260:
 822              		.size	mc_interface_set_pwm_callback, .-mc_interface_set_pwm_callback
 823              		.section	.text.mc_interface_lock,"ax",%progbits
 824              		.align	2
 825              		.p2align 4,,15
 826              		.global	mc_interface_lock
 827              		.thumb
 828              		.thumb_func
 829              		.type	mc_interface_lock, %function
 830              	mc_interface_lock:
 831              	.LFB261:
 832              		.loc 1 291 0
 833              		.cfi_startproc
 834              		@ args = 0, pretend = 0, frame = 0
 835              		@ frame_needed = 0, uses_anonymous_args = 0
 836              		@ link register save eliminated.
 837              		.loc 1 292 0
 838 0000 014B     		ldr	r3, .L58
 839 0002 0122     		movs	r2, #1
 840 0004 1A70     		strb	r2, [r3]
 841 0006 7047     		bx	lr
 842              	.L59:
 843              		.align	2
 844              	.L58:
 845 0008 00000000 		.word	.LANCHOR16
 846              		.cfi_endproc
 847              	.LFE261:
 848              		.size	mc_interface_lock, .-mc_interface_lock
 849              		.section	.text.mc_interface_unlock,"ax",%progbits
 850              		.align	2
 851              		.p2align 4,,15
 852              		.global	mc_interface_unlock
 853              		.thumb
 854              		.thumb_func
 855              		.type	mc_interface_unlock, %function
ARM GAS  /var/folders/sv/kgmgr77579zbf78p2zlhkdfr0000gn/T//ccOxe4My.s 			page 16


 856              	mc_interface_unlock:
 857              	.LFB262:
 858              		.loc 1 298 0
 859              		.cfi_startproc
 860              		@ args = 0, pretend = 0, frame = 0
 861              		@ frame_needed = 0, uses_anonymous_args = 0
 862              		@ link register save eliminated.
 863              		.loc 1 299 0
 864 0000 014B     		ldr	r3, .L61
 865 0002 0022     		movs	r2, #0
 866 0004 1A70     		strb	r2, [r3]
 867 0006 7047     		bx	lr
 868              	.L62:
 869              		.align	2
 870              	.L61:
 871 0008 00000000 		.word	.LANCHOR16
 872              		.cfi_endproc
 873              	.LFE262:
 874              		.size	mc_interface_unlock, .-mc_interface_unlock
 875              		.section	.text.mc_interface_lock_override_once,"ax",%progbits
 876              		.align	2
 877              		.p2align 4,,15
 878              		.global	mc_interface_lock_override_once
 879              		.thumb
 880              		.thumb_func
 881              		.type	mc_interface_lock_override_once, %function
 882              	mc_interface_lock_override_once:
 883              	.LFB263:
 884              		.loc 1 305 0
 885              		.cfi_startproc
 886              		@ args = 0, pretend = 0, frame = 0
 887              		@ frame_needed = 0, uses_anonymous_args = 0
 888              		@ link register save eliminated.
 889              		.loc 1 306 0
 890 0000 014B     		ldr	r3, .L64
 891 0002 0122     		movs	r2, #1
 892 0004 1A70     		strb	r2, [r3]
 893 0006 7047     		bx	lr
 894              	.L65:
 895              		.align	2
 896              	.L64:
 897 0008 00000000 		.word	.LANCHOR17
 898              		.cfi_endproc
 899              	.LFE263:
 900              		.size	mc_interface_lock_override_once, .-mc_interface_lock_override_once
 901              		.section	.text.mc_interface_get_fault,"ax",%progbits
 902              		.align	2
 903              		.p2align 4,,15
 904              		.global	mc_interface_get_fault
 905              		.thumb
 906              		.thumb_func
 907              		.type	mc_interface_get_fault, %function
 908              	mc_interface_get_fault:
 909              	.LFB264:
 910              		.loc 1 309 0
 911              		.cfi_startproc
 912              		@ args = 0, pretend = 0, frame = 0
ARM GAS  /var/folders/sv/kgmgr77579zbf78p2zlhkdfr0000gn/T//ccOxe4My.s 			page 17


 913              		@ frame_needed = 0, uses_anonymous_args = 0
 914              		@ link register save eliminated.
 915              		.loc 1 310 0
 916 0000 014B     		ldr	r3, .L67
 917              		.loc 1 311 0
 918 0002 1878     		ldrb	r0, [r3]	@ zero_extendqisi2
 919 0004 7047     		bx	lr
 920              	.L68:
 921 0006 00BF     		.align	2
 922              	.L67:
 923 0008 00000000 		.word	.LANCHOR13
 924              		.cfi_endproc
 925              	.LFE264:
 926              		.size	mc_interface_get_fault, .-mc_interface_get_fault
 927              		.section	.text.mc_interface_fault_to_string,"ax",%progbits
 928              		.align	2
 929              		.p2align 4,,15
 930              		.global	mc_interface_fault_to_string
 931              		.thumb
 932              		.thumb_func
 933              		.type	mc_interface_fault_to_string, %function
 934              	mc_interface_fault_to_string:
 935              	.LFB265:
 936              		.loc 1 313 0
 937              		.cfi_startproc
 938              		@ args = 0, pretend = 0, frame = 0
 939              		@ frame_needed = 0, uses_anonymous_args = 0
 940              		@ link register save eliminated.
 941              	.LVL46:
 942 0000 0628     		cmp	r0, #6
 943 0002 9ABF     		itte	ls
 944 0004 024B     		ldrls	r3, .L72
 945 0006 53F82000 		ldrls	r0, [r3, r0, lsl #2]
 946              	.LVL47:
 947              		.loc 1 313 0
 948 000a 0248     		ldrhi	r0, .L72+4
 949              		.loc 1 324 0
 950 000c 7047     		bx	lr
 951              	.L73:
 952 000e 00BF     		.align	2
 953              	.L72:
 954 0010 00000000 		.word	.LANCHOR40
 955 0014 10000000 		.word	.LC1
 956              		.cfi_endproc
 957              	.LFE265:
 958              		.size	mc_interface_fault_to_string, .-mc_interface_fault_to_string
 959              		.section	.text.mc_interface_get_state,"ax",%progbits
 960              		.align	2
 961              		.p2align 4,,15
 962              		.global	mc_interface_get_state
 963              		.thumb
 964              		.thumb_func
 965              		.type	mc_interface_get_state, %function
 966              	mc_interface_get_state:
 967              	.LFB266:
 968              		.loc 1 326 0
 969              		.cfi_startproc
ARM GAS  /var/folders/sv/kgmgr77579zbf78p2zlhkdfr0000gn/T//ccOxe4My.s 			page 18


 970              		@ args = 0, pretend = 0, frame = 0
 971              		@ frame_needed = 0, uses_anonymous_args = 0
 972              		@ link register save eliminated.
 973              	.LVL48:
 974              		.loc 1 328 0
 975 0000 064B     		ldr	r3, .L80
 976 0002 9B78     		ldrb	r3, [r3, #2]	@ zero_extendqisi2
 977 0004 032B     		cmp	r3, #3
 978 0006 07D8     		bhi	.L75
 979 0008 DFE803F0 		tbb	[pc, r3]
 980              	.L77:
 981 000c 02       		.byte	(.L78-.L77)/2
 982 000d 02       		.byte	(.L78-.L77)/2
 983 000e 02       		.byte	(.L78-.L77)/2
 984 000f 04       		.byte	(.L79-.L77)/2
 985              		.p2align 1
 986              	.L78:
 987              		.loc 1 334 0
 988 0010 FFF7FEBF 		b	mcpwm_get_state
 989              	.LVL49:
 990              	.L79:
 991              		.loc 1 337 0
 992 0014 FFF7FEBF 		b	mcpwm_foc_get_state
 993              	.LVL50:
 994              	.L75:
 995              		.loc 1 345 0
 996 0018 0020     		movs	r0, #0
 997 001a 7047     		bx	lr
 998              	.L81:
 999              		.align	2
 1000              	.L80:
 1001 001c 00000000 		.word	.LANCHOR12
 1002              		.cfi_endproc
 1003              	.LFE266:
 1004              		.size	mc_interface_get_state, .-mc_interface_get_state
 1005              		.section	.text.mc_interface_get_duty_cycle_set,"ax",%progbits
 1006              		.align	2
 1007              		.p2align 4,,15
 1008              		.global	mc_interface_get_duty_cycle_set
 1009              		.thumb
 1010              		.thumb_func
 1011              		.type	mc_interface_get_duty_cycle_set, %function
 1012              	mc_interface_get_duty_cycle_set:
 1013              	.LFB279:
 1014              		.loc 1 561 0
 1015              		.cfi_startproc
 1016              		@ args = 0, pretend = 0, frame = 0
 1017              		@ frame_needed = 0, uses_anonymous_args = 0
 1018              	.LVL51:
 1019 0000 10B5     		push	{r4, lr}
 1020              		.cfi_def_cfa_offset 8
 1021              		.cfi_offset 4, -8
 1022              		.cfi_offset 14, -4
 1023              		.loc 1 564 0
 1024 0002 104C     		ldr	r4, .L92
 1025 0004 A378     		ldrb	r3, [r4, #2]	@ zero_extendqisi2
 1026 0006 032B     		cmp	r3, #3
ARM GAS  /var/folders/sv/kgmgr77579zbf78p2zlhkdfr0000gn/T//ccOxe4My.s 			page 19


 1027 0008 18D8     		bhi	.L89
 1028 000a DFE803F0 		tbb	[pc, r3]
 1029              	.L85:
 1030 000e 14       		.byte	(.L84-.L85)/2
 1031 000f 11       		.byte	(.L86-.L85)/2
 1032 0010 14       		.byte	(.L84-.L85)/2
 1033 0011 02       		.byte	(.L87-.L85)/2
 1034              		.p2align 1
 1035              	.L87:
 1036              		.loc 1 573 0
 1037 0012 FFF7FEFF 		bl	mcpwm_foc_get_duty_cycle_set
 1038              	.LVL52:
 1039              	.L83:
 1040              		.loc 1 580 0
 1041 0016 94F85D31 		ldrb	r3, [r4, #349]	@ zero_extendqisi2
 1042 001a B7EE007A 		vmov.f32	s14, #1.0e+0
 1043 001e 002B     		cmp	r3, #0
 1044 0020 FFEE007A 		vmov.f32	s15, #-1.0e+0
 1045 0024 08BF     		it	eq
 1046 0026 F0EE477A 		vmoveq.f32	s15, s14
 1047              		.loc 1 581 0
 1048 002a 20EE270A 		vmul.f32	s0, s0, s15
 1049              	.LVL53:
 1050 002e 10BD     		pop	{r4, pc}
 1051              	.LVL54:
 1052              	.L86:
 1053              		.loc 1 570 0
 1054 0030 FFF7FEFF 		bl	mcpwm_atc_get_duty_cycle_set
 1055              	.LVL55:
 1056              		.loc 1 571 0
 1057 0034 EFE7     		b	.L83
 1058              	.LVL56:
 1059              	.L84:
 1060              		.loc 1 567 0
 1061 0036 FFF7FEFF 		bl	mcpwm_get_duty_cycle_set
 1062              	.LVL57:
 1063              		.loc 1 568 0
 1064 003a ECE7     		b	.L83
 1065              	.LVL58:
 1066              	.L89:
 1067              		.loc 1 562 0
 1068 003c 9FED020A 		vldr.32	s0, .L92+4
 1069 0040 E9E7     		b	.L83
 1070              	.L93:
 1071 0042 00BF     		.align	2
 1072              	.L92:
 1073 0044 00000000 		.word	.LANCHOR12
 1074 0048 00000000 		.word	0
 1075              		.cfi_endproc
 1076              	.LFE279:
 1077              		.size	mc_interface_get_duty_cycle_set, .-mc_interface_get_duty_cycle_set
 1078              		.section	.text.mc_interface_get_duty_cycle_now,"ax",%progbits
 1079              		.align	2
 1080              		.p2align 4,,15
 1081              		.global	mc_interface_get_duty_cycle_now
 1082              		.thumb
 1083              		.thumb_func
ARM GAS  /var/folders/sv/kgmgr77579zbf78p2zlhkdfr0000gn/T//ccOxe4My.s 			page 20


 1084              		.type	mc_interface_get_duty_cycle_now, %function
 1085              	mc_interface_get_duty_cycle_now:
 1086              	.LFB280:
 1087              		.loc 1 583 0
 1088              		.cfi_startproc
 1089              		@ args = 0, pretend = 0, frame = 0
 1090              		@ frame_needed = 0, uses_anonymous_args = 0
 1091              	.LVL59:
 1092 0000 10B5     		push	{r4, lr}
 1093              		.cfi_def_cfa_offset 8
 1094              		.cfi_offset 4, -8
 1095              		.cfi_offset 14, -4
 1096              		.loc 1 586 0
 1097 0002 104C     		ldr	r4, .L104
 1098 0004 A378     		ldrb	r3, [r4, #2]	@ zero_extendqisi2
 1099 0006 032B     		cmp	r3, #3
 1100 0008 18D8     		bhi	.L101
 1101 000a DFE803F0 		tbb	[pc, r3]
 1102              	.L97:
 1103 000e 14       		.byte	(.L96-.L97)/2
 1104 000f 11       		.byte	(.L98-.L97)/2
 1105 0010 14       		.byte	(.L96-.L97)/2
 1106 0011 02       		.byte	(.L99-.L97)/2
 1107              		.p2align 1
 1108              	.L99:
 1109              		.loc 1 595 0
 1110 0012 FFF7FEFF 		bl	mcpwm_foc_get_duty_cycle_now
 1111              	.LVL60:
 1112              	.L95:
 1113              		.loc 1 602 0
 1114 0016 94F85D31 		ldrb	r3, [r4, #349]	@ zero_extendqisi2
 1115 001a B7EE007A 		vmov.f32	s14, #1.0e+0
 1116 001e 002B     		cmp	r3, #0
 1117 0020 FFEE007A 		vmov.f32	s15, #-1.0e+0
 1118 0024 08BF     		it	eq
 1119 0026 F0EE477A 		vmoveq.f32	s15, s14
 1120              		.loc 1 603 0
 1121 002a 20EE270A 		vmul.f32	s0, s0, s15
 1122              	.LVL61:
 1123 002e 10BD     		pop	{r4, pc}
 1124              	.LVL62:
 1125              	.L98:
 1126              		.loc 1 592 0
 1127 0030 FFF7FEFF 		bl	mcpwm_atc_get_duty_cycle_now
 1128              	.LVL63:
 1129              		.loc 1 593 0
 1130 0034 EFE7     		b	.L95
 1131              	.LVL64:
 1132              	.L96:
 1133              		.loc 1 589 0
 1134 0036 FFF7FEFF 		bl	mcpwm_get_duty_cycle_now
 1135              	.LVL65:
 1136              		.loc 1 590 0
 1137 003a ECE7     		b	.L95
 1138              	.LVL66:
 1139              	.L101:
 1140              		.loc 1 584 0
ARM GAS  /var/folders/sv/kgmgr77579zbf78p2zlhkdfr0000gn/T//ccOxe4My.s 			page 21


 1141 003c 9FED020A 		vldr.32	s0, .L104+4
 1142 0040 E9E7     		b	.L95
 1143              	.L105:
 1144 0042 00BF     		.align	2
 1145              	.L104:
 1146 0044 00000000 		.word	.LANCHOR12
 1147 0048 00000000 		.word	0
 1148              		.cfi_endproc
 1149              	.LFE280:
 1150              		.size	mc_interface_get_duty_cycle_now, .-mc_interface_get_duty_cycle_now
 1151              		.section	.text.mc_interface_get_sampling_frequency_now,"ax",%progbits
 1152              		.align	2
 1153              		.p2align 4,,15
 1154              		.global	mc_interface_get_sampling_frequency_now
 1155              		.thumb
 1156              		.thumb_func
 1157              		.type	mc_interface_get_sampling_frequency_now, %function
 1158              	mc_interface_get_sampling_frequency_now:
 1159              	.LFB281:
 1160              		.loc 1 605 0
 1161              		.cfi_startproc
 1162              		@ args = 0, pretend = 0, frame = 0
 1163              		@ frame_needed = 0, uses_anonymous_args = 0
 1164              		@ link register save eliminated.
 1165              	.LVL67:
 1166              		.loc 1 608 0
 1167 0000 084B     		ldr	r3, .L112
 1168 0002 9B78     		ldrb	r3, [r3, #2]	@ zero_extendqisi2
 1169 0004 032B     		cmp	r3, #3
 1170 0006 09D8     		bhi	.L107
 1171 0008 DFE803F0 		tbb	[pc, r3]
 1172              	.L109:
 1173 000c 06       		.byte	(.L108-.L109)/2
 1174 000d 04       		.byte	(.L110-.L109)/2
 1175 000e 06       		.byte	(.L108-.L109)/2
 1176 000f 02       		.byte	(.L111-.L109)/2
 1177              		.p2align 1
 1178              	.L111:
 1179              		.loc 1 617 0
 1180 0010 FFF7FEBF 		b	mcpwm_foc_get_sampling_frequency_now
 1181              	.LVL68:
 1182              	.L110:
 1183              		.loc 1 614 0
 1184 0014 FFF7FEBF 		b	mcpwm_atc_get_sampling_frequency_now
 1185              	.LVL69:
 1186              	.L108:
 1187              		.loc 1 611 0
 1188 0018 FFF7FEBF 		b	mcpwm_get_switching_frequency_now
 1189              	.LVL70:
 1190              	.L107:
 1191              		.loc 1 625 0
 1192 001c 9FED020A 		vldr.32	s0, .L112+4
 1193 0020 7047     		bx	lr
 1194              	.L113:
 1195 0022 00BF     		.align	2
 1196              	.L112:
 1197 0024 00000000 		.word	.LANCHOR12
ARM GAS  /var/folders/sv/kgmgr77579zbf78p2zlhkdfr0000gn/T//ccOxe4My.s 			page 22


 1198 0028 00000000 		.word	0
 1199              		.cfi_endproc
 1200              	.LFE281:
 1201              		.size	mc_interface_get_sampling_frequency_now, .-mc_interface_get_sampling_frequency_now
 1202              		.section	.text.mc_interface_get_rpm,"ax",%progbits
 1203              		.align	2
 1204              		.p2align 4,,15
 1205              		.global	mc_interface_get_rpm
 1206              		.thumb
 1207              		.thumb_func
 1208              		.type	mc_interface_get_rpm, %function
 1209              	mc_interface_get_rpm:
 1210              	.LFB282:
 1211              		.loc 1 627 0
 1212              		.cfi_startproc
 1213              		@ args = 0, pretend = 0, frame = 0
 1214              		@ frame_needed = 0, uses_anonymous_args = 0
 1215              	.LVL71:
 1216 0000 10B5     		push	{r4, lr}
 1217              		.cfi_def_cfa_offset 8
 1218              		.cfi_offset 4, -8
 1219              		.cfi_offset 14, -4
 1220              		.loc 1 630 0
 1221 0002 104C     		ldr	r4, .L124
 1222 0004 A378     		ldrb	r3, [r4, #2]	@ zero_extendqisi2
 1223 0006 032B     		cmp	r3, #3
 1224 0008 18D8     		bhi	.L121
 1225 000a DFE803F0 		tbb	[pc, r3]
 1226              	.L117:
 1227 000e 14       		.byte	(.L116-.L117)/2
 1228 000f 11       		.byte	(.L118-.L117)/2
 1229 0010 14       		.byte	(.L116-.L117)/2
 1230 0011 02       		.byte	(.L119-.L117)/2
 1231              		.p2align 1
 1232              	.L119:
 1233              		.loc 1 639 0
 1234 0012 FFF7FEFF 		bl	mcpwm_foc_get_rpm
 1235              	.LVL72:
 1236              	.L115:
 1237              		.loc 1 646 0
 1238 0016 94F85D31 		ldrb	r3, [r4, #349]	@ zero_extendqisi2
 1239 001a B7EE007A 		vmov.f32	s14, #1.0e+0
 1240 001e 002B     		cmp	r3, #0
 1241 0020 FFEE007A 		vmov.f32	s15, #-1.0e+0
 1242 0024 08BF     		it	eq
 1243 0026 F0EE477A 		vmoveq.f32	s15, s14
 1244              		.loc 1 647 0
 1245 002a 20EE270A 		vmul.f32	s0, s0, s15
 1246              	.LVL73:
 1247 002e 10BD     		pop	{r4, pc}
 1248              	.LVL74:
 1249              	.L118:
 1250              		.loc 1 636 0
 1251 0030 FFF7FEFF 		bl	mcpwm_atc_get_rpm
 1252              	.LVL75:
 1253              		.loc 1 637 0
 1254 0034 EFE7     		b	.L115
ARM GAS  /var/folders/sv/kgmgr77579zbf78p2zlhkdfr0000gn/T//ccOxe4My.s 			page 23


 1255              	.LVL76:
 1256              	.L116:
 1257              		.loc 1 633 0
 1258 0036 FFF7FEFF 		bl	mcpwm_get_rpm
 1259              	.LVL77:
 1260              		.loc 1 634 0
 1261 003a ECE7     		b	.L115
 1262              	.LVL78:
 1263              	.L121:
 1264              		.loc 1 628 0
 1265 003c 9FED020A 		vldr.32	s0, .L124+4
 1266 0040 E9E7     		b	.L115
 1267              	.L125:
 1268 0042 00BF     		.align	2
 1269              	.L124:
 1270 0044 00000000 		.word	.LANCHOR12
 1271 0048 00000000 		.word	0
 1272              		.cfi_endproc
 1273              	.LFE282:
 1274              		.size	mc_interface_get_rpm, .-mc_interface_get_rpm
 1275              		.section	.text.mc_interface_get_amp_hours,"ax",%progbits
 1276              		.align	2
 1277              		.p2align 4,,15
 1278              		.global	mc_interface_get_amp_hours
 1279              		.thumb
 1280              		.thumb_func
 1281              		.type	mc_interface_get_amp_hours, %function
 1282              	mc_interface_get_amp_hours:
 1283              	.LFB283:
 1284              		.loc 1 658 0
 1285              		.cfi_startproc
 1286              		@ args = 0, pretend = 0, frame = 0
 1287              		@ frame_needed = 0, uses_anonymous_args = 0
 1288              		@ link register save eliminated.
 1289              	.LVL79:
 1290              		.loc 1 659 0
 1291 0000 054B     		ldr	r3, .L131
 1292 0002 DFED067A 		vldr.32	s15, .L131+4
 1293 0006 93ED007A 		vldr.32	s14, [r3]
 1294 000a 87EE270A 		vdiv.f32	s0, s14, s15
 1295              	.LVL80:
 1296              		.loc 1 661 0
 1297 000e 08B1     		cbz	r0, .L127
 1298              		.loc 1 662 0
 1299 0010 0022     		movs	r2, #0
 1300 0012 1A60     		str	r2, [r3]	@ float
 1301              	.L127:
 1302              		.loc 1 666 0
 1303 0014 7047     		bx	lr
 1304              	.L132:
 1305 0016 00BF     		.align	2
 1306              	.L131:
 1307 0018 00000000 		.word	.LANCHOR26
 1308 001c 00006145 		.word	1163984896
 1309              		.cfi_endproc
 1310              	.LFE283:
 1311              		.size	mc_interface_get_amp_hours, .-mc_interface_get_amp_hours
ARM GAS  /var/folders/sv/kgmgr77579zbf78p2zlhkdfr0000gn/T//ccOxe4My.s 			page 24


 1312              		.section	.text.mc_interface_get_amp_hours_charged,"ax",%progbits
 1313              		.align	2
 1314              		.p2align 4,,15
 1315              		.global	mc_interface_get_amp_hours_charged
 1316              		.thumb
 1317              		.thumb_func
 1318              		.type	mc_interface_get_amp_hours_charged, %function
 1319              	mc_interface_get_amp_hours_charged:
 1320              	.LFB284:
 1321              		.loc 1 677 0
 1322              		.cfi_startproc
 1323              		@ args = 0, pretend = 0, frame = 0
 1324              		@ frame_needed = 0, uses_anonymous_args = 0
 1325              		@ link register save eliminated.
 1326              	.LVL81:
 1327              		.loc 1 678 0
 1328 0000 054B     		ldr	r3, .L138
 1329 0002 DFED067A 		vldr.32	s15, .L138+4
 1330 0006 93ED007A 		vldr.32	s14, [r3]
 1331 000a 87EE270A 		vdiv.f32	s0, s14, s15
 1332              	.LVL82:
 1333              		.loc 1 680 0
 1334 000e 08B1     		cbz	r0, .L134
 1335              		.loc 1 681 0
 1336 0010 0022     		movs	r2, #0
 1337 0012 1A60     		str	r2, [r3]	@ float
 1338              	.L134:
 1339              		.loc 1 685 0
 1340 0014 7047     		bx	lr
 1341              	.L139:
 1342 0016 00BF     		.align	2
 1343              	.L138:
 1344 0018 00000000 		.word	.LANCHOR27
 1345 001c 00006145 		.word	1163984896
 1346              		.cfi_endproc
 1347              	.LFE284:
 1348              		.size	mc_interface_get_amp_hours_charged, .-mc_interface_get_amp_hours_charged
 1349              		.section	.text.mc_interface_get_watt_hours,"ax",%progbits
 1350              		.align	2
 1351              		.p2align 4,,15
 1352              		.global	mc_interface_get_watt_hours
 1353              		.thumb
 1354              		.thumb_func
 1355              		.type	mc_interface_get_watt_hours, %function
 1356              	mc_interface_get_watt_hours:
 1357              	.LFB285:
 1358              		.loc 1 696 0
 1359              		.cfi_startproc
 1360              		@ args = 0, pretend = 0, frame = 0
 1361              		@ frame_needed = 0, uses_anonymous_args = 0
 1362              		@ link register save eliminated.
 1363              	.LVL83:
 1364              		.loc 1 697 0
 1365 0000 054B     		ldr	r3, .L145
 1366 0002 DFED067A 		vldr.32	s15, .L145+4
 1367 0006 93ED007A 		vldr.32	s14, [r3]
 1368 000a 87EE270A 		vdiv.f32	s0, s14, s15
ARM GAS  /var/folders/sv/kgmgr77579zbf78p2zlhkdfr0000gn/T//ccOxe4My.s 			page 25


 1369              	.LVL84:
 1370              		.loc 1 699 0
 1371 000e 08B1     		cbz	r0, .L141
 1372              		.loc 1 700 0
 1373 0010 0022     		movs	r2, #0
 1374 0012 1A60     		str	r2, [r3]	@ float
 1375              	.L141:
 1376              		.loc 1 704 0
 1377 0014 7047     		bx	lr
 1378              	.L146:
 1379 0016 00BF     		.align	2
 1380              	.L145:
 1381 0018 00000000 		.word	.LANCHOR28
 1382 001c 00006145 		.word	1163984896
 1383              		.cfi_endproc
 1384              	.LFE285:
 1385              		.size	mc_interface_get_watt_hours, .-mc_interface_get_watt_hours
 1386              		.section	.text.mc_interface_get_watt_hours_charged,"ax",%progbits
 1387              		.align	2
 1388              		.p2align 4,,15
 1389              		.global	mc_interface_get_watt_hours_charged
 1390              		.thumb
 1391              		.thumb_func
 1392              		.type	mc_interface_get_watt_hours_charged, %function
 1393              	mc_interface_get_watt_hours_charged:
 1394              	.LFB286:
 1395              		.loc 1 715 0
 1396              		.cfi_startproc
 1397              		@ args = 0, pretend = 0, frame = 0
 1398              		@ frame_needed = 0, uses_anonymous_args = 0
 1399              		@ link register save eliminated.
 1400              	.LVL85:
 1401              		.loc 1 716 0
 1402 0000 054B     		ldr	r3, .L152
 1403 0002 DFED067A 		vldr.32	s15, .L152+4
 1404 0006 93ED007A 		vldr.32	s14, [r3]
 1405 000a 87EE270A 		vdiv.f32	s0, s14, s15
 1406              	.LVL86:
 1407              		.loc 1 718 0
 1408 000e 08B1     		cbz	r0, .L148
 1409              		.loc 1 719 0
 1410 0010 0022     		movs	r2, #0
 1411 0012 1A60     		str	r2, [r3]	@ float
 1412              	.L148:
 1413              		.loc 1 723 0
 1414 0014 7047     		bx	lr
 1415              	.L153:
 1416 0016 00BF     		.align	2
 1417              	.L152:
 1418 0018 00000000 		.word	.LANCHOR29
 1419 001c 00006145 		.word	1163984896
 1420              		.cfi_endproc
 1421              	.LFE286:
 1422              		.size	mc_interface_get_watt_hours_charged, .-mc_interface_get_watt_hours_charged
 1423              		.section	.text.mc_interface_get_tot_current,"ax",%progbits
 1424              		.align	2
 1425              		.p2align 4,,15
ARM GAS  /var/folders/sv/kgmgr77579zbf78p2zlhkdfr0000gn/T//ccOxe4My.s 			page 26


 1426              		.global	mc_interface_get_tot_current
 1427              		.thumb
 1428              		.thumb_func
 1429              		.type	mc_interface_get_tot_current, %function
 1430              	mc_interface_get_tot_current:
 1431              	.LFB287:
 1432              		.loc 1 725 0
 1433              		.cfi_startproc
 1434              		@ args = 0, pretend = 0, frame = 0
 1435              		@ frame_needed = 0, uses_anonymous_args = 0
 1436              		@ link register save eliminated.
 1437              	.LVL87:
 1438              		.loc 1 728 0
 1439 0000 084B     		ldr	r3, .L160
 1440 0002 9B78     		ldrb	r3, [r3, #2]	@ zero_extendqisi2
 1441 0004 032B     		cmp	r3, #3
 1442 0006 09D8     		bhi	.L155
 1443 0008 DFE803F0 		tbb	[pc, r3]
 1444              	.L157:
 1445 000c 06       		.byte	(.L156-.L157)/2
 1446 000d 04       		.byte	(.L158-.L157)/2
 1447 000e 06       		.byte	(.L156-.L157)/2
 1448 000f 02       		.byte	(.L159-.L157)/2
 1449              		.p2align 1
 1450              	.L159:
 1451              		.loc 1 737 0
 1452 0010 FFF7FEBF 		b	mcpwm_foc_get_tot_current
 1453              	.LVL88:
 1454              	.L158:
 1455              		.loc 1 734 0
 1456 0014 FFF7FEBF 		b	mcpwm_atc_get_tot_current
 1457              	.LVL89:
 1458              	.L156:
 1459              		.loc 1 731 0
 1460 0018 FFF7FEBF 		b	mcpwm_get_tot_current
 1461              	.LVL90:
 1462              	.L155:
 1463              		.loc 1 745 0
 1464 001c 9FED020A 		vldr.32	s0, .L160+4
 1465 0020 7047     		bx	lr
 1466              	.L161:
 1467 0022 00BF     		.align	2
 1468              	.L160:
 1469 0024 00000000 		.word	.LANCHOR12
 1470 0028 00000000 		.word	0
 1471              		.cfi_endproc
 1472              	.LFE287:
 1473              		.size	mc_interface_get_tot_current, .-mc_interface_get_tot_current
 1474              		.section	.text.mc_interface_get_tot_current_filtered,"ax",%progbits
 1475              		.align	2
 1476              		.p2align 4,,15
 1477              		.global	mc_interface_get_tot_current_filtered
 1478              		.thumb
 1479              		.thumb_func
 1480              		.type	mc_interface_get_tot_current_filtered, %function
 1481              	mc_interface_get_tot_current_filtered:
 1482              	.LFB288:
ARM GAS  /var/folders/sv/kgmgr77579zbf78p2zlhkdfr0000gn/T//ccOxe4My.s 			page 27


 1483              		.loc 1 747 0
 1484              		.cfi_startproc
 1485              		@ args = 0, pretend = 0, frame = 0
 1486              		@ frame_needed = 0, uses_anonymous_args = 0
 1487              		@ link register save eliminated.
 1488              	.LVL91:
 1489              		.loc 1 750 0
 1490 0000 084B     		ldr	r3, .L168
 1491 0002 9B78     		ldrb	r3, [r3, #2]	@ zero_extendqisi2
 1492 0004 032B     		cmp	r3, #3
 1493 0006 09D8     		bhi	.L163
 1494 0008 DFE803F0 		tbb	[pc, r3]
 1495              	.L165:
 1496 000c 06       		.byte	(.L164-.L165)/2
 1497 000d 04       		.byte	(.L166-.L165)/2
 1498 000e 06       		.byte	(.L164-.L165)/2
 1499 000f 02       		.byte	(.L167-.L165)/2
 1500              		.p2align 1
 1501              	.L167:
 1502              		.loc 1 759 0
 1503 0010 FFF7FEBF 		b	mcpwm_foc_get_tot_current_filtered
 1504              	.LVL92:
 1505              	.L166:
 1506              		.loc 1 756 0
 1507 0014 FFF7FEBF 		b	mcpwm_atc_get_tot_current_filtered
 1508              	.LVL93:
 1509              	.L164:
 1510              		.loc 1 753 0
 1511 0018 FFF7FEBF 		b	mcpwm_get_tot_current_filtered
 1512              	.LVL94:
 1513              	.L163:
 1514              		.loc 1 767 0
 1515 001c 9FED020A 		vldr.32	s0, .L168+4
 1516 0020 7047     		bx	lr
 1517              	.L169:
 1518 0022 00BF     		.align	2
 1519              	.L168:
 1520 0024 00000000 		.word	.LANCHOR12
 1521 0028 00000000 		.word	0
 1522              		.cfi_endproc
 1523              	.LFE288:
 1524              		.size	mc_interface_get_tot_current_filtered, .-mc_interface_get_tot_current_filtered
 1525              		.section	.text.mc_interface_get_tot_current_directional,"ax",%progbits
 1526              		.align	2
 1527              		.p2align 4,,15
 1528              		.global	mc_interface_get_tot_current_directional
 1529              		.thumb
 1530              		.thumb_func
 1531              		.type	mc_interface_get_tot_current_directional, %function
 1532              	mc_interface_get_tot_current_directional:
 1533              	.LFB289:
 1534              		.loc 1 769 0
 1535              		.cfi_startproc
 1536              		@ args = 0, pretend = 0, frame = 0
 1537              		@ frame_needed = 0, uses_anonymous_args = 0
 1538              	.LVL95:
 1539 0000 10B5     		push	{r4, lr}
ARM GAS  /var/folders/sv/kgmgr77579zbf78p2zlhkdfr0000gn/T//ccOxe4My.s 			page 28


 1540              		.cfi_def_cfa_offset 8
 1541              		.cfi_offset 4, -8
 1542              		.cfi_offset 14, -4
 1543              		.loc 1 772 0
 1544 0002 104C     		ldr	r4, .L180
 1545 0004 A378     		ldrb	r3, [r4, #2]	@ zero_extendqisi2
 1546 0006 032B     		cmp	r3, #3
 1547 0008 18D8     		bhi	.L177
 1548 000a DFE803F0 		tbb	[pc, r3]
 1549              	.L173:
 1550 000e 14       		.byte	(.L172-.L173)/2
 1551 000f 11       		.byte	(.L174-.L173)/2
 1552 0010 14       		.byte	(.L172-.L173)/2
 1553 0011 02       		.byte	(.L175-.L173)/2
 1554              		.p2align 1
 1555              	.L175:
 1556              		.loc 1 781 0
 1557 0012 FFF7FEFF 		bl	mcpwm_foc_get_tot_current_directional
 1558              	.LVL96:
 1559              	.L171:
 1560              		.loc 1 788 0
 1561 0016 94F85D31 		ldrb	r3, [r4, #349]	@ zero_extendqisi2
 1562 001a B7EE007A 		vmov.f32	s14, #1.0e+0
 1563 001e 002B     		cmp	r3, #0
 1564 0020 FFEE007A 		vmov.f32	s15, #-1.0e+0
 1565 0024 08BF     		it	eq
 1566 0026 F0EE477A 		vmoveq.f32	s15, s14
 1567              		.loc 1 789 0
 1568 002a 20EE270A 		vmul.f32	s0, s0, s15
 1569              	.LVL97:
 1570 002e 10BD     		pop	{r4, pc}
 1571              	.LVL98:
 1572              	.L174:
 1573              		.loc 1 778 0
 1574 0030 FFF7FEFF 		bl	mcpwm_atc_get_tot_current_directional
 1575              	.LVL99:
 1576              		.loc 1 779 0
 1577 0034 EFE7     		b	.L171
 1578              	.LVL100:
 1579              	.L172:
 1580              		.loc 1 775 0
 1581 0036 FFF7FEFF 		bl	mcpwm_get_tot_current_directional
 1582              	.LVL101:
 1583              		.loc 1 776 0
 1584 003a ECE7     		b	.L171
 1585              	.LVL102:
 1586              	.L177:
 1587              		.loc 1 770 0
 1588 003c 9FED020A 		vldr.32	s0, .L180+4
 1589 0040 E9E7     		b	.L171
 1590              	.L181:
 1591 0042 00BF     		.align	2
 1592              	.L180:
 1593 0044 00000000 		.word	.LANCHOR12
 1594 0048 00000000 		.word	0
 1595              		.cfi_endproc
 1596              	.LFE289:
ARM GAS  /var/folders/sv/kgmgr77579zbf78p2zlhkdfr0000gn/T//ccOxe4My.s 			page 29


 1597              		.size	mc_interface_get_tot_current_directional, .-mc_interface_get_tot_current_directional
 1598              		.section	.text.mc_interface_get_tot_current_directional_filtered,"ax",%progbits
 1599              		.align	2
 1600              		.p2align 4,,15
 1601              		.global	mc_interface_get_tot_current_directional_filtered
 1602              		.thumb
 1603              		.thumb_func
 1604              		.type	mc_interface_get_tot_current_directional_filtered, %function
 1605              	mc_interface_get_tot_current_directional_filtered:
 1606              	.LFB290:
 1607              		.loc 1 791 0
 1608              		.cfi_startproc
 1609              		@ args = 0, pretend = 0, frame = 0
 1610              		@ frame_needed = 0, uses_anonymous_args = 0
 1611              	.LVL103:
 1612 0000 10B5     		push	{r4, lr}
 1613              		.cfi_def_cfa_offset 8
 1614              		.cfi_offset 4, -8
 1615              		.cfi_offset 14, -4
 1616              		.loc 1 794 0
 1617 0002 104C     		ldr	r4, .L192
 1618 0004 A378     		ldrb	r3, [r4, #2]	@ zero_extendqisi2
 1619 0006 032B     		cmp	r3, #3
 1620 0008 18D8     		bhi	.L189
 1621 000a DFE803F0 		tbb	[pc, r3]
 1622              	.L185:
 1623 000e 14       		.byte	(.L184-.L185)/2
 1624 000f 11       		.byte	(.L186-.L185)/2
 1625 0010 14       		.byte	(.L184-.L185)/2
 1626 0011 02       		.byte	(.L187-.L185)/2
 1627              		.p2align 1
 1628              	.L187:
 1629              		.loc 1 803 0
 1630 0012 FFF7FEFF 		bl	mcpwm_foc_get_tot_current_directional_filtered
 1631              	.LVL104:
 1632              	.L183:
 1633              		.loc 1 810 0
 1634 0016 94F85D31 		ldrb	r3, [r4, #349]	@ zero_extendqisi2
 1635 001a B7EE007A 		vmov.f32	s14, #1.0e+0
 1636 001e 002B     		cmp	r3, #0
 1637 0020 FFEE007A 		vmov.f32	s15, #-1.0e+0
 1638 0024 08BF     		it	eq
 1639 0026 F0EE477A 		vmoveq.f32	s15, s14
 1640              		.loc 1 811 0
 1641 002a 20EE270A 		vmul.f32	s0, s0, s15
 1642              	.LVL105:
 1643 002e 10BD     		pop	{r4, pc}
 1644              	.LVL106:
 1645              	.L186:
 1646              		.loc 1 800 0
 1647 0030 FFF7FEFF 		bl	mcpwm_atc_get_tot_current_directional_filtered
 1648              	.LVL107:
 1649              		.loc 1 801 0
 1650 0034 EFE7     		b	.L183
 1651              	.LVL108:
 1652              	.L184:
 1653              		.loc 1 797 0
ARM GAS  /var/folders/sv/kgmgr77579zbf78p2zlhkdfr0000gn/T//ccOxe4My.s 			page 30


 1654 0036 FFF7FEFF 		bl	mcpwm_get_tot_current_directional_filtered
 1655              	.LVL109:
 1656              		.loc 1 798 0
 1657 003a ECE7     		b	.L183
 1658              	.LVL110:
 1659              	.L189:
 1660              		.loc 1 792 0
 1661 003c 9FED020A 		vldr.32	s0, .L192+4
 1662 0040 E9E7     		b	.L183
 1663              	.L193:
 1664 0042 00BF     		.align	2
 1665              	.L192:
 1666 0044 00000000 		.word	.LANCHOR12
 1667 0048 00000000 		.word	0
 1668              		.cfi_endproc
 1669              	.LFE290:
 1670              		.size	mc_interface_get_tot_current_directional_filtered, .-mc_interface_get_tot_current_directiona
 1671              		.section	.text.mc_interface_get_tot_current_in,"ax",%progbits
 1672              		.align	2
 1673              		.p2align 4,,15
 1674              		.global	mc_interface_get_tot_current_in
 1675              		.thumb
 1676              		.thumb_func
 1677              		.type	mc_interface_get_tot_current_in, %function
 1678              	mc_interface_get_tot_current_in:
 1679              	.LFB291:
 1680              		.loc 1 813 0
 1681              		.cfi_startproc
 1682              		@ args = 0, pretend = 0, frame = 0
 1683              		@ frame_needed = 0, uses_anonymous_args = 0
 1684              		@ link register save eliminated.
 1685              	.LVL111:
 1686              		.loc 1 816 0
 1687 0000 084B     		ldr	r3, .L200
 1688 0002 9B78     		ldrb	r3, [r3, #2]	@ zero_extendqisi2
 1689 0004 032B     		cmp	r3, #3
 1690 0006 09D8     		bhi	.L195
 1691 0008 DFE803F0 		tbb	[pc, r3]
 1692              	.L197:
 1693 000c 06       		.byte	(.L196-.L197)/2
 1694 000d 04       		.byte	(.L198-.L197)/2
 1695 000e 06       		.byte	(.L196-.L197)/2
 1696 000f 02       		.byte	(.L199-.L197)/2
 1697              		.p2align 1
 1698              	.L199:
 1699              		.loc 1 825 0
 1700 0010 FFF7FEBF 		b	mcpwm_foc_get_tot_current_in
 1701              	.LVL112:
 1702              	.L198:
 1703              		.loc 1 822 0
 1704 0014 FFF7FEBF 		b	mcpwm_atc_get_tot_current_in
 1705              	.LVL113:
 1706              	.L196:
 1707              		.loc 1 819 0
 1708 0018 FFF7FEBF 		b	mcpwm_get_tot_current_in
 1709              	.LVL114:
 1710              	.L195:
ARM GAS  /var/folders/sv/kgmgr77579zbf78p2zlhkdfr0000gn/T//ccOxe4My.s 			page 31


 1711              		.loc 1 833 0
 1712 001c 9FED020A 		vldr.32	s0, .L200+4
 1713 0020 7047     		bx	lr
 1714              	.L201:
 1715 0022 00BF     		.align	2
 1716              	.L200:
 1717 0024 00000000 		.word	.LANCHOR12
 1718 0028 00000000 		.word	0
 1719              		.cfi_endproc
 1720              	.LFE291:
 1721              		.size	mc_interface_get_tot_current_in, .-mc_interface_get_tot_current_in
 1722              		.section	.text.mc_interface_get_tot_current_in_filtered,"ax",%progbits
 1723              		.align	2
 1724              		.p2align 4,,15
 1725              		.global	mc_interface_get_tot_current_in_filtered
 1726              		.thumb
 1727              		.thumb_func
 1728              		.type	mc_interface_get_tot_current_in_filtered, %function
 1729              	mc_interface_get_tot_current_in_filtered:
 1730              	.LFB292:
 1731              		.loc 1 835 0
 1732              		.cfi_startproc
 1733              		@ args = 0, pretend = 0, frame = 0
 1734              		@ frame_needed = 0, uses_anonymous_args = 0
 1735              		@ link register save eliminated.
 1736              	.LVL115:
 1737              		.loc 1 838 0
 1738 0000 084B     		ldr	r3, .L208
 1739 0002 9B78     		ldrb	r3, [r3, #2]	@ zero_extendqisi2
 1740 0004 032B     		cmp	r3, #3
 1741 0006 09D8     		bhi	.L203
 1742 0008 DFE803F0 		tbb	[pc, r3]
 1743              	.L205:
 1744 000c 06       		.byte	(.L204-.L205)/2
 1745 000d 04       		.byte	(.L206-.L205)/2
 1746 000e 06       		.byte	(.L204-.L205)/2
 1747 000f 02       		.byte	(.L207-.L205)/2
 1748              		.p2align 1
 1749              	.L207:
 1750              		.loc 1 847 0
 1751 0010 FFF7FEBF 		b	mcpwm_foc_get_tot_current_in_filtered
 1752              	.LVL116:
 1753              	.L206:
 1754              		.loc 1 844 0
 1755 0014 FFF7FEBF 		b	mcpwm_atc_get_tot_current_in_filtered
 1756              	.LVL117:
 1757              	.L204:
 1758              		.loc 1 841 0
 1759 0018 FFF7FEBF 		b	mcpwm_get_tot_current_in_filtered
 1760              	.LVL118:
 1761              	.L203:
 1762              		.loc 1 855 0
 1763 001c 9FED020A 		vldr.32	s0, .L208+4
 1764 0020 7047     		bx	lr
 1765              	.L209:
 1766 0022 00BF     		.align	2
 1767              	.L208:
ARM GAS  /var/folders/sv/kgmgr77579zbf78p2zlhkdfr0000gn/T//ccOxe4My.s 			page 32


 1768 0024 00000000 		.word	.LANCHOR12
 1769 0028 00000000 		.word	0
 1770              		.cfi_endproc
 1771              	.LFE292:
 1772              		.size	mc_interface_get_tot_current_in_filtered, .-mc_interface_get_tot_current_in_filtered
 1773              		.section	.text.mc_interface_get_tachometer_value,"ax",%progbits
 1774              		.align	2
 1775              		.p2align 4,,15
 1776              		.global	mc_interface_get_tachometer_value
 1777              		.thumb
 1778              		.thumb_func
 1779              		.type	mc_interface_get_tachometer_value, %function
 1780              	mc_interface_get_tachometer_value:
 1781              	.LFB293:
 1782              		.loc 1 857 0
 1783              		.cfi_startproc
 1784              		@ args = 0, pretend = 0, frame = 0
 1785              		@ frame_needed = 0, uses_anonymous_args = 0
 1786              	.LVL119:
 1787 0000 10B5     		push	{r4, lr}
 1788              		.cfi_def_cfa_offset 8
 1789              		.cfi_offset 4, -8
 1790              		.cfi_offset 14, -4
 1791              		.loc 1 860 0
 1792 0002 184C     		ldr	r4, .L220
 1793 0004 A378     		ldrb	r3, [r4, #2]	@ zero_extendqisi2
 1794 0006 032B     		cmp	r3, #3
 1795 0008 28D8     		bhi	.L217
 1796 000a DFE803F0 		tbb	[pc, r3]
 1797              	.L213:
 1798 000e 20       		.byte	(.L212-.L213)/2
 1799 000f 19       		.byte	(.L214-.L213)/2
 1800 0010 20       		.byte	(.L212-.L213)/2
 1801 0011 02       		.byte	(.L215-.L213)/2
 1802              		.p2align 1
 1803              	.L215:
 1804              		.loc 1 869 0
 1805 0012 FFF7FEFF 		bl	mcpwm_foc_get_tachometer_value
 1806              	.LVL120:
 1807 0016 07EE900A 		vmov	s15, r0	@ int
 1808 001a F8EEE76A 		vcvt.f32.s32	s13, s15
 1809              	.LVL121:
 1810              	.L211:
 1811              		.loc 1 876 0
 1812 001e 94F85D31 		ldrb	r3, [r4, #349]	@ zero_extendqisi2
 1813 0022 B7EE007A 		vmov.f32	s14, #1.0e+0
 1814 0026 002B     		cmp	r3, #0
 1815 0028 FFEE007A 		vmov.f32	s15, #-1.0e+0
 1816 002c 08BF     		it	eq
 1817 002e F0EE477A 		vmoveq.f32	s15, s14
 1818 0032 67EEA67A 		vmul.f32	s15, s15, s13
 1819              		.loc 1 877 0
 1820 0036 FDEEE77A 		vcvt.s32.f32	s15, s15
 1821 003a 17EE900A 		vmov	r0, s15	@ int
 1822 003e 10BD     		pop	{r4, pc}
 1823              	.LVL122:
 1824              	.L214:
ARM GAS  /var/folders/sv/kgmgr77579zbf78p2zlhkdfr0000gn/T//ccOxe4My.s 			page 33


 1825              		.loc 1 866 0
 1826 0040 FFF7FEFF 		bl	mcpwm_atc_get_tachometer_value
 1827              	.LVL123:
 1828 0044 07EE900A 		vmov	s15, r0	@ int
 1829 0048 F8EEE76A 		vcvt.f32.s32	s13, s15
 1830              		.loc 1 867 0
 1831 004c E7E7     		b	.L211
 1832              	.LVL124:
 1833              	.L212:
 1834              		.loc 1 863 0
 1835 004e FFF7FEFF 		bl	mcpwm_get_tachometer_value
 1836              	.LVL125:
 1837 0052 07EE900A 		vmov	s15, r0	@ int
 1838 0056 F8EEE76A 		vcvt.f32.s32	s13, s15
 1839              		.loc 1 864 0
 1840 005a E0E7     		b	.L211
 1841              	.LVL126:
 1842              	.L217:
 1843              		.loc 1 860 0
 1844 005c DFED026A 		vldr.32	s13, .L220+4
 1845 0060 DDE7     		b	.L211
 1846              	.L221:
 1847 0062 00BF     		.align	2
 1848              	.L220:
 1849 0064 00000000 		.word	.LANCHOR12
 1850 0068 00000000 		.word	0
 1851              		.cfi_endproc
 1852              	.LFE293:
 1853              		.size	mc_interface_get_tachometer_value, .-mc_interface_get_tachometer_value
 1854              		.section	.text.mc_interface_fault_stop.part.4,"ax",%progbits
 1855              		.align	2
 1856              		.p2align 4,,15
 1857              		.thumb
 1858              		.thumb_func
 1859              		.type	mc_interface_fault_stop.part.4, %function
 1860              	mc_interface_fault_stop.part.4:
 1861              	.LFB317:
 1862              		.loc 1 1086 0
 1863              		.cfi_startproc
 1864              		@ args = 0, pretend = 0, frame = 72
 1865              		@ frame_needed = 0, uses_anonymous_args = 0
 1866              	.LVL127:
 1867 0000 F0B5     		push	{r4, r5, r6, r7, lr}
 1868              		.cfi_def_cfa_offset 20
 1869              		.cfi_offset 4, -20
 1870              		.cfi_offset 5, -16
 1871              		.cfi_offset 6, -12
 1872              		.cfi_offset 7, -8
 1873              		.cfi_offset 14, -4
 1874 0002 93B0     		sub	sp, sp, #76
 1875              		.cfi_def_cfa_offset 96
 1876              		.loc 1 1086 0
 1877 0004 0546     		mov	r5, r0
 1878              		.loc 1 1092 0
 1879 0006 FFF7FEFF 		bl	mc_interface_dccal_done
 1880              	.LVL128:
 1881 000a 434C     		ldr	r4, .L234
ARM GAS  /var/folders/sv/kgmgr77579zbf78p2zlhkdfr0000gn/T//ccOxe4My.s 			page 34


 1882 000c 08B1     		cbz	r0, .L223
 1883 000e 2678     		ldrb	r6, [r4]	@ zero_extendqisi2
 1884 0010 D6B1     		cbz	r6, .L233
 1885              	.L223:
 1886              		.loc 1 1123 0
 1887 0012 424B     		ldr	r3, .L234+4
 1888 0014 424A     		ldr	r2, .L234+8
 1889 0016 D3F84C11 		ldr	r1, [r3, #332]
 1890              		.loc 1 1125 0
 1891 001a 9B78     		ldrb	r3, [r3, #2]	@ zero_extendqisi2
 1892              		.loc 1 1123 0
 1893 001c 1160     		str	r1, [r2]
 1894              		.loc 1 1125 0
 1895 001e 032B     		cmp	r3, #3
 1896 0020 05D8     		bhi	.L224
 1897 0022 DFE803F0 		tbb	[pc, r3]
 1898              	.L226:
 1899 0026 0C       		.byte	(.L225-.L226)/2
 1900 0027 07       		.byte	(.L227-.L226)/2
 1901 0028 0C       		.byte	(.L225-.L226)/2
 1902 0029 02       		.byte	(.L228-.L226)/2
 1903              		.p2align 1
 1904              	.L228:
 1905              		.loc 1 1134 0
 1906 002a FFF7FEFF 		bl	mcpwm_foc_stop_pwm
 1907              	.LVL129:
 1908              	.L224:
 1909              		.loc 1 1141 0
 1910 002e 2570     		strb	r5, [r4]
 1911              		.loc 1 1142 0
 1912 0030 13B0     		add	sp, sp, #76
 1913              		.cfi_remember_state
 1914              		.cfi_def_cfa_offset 20
 1915              		@ sp needed
 1916 0032 F0BD     		pop	{r4, r5, r6, r7, pc}
 1917              	.L227:
 1918              		.cfi_restore_state
 1919              		.loc 1 1131 0
 1920 0034 FFF7FEFF 		bl	mcpwm_atc_stop_pwm
 1921              	.LVL130:
 1922              		.loc 1 1141 0
 1923 0038 2570     		strb	r5, [r4]
 1924              		.loc 1 1142 0
 1925 003a 13B0     		add	sp, sp, #76
 1926              		.cfi_remember_state
 1927              		.cfi_def_cfa_offset 20
 1928              		@ sp needed
 1929 003c F0BD     		pop	{r4, r5, r6, r7, pc}
 1930              	.L225:
 1931              		.cfi_restore_state
 1932              		.loc 1 1128 0
 1933 003e FFF7FEFF 		bl	mcpwm_stop_pwm
 1934              	.LVL131:
 1935              		.loc 1 1141 0
 1936 0042 2570     		strb	r5, [r4]
 1937              		.loc 1 1142 0
 1938 0044 13B0     		add	sp, sp, #76
ARM GAS  /var/folders/sv/kgmgr77579zbf78p2zlhkdfr0000gn/T//ccOxe4My.s 			page 35


 1939              		.cfi_remember_state
 1940              		.cfi_def_cfa_offset 20
 1941              		@ sp needed
 1942 0046 F0BD     		pop	{r4, r5, r6, r7, pc}
 1943              	.L233:
 1944              		.cfi_restore_state
 1945              	.LBB128:
 1946              		.loc 1 1095 0
 1947 0048 FFF7FEFF 		bl	utils_sys_lock_cnt
 1948              	.LVL132:
 1949              		.loc 1 1096 0
 1950 004c 354A     		ldr	r2, .L234+12
 1951              		.loc 1 1097 0
 1952 004e 364B     		ldr	r3, .L234+16
 1953              		.loc 1 1096 0
 1954 0050 526B     		ldr	r2, [r2, #52]
 1955 0052 0192     		str	r2, [sp, #4]
 1956              		.loc 1 1097 0
 1957 0054 1A6C     		ldr	r2, [r3, #64]
 1958 0056 0292     		str	r2, [sp, #8]
 1959              		.loc 1 1098 0
 1960 0058 DB6A     		ldr	r3, [r3, #44]
 1961 005a 0393     		str	r3, [sp, #12]
 1962              		.loc 1 1099 0
 1963 005c FFF7FEFF 		bl	utils_sys_unlock_cnt
 1964              	.LVL133:
 1965              		.loc 1 1102 0
 1966 0060 8DF81050 		strb	r5, [sp, #16]
 1967              		.loc 1 1103 0
 1968 0064 FFF7FEFF 		bl	mc_interface_get_tot_current
 1969              	.LVL134:
 1970              		.loc 1 1105 0
 1971 0068 304F     		ldr	r7, .L234+20
 1972              		.loc 1 1103 0
 1973 006a 8DED050A 		vstr.32	s0, [sp, #20]
 1974              		.loc 1 1104 0
 1975 006e FFF7FEFF 		bl	mc_interface_get_tot_current_filtered
 1976              	.LVL135:
 1977              		.loc 1 1105 0
 1978 0072 3B8A     		ldrh	r3, [r7, #16]
 1979 0074 DFED2E6A 		vldr.32	s13, .L234+24
 1980 0078 9FED2E7A 		vldr.32	s14, .L234+28
 1981              		.loc 1 1104 0
 1982 007c 8DED060A 		vstr.32	s0, [sp, #24]
 1983              		.loc 1 1105 0
 1984 0080 9BB2     		uxth	r3, r3
 1985 0082 07EE903A 		vmov	s15, r3	@ int
 1986 0086 F8EE677A 		vcvt.f32.u32	s15, s15
 1987 008a 67EEA67A 		vmul.f32	s15, s15, s13
 1988 008e 67EE877A 		vmul.f32	s15, s15, s14
 1989 0092 CDED077A 		vstr.32	s15, [sp, #28]
 1990              		.loc 1 1106 0
 1991 0096 FFF7FEFF 		bl	mc_interface_get_duty_cycle_now
 1992              	.LVL136:
 1993 009a 8DED080A 		vstr.32	s0, [sp, #32]
 1994              		.loc 1 1107 0
 1995 009e FFF7FEFF 		bl	mc_interface_get_rpm
ARM GAS  /var/folders/sv/kgmgr77579zbf78p2zlhkdfr0000gn/T//ccOxe4My.s 			page 36


 1996              	.LVL137:
 1997              		.loc 1 1108 0
 1998 00a2 3046     		mov	r0, r6
 1999              		.loc 1 1107 0
 2000 00a4 8DED090A 		vstr.32	s0, [sp, #36]
 2001              		.loc 1 1108 0
 2002 00a8 FFF7FEFF 		bl	mc_interface_get_tachometer_value
 2003              	.LVL138:
 2004              		.loc 1 1109 0
 2005 00ac 224B     		ldr	r3, .L234+32
 2006              		.loc 1 1108 0
 2007 00ae 0A90     		str	r0, [sp, #40]
 2008              		.loc 1 1109 0
 2009 00b0 1868     		ldr	r0, [r3]
 2010              		.loc 1 1110 0
 2011 00b2 0199     		ldr	r1, [sp, #4]
 2012              		.loc 1 1111 0
 2013 00b4 029A     		ldr	r2, [sp, #8]
 2014              		.loc 1 1112 0
 2015 00b6 039B     		ldr	r3, [sp, #12]
 2016              		.loc 1 1110 0
 2017 00b8 0C91     		str	r1, [sp, #48]
 2018              		.loc 1 1111 0
 2019 00ba 0D92     		str	r2, [sp, #52]
 2020              		.loc 1 1112 0
 2021 00bc 0E93     		str	r3, [sp, #56]
 2022              		.loc 1 1109 0
 2023 00be 0B90     		str	r0, [sp, #44]
 2024              		.loc 1 1113 0
 2025 00c0 FFF7FEFF 		bl	mcpwm_get_comm_step
 2026              	.LVL139:
 2027              		.loc 1 1114 0
 2028 00c4 7B89     		ldrh	r3, [r7, #10]
 2029 00c6 DFED1D6A 		vldr.32	s13, .L234+36
 2030 00ca 9FED1D0A 		vldr.32	s0, .L234+40
 2031              		.loc 1 1113 0
 2032 00ce 0F90     		str	r0, [sp, #60]
 2033              		.loc 1 1114 0
 2034 00d0 9BB2     		uxth	r3, r3
 2035 00d2 07EE903A 		vmov	s15, r3	@ int
 2036 00d6 F8EEE77A 		vcvt.f32.s32	s15, s15
 2037 00da 86EEA77A 		vdiv.f32	s14, s13, s15
 2038 00de 77EE407A 		vsub.f32	s15, s14, s0
 2039 00e2 87EE800A 		vdiv.f32	s0, s15, s0
 2040 00e6 FFF7FEFF 		bl	logf
 2041              	.LVL140:
 2042              		.loc 1 1120 0
 2043 00ea 04A8     		add	r0, sp, #16
 2044              		.loc 1 1114 0
 2045 00ec DFED156A 		vldr.32	s13, .L234+44
 2046 00f0 DFED157A 		vldr.32	s15, .L234+48
 2047 00f4 9FED157A 		vldr.32	s14, .L234+52
 2048 00f8 80EE260A 		vdiv.f32	s0, s0, s13
 2049 00fc F7EE006A 		vmov.f32	s13, #1.0e+0
 2050 0100 30EE270A 		vadd.f32	s0, s0, s15
 2051 0104 C6EE807A 		vdiv.f32	s15, s13, s0
 2052 0108 77EEC77A 		vsub.f32	s15, s15, s14
ARM GAS  /var/folders/sv/kgmgr77579zbf78p2zlhkdfr0000gn/T//ccOxe4My.s 			page 37


 2053 010c CDED107A 		vstr.32	s15, [sp, #64]
 2054              		.loc 1 1120 0
 2055 0110 FFF7FEFF 		bl	terminal_add_fault_data
 2056              	.LVL141:
 2057 0114 7DE7     		b	.L223
 2058              	.L235:
 2059 0116 00BF     		.align	2
 2060              	.L234:
 2061 0118 00000000 		.word	.LANCHOR13
 2062 011c 00000000 		.word	.LANCHOR12
 2063 0120 00000000 		.word	.LANCHOR14
 2064 0124 00040140 		.word	1073808384
 2065 0128 00000140 		.word	1073807360
 2066 012c 00000000 		.word	.LANCHOR41
 2067 0130 6740533A 		.word	978534503
 2068 0134 74D19541 		.word	1100337524
 2069 0138 00000000 		.word	.LANCHOR15
 2070 013c 3C361C4C 		.word	1276917308
 2071 0140 00401C46 		.word	1176256512
 2072 0144 00A05645 		.word	1163304960
 2073 0148 0FCF5B3B 		.word	995872527
 2074 014c 33938843 		.word	1133024051
 2075              	.LBE128:
 2076              		.cfi_endproc
 2077              	.LFE317:
 2078              		.size	mc_interface_fault_stop.part.4, .-mc_interface_fault_stop.part.4
 2079              		.section	.text.update_override_limits.constprop.5,"ax",%progbits
 2080              		.align	2
 2081              		.p2align 4,,15
 2082              		.thumb
 2083              		.thumb_func
 2084              		.type	update_override_limits.constprop.5, %function
 2085              	update_override_limits.constprop.5:
 2086              	.LFB318:
 2087              		.loc 1 1401 0
 2088              		.cfi_startproc
 2089              		@ args = 0, pretend = 0, frame = 0
 2090              		@ frame_needed = 0, uses_anonymous_args = 0
 2091              	.LVL142:
 2092 0000 F8B5     		push	{r3, r4, r5, r6, r7, lr}
 2093              		.cfi_def_cfa_offset 24
 2094              		.cfi_offset 3, -24
 2095              		.cfi_offset 4, -20
 2096              		.cfi_offset 5, -16
 2097              		.cfi_offset 6, -12
 2098              		.cfi_offset 7, -8
 2099              		.cfi_offset 14, -4
 2100              		.loc 1 1402 0
 2101 0002 E24F     		ldr	r7, .L335
 2102              		.loc 1 1405 0
 2103 0004 E24D     		ldr	r5, .L335+4
 2104              		.loc 1 1402 0
 2105 0006 3B8A     		ldrh	r3, [r7, #16]
 2106 0008 9FEDE27A 		vldr.32	s14, .L335+8
 2107              		.loc 1 1406 0
 2108 000c E24E     		ldr	r6, .L335+12
 2109 000e E34C     		ldr	r4, .L335+16
ARM GAS  /var/folders/sv/kgmgr77579zbf78p2zlhkdfr0000gn/T//ccOxe4My.s 			page 38


 2110              		.loc 1 1402 0
 2111 0010 9BB2     		uxth	r3, r3
 2112 0012 07EE903A 		vmov	s15, r3	@ int
 2113              		.loc 1 1401 0
 2114 0016 2DED0A8B 		vpush.64	{d8, d9, d10, d11, d12}
 2115              		.cfi_def_cfa_offset 64
 2116              		.cfi_offset 80, -64
 2117              		.cfi_offset 81, -60
 2118              		.cfi_offset 82, -56
 2119              		.cfi_offset 83, -52
 2120              		.cfi_offset 84, -48
 2121              		.cfi_offset 85, -44
 2122              		.cfi_offset 86, -40
 2123              		.cfi_offset 87, -36
 2124              		.cfi_offset 88, -32
 2125              		.cfi_offset 89, -28
 2126              		.loc 1 1402 0
 2127 001a F8EE677A 		vcvt.f32.u32	s15, s15
 2128 001e 9FEDE08A 		vldr.32	s16, .L335+20
 2129              		.loc 1 1405 0
 2130 0022 DFEDE08A 		vldr.32	s17, .L335+24
 2131 0026 9FEDE0BA 		vldr.32	s22, .L335+28
 2132 002a DFEDE0AA 		vldr.32	s21, .L335+32
 2133 002e 9FEDE0AA 		vldr.32	s20, .L335+36
 2134              		.loc 1 1402 0
 2135 0032 67EE887A 		vmul.f32	s15, s15, s16
 2136              		.loc 1 1405 0
 2137 0036 F7EE00BA 		vmov.f32	s23, #1.0e+0
 2138              		.loc 1 1402 0
 2139 003a 27EE878A 		vmul.f32	s16, s15, s14
 2140              	.LVL143:
 2141              		.loc 1 1403 0
 2142 003e FFF7FEFF 		bl	mc_interface_get_rpm
 2143              	.LVL144:
 2144              		.loc 1 1405 0
 2145 0042 D5ED009A 		vldr.32	s19, [r5]
 2146 0046 7B89     		ldrh	r3, [r7, #10]
 2147 0048 9FEDDA7A 		vldr.32	s14, .L335+40
 2148 004c 9BB2     		uxth	r3, r3
 2149 004e 07EE903A 		vmov	s15, r3	@ int
 2150 0052 F8EEE77A 		vcvt.f32.s32	s15, s15
 2151              		.loc 1 1403 0
 2152 0056 B0EE409A 		vmov.f32	s18, s0
 2153              	.LVL145:
 2154              		.loc 1 1405 0
 2155 005a 87EE270A 		vdiv.f32	s0, s14, s15
 2156              	.LVL146:
 2157 005e 30EE680A 		vsub.f32	s0, s0, s17
 2158 0062 80EE280A 		vdiv.f32	s0, s0, s17
 2159 0066 FFF7FEFF 		bl	logf
 2160              	.LVL147:
 2161 006a 9FEDD37A 		vldr.32	s14, .L335+44
 2162 006e D5ED007A 		vldr.32	s15, [r5]
 2163              		.loc 1 1406 0
 2164 0072 DFEDD26A 		vldr.32	s13, .L335+48
 2165              		.loc 1 1405 0
 2166 0076 80EE070A 		vdiv.f32	s0, s0, s14
ARM GAS  /var/folders/sv/kgmgr77579zbf78p2zlhkdfr0000gn/T//ccOxe4My.s 			page 39


 2167 007a 30EE0B0A 		vadd.f32	s0, s0, s22
 2168 007e 8BEE807A 		vdiv.f32	s14, s23, s0
 2169 0082 37EE6A7A 		vsub.f32	s14, s14, s21
 2170 0086 79EEC79A 		vsub.f32	s19, s19, s14
 2171 008a E9EECA7A 		vfms.f32	s15, s19, s20
 2172 008e C5ED007A 		vstr.32	s15, [r5]
 2173              		.loc 1 1406 0
 2174 0092 D6ED009A 		vldr.32	s19, [r6]
 2175 0096 FB8A     		ldrh	r3, [r7, #22]
 2176 0098 9BB2     		uxth	r3, r3
 2177 009a 07EE903A 		vmov	s15, r3	@ int
 2178 009e F8EE677A 		vcvt.f32.u32	s15, s15
 2179 00a2 86EEA77A 		vdiv.f32	s14, s13, s15
 2180 00a6 77EE6B7A 		vsub.f32	s15, s14, s23
 2181 00aa 88EEA70A 		vdiv.f32	s0, s17, s15
 2182 00ae 80EE280A 		vdiv.f32	s0, s0, s17
 2183 00b2 FFF7FEFF 		bl	logf
 2184              	.LVL148:
 2185 00b6 94ED5C7A 		vldr.32	s14, [r4, #368]
 2186 00ba D6ED007A 		vldr.32	s15, [r6]
 2187 00be 80EE070A 		vdiv.f32	s0, s0, s14
 2188 00c2 30EE0B0A 		vadd.f32	s0, s0, s22
 2189 00c6 8BEE807A 		vdiv.f32	s14, s23, s0
 2190 00ca 37EE6A7A 		vsub.f32	s14, s14, s21
 2191 00ce 79EEC79A 		vsub.f32	s19, s19, s14
 2192 00d2 E9EECA7A 		vfms.f32	s15, s19, s20
 2193 00d6 C6ED007A 		vstr.32	s15, [r6]
 2194              	.LVL149:
 2195              		.loc 1 1411 0
 2196 00da 94ED107A 		vldr.32	s14, [r4, #64]
 2197 00de D5ED007A 		vldr.32	s15, [r5]
 2198 00e2 B4EEE77A 		vcmpe.f32	s14, s15
 2199 00e6 F1EE10FA 		vmrs	APSR_nzcv, FPSCR
 2200 00ea 40F3FA80 		ble	.L312
 2201              		.loc 1 1412 0
 2202 00ee D4ED028A 		vldr.32	s17, [r4, #8]
 2203              	.LVL150:
 2204              		.loc 1 1413 0
 2205 00f2 94ED01AA 		vldr.32	s20, [r4, #4]
 2206              	.LVL151:
 2207              	.L239:
 2208              		.loc 1 1438 0
 2209 00f6 94ED127A 		vldr.32	s14, [r4, #72]
 2210 00fa D6ED007A 		vldr.32	s15, [r6]
 2211 00fe A74B     		ldr	r3, .L335+16
 2212 0100 A54A     		ldr	r2, .L335+12
 2213 0102 B4EEE77A 		vcmpe.f32	s14, s15
 2214 0106 F1EE10FA 		vmrs	APSR_nzcv, FPSCR
 2215 010a 40F32881 		ble	.L316
 2216              		.loc 1 1439 0
 2217 010e D3ED029A 		vldr.32	s19, [r3, #8]
 2218              	.LVL152:
 2219              		.loc 1 1440 0
 2220 0112 D3ED01AA 		vldr.32	s21, [r3, #4]
 2221              	.LVL153:
 2222              	.L252:
 2223              		.loc 1 1464 0
ARM GAS  /var/folders/sv/kgmgr77579zbf78p2zlhkdfr0000gn/T//ccOxe4My.s 			page 40


 2224 0116 94ED140A 		vldr.32	s0, [r4, #80]
 2225 011a DFEDAA0A 		vldr.32	s1, .L335+56
 2226 011e D4ED101A 		vldr.32	s3, [r4, #64]
 2227 0122 9E4F     		ldr	r7, .L335+16
 2228 0124 B3EE092A 		vmov.f32	s4, #2.5e+1
 2229 0128 B7EE001A 		vmov.f32	s2, #1.0e+0
 2230 012c FFF7FEFF 		bl	utils_map
 2231              	.LVL154:
 2232              		.loc 1 1465 0
 2233 0130 DFEDA40A 		vldr.32	s1, .L335+56
 2234              		.loc 1 1464 0
 2235 0134 F0EE40BA 		vmov.f32	s23, s0
 2236              	.LVL155:
 2237              		.loc 1 1465 0
 2238 0138 B3EE092A 		vmov.f32	s4, #2.5e+1
 2239 013c 94ED140A 		vldr.32	s0, [r4, #80]
 2240              	.LVL156:
 2241 0140 D4ED111A 		vldr.32	s3, [r4, #68]
 2242 0144 B7EE001A 		vmov.f32	s2, #1.0e+0
 2243 0148 FFF7FEFF 		bl	utils_map
 2244              	.LVL157:
 2245              		.loc 1 1466 0
 2246 014c DFED9D0A 		vldr.32	s1, .L335+56
 2247 0150 B3EE092A 		vmov.f32	s4, #2.5e+1
 2248 0154 B7EE001A 		vmov.f32	s2, #1.0e+0
 2249              		.loc 1 1465 0
 2250 0158 F0EE40CA 		vmov.f32	s25, s0
 2251              	.LVL158:
 2252              		.loc 1 1466 0
 2253 015c 94ED140A 		vldr.32	s0, [r4, #80]
 2254              	.LVL159:
 2255 0160 D4ED121A 		vldr.32	s3, [r4, #72]
 2256 0164 FFF7FEFF 		bl	utils_map
 2257              	.LVL160:
 2258              		.loc 1 1467 0
 2259 0168 DFED960A 		vldr.32	s1, .L335+56
 2260              		.loc 1 1466 0
 2261 016c B0EE40BA 		vmov.f32	s22, s0
 2262              	.LVL161:
 2263              		.loc 1 1467 0
 2264 0170 B3EE092A 		vmov.f32	s4, #2.5e+1
 2265 0174 94ED140A 		vldr.32	s0, [r4, #80]
 2266              	.LVL162:
 2267 0178 D4ED131A 		vldr.32	s3, [r4, #76]
 2268 017c B7EE001A 		vmov.f32	s2, #1.0e+0
 2269 0180 FFF7FEFF 		bl	utils_map
 2270              	.LVL163:
 2271              		.loc 1 1470 0
 2272 0184 D5ED007A 		vldr.32	s15, [r5]
 2273 0188 814B     		ldr	r3, .L335+4
 2274 018a F4EEE7BA 		vcmpe.f32	s23, s15
 2275 018e F1EE10FA 		vmrs	APSR_nzcv, FPSCR
 2276              		.loc 1 1467 0
 2277 0192 B0EE40CA 		vmov.f32	s24, s0
 2278              	.LVL164:
 2279              		.loc 1 1470 0
 2280 0196 40F3D780 		ble	.L320
ARM GAS  /var/folders/sv/kgmgr77579zbf78p2zlhkdfr0000gn/T//ccOxe4My.s 			page 41


 2281              		.loc 1 1471 0
 2282 019a D7ED01BA 		vldr.32	s23, [r7, #4]
 2283              	.LVL165:
 2284              	.L265:
 2285              		.loc 1 1480 0
 2286 019e D6ED007A 		vldr.32	s15, [r6]
 2287 01a2 7D4B     		ldr	r3, .L335+12
 2288 01a4 B4EEE7BA 		vcmpe.f32	s22, s15
 2289 01a8 F1EE10FA 		vmrs	APSR_nzcv, FPSCR
 2290 01ac 40F3C180 		ble	.L321
 2291              		.loc 1 1481 0
 2292 01b0 94ED01BA 		vldr.32	s22, [r4, #4]
 2293              	.LVL166:
 2294              	.L268:
 2295              		.loc 1 1491 0
 2296 01b4 D4ED077A 		vldr.32	s15, [r4, #28]
 2297 01b8 D4ED080A 		vldr.32	s1, [r4, #32]
 2298 01bc 774B     		ldr	r3, .L335+16
 2299              		.loc 1 1492 0
 2300 01be 94ED071A 		vldr.32	s2, [r4, #28]
 2301              		.loc 1 1491 0
 2302 01c2 67EEA00A 		vmul.f32	s1, s15, s1
 2303              	.LVL167:
 2304              		.loc 1 1493 0
 2305 01c6 B4EEE09A 		vcmpe.f32	s18, s1
 2306 01ca F1EE10FA 		vmrs	APSR_nzcv, FPSCR
 2307 01ce 40F1A780 		bpl	.L322
 2308              		.loc 1 1494 0
 2309 01d2 93ED01CA 		vldr.32	s24, [r3, #4]
 2310              	.LVL168:
 2311              	.L271:
 2312              		.loc 1 1503 0
 2313 01d6 D4ED067A 		vldr.32	s15, [r4, #24]
 2314 01da D4ED080A 		vldr.32	s1, [r4, #32]
 2315 01de 6F4B     		ldr	r3, .L335+16
 2316              		.loc 1 1504 0
 2317 01e0 94ED061A 		vldr.32	s2, [r4, #24]
 2318              		.loc 1 1503 0
 2319 01e4 67EEA00A 		vmul.f32	s1, s15, s1
 2320              	.LVL169:
 2321              		.loc 1 1505 0
 2322 01e8 B4EEE09A 		vcmpe.f32	s18, s1
 2323 01ec F1EE10FA 		vmrs	APSR_nzcv, FPSCR
 2324 01f0 40F38D80 		ble	.L323
 2325              		.loc 1 1506 0
 2326 01f4 93ED019A 		vldr.32	s18, [r3, #4]
 2327              	.LVL170:
 2328              	.L274:
 2329              		.loc 1 1513 0
 2330 01f8 F0EE6A0A 		vmov.f32	s1, s21
 2331 01fc B0EE4A0A 		vmov.f32	s0, s20
 2332 0200 FFF7FEFF 		bl	utils_min_abs
 2333              	.LVL171:
 2334              		.loc 1 1514 0
 2335 0204 F0EE690A 		vmov.f32	s1, s19
 2336              		.loc 1 1513 0
 2337 0208 B0EE40AA 		vmov.f32	s20, s0
ARM GAS  /var/folders/sv/kgmgr77579zbf78p2zlhkdfr0000gn/T//ccOxe4My.s 			page 42


 2338              	.LVL172:
 2339              		.loc 1 1514 0
 2340 020c B0EE680A 		vmov.f32	s0, s17
 2341              	.LVL173:
 2342 0210 FFF7FEFF 		bl	utils_min_abs
 2343              	.LVL174:
 2344              		.loc 1 1516 0
 2345 0214 F0EE4C0A 		vmov.f32	s1, s24
 2346              		.loc 1 1514 0
 2347 0218 F0EE408A 		vmov.f32	s17, s0
 2348              	.LVL175:
 2349              		.loc 1 1516 0
 2350 021c B0EE4A0A 		vmov.f32	s0, s20
 2351              	.LVL176:
 2352 0220 FFF7FEFF 		bl	utils_min_abs
 2353              	.LVL177:
 2354              		.loc 1 1517 0
 2355 0224 F0EE490A 		vmov.f32	s1, s18
 2356 0228 FFF7FEFF 		bl	utils_min_abs
 2357              	.LVL178:
 2358              		.loc 1 1518 0
 2359 022c F0EE6B0A 		vmov.f32	s1, s23
 2360 0230 FFF7FEFF 		bl	utils_min_abs
 2361              	.LVL179:
 2362              		.loc 1 1519 0
 2363 0234 F0EE4B0A 		vmov.f32	s1, s22
 2364 0238 FFF7FEFF 		bl	utils_min_abs
 2365              	.LVL180:
 2366              		.loc 1 1521 0
 2367 023c D4ED507A 		vldr.32	s15, [r4, #320]
 2368 0240 564B     		ldr	r3, .L335+16
 2369 0242 B4EEE70A 		vcmpe.f32	s0, s15
 2370 0246 F1EE10FA 		vmrs	APSR_nzcv, FPSCR
 2371              		.loc 1 1522 0
 2372 024a 48BF     		it	mi
 2373 024c 93ED500A 		vldrmi.32	s0, [r3, #320]
 2374              	.LVL181:
 2375              		.loc 1 1525 0
 2376 0250 D4ED507A 		vldr.32	s15, [r4, #320]
 2377 0254 514B     		ldr	r3, .L335+16
 2378 0256 F1EE677A 		vneg.f32	s15, s15
 2379 025a F4EEE78A 		vcmpe.f32	s17, s15
 2380 025e F1EE10FA 		vmrs	APSR_nzcv, FPSCR
 2381              		.loc 1 1526 0
 2382 0262 C8BF     		it	gt
 2383 0264 D3ED508A 		vldrgt.32	s17, [r3, #320]
 2384              	.LVL182:
 2385              		.loc 1 1529 0
 2386 0268 84ED190A 		vstr.32	s0, [r4, #100]
 2387              		.loc 1 1526 0
 2388 026c C8BF     		it	gt
 2389 026e F1EE688A 		vneggt.f32	s17, s17
 2390              	.LVL183:
 2391              		.loc 1 1530 0
 2392 0272 C4ED1A8A 		vstr.32	s17, [r4, #104]
 2393              	.LVL184:
 2394              		.loc 1 1534 0
ARM GAS  /var/folders/sv/kgmgr77579zbf78p2zlhkdfr0000gn/T//ccOxe4My.s 			page 43


 2395 0276 D4ED0D7A 		vldr.32	s15, [r4, #52]
 2396              		.loc 1 1529 0
 2397 027a 484B     		ldr	r3, .L335+16
 2398              		.loc 1 1534 0
 2399 027c B4EEE78A 		vcmpe.f32	s16, s15
 2400 0280 F1EE10FA 		vmrs	APSR_nzcv, FPSCR
 2401 0284 00F34281 		bgt	.L326
 2402              		.loc 1 1536 0
 2403 0288 D3ED0E7A 		vldr.32	s15, [r3, #56]
 2404 028c B4EEE78A 		vcmpe.f32	s16, s15
 2405 0290 F1EE10FA 		vmrs	APSR_nzcv, FPSCR
 2406 0294 40F12B81 		bpl	.L327
 2407              		.loc 1 1537 0
 2408 0298 DFED4A0A 		vldr.32	s1, .L335+56
 2409              	.LVL185:
 2410              	.L281:
 2411              		.loc 1 1544 0
 2412 029c 94ED170A 		vldr.32	s0, [r4, #92]
 2413              	.LVL186:
 2414              		.loc 1 1545 0
 2415 02a0 94ED187A 		vldr.32	s14, [r4, #96]
 2416 02a4 C7EE088A 		vdiv.f32	s17, s14, s16
 2417              	.LVL187:
 2418              		.loc 1 1547 0
 2419 02a8 80EE080A 		vdiv.f32	s0, s0, s16
 2420              	.LVL188:
 2421 02ac FFF7FEFF 		bl	utils_min_abs
 2422              	.LVL189:
 2423              		.loc 1 1550 0
 2424 02b0 D4ED037A 		vldr.32	s15, [r4, #12]
 2425 02b4 F0EE400A 		vmov.f32	s1, s0
 2426 02b8 B0EE670A 		vmov.f32	s0, s15
 2427              	.LVL190:
 2428 02bc FFF7FEFF 		bl	utils_min_abs
 2429              	.LVL191:
 2430 02c0 84ED1B0A 		vstr.32	s0, [r4, #108]
 2431              		.loc 1 1551 0
 2432 02c4 F0EE680A 		vmov.f32	s1, s17
 2433 02c8 94ED040A 		vldr.32	s0, [r4, #16]
 2434 02cc FFF7FEFF 		bl	utils_min_abs
 2435              	.LVL192:
 2436              		.loc 1 1573 0
 2437 02d0 BDEC0A8B 		vldm	sp!, {d8-d12}
 2438              		.cfi_remember_state
 2439              		.cfi_restore 88
 2440              		.cfi_restore 89
 2441              		.cfi_restore 86
 2442              		.cfi_restore 87
 2443              		.cfi_restore 84
 2444              		.cfi_restore 85
 2445              		.cfi_restore 82
 2446              		.cfi_restore 83
 2447              		.cfi_restore 80
 2448              		.cfi_restore 81
 2449              		.cfi_def_cfa_offset 24
 2450              	.LVL193:
 2451              		.loc 1 1551 0
ARM GAS  /var/folders/sv/kgmgr77579zbf78p2zlhkdfr0000gn/T//ccOxe4My.s 			page 44


 2452 02d4 84ED1C0A 		vstr.32	s0, [r4, #112]
 2453              		.loc 1 1571 0
 2454 02d8 636E     		ldr	r3, [r4, #100]	@ float
 2455 02da 6367     		str	r3, [r4, #116]	@ float
 2456              		.loc 1 1572 0
 2457 02dc A36E     		ldr	r3, [r4, #104]	@ float
 2458 02de A367     		str	r3, [r4, #120]	@ float
 2459              		.loc 1 1573 0
 2460 02e0 F8BD     		pop	{r3, r4, r5, r6, r7, pc}
 2461              	.LVL194:
 2462              	.L312:
 2463              		.cfi_restore_state
 2464              		.loc 1 1414 0
 2465 02e2 94ED117A 		vldr.32	s14, [r4, #68]
 2466 02e6 D5ED007A 		vldr.32	s15, [r5]
 2467 02ea B4EEE77A 		vcmpe.f32	s14, s15
 2468 02ee F1EE10FA 		vmrs	APSR_nzcv, FPSCR
 2469 02f2 69D5     		bpl	.L313
 2470              	.LVL195:
 2471              	.LBB129:
 2472              	.LBB130:
 2473              		.loc 1 1087 0
 2474 02f4 324B     		ldr	r3, .L335+52
 2475 02f6 1B78     		ldrb	r3, [r3]	@ zero_extendqisi2
 2476 02f8 052B     		cmp	r3, #5
 2477 02fa 00F05A81 		beq	.L328
 2478              	.LBE130:
 2479              	.LBE129:
 2480              		.loc 1 1415 0
 2481 02fe DFED318A 		vldr.32	s17, .L335+56
 2482              	.LBB135:
 2483              	.LBB131:
 2484 0302 0520     		movs	r0, #5
 2485              	.LBE131:
 2486              	.LBE135:
 2487              		.loc 1 1416 0
 2488 0304 B0EE68AA 		vmov.f32	s20, s17
 2489              	.LBB136:
 2490              	.LBB132:
 2491 0308 FFF7FEFF 		bl	mc_interface_fault_stop.part.4
 2492              	.LVL196:
 2493 030c F3E6     		b	.L239
 2494              	.LVL197:
 2495              	.L323:
 2496              	.LBE132:
 2497              	.LBE136:
 2498              		.loc 1 1507 0
 2499 030e B4EEC19A 		vcmpe.f32	s18, s2
 2500 0312 F1EE10FA 		vmrs	APSR_nzcv, FPSCR
 2501 0316 40F1FC80 		bpl	.L329
 2502              		.loc 1 1508 0
 2503 031a 9FED2A9A 		vldr.32	s18, .L335+56
 2504              	.LVL198:
 2505 031e 6BE7     		b	.L274
 2506              	.LVL199:
 2507              	.L322:
 2508              		.loc 1 1495 0
ARM GAS  /var/folders/sv/kgmgr77579zbf78p2zlhkdfr0000gn/T//ccOxe4My.s 			page 45


 2509 0320 B4EEC19A 		vcmpe.f32	s18, s2
 2510 0324 F1EE10FA 		vmrs	APSR_nzcv, FPSCR
 2511 0328 40F3FE80 		ble	.L330
 2512              		.loc 1 1496 0
 2513 032c 9FED25CA 		vldr.32	s24, .L335+56
 2514              	.LVL200:
 2515 0330 51E7     		b	.L271
 2516              	.LVL201:
 2517              	.L321:
 2518              		.loc 1 1482 0
 2519 0332 D3ED007A 		vldr.32	s15, [r3]
 2520 0336 B4EEE7CA 		vcmpe.f32	s24, s15
 2521 033a F1EE10FA 		vmrs	APSR_nzcv, FPSCR
 2522 033e 40F1FE80 		bpl	.L331
 2523              		.loc 1 1483 0
 2524 0342 9FED20BA 		vldr.32	s22, .L335+56
 2525              	.LVL202:
 2526 0346 35E7     		b	.L268
 2527              	.LVL203:
 2528              	.L320:
 2529              		.loc 1 1472 0
 2530 0348 D3ED007A 		vldr.32	s15, [r3]
 2531 034c F4EEE7CA 		vcmpe.f32	s25, s15
 2532 0350 F1EE10FA 		vmrs	APSR_nzcv, FPSCR
 2533 0354 40F10281 		bpl	.L332
 2534              		.loc 1 1473 0
 2535 0358 DFED1ABA 		vldr.32	s23, .L335+56
 2536              	.LVL204:
 2537 035c 1FE7     		b	.L265
 2538              	.LVL205:
 2539              	.L316:
 2540              		.loc 1 1441 0
 2541 035e 93ED137A 		vldr.32	s14, [r3, #76]
 2542 0362 D2ED007A 		vldr.32	s15, [r2]
 2543 0366 B4EEE77A 		vcmpe.f32	s14, s15
 2544 036a F1EE10FA 		vmrs	APSR_nzcv, FPSCR
 2545 036e 7CD5     		bpl	.L317
 2546              	.LVL206:
 2547              	.LBB137:
 2548              	.LBB138:
 2549              		.loc 1 1087 0
 2550 0370 134A     		ldr	r2, .L335+52
 2551 0372 1278     		ldrb	r2, [r2]	@ zero_extendqisi2
 2552 0374 062A     		cmp	r2, #6
 2553 0376 00F01381 		beq	.L333
 2554              	.LBE138:
 2555              	.LBE137:
 2556              		.loc 1 1442 0
 2557 037a DFED129A 		vldr.32	s19, .L335+56
 2558              	.LBB143:
 2559              	.LBB139:
 2560 037e 0620     		movs	r0, #6
 2561              	.LBE139:
 2562              	.LBE143:
 2563              		.loc 1 1443 0
 2564 0380 F0EE69AA 		vmov.f32	s21, s19
 2565              	.LBB144:
ARM GAS  /var/folders/sv/kgmgr77579zbf78p2zlhkdfr0000gn/T//ccOxe4My.s 			page 46


 2566              	.LBB140:
 2567 0384 FFF7FEFF 		bl	mc_interface_fault_stop.part.4
 2568              	.LVL207:
 2569 0388 C5E6     		b	.L252
 2570              	.L336:
 2571 038a 00BF     		.align	2
 2572              	.L335:
 2573 038c 00000000 		.word	.LANCHOR41
 2574 0390 00000000 		.word	.LANCHOR32
 2575 0394 74D19541 		.word	1100337524
 2576 0398 00000000 		.word	.LANCHOR33
 2577 039c 00000000 		.word	.LANCHOR12
 2578 03a0 6740533A 		.word	978534503
 2579 03a4 00401C46 		.word	1176256512
 2580 03a8 0FCF5B3B 		.word	995872527
 2581 03ac 33938843 		.word	1133024051
 2582 03b0 CDCCCC3D 		.word	1036831949
 2583 03b4 3C361C4C 		.word	1276917308
 2584 03b8 00A05645 		.word	1163304960
 2585 03bc 00F07F45 		.word	1166012416
 2586 03c0 00000000 		.word	.LANCHOR13
 2587 03c4 00000000 		.word	0
 2588              	.LVL208:
 2589              	.L313:
 2590              	.LBE140:
 2591              	.LBE144:
 2592              	.LBB145:
 2593              		.loc 1 1419 0
 2594 03c8 D4ED011A 		vldr.32	s3, [r4, #4]
 2595              		.loc 1 1420 0
 2596 03cc D4ED027A 		vldr.32	s15, [r4, #8]
 2597              		.loc 1 1424 0
 2598 03d0 1FED042A 		vldr.32	s4, .L335+56
 2599 03d4 7E4F     		ldr	r7, .L337
 2600              		.loc 1 1419 0
 2601 03d6 F0EEE11A 		vabs.f32	s3, s3
 2602              	.LVL209:
 2603              		.loc 1 1420 0
 2604 03da F0EEE77A 		vabs.f32	s15, s15
 2605 03de F4EEE71A 		vcmpe.f32	s3, s15
 2606 03e2 F1EE10FA 		vmrs	APSR_nzcv, FPSCR
 2607              		.loc 1 1421 0
 2608 03e6 48BF     		it	mi
 2609 03e8 D4ED021A 		vldrmi.32	s3, [r4, #8]
 2610              	.LVL210:
 2611              		.loc 1 1424 0
 2612 03ec 95ED000A 		vldr.32	s0, [r5]
 2613 03f0 D4ED100A 		vldr.32	s1, [r4, #64]
 2614 03f4 94ED111A 		vldr.32	s2, [r4, #68]
 2615              		.loc 1 1421 0
 2616 03f8 48BF     		it	mi
 2617 03fa F0EEE11A 		vabsmi.f32	s3, s3
 2618              	.LVL211:
 2619              		.loc 1 1424 0
 2620 03fe FFF7FEFF 		bl	utils_map
 2621              	.LVL212:
 2622              		.loc 1 1426 0
ARM GAS  /var/folders/sv/kgmgr77579zbf78p2zlhkdfr0000gn/T//ccOxe4My.s 			page 47


 2623 0402 D4ED017A 		vldr.32	s15, [r4, #4]
 2624 0406 F0EEE77A 		vabs.f32	s15, s15
 2625 040a B4EEE70A 		vcmpe.f32	s0, s15
 2626 040e F1EE10FA 		vmrs	APSR_nzcv, FPSCR
 2627 0412 40F1B280 		bpl	.L314
 2628              		.loc 1 1427 0
 2629 0416 D7ED017A 		vldr.32	s15, [r7, #4]
 2630 041a F5EEC07A 		vcmpe.f32	s15, #0
 2631 041e F1EE10FA 		vmrs	APSR_nzcv, FPSCR
 2632 0422 FFEE007A 		vmov.f32	s15, #-1.0e+0
 2633 0426 B7EE00AA 		vmov.f32	s20, #1.0e+0
 2634 042a 48BF     		it	mi
 2635 042c B0EE67AA 		vmovmi.f32	s20, s15
 2636 0430 20EE0AAA 		vmul.f32	s20, s0, s20
 2637              	.LVL213:
 2638              	.L245:
 2639              		.loc 1 1430 0
 2640 0434 D4ED027A 		vldr.32	s15, [r4, #8]
 2641 0438 654B     		ldr	r3, .L337
 2642 043a F0EEE77A 		vabs.f32	s15, s15
 2643 043e B4EEE70A 		vcmpe.f32	s0, s15
 2644 0442 F1EE10FA 		vmrs	APSR_nzcv, FPSCR
 2645 0446 40F1C080 		bpl	.L315
 2646              		.loc 1 1431 0
 2647 044a D3ED027A 		vldr.32	s15, [r3, #8]
 2648 044e F5EEC07A 		vcmpe.f32	s15, #0
 2649 0452 F1EE10FA 		vmrs	APSR_nzcv, FPSCR
 2650 0456 FFEE007A 		vmov.f32	s15, #-1.0e+0
 2651 045a F7EE008A 		vmov.f32	s17, #1.0e+0
 2652 045e 48BF     		it	mi
 2653 0460 F0EE678A 		vmovmi.f32	s17, s15
 2654 0464 60EE288A 		vmul.f32	s17, s0, s17
 2655              	.LVL214:
 2656 0468 45E6     		b	.L239
 2657              	.LVL215:
 2658              	.L317:
 2659              	.LBE145:
 2660              	.LBB146:
 2661              		.loc 1 1446 0
 2662 046a D3ED011A 		vldr.32	s3, [r3, #4]
 2663              		.loc 1 1447 0
 2664 046e D3ED027A 		vldr.32	s15, [r3, #8]
 2665              		.loc 1 1451 0
 2666 0472 9FED582A 		vldr.32	s4, .L337+4
 2667 0476 564F     		ldr	r7, .L337
 2668              		.loc 1 1446 0
 2669 0478 F0EEE11A 		vabs.f32	s3, s3
 2670              	.LVL216:
 2671              		.loc 1 1447 0
 2672 047c F0EEE77A 		vabs.f32	s15, s15
 2673 0480 F4EEE71A 		vcmpe.f32	s3, s15
 2674 0484 F1EE10FA 		vmrs	APSR_nzcv, FPSCR
 2675              		.loc 1 1448 0
 2676 0488 48BF     		it	mi
 2677 048a D3ED021A 		vldrmi.32	s3, [r3, #8]
 2678              	.LVL217:
 2679              		.loc 1 1451 0
ARM GAS  /var/folders/sv/kgmgr77579zbf78p2zlhkdfr0000gn/T//ccOxe4My.s 			page 48


 2680 048e 96ED000A 		vldr.32	s0, [r6]
 2681 0492 D4ED120A 		vldr.32	s1, [r4, #72]
 2682 0496 94ED131A 		vldr.32	s2, [r4, #76]
 2683              		.loc 1 1448 0
 2684 049a 48BF     		it	mi
 2685 049c F0EEE11A 		vabsmi.f32	s3, s3
 2686              	.LVL218:
 2687              		.loc 1 1451 0
 2688 04a0 FFF7FEFF 		bl	utils_map
 2689              	.LVL219:
 2690              		.loc 1 1453 0
 2691 04a4 D4ED017A 		vldr.32	s15, [r4, #4]
 2692 04a8 F0EEE77A 		vabs.f32	s15, s15
 2693 04ac B4EEE70A 		vcmpe.f32	s0, s15
 2694 04b0 F1EE10FA 		vmrs	APSR_nzcv, FPSCR
 2695 04b4 64D4     		bmi	.L334
 2696              	.LBE146:
 2697              		.loc 1 1436 0
 2698 04b6 DFED47AA 		vldr.32	s21, .L337+4
 2699              	.LVL220:
 2700              	.L258:
 2701              	.LBB147:
 2702              		.loc 1 1457 0
 2703 04ba D4ED027A 		vldr.32	s15, [r4, #8]
 2704 04be 444B     		ldr	r3, .L337
 2705 04c0 F0EEE77A 		vabs.f32	s15, s15
 2706 04c4 B4EEE70A 		vcmpe.f32	s0, s15
 2707 04c8 F1EE10FA 		vmrs	APSR_nzcv, FPSCR
 2708 04cc 7AD5     		bpl	.L319
 2709              		.loc 1 1458 0
 2710 04ce D3ED027A 		vldr.32	s15, [r3, #8]
 2711 04d2 F5EEC07A 		vcmpe.f32	s15, #0
 2712 04d6 F1EE10FA 		vmrs	APSR_nzcv, FPSCR
 2713 04da FFEE007A 		vmov.f32	s15, #-1.0e+0
 2714 04de F7EE009A 		vmov.f32	s19, #1.0e+0
 2715 04e2 48BF     		it	mi
 2716 04e4 F0EE679A 		vmovmi.f32	s19, s15
 2717 04e8 60EE299A 		vmul.f32	s19, s0, s19
 2718              	.LVL221:
 2719 04ec 13E6     		b	.L252
 2720              	.LVL222:
 2721              	.L327:
 2722              	.LBE147:
 2723              		.loc 1 1539 0
 2724 04ee D3ED0D0A 		vldr.32	s1, [r3, #52]
 2725 04f2 9FED382A 		vldr.32	s4, .L337+4
 2726 04f6 93ED0E1A 		vldr.32	s2, [r3, #56]
 2727 04fa D3ED031A 		vldr.32	s3, [r3, #12]
 2728 04fe B0EE480A 		vmov.f32	s0, s16
 2729              	.LVL223:
 2730 0502 FFF7FEFF 		bl	utils_map
 2731              	.LVL224:
 2732 0506 F0EE400A 		vmov.f32	s1, s0
 2733              	.LVL225:
 2734 050a C7E6     		b	.L281
 2735              	.LVL226:
 2736              	.L326:
ARM GAS  /var/folders/sv/kgmgr77579zbf78p2zlhkdfr0000gn/T//ccOxe4My.s 			page 49


 2737              		.loc 1 1535 0
 2738 050c D3ED030A 		vldr.32	s1, [r3, #12]
 2739              	.LVL227:
 2740 0510 C4E6     		b	.L281
 2741              	.LVL228:
 2742              	.L329:
 2743              		.loc 1 1510 0
 2744 0512 B0EE490A 		vmov.f32	s0, s18
 2745 0516 D3ED011A 		vldr.32	s3, [r3, #4]
 2746 051a 9FED2E2A 		vldr.32	s4, .L337+4
 2747 051e FFF7FEFF 		bl	utils_map
 2748              	.LVL229:
 2749 0522 B0EE409A 		vmov.f32	s18, s0
 2750              	.LVL230:
 2751 0526 67E6     		b	.L274
 2752              	.LVL231:
 2753              	.L330:
 2754              		.loc 1 1498 0
 2755 0528 D3ED011A 		vldr.32	s3, [r3, #4]
 2756 052c 9FED292A 		vldr.32	s4, .L337+4
 2757 0530 B0EE490A 		vmov.f32	s0, s18
 2758 0534 FFF7FEFF 		bl	utils_map
 2759              	.LVL232:
 2760 0538 B0EE40CA 		vmov.f32	s24, s0
 2761              	.LVL233:
 2762 053c 4BE6     		b	.L271
 2763              	.LVL234:
 2764              	.L331:
 2765              		.loc 1 1485 0
 2766 053e 93ED000A 		vldr.32	s0, [r3]
 2767 0542 9FED242A 		vldr.32	s4, .L337+4
 2768 0546 D4ED011A 		vldr.32	s3, [r4, #4]
 2769 054a F0EE4B0A 		vmov.f32	s1, s22
 2770 054e B0EE4C1A 		vmov.f32	s2, s24
 2771 0552 FFF7FEFF 		bl	utils_map
 2772              	.LVL235:
 2773 0556 B0EE40BA 		vmov.f32	s22, s0
 2774              	.LVL236:
 2775 055a 2BE6     		b	.L268
 2776              	.LVL237:
 2777              	.L332:
 2778              		.loc 1 1475 0
 2779 055c 93ED000A 		vldr.32	s0, [r3]
 2780              	.LVL238:
 2781 0560 9FED1C2A 		vldr.32	s4, .L337+4
 2782 0564 D7ED011A 		vldr.32	s3, [r7, #4]
 2783 0568 F0EE6B0A 		vmov.f32	s1, s23
 2784 056c B0EE6C1A 		vmov.f32	s2, s25
 2785 0570 FFF7FEFF 		bl	utils_map
 2786              	.LVL239:
 2787 0574 F0EE40BA 		vmov.f32	s23, s0
 2788              	.LVL240:
 2789 0578 11E6     		b	.L265
 2790              	.LVL241:
 2791              	.L314:
 2792              		.loc 1 1409 0
 2793 057a 9FED16AA 		vldr.32	s20, .L337+4
ARM GAS  /var/folders/sv/kgmgr77579zbf78p2zlhkdfr0000gn/T//ccOxe4My.s 			page 50


 2794 057e 59E7     		b	.L245
 2795              	.LVL242:
 2796              	.L334:
 2797              	.LBB148:
 2798              		.loc 1 1454 0
 2799 0580 D7ED017A 		vldr.32	s15, [r7, #4]
 2800 0584 F5EEC07A 		vcmpe.f32	s15, #0
 2801 0588 F1EE10FA 		vmrs	APSR_nzcv, FPSCR
 2802 058c FFEE007A 		vmov.f32	s15, #-1.0e+0
 2803 0590 F7EE00AA 		vmov.f32	s21, #1.0e+0
 2804 0594 48BF     		it	mi
 2805 0596 F0EE67AA 		vmovmi.f32	s21, s15
 2806 059a 60EE2AAA 		vmul.f32	s21, s0, s21
 2807              	.LVL243:
 2808 059e 8CE7     		b	.L258
 2809              	.LVL244:
 2810              	.L333:
 2811              	.LBE148:
 2812              	.LBB149:
 2813              	.LBB141:
 2814              		.loc 1 1088 0
 2815 05a0 0D4A     		ldr	r2, .L337+8
 2816              	.LBE141:
 2817              	.LBE149:
 2818              		.loc 1 1442 0
 2819 05a2 DFED0C9A 		vldr.32	s19, .L337+4
 2820              	.LBB150:
 2821              	.LBB142:
 2822              		.loc 1 1088 0
 2823 05a6 D3F84C31 		ldr	r3, [r3, #332]
 2824 05aa 1360     		str	r3, [r2]
 2825              	.LBE142:
 2826              	.LBE150:
 2827              		.loc 1 1443 0
 2828 05ac F0EE69AA 		vmov.f32	s21, s19
 2829 05b0 B1E5     		b	.L252
 2830              	.LVL245:
 2831              	.L328:
 2832              	.LBB151:
 2833              	.LBB133:
 2834              		.loc 1 1088 0
 2835 05b2 094B     		ldr	r3, .L337+8
 2836              	.LBE133:
 2837              	.LBE151:
 2838              		.loc 1 1415 0
 2839 05b4 DFED078A 		vldr.32	s17, .L337+4
 2840              	.LBB152:
 2841              	.LBB134:
 2842              		.loc 1 1088 0
 2843 05b8 D4F84C21 		ldr	r2, [r4, #332]
 2844 05bc 1A60     		str	r2, [r3]
 2845              	.LBE134:
 2846              	.LBE152:
 2847              		.loc 1 1416 0
 2848 05be B0EE68AA 		vmov.f32	s20, s17
 2849 05c2 98E5     		b	.L239
 2850              	.LVL246:
ARM GAS  /var/folders/sv/kgmgr77579zbf78p2zlhkdfr0000gn/T//ccOxe4My.s 			page 51


 2851              	.L319:
 2852              		.loc 1 1437 0
 2853 05c4 DFED039A 		vldr.32	s19, .L337+4
 2854 05c8 A5E5     		b	.L252
 2855              	.LVL247:
 2856              	.L315:
 2857              		.loc 1 1410 0
 2858 05ca DFED028A 		vldr.32	s17, .L337+4
 2859 05ce 92E5     		b	.L239
 2860              	.L338:
 2861              		.align	2
 2862              	.L337:
 2863 05d0 00000000 		.word	.LANCHOR12
 2864 05d4 00000000 		.word	0
 2865 05d8 00000000 		.word	.LANCHOR14
 2866              		.cfi_endproc
 2867              	.LFE318:
 2868              		.size	update_override_limits.constprop.5, .-update_override_limits.constprop.5
 2869              		.section	.text.mc_interface_set_configuration,"ax",%progbits
 2870              		.align	2
 2871              		.p2align 4,,15
 2872              		.global	mc_interface_set_configuration
 2873              		.thumb
 2874              		.thumb_func
 2875              		.type	mc_interface_set_configuration, %function
 2876              	mc_interface_set_configuration:
 2877              	.LFB258:
 2878              		.loc 1 178 0
 2879              		.cfi_startproc
 2880              		@ args = 0, pretend = 0, frame = 0
 2881              		@ frame_needed = 0, uses_anonymous_args = 0
 2882              	.LVL248:
 2883 0000 38B5     		push	{r3, r4, r5, lr}
 2884              		.cfi_def_cfa_offset 16
 2885              		.cfi_offset 3, -16
 2886              		.cfi_offset 4, -12
 2887              		.cfi_offset 5, -8
 2888              		.cfi_offset 14, -4
 2889              		.loc 1 180 0
 2890 0002 324C     		ldr	r4, .L361
 2891 0004 90F85C31 		ldrb	r3, [r0, #348]	@ zero_extendqisi2
 2892 0008 94F85C21 		ldrb	r2, [r4, #348]	@ zero_extendqisi2
 2893 000c 9A42     		cmp	r2, r3
 2894              		.loc 1 178 0
 2895 000e 0546     		mov	r5, r0
 2896              		.loc 1 180 0
 2897 0010 07D0     		beq	.L340
 2898              		.loc 1 181 0
 2899 0012 FFF7FEFF 		bl	encoder_deinit
 2900              	.LVL249:
 2901              		.loc 1 182 0
 2902 0016 95F85C31 		ldrb	r3, [r5, #348]	@ zero_extendqisi2
 2903 001a 012B     		cmp	r3, #1
 2904 001c 4ED0     		beq	.L341
 2905 001e 022B     		cmp	r3, #2
 2906 0020 41D0     		beq	.L342
 2907              	.L340:
ARM GAS  /var/folders/sv/kgmgr77579zbf78p2zlhkdfr0000gn/T//ccOxe4My.s 			page 52


 2908              		.loc 1 196 0
 2909 0022 012B     		cmp	r3, #1
 2910 0024 45D0     		beq	.L360
 2911              	.L343:
 2912              		.loc 1 206 0
 2913 0026 A378     		ldrb	r3, [r4, #2]	@ zero_extendqisi2
 2914 0028 032B     		cmp	r3, #3
 2915 002a 05D8     		bhi	.L344
 2916 002c DFE803F0 		tbb	[pc, r3]
 2917              	.L346:
 2918 0030 02       		.byte	(.L345-.L346)/2
 2919 0031 37       		.byte	(.L347-.L346)/2
 2920 0032 02       		.byte	(.L345-.L346)/2
 2921 0033 34       		.byte	(.L348-.L346)/2
 2922              		.p2align 1
 2923              	.L345:
 2924              		.loc 1 209 0
 2925 0034 FFF7FEFF 		bl	mcpwm_deinit
 2926              	.LVL250:
 2927              	.L344:
 2928              		.loc 1 221 0
 2929 0038 2946     		mov	r1, r5
 2930 003a 4FF4BA72 		mov	r2, #372
 2931 003e 2348     		ldr	r0, .L361
 2932 0040 FFF7FEFF 		bl	memcpy
 2933              	.LVL251:
 2934              		.loc 1 223 0
 2935 0044 A378     		ldrb	r3, [r4, #2]	@ zero_extendqisi2
 2936 0046 032B     		cmp	r3, #3
 2937 0048 06D8     		bhi	.L349
 2938 004a DFE803F0 		tbb	[pc, r3]
 2939              	.L351:
 2940 004e 02       		.byte	(.L350-.L351)/2
 2941 004f 21       		.byte	(.L352-.L351)/2
 2942 0050 02       		.byte	(.L350-.L351)/2
 2943 0051 1D       		.byte	(.L353-.L351)/2
 2944              		.p2align 1
 2945              	.L350:
 2946              		.loc 1 226 0
 2947 0052 1E48     		ldr	r0, .L361
 2948 0054 FFF7FEFF 		bl	mcpwm_init
 2949              	.LVL252:
 2950              	.L349:
 2951              		.loc 1 239 0
 2952 0058 FFF7FEFF 		bl	update_override_limits.constprop.5
 2953              	.LVL253:
 2954              		.loc 1 241 0
 2955 005c A378     		ldrb	r3, [r4, #2]	@ zero_extendqisi2
 2956 005e 032B     		cmp	r3, #3
 2957 0060 20D8     		bhi	.L339
 2958 0062 DFE803F0 		tbb	[pc, r3]
 2959              	.L356:
 2960 0066 0C       		.byte	(.L355-.L356)/2
 2961 0067 07       		.byte	(.L357-.L356)/2
 2962 0068 0C       		.byte	(.L355-.L356)/2
 2963 0069 02       		.byte	(.L358-.L356)/2
 2964              		.p2align 1
ARM GAS  /var/folders/sv/kgmgr77579zbf78p2zlhkdfr0000gn/T//ccOxe4My.s 			page 53


 2965              	.L358:
 2966              		.loc 1 250 0
 2967 006a 1848     		ldr	r0, .L361
 2968              		.loc 1 256 0
 2969 006c BDE83840 		pop	{r3, r4, r5, lr}
 2970              		.cfi_remember_state
 2971              		.cfi_restore 14
 2972              		.cfi_restore 5
 2973              		.cfi_restore 4
 2974              		.cfi_restore 3
 2975              		.cfi_def_cfa_offset 0
 2976              	.LVL254:
 2977              		.loc 1 250 0
 2978 0070 FFF7FEBF 		b	mcpwm_foc_set_configuration
 2979              	.LVL255:
 2980              	.L357:
 2981              		.cfi_restore_state
 2982              		.loc 1 247 0
 2983 0074 1548     		ldr	r0, .L361
 2984              		.loc 1 256 0
 2985 0076 BDE83840 		pop	{r3, r4, r5, lr}
 2986              		.cfi_remember_state
 2987              		.cfi_restore 14
 2988              		.cfi_restore 5
 2989              		.cfi_restore 4
 2990              		.cfi_restore 3
 2991              		.cfi_def_cfa_offset 0
 2992              	.LVL256:
 2993              		.loc 1 247 0
 2994 007a FFF7FEBF 		b	mcpwm_atc_set_configuration
 2995              	.LVL257:
 2996              	.L355:
 2997              		.cfi_restore_state
 2998              		.loc 1 244 0
 2999 007e 1348     		ldr	r0, .L361
 3000              		.loc 1 256 0
 3001 0080 BDE83840 		pop	{r3, r4, r5, lr}
 3002              		.cfi_remember_state
 3003              		.cfi_restore 14
 3004              		.cfi_restore 5
 3005              		.cfi_restore 4
 3006              		.cfi_restore 3
 3007              		.cfi_def_cfa_offset 0
 3008              	.LVL258:
 3009              		.loc 1 244 0
 3010 0084 FFF7FEBF 		b	mcpwm_set_configuration
 3011              	.LVL259:
 3012              	.L353:
 3013              		.cfi_restore_state
 3014              		.loc 1 232 0
 3015 0088 1048     		ldr	r0, .L361
 3016 008a FFF7FEFF 		bl	mcpwm_foc_init
 3017              	.LVL260:
 3018              		.loc 1 233 0
 3019 008e E3E7     		b	.L349
 3020              	.L352:
 3021              		.loc 1 229 0
ARM GAS  /var/folders/sv/kgmgr77579zbf78p2zlhkdfr0000gn/T//ccOxe4My.s 			page 54


 3022 0090 0E48     		ldr	r0, .L361
 3023 0092 FFF7FEFF 		bl	mcpwm_atc_init
 3024              	.LVL261:
 3025              		.loc 1 230 0
 3026 0096 DFE7     		b	.L349
 3027              	.L348:
 3028              		.loc 1 215 0
 3029 0098 FFF7FEFF 		bl	mcpwm_foc_deinit
 3030              	.LVL262:
 3031              		.loc 1 216 0
 3032 009c CCE7     		b	.L344
 3033              	.L347:
 3034              		.loc 1 212 0
 3035 009e FFF7FEFF 		bl	mcpwm_atc_deinit
 3036              	.LVL263:
 3037              		.loc 1 213 0
 3038 00a2 C9E7     		b	.L344
 3039              	.L339:
 3040 00a4 38BD     		pop	{r3, r4, r5, pc}
 3041              	.LVL264:
 3042              	.L342:
 3043              		.loc 1 188 0
 3044 00a6 FFF7FEFF 		bl	encoder_init_as5047p_spi
 3045              	.LVL265:
 3046 00aa 95F85C31 		ldrb	r3, [r5, #348]	@ zero_extendqisi2
 3047              		.loc 1 196 0
 3048 00ae 012B     		cmp	r3, #1
 3049 00b0 B9D1     		bne	.L343
 3050              	.L360:
 3051              		.loc 1 197 0
 3052 00b2 D5F85801 		ldr	r0, [r5, #344]
 3053 00b6 FFF7FEFF 		bl	encoder_set_counts
 3054              	.LVL266:
 3055 00ba B4E7     		b	.L343
 3056              	.L341:
 3057              		.loc 1 184 0
 3058 00bc D5F85801 		ldr	r0, [r5, #344]
 3059 00c0 FFF7FEFF 		bl	encoder_init_abi
 3060              	.LVL267:
 3061 00c4 95F85C31 		ldrb	r3, [r5, #348]	@ zero_extendqisi2
 3062              		.loc 1 185 0
 3063 00c8 ABE7     		b	.L340
 3064              	.L362:
 3065 00ca 00BF     		.align	2
 3066              	.L361:
 3067 00cc 00000000 		.word	.LANCHOR12
 3068              		.cfi_endproc
 3069              	.LFE258:
 3070              		.size	mc_interface_set_configuration, .-mc_interface_set_configuration
 3071              		.section	.text.timer_thread,"ax",%progbits
 3072              		.align	2
 3073              		.p2align 4,,15
 3074              		.thumb
 3075              		.thumb_func
 3076              		.type	timer_thread, %function
 3077              	timer_thread:
 3078              	.LFB311:
ARM GAS  /var/folders/sv/kgmgr77579zbf78p2zlhkdfr0000gn/T//ccOxe4My.s 			page 55


 3079              		.loc 1 1575 0
 3080              		.cfi_startproc
 3081              		@ Volatile: function does not return.
 3082              		@ args = 0, pretend = 0, frame = 0
 3083              		@ frame_needed = 0, uses_anonymous_args = 0
 3084              	.LVL268:
 3085              	.LBB153:
 3086              	.LBB154:
 3087              		.loc 2 135 0
 3088 0000 0E4B     		ldr	r3, .L372
 3089 0002 0F4C     		ldr	r4, .L372+4
 3090 0004 9B69     		ldr	r3, [r3, #24]
 3091 0006 0F4A     		ldr	r2, .L372+8
 3092 0008 DFF84080 		ldr	r8, .L372+16
 3093              	.LBE154:
 3094              	.LBE153:
 3095              		.loc 1 1585 0
 3096 000c 0E4E     		ldr	r6, .L372+12
 3097              		.loc 1 1575 0
 3098 000e 80B5     		push	{r7, lr}
 3099              		.cfi_def_cfa_offset 8
 3100              		.cfi_offset 7, -8
 3101              		.cfi_offset 14, -4
 3102              		.loc 1 1582 0
 3103 0010 2546     		mov	r5, r4
 3104              	.LBB156:
 3105              	.LBB155:
 3106              		.loc 2 135 0
 3107 0012 9A61     		str	r2, [r3, #24]
 3108              	.LBE155:
 3109              	.LBE156:
 3110              		.loc 1 1586 0
 3111 0014 0027     		movs	r7, #0
 3112 0016 05E0     		b	.L366
 3113              	.LVL269:
 3114              	.L371:
 3115              		.loc 1 1583 0
 3116 0018 2B60     		str	r3, [r5]
 3117              	.L365:
 3118              		.loc 1 1590 0
 3119 001a FFF7FEFF 		bl	update_override_limits.constprop.5
 3120              	.LVL270:
 3121              		.loc 1 1592 0
 3122 001e 0A20     		movs	r0, #10
 3123 0020 FFF7FEFF 		bl	chThdSleep
 3124              	.LVL271:
 3125              	.L366:
 3126              		.loc 1 1582 0
 3127 0024 2368     		ldr	r3, [r4]
 3128 0026 002B     		cmp	r3, #0
 3129              		.loc 1 1583 0
 3130 0028 03F1FF33 		add	r3, r3, #-1
 3131              		.loc 1 1582 0
 3132 002c F4DC     		bgt	.L371
 3133              		.loc 1 1585 0
 3134 002e 3369     		ldr	r3, [r6, #16]
 3135 0030 DB04     		lsls	r3, r3, #19
ARM GAS  /var/folders/sv/kgmgr77579zbf78p2zlhkdfr0000gn/T//ccOxe4My.s 			page 56


 3136              		.loc 1 1586 0
 3137 0032 48BF     		it	mi
 3138 0034 88F80070 		strbmi	r7, [r8]
 3139 0038 EFE7     		b	.L365
 3140              	.L373:
 3141 003a 00BF     		.align	2
 3142              	.L372:
 3143 003c 00000000 		.word	ch
 3144 0040 00000000 		.word	.LANCHOR14
 3145 0044 20000000 		.word	.LC2
 3146 0048 00080240 		.word	1073874944
 3147 004c 00000000 		.word	.LANCHOR13
 3148              		.cfi_endproc
 3149              	.LFE311:
 3150              		.size	timer_thread, .-timer_thread
 3151              		.section	.text.mc_interface_get_tachometer_abs_value,"ax",%progbits
 3152              		.align	2
 3153              		.p2align 4,,15
 3154              		.global	mc_interface_get_tachometer_abs_value
 3155              		.thumb
 3156              		.thumb_func
 3157              		.type	mc_interface_get_tachometer_abs_value, %function
 3158              	mc_interface_get_tachometer_abs_value:
 3159              	.LFB294:
 3160              		.loc 1 879 0
 3161              		.cfi_startproc
 3162              		@ args = 0, pretend = 0, frame = 0
 3163              		@ frame_needed = 0, uses_anonymous_args = 0
 3164              		@ link register save eliminated.
 3165              	.LVL272:
 3166              		.loc 1 882 0
 3167 0000 074B     		ldr	r3, .L380
 3168 0002 9B78     		ldrb	r3, [r3, #2]	@ zero_extendqisi2
 3169 0004 032B     		cmp	r3, #3
 3170 0006 09D8     		bhi	.L375
 3171 0008 DFE803F0 		tbb	[pc, r3]
 3172              	.L377:
 3173 000c 06       		.byte	(.L376-.L377)/2
 3174 000d 04       		.byte	(.L378-.L377)/2
 3175 000e 06       		.byte	(.L376-.L377)/2
 3176 000f 02       		.byte	(.L379-.L377)/2
 3177              		.p2align 1
 3178              	.L379:
 3179              		.loc 1 891 0
 3180 0010 FFF7FEBF 		b	mcpwm_foc_get_tachometer_abs_value
 3181              	.LVL273:
 3182              	.L378:
 3183              		.loc 1 888 0
 3184 0014 FFF7FEBF 		b	mcpwm_atc_get_tachometer_abs_value
 3185              	.LVL274:
 3186              	.L376:
 3187              		.loc 1 885 0
 3188 0018 FFF7FEBF 		b	mcpwm_get_tachometer_abs_value
 3189              	.LVL275:
 3190              	.L375:
 3191              		.loc 1 899 0
 3192 001c 0020     		movs	r0, #0
ARM GAS  /var/folders/sv/kgmgr77579zbf78p2zlhkdfr0000gn/T//ccOxe4My.s 			page 57


 3193              	.LVL276:
 3194 001e 7047     		bx	lr
 3195              	.L381:
 3196              		.align	2
 3197              	.L380:
 3198 0020 00000000 		.word	.LANCHOR12
 3199              		.cfi_endproc
 3200              	.LFE294:
 3201              		.size	mc_interface_get_tachometer_abs_value, .-mc_interface_get_tachometer_abs_value
 3202              		.section	.text.mc_interface_get_last_inj_adc_isr_duration,"ax",%progbits
 3203              		.align	2
 3204              		.p2align 4,,15
 3205              		.global	mc_interface_get_last_inj_adc_isr_duration
 3206              		.thumb
 3207              		.thumb_func
 3208              		.type	mc_interface_get_last_inj_adc_isr_duration, %function
 3209              	mc_interface_get_last_inj_adc_isr_duration:
 3210              	.LFB295:
 3211              		.loc 1 901 0
 3212              		.cfi_startproc
 3213              		@ args = 0, pretend = 0, frame = 0
 3214              		@ frame_needed = 0, uses_anonymous_args = 0
 3215              		@ link register save eliminated.
 3216              	.LVL277:
 3217              		.loc 1 904 0
 3218 0000 084B     		ldr	r3, .L388
 3219 0002 9B78     		ldrb	r3, [r3, #2]	@ zero_extendqisi2
 3220 0004 032B     		cmp	r3, #3
 3221 0006 09D8     		bhi	.L383
 3222 0008 DFE803F0 		tbb	[pc, r3]
 3223              	.L385:
 3224 000c 06       		.byte	(.L384-.L385)/2
 3225 000d 04       		.byte	(.L386-.L385)/2
 3226 000e 06       		.byte	(.L384-.L385)/2
 3227 000f 02       		.byte	(.L387-.L385)/2
 3228              		.p2align 1
 3229              	.L387:
 3230              		.loc 1 913 0
 3231 0010 FFF7FEBF 		b	mcpwm_foc_get_last_inj_adc_isr_duration
 3232              	.LVL278:
 3233              	.L386:
 3234              		.loc 1 910 0
 3235 0014 FFF7FEBF 		b	mcpwm_atc_get_last_inj_adc_isr_duration
 3236              	.LVL279:
 3237              	.L384:
 3238              		.loc 1 907 0
 3239 0018 FFF7FEBF 		b	mcpwm_get_last_inj_adc_isr_duration
 3240              	.LVL280:
 3241              	.L383:
 3242              		.loc 1 921 0
 3243 001c 9FED020A 		vldr.32	s0, .L388+4
 3244 0020 7047     		bx	lr
 3245              	.L389:
 3246 0022 00BF     		.align	2
 3247              	.L388:
 3248 0024 00000000 		.word	.LANCHOR12
 3249 0028 00000000 		.word	0
ARM GAS  /var/folders/sv/kgmgr77579zbf78p2zlhkdfr0000gn/T//ccOxe4My.s 			page 58


 3250              		.cfi_endproc
 3251              	.LFE295:
 3252              		.size	mc_interface_get_last_inj_adc_isr_duration, .-mc_interface_get_last_inj_adc_isr_duration
 3253              		.section	.text.mc_interface_read_reset_avg_motor_current,"ax",%progbits
 3254              		.align	2
 3255              		.p2align 4,,15
 3256              		.global	mc_interface_read_reset_avg_motor_current
 3257              		.thumb
 3258              		.thumb_func
 3259              		.type	mc_interface_read_reset_avg_motor_current, %function
 3260              	mc_interface_read_reset_avg_motor_current:
 3261              	.LFB296:
 3262              		.loc 1 923 0
 3263              		.cfi_startproc
 3264              		@ args = 0, pretend = 0, frame = 0
 3265              		@ frame_needed = 0, uses_anonymous_args = 0
 3266              		@ link register save eliminated.
 3267              		.loc 1 924 0
 3268 0000 0549     		ldr	r1, .L391
 3269 0002 064B     		ldr	r3, .L391+4
 3270 0004 91ED000A 		vldr.32	s0, [r1]
 3271 0008 D3ED007A 		vldr.32	s15, [r3]
 3272              	.LVL281:
 3273              		.loc 1 925 0
 3274 000c 0022     		movs	r2, #0
 3275 000e 0A60     		str	r2, [r1]	@ float
 3276              		.loc 1 928 0
 3277 0010 80EE270A 		vdiv.f32	s0, s0, s15
 3278              	.LVL282:
 3279              		.loc 1 926 0
 3280 0014 1A60     		str	r2, [r3]	@ float
 3281              		.loc 1 928 0
 3282 0016 7047     		bx	lr
 3283              	.L392:
 3284              		.align	2
 3285              	.L391:
 3286 0018 00000000 		.word	.LANCHOR18
 3287 001c 00000000 		.word	.LANCHOR20
 3288              		.cfi_endproc
 3289              	.LFE296:
 3290              		.size	mc_interface_read_reset_avg_motor_current, .-mc_interface_read_reset_avg_motor_current
 3291              		.section	.text.mc_interface_read_reset_avg_input_current,"ax",%progbits
 3292              		.align	2
 3293              		.p2align 4,,15
 3294              		.global	mc_interface_read_reset_avg_input_current
 3295              		.thumb
 3296              		.thumb_func
 3297              		.type	mc_interface_read_reset_avg_input_current, %function
 3298              	mc_interface_read_reset_avg_input_current:
 3299              	.LFB297:
 3300              		.loc 1 930 0
 3301              		.cfi_startproc
 3302              		@ args = 0, pretend = 0, frame = 0
 3303              		@ frame_needed = 0, uses_anonymous_args = 0
 3304              		@ link register save eliminated.
 3305              		.loc 1 931 0
 3306 0000 0549     		ldr	r1, .L394
ARM GAS  /var/folders/sv/kgmgr77579zbf78p2zlhkdfr0000gn/T//ccOxe4My.s 			page 59


 3307 0002 064B     		ldr	r3, .L394+4
 3308 0004 91ED000A 		vldr.32	s0, [r1]
 3309 0008 D3ED007A 		vldr.32	s15, [r3]
 3310              	.LVL283:
 3311              		.loc 1 932 0
 3312 000c 0022     		movs	r2, #0
 3313 000e 0A60     		str	r2, [r1]	@ float
 3314              		.loc 1 935 0
 3315 0010 80EE270A 		vdiv.f32	s0, s0, s15
 3316              	.LVL284:
 3317              		.loc 1 933 0
 3318 0014 1A60     		str	r2, [r3]	@ float
 3319              		.loc 1 935 0
 3320 0016 7047     		bx	lr
 3321              	.L395:
 3322              		.align	2
 3323              	.L394:
 3324 0018 00000000 		.word	.LANCHOR19
 3325 001c 00000000 		.word	.LANCHOR21
 3326              		.cfi_endproc
 3327              	.LFE297:
 3328              		.size	mc_interface_read_reset_avg_input_current, .-mc_interface_read_reset_avg_input_current
 3329              		.section	.text.mc_interface_read_reset_avg_id,"ax",%progbits
 3330              		.align	2
 3331              		.p2align 4,,15
 3332              		.global	mc_interface_read_reset_avg_id
 3333              		.thumb
 3334              		.thumb_func
 3335              		.type	mc_interface_read_reset_avg_id, %function
 3336              	mc_interface_read_reset_avg_id:
 3337              	.LFB298:
 3338              		.loc 1 943 0
 3339              		.cfi_startproc
 3340              		@ args = 0, pretend = 0, frame = 0
 3341              		@ frame_needed = 0, uses_anonymous_args = 0
 3342              		@ link register save eliminated.
 3343              		.loc 1 944 0
 3344 0000 0C49     		ldr	r1, .L399
 3345 0002 0D4B     		ldr	r3, .L399+4
 3346 0004 91ED007A 		vldr.32	s14, [r1]
 3347 0008 D3ED007A 		vldr.32	s15, [r3]
 3348              		.loc 1 947 0
 3349 000c 0B48     		ldr	r0, .L399+8
 3350              		.loc 1 944 0
 3351 000e 87EE270A 		vdiv.f32	s0, s14, s15
 3352              	.LVL285:
 3353              		.loc 1 945 0
 3354 0012 0022     		movs	r2, #0
 3355 0014 0A60     		str	r2, [r1]	@ float
 3356              		.loc 1 946 0
 3357 0016 1A60     		str	r2, [r3]	@ float
 3358              		.loc 1 947 0
 3359 0018 90F85D31 		ldrb	r3, [r0, #349]	@ zero_extendqisi2
 3360 001c 002B     		cmp	r3, #0
 3361 001e B7EE007A 		vmov.f32	s14, #1.0e+0
 3362 0022 FFEE007A 		vmov.f32	s15, #-1.0e+0
 3363 0026 08BF     		it	eq
ARM GAS  /var/folders/sv/kgmgr77579zbf78p2zlhkdfr0000gn/T//ccOxe4My.s 			page 60


 3364 0028 F0EE477A 		vmoveq.f32	s15, s14
 3365              		.loc 1 948 0
 3366 002c 27EE800A 		vmul.f32	s0, s15, s0
 3367              	.LVL286:
 3368 0030 7047     		bx	lr
 3369              	.L400:
 3370 0032 00BF     		.align	2
 3371              	.L399:
 3372 0034 00000000 		.word	.LANCHOR22
 3373 0038 00000000 		.word	.LANCHOR24
 3374 003c 00000000 		.word	.LANCHOR12
 3375              		.cfi_endproc
 3376              	.LFE298:
 3377              		.size	mc_interface_read_reset_avg_id, .-mc_interface_read_reset_avg_id
 3378              		.section	.text.mc_interface_read_reset_avg_iq,"ax",%progbits
 3379              		.align	2
 3380              		.p2align 4,,15
 3381              		.global	mc_interface_read_reset_avg_iq
 3382              		.thumb
 3383              		.thumb_func
 3384              		.type	mc_interface_read_reset_avg_iq, %function
 3385              	mc_interface_read_reset_avg_iq:
 3386              	.LFB299:
 3387              		.loc 1 956 0
 3388              		.cfi_startproc
 3389              		@ args = 0, pretend = 0, frame = 0
 3390              		@ frame_needed = 0, uses_anonymous_args = 0
 3391              		@ link register save eliminated.
 3392              		.loc 1 957 0
 3393 0000 0C49     		ldr	r1, .L404
 3394 0002 0D4B     		ldr	r3, .L404+4
 3395 0004 91ED007A 		vldr.32	s14, [r1]
 3396 0008 D3ED007A 		vldr.32	s15, [r3]
 3397              		.loc 1 960 0
 3398 000c 0B48     		ldr	r0, .L404+8
 3399              		.loc 1 957 0
 3400 000e 87EE270A 		vdiv.f32	s0, s14, s15
 3401              	.LVL287:
 3402              		.loc 1 958 0
 3403 0012 0022     		movs	r2, #0
 3404 0014 0A60     		str	r2, [r1]	@ float
 3405              		.loc 1 959 0
 3406 0016 1A60     		str	r2, [r3]	@ float
 3407              		.loc 1 960 0
 3408 0018 90F85D31 		ldrb	r3, [r0, #349]	@ zero_extendqisi2
 3409 001c 002B     		cmp	r3, #0
 3410 001e B7EE007A 		vmov.f32	s14, #1.0e+0
 3411 0022 FFEE007A 		vmov.f32	s15, #-1.0e+0
 3412 0026 08BF     		it	eq
 3413 0028 F0EE477A 		vmoveq.f32	s15, s14
 3414              		.loc 1 961 0
 3415 002c 27EE800A 		vmul.f32	s0, s15, s0
 3416              	.LVL288:
 3417 0030 7047     		bx	lr
 3418              	.L405:
 3419 0032 00BF     		.align	2
 3420              	.L404:
ARM GAS  /var/folders/sv/kgmgr77579zbf78p2zlhkdfr0000gn/T//ccOxe4My.s 			page 61


 3421 0034 00000000 		.word	.LANCHOR23
 3422 0038 00000000 		.word	.LANCHOR25
 3423 003c 00000000 		.word	.LANCHOR12
 3424              		.cfi_endproc
 3425              	.LFE299:
 3426              		.size	mc_interface_read_reset_avg_iq, .-mc_interface_read_reset_avg_iq
 3427              		.section	.text.mc_interface_get_pid_pos_set,"ax",%progbits
 3428              		.align	2
 3429              		.p2align 4,,15
 3430              		.global	mc_interface_get_pid_pos_set
 3431              		.thumb
 3432              		.thumb_func
 3433              		.type	mc_interface_get_pid_pos_set, %function
 3434              	mc_interface_get_pid_pos_set:
 3435              	.LFB300:
 3436              		.loc 1 963 0
 3437              		.cfi_startproc
 3438              		@ args = 0, pretend = 0, frame = 0
 3439              		@ frame_needed = 0, uses_anonymous_args = 0
 3440              		@ link register save eliminated.
 3441              		.loc 1 964 0
 3442 0000 014B     		ldr	r3, .L407
 3443 0002 93ED000A 		vldr.32	s0, [r3]
 3444              		.loc 1 965 0
 3445 0006 7047     		bx	lr
 3446              	.L408:
 3447              		.align	2
 3448              	.L407:
 3449 0008 00000000 		.word	.LANCHOR30
 3450              		.cfi_endproc
 3451              	.LFE300:
 3452              		.size	mc_interface_get_pid_pos_set, .-mc_interface_get_pid_pos_set
 3453              		.section	.text.mc_interface_get_pid_pos_now,"ax",%progbits
 3454              		.align	2
 3455              		.p2align 4,,15
 3456              		.global	mc_interface_get_pid_pos_now
 3457              		.thumb
 3458              		.thumb_func
 3459              		.type	mc_interface_get_pid_pos_now, %function
 3460              	mc_interface_get_pid_pos_now:
 3461              	.LFB301:
 3462              		.loc 1 967 0
 3463              		.cfi_startproc
 3464              		@ args = 0, pretend = 0, frame = 8
 3465              		@ frame_needed = 0, uses_anonymous_args = 0
 3466 0000 10B5     		push	{r4, lr}
 3467              		.cfi_def_cfa_offset 8
 3468              		.cfi_offset 4, -8
 3469              		.cfi_offset 14, -4
 3470              		.loc 1 970 0
 3471 0002 154C     		ldr	r4, .L419
 3472              		.loc 1 967 0
 3473 0004 82B0     		sub	sp, sp, #8
 3474              		.cfi_def_cfa_offset 16
 3475              		.loc 1 970 0
 3476 0006 A378     		ldrb	r3, [r4, #2]	@ zero_extendqisi2
 3477              		.loc 1 968 0
ARM GAS  /var/folders/sv/kgmgr77579zbf78p2zlhkdfr0000gn/T//ccOxe4My.s 			page 62


 3478 0008 0022     		movs	r2, #0
 3479 000a 0192     		str	r2, [sp, #4]	@ float
 3480              		.loc 1 970 0
 3481 000c 032B     		cmp	r3, #3
 3482 000e 20D8     		bhi	.L416
 3483 0010 DFE803F0 		tbb	[pc, r3]
 3484              	.L412:
 3485 0014 1C       		.byte	(.L411-.L412)/2
 3486 0015 19       		.byte	(.L413-.L412)/2
 3487 0016 1C       		.byte	(.L411-.L412)/2
 3488 0017 02       		.byte	(.L414-.L412)/2
 3489              		.p2align 1
 3490              	.L414:
 3491              		.loc 1 979 0
 3492 0018 FFF7FEFF 		bl	mcpwm_foc_get_pid_pos_now
 3493              	.LVL289:
 3494              	.L410:
 3495              		.loc 1 986 0
 3496 001c 94F85D31 		ldrb	r3, [r4, #349]	@ zero_extendqisi2
 3497 0020 BFEE007A 		vmov.f32	s14, #-1.0e+0
 3498 0024 002B     		cmp	r3, #0
 3499 0026 F7EE007A 		vmov.f32	s15, #1.0e+0
 3500 002a 18BF     		it	ne
 3501 002c F0EE477A 		vmovne.f32	s15, s14
 3502 0030 27EE800A 		vmul.f32	s0, s15, s0
 3503 0034 02A8     		add	r0, sp, #8
 3504 0036 20ED010A 		vstmdb.32	r0!, {s0}
 3505              		.loc 1 987 0
 3506 003a FFF7FEFF 		bl	utils_norm_angle
 3507              	.LVL290:
 3508              		.loc 1 990 0
 3509 003e 9DED010A 		vldr.32	s0, [sp, #4]
 3510 0042 02B0     		add	sp, sp, #8
 3511              		.cfi_remember_state
 3512              		.cfi_def_cfa_offset 8
 3513              		@ sp needed
 3514 0044 10BD     		pop	{r4, pc}
 3515              	.L413:
 3516              		.cfi_restore_state
 3517              		.loc 1 976 0
 3518 0046 FFF7FEFF 		bl	mcpwm_atc_get_pid_pos_now
 3519              	.LVL291:
 3520              		.loc 1 977 0
 3521 004a E7E7     		b	.L410
 3522              	.L411:
 3523              		.loc 1 973 0
 3524 004c FFF7FEFF 		bl	encoder_read_deg
 3525              	.LVL292:
 3526              		.loc 1 974 0
 3527 0050 E4E7     		b	.L410
 3528              	.L416:
 3529              		.loc 1 970 0
 3530 0052 9FED020A 		vldr.32	s0, .L419+4
 3531 0056 E1E7     		b	.L410
 3532              	.L420:
 3533              		.align	2
 3534              	.L419:
ARM GAS  /var/folders/sv/kgmgr77579zbf78p2zlhkdfr0000gn/T//ccOxe4My.s 			page 63


 3535 0058 00000000 		.word	.LANCHOR12
 3536 005c 00000000 		.word	0
 3537              		.cfi_endproc
 3538              	.LFE301:
 3539              		.size	mc_interface_get_pid_pos_now, .-mc_interface_get_pid_pos_now
 3540              		.section	.text.mc_interface_get_last_sample_adc_isr_duration,"ax",%progbits
 3541              		.align	2
 3542              		.p2align 4,,15
 3543              		.global	mc_interface_get_last_sample_adc_isr_duration
 3544              		.thumb
 3545              		.thumb_func
 3546              		.type	mc_interface_get_last_sample_adc_isr_duration, %function
 3547              	mc_interface_get_last_sample_adc_isr_duration:
 3548              	.LFB302:
 3549              		.loc 1 992 0
 3550              		.cfi_startproc
 3551              		@ args = 0, pretend = 0, frame = 0
 3552              		@ frame_needed = 0, uses_anonymous_args = 0
 3553              		@ link register save eliminated.
 3554              		.loc 1 993 0
 3555 0000 014B     		ldr	r3, .L422
 3556 0002 93ED000A 		vldr.32	s0, [r3]
 3557              		.loc 1 994 0
 3558 0006 7047     		bx	lr
 3559              	.L423:
 3560              		.align	2
 3561              	.L422:
 3562 0008 00000000 		.word	.LANCHOR31
 3563              		.cfi_endproc
 3564              	.LFE302:
 3565              		.size	mc_interface_get_last_sample_adc_isr_duration, .-mc_interface_get_last_sample_adc_isr_durati
 3566              		.section	.text.mc_interface_sample_print_data,"ax",%progbits
 3567              		.align	2
 3568              		.p2align 4,,15
 3569              		.global	mc_interface_sample_print_data
 3570              		.thumb
 3571              		.thumb_func
 3572              		.type	mc_interface_sample_print_data, %function
 3573              	mc_interface_sample_print_data:
 3574              	.LFB303:
 3575              		.loc 1 996 0
 3576              		.cfi_startproc
 3577              		@ args = 0, pretend = 0, frame = 0
 3578              		@ frame_needed = 0, uses_anonymous_args = 0
 3579              	.LVL293:
 3580 0000 B1F5FA6F 		cmp	r1, #2000
 3581 0004 28BF     		it	cs
 3582 0006 4FF4FA61 		movcs	r1, #2000
 3583              	.LVL294:
 3584              		.loc 1 1001 0
 3585 000a 0728     		cmp	r0, #7
 3586 000c 0FD0     		beq	.L427
 3587              		.loc 1 996 0
 3588 000e F0B5     		push	{r4, r5, r6, r7, lr}
 3589              		.cfi_def_cfa_offset 20
 3590              		.cfi_offset 4, -20
 3591              		.cfi_offset 5, -16
ARM GAS  /var/folders/sv/kgmgr77579zbf78p2zlhkdfr0000gn/T//ccOxe4My.s 			page 64


 3592              		.cfi_offset 6, -12
 3593              		.cfi_offset 7, -8
 3594              		.cfi_offset 14, -4
 3595              		.loc 1 1004 0
 3596 0010 094F     		ldr	r7, .L428
 3597              		.loc 1 1005 0
 3598 0012 0A4E     		ldr	r6, .L428+4
 3599              		.loc 1 1006 0
 3600 0014 0A4D     		ldr	r5, .L428+8
 3601              		.loc 1 1007 0
 3602 0016 0B4C     		ldr	r4, .L428+12
 3603              		.loc 1 1008 0
 3604 0018 0B4B     		ldr	r3, .L428+16
 3605              		.loc 1 1004 0
 3606 001a 4FF0FF3E 		mov	lr, #-1
 3607 001e C7F800E0 		str	lr, [r7]
 3608              		.loc 1 1005 0
 3609 0022 0027     		movs	r7, #0
 3610 0024 3760     		str	r7, [r6]
 3611              		.loc 1 1006 0
 3612 0026 2960     		str	r1, [r5]
 3613              		.loc 1 1007 0
 3614 0028 2260     		str	r2, [r4]
 3615              		.loc 1 1008 0
 3616 002a 1870     		strb	r0, [r3]
 3617 002c F0BD     		pop	{r4, r5, r6, r7, pc}
 3618              	.L427:
 3619              		.cfi_def_cfa_offset 0
 3620              		.cfi_restore 4
 3621              		.cfi_restore 5
 3622              		.cfi_restore 6
 3623              		.cfi_restore 7
 3624              		.cfi_restore 14
 3625              		.loc 1 1002 0
 3626 002e 074B     		ldr	r3, .L428+20
 3627 0030 0121     		movs	r1, #1
 3628              	.LVL295:
 3629 0032 1868     		ldr	r0, [r3]
 3630              	.LVL296:
 3631 0034 FFF7FEBF 		b	chEvtSignal
 3632              	.LVL297:
 3633              	.L429:
 3634              		.align	2
 3635              	.L428:
 3636 0038 00000000 		.word	.LANCHOR3
 3637 003c 00000000 		.word	.LANCHOR35
 3638 0040 00000000 		.word	.LANCHOR2
 3639 0044 00000000 		.word	.LANCHOR34
 3640 0048 00000000 		.word	.LANCHOR36
 3641 004c 00000000 		.word	.LANCHOR0
 3642              		.cfi_endproc
 3643              	.LFE303:
 3644              		.size	mc_interface_sample_print_data, .-mc_interface_sample_print_data
 3645              		.section	.text.mc_interface_temp_fet_filtered,"ax",%progbits
 3646              		.align	2
 3647              		.p2align 4,,15
 3648              		.global	mc_interface_temp_fet_filtered
ARM GAS  /var/folders/sv/kgmgr77579zbf78p2zlhkdfr0000gn/T//ccOxe4My.s 			page 65


 3649              		.thumb
 3650              		.thumb_func
 3651              		.type	mc_interface_temp_fet_filtered, %function
 3652              	mc_interface_temp_fet_filtered:
 3653              	.LFB304:
 3654              		.loc 1 1019 0
 3655              		.cfi_startproc
 3656              		@ args = 0, pretend = 0, frame = 0
 3657              		@ frame_needed = 0, uses_anonymous_args = 0
 3658              		@ link register save eliminated.
 3659              		.loc 1 1020 0
 3660 0000 014B     		ldr	r3, .L431
 3661 0002 93ED000A 		vldr.32	s0, [r3]
 3662              		.loc 1 1021 0
 3663 0006 7047     		bx	lr
 3664              	.L432:
 3665              		.align	2
 3666              	.L431:
 3667 0008 00000000 		.word	.LANCHOR32
 3668              		.cfi_endproc
 3669              	.LFE304:
 3670              		.size	mc_interface_temp_fet_filtered, .-mc_interface_temp_fet_filtered
 3671              		.section	.text.mc_interface_temp_motor_filtered,"ax",%progbits
 3672              		.align	2
 3673              		.p2align 4,,15
 3674              		.global	mc_interface_temp_motor_filtered
 3675              		.thumb
 3676              		.thumb_func
 3677              		.type	mc_interface_temp_motor_filtered, %function
 3678              	mc_interface_temp_motor_filtered:
 3679              	.LFB305:
 3680              		.loc 1 1030 0
 3681              		.cfi_startproc
 3682              		@ args = 0, pretend = 0, frame = 0
 3683              		@ frame_needed = 0, uses_anonymous_args = 0
 3684              		@ link register save eliminated.
 3685              		.loc 1 1031 0
 3686 0000 014B     		ldr	r3, .L434
 3687 0002 93ED000A 		vldr.32	s0, [r3]
 3688              		.loc 1 1032 0
 3689 0006 7047     		bx	lr
 3690              	.L435:
 3691              		.align	2
 3692              	.L434:
 3693 0008 00000000 		.word	.LANCHOR33
 3694              		.cfi_endproc
 3695              	.LFE305:
 3696              		.size	mc_interface_temp_motor_filtered, .-mc_interface_temp_motor_filtered
 3697              		.section	.text.mc_interface_try_input,"ax",%progbits
 3698              		.align	2
 3699              		.p2align 4,,15
 3700              		.global	mc_interface_try_input
 3701              		.thumb
 3702              		.thumb_func
 3703              		.type	mc_interface_try_input, %function
 3704              	mc_interface_try_input:
 3705              	.LFB306:
ARM GAS  /var/folders/sv/kgmgr77579zbf78p2zlhkdfr0000gn/T//ccOxe4My.s 			page 66


 3706              		.loc 1 1044 0
 3707              		.cfi_startproc
 3708              		@ args = 0, pretend = 0, frame = 0
 3709              		@ frame_needed = 0, uses_anonymous_args = 0
 3710 0000 10B5     		push	{r4, lr}
 3711              		.cfi_def_cfa_offset 8
 3712              		.cfi_offset 4, -8
 3713              		.cfi_offset 14, -4
 3714              		.loc 1 1046 0
 3715 0002 FFF7FEFF 		bl	mc_interface_get_state
 3716              	.LVL298:
 3717 0006 0128     		cmp	r0, #1
 3718 0008 25D0     		beq	.L453
 3719              		.loc 1 1051 0
 3720 000a 164B     		ldr	r3, .L455
 3721 000c 1C68     		ldr	r4, [r3]
 3722              	.LVL299:
 3723              		.loc 1 1053 0
 3724 000e 34B9     		cbnz	r4, .L438
 3725              		.loc 1 1053 0 is_stmt 0 discriminator 1
 3726 0010 154B     		ldr	r3, .L455+4
 3727 0012 1B78     		ldrb	r3, [r3]	@ zero_extendqisi2
 3728 0014 1BB1     		cbz	r3, .L438
 3729              		.loc 1 1054 0 is_stmt 1
 3730 0016 154B     		ldr	r3, .L455+8
 3731 0018 1A78     		ldrb	r2, [r3]	@ zero_extendqisi2
 3732 001a D2B9     		cbnz	r2, .L454
 3733              		.loc 1 1055 0
 3734 001c 0124     		movs	r4, #1
 3735              	.LVL300:
 3736              	.L438:
 3737              		.loc 1 1061 0
 3738 001e 144B     		ldr	r3, .L455+12
 3739 0020 9B78     		ldrb	r3, [r3, #2]	@ zero_extendqisi2
 3740 0022 032B     		cmp	r3, #3
 3741 0024 07D8     		bhi	.L439
 3742 0026 DFE803F0 		tbb	[pc, r3]
 3743              	.L441:
 3744 002a 0E       		.byte	(.L440-.L441)/2
 3745 002b 08       		.byte	(.L442-.L441)/2
 3746 002c 0E       		.byte	(.L440-.L441)/2
 3747 002d 02       		.byte	(.L443-.L441)/2
 3748              		.p2align 1
 3749              	.L443:
 3750              		.loc 1 1074 0
 3751 002e FFF7FEFF 		bl	mcpwm_foc_init_done
 3752              	.LVL301:
 3753 0032 00B9     		cbnz	r0, .L439
 3754              	.LVL302:
 3755              		.loc 1 1065 0
 3756 0034 0124     		movs	r4, #1
 3757              	.LVL303:
 3758              	.L439:
 3759              		.loc 1 1084 0
 3760 0036 2046     		mov	r0, r4
 3761 0038 10BD     		pop	{r4, pc}
 3762              	.LVL304:
ARM GAS  /var/folders/sv/kgmgr77579zbf78p2zlhkdfr0000gn/T//ccOxe4My.s 			page 67


 3763              	.L442:
 3764              		.loc 1 1069 0
 3765 003a FFF7FEFF 		bl	mcpwm_atc_init_done
 3766              	.LVL305:
 3767 003e 0028     		cmp	r0, #0
 3768 0040 F9D1     		bne	.L439
 3769              	.LVL306:
 3770              		.loc 1 1065 0
 3771 0042 0124     		movs	r4, #1
 3772 0044 F7E7     		b	.L439
 3773              	.LVL307:
 3774              	.L440:
 3775              		.loc 1 1064 0
 3776 0046 FFF7FEFF 		bl	mcpwm_init_done
 3777              	.LVL308:
 3778 004a 0028     		cmp	r0, #0
 3779 004c F3D1     		bne	.L439
 3780              	.LVL309:
 3781              		.loc 1 1065 0
 3782 004e 0124     		movs	r4, #1
 3783 0050 F1E7     		b	.L439
 3784              	.LVL310:
 3785              	.L454:
 3786              		.loc 1 1057 0
 3787 0052 1C70     		strb	r4, [r3]
 3788 0054 E3E7     		b	.L438
 3789              	.LVL311:
 3790              	.L453:
 3791              		.loc 1 1047 0
 3792 0056 FFF7FEFF 		bl	mcpwm_stop_pwm
 3793              	.LVL312:
 3794              		.loc 1 1048 0
 3795 005a 024B     		ldr	r3, .L455
 3796 005c 4FF4FA74 		mov	r4, #500
 3797 0060 1C60     		str	r4, [r3]
 3798              	.LVL313:
 3799 0062 DCE7     		b	.L438
 3800              	.L456:
 3801              		.align	2
 3802              	.L455:
 3803 0064 00000000 		.word	.LANCHOR14
 3804 0068 00000000 		.word	.LANCHOR16
 3805 006c 00000000 		.word	.LANCHOR17
 3806 0070 00000000 		.word	.LANCHOR12
 3807              		.cfi_endproc
 3808              	.LFE306:
 3809              		.size	mc_interface_try_input, .-mc_interface_try_input
 3810              		.section	.text.mc_interface_set_duty,"ax",%progbits
 3811              		.align	2
 3812              		.p2align 4,,15
 3813              		.global	mc_interface_set_duty
 3814              		.thumb
 3815              		.thumb_func
 3816              		.type	mc_interface_set_duty, %function
 3817              	mc_interface_set_duty:
 3818              	.LFB267:
 3819              		.loc 1 347 0
ARM GAS  /var/folders/sv/kgmgr77579zbf78p2zlhkdfr0000gn/T//ccOxe4My.s 			page 68


 3820              		.cfi_startproc
 3821              		@ args = 0, pretend = 0, frame = 0
 3822              		@ frame_needed = 0, uses_anonymous_args = 0
 3823              	.LVL314:
 3824 0000 08B5     		push	{r3, lr}
 3825              		.cfi_def_cfa_offset 8
 3826              		.cfi_offset 3, -8
 3827              		.cfi_offset 14, -4
 3828 0002 2DED028B 		vpush.64	{d8}
 3829              		.cfi_def_cfa_offset 16
 3830              		.cfi_offset 80, -16
 3831              		.cfi_offset 81, -12
 3832              		.loc 1 347 0
 3833 0006 B0EE408A 		vmov.f32	s16, s0
 3834              		.loc 1 348 0
 3835 000a FFF7FEFF 		bl	mc_interface_try_input
 3836              	.LVL315:
 3837 000e 38B9     		cbnz	r0, .L457
 3838              		.loc 1 352 0
 3839 0010 204A     		ldr	r2, .L470
 3840 0012 9378     		ldrb	r3, [r2, #2]	@ zero_extendqisi2
 3841 0014 032B     		cmp	r3, #3
 3842 0016 03D8     		bhi	.L457
 3843 0018 DFE803F0 		tbb	[pc, r3]
 3844              	.L460:
 3845 001c 17       		.byte	(.L459-.L460)/2
 3846 001d 29       		.byte	(.L461-.L460)/2
 3847 001e 17       		.byte	(.L459-.L460)/2
 3848 001f 05       		.byte	(.L462-.L460)/2
 3849              		.p2align 1
 3850              	.L457:
 3851              		.loc 1 367 0
 3852 0020 BDEC028B 		vldm	sp!, {d8}
 3853              		.cfi_remember_state
 3854              		.cfi_restore 80
 3855              		.cfi_restore 81
 3856              		.cfi_def_cfa_offset 8
 3857              	.LVL316:
 3858 0024 08BD     		pop	{r3, pc}
 3859              	.LVL317:
 3860              	.L462:
 3861              		.cfi_restore_state
 3862              		.loc 1 361 0
 3863 0026 92F85D31 		ldrb	r3, [r2, #349]	@ zero_extendqisi2
 3864 002a FFEE007A 		vmov.f32	s15, #-1.0e+0
 3865 002e 002B     		cmp	r3, #0
 3866 0030 B7EE000A 		vmov.f32	s0, #1.0e+0
 3867 0034 18BF     		it	ne
 3868 0036 B0EE670A 		vmovne.f32	s0, s15
 3869 003a 20EE080A 		vmul.f32	s0, s0, s16
 3870              		.loc 1 367 0
 3871 003e BDEC028B 		vldm	sp!, {d8}
 3872              		.cfi_remember_state
 3873              		.cfi_restore 80
 3874              		.cfi_restore 81
 3875              		.cfi_def_cfa_offset 8
 3876              	.LVL318:
ARM GAS  /var/folders/sv/kgmgr77579zbf78p2zlhkdfr0000gn/T//ccOxe4My.s 			page 69


 3877 0042 BDE80840 		pop	{r3, lr}
 3878              		.cfi_restore 14
 3879              		.cfi_restore 3
 3880              		.cfi_def_cfa_offset 0
 3881              		.loc 1 361 0
 3882 0046 FFF7FEBF 		b	mcpwm_foc_set_duty
 3883              	.LVL319:
 3884              	.L459:
 3885              		.cfi_restore_state
 3886              	.LBB159:
 3887              	.LBB160:
 3888              		.loc 1 355 0
 3889 004a 92F85D31 		ldrb	r3, [r2, #349]	@ zero_extendqisi2
 3890 004e FFEE007A 		vmov.f32	s15, #-1.0e+0
 3891 0052 002B     		cmp	r3, #0
 3892 0054 B7EE000A 		vmov.f32	s0, #1.0e+0
 3893 0058 18BF     		it	ne
 3894 005a B0EE670A 		vmovne.f32	s0, s15
 3895 005e 28EE000A 		vmul.f32	s0, s16, s0
 3896              	.LBE160:
 3897              	.LBE159:
 3898              		.loc 1 367 0
 3899 0062 BDEC028B 		vldm	sp!, {d8}
 3900              		.cfi_remember_state
 3901              		.cfi_restore 80
 3902              		.cfi_restore 81
 3903              		.cfi_def_cfa_offset 8
 3904              	.LVL320:
 3905 0066 BDE80840 		pop	{r3, lr}
 3906              		.cfi_restore 14
 3907              		.cfi_restore 3
 3908              		.cfi_def_cfa_offset 0
 3909              	.LBB162:
 3910              	.LBB161:
 3911              		.loc 1 355 0
 3912 006a FFF7FEBF 		b	mcpwm_set_duty
 3913              	.LVL321:
 3914              	.L461:
 3915              		.cfi_restore_state
 3916              	.LBE161:
 3917              	.LBE162:
 3918              		.loc 1 358 0
 3919 006e 92F85D31 		ldrb	r3, [r2, #349]	@ zero_extendqisi2
 3920 0072 FFEE007A 		vmov.f32	s15, #-1.0e+0
 3921 0076 002B     		cmp	r3, #0
 3922 0078 B7EE000A 		vmov.f32	s0, #1.0e+0
 3923 007c 18BF     		it	ne
 3924 007e B0EE670A 		vmovne.f32	s0, s15
 3925 0082 20EE080A 		vmul.f32	s0, s0, s16
 3926              		.loc 1 367 0
 3927 0086 BDEC028B 		vldm	sp!, {d8}
 3928              		.cfi_restore 80
 3929              		.cfi_restore 81
 3930              		.cfi_def_cfa_offset 8
 3931              	.LVL322:
 3932 008a BDE80840 		pop	{r3, lr}
 3933              		.cfi_restore 14
ARM GAS  /var/folders/sv/kgmgr77579zbf78p2zlhkdfr0000gn/T//ccOxe4My.s 			page 70


 3934              		.cfi_restore 3
 3935              		.cfi_def_cfa_offset 0
 3936              		.loc 1 358 0
 3937 008e FFF7FEBF 		b	mcpwm_atc_set_duty
 3938              	.LVL323:
 3939              	.L471:
 3940 0092 00BF     		.align	2
 3941              	.L470:
 3942 0094 00000000 		.word	.LANCHOR12
 3943              		.cfi_endproc
 3944              	.LFE267:
 3945              		.size	mc_interface_set_duty, .-mc_interface_set_duty
 3946              		.section	.text.mc_interface_brake_now,"ax",%progbits
 3947              		.align	2
 3948              		.p2align 4,,15
 3949              		.global	mc_interface_brake_now
 3950              		.thumb
 3951              		.thumb_func
 3952              		.type	mc_interface_brake_now, %function
 3953              	mc_interface_brake_now:
 3954              	.LFB277:
 3955              		.loc 1 550 0
 3956              		.cfi_startproc
 3957              		@ args = 0, pretend = 0, frame = 0
 3958              		@ frame_needed = 0, uses_anonymous_args = 0
 3959              		@ link register save eliminated.
 3960              		.loc 1 551 0
 3961 0000 9FED010A 		vldr.32	s0, .L473
 3962 0004 FFF7FEBF 		b	mc_interface_set_duty
 3963              	.LVL324:
 3964              	.L474:
 3965              		.align	2
 3966              	.L473:
 3967 0008 00000000 		.word	0
 3968              		.cfi_endproc
 3969              	.LFE277:
 3970              		.size	mc_interface_brake_now, .-mc_interface_brake_now
 3971              		.section	.text.mc_interface_set_duty_noramp,"ax",%progbits
 3972              		.align	2
 3973              		.p2align 4,,15
 3974              		.global	mc_interface_set_duty_noramp
 3975              		.thumb
 3976              		.thumb_func
 3977              		.type	mc_interface_set_duty_noramp, %function
 3978              	mc_interface_set_duty_noramp:
 3979              	.LFB268:
 3980              		.loc 1 369 0
 3981              		.cfi_startproc
 3982              		@ args = 0, pretend = 0, frame = 0
 3983              		@ frame_needed = 0, uses_anonymous_args = 0
 3984              	.LVL325:
 3985 0000 08B5     		push	{r3, lr}
 3986              		.cfi_def_cfa_offset 8
 3987              		.cfi_offset 3, -8
 3988              		.cfi_offset 14, -4
 3989 0002 2DED028B 		vpush.64	{d8}
 3990              		.cfi_def_cfa_offset 16
ARM GAS  /var/folders/sv/kgmgr77579zbf78p2zlhkdfr0000gn/T//ccOxe4My.s 			page 71


 3991              		.cfi_offset 80, -16
 3992              		.cfi_offset 81, -12
 3993              		.loc 1 369 0
 3994 0006 B0EE408A 		vmov.f32	s16, s0
 3995              		.loc 1 370 0
 3996 000a FFF7FEFF 		bl	mc_interface_try_input
 3997              	.LVL326:
 3998 000e 38B9     		cbnz	r0, .L475
 3999              		.loc 1 374 0
 4000 0010 204A     		ldr	r2, .L488
 4001 0012 9378     		ldrb	r3, [r2, #2]	@ zero_extendqisi2
 4002 0014 032B     		cmp	r3, #3
 4003 0016 03D8     		bhi	.L475
 4004 0018 DFE803F0 		tbb	[pc, r3]
 4005              	.L478:
 4006 001c 17       		.byte	(.L477-.L478)/2
 4007 001d 29       		.byte	(.L479-.L478)/2
 4008 001e 17       		.byte	(.L477-.L478)/2
 4009 001f 05       		.byte	(.L480-.L478)/2
 4010              		.p2align 1
 4011              	.L475:
 4012              		.loc 1 389 0
 4013 0020 BDEC028B 		vldm	sp!, {d8}
 4014              		.cfi_remember_state
 4015              		.cfi_restore 80
 4016              		.cfi_restore 81
 4017              		.cfi_def_cfa_offset 8
 4018              	.LVL327:
 4019 0024 08BD     		pop	{r3, pc}
 4020              	.LVL328:
 4021              	.L480:
 4022              		.cfi_restore_state
 4023              		.loc 1 383 0
 4024 0026 92F85D31 		ldrb	r3, [r2, #349]	@ zero_extendqisi2
 4025 002a FFEE007A 		vmov.f32	s15, #-1.0e+0
 4026 002e 002B     		cmp	r3, #0
 4027 0030 B7EE000A 		vmov.f32	s0, #1.0e+0
 4028 0034 18BF     		it	ne
 4029 0036 B0EE670A 		vmovne.f32	s0, s15
 4030 003a 20EE080A 		vmul.f32	s0, s0, s16
 4031              		.loc 1 389 0
 4032 003e BDEC028B 		vldm	sp!, {d8}
 4033              		.cfi_remember_state
 4034              		.cfi_restore 80
 4035              		.cfi_restore 81
 4036              		.cfi_def_cfa_offset 8
 4037              	.LVL329:
 4038 0042 BDE80840 		pop	{r3, lr}
 4039              		.cfi_restore 14
 4040              		.cfi_restore 3
 4041              		.cfi_def_cfa_offset 0
 4042              		.loc 1 383 0
 4043 0046 FFF7FEBF 		b	mcpwm_foc_set_duty_noramp
 4044              	.LVL330:
 4045              	.L477:
 4046              		.cfi_restore_state
 4047              		.loc 1 377 0
ARM GAS  /var/folders/sv/kgmgr77579zbf78p2zlhkdfr0000gn/T//ccOxe4My.s 			page 72


 4048 004a 92F85D31 		ldrb	r3, [r2, #349]	@ zero_extendqisi2
 4049 004e FFEE007A 		vmov.f32	s15, #-1.0e+0
 4050 0052 002B     		cmp	r3, #0
 4051 0054 B7EE000A 		vmov.f32	s0, #1.0e+0
 4052 0058 18BF     		it	ne
 4053 005a B0EE670A 		vmovne.f32	s0, s15
 4054 005e 20EE080A 		vmul.f32	s0, s0, s16
 4055              		.loc 1 389 0
 4056 0062 BDEC028B 		vldm	sp!, {d8}
 4057              		.cfi_remember_state
 4058              		.cfi_restore 80
 4059              		.cfi_restore 81
 4060              		.cfi_def_cfa_offset 8
 4061              	.LVL331:
 4062 0066 BDE80840 		pop	{r3, lr}
 4063              		.cfi_restore 14
 4064              		.cfi_restore 3
 4065              		.cfi_def_cfa_offset 0
 4066              		.loc 1 377 0
 4067 006a FFF7FEBF 		b	mcpwm_set_duty_noramp
 4068              	.LVL332:
 4069              	.L479:
 4070              		.cfi_restore_state
 4071              		.loc 1 380 0
 4072 006e 92F85D31 		ldrb	r3, [r2, #349]	@ zero_extendqisi2
 4073 0072 FFEE007A 		vmov.f32	s15, #-1.0e+0
 4074 0076 002B     		cmp	r3, #0
 4075 0078 B7EE000A 		vmov.f32	s0, #1.0e+0
 4076 007c 18BF     		it	ne
 4077 007e B0EE670A 		vmovne.f32	s0, s15
 4078 0082 20EE080A 		vmul.f32	s0, s0, s16
 4079              		.loc 1 389 0
 4080 0086 BDEC028B 		vldm	sp!, {d8}
 4081              		.cfi_restore 80
 4082              		.cfi_restore 81
 4083              		.cfi_def_cfa_offset 8
 4084              	.LVL333:
 4085 008a BDE80840 		pop	{r3, lr}
 4086              		.cfi_restore 14
 4087              		.cfi_restore 3
 4088              		.cfi_def_cfa_offset 0
 4089              		.loc 1 380 0
 4090 008e FFF7FEBF 		b	mcpwm_atc_set_duty_noramp
 4091              	.LVL334:
 4092              	.L489:
 4093 0092 00BF     		.align	2
 4094              	.L488:
 4095 0094 00000000 		.word	.LANCHOR12
 4096              		.cfi_endproc
 4097              	.LFE268:
 4098              		.size	mc_interface_set_duty_noramp, .-mc_interface_set_duty_noramp
 4099              		.section	.text.mc_interface_set_pid_speed,"ax",%progbits
 4100              		.align	2
 4101              		.p2align 4,,15
 4102              		.global	mc_interface_set_pid_speed
 4103              		.thumb
 4104              		.thumb_func
ARM GAS  /var/folders/sv/kgmgr77579zbf78p2zlhkdfr0000gn/T//ccOxe4My.s 			page 73


 4105              		.type	mc_interface_set_pid_speed, %function
 4106              	mc_interface_set_pid_speed:
 4107              	.LFB269:
 4108              		.loc 1 391 0
 4109              		.cfi_startproc
 4110              		@ args = 0, pretend = 0, frame = 0
 4111              		@ frame_needed = 0, uses_anonymous_args = 0
 4112              	.LVL335:
 4113 0000 08B5     		push	{r3, lr}
 4114              		.cfi_def_cfa_offset 8
 4115              		.cfi_offset 3, -8
 4116              		.cfi_offset 14, -4
 4117 0002 2DED028B 		vpush.64	{d8}
 4118              		.cfi_def_cfa_offset 16
 4119              		.cfi_offset 80, -16
 4120              		.cfi_offset 81, -12
 4121              		.loc 1 391 0
 4122 0006 B0EE408A 		vmov.f32	s16, s0
 4123              		.loc 1 392 0
 4124 000a FFF7FEFF 		bl	mc_interface_try_input
 4125              	.LVL336:
 4126 000e 38B9     		cbnz	r0, .L490
 4127              		.loc 1 396 0
 4128 0010 204A     		ldr	r2, .L503
 4129 0012 9378     		ldrb	r3, [r2, #2]	@ zero_extendqisi2
 4130 0014 032B     		cmp	r3, #3
 4131 0016 03D8     		bhi	.L490
 4132 0018 DFE803F0 		tbb	[pc, r3]
 4133              	.L493:
 4134 001c 17       		.byte	(.L492-.L493)/2
 4135 001d 29       		.byte	(.L494-.L493)/2
 4136 001e 17       		.byte	(.L492-.L493)/2
 4137 001f 05       		.byte	(.L495-.L493)/2
 4138              		.p2align 1
 4139              	.L490:
 4140              		.loc 1 411 0
 4141 0020 BDEC028B 		vldm	sp!, {d8}
 4142              		.cfi_remember_state
 4143              		.cfi_restore 80
 4144              		.cfi_restore 81
 4145              		.cfi_def_cfa_offset 8
 4146              	.LVL337:
 4147 0024 08BD     		pop	{r3, pc}
 4148              	.LVL338:
 4149              	.L495:
 4150              		.cfi_restore_state
 4151              		.loc 1 405 0
 4152 0026 92F85D31 		ldrb	r3, [r2, #349]	@ zero_extendqisi2
 4153 002a FFEE007A 		vmov.f32	s15, #-1.0e+0
 4154 002e 002B     		cmp	r3, #0
 4155 0030 B7EE000A 		vmov.f32	s0, #1.0e+0
 4156 0034 18BF     		it	ne
 4157 0036 B0EE670A 		vmovne.f32	s0, s15
 4158 003a 20EE080A 		vmul.f32	s0, s0, s16
 4159              		.loc 1 411 0
 4160 003e BDEC028B 		vldm	sp!, {d8}
 4161              		.cfi_remember_state
ARM GAS  /var/folders/sv/kgmgr77579zbf78p2zlhkdfr0000gn/T//ccOxe4My.s 			page 74


 4162              		.cfi_restore 80
 4163              		.cfi_restore 81
 4164              		.cfi_def_cfa_offset 8
 4165              	.LVL339:
 4166 0042 BDE80840 		pop	{r3, lr}
 4167              		.cfi_restore 14
 4168              		.cfi_restore 3
 4169              		.cfi_def_cfa_offset 0
 4170              		.loc 1 405 0
 4171 0046 FFF7FEBF 		b	mcpwm_foc_set_pid_speed
 4172              	.LVL340:
 4173              	.L492:
 4174              		.cfi_restore_state
 4175              		.loc 1 399 0
 4176 004a 92F85D31 		ldrb	r3, [r2, #349]	@ zero_extendqisi2
 4177 004e FFEE007A 		vmov.f32	s15, #-1.0e+0
 4178 0052 002B     		cmp	r3, #0
 4179 0054 B7EE000A 		vmov.f32	s0, #1.0e+0
 4180 0058 18BF     		it	ne
 4181 005a B0EE670A 		vmovne.f32	s0, s15
 4182 005e 20EE080A 		vmul.f32	s0, s0, s16
 4183              		.loc 1 411 0
 4184 0062 BDEC028B 		vldm	sp!, {d8}
 4185              		.cfi_remember_state
 4186              		.cfi_restore 80
 4187              		.cfi_restore 81
 4188              		.cfi_def_cfa_offset 8
 4189              	.LVL341:
 4190 0066 BDE80840 		pop	{r3, lr}
 4191              		.cfi_restore 14
 4192              		.cfi_restore 3
 4193              		.cfi_def_cfa_offset 0
 4194              		.loc 1 399 0
 4195 006a FFF7FEBF 		b	mcpwm_set_pid_speed
 4196              	.LVL342:
 4197              	.L494:
 4198              		.cfi_restore_state
 4199              		.loc 1 402 0
 4200 006e 92F85D31 		ldrb	r3, [r2, #349]	@ zero_extendqisi2
 4201 0072 FFEE007A 		vmov.f32	s15, #-1.0e+0
 4202 0076 002B     		cmp	r3, #0
 4203 0078 B7EE000A 		vmov.f32	s0, #1.0e+0
 4204 007c 18BF     		it	ne
 4205 007e B0EE670A 		vmovne.f32	s0, s15
 4206 0082 20EE080A 		vmul.f32	s0, s0, s16
 4207              		.loc 1 411 0
 4208 0086 BDEC028B 		vldm	sp!, {d8}
 4209              		.cfi_restore 80
 4210              		.cfi_restore 81
 4211              		.cfi_def_cfa_offset 8
 4212              	.LVL343:
 4213 008a BDE80840 		pop	{r3, lr}
 4214              		.cfi_restore 14
 4215              		.cfi_restore 3
 4216              		.cfi_def_cfa_offset 0
 4217              		.loc 1 402 0
 4218 008e FFF7FEBF 		b	mcpwm_atc_set_pid_speed
ARM GAS  /var/folders/sv/kgmgr77579zbf78p2zlhkdfr0000gn/T//ccOxe4My.s 			page 75


 4219              	.LVL344:
 4220              	.L504:
 4221 0092 00BF     		.align	2
 4222              	.L503:
 4223 0094 00000000 		.word	.LANCHOR12
 4224              		.cfi_endproc
 4225              	.LFE269:
 4226              		.size	mc_interface_set_pid_speed, .-mc_interface_set_pid_speed
 4227              		.section	.text.mc_interface_set_pid_pos,"ax",%progbits
 4228              		.align	2
 4229              		.p2align 4,,15
 4230              		.global	mc_interface_set_pid_pos
 4231              		.thumb
 4232              		.thumb_func
 4233              		.type	mc_interface_set_pid_pos, %function
 4234              	mc_interface_set_pid_pos:
 4235              	.LFB270:
 4236              		.loc 1 413 0
 4237              		.cfi_startproc
 4238              		@ args = 0, pretend = 0, frame = 8
 4239              		@ frame_needed = 0, uses_anonymous_args = 0
 4240              	.LVL345:
 4241 0000 10B5     		push	{r4, lr}
 4242              		.cfi_def_cfa_offset 8
 4243              		.cfi_offset 4, -8
 4244              		.cfi_offset 14, -4
 4245 0002 82B0     		sub	sp, sp, #8
 4246              		.cfi_def_cfa_offset 16
 4247              		.loc 1 413 0
 4248 0004 8DED010A 		vstr.32	s0, [sp, #4]
 4249              		.loc 1 414 0
 4250 0008 FFF7FEFF 		bl	mc_interface_try_input
 4251              	.LVL346:
 4252 000c 08BB     		cbnz	r0, .L505
 4253              		.loc 1 418 0
 4254 000e DDED016A 		vldr.32	s13, [sp, #4]
 4255 0012 174B     		ldr	r3, .L514
 4256              		.loc 1 420 0
 4257 0014 174C     		ldr	r4, .L514+4
 4258              		.loc 1 418 0
 4259 0016 C3ED006A 		vstr.32	s13, [r3]
 4260              		.loc 1 420 0
 4261 001a 94F85D31 		ldrb	r3, [r4, #349]	@ zero_extendqisi2
 4262 001e BFEE007A 		vmov.f32	s14, #-1.0e+0
 4263 0022 002B     		cmp	r3, #0
 4264 0024 F7EE007A 		vmov.f32	s15, #1.0e+0
 4265 0028 18BF     		it	ne
 4266 002a F0EE477A 		vmovne.f32	s15, s14
 4267 002e 67EEA67A 		vmul.f32	s15, s15, s13
 4268 0032 02A8     		add	r0, sp, #8
 4269 0034 60ED017A 		vstmdb.32	r0!, {s15}
 4270              		.loc 1 421 0
 4271 0038 FFF7FEFF 		bl	utils_norm_angle
 4272              	.LVL347:
 4273              		.loc 1 423 0
 4274 003c A378     		ldrb	r3, [r4, #2]	@ zero_extendqisi2
 4275 003e 032B     		cmp	r3, #3
ARM GAS  /var/folders/sv/kgmgr77579zbf78p2zlhkdfr0000gn/T//ccOxe4My.s 			page 76


 4276 0040 07D8     		bhi	.L505
 4277 0042 DFE803F0 		tbb	[pc, r3]
 4278              	.L509:
 4279 0046 08       		.byte	(.L508-.L509)/2
 4280 0047 0E       		.byte	(.L510-.L509)/2
 4281 0048 08       		.byte	(.L508-.L509)/2
 4282 0049 02       		.byte	(.L511-.L509)/2
 4283              		.p2align 1
 4284              	.L511:
 4285              		.loc 1 432 0
 4286 004a 9DED010A 		vldr.32	s0, [sp, #4]
 4287 004e FFF7FEFF 		bl	mcpwm_foc_set_pid_pos
 4288              	.LVL348:
 4289              	.L505:
 4290              		.loc 1 438 0
 4291 0052 02B0     		add	sp, sp, #8
 4292              		.cfi_remember_state
 4293              		.cfi_def_cfa_offset 8
 4294              		@ sp needed
 4295 0054 10BD     		pop	{r4, pc}
 4296              	.LVL349:
 4297              	.L508:
 4298              		.cfi_restore_state
 4299              		.loc 1 426 0
 4300 0056 9DED010A 		vldr.32	s0, [sp, #4]
 4301 005a FFF7FEFF 		bl	mcpwm_set_pid_pos
 4302              	.LVL350:
 4303              		.loc 1 438 0
 4304 005e 02B0     		add	sp, sp, #8
 4305              		.cfi_remember_state
 4306              		.cfi_def_cfa_offset 8
 4307              		@ sp needed
 4308 0060 10BD     		pop	{r4, pc}
 4309              	.LVL351:
 4310              	.L510:
 4311              		.cfi_restore_state
 4312              		.loc 1 429 0
 4313 0062 9DED010A 		vldr.32	s0, [sp, #4]
 4314 0066 FFF7FEFF 		bl	mcpwm_atc_set_pid_pos
 4315              	.LVL352:
 4316              		.loc 1 438 0
 4317 006a 02B0     		add	sp, sp, #8
 4318              		.cfi_def_cfa_offset 8
 4319              		@ sp needed
 4320 006c 10BD     		pop	{r4, pc}
 4321              	.LVL353:
 4322              	.L515:
 4323 006e 00BF     		.align	2
 4324              	.L514:
 4325 0070 00000000 		.word	.LANCHOR30
 4326 0074 00000000 		.word	.LANCHOR12
 4327              		.cfi_endproc
 4328              	.LFE270:
 4329              		.size	mc_interface_set_pid_pos, .-mc_interface_set_pid_pos
 4330              		.section	.text.mc_interface_set_current,"ax",%progbits
 4331              		.align	2
 4332              		.p2align 4,,15
ARM GAS  /var/folders/sv/kgmgr77579zbf78p2zlhkdfr0000gn/T//ccOxe4My.s 			page 77


 4333              		.global	mc_interface_set_current
 4334              		.thumb
 4335              		.thumb_func
 4336              		.type	mc_interface_set_current, %function
 4337              	mc_interface_set_current:
 4338              	.LFB271:
 4339              		.loc 1 440 0
 4340              		.cfi_startproc
 4341              		@ args = 0, pretend = 0, frame = 0
 4342              		@ frame_needed = 0, uses_anonymous_args = 0
 4343              	.LVL354:
 4344 0000 08B5     		push	{r3, lr}
 4345              		.cfi_def_cfa_offset 8
 4346              		.cfi_offset 3, -8
 4347              		.cfi_offset 14, -4
 4348 0002 2DED028B 		vpush.64	{d8}
 4349              		.cfi_def_cfa_offset 16
 4350              		.cfi_offset 80, -16
 4351              		.cfi_offset 81, -12
 4352              		.loc 1 440 0
 4353 0006 B0EE408A 		vmov.f32	s16, s0
 4354              		.loc 1 441 0
 4355 000a FFF7FEFF 		bl	mc_interface_try_input
 4356              	.LVL355:
 4357 000e 38B9     		cbnz	r0, .L516
 4358              		.loc 1 445 0
 4359 0010 204A     		ldr	r2, .L529
 4360 0012 9378     		ldrb	r3, [r2, #2]	@ zero_extendqisi2
 4361 0014 032B     		cmp	r3, #3
 4362 0016 03D8     		bhi	.L516
 4363 0018 DFE803F0 		tbb	[pc, r3]
 4364              	.L519:
 4365 001c 17       		.byte	(.L518-.L519)/2
 4366 001d 29       		.byte	(.L520-.L519)/2
 4367 001e 17       		.byte	(.L518-.L519)/2
 4368 001f 05       		.byte	(.L521-.L519)/2
 4369              		.p2align 1
 4370              	.L516:
 4371              		.loc 1 460 0
 4372 0020 BDEC028B 		vldm	sp!, {d8}
 4373              		.cfi_remember_state
 4374              		.cfi_restore 80
 4375              		.cfi_restore 81
 4376              		.cfi_def_cfa_offset 8
 4377              	.LVL356:
 4378 0024 08BD     		pop	{r3, pc}
 4379              	.LVL357:
 4380              	.L521:
 4381              		.cfi_restore_state
 4382              		.loc 1 454 0
 4383 0026 92F85D31 		ldrb	r3, [r2, #349]	@ zero_extendqisi2
 4384 002a FFEE007A 		vmov.f32	s15, #-1.0e+0
 4385 002e 002B     		cmp	r3, #0
 4386 0030 B7EE000A 		vmov.f32	s0, #1.0e+0
 4387 0034 18BF     		it	ne
 4388 0036 B0EE670A 		vmovne.f32	s0, s15
 4389 003a 20EE080A 		vmul.f32	s0, s0, s16
ARM GAS  /var/folders/sv/kgmgr77579zbf78p2zlhkdfr0000gn/T//ccOxe4My.s 			page 78


 4390              		.loc 1 460 0
 4391 003e BDEC028B 		vldm	sp!, {d8}
 4392              		.cfi_remember_state
 4393              		.cfi_restore 80
 4394              		.cfi_restore 81
 4395              		.cfi_def_cfa_offset 8
 4396              	.LVL358:
 4397 0042 BDE80840 		pop	{r3, lr}
 4398              		.cfi_restore 14
 4399              		.cfi_restore 3
 4400              		.cfi_def_cfa_offset 0
 4401              		.loc 1 454 0
 4402 0046 FFF7FEBF 		b	mcpwm_foc_set_current
 4403              	.LVL359:
 4404              	.L518:
 4405              		.cfi_restore_state
 4406              	.LBB165:
 4407              	.LBB166:
 4408              		.loc 1 448 0
 4409 004a 92F85D31 		ldrb	r3, [r2, #349]	@ zero_extendqisi2
 4410 004e FFEE007A 		vmov.f32	s15, #-1.0e+0
 4411 0052 002B     		cmp	r3, #0
 4412 0054 B7EE000A 		vmov.f32	s0, #1.0e+0
 4413 0058 18BF     		it	ne
 4414 005a B0EE670A 		vmovne.f32	s0, s15
 4415 005e 28EE000A 		vmul.f32	s0, s16, s0
 4416              	.LBE166:
 4417              	.LBE165:
 4418              		.loc 1 460 0
 4419 0062 BDEC028B 		vldm	sp!, {d8}
 4420              		.cfi_remember_state
 4421              		.cfi_restore 80
 4422              		.cfi_restore 81
 4423              		.cfi_def_cfa_offset 8
 4424              	.LVL360:
 4425 0066 BDE80840 		pop	{r3, lr}
 4426              		.cfi_restore 14
 4427              		.cfi_restore 3
 4428              		.cfi_def_cfa_offset 0
 4429              	.LBB168:
 4430              	.LBB167:
 4431              		.loc 1 448 0
 4432 006a FFF7FEBF 		b	mcpwm_set_current
 4433              	.LVL361:
 4434              	.L520:
 4435              		.cfi_restore_state
 4436              	.LBE167:
 4437              	.LBE168:
 4438              		.loc 1 451 0
 4439 006e 92F85D31 		ldrb	r3, [r2, #349]	@ zero_extendqisi2
 4440 0072 FFEE007A 		vmov.f32	s15, #-1.0e+0
 4441 0076 002B     		cmp	r3, #0
 4442 0078 B7EE000A 		vmov.f32	s0, #1.0e+0
 4443 007c 18BF     		it	ne
 4444 007e B0EE670A 		vmovne.f32	s0, s15
 4445 0082 20EE080A 		vmul.f32	s0, s0, s16
 4446              		.loc 1 460 0
ARM GAS  /var/folders/sv/kgmgr77579zbf78p2zlhkdfr0000gn/T//ccOxe4My.s 			page 79


 4447 0086 BDEC028B 		vldm	sp!, {d8}
 4448              		.cfi_restore 80
 4449              		.cfi_restore 81
 4450              		.cfi_def_cfa_offset 8
 4451              	.LVL362:
 4452 008a BDE80840 		pop	{r3, lr}
 4453              		.cfi_restore 14
 4454              		.cfi_restore 3
 4455              		.cfi_def_cfa_offset 0
 4456              		.loc 1 451 0
 4457 008e FFF7FEBF 		b	mcpwm_atc_set_current
 4458              	.LVL363:
 4459              	.L530:
 4460 0092 00BF     		.align	2
 4461              	.L529:
 4462 0094 00000000 		.word	.LANCHOR12
 4463              		.cfi_endproc
 4464              	.LFE271:
 4465              		.size	mc_interface_set_current, .-mc_interface_set_current
 4466              		.section	.text.mc_interface_set_current_rel,"ax",%progbits
 4467              		.align	2
 4468              		.p2align 4,,15
 4469              		.global	mc_interface_set_current_rel
 4470              		.thumb
 4471              		.thumb_func
 4472              		.type	mc_interface_set_current_rel, %function
 4473              	mc_interface_set_current_rel:
 4474              	.LFB273:
 4475              		.loc 1 490 0
 4476              		.cfi_startproc
 4477              		@ args = 0, pretend = 0, frame = 0
 4478              		@ frame_needed = 0, uses_anonymous_args = 0
 4479              		@ link register save eliminated.
 4480              	.LVL364:
 4481              		.loc 1 491 0
 4482 0000 B5EEC00A 		vcmpe.f32	s0, #0
 4483 0004 F1EE10FA 		vmrs	APSR_nzcv, FPSCR
 4484              		.loc 1 492 0
 4485 0008 074B     		ldr	r3, .L536
 4486              		.loc 1 491 0
 4487 000a 05DD     		ble	.L535
 4488              		.loc 1 492 0
 4489 000c D3ED1D7A 		vldr.32	s15, [r3, #116]
 4490 0010 20EE270A 		vmul.f32	s0, s0, s15
 4491              	.LVL365:
 4492 0014 FFF7FEBF 		b	mc_interface_set_current
 4493              	.LVL366:
 4494              	.L535:
 4495              		.loc 1 494 0
 4496 0018 D3ED1E7A 		vldr.32	s15, [r3, #120]
 4497 001c F0EEE77A 		vabs.f32	s15, s15
 4498 0020 27EE800A 		vmul.f32	s0, s15, s0
 4499              	.LVL367:
 4500 0024 FFF7FEBF 		b	mc_interface_set_current
 4501              	.LVL368:
 4502              	.L537:
 4503              		.align	2
ARM GAS  /var/folders/sv/kgmgr77579zbf78p2zlhkdfr0000gn/T//ccOxe4My.s 			page 80


 4504              	.L536:
 4505 0028 00000000 		.word	.LANCHOR12
 4506              		.cfi_endproc
 4507              	.LFE273:
 4508              		.size	mc_interface_set_current_rel, .-mc_interface_set_current_rel
 4509              		.section	.text.mc_interface_release_motor,"ax",%progbits
 4510              		.align	2
 4511              		.p2align 4,,15
 4512              		.global	mc_interface_release_motor
 4513              		.thumb
 4514              		.thumb_func
 4515              		.type	mc_interface_release_motor, %function
 4516              	mc_interface_release_motor:
 4517              	.LFB278:
 4518              		.loc 1 557 0
 4519              		.cfi_startproc
 4520              		@ args = 0, pretend = 0, frame = 0
 4521              		@ frame_needed = 0, uses_anonymous_args = 0
 4522              		@ link register save eliminated.
 4523              		.loc 1 558 0
 4524 0000 9FED010A 		vldr.32	s0, .L539
 4525 0004 FFF7FEBF 		b	mc_interface_set_current
 4526              	.LVL369:
 4527              	.L540:
 4528              		.align	2
 4529              	.L539:
 4530 0008 00000000 		.word	0
 4531              		.cfi_endproc
 4532              	.LFE278:
 4533              		.size	mc_interface_release_motor, .-mc_interface_release_motor
 4534              		.section	.text.mc_interface_set_brake_current,"ax",%progbits
 4535              		.align	2
 4536              		.p2align 4,,15
 4537              		.global	mc_interface_set_brake_current
 4538              		.thumb
 4539              		.thumb_func
 4540              		.type	mc_interface_set_brake_current, %function
 4541              	mc_interface_set_brake_current:
 4542              	.LFB272:
 4543              		.loc 1 462 0
 4544              		.cfi_startproc
 4545              		@ args = 0, pretend = 0, frame = 0
 4546              		@ frame_needed = 0, uses_anonymous_args = 0
 4547              	.LVL370:
 4548 0000 08B5     		push	{r3, lr}
 4549              		.cfi_def_cfa_offset 8
 4550              		.cfi_offset 3, -8
 4551              		.cfi_offset 14, -4
 4552 0002 2DED028B 		vpush.64	{d8}
 4553              		.cfi_def_cfa_offset 16
 4554              		.cfi_offset 80, -16
 4555              		.cfi_offset 81, -12
 4556              		.loc 1 462 0
 4557 0006 B0EE408A 		vmov.f32	s16, s0
 4558              		.loc 1 463 0
 4559 000a FFF7FEFF 		bl	mc_interface_try_input
 4560              	.LVL371:
ARM GAS  /var/folders/sv/kgmgr77579zbf78p2zlhkdfr0000gn/T//ccOxe4My.s 			page 81


 4561 000e 38B9     		cbnz	r0, .L541
 4562              		.loc 1 467 0
 4563 0010 204A     		ldr	r2, .L554
 4564 0012 9378     		ldrb	r3, [r2, #2]	@ zero_extendqisi2
 4565 0014 032B     		cmp	r3, #3
 4566 0016 03D8     		bhi	.L541
 4567 0018 DFE803F0 		tbb	[pc, r3]
 4568              	.L544:
 4569 001c 17       		.byte	(.L543-.L544)/2
 4570 001d 29       		.byte	(.L545-.L544)/2
 4571 001e 17       		.byte	(.L543-.L544)/2
 4572 001f 05       		.byte	(.L546-.L544)/2
 4573              		.p2align 1
 4574              	.L541:
 4575              		.loc 1 482 0
 4576 0020 BDEC028B 		vldm	sp!, {d8}
 4577              		.cfi_remember_state
 4578              		.cfi_restore 80
 4579              		.cfi_restore 81
 4580              		.cfi_def_cfa_offset 8
 4581              	.LVL372:
 4582 0024 08BD     		pop	{r3, pc}
 4583              	.LVL373:
 4584              	.L546:
 4585              		.cfi_restore_state
 4586              		.loc 1 476 0
 4587 0026 92F85D31 		ldrb	r3, [r2, #349]	@ zero_extendqisi2
 4588 002a FFEE007A 		vmov.f32	s15, #-1.0e+0
 4589 002e 002B     		cmp	r3, #0
 4590 0030 B7EE000A 		vmov.f32	s0, #1.0e+0
 4591 0034 18BF     		it	ne
 4592 0036 B0EE670A 		vmovne.f32	s0, s15
 4593 003a 20EE080A 		vmul.f32	s0, s0, s16
 4594              		.loc 1 482 0
 4595 003e BDEC028B 		vldm	sp!, {d8}
 4596              		.cfi_remember_state
 4597              		.cfi_restore 80
 4598              		.cfi_restore 81
 4599              		.cfi_def_cfa_offset 8
 4600              	.LVL374:
 4601 0042 BDE80840 		pop	{r3, lr}
 4602              		.cfi_restore 14
 4603              		.cfi_restore 3
 4604              		.cfi_def_cfa_offset 0
 4605              		.loc 1 476 0
 4606 0046 FFF7FEBF 		b	mcpwm_foc_set_brake_current
 4607              	.LVL375:
 4608              	.L543:
 4609              		.cfi_restore_state
 4610              	.LBB171:
 4611              	.LBB172:
 4612              		.loc 1 470 0
 4613 004a 92F85D31 		ldrb	r3, [r2, #349]	@ zero_extendqisi2
 4614 004e FFEE007A 		vmov.f32	s15, #-1.0e+0
 4615 0052 002B     		cmp	r3, #0
 4616 0054 B7EE000A 		vmov.f32	s0, #1.0e+0
 4617 0058 18BF     		it	ne
ARM GAS  /var/folders/sv/kgmgr77579zbf78p2zlhkdfr0000gn/T//ccOxe4My.s 			page 82


 4618 005a B0EE670A 		vmovne.f32	s0, s15
 4619 005e 28EE000A 		vmul.f32	s0, s16, s0
 4620              	.LBE172:
 4621              	.LBE171:
 4622              		.loc 1 482 0
 4623 0062 BDEC028B 		vldm	sp!, {d8}
 4624              		.cfi_remember_state
 4625              		.cfi_restore 80
 4626              		.cfi_restore 81
 4627              		.cfi_def_cfa_offset 8
 4628              	.LVL376:
 4629 0066 BDE80840 		pop	{r3, lr}
 4630              		.cfi_restore 14
 4631              		.cfi_restore 3
 4632              		.cfi_def_cfa_offset 0
 4633              	.LBB174:
 4634              	.LBB173:
 4635              		.loc 1 470 0
 4636 006a FFF7FEBF 		b	mcpwm_set_brake_current
 4637              	.LVL377:
 4638              	.L545:
 4639              		.cfi_restore_state
 4640              	.LBE173:
 4641              	.LBE174:
 4642              		.loc 1 473 0
 4643 006e 92F85D31 		ldrb	r3, [r2, #349]	@ zero_extendqisi2
 4644 0072 FFEE007A 		vmov.f32	s15, #-1.0e+0
 4645 0076 002B     		cmp	r3, #0
 4646 0078 B7EE000A 		vmov.f32	s0, #1.0e+0
 4647 007c 18BF     		it	ne
 4648 007e B0EE670A 		vmovne.f32	s0, s15
 4649 0082 20EE080A 		vmul.f32	s0, s0, s16
 4650              		.loc 1 482 0
 4651 0086 BDEC028B 		vldm	sp!, {d8}
 4652              		.cfi_restore 80
 4653              		.cfi_restore 81
 4654              		.cfi_def_cfa_offset 8
 4655              	.LVL378:
 4656 008a BDE80840 		pop	{r3, lr}
 4657              		.cfi_restore 14
 4658              		.cfi_restore 3
 4659              		.cfi_def_cfa_offset 0
 4660              		.loc 1 473 0
 4661 008e FFF7FEBF 		b	mcpwm_atc_set_brake_current
 4662              	.LVL379:
 4663              	.L555:
 4664 0092 00BF     		.align	2
 4665              	.L554:
 4666 0094 00000000 		.word	.LANCHOR12
 4667              		.cfi_endproc
 4668              	.LFE272:
 4669              		.size	mc_interface_set_brake_current, .-mc_interface_set_brake_current
 4670              		.section	.text.mc_interface_set_brake_current_rel,"ax",%progbits
 4671              		.align	2
 4672              		.p2align 4,,15
 4673              		.global	mc_interface_set_brake_current_rel
 4674              		.thumb
ARM GAS  /var/folders/sv/kgmgr77579zbf78p2zlhkdfr0000gn/T//ccOxe4My.s 			page 83


 4675              		.thumb_func
 4676              		.type	mc_interface_set_brake_current_rel, %function
 4677              	mc_interface_set_brake_current_rel:
 4678              	.LFB274:
 4679              		.loc 1 504 0
 4680              		.cfi_startproc
 4681              		@ args = 0, pretend = 0, frame = 0
 4682              		@ frame_needed = 0, uses_anonymous_args = 0
 4683              		@ link register save eliminated.
 4684              	.LVL380:
 4685              		.loc 1 505 0
 4686 0000 034B     		ldr	r3, .L557
 4687 0002 D3ED1D7A 		vldr.32	s15, [r3, #116]
 4688 0006 27EE800A 		vmul.f32	s0, s15, s0
 4689              	.LVL381:
 4690 000a FFF7FEBF 		b	mc_interface_set_brake_current
 4691              	.LVL382:
 4692              	.L558:
 4693 000e 00BF     		.align	2
 4694              	.L557:
 4695 0010 00000000 		.word	.LANCHOR12
 4696              		.cfi_endproc
 4697              	.LFE274:
 4698              		.size	mc_interface_set_brake_current_rel, .-mc_interface_set_brake_current_rel
 4699              		.section	.text.mc_interface_set_handbrake,"ax",%progbits
 4700              		.align	2
 4701              		.p2align 4,,15
 4702              		.global	mc_interface_set_handbrake
 4703              		.thumb
 4704              		.thumb_func
 4705              		.type	mc_interface_set_handbrake, %function
 4706              	mc_interface_set_handbrake:
 4707              	.LFB275:
 4708              		.loc 1 514 0
 4709              		.cfi_startproc
 4710              		@ args = 0, pretend = 0, frame = 0
 4711              		@ frame_needed = 0, uses_anonymous_args = 0
 4712              	.LVL383:
 4713 0000 08B5     		push	{r3, lr}
 4714              		.cfi_def_cfa_offset 8
 4715              		.cfi_offset 3, -8
 4716              		.cfi_offset 14, -4
 4717 0002 2DED028B 		vpush.64	{d8}
 4718              		.cfi_def_cfa_offset 16
 4719              		.cfi_offset 80, -16
 4720              		.cfi_offset 81, -12
 4721              		.loc 1 514 0
 4722 0006 B0EE408A 		vmov.f32	s16, s0
 4723              		.loc 1 515 0
 4724 000a FFF7FEFF 		bl	mc_interface_try_input
 4725              	.LVL384:
 4726 000e 38B9     		cbnz	r0, .L559
 4727 0010 B0EE480A 		vmov.f32	s0, s16
 4728              		.loc 1 535 0
 4729 0014 BDEC028B 		vldm	sp!, {d8}
 4730              		.cfi_remember_state
 4731              		.cfi_restore 80
ARM GAS  /var/folders/sv/kgmgr77579zbf78p2zlhkdfr0000gn/T//ccOxe4My.s 			page 84


 4732              		.cfi_restore 81
 4733              		.cfi_def_cfa_offset 8
 4734              	.LVL385:
 4735 0018 BDE80840 		pop	{r3, lr}
 4736              		.cfi_restore 14
 4737              		.cfi_restore 3
 4738              		.cfi_def_cfa_offset 0
 4739 001c FFF7FEBF 		b	mc_interface_set_handbrake.part.3
 4740              	.LVL386:
 4741              	.L559:
 4742              		.cfi_restore_state
 4743 0020 BDEC028B 		vldm	sp!, {d8}
 4744              		.cfi_restore 80
 4745              		.cfi_restore 81
 4746              		.cfi_def_cfa_offset 8
 4747              	.LVL387:
 4748 0024 08BD     		pop	{r3, pc}
 4749              		.cfi_endproc
 4750              	.LFE275:
 4751              		.size	mc_interface_set_handbrake, .-mc_interface_set_handbrake
 4752 0026 00BF     		.section	.text.mc_interface_set_handbrake_rel,"ax",%progbits
 4753              		.align	2
 4754              		.p2align 4,,15
 4755              		.global	mc_interface_set_handbrake_rel
 4756              		.thumb
 4757              		.thumb_func
 4758              		.type	mc_interface_set_handbrake_rel, %function
 4759              	mc_interface_set_handbrake_rel:
 4760              	.LFB276:
 4761              		.loc 1 543 0
 4762              		.cfi_startproc
 4763              		@ args = 0, pretend = 0, frame = 0
 4764              		@ frame_needed = 0, uses_anonymous_args = 0
 4765              	.LVL388:
 4766 0000 08B5     		push	{r3, lr}
 4767              		.cfi_def_cfa_offset 8
 4768              		.cfi_offset 3, -8
 4769              		.cfi_offset 14, -4
 4770              		.loc 1 544 0
 4771 0002 0B4B     		ldr	r3, .L566
 4772              		.loc 1 543 0
 4773 0004 2DED028B 		vpush.64	{d8}
 4774              		.cfi_def_cfa_offset 16
 4775              		.cfi_offset 80, -16
 4776              		.cfi_offset 81, -12
 4777              		.loc 1 543 0
 4778 0008 F0EE408A 		vmov.f32	s17, s0
 4779              		.loc 1 544 0
 4780 000c 93ED1E8A 		vldr.32	s16, [r3, #120]
 4781              	.LVL389:
 4782              	.LBB175:
 4783              	.LBB176:
 4784              		.loc 1 515 0
 4785 0010 FFF7FEFF 		bl	mc_interface_try_input
 4786              	.LVL390:
 4787 0014 10B1     		cbz	r0, .L565
 4788              	.LBE176:
ARM GAS  /var/folders/sv/kgmgr77579zbf78p2zlhkdfr0000gn/T//ccOxe4My.s 			page 85


 4789              	.LBE175:
 4790              		.loc 1 545 0
 4791 0016 BDEC028B 		vldm	sp!, {d8}
 4792              		.cfi_remember_state
 4793              		.cfi_restore 80
 4794              		.cfi_restore 81
 4795              		.cfi_def_cfa_offset 8
 4796              	.LVL391:
 4797 001a 08BD     		pop	{r3, pc}
 4798              	.LVL392:
 4799              	.L565:
 4800              		.cfi_restore_state
 4801              	.LBB179:
 4802              	.LBB177:
 4803 001c B0EEC80A 		vabs.f32	s0, s16
 4804 0020 20EE280A 		vmul.f32	s0, s0, s17
 4805              	.LBE177:
 4806              	.LBE179:
 4807 0024 BDEC028B 		vldm	sp!, {d8}
 4808              		.cfi_restore 80
 4809              		.cfi_restore 81
 4810              		.cfi_def_cfa_offset 8
 4811              	.LVL393:
 4812 0028 BDE80840 		pop	{r3, lr}
 4813              		.cfi_restore 14
 4814              		.cfi_restore 3
 4815              		.cfi_def_cfa_offset 0
 4816              	.LBB180:
 4817              	.LBB178:
 4818 002c FFF7FEBF 		b	mc_interface_set_handbrake.part.3
 4819              	.LVL394:
 4820              	.L567:
 4821              		.align	2
 4822              	.L566:
 4823 0030 00000000 		.word	.LANCHOR12
 4824              	.LBE178:
 4825              	.LBE180:
 4826              		.cfi_endproc
 4827              	.LFE276:
 4828              		.size	mc_interface_set_handbrake_rel, .-mc_interface_set_handbrake_rel
 4829              		.section	.text.mc_interface_fault_stop,"ax",%progbits
 4830              		.align	2
 4831              		.p2align 4,,15
 4832              		.global	mc_interface_fault_stop
 4833              		.thumb
 4834              		.thumb_func
 4835              		.type	mc_interface_fault_stop, %function
 4836              	mc_interface_fault_stop:
 4837              	.LFB307:
 4838              		.loc 1 1086 0
 4839              		.cfi_startproc
 4840              		@ args = 0, pretend = 0, frame = 0
 4841              		@ frame_needed = 0, uses_anonymous_args = 0
 4842              		@ link register save eliminated.
 4843              	.LVL395:
 4844              		.loc 1 1087 0
 4845 0000 054B     		ldr	r3, .L573
ARM GAS  /var/folders/sv/kgmgr77579zbf78p2zlhkdfr0000gn/T//ccOxe4My.s 			page 86


 4846 0002 1B78     		ldrb	r3, [r3]	@ zero_extendqisi2
 4847 0004 8342     		cmp	r3, r0
 4848 0006 01D0     		beq	.L572
 4849 0008 FFF7FEBF 		b	mc_interface_fault_stop.part.4
 4850              	.LVL396:
 4851              	.L572:
 4852              		.loc 1 1088 0
 4853 000c 034A     		ldr	r2, .L573+4
 4854 000e 044B     		ldr	r3, .L573+8
 4855 0010 D2F84C21 		ldr	r2, [r2, #332]
 4856 0014 1A60     		str	r2, [r3]
 4857              		.loc 1 1089 0
 4858 0016 7047     		bx	lr
 4859              	.L574:
 4860              		.align	2
 4861              	.L573:
 4862 0018 00000000 		.word	.LANCHOR13
 4863 001c 00000000 		.word	.LANCHOR12
 4864 0020 00000000 		.word	.LANCHOR14
 4865              		.cfi_endproc
 4866              	.LFE307:
 4867              		.size	mc_interface_fault_stop, .-mc_interface_fault_stop
 4868              		.section	.text.mc_interface_mc_timer_isr,"ax",%progbits
 4869              		.align	2
 4870              		.p2align 4,,15
 4871              		.global	mc_interface_mc_timer_isr
 4872              		.thumb
 4873              		.thumb_func
 4874              		.type	mc_interface_mc_timer_isr, %function
 4875              	mc_interface_mc_timer_isr:
 4876              	.LFB308:
 4877              		.loc 1 1144 0
 4878              		.cfi_startproc
 4879              		@ args = 0, pretend = 0, frame = 8
 4880              		@ frame_needed = 0, uses_anonymous_args = 0
 4881 0000 2DE9F043 		push	{r4, r5, r6, r7, r8, r9, lr}
 4882              		.cfi_def_cfa_offset 28
 4883              		.cfi_offset 4, -28
 4884              		.cfi_offset 5, -24
 4885              		.cfi_offset 6, -20
 4886              		.cfi_offset 7, -16
 4887              		.cfi_offset 8, -12
 4888              		.cfi_offset 9, -8
 4889              		.cfi_offset 14, -4
 4890 0004 2DED048B 		vpush.64	{d8, d9}
 4891              		.cfi_def_cfa_offset 44
 4892              		.cfi_offset 80, -44
 4893              		.cfi_offset 81, -40
 4894              		.cfi_offset 82, -36
 4895              		.cfi_offset 83, -32
 4896              		.loc 1 1147 0
 4897 0008 794E     		ldr	r6, .L686
 4898 000a 9FED7A8A 		vldr.32	s16, .L686+4
 4899              		.loc 1 1151 0
 4900 000e 7A4D     		ldr	r5, .L686+8
 4901              		.loc 1 1144 0
 4902 0010 83B0     		sub	sp, sp, #12
ARM GAS  /var/folders/sv/kgmgr77579zbf78p2zlhkdfr0000gn/T//ccOxe4My.s 			page 87


 4903              		.cfi_def_cfa_offset 56
 4904              		.loc 1 1145 0
 4905 0012 FFF7FEFF 		bl	ledpwm_update_pwm
 4906              	.LVL397:
 4907              		.loc 1 1147 0
 4908 0016 338A     		ldrh	r3, [r6, #16]
 4909 0018 DFED786A 		vldr.32	s13, .L686+12
 4910              		.loc 1 1151 0
 4911 001c 95ED0B7A 		vldr.32	s14, [r5, #44]
 4912              		.loc 1 1147 0
 4913 0020 9BB2     		uxth	r3, r3
 4914 0022 07EE903A 		vmov	s15, r3	@ int
 4915 0026 F8EE677A 		vcvt.f32.u32	s15, s15
 4916 002a 67EE887A 		vmul.f32	s15, s15, s16
 4917 002e 27EEA68A 		vmul.f32	s16, s15, s13
 4918              	.LVL398:
 4919              		.loc 1 1151 0
 4920 0032 B4EEC78A 		vcmpe.f32	s16, s14
 4921 0036 F1EE10FA 		vmrs	APSR_nzcv, FPSCR
 4922 003a 07D4     		bmi	.L576
 4923              		.loc 1 1152 0 discriminator 1
 4924 003c D5ED0C7A 		vldr.32	s15, [r5, #48]
 4925              		.loc 1 1151 0 discriminator 1
 4926 0040 B4EEE78A 		vcmpe.f32	s16, s15
 4927 0044 F1EE10FA 		vmrs	APSR_nzcv, FPSCR
 4928 0048 40F3D581 		ble	.L658
 4929              	.L576:
 4930              		.loc 1 1153 0
 4931 004c 6C4A     		ldr	r2, .L686+16
 4932 004e 1368     		ldr	r3, [r2]
 4933 0050 0133     		adds	r3, r3, #1
 4934              		.loc 1 1155 0
 4935 0052 072B     		cmp	r3, #7
 4936              		.loc 1 1153 0
 4937 0054 1360     		str	r3, [r2]
 4938              		.loc 1 1155 0
 4939 0056 00F3B581 		bgt	.L671
 4940              	.L579:
 4941              		.loc 1 1163 0
 4942 005a FFF7FEFF 		bl	mc_interface_get_state
 4943              	.LVL399:
 4944 005e 0228     		cmp	r0, #2
 4945 0060 00F0C481 		beq	.L672
 4946              	.L582:
 4947              		.loc 1 1166 0
 4948 0064 674B     		ldr	r3, .L686+20
 4949 0066 0022     		movs	r2, #0
 4950 0068 1A60     		str	r2, [r3]
 4951              	.L583:
 4952              		.loc 1 1169 0
 4953 006a 674B     		ldr	r3, .L686+24
 4954 006c 1B68     		ldr	r3, [r3]
 4955 006e 03B1     		cbz	r3, .L584
 4956              		.loc 1 1170 0
 4957 0070 9847     		blx	r3
 4958              	.LVL400:
 4959              	.L584:
ARM GAS  /var/folders/sv/kgmgr77579zbf78p2zlhkdfr0000gn/T//ccOxe4My.s 			page 88


 4960              		.loc 1 1173 0
 4961 0072 FFF7FEFF 		bl	mc_interface_get_tot_current_filtered
 4962              	.LVL401:
 4963 0076 F0EE408A 		vmov.f32	s17, s0
 4964              	.LVL402:
 4965              		.loc 1 1174 0
 4966 007a FFF7FEFF 		bl	mc_interface_get_tot_current_in_filtered
 4967              	.LVL403:
 4968              		.loc 1 1175 0
 4969 007e 6348     		ldr	r0, .L686+28
 4970              		.loc 1 1176 0
 4971 0080 6349     		ldr	r1, .L686+32
 4972              		.loc 1 1175 0
 4973 0082 D0ED007A 		vldr.32	s15, [r0]
 4974              		.loc 1 1177 0
 4975 0086 634A     		ldr	r2, .L686+36
 4976              		.loc 1 1178 0
 4977 0088 634B     		ldr	r3, .L686+40
 4978              		.loc 1 1175 0
 4979 008a 78EEA77A 		vadd.f32	s15, s17, s15
 4980              		.loc 1 1177 0
 4981 008e B7EE009A 		vmov.f32	s18, #1.0e+0
 4982              		.loc 1 1175 0
 4983 0092 C0ED007A 		vstr.32	s15, [r0]
 4984              		.loc 1 1176 0
 4985 0096 D1ED007A 		vldr.32	s15, [r1]
 4986 009a 70EE277A 		vadd.f32	s15, s0, s15
 4987              		.loc 1 1174 0
 4988 009e F0EE409A 		vmov.f32	s19, s0
 4989              	.LVL404:
 4990              		.loc 1 1176 0
 4991 00a2 C1ED007A 		vstr.32	s15, [r1]
 4992              		.loc 1 1177 0
 4993 00a6 D2ED007A 		vldr.32	s15, [r2]
 4994 00aa 77EE897A 		vadd.f32	s15, s15, s18
 4995 00ae C2ED007A 		vstr.32	s15, [r2]
 4996              		.loc 1 1178 0
 4997 00b2 D3ED007A 		vldr.32	s15, [r3]
 4998 00b6 77EE897A 		vadd.f32	s15, s15, s18
 4999 00ba C3ED007A 		vstr.32	s15, [r3]
 5000              		.loc 1 1180 0
 5001 00be FFF7FEFF 		bl	mcpwm_foc_get_id
 5002              	.LVL405:
 5003 00c2 564B     		ldr	r3, .L686+44
 5004 00c4 D3ED007A 		vldr.32	s15, [r3]
 5005 00c8 30EE270A 		vadd.f32	s0, s0, s15
 5006 00cc 83ED000A 		vstr.32	s0, [r3]
 5007              		.loc 1 1181 0
 5008 00d0 FFF7FEFF 		bl	mcpwm_foc_get_iq
 5009              	.LVL406:
 5010 00d4 5249     		ldr	r1, .L686+48
 5011              		.loc 1 1182 0
 5012 00d6 534A     		ldr	r2, .L686+52
 5013              		.loc 1 1181 0
 5014 00d8 D1ED007A 		vldr.32	s15, [r1]
 5015              		.loc 1 1183 0
 5016 00dc 524B     		ldr	r3, .L686+56
ARM GAS  /var/folders/sv/kgmgr77579zbf78p2zlhkdfr0000gn/T//ccOxe4My.s 			page 89


 5017              		.loc 1 1181 0
 5018 00de 30EE270A 		vadd.f32	s0, s0, s15
 5019 00e2 81ED000A 		vstr.32	s0, [r1]
 5020              		.loc 1 1182 0
 5021 00e6 D2ED007A 		vldr.32	s15, [r2]
 5022 00ea 77EE897A 		vadd.f32	s15, s15, s18
 5023 00ee C2ED007A 		vstr.32	s15, [r2]
 5024              		.loc 1 1183 0
 5025 00f2 D3ED007A 		vldr.32	s15, [r3]
 5026 00f6 37EE899A 		vadd.f32	s18, s15, s18
 5027 00fa 83ED009A 		vstr.32	s18, [r3]
 5028              		.loc 1 1185 0
 5029 00fe FFF7FEFF 		bl	mc_interface_get_tot_current
 5030              	.LVL407:
 5031              		.loc 1 1187 0
 5032 0102 AB78     		ldrb	r3, [r5, #2]	@ zero_extendqisi2
 5033 0104 032B     		cmp	r3, #3
 5034              		.loc 1 1185 0
 5035 0106 B0EE409A 		vmov.f32	s18, s0
 5036              	.LVL408:
 5037              		.loc 1 1187 0
 5038 010a 00F0DD81 		beq	.L673
 5039              		.loc 1 1186 0
 5040 010e B0EE680A 		vmov.f32	s0, s17
 5041              	.LVL409:
 5042              	.L585:
 5043              		.loc 1 1194 0
 5044 0112 95F83C20 		ldrb	r2, [r5, #60]	@ zero_extendqisi2
 5045 0116 384B     		ldr	r3, .L686+8
 5046              		.loc 1 1195 0
 5047 0118 D3ED057A 		vldr.32	s15, [r3, #20]
 5048              		.loc 1 1194 0
 5049 011c 002A     		cmp	r2, #0
 5050 011e 00F04381 		beq	.L586
 5051              		.loc 1 1195 0
 5052 0122 B0EEC00A 		vabs.f32	s0, s0
 5053              	.LVL410:
 5054 0126 B4EEE70A 		vcmpe.f32	s0, s15
 5055 012a F1EE10FA 		vmrs	APSR_nzcv, FPSCR
 5056 012e 07DD     		ble	.L587
 5057              	.LVL411:
 5058              	.LBB181:
 5059              	.LBB182:
 5060              		.loc 1 1087 0
 5061 0130 3E4A     		ldr	r2, .L686+60
 5062 0132 1278     		ldrb	r2, [r2]	@ zero_extendqisi2
 5063 0134 042A     		cmp	r2, #4
 5064 0136 00F0AF81 		beq	.L674
 5065              	.LVL412:
 5066              	.L589:
 5067              	.LBE182:
 5068              	.LBE181:
 5069              	.LBB185:
 5070              	.LBB186:
 5071 013a 0420     		movs	r0, #4
 5072 013c FFF7FEFF 		bl	mc_interface_fault_stop.part.4
 5073              	.LVL413:
ARM GAS  /var/folders/sv/kgmgr77579zbf78p2zlhkdfr0000gn/T//ccOxe4My.s 			page 90


 5074              	.L587:
 5075              	.LBE186:
 5076              	.LBE185:
 5077              		.loc 1 1205 0
 5078 0140 3B4B     		ldr	r3, .L686+64
 5079 0142 1B69     		ldr	r3, [r3, #16]
 5080 0144 DB04     		lsls	r3, r3, #19
 5081 0146 08D4     		bmi	.L593
 5082              	.LVL414:
 5083              	.LBB187:
 5084              	.LBB188:
 5085              		.loc 1 1087 0
 5086 0148 384B     		ldr	r3, .L686+60
 5087 014a 1B78     		ldrb	r3, [r3]	@ zero_extendqisi2
 5088 014c 032B     		cmp	r3, #3
 5089 014e 40F0AC81 		bne	.L594
 5090              		.loc 1 1088 0
 5091 0152 384B     		ldr	r3, .L686+68
 5092 0154 D5F84C21 		ldr	r2, [r5, #332]
 5093 0158 1A60     		str	r2, [r3]
 5094              	.LVL415:
 5095              	.L593:
 5096              	.LBE188:
 5097              	.LBE187:
 5098              		.loc 1 1210 0
 5099 015a FFF7FEFF 		bl	mc_interface_get_sampling_frequency_now
 5100              	.LVL416:
 5101              		.loc 1 1211 0
 5102 015e F0EEE88A 		vabs.f32	s17, s17
 5103              	.LVL417:
 5104 0162 F7EE006A 		vmov.f32	s13, #1.0e+0
 5105 0166 F4EEE68A 		vcmpe.f32	s17, s13
 5106 016a F1EE10FA 		vmrs	APSR_nzcv, FPSCR
 5107              		.loc 1 1210 0
 5108 016e B0EE409A 		vmov.f32	s18, s0
 5109              	.LVL418:
 5110              		.loc 1 1211 0
 5111 0172 2FDD     		ble	.L596
 5112              	.LBB190:
 5113              		.loc 1 1217 0
 5114 0174 86EE807A 		vdiv.f32	s14, s13, s0
 5115 0178 2F4A     		ldr	r2, .L686+72
 5116              		.loc 1 1216 0
 5117 017a 304B     		ldr	r3, .L686+76
 5118 017c C9EE807A 		vdiv.f32	s15, s19, s0
 5119              		.loc 1 1217 0
 5120 0180 92ED006A 		vldr.32	s12, [r2]
 5121              		.loc 1 1216 0
 5122 0184 D3ED005A 		vldr.32	s11, [r3]
 5123              		.loc 1 1219 0
 5124 0188 DFED2D6A 		vldr.32	s13, .L686+80
 5125              		.loc 1 1217 0
 5126 018c 37EE067A 		vadd.f32	s14, s14, s12
 5127              		.loc 1 1216 0
 5128 0190 77EEA57A 		vadd.f32	s15, s15, s11
 5129              		.loc 1 1219 0
 5130 0194 B4EEE67A 		vcmpe.f32	s14, s13
ARM GAS  /var/folders/sv/kgmgr77579zbf78p2zlhkdfr0000gn/T//ccOxe4My.s 			page 91


 5131 0198 F1EE10FA 		vmrs	APSR_nzcv, FPSCR
 5132              		.loc 1 1216 0
 5133 019c C3ED007A 		vstr.32	s15, [r3]
 5134              		.loc 1 1217 0
 5135 01a0 82ED007A 		vstr.32	s14, [r2]
 5136              		.loc 1 1219 0
 5137 01a4 16DB     		blt	.L596
 5138              		.loc 1 1220 0
 5139 01a6 F5EEC07A 		vcmpe.f32	s15, #0
 5140 01aa F1EE10FA 		vmrs	APSR_nzcv, FPSCR
 5141 01ae 40F39281 		ble	.L659
 5142              		.loc 1 1221 0
 5143 01b2 2448     		ldr	r0, .L686+84
 5144              		.loc 1 1222 0
 5145 01b4 2449     		ldr	r1, .L686+88
 5146              		.loc 1 1221 0
 5147 01b6 90ED007A 		vldr.32	s14, [r0]
 5148 01ba 37EE877A 		vadd.f32	s14, s15, s14
 5149 01be 80ED007A 		vstr.32	s14, [r0]
 5150              		.loc 1 1222 0
 5151 01c2 91ED007A 		vldr.32	s14, [r1]
 5152 01c6 A8EE277A 		vfma.f32	s14, s16, s15
 5153 01ca 81ED007A 		vstr.32	s14, [r1]
 5154              	.L601:
 5155              		.loc 1 1228 0
 5156 01ce 0021     		movs	r1, #0
 5157 01d0 1160     		str	r1, [r2]	@ float
 5158              		.loc 1 1229 0
 5159 01d2 1960     		str	r1, [r3]	@ float
 5160              	.L596:
 5161              	.LVL419:
 5162              	.LBE190:
 5163              		.loc 1 1235 0
 5164 01d4 1D4F     		ldr	r7, .L686+92
 5165 01d6 3B78     		ldrb	r3, [r7]	@ zero_extendqisi2
 5166 01d8 013B     		subs	r3, r3, #1
 5167 01da 052B     		cmp	r3, #5
 5168 01dc 00F2DF80 		bhi	.L575
 5169 01e0 DFE813F0 		tbh	[pc, r3, lsl #1]
 5170              	.L604:
 5171 01e4 3201     		.2byte	(.L603-.L604)/2
 5172 01e6 4801     		.2byte	(.L605-.L604)/2
 5173 01e8 3600     		.2byte	(.L606-.L604)/2
 5174 01ea 0D01     		.2byte	(.L607-.L604)/2
 5175 01ec 3600     		.2byte	(.L606-.L604)/2
 5176 01ee 0D01     		.2byte	(.L607-.L604)/2
 5177              		.p2align 1
 5178              	.L687:
 5179              		.align	2
 5180              	.L686:
 5181 01f0 00000000 		.word	.LANCHOR41
 5182 01f4 6740533A 		.word	978534503
 5183 01f8 00000000 		.word	.LANCHOR12
 5184 01fc 74D19541 		.word	1100337524
 5185 0200 00000000 		.word	.LANCHOR42
 5186 0204 00000000 		.word	.LANCHOR15
 5187 0208 00000000 		.word	.LANCHOR39
ARM GAS  /var/folders/sv/kgmgr77579zbf78p2zlhkdfr0000gn/T//ccOxe4My.s 			page 92


 5188 020c 00000000 		.word	.LANCHOR18
 5189 0210 00000000 		.word	.LANCHOR19
 5190 0214 00000000 		.word	.LANCHOR20
 5191 0218 00000000 		.word	.LANCHOR21
 5192 021c 00000000 		.word	.LANCHOR22
 5193 0220 00000000 		.word	.LANCHOR23
 5194 0224 00000000 		.word	.LANCHOR24
 5195 0228 00000000 		.word	.LANCHOR25
 5196 022c 00000000 		.word	.LANCHOR13
 5197 0230 00080240 		.word	1073874944
 5198 0234 00000000 		.word	.LANCHOR14
 5199 0238 00000000 		.word	.LANCHOR44
 5200 023c 00000000 		.word	.LANCHOR43
 5201 0240 0AD7233C 		.word	1008981770
 5202 0244 00000000 		.word	.LANCHOR26
 5203 0248 00000000 		.word	.LANCHOR28
 5204 024c 00000000 		.word	.LANCHOR36
 5205              	.L606:
 5206              	.LVL420:
 5207              	.LBB191:
 5208              		.loc 1 1267 0
 5209 0250 DFF86083 		ldr	r8, .L688+100
 5210 0254 D8F80030 		ldr	r3, [r8]
 5211 0258 002B     		cmp	r3, #0
 5212 025a C0F22F81 		blt	.L638
 5213              		.loc 1 1268 0
 5214 025e BC4A     		ldr	r2, .L688
 5215 0260 D8F80030 		ldr	r3, [r8]
 5216 0264 1268     		ldr	r2, [r2]
 5217              	.LVL421:
 5218              		.loc 1 1269 0
 5219 0266 9B1A     		subs	r3, r3, r2
 5220              	.LVL422:
 5221 0268 00F14982 		bmi	.L675
 5222              	.LVL423:
 5223              	.L614:
 5224              		.loc 1 1274 0
 5225 026c B94C     		ldr	r4, .L688+4
 5226 026e 2268     		ldr	r2, [r4]
 5227 0270 9342     		cmp	r3, r2
 5228 0272 00F05581 		beq	.L676
 5229              		.loc 1 1287 0
 5230 0276 FFF7FEFF 		bl	mc_interface_get_state
 5231              	.LVL424:
 5232 027a 0228     		cmp	r0, #2
 5233 027c 00F0D680 		beq	.L632
 5234              	.LVL425:
 5235              	.L623:
 5236              	.LBE191:
 5237              	.LBB202:
 5238              		.loc 1 1328 0
 5239 0280 B54A     		ldr	r2, .L688+8
 5240              		.loc 1 1330 0
 5241 0282 B649     		ldr	r1, .L688+12
 5242              		.loc 1 1328 0
 5243 0284 1368     		ldr	r3, [r2]
 5244              		.loc 1 1330 0
ARM GAS  /var/folders/sv/kgmgr77579zbf78p2zlhkdfr0000gn/T//ccOxe4My.s 			page 93


 5245 0286 0968     		ldr	r1, [r1]
 5246              		.loc 1 1328 0
 5247 0288 0133     		adds	r3, r3, #1
 5248              		.loc 1 1330 0
 5249 028a 8B42     		cmp	r3, r1
 5250              		.loc 1 1328 0
 5251 028c 1360     		str	r3, [r2]
 5252              		.loc 1 1330 0
 5253 028e C0F28680 		blt	.L575
 5254              	.LBB203:
 5255              		.loc 1 1333 0
 5256 0292 2168     		ldr	r1, [r4]
 5257 0294 AF48     		ldr	r0, .L688+4
 5258              		.loc 1 1331 0
 5259 0296 0023     		movs	r3, #0
 5260              		.loc 1 1333 0
 5261 0298 B1F5FA6F 		cmp	r1, #2000
 5262              		.loc 1 1334 0
 5263 029c A8BF     		it	ge
 5264 029e 0360     		strge	r3, [r0]
 5265              		.loc 1 1331 0
 5266 02a0 1360     		str	r3, [r2]
 5267              		.loc 1 1338 0
 5268 02a2 AB78     		ldrb	r3, [r5, #2]	@ zero_extendqisi2
 5269 02a4 AE4A     		ldr	r2, .L688+16
 5270 02a6 032B     		cmp	r3, #3
 5271 02a8 00F09981 		beq	.L677
 5272              		.loc 1 1344 0
 5273 02ac 9378     		ldrb	r3, [r2, #2]	@ zero_extendqisi2
 5274 02ae 012B     		cmp	r3, #1
 5275 02b0 00F02081 		beq	.L678
 5276              		.loc 1 1348 0
 5277 02b4 AB4B     		ldr	r3, .L688+20
 5278              		.loc 1 1349 0
 5279 02b6 AC4F     		ldr	r7, .L688+24
 5280              		.loc 1 1348 0
 5281 02b8 1D68     		ldr	r5, [r3]
 5282              		.loc 1 1349 0
 5283 02ba 2368     		ldr	r3, [r4]
 5284 02bc 3B44     		add	r3, r3, r7
 5285 02be 0022     		movs	r2, #0
 5286              		.loc 1 1348 0
 5287 02c0 2DB2     		sxth	r5, r5
 5288              	.LVL426:
 5289              		.loc 1 1349 0
 5290 02c2 83F8082E 		strb	r2, [r3, #3592]
 5291              	.L626:
 5292              		.loc 1 1352 0
 5293 02c6 FFF7FEFF 		bl	mc_interface_get_state
 5294              	.LVL427:
 5295 02ca 0128     		cmp	r0, #1
 5296 02cc 00F0AC81 		beq	.L679
 5297              		.loc 1 1360 0
 5298 02d0 A649     		ldr	r1, .L688+28
 5299 02d2 D4F800E0 		ldr	lr, [r4]
 5300 02d6 0A68     		ldr	r2, [r1]
 5301 02d8 A54B     		ldr	r3, .L688+32
ARM GAS  /var/folders/sv/kgmgr77579zbf78p2zlhkdfr0000gn/T//ccOxe4My.s 			page 94


 5302              		.loc 1 1363 0
 5303 02da A648     		ldr	r0, .L688+36
 5304              		.loc 1 1360 0
 5305 02dc 12B2     		sxth	r2, r2
 5306 02de 23F81E20 		strh	r2, [r3, lr, lsl #1]	@ movhi
 5307              		.loc 1 1361 0
 5308 02e2 D4F800C0 		ldr	ip, [r4]
 5309 02e6 4A68     		ldr	r2, [r1, #4]
 5310              		.loc 1 1364 0
 5311 02e8 DFF8CCE2 		ldr	lr, .L688+104
 5312              		.loc 1 1365 0
 5313 02ec A249     		ldr	r1, .L688+40
 5314              		.loc 1 1361 0
 5315 02ee 03EB4C03 		add	r3, r3, ip, lsl #1
 5316 02f2 12B2     		sxth	r2, r2
 5317 02f4 A3F8A02F 		strh	r2, [r3, #4000]	@ movhi
 5318              		.loc 1 1363 0
 5319 02f8 2368     		ldr	r3, [r4]
 5320 02fa B288     		ldrh	r2, [r6, #4]
 5321 02fc 00EB4303 		add	r3, r0, r3, lsl #1
 5322 0300 A8B2     		uxth	r0, r5
 5323 0302 121A     		subs	r2, r2, r0
 5324 0304 12B2     		sxth	r2, r2
 5325 0306 A3F8482E 		strh	r2, [r3, #3656]	@ movhi
 5326              		.loc 1 1364 0
 5327 030a 2368     		ldr	r3, [r4]
 5328 030c 7288     		ldrh	r2, [r6, #2]
 5329 030e 0EEB4303 		add	r3, lr, r3, lsl #1
 5330 0312 121A     		subs	r2, r2, r0
 5331 0314 12B2     		sxth	r2, r2
 5332 0316 A3F8F02C 		strh	r2, [r3, #3312]	@ movhi
 5333              		.loc 1 1365 0
 5334 031a 2268     		ldr	r2, [r4]
 5335 031c 3388     		ldrh	r3, [r6]
 5336 031e 01EB4202 		add	r2, r1, r2, lsl #1
 5337 0322 1B1A     		subs	r3, r3, r0
 5338 0324 1BB2     		sxth	r3, r3
 5339 0326 A2F8983B 		strh	r3, [r2, #2968]	@ movhi
 5340              	.L629:
 5341              		.loc 1 1368 0
 5342 032a 2268     		ldr	r2, [r4]
 5343 032c 934B     		ldr	r3, .L688+44
 5344 032e 03EB4203 		add	r3, r3, r2, lsl #1
 5345 0332 A3F8405A 		strh	r5, [r3, #2624]	@ movhi
 5346              		.loc 1 1369 0
 5347 0336 2568     		ldr	r5, [r4]
 5348              	.LVL428:
 5349 0338 FFF7FEFF 		bl	mc_interface_get_tot_current
 5350              	.LVL429:
 5351              		.loc 1 1370 0
 5352 033c F2EE047A 		vmov.f32	s15, #1.0e+1
 5353 0340 89EE277A 		vdiv.f32	s14, s18, s15
 5354              		.loc 1 1369 0
 5355 0344 8E4A     		ldr	r2, .L688+48
 5356              		.loc 1 1370 0
 5357 0346 8F4B     		ldr	r3, .L688+52
 5358              		.loc 1 1369 0
ARM GAS  /var/folders/sv/kgmgr77579zbf78p2zlhkdfr0000gn/T//ccOxe4My.s 			page 95


 5359 0348 02EB4501 		add	r1, r2, r5, lsl #1
 5360 034c DFED8E7A 		vldr.32	s15, .L688+56
 5361 0350 20EE270A 		vmul.f32	s0, s0, s15
 5362              		.loc 1 1370 0
 5363 0354 FDEEC77A 		vcvt.s32.f32	s15, s14
 5364 0358 CDED017A 		vstr.32	s15, [sp, #4]	@ int
 5365              		.loc 1 1369 0
 5366 035c FDEEC07A 		vcvt.s32.f32	s15, s0
 5367              		.loc 1 1370 0
 5368 0360 BDF90420 		ldrsh	r2, [sp, #4]
 5369              		.loc 1 1369 0
 5370 0364 CDED007A 		vstr.32	s15, [sp]	@ int
 5371 0368 BDF90000 		ldrsh	r0, [sp]
 5372 036c A1F8E808 		strh	r0, [r1, #2280]	@ movhi
 5373              		.loc 1 1370 0
 5374 0370 2168     		ldr	r1, [r4]
 5375 0372 03EB4103 		add	r3, r3, r1, lsl #1
 5376 0376 A3F89027 		strh	r2, [r3, #1936]	@ movhi
 5377              		.loc 1 1371 0
 5378 037a 2668     		ldr	r6, [r4]
 5379 037c FFF7FEFF 		bl	mcpwm_get_comm_step
 5380              	.LVL430:
 5381 0380 0546     		mov	r5, r0
 5382 0382 FFF7FEFF 		bl	mcpwm_read_hall_phase
 5383              	.LVL431:
 5384 0386 3744     		add	r7, r7, r6
 5385 0388 45EAC000 		orr	r0, r5, r0, lsl #3
 5386 038c C0B2     		uxtb	r0, r0
 5387 038e 87F83806 		strb	r0, [r7, #1592]
 5388              		.loc 1 1373 0
 5389 0392 2368     		ldr	r3, [r4]
 5390              	.LBB204:
 5391              	.LBB205:
 5392              		.loc 1 993 0
 5393 0394 7D4A     		ldr	r2, .L688+60
 5394              	.LBE205:
 5395              	.LBE204:
 5396              		.loc 1 1373 0
 5397 0396 0133     		adds	r3, r3, #1
 5398 0398 2360     		str	r3, [r4]
 5399              	.LBB207:
 5400              	.LBB206:
 5401              		.loc 1 993 0
 5402 039a 1368     		ldr	r3, [r2]	@ float
 5403              	.LBE206:
 5404              	.LBE207:
 5405              		.loc 1 1375 0
 5406 039c 1360     		str	r3, [r2]	@ float
 5407              	.L575:
 5408              	.LBE203:
 5409              	.LBE202:
 5410              		.loc 1 1378 0
 5411 039e 03B0     		add	sp, sp, #12
 5412              		.cfi_remember_state
 5413              		.cfi_def_cfa_offset 44
 5414              		@ sp needed
 5415 03a0 BDEC048B 		vldm	sp!, {d8-d9}
ARM GAS  /var/folders/sv/kgmgr77579zbf78p2zlhkdfr0000gn/T//ccOxe4My.s 			page 96


 5416              		.cfi_restore 82
 5417              		.cfi_restore 83
 5418              		.cfi_restore 80
 5419              		.cfi_restore 81
 5420              		.cfi_def_cfa_offset 28
 5421              	.LVL432:
 5422 03a4 BDE8F083 		pop	{r4, r5, r6, r7, r8, r9, pc}
 5423              	.LVL433:
 5424              	.L586:
 5425              		.cfi_restore_state
 5426              		.loc 1 1199 0
 5427 03a8 B0EEC99A 		vabs.f32	s18, s18
 5428              	.LVL434:
 5429 03ac B4EEE79A 		vcmpe.f32	s18, s15
 5430 03b0 F1EE10FA 		vmrs	APSR_nzcv, FPSCR
 5431 03b4 7FF7C4AE 		ble	.L587
 5432              	.LVL435:
 5433              	.LBB210:
 5434              	.LBB183:
 5435              		.loc 1 1087 0
 5436 03b8 754A     		ldr	r2, .L688+64
 5437 03ba 1278     		ldrb	r2, [r2]	@ zero_extendqisi2
 5438 03bc 042A     		cmp	r2, #4
 5439 03be 7FF4BCAE 		bne	.L589
 5440 03c2 69E0     		b	.L674
 5441              	.LVL436:
 5442              	.L671:
 5443              	.LBE183:
 5444              	.LBE210:
 5445              		.loc 1 1156 0
 5446 03c4 D5ED0B7A 		vldr.32	s15, [r5, #44]
 5447              	.LBB211:
 5448              	.LBB212:
 5449              		.loc 1 1087 0
 5450 03c8 714B     		ldr	r3, .L688+64
 5451              	.LBE212:
 5452              	.LBE211:
 5453              		.loc 1 1156 0
 5454 03ca B4EEE78A 		vcmpe.f32	s16, s15
 5455 03ce F1EE10FA 		vmrs	APSR_nzcv, FPSCR
 5456              	.LBB216:
 5457              	.LBB213:
 5458              		.loc 1 1087 0
 5459 03d2 1B78     		ldrb	r3, [r3]	@ zero_extendqisi2
 5460              	.LBE213:
 5461              	.LBE216:
 5462              		.loc 1 1156 0
 5463 03d4 4CBF     		ite	mi
 5464 03d6 0220     		movmi	r0, #2
 5465 03d8 0120     		movpl	r0, #1
 5466              	.LVL437:
 5467              	.LBB217:
 5468              	.LBB214:
 5469              		.loc 1 1087 0
 5470 03da 8342     		cmp	r3, r0
 5471 03dc 69D0     		beq	.L680
 5472 03de FFF7FEFF 		bl	mc_interface_fault_stop.part.4
ARM GAS  /var/folders/sv/kgmgr77579zbf78p2zlhkdfr0000gn/T//ccOxe4My.s 			page 97


 5473              	.LVL438:
 5474              	.LBE214:
 5475              	.LBE217:
 5476              		.loc 1 1163 0
 5477 03e2 FFF7FEFF 		bl	mc_interface_get_state
 5478              	.LVL439:
 5479 03e6 0228     		cmp	r0, #2
 5480 03e8 7FF43CAE 		bne	.L582
 5481              	.L672:
 5482              		.loc 1 1164 0
 5483 03ec 694A     		ldr	r2, .L688+68
 5484 03ee 1368     		ldr	r3, [r2]
 5485 03f0 0133     		adds	r3, r3, #1
 5486 03f2 1360     		str	r3, [r2]
 5487 03f4 39E6     		b	.L583
 5488              	.L658:
 5489              		.loc 1 1160 0
 5490 03f6 684B     		ldr	r3, .L688+72
 5491 03f8 0022     		movs	r2, #0
 5492 03fa 1A60     		str	r2, [r3]
 5493 03fc 2DE6     		b	.L579
 5494              	.LVL440:
 5495              	.L607:
 5496              	.LBB218:
 5497              		.loc 1 1297 0
 5498 03fe DFF8B481 		ldr	r8, .L688+100
 5499 0402 D8F80030 		ldr	r3, [r8]
 5500 0406 002B     		cmp	r3, #0
 5501 0408 5BDB     		blt	.L639
 5502              		.loc 1 1298 0
 5503 040a 514A     		ldr	r2, .L688
 5504 040c D8F80030 		ldr	r3, [r8]
 5505 0410 1268     		ldr	r2, [r2]
 5506              	.LVL441:
 5507              		.loc 1 1299 0
 5508 0412 9B1A     		subs	r3, r3, r2
 5509              	.LVL442:
 5510 0414 00F17681 		bmi	.L681
 5511              	.LVL443:
 5512              	.L619:
 5513              		.loc 1 1304 0
 5514 0418 4E4C     		ldr	r4, .L688+4
 5515 041a 2268     		ldr	r2, [r4]
 5516 041c 9342     		cmp	r3, r2
 5517 041e 00F0CD80 		beq	.L682
 5518              		.loc 1 1317 0
 5519 0422 5B4B     		ldr	r3, .L688+64
 5520              	.LVL444:
 5521 0424 1B78     		ldrb	r3, [r3]	@ zero_extendqisi2
 5522 0426 002B     		cmp	r3, #0
 5523 0428 3FF42AAF 		beq	.L623
 5524              	.LVL445:
 5525              	.L632:
 5526 042c D8F80030 		ldr	r3, [r8]
 5527 0430 002B     		cmp	r3, #0
 5528 0432 BFF625AF 		bge	.L623
 5529              		.loc 1 1294 0
ARM GAS  /var/folders/sv/kgmgr77579zbf78p2zlhkdfr0000gn/T//ccOxe4My.s 			page 98


 5530 0436 4FF00109 		mov	r9, #1
 5531              	.LVL446:
 5532              	.L635:
 5533              		.loc 1 1318 0
 5534 043a 2368     		ldr	r3, [r4]
 5535 043c C8F80030 		str	r3, [r8]
 5536              	.LBE218:
 5537              		.loc 1 1326 0
 5538 0440 B9F1000F 		cmp	r9, #0
 5539 0444 ABD0     		beq	.L575
 5540 0446 1BE7     		b	.L623
 5541              	.LVL447:
 5542              	.L603:
 5543              		.loc 1 1237 0
 5544 0448 424C     		ldr	r4, .L688+4
 5545 044a 414B     		ldr	r3, .L688
 5546 044c 2268     		ldr	r2, [r4]
 5547 044e 1B68     		ldr	r3, [r3]
 5548 0450 9A42     		cmp	r2, r3
 5549 0452 7FF415AF 		bne	.L623
 5550              		.loc 1 1239 0
 5551 0456 514A     		ldr	r2, .L688+76
 5552              		.loc 1 1238 0
 5553 0458 0024     		movs	r4, #0
 5554              		.loc 1 1239 0
 5555 045a 0121     		movs	r1, #1
 5556              		.loc 1 1238 0
 5557 045c 3C70     		strb	r4, [r7]
 5558              	.LBB229:
 5559              	.LBB230:
 5560              	.LBB231:
 5561              	.LBB232:
 5562              	.LBB233:
 5563              		.file 3 "ChibiOS_3.0.2/os/ext/CMSIS/include/core_cmFunc.h"
 5564              		.loc 3 546 0
 5565 045e 2023     		movs	r3, #32
 5566              	.LBE233:
 5567              	.LBE232:
 5568              	.LBE231:
 5569              	.LBE230:
 5570              	.LBE229:
 5571              		.loc 1 1239 0
 5572 0460 1170     		strb	r1, [r2]
 5573              	.LVL448:
 5574              	.LBB238:
 5575              	.LBB237:
 5576              	.LBB236:
 5577              	.LBB235:
 5578              	.LBB234:
 5579              		.loc 3 546 0
 5580              		.syntax unified
 5581              	@ 546 "ChibiOS_3.0.2/os/ext/CMSIS/include/core_cmFunc.h" 1
 5582 0462 83F31188 		MSR basepri, r3
 5583              	@ 0 "" 2
 5584              	.LVL449:
 5585              		.thumb
 5586              		.syntax unified
ARM GAS  /var/folders/sv/kgmgr77579zbf78p2zlhkdfr0000gn/T//ccOxe4My.s 			page 99


 5587              	.LBE234:
 5588              	.LBE235:
 5589              	.LBE236:
 5590              	.LBE237:
 5591              	.LBE238:
 5592              		.loc 1 1241 0
 5593 0466 4E4B     		ldr	r3, .L688+80
 5594 0468 1868     		ldr	r0, [r3]
 5595 046a FFF7FEFF 		bl	chEvtSignalI
 5596              	.LVL450:
 5597              	.LBB239:
 5598              	.LBB240:
 5599              	.LBB241:
 5600              	.LBB242:
 5601              	.LBB243:
 5602              		.loc 3 546 0
 5603              		.syntax unified
 5604              	@ 546 "ChibiOS_3.0.2/os/ext/CMSIS/include/core_cmFunc.h" 1
 5605 046e 84F31188 		MSR basepri, r4
 5606              	@ 0 "" 2
 5607              	.LVL451:
 5608              		.thumb
 5609              		.syntax unified
 5610 0472 94E7     		b	.L575
 5611              	.LVL452:
 5612              	.L605:
 5613              	.LBE243:
 5614              	.LBE242:
 5615              	.LBE241:
 5616              	.LBE240:
 5617              	.LBE239:
 5618              		.loc 1 1249 0
 5619 0474 FFF7FEFF 		bl	mc_interface_get_state
 5620              	.LVL453:
 5621 0478 0228     		cmp	r0, #2
 5622 047a 364C     		ldr	r4, .L688+4
 5623 047c 03D0     		beq	.L611
 5624              		.loc 1 1249 0 is_stmt 0 discriminator 1
 5625 047e 2368     		ldr	r3, [r4]
 5626 0480 002B     		cmp	r3, #0
 5627 0482 40F34281 		ble	.L683
 5628              	.L611:
 5629              	.LVL454:
 5630              		.loc 1 1253 0 is_stmt 1
 5631 0486 324B     		ldr	r3, .L688
 5632 0488 2268     		ldr	r2, [r4]
 5633 048a 1B68     		ldr	r3, [r3]
 5634 048c 9A42     		cmp	r2, r3
 5635 048e 7FF4F7AE 		bne	.L623
 5636 0492 4FF00109 		mov	r9, #1
 5637 0496 40E1     		b	.L630
 5638              	.LVL455:
 5639              	.L674:
 5640              	.LBB244:
 5641              	.LBB184:
 5642              		.loc 1 1088 0
 5643 0498 424A     		ldr	r2, .L688+84
ARM GAS  /var/folders/sv/kgmgr77579zbf78p2zlhkdfr0000gn/T//ccOxe4My.s 			page 100


 5644 049a D3F84C31 		ldr	r3, [r3, #332]
 5645 049e 1360     		str	r3, [r2]
 5646              	.LBE184:
 5647              	.LBE244:
 5648              		.loc 1 1205 0
 5649 04a0 414B     		ldr	r3, .L688+88
 5650 04a2 1B69     		ldr	r3, [r3, #16]
 5651 04a4 DA04     		lsls	r2, r3, #19
 5652 04a6 3FF558AE 		bmi	.L593
 5653              	.LVL456:
 5654              	.L594:
 5655              	.LBB245:
 5656              	.LBB189:
 5657 04aa 0320     		movs	r0, #3
 5658 04ac FFF7FEFF 		bl	mc_interface_fault_stop.part.4
 5659              	.LVL457:
 5660 04b0 53E6     		b	.L593
 5661              	.LVL458:
 5662              	.L680:
 5663              	.LBE189:
 5664              	.LBE245:
 5665              	.LBB246:
 5666              	.LBB215:
 5667              		.loc 1 1088 0
 5668 04b2 3C4B     		ldr	r3, .L688+84
 5669 04b4 D5F84C21 		ldr	r2, [r5, #332]
 5670 04b8 1A60     		str	r2, [r3]
 5671 04ba CEE5     		b	.L579
 5672              	.LVL459:
 5673              	.L638:
 5674              	.LBE215:
 5675              	.LBE246:
 5676              	.LBB247:
 5677              		.loc 1 1266 0
 5678 04bc 4FF0FF33 		mov	r3, #-1
 5679 04c0 D4E6     		b	.L614
 5680              	.LVL460:
 5681              	.L639:
 5682              	.LBE247:
 5683              	.LBB248:
 5684              		.loc 1 1296 0
 5685 04c2 4FF0FF33 		mov	r3, #-1
 5686 04c6 A7E7     		b	.L619
 5687              	.LVL461:
 5688              	.L673:
 5689              	.LBE248:
 5690              		.loc 1 1189 0
 5691 04c8 FFF7FEFF 		bl	mcpwm_foc_get_abs_motor_current
 5692              	.LVL462:
 5693 04cc B0EE409A 		vmov.f32	s18, s0
 5694              	.LVL463:
 5695              		.loc 1 1190 0
 5696 04d0 FFF7FEFF 		bl	mcpwm_foc_get_abs_motor_current_filtered
 5697              	.LVL464:
 5698 04d4 1DE6     		b	.L585
 5699              	.LVL465:
 5700              	.L659:
ARM GAS  /var/folders/sv/kgmgr77579zbf78p2zlhkdfr0000gn/T//ccOxe4My.s 			page 101


 5701              	.LBB249:
 5702              		.loc 1 1224 0
 5703 04d6 3548     		ldr	r0, .L688+92
 5704              		.loc 1 1225 0
 5705 04d8 3549     		ldr	r1, .L688+96
 5706              		.loc 1 1224 0
 5707 04da 90ED007A 		vldr.32	s14, [r0]
 5708 04de 37EE677A 		vsub.f32	s14, s14, s15
 5709 04e2 80ED007A 		vstr.32	s14, [r0]
 5710              		.loc 1 1225 0
 5711 04e6 91ED007A 		vldr.32	s14, [r1]
 5712 04ea A8EE677A 		vfms.f32	s14, s16, s15
 5713 04ee 81ED007A 		vstr.32	s14, [r1]
 5714 04f2 6CE6     		b	.L601
 5715              	.LVL466:
 5716              	.L678:
 5717              	.LBE249:
 5718              	.LBB250:
 5719              	.LBB208:
 5720              		.loc 1 1345 0
 5721 04f4 B088     		ldrh	r0, [r6, #4]
 5722 04f6 7588     		ldrh	r5, [r6, #2]
 5723 04f8 3288     		ldrh	r2, [r6]
 5724              		.loc 1 1346 0
 5725 04fa 1B4F     		ldr	r7, .L688+24
 5726 04fc 2168     		ldr	r1, [r4]
 5727              		.loc 1 1345 0
 5728 04fe ADB2     		uxth	r5, r5
 5729 0500 15FA80F5 		uxtah	r5, r5, r0
 5730 0504 15FA82F5 		uxtah	r5, r5, r2
 5731 0508 03F15533 		add	r3, r3, #1431655765
 5732 050c 83FB0523 		smull	r2, r3, r3, r5
 5733              		.loc 1 1346 0
 5734 0510 7A18     		adds	r2, r7, r1
 5735              		.loc 1 1345 0
 5736 0512 A3EBE575 		sub	r5, r3, r5, asr #31
 5737              		.loc 1 1346 0
 5738 0516 0023     		movs	r3, #0
 5739              		.loc 1 1345 0
 5740 0518 2DB2     		sxth	r5, r5
 5741              	.LVL467:
 5742              		.loc 1 1346 0
 5743 051a 82F8083E 		strb	r3, [r2, #3592]
 5744 051e D2E6     		b	.L626
 5745              	.LVL468:
 5746              	.L676:
 5747              	.LBE208:
 5748              	.LBE250:
 5749              	.LBB251:
 5750              		.loc 1 1275 0
 5751 0520 3B78     		ldrb	r3, [r7]	@ zero_extendqisi2
 5752              	.LVL469:
 5753 0522 1E4A     		ldr	r2, .L688+76
 5754 0524 DBB2     		uxtb	r3, r3
 5755 0526 1370     		strb	r3, [r2]
 5756              	.LVL470:
 5757              		.loc 1 1278 0
ARM GAS  /var/folders/sv/kgmgr77579zbf78p2zlhkdfr0000gn/T//ccOxe4My.s 			page 102


 5758 0528 3B78     		ldrb	r3, [r7]	@ zero_extendqisi2
 5759 052a 032B     		cmp	r3, #3
 5760 052c 00F0DB80 		beq	.L684
 5761              	.LVL471:
 5762              	.L616:
 5763              		.loc 1 1284 0
 5764 0530 4FF00009 		mov	r9, #0
 5765 0534 87F80090 		strb	r9, [r7]
 5766              		.loc 1 1287 0
 5767 0538 FFF7FEFF 		bl	mc_interface_get_state
 5768              	.LVL472:
 5769 053c 0228     		cmp	r0, #2
 5770 053e 7FF42EAF 		bne	.L575
 5771              	.L622:
 5772              	.LBE251:
 5773              	.LBB252:
 5774              		.loc 1 1317 0
 5775 0542 D8F80030 		ldr	r3, [r8]
 5776 0546 002B     		cmp	r3, #0
 5777 0548 BFF629AF 		bge	.L575
 5778 054c 75E7     		b	.L635
 5779              	.L689:
 5780 054e 00BF     		.align	2
 5781              	.L688:
 5782 0550 00000000 		.word	.LANCHOR2
 5783 0554 00000000 		.word	.LANCHOR35
 5784 0558 00000000 		.word	.LANCHOR45
 5785 055c 00000000 		.word	.LANCHOR34
 5786 0560 00000000 		.word	.LANCHOR12
 5787 0564 00000000 		.word	mcpwm_vzero
 5788 0568 C8760000 		.word	.LANCHOR11
 5789 056c 00000000 		.word	.LANCHOR46
 5790 0570 00000000 		.word	.LANCHOR4
 5791 0574 F8100000 		.word	.LANCHOR5
 5792 0578 E8320000 		.word	.LANCHOR7
 5793 057c E0430000 		.word	.LANCHOR8
 5794 0580 D8540000 		.word	.LANCHOR9
 5795 0584 D0650000 		.word	.LANCHOR10
 5796 0588 A48BC642 		.word	1120308132
 5797 058c 00000000 		.word	.LANCHOR31
 5798 0590 00000000 		.word	.LANCHOR13
 5799 0594 00000000 		.word	.LANCHOR15
 5800 0598 00000000 		.word	.LANCHOR42
 5801 059c 00000000 		.word	.LANCHOR1
 5802 05a0 00000000 		.word	.LANCHOR0
 5803 05a4 00000000 		.word	.LANCHOR14
 5804 05a8 00080240 		.word	1073874944
 5805 05ac 00000000 		.word	.LANCHOR27
 5806 05b0 00000000 		.word	.LANCHOR29
 5807 05b4 00000000 		.word	.LANCHOR3
 5808 05b8 F0210000 		.word	.LANCHOR6
 5809              	.LVL473:
 5810              	.L682:
 5811              		.loc 1 1305 0
 5812 05bc 3B78     		ldrb	r3, [r7]	@ zero_extendqisi2
 5813              	.LVL474:
 5814 05be 624A     		ldr	r2, .L690
ARM GAS  /var/folders/sv/kgmgr77579zbf78p2zlhkdfr0000gn/T//ccOxe4My.s 			page 103


 5815 05c0 DBB2     		uxtb	r3, r3
 5816 05c2 1370     		strb	r3, [r2]
 5817              	.LVL475:
 5818              		.loc 1 1308 0
 5819 05c4 3B78     		ldrb	r3, [r7]	@ zero_extendqisi2
 5820 05c6 042B     		cmp	r3, #4
 5821 05c8 00F08180 		beq	.L685
 5822              	.LVL476:
 5823              	.L621:
 5824              		.loc 1 1317 0
 5825 05cc 5F4B     		ldr	r3, .L690+4
 5826 05ce 1B78     		ldrb	r3, [r3]	@ zero_extendqisi2
 5827              		.loc 1 1314 0
 5828 05d0 4FF00009 		mov	r9, #0
 5829 05d4 87F80090 		strb	r9, [r7]
 5830              		.loc 1 1317 0
 5831 05d8 002B     		cmp	r3, #0
 5832 05da B2D1     		bne	.L622
 5833 05dc DFE6     		b	.L575
 5834              	.LVL477:
 5835              	.L677:
 5836              	.LBE252:
 5837              	.LBB253:
 5838              	.LBB209:
 5839              		.loc 1 1339 0
 5840 05de B188     		ldrh	r1, [r6, #4]
 5841 05e0 7588     		ldrh	r5, [r6, #2]
 5842 05e2 3288     		ldrh	r2, [r6]
 5843 05e4 5A4B     		ldr	r3, .L690+8
 5844              		.loc 1 1340 0
 5845 05e6 D4F80080 		ldr	r8, [r4]
 5846 05ea 5A4F     		ldr	r7, .L690+12
 5847              		.loc 1 1339 0
 5848 05ec ADB2     		uxth	r5, r5
 5849 05ee 15FA81F5 		uxtah	r5, r5, r1
 5850 05f2 15FA82F5 		uxtah	r5, r5, r2
 5851 05f6 83FB0523 		smull	r2, r3, r3, r5
 5852 05fa A3EBE575 		sub	r5, r3, r5, asr #31
 5853              		.loc 1 1340 0
 5854 05fe FFF7FEFF 		bl	mcpwm_foc_get_phase
 5855              	.LVL478:
 5856 0602 9FED557A 		vldr.32	s14, .L690+16
 5857 0606 DFED557A 		vldr.32	s15, .L690+20
 5858 060a 80EE070A 		vdiv.f32	s0, s0, s14
 5859 060e B844     		add	r8, r8, r7
 5860              		.loc 1 1339 0
 5861 0610 2DB2     		sxth	r5, r5
 5862              	.LVL479:
 5863              		.loc 1 1340 0
 5864 0612 20EE270A 		vmul.f32	s0, s0, s15
 5865 0616 FCEEC07A 		vcvt.u32.f32	s15, s0
 5866 061a CDED007A 		vstr.32	s15, [sp]	@ int
 5867 061e 9DF90030 		ldrsb	r3, [sp]
 5868 0622 88F8083E 		strb	r3, [r8, #3592]
 5869 0626 4EE6     		b	.L626
 5870              	.L679:
 5871              		.loc 1 1353 0
ARM GAS  /var/folders/sv/kgmgr77579zbf78p2zlhkdfr0000gn/T//ccOxe4My.s 			page 104


 5872 0628 D4F80080 		ldr	r8, [r4]
 5873 062c 4C4E     		ldr	r6, .L690+24
 5874 062e FFF7FEFF 		bl	mcpwm_get_comm_step
 5875              	.LVL480:
 5876 0632 4C4B     		ldr	r3, .L690+28
 5877 0634 0138     		subs	r0, r0, #1
 5878 0636 03EB8003 		add	r3, r3, r0, lsl #2
 5879 063a D3ED007A 		vldr.32	s15, [r3]
 5880 063e FDEEE77A 		vcvt.s32.f32	s15, s15
 5881 0642 CDED007A 		vstr.32	s15, [sp]	@ int
 5882 0646 BDF90030 		ldrsh	r3, [sp]
 5883 064a 26F81830 		strh	r3, [r6, r8, lsl #1]	@ movhi
 5884              		.loc 1 1354 0
 5885 064e D4F80080 		ldr	r8, [r4]
 5886 0652 FFF7FEFF 		bl	mcpwm_get_comm_step
 5887              	.LVL481:
 5888 0656 444B     		ldr	r3, .L690+32
 5889              		.loc 1 1356 0
 5890 0658 444A     		ldr	r2, .L690+36
 5891              		.loc 1 1357 0
 5892 065a 4549     		ldr	r1, .L690+40
 5893              		.loc 1 1354 0
 5894 065c 0138     		subs	r0, r0, #1
 5895 065e 03EB8003 		add	r3, r3, r0, lsl #2
 5896 0662 D3ED007A 		vldr.32	s15, [r3]
 5897              		.loc 1 1356 0
 5898 0666 4348     		ldr	r0, .L690+44
 5899              		.loc 1 1354 0
 5900 0668 FDEEE77A 		vcvt.s32.f32	s15, s15
 5901 066c 06EB4806 		add	r6, r6, r8, lsl #1
 5902 0670 CDED007A 		vstr.32	s15, [sp]	@ int
 5903 0674 BDF90030 		ldrsh	r3, [sp]
 5904 0678 A6F8A03F 		strh	r3, [r6, #4000]	@ movhi
 5905              		.loc 1 1356 0
 5906 067c 2668     		ldr	r6, [r4]
 5907 067e D2ED007A 		vldr.32	s15, [r2]
 5908              		.loc 1 1358 0
 5909 0682 3D4B     		ldr	r3, .L690+48
 5910              		.loc 1 1356 0
 5911 0684 FDEEE77A 		vcvt.s32.f32	s15, s15
 5912 0688 00EB4600 		add	r0, r0, r6, lsl #1
 5913 068c CDED007A 		vstr.32	s15, [sp]	@ int
 5914 0690 BDF90060 		ldrsh	r6, [sp]
 5915 0694 A0F8486E 		strh	r6, [r0, #3656]	@ movhi
 5916              		.loc 1 1357 0
 5917 0698 2068     		ldr	r0, [r4]
 5918 069a D2ED017A 		vldr.32	s15, [r2, #4]
 5919 069e FDEEE77A 		vcvt.s32.f32	s15, s15
 5920 06a2 01EB4001 		add	r1, r1, r0, lsl #1
 5921 06a6 CDED007A 		vstr.32	s15, [sp]	@ int
 5922 06aa BDF90000 		ldrsh	r0, [sp]
 5923 06ae A1F8F00C 		strh	r0, [r1, #3312]	@ movhi
 5924              		.loc 1 1358 0
 5925 06b2 2168     		ldr	r1, [r4]
 5926 06b4 D2ED027A 		vldr.32	s15, [r2, #8]
 5927 06b8 FDEEE77A 		vcvt.s32.f32	s15, s15
 5928 06bc 03EB4103 		add	r3, r3, r1, lsl #1
ARM GAS  /var/folders/sv/kgmgr77579zbf78p2zlhkdfr0000gn/T//ccOxe4My.s 			page 105


 5929 06c0 CDED007A 		vstr.32	s15, [sp]	@ int
 5930 06c4 BDF90020 		ldrsh	r2, [sp]
 5931 06c8 A3F8982B 		strh	r2, [r3, #2968]	@ movhi
 5932 06cc 2DE6     		b	.L629
 5933              	.LVL482:
 5934              	.L685:
 5935              	.LBE209:
 5936              	.LBE253:
 5937              	.LBB254:
 5938              	.LBB219:
 5939              	.LBB220:
 5940              	.LBB221:
 5941              	.LBB222:
 5942              	.LBB223:
 5943              		.loc 3 546 0
 5944 06ce 2023     		movs	r3, #32
 5945              		.syntax unified
 5946              	@ 546 "ChibiOS_3.0.2/os/ext/CMSIS/include/core_cmFunc.h" 1
 5947 06d0 83F31188 		MSR basepri, r3
 5948              	@ 0 "" 2
 5949              	.LVL483:
 5950              		.thumb
 5951              		.syntax unified
 5952              	.LBE223:
 5953              	.LBE222:
 5954              	.LBE221:
 5955              	.LBE220:
 5956              	.LBE219:
 5957              		.loc 1 1310 0
 5958 06d4 294B     		ldr	r3, .L690+52
 5959 06d6 0121     		movs	r1, #1
 5960 06d8 1868     		ldr	r0, [r3]
 5961 06da FFF7FEFF 		bl	chEvtSignalI
 5962              	.LVL484:
 5963              	.LBB224:
 5964              	.LBB225:
 5965              	.LBB226:
 5966              	.LBB227:
 5967              	.LBB228:
 5968              		.loc 3 546 0
 5969 06de 0023     		movs	r3, #0
 5970              		.syntax unified
 5971              	@ 546 "ChibiOS_3.0.2/os/ext/CMSIS/include/core_cmFunc.h" 1
 5972 06e0 83F31188 		MSR basepri, r3
 5973              	@ 0 "" 2
 5974              	.LVL485:
 5975              		.thumb
 5976              		.syntax unified
 5977 06e4 72E7     		b	.L621
 5978              	.LVL486:
 5979              	.L684:
 5980              	.LBE228:
 5981              	.LBE227:
 5982              	.LBE226:
 5983              	.LBE225:
 5984              	.LBE224:
 5985              	.LBE254:
ARM GAS  /var/folders/sv/kgmgr77579zbf78p2zlhkdfr0000gn/T//ccOxe4My.s 			page 106


 5986              	.LBB255:
 5987              	.LBB192:
 5988              	.LBB193:
 5989              	.LBB194:
 5990              	.LBB195:
 5991              	.LBB196:
 5992 06e6 2023     		movs	r3, #32
 5993              		.syntax unified
 5994              	@ 546 "ChibiOS_3.0.2/os/ext/CMSIS/include/core_cmFunc.h" 1
 5995 06e8 83F31188 		MSR basepri, r3
 5996              	@ 0 "" 2
 5997              	.LVL487:
 5998              		.thumb
 5999              		.syntax unified
 6000              	.LBE196:
 6001              	.LBE195:
 6002              	.LBE194:
 6003              	.LBE193:
 6004              	.LBE192:
 6005              		.loc 1 1280 0
 6006 06ec 234B     		ldr	r3, .L690+52
 6007 06ee 0121     		movs	r1, #1
 6008 06f0 1868     		ldr	r0, [r3]
 6009 06f2 FFF7FEFF 		bl	chEvtSignalI
 6010              	.LVL488:
 6011              	.LBB197:
 6012              	.LBB198:
 6013              	.LBB199:
 6014              	.LBB200:
 6015              	.LBB201:
 6016              		.loc 3 546 0
 6017 06f6 0023     		movs	r3, #0
 6018              		.syntax unified
 6019              	@ 546 "ChibiOS_3.0.2/os/ext/CMSIS/include/core_cmFunc.h" 1
 6020 06f8 83F31188 		MSR basepri, r3
 6021              	@ 0 "" 2
 6022              	.LVL489:
 6023              		.thumb
 6024              		.syntax unified
 6025 06fc 18E7     		b	.L616
 6026              	.LVL490:
 6027              	.L675:
 6028              	.LBE201:
 6029              	.LBE200:
 6030              	.LBE199:
 6031              	.LBE198:
 6032              	.LBE197:
 6033              		.loc 1 1270 0
 6034 06fe 03F5FA63 		add	r3, r3, #2000
 6035              	.LVL491:
 6036 0702 B3E5     		b	.L614
 6037              	.LVL492:
 6038              	.L681:
 6039              	.LBE255:
 6040              	.LBB256:
 6041              		.loc 1 1300 0
 6042 0704 03F5FA63 		add	r3, r3, #2000
ARM GAS  /var/folders/sv/kgmgr77579zbf78p2zlhkdfr0000gn/T//ccOxe4My.s 			page 107


 6043              	.LVL493:
 6044 0708 86E6     		b	.L619
 6045              	.LVL494:
 6046              	.L683:
 6047              	.LBE256:
 6048              		.loc 1 1253 0
 6049 070a 1D4A     		ldr	r2, .L690+56
 6050 070c 2368     		ldr	r3, [r4]
 6051 070e 1268     		ldr	r2, [r2]
 6052 0710 9A42     		cmp	r2, r3
 6053 0712 7FF444AE 		bne	.L575
 6054              		.loc 1 1233 0
 6055 0716 4FF00009 		mov	r9, #0
 6056              	.LVL495:
 6057              	.L630:
 6058              		.loc 1 1254 0
 6059 071a 3B78     		ldrb	r3, [r7]	@ zero_extendqisi2
 6060 071c 0A4A     		ldr	r2, .L690
 6061 071e DBB2     		uxtb	r3, r3
 6062              		.loc 1 1255 0
 6063 0720 4FF00008 		mov	r8, #0
 6064              		.loc 1 1254 0
 6065 0724 1370     		strb	r3, [r2]
 6066              	.LBB257:
 6067              	.LBB258:
 6068              	.LBB259:
 6069              	.LBB260:
 6070              	.LBB261:
 6071              		.loc 3 546 0
 6072 0726 2023     		movs	r3, #32
 6073              	.LBE261:
 6074              	.LBE260:
 6075              	.LBE259:
 6076              	.LBE258:
 6077              	.LBE257:
 6078              		.loc 1 1255 0
 6079 0728 87F80080 		strb	r8, [r7]
 6080              	.LVL496:
 6081              	.LBB266:
 6082              	.LBB265:
 6083              	.LBB264:
 6084              	.LBB263:
 6085              	.LBB262:
 6086              		.loc 3 546 0
 6087              		.syntax unified
 6088              	@ 546 "ChibiOS_3.0.2/os/ext/CMSIS/include/core_cmFunc.h" 1
 6089 072c 83F31188 		MSR basepri, r3
 6090              	@ 0 "" 2
 6091              	.LVL497:
 6092              		.thumb
 6093              		.syntax unified
 6094              	.LBE262:
 6095              	.LBE263:
 6096              	.LBE264:
 6097              	.LBE265:
 6098              	.LBE266:
 6099              		.loc 1 1257 0
ARM GAS  /var/folders/sv/kgmgr77579zbf78p2zlhkdfr0000gn/T//ccOxe4My.s 			page 108


 6100 0730 124B     		ldr	r3, .L690+52
 6101 0732 0121     		movs	r1, #1
 6102 0734 1868     		ldr	r0, [r3]
 6103 0736 FFF7FEFF 		bl	chEvtSignalI
 6104              	.LVL498:
 6105              	.LBB267:
 6106              	.LBB268:
 6107              	.LBB269:
 6108              	.LBB270:
 6109              	.LBB271:
 6110              		.loc 3 546 0
 6111              		.syntax unified
 6112              	@ 546 "ChibiOS_3.0.2/os/ext/CMSIS/include/core_cmFunc.h" 1
 6113 073a 88F31188 		MSR basepri, r8
 6114              	@ 0 "" 2
 6115              	.LVL499:
 6116              		.thumb
 6117              		.syntax unified
 6118              	.LBE271:
 6119              	.LBE270:
 6120              	.LBE269:
 6121              	.LBE268:
 6122              	.LBE267:
 6123              		.loc 1 1326 0
 6124 073e B9F1000F 		cmp	r9, #0
 6125 0742 3FF42CAE 		beq	.L575
 6126 0746 9BE5     		b	.L623
 6127              	.L691:
 6128              		.align	2
 6129              	.L690:
 6130 0748 00000000 		.word	.LANCHOR1
 6131 074c 00000000 		.word	.LANCHOR13
 6132 0750 56555555 		.word	1431655766
 6133 0754 C8760000 		.word	.LANCHOR11
 6134 0758 0000B443 		.word	1135869952
 6135 075c 00007A43 		.word	1132068864
 6136 0760 00000000 		.word	.LANCHOR4
 6137 0764 00000000 		.word	mcpwm_detect_currents
 6138 0768 00000000 		.word	mcpwm_detect_currents_diff
 6139 076c 00000000 		.word	mcpwm_detect_voltages
 6140 0770 F0210000 		.word	.LANCHOR6
 6141 0774 F8100000 		.word	.LANCHOR5
 6142 0778 E8320000 		.word	.LANCHOR7
 6143 077c 00000000 		.word	.LANCHOR0
 6144 0780 00000000 		.word	.LANCHOR2
 6145              		.cfi_endproc
 6146              	.LFE308:
 6147              		.size	mc_interface_mc_timer_isr, .-mc_interface_mc_timer_isr
 6148              		.section	.text.mc_interface_adc_inj_int_handler,"ax",%progbits
 6149              		.align	2
 6150              		.p2align 4,,15
 6151              		.global	mc_interface_adc_inj_int_handler
 6152              		.thumb
 6153              		.thumb_func
 6154              		.type	mc_interface_adc_inj_int_handler, %function
 6155              	mc_interface_adc_inj_int_handler:
 6156              	.LFB309:
ARM GAS  /var/folders/sv/kgmgr77579zbf78p2zlhkdfr0000gn/T//ccOxe4My.s 			page 109


 6157              		.loc 1 1380 0
 6158              		.cfi_startproc
 6159              		@ args = 0, pretend = 0, frame = 0
 6160              		@ frame_needed = 0, uses_anonymous_args = 0
 6161              		@ link register save eliminated.
 6162              		.loc 1 1381 0
 6163 0000 044B     		ldr	r3, .L702
 6164 0002 9B78     		ldrb	r3, [r3, #2]	@ zero_extendqisi2
 6165 0004 03F0FF02 		and	r2, r3, #255
 6166 0008 13B1     		cbz	r3, .L694
 6167 000a 022A     		cmp	r2, #2
 6168 000c 00D0     		beq	.L694
 6169 000e 7047     		bx	lr
 6170              	.L694:
 6171              		.loc 1 1384 0
 6172 0010 FFF7FEBF 		b	mcpwm_adc_inj_int_handler
 6173              	.LVL500:
 6174              	.L703:
 6175              		.align	2
 6176              	.L702:
 6177 0014 00000000 		.word	.LANCHOR12
 6178              		.cfi_endproc
 6179              	.LFE309:
 6180              		.size	mc_interface_adc_inj_int_handler, .-mc_interface_adc_inj_int_handler
 6181              		.global	ADC_curr_norm_value
 6182              		.global	ADC_Value
 6183              		.section	.rodata.CSWTCH.203,"a",%progbits
 6184              		.align	2
 6185              		.set	.LANCHOR40,. + 0
 6186              		.type	CSWTCH.203, %object
 6187              		.size	CSWTCH.203, 28
 6188              	CSWTCH.203:
 6189 0000 2C000000 		.word	.LC3
 6190 0004 3C000000 		.word	.LC4
 6191 0008 54000000 		.word	.LC5
 6192 000c 70000000 		.word	.LC6
 6193 0010 80000000 		.word	.LC7
 6194 0014 9C000000 		.word	.LC8
 6195 0018 B8000000 		.word	.LC9
 6196              		.section	.bss.m_sample_trigger,"aw",%nobits
 6197              		.align	2
 6198              		.set	.LANCHOR3,. + 0
 6199              		.type	m_sample_trigger, %object
 6200              		.size	m_sample_trigger, 4
 6201              	m_sample_trigger:
 6202 0000 00000000 		.space	4
 6203              		.section	.bss.m_sample_int,"aw",%nobits
 6204              		.align	2
 6205              		.set	.LANCHOR34,. + 0
 6206              		.type	m_sample_int, %object
 6207              		.size	m_sample_int, 4
 6208              	m_sample_int:
 6209 0000 00000000 		.space	4
 6210              		.section	.bss.m_watt_seconds_charged,"aw",%nobits
 6211              		.align	2
 6212              		.set	.LANCHOR29,. + 0
 6213              		.type	m_watt_seconds_charged, %object
ARM GAS  /var/folders/sv/kgmgr77579zbf78p2zlhkdfr0000gn/T//ccOxe4My.s 			page 110


 6214              		.size	m_watt_seconds_charged, 4
 6215              	m_watt_seconds_charged:
 6216 0000 00000000 		.space	4
 6217              		.section	.ram4,"aw",%progbits
 6218              		.align	2
 6219              		.set	.LANCHOR4,. + 0
 6220              		.set	.LANCHOR5,. + 4344
 6221              		.set	.LANCHOR6,. + 8688
 6222              		.set	.LANCHOR7,. + 13032
 6223              		.set	.LANCHOR8,. + 17376
 6224              		.set	.LANCHOR9,. + 21720
 6225              		.set	.LANCHOR10,. + 26064
 6226              		.set	.LANCHOR11,. + 30408
 6227              		.type	m_curr0_samples, %object
 6228              		.size	m_curr0_samples, 4000
 6229              	m_curr0_samples:
 6230 0000 00000000 		.space	4000
 6230      00000000 
 6230      00000000 
 6230      00000000 
 6230      00000000 
 6231              		.type	m_curr1_samples, %object
 6232              		.size	m_curr1_samples, 4000
 6233              	m_curr1_samples:
 6234 0fa0 00000000 		.space	4000
 6234      00000000 
 6234      00000000 
 6234      00000000 
 6234      00000000 
 6235              		.type	m_ph1_samples, %object
 6236              		.size	m_ph1_samples, 4000
 6237              	m_ph1_samples:
 6238 1f40 00000000 		.space	4000
 6238      00000000 
 6238      00000000 
 6238      00000000 
 6238      00000000 
 6239              		.type	m_ph2_samples, %object
 6240              		.size	m_ph2_samples, 4000
 6241              	m_ph2_samples:
 6242 2ee0 00000000 		.space	4000
 6242      00000000 
 6242      00000000 
 6242      00000000 
 6242      00000000 
 6243              		.type	m_ph3_samples, %object
 6244              		.size	m_ph3_samples, 4000
 6245              	m_ph3_samples:
 6246 3e80 00000000 		.space	4000
 6246      00000000 
 6246      00000000 
 6246      00000000 
 6246      00000000 
 6247              		.type	m_vzero_samples, %object
 6248              		.size	m_vzero_samples, 4000
 6249              	m_vzero_samples:
 6250 4e20 00000000 		.space	4000
ARM GAS  /var/folders/sv/kgmgr77579zbf78p2zlhkdfr0000gn/T//ccOxe4My.s 			page 111


 6250      00000000 
 6250      00000000 
 6250      00000000 
 6250      00000000 
 6251              		.type	m_curr_fir_samples, %object
 6252              		.size	m_curr_fir_samples, 4000
 6253              	m_curr_fir_samples:
 6254 5dc0 00000000 		.space	4000
 6254      00000000 
 6254      00000000 
 6254      00000000 
 6254      00000000 
 6255              		.type	m_f_sw_samples, %object
 6256              		.size	m_f_sw_samples, 4000
 6257              	m_f_sw_samples:
 6258 6d60 00000000 		.space	4000
 6258      00000000 
 6258      00000000 
 6258      00000000 
 6258      00000000 
 6259              		.type	m_status_samples, %object
 6260              		.size	m_status_samples, 2000
 6261              	m_status_samples:
 6262 7d00 00000000 		.space	2000
 6262      00000000 
 6262      00000000 
 6262      00000000 
 6262      00000000 
 6263              		.type	m_phase_samples, %object
 6264              		.size	m_phase_samples, 2000
 6265              	m_phase_samples:
 6266 84d0 00000000 		.space	2000
 6266      00000000 
 6266      00000000 
 6266      00000000 
 6266      00000000 
 6267              		.section	.bss.pwm_done_func,"aw",%nobits
 6268              		.align	2
 6269              		.set	.LANCHOR39,. + 0
 6270              		.type	pwm_done_func, %object
 6271              		.size	pwm_done_func, 4
 6272              	pwm_done_func:
 6273 0000 00000000 		.space	4
 6274              		.section	.bss.m_motor_iq_sum,"aw",%nobits
 6275              		.align	2
 6276              		.set	.LANCHOR23,. + 0
 6277              		.type	m_motor_iq_sum, %object
 6278              		.size	m_motor_iq_sum, 4
 6279              	m_motor_iq_sum:
 6280 0000 00000000 		.space	4
 6281              		.section	.bss.m_motor_id_sum,"aw",%nobits
 6282              		.align	2
 6283              		.set	.LANCHOR22,. + 0
 6284              		.type	m_motor_id_sum, %object
 6285              		.size	m_motor_id_sum, 4
 6286              	m_motor_id_sum:
 6287 0000 00000000 		.space	4
ARM GAS  /var/folders/sv/kgmgr77579zbf78p2zlhkdfr0000gn/T//ccOxe4My.s 			page 112


 6288              		.section	.bss.ADC_Value,"aw",%nobits
 6289              		.align	2
 6290              		.set	.LANCHOR41,. + 0
 6291              		.type	ADC_Value, %object
 6292              		.size	ADC_Value, 24
 6293              	ADC_Value:
 6294 0000 00000000 		.space	24
 6294      00000000 
 6294      00000000 
 6294      00000000 
 6294      00000000 
 6295              		.section	.bss.curr_diff_sum.10960,"aw",%nobits
 6296              		.align	2
 6297              		.set	.LANCHOR43,. + 0
 6298              		.type	curr_diff_sum.10960, %object
 6299              		.size	curr_diff_sum.10960, 4
 6300              	curr_diff_sum.10960:
 6301 0000 00000000 		.space	4
 6302              		.section	.bss.m_motor_current_iterations,"aw",%nobits
 6303              		.align	2
 6304              		.set	.LANCHOR20,. + 0
 6305              		.type	m_motor_current_iterations, %object
 6306              		.size	m_motor_current_iterations, 4
 6307              	m_motor_current_iterations:
 6308 0000 00000000 		.space	4
 6309              		.section	.bss.m_last_adc_duration_sample,"aw",%nobits
 6310              		.align	2
 6311              		.set	.LANCHOR31,. + 0
 6312              		.type	m_last_adc_duration_sample, %object
 6313              		.size	m_last_adc_duration_sample, 4
 6314              	m_last_adc_duration_sample:
 6315 0000 00000000 		.space	4
 6316              		.section	.bss.m_motor_iq_iterations,"aw",%nobits
 6317              		.align	2
 6318              		.set	.LANCHOR25,. + 0
 6319              		.type	m_motor_iq_iterations, %object
 6320              		.size	m_motor_iq_iterations, 4
 6321              	m_motor_iq_iterations:
 6322 0000 00000000 		.space	4
 6323              		.section	.bss.m_amp_seconds_charged,"aw",%nobits
 6324              		.align	2
 6325              		.set	.LANCHOR27,. + 0
 6326              		.type	m_amp_seconds_charged, %object
 6327              		.size	m_amp_seconds_charged, 4
 6328              	m_amp_seconds_charged:
 6329 0000 00000000 		.space	4
 6330              		.section	.bss.m_input_current_sum,"aw",%nobits
 6331              		.align	2
 6332              		.set	.LANCHOR19,. + 0
 6333              		.type	m_input_current_sum, %object
 6334              		.size	m_input_current_sum, 4
 6335              	m_input_current_sum:
 6336 0000 00000000 		.space	4
 6337              		.section	.bss.m_sample_len,"aw",%nobits
 6338              		.align	2
 6339              		.set	.LANCHOR2,. + 0
 6340              		.type	m_sample_len, %object
ARM GAS  /var/folders/sv/kgmgr77579zbf78p2zlhkdfr0000gn/T//ccOxe4My.s 			page 113


 6341              		.size	m_sample_len, 4
 6342              	m_sample_len:
 6343 0000 00000000 		.space	4
 6344              		.section	.bss.m_conf,"aw",%nobits
 6345              		.align	2
 6346              		.set	.LANCHOR12,. + 0
 6347              		.type	m_conf, %object
 6348              		.size	m_conf, 372
 6349              	m_conf:
 6350 0000 00000000 		.space	372
 6350      00000000 
 6350      00000000 
 6350      00000000 
 6350      00000000 
 6351              		.section	.bss.m_fault_now,"aw",%nobits
 6352              		.set	.LANCHOR13,. + 0
 6353              		.type	m_fault_now, %object
 6354              		.size	m_fault_now, 1
 6355              	m_fault_now:
 6356 0000 00       		.space	1
 6357              		.section	.bss.a.10973,"aw",%nobits
 6358              		.align	2
 6359              		.set	.LANCHOR45,. + 0
 6360              		.type	a.10973, %object
 6361              		.size	a.10973, 4
 6362              	a.10973:
 6363 0000 00000000 		.space	4
 6364              		.section	.bss.curr_diff_samples.10961,"aw",%nobits
 6365              		.align	2
 6366              		.set	.LANCHOR44,. + 0
 6367              		.type	curr_diff_samples.10961, %object
 6368              		.size	curr_diff_samples.10961, 4
 6369              	curr_diff_samples.10961:
 6370 0000 00000000 		.space	4
 6371              		.section	.bss.sample_send_tp,"aw",%nobits
 6372              		.align	2
 6373              		.set	.LANCHOR0,. + 0
 6374              		.type	sample_send_tp, %object
 6375              		.size	sample_send_tp, 4
 6376              	sample_send_tp:
 6377 0000 00000000 		.space	4
 6378              		.section	.rodata.str1.4,"aMS",%progbits,1
 6379              		.align	2
 6380              	.LC0:
 6381 0000 53616D70 		.ascii	"SampleSender\000"
 6381      6C655365 
 6381      6E646572 
 6381      00
 6382 000d 000000   		.space	3
 6383              	.LC1:
 6384 0010 4641554C 		.ascii	"FAULT_UNKNOWN\000"
 6384      545F554E 
 6384      4B4E4F57 
 6384      4E00
 6385 001e 0000     		.space	2
 6386              	.LC2:
 6387 0020 6D636966 		.ascii	"mcif timer\000"
ARM GAS  /var/folders/sv/kgmgr77579zbf78p2zlhkdfr0000gn/T//ccOxe4My.s 			page 114


 6387      2074696D 
 6387      657200
 6388 002b 00       		.space	1
 6389              	.LC3:
 6390 002c 4641554C 		.ascii	"FAULT_CODE_NONE\000"
 6390      545F434F 
 6390      44455F4E 
 6390      4F4E4500 
 6391              	.LC4:
 6392 003c 4641554C 		.ascii	"FAULT_CODE_OVER_VOLTAGE\000"
 6392      545F434F 
 6392      44455F4F 
 6392      5645525F 
 6392      564F4C54 
 6393              	.LC5:
 6394 0054 4641554C 		.ascii	"FAULT_CODE_UNDER_VOLTAGE\000"
 6394      545F434F 
 6394      44455F55 
 6394      4E444552 
 6394      5F564F4C 
 6395 006d 000000   		.space	3
 6396              	.LC6:
 6397 0070 4641554C 		.ascii	"FAULT_CODE_DRV\000"
 6397      545F434F 
 6397      44455F44 
 6397      525600
 6398 007f 00       		.space	1
 6399              	.LC7:
 6400 0080 4641554C 		.ascii	"FAULT_CODE_ABS_OVER_CURRENT\000"
 6400      545F434F 
 6400      44455F41 
 6400      42535F4F 
 6400      5645525F 
 6401              	.LC8:
 6402 009c 4641554C 		.ascii	"FAULT_CODE_OVER_TEMP_FET\000"
 6402      545F434F 
 6402      44455F4F 
 6402      5645525F 
 6402      54454D50 
 6403 00b5 000000   		.space	3
 6404              	.LC9:
 6405 00b8 4641554C 		.ascii	"FAULT_CODE_OVER_TEMP_MOTOR\000"
 6405      545F434F 
 6405      44455F4F 
 6405      5645525F 
 6405      54454D50 
 6406              		.section	.bss.m_cycles_running,"aw",%nobits
 6407              		.align	2
 6408              		.set	.LANCHOR15,. + 0
 6409              		.type	m_cycles_running, %object
 6410              		.size	m_cycles_running, 4
 6411              	m_cycles_running:
 6412 0000 00000000 		.space	4
 6413              		.section	.bss.wrong_voltage_iterations.10954,"aw",%nobits
 6414              		.align	2
 6415              		.set	.LANCHOR42,. + 0
 6416              		.type	wrong_voltage_iterations.10954, %object
ARM GAS  /var/folders/sv/kgmgr77579zbf78p2zlhkdfr0000gn/T//ccOxe4My.s 			page 115


 6417              		.size	wrong_voltage_iterations.10954, 4
 6418              	wrong_voltage_iterations.10954:
 6419 0000 00000000 		.space	4
 6420              		.section	.bss.m_temp_fet,"aw",%nobits
 6421              		.align	2
 6422              		.set	.LANCHOR32,. + 0
 6423              		.type	m_temp_fet, %object
 6424              		.size	m_temp_fet, 4
 6425              	m_temp_fet:
 6426 0000 00000000 		.space	4
 6427              		.section	.bss.m_motor_id_iterations,"aw",%nobits
 6428              		.align	2
 6429              		.set	.LANCHOR24,. + 0
 6430              		.type	m_motor_id_iterations, %object
 6431              		.size	m_motor_id_iterations, 4
 6432              	m_motor_id_iterations:
 6433 0000 00000000 		.space	4
 6434              		.section	.bss.m_motor_current_sum,"aw",%nobits
 6435              		.align	2
 6436              		.set	.LANCHOR18,. + 0
 6437              		.type	m_motor_current_sum, %object
 6438              		.size	m_motor_current_sum, 4
 6439              	m_motor_current_sum:
 6440 0000 00000000 		.space	4
 6441              		.section	.bss.m_input_current_iterations,"aw",%nobits
 6442              		.align	2
 6443              		.set	.LANCHOR21,. + 0
 6444              		.type	m_input_current_iterations, %object
 6445              		.size	m_input_current_iterations, 4
 6446              	m_input_current_iterations:
 6447 0000 00000000 		.space	4
 6448              		.section	.bss.m_amp_seconds,"aw",%nobits
 6449              		.align	2
 6450              		.set	.LANCHOR26,. + 0
 6451              		.type	m_amp_seconds, %object
 6452              		.size	m_amp_seconds, 4
 6453              	m_amp_seconds:
 6454 0000 00000000 		.space	4
 6455              		.section	.bss.sample_send_thread_wa,"aw",%nobits
 6456              		.align	3
 6457              		.set	.LANCHOR38,. + 0
 6458              		.type	sample_send_thread_wa, %object
 6459              		.size	sample_send_thread_wa, 1432
 6460              	sample_send_thread_wa:
 6461 0000 00000000 		.space	1432
 6461      00000000 
 6461      00000000 
 6461      00000000 
 6461      00000000 
 6462              		.section	.bss.m_ignore_iterations,"aw",%nobits
 6463              		.align	2
 6464              		.set	.LANCHOR14,. + 0
 6465              		.type	m_ignore_iterations, %object
 6466              		.size	m_ignore_iterations, 4
 6467              	m_ignore_iterations:
 6468 0000 00000000 		.space	4
 6469              		.section	.bss.m_sample_mode_last,"aw",%nobits
ARM GAS  /var/folders/sv/kgmgr77579zbf78p2zlhkdfr0000gn/T//ccOxe4My.s 			page 116


 6470              		.set	.LANCHOR1,. + 0
 6471              		.type	m_sample_mode_last, %object
 6472              		.size	m_sample_mode_last, 1
 6473              	m_sample_mode_last:
 6474 0000 00       		.space	1
 6475              		.section	.bss.m_lock_enabled,"aw",%nobits
 6476              		.set	.LANCHOR16,. + 0
 6477              		.type	m_lock_enabled, %object
 6478              		.size	m_lock_enabled, 1
 6479              	m_lock_enabled:
 6480 0000 00       		.space	1
 6481              		.section	.bss.m_lock_override_once,"aw",%nobits
 6482              		.set	.LANCHOR17,. + 0
 6483              		.type	m_lock_override_once, %object
 6484              		.size	m_lock_override_once, 1
 6485              	m_lock_override_once:
 6486 0000 00       		.space	1
 6487              		.section	.bss.m_watt_seconds,"aw",%nobits
 6488              		.align	2
 6489              		.set	.LANCHOR28,. + 0
 6490              		.type	m_watt_seconds, %object
 6491              		.size	m_watt_seconds, 4
 6492              	m_watt_seconds:
 6493 0000 00000000 		.space	4
 6494              		.section	.bss.ADC_curr_norm_value,"aw",%nobits
 6495              		.align	2
 6496              		.set	.LANCHOR46,. + 0
 6497              		.type	ADC_curr_norm_value, %object
 6498              		.size	ADC_curr_norm_value, 12
 6499              	ADC_curr_norm_value:
 6500 0000 00000000 		.space	12
 6500      00000000 
 6500      00000000 
 6501              		.section	.bss.m_position_set,"aw",%nobits
 6502              		.align	2
 6503              		.set	.LANCHOR30,. + 0
 6504              		.type	m_position_set, %object
 6505              		.size	m_position_set, 4
 6506              	m_position_set:
 6507 0000 00000000 		.space	4
 6508              		.section	.bss.m_sample_now,"aw",%nobits
 6509              		.align	2
 6510              		.set	.LANCHOR35,. + 0
 6511              		.type	m_sample_now, %object
 6512              		.size	m_sample_now, 4
 6513              	m_sample_now:
 6514 0000 00000000 		.space	4
 6515              		.section	.bss.timer_thread_wa,"aw",%nobits
 6516              		.align	3
 6517              		.set	.LANCHOR37,. + 0
 6518              		.type	timer_thread_wa, %object
 6519              		.size	timer_thread_wa, 1432
 6520              	timer_thread_wa:
 6521 0000 00000000 		.space	1432
 6521      00000000 
 6521      00000000 
 6521      00000000 
ARM GAS  /var/folders/sv/kgmgr77579zbf78p2zlhkdfr0000gn/T//ccOxe4My.s 			page 117


 6521      00000000 
 6522              		.section	.bss.m_sample_mode,"aw",%nobits
 6523              		.set	.LANCHOR36,. + 0
 6524              		.type	m_sample_mode, %object
 6525              		.size	m_sample_mode, 1
 6526              	m_sample_mode:
 6527 0000 00       		.space	1
 6528              		.section	.bss.m_temp_motor,"aw",%nobits
 6529              		.align	2
 6530              		.set	.LANCHOR33,. + 0
 6531              		.type	m_temp_motor, %object
 6532              		.size	m_temp_motor, 4
 6533              	m_temp_motor:
 6534 0000 00000000 		.space	4
 6535              		.text
 6536              	.Letext0:
 6537              		.file 4 "/usr/local/Cellar/gcc-arm-none-eabi/20160928/arm-none-eabi/include/machine/_default_types
 6538              		.file 5 "/usr/local/Cellar/gcc-arm-none-eabi/20160928/arm-none-eabi/include/sys/_stdint.h"
 6539              		.file 6 "/usr/local/Cellar/gcc-arm-none-eabi/20160928/lib/gcc/arm-none-eabi/5.4.1/include/stddef.h
 6540              		.file 7 "ChibiOS_3.0.2/os/rt/ports/ARMCMx/compilers/GCC/chtypes.h"
 6541              		.file 8 "ChibiOS_3.0.2/os/rt/include/chsystypes.h"
 6542              		.file 9 "ChibiOS_3.0.2/os/rt/include/chschd.h"
 6543              		.file 10 "ChibiOS_3.0.2/os/ext/CMSIS/ST/stm32f407xx.h"
 6544              		.file 11 "ChibiOS_3.0.2/os/rt/ports/ARMCMx/chcore.h"
 6545              		.file 12 "ChibiOS_3.0.2/os/rt/ports/ARMCMx/chcore_v7m.h"
 6546              		.file 13 "ChibiOS_3.0.2/os/rt/include/chtm.h"
 6547              		.file 14 "ChibiOS_3.0.2/os/rt/include/chsem.h"
 6548              		.file 15 "ChibiOS_3.0.2/os/rt/include/chmtx.h"
 6549              		.file 16 "datatypes.h"
 6550              		.file 17 "ChibiOS_3.0.2/os/hal/ports/STM32/LLD/GPIOv2/pal_lld.h"
 6551              		.file 18 "ChibiOS_3.0.2/os/rt/include/chsys.h"
 6552              		.file 19 "ChibiOS_3.0.2/os/ext/CMSIS/include/core_cm4.h"
 6553              		.file 20 "mcpwm.h"
 6554              		.file 21 "buffer.h"
 6555              		.file 22 "commands.h"
 6556              		.file 23 "ChibiOS_3.0.2/os/rt/include/chevents.h"
 6557              		.file 24 "mcpwm_foc.h"
 6558              		.file 25 "mcpwm_atc.h"
 6559              		.file 26 "ChibiOS_3.0.2/os/rt/include/chthreads.h"
 6560              		.file 27 "encoder.h"
 6561              		.file 28 "utils.h"
 6562              		.file 29 "/usr/local/Cellar/gcc-arm-none-eabi/20160928/arm-none-eabi/include/math.h"
 6563              		.file 30 "terminal.h"
 6564              		.file 31 "ledpwm.h"
 6565              		.section	.debug_info,"",%progbits
 6566              	.Ldebug_info0:
 6567 0000 7D370000 		.4byte	0x377d
 6568 0004 0400     		.2byte	0x4
 6569 0006 00000000 		.4byte	.Ldebug_abbrev0
 6570 000a 04       		.byte	0x4
 6571 000b 01       		.uleb128 0x1
 6572 000c 2E210000 		.4byte	.LASF612
 6573 0010 0C       		.byte	0xc
 6574 0011 370B0000 		.4byte	.LASF613
 6575 0015 0F080000 		.4byte	.LASF614
 6576 0019 E8020000 		.4byte	.Ldebug_ranges0+0x2e8
 6577 001d 00000000 		.4byte	0
ARM GAS  /var/folders/sv/kgmgr77579zbf78p2zlhkdfr0000gn/T//ccOxe4My.s 			page 118


 6578 0021 00000000 		.4byte	.Ldebug_line0
 6579 0025 02       		.uleb128 0x2
 6580 0026 04       		.byte	0x4
 6581 0027 04       		.byte	0x4
 6582 0028 3E080000 		.4byte	.LASF0
 6583 002c 03       		.uleb128 0x3
 6584 002d 75290000 		.4byte	.LASF2
 6585 0031 04       		.byte	0x4
 6586 0032 1B       		.byte	0x1b
 6587 0033 37000000 		.4byte	0x37
 6588 0037 02       		.uleb128 0x2
 6589 0038 01       		.byte	0x1
 6590 0039 06       		.byte	0x6
 6591 003a 12150000 		.4byte	.LASF1
 6592 003e 03       		.uleb128 0x3
 6593 003f C6000000 		.4byte	.LASF3
 6594 0043 04       		.byte	0x4
 6595 0044 1D       		.byte	0x1d
 6596 0045 49000000 		.4byte	0x49
 6597 0049 02       		.uleb128 0x2
 6598 004a 01       		.byte	0x1
 6599 004b 08       		.byte	0x8
 6600 004c B3070000 		.4byte	.LASF4
 6601 0050 03       		.uleb128 0x3
 6602 0051 47060000 		.4byte	.LASF5
 6603 0055 04       		.byte	0x4
 6604 0056 29       		.byte	0x29
 6605 0057 5B000000 		.4byte	0x5b
 6606 005b 02       		.uleb128 0x2
 6607 005c 02       		.byte	0x2
 6608 005d 05       		.byte	0x5
 6609 005e 382A0000 		.4byte	.LASF6
 6610 0062 03       		.uleb128 0x3
 6611 0063 5E060000 		.4byte	.LASF7
 6612 0067 04       		.byte	0x4
 6613 0068 2B       		.byte	0x2b
 6614 0069 6D000000 		.4byte	0x6d
 6615 006d 02       		.uleb128 0x2
 6616 006e 02       		.byte	0x2
 6617 006f 07       		.byte	0x7
 6618 0070 FA140000 		.4byte	.LASF8
 6619 0074 03       		.uleb128 0x3
 6620 0075 75220000 		.4byte	.LASF9
 6621 0079 04       		.byte	0x4
 6622 007a 3F       		.byte	0x3f
 6623 007b 7F000000 		.4byte	0x7f
 6624 007f 02       		.uleb128 0x2
 6625 0080 04       		.byte	0x4
 6626 0081 05       		.byte	0x5
 6627 0082 02180000 		.4byte	.LASF10
 6628 0086 03       		.uleb128 0x3
 6629 0087 7F220000 		.4byte	.LASF11
 6630 008b 04       		.byte	0x4
 6631 008c 41       		.byte	0x41
 6632 008d 91000000 		.4byte	0x91
 6633 0091 02       		.uleb128 0x2
 6634 0092 04       		.byte	0x4
ARM GAS  /var/folders/sv/kgmgr77579zbf78p2zlhkdfr0000gn/T//ccOxe4My.s 			page 119


 6635 0093 07       		.byte	0x7
 6636 0094 061A0000 		.4byte	.LASF12
 6637 0098 02       		.uleb128 0x2
 6638 0099 08       		.byte	0x8
 6639 009a 05       		.byte	0x5
 6640 009b B4270000 		.4byte	.LASF13
 6641 009f 03       		.uleb128 0x3
 6642 00a0 B50F0000 		.4byte	.LASF14
 6643 00a4 04       		.byte	0x4
 6644 00a5 5B       		.byte	0x5b
 6645 00a6 AA000000 		.4byte	0xaa
 6646 00aa 02       		.uleb128 0x2
 6647 00ab 08       		.byte	0x8
 6648 00ac 07       		.byte	0x7
 6649 00ad 68240000 		.4byte	.LASF15
 6650 00b1 04       		.uleb128 0x4
 6651 00b2 04       		.byte	0x4
 6652 00b3 05       		.byte	0x5
 6653 00b4 696E7400 		.ascii	"int\000"
 6654 00b8 02       		.uleb128 0x2
 6655 00b9 04       		.byte	0x4
 6656 00ba 07       		.byte	0x7
 6657 00bb 012A0000 		.4byte	.LASF16
 6658 00bf 03       		.uleb128 0x3
 6659 00c0 92130000 		.4byte	.LASF17
 6660 00c4 05       		.byte	0x5
 6661 00c5 14       		.byte	0x14
 6662 00c6 2C000000 		.4byte	0x2c
 6663 00ca 03       		.uleb128 0x3
 6664 00cb E90B0000 		.4byte	.LASF18
 6665 00cf 05       		.byte	0x5
 6666 00d0 18       		.byte	0x18
 6667 00d1 3E000000 		.4byte	0x3e
 6668 00d5 03       		.uleb128 0x3
 6669 00d6 F2140000 		.4byte	.LASF19
 6670 00da 05       		.byte	0x5
 6671 00db 20       		.byte	0x20
 6672 00dc 50000000 		.4byte	0x50
 6673 00e0 03       		.uleb128 0x3
 6674 00e1 61010000 		.4byte	.LASF20
 6675 00e5 05       		.byte	0x5
 6676 00e6 24       		.byte	0x24
 6677 00e7 62000000 		.4byte	0x62
 6678 00eb 03       		.uleb128 0x3
 6679 00ec 72030000 		.4byte	.LASF21
 6680 00f0 05       		.byte	0x5
 6681 00f1 2C       		.byte	0x2c
 6682 00f2 74000000 		.4byte	0x74
 6683 00f6 03       		.uleb128 0x3
 6684 00f7 60190000 		.4byte	.LASF22
 6685 00fb 05       		.byte	0x5
 6686 00fc 30       		.byte	0x30
 6687 00fd 86000000 		.4byte	0x86
 6688 0101 03       		.uleb128 0x3
 6689 0102 88090000 		.4byte	.LASF23
 6690 0106 05       		.byte	0x5
 6691 0107 3C       		.byte	0x3c
ARM GAS  /var/folders/sv/kgmgr77579zbf78p2zlhkdfr0000gn/T//ccOxe4My.s 			page 120


 6692 0108 9F000000 		.4byte	0x9f
 6693 010c 03       		.uleb128 0x3
 6694 010d 7A0B0000 		.4byte	.LASF24
 6695 0111 06       		.byte	0x6
 6696 0112 D8       		.byte	0xd8
 6697 0113 B8000000 		.4byte	0xb8
 6698 0117 05       		.uleb128 0x5
 6699 0118 BF000000 		.4byte	0xbf
 6700 011c 05       		.uleb128 0x5
 6701 011d CA000000 		.4byte	0xca
 6702 0121 05       		.uleb128 0x5
 6703 0122 D5000000 		.4byte	0xd5
 6704 0126 05       		.uleb128 0x5
 6705 0127 E0000000 		.4byte	0xe0
 6706 012b 05       		.uleb128 0x5
 6707 012c EB000000 		.4byte	0xeb
 6708 0130 05       		.uleb128 0x5
 6709 0131 F6000000 		.4byte	0xf6
 6710 0135 03       		.uleb128 0x3
 6711 0136 C20A0000 		.4byte	.LASF25
 6712 013a 07       		.byte	0x7
 6713 013b 45       		.byte	0x45
 6714 013c F6000000 		.4byte	0xf6
 6715 0140 03       		.uleb128 0x3
 6716 0141 B3110000 		.4byte	.LASF26
 6717 0145 07       		.byte	0x7
 6718 0146 48       		.byte	0x48
 6719 0147 CA000000 		.4byte	0xca
 6720 014b 03       		.uleb128 0x3
 6721 014c 0B260000 		.4byte	.LASF27
 6722 0150 07       		.byte	0x7
 6723 0151 49       		.byte	0x49
 6724 0152 CA000000 		.4byte	0xca
 6725 0156 03       		.uleb128 0x3
 6726 0157 E9100000 		.4byte	.LASF28
 6727 015b 07       		.byte	0x7
 6728 015c 4A       		.byte	0x4a
 6729 015d CA000000 		.4byte	0xca
 6730 0161 03       		.uleb128 0x3
 6731 0162 42140000 		.4byte	.LASF29
 6732 0166 07       		.byte	0x7
 6733 0167 4B       		.byte	0x4b
 6734 0168 CA000000 		.4byte	0xca
 6735 016c 03       		.uleb128 0x3
 6736 016d 5A050000 		.4byte	.LASF30
 6737 0171 07       		.byte	0x7
 6738 0172 4C       		.byte	0x4c
 6739 0173 F6000000 		.4byte	0xf6
 6740 0177 03       		.uleb128 0x3
 6741 0178 6D000000 		.4byte	.LASF31
 6742 017c 07       		.byte	0x7
 6743 017d 4D       		.byte	0x4d
 6744 017e EB000000 		.4byte	0xeb
 6745 0182 03       		.uleb128 0x3
 6746 0183 D8190000 		.4byte	.LASF32
 6747 0187 07       		.byte	0x7
 6748 0188 4F       		.byte	0x4f
ARM GAS  /var/folders/sv/kgmgr77579zbf78p2zlhkdfr0000gn/T//ccOxe4My.s 			page 121


 6749 0189 F6000000 		.4byte	0xf6
 6750 018d 03       		.uleb128 0x3
 6751 018e 511E0000 		.4byte	.LASF33
 6752 0192 07       		.byte	0x7
 6753 0193 51       		.byte	0x51
 6754 0194 EB000000 		.4byte	0xeb
 6755 0198 03       		.uleb128 0x3
 6756 0199 7A030000 		.4byte	.LASF34
 6757 019d 08       		.byte	0x8
 6758 019e 33       		.byte	0x33
 6759 019f F6000000 		.4byte	0xf6
 6760 01a3 03       		.uleb128 0x3
 6761 01a4 52030000 		.4byte	.LASF35
 6762 01a8 08       		.byte	0x8
 6763 01a9 3F       		.byte	0x3f
 6764 01aa AE010000 		.4byte	0x1ae
 6765 01ae 06       		.uleb128 0x6
 6766 01af 05080000 		.4byte	.LASF57
 6767 01b3 48       		.byte	0x48
 6768 01b4 09       		.byte	0x9
 6769 01b5 C2       		.byte	0xc2
 6770 01b6 B3020000 		.4byte	0x2b3
 6771 01ba 07       		.uleb128 0x7
 6772 01bb 9E100000 		.4byte	.LASF36
 6773 01bf 09       		.byte	0x9
 6774 01c0 C3       		.byte	0xc3
 6775 01c1 BE020000 		.4byte	0x2be
 6776 01c5 00       		.byte	0
 6777 01c6 07       		.uleb128 0x7
 6778 01c7 160C0000 		.4byte	.LASF37
 6779 01cb 09       		.byte	0x9
 6780 01cc C5       		.byte	0xc5
 6781 01cd BE020000 		.4byte	0x2be
 6782 01d1 04       		.byte	0x4
 6783 01d2 07       		.uleb128 0x7
 6784 01d3 720F0000 		.4byte	.LASF38
 6785 01d7 09       		.byte	0x9
 6786 01d8 C7       		.byte	0xc7
 6787 01d9 6C010000 		.4byte	0x16c
 6788 01dd 08       		.byte	0x8
 6789 01de 07       		.uleb128 0x7
 6790 01df D6080000 		.4byte	.LASF39
 6791 01e3 09       		.byte	0x9
 6792 01e4 C8       		.byte	0xc8
 6793 01e5 13060000 		.4byte	0x613
 6794 01e9 0C       		.byte	0xc
 6795 01ea 07       		.uleb128 0x7
 6796 01eb 50020000 		.4byte	.LASF40
 6797 01ef 09       		.byte	0x9
 6798 01f0 CA       		.byte	0xca
 6799 01f1 BE020000 		.4byte	0x2be
 6800 01f5 10       		.byte	0x10
 6801 01f6 07       		.uleb128 0x7
 6802 01f7 DD280000 		.4byte	.LASF41
 6803 01fb 09       		.byte	0x9
 6804 01fc CB       		.byte	0xcb
 6805 01fd BE020000 		.4byte	0x2be
ARM GAS  /var/folders/sv/kgmgr77579zbf78p2zlhkdfr0000gn/T//ccOxe4My.s 			page 122


 6806 0201 14       		.byte	0x14
 6807 0202 07       		.uleb128 0x7
 6808 0203 7F260000 		.4byte	.LASF42
 6809 0207 09       		.byte	0x9
 6810 0208 D2       		.byte	0xd2
 6811 0209 58080000 		.4byte	0x858
 6812 020d 18       		.byte	0x18
 6813 020e 07       		.uleb128 0x7
 6814 020f 2B2B0000 		.4byte	.LASF43
 6815 0213 09       		.byte	0x9
 6816 0214 DD       		.byte	0xdd
 6817 0215 4B010000 		.4byte	0x14b
 6818 0219 1C       		.byte	0x1c
 6819 021a 07       		.uleb128 0x7
 6820 021b 80250000 		.4byte	.LASF44
 6821 021f 09       		.byte	0x9
 6822 0220 E1       		.byte	0xe1
 6823 0221 40010000 		.4byte	0x140
 6824 0225 1D       		.byte	0x1d
 6825 0226 07       		.uleb128 0x7
 6826 0227 C0170000 		.4byte	.LASF45
 6827 022b 09       		.byte	0x9
 6828 022c E6       		.byte	0xe6
 6829 022d 56010000 		.4byte	0x156
 6830 0231 1E       		.byte	0x1e
 6831 0232 07       		.uleb128 0x7
 6832 0233 55150000 		.4byte	.LASF46
 6833 0237 09       		.byte	0x9
 6834 0238 EC       		.byte	0xec
 6835 0239 61010000 		.4byte	0x161
 6836 023d 1F       		.byte	0x1f
 6837 023e 07       		.uleb128 0x7
 6838 023f 6A150000 		.4byte	.LASF47
 6839 0243 09       		.byte	0x9
 6840 0244 F3       		.byte	0xf3
 6841 0245 6A080000 		.4byte	0x86a
 6842 0249 20       		.byte	0x20
 6843 024a 08       		.uleb128 0x8
 6844 024b 705F7500 		.ascii	"p_u\000"
 6845 024f 09       		.byte	0x9
 6846 0250 3101     		.2byte	0x131
 6847 0252 93070000 		.4byte	0x793
 6848 0256 24       		.byte	0x24
 6849 0257 09       		.uleb128 0x9
 6850 0258 83040000 		.4byte	.LASF48
 6851 025c 09       		.byte	0x9
 6852 025d 3601     		.2byte	0x136
 6853 025f C4020000 		.4byte	0x2c4
 6854 0263 28       		.byte	0x28
 6855 0264 09       		.uleb128 0x9
 6856 0265 43160000 		.4byte	.LASF49
 6857 0269 09       		.byte	0x9
 6858 026a 3C01     		.2byte	0x13c
 6859 026c E8020000 		.4byte	0x2e8
 6860 0270 2C       		.byte	0x2c
 6861 0271 09       		.uleb128 0x9
 6862 0272 7B060000 		.4byte	.LASF50
ARM GAS  /var/folders/sv/kgmgr77579zbf78p2zlhkdfr0000gn/T//ccOxe4My.s 			page 123


 6863 0276 09       		.byte	0x9
 6864 0277 4001     		.2byte	0x140
 6865 0279 77010000 		.4byte	0x177
 6866 027d 34       		.byte	0x34
 6867 027e 09       		.uleb128 0x9
 6868 027f 54230000 		.4byte	.LASF51
 6869 0283 09       		.byte	0x9
 6870 0284 4601     		.2byte	0x146
 6871 0286 82010000 		.4byte	0x182
 6872 028a 38       		.byte	0x38
 6873 028b 09       		.uleb128 0x9
 6874 028c ED250000 		.4byte	.LASF52
 6875 0290 09       		.byte	0x9
 6876 0291 4D01     		.2byte	0x14d
 6877 0293 52080000 		.4byte	0x852
 6878 0297 3C       		.byte	0x3c
 6879 0298 09       		.uleb128 0x9
 6880 0299 11200000 		.4byte	.LASF53
 6881 029d 09       		.byte	0x9
 6882 029e 5101     		.2byte	0x151
 6883 02a0 6C010000 		.4byte	0x16c
 6884 02a4 40       		.byte	0x40
 6885 02a5 09       		.uleb128 0x9
 6886 02a6 F1100000 		.4byte	.LASF54
 6887 02aa 09       		.byte	0x9
 6888 02ab 5801     		.2byte	0x158
 6889 02ad 9B030000 		.4byte	0x39b
 6890 02b1 44       		.byte	0x44
 6891 02b2 00       		.byte	0
 6892 02b3 03       		.uleb128 0x3
 6893 02b4 07290000 		.4byte	.LASF55
 6894 02b8 08       		.byte	0x8
 6895 02b9 44       		.byte	0x44
 6896 02ba BE020000 		.4byte	0x2be
 6897 02be 0A       		.uleb128 0xa
 6898 02bf 04       		.byte	0x4
 6899 02c0 A3010000 		.4byte	0x1a3
 6900 02c4 03       		.uleb128 0x3
 6901 02c5 A5040000 		.4byte	.LASF56
 6902 02c9 08       		.byte	0x8
 6903 02ca 49       		.byte	0x49
 6904 02cb CF020000 		.4byte	0x2cf
 6905 02cf 06       		.uleb128 0x6
 6906 02d0 422B0000 		.4byte	.LASF58
 6907 02d4 04       		.byte	0x4
 6908 02d5 09       		.byte	0x9
 6909 02d6 B0       		.byte	0xb0
 6910 02d7 E8020000 		.4byte	0x2e8
 6911 02db 07       		.uleb128 0x7
 6912 02dc 9E100000 		.4byte	.LASF36
 6913 02e0 09       		.byte	0x9
 6914 02e1 B1       		.byte	0xb1
 6915 02e2 BE020000 		.4byte	0x2be
 6916 02e6 00       		.byte	0
 6917 02e7 00       		.byte	0
 6918 02e8 03       		.uleb128 0x3
 6919 02e9 75170000 		.4byte	.LASF59
ARM GAS  /var/folders/sv/kgmgr77579zbf78p2zlhkdfr0000gn/T//ccOxe4My.s 			page 124


 6920 02ed 08       		.byte	0x8
 6921 02ee 50       		.byte	0x50
 6922 02ef F3020000 		.4byte	0x2f3
 6923 02f3 06       		.uleb128 0x6
 6924 02f4 34020000 		.4byte	.LASF60
 6925 02f8 08       		.byte	0x8
 6926 02f9 09       		.byte	0x9
 6927 02fa B7       		.byte	0xb7
 6928 02fb 18030000 		.4byte	0x318
 6929 02ff 07       		.uleb128 0x7
 6930 0300 9E100000 		.4byte	.LASF36
 6931 0304 09       		.byte	0x9
 6932 0305 B8       		.byte	0xb8
 6933 0306 BE020000 		.4byte	0x2be
 6934 030a 00       		.byte	0
 6935 030b 07       		.uleb128 0x7
 6936 030c 160C0000 		.4byte	.LASF37
 6937 0310 09       		.byte	0x9
 6938 0311 B9       		.byte	0xb9
 6939 0312 BE020000 		.4byte	0x2be
 6940 0316 04       		.byte	0x4
 6941 0317 00       		.byte	0
 6942 0318 03       		.uleb128 0x3
 6943 0319 F8070000 		.4byte	.LASF61
 6944 031d 08       		.byte	0x8
 6945 031e 57       		.byte	0x57
 6946 031f 23030000 		.4byte	0x323
 6947 0323 0B       		.uleb128 0xb
 6948 0324 20210000 		.4byte	.LASF62
 6949 0328 1C       		.byte	0x1c
 6950 0329 09       		.byte	0x9
 6951 032a 9001     		.2byte	0x190
 6952 032c 7F030000 		.4byte	0x37f
 6953 0330 09       		.uleb128 0x9
 6954 0331 4A1B0000 		.4byte	.LASF63
 6955 0335 09       		.byte	0x9
 6956 0336 9101     		.2byte	0x191
 6957 0338 E8020000 		.4byte	0x2e8
 6958 033c 00       		.byte	0
 6959 033d 09       		.uleb128 0x9
 6960 033e 10240000 		.4byte	.LASF64
 6961 0342 09       		.byte	0x9
 6962 0343 9201     		.2byte	0x192
 6963 0345 6C010000 		.4byte	0x16c
 6964 0349 08       		.byte	0x8
 6965 034a 09       		.uleb128 0x9
 6966 034b 720A0000 		.4byte	.LASF65
 6967 034f 09       		.byte	0x9
 6968 0350 9401     		.2byte	0x194
 6969 0352 13060000 		.4byte	0x613
 6970 0356 0C       		.byte	0xc
 6971 0357 09       		.uleb128 0x9
 6972 0358 B9130000 		.4byte	.LASF66
 6973 035c 09       		.byte	0x9
 6974 035d 9701     		.2byte	0x197
 6975 035f BE020000 		.4byte	0x2be
 6976 0363 10       		.byte	0x10
ARM GAS  /var/folders/sv/kgmgr77579zbf78p2zlhkdfr0000gn/T//ccOxe4My.s 			page 125


 6977 0364 09       		.uleb128 0x9
 6978 0365 0E0C0000 		.4byte	.LASF67
 6979 0369 09       		.byte	0x9
 6980 036a 9801     		.2byte	0x198
 6981 036c BE020000 		.4byte	0x2be
 6982 0370 14       		.byte	0x14
 6983 0371 09       		.uleb128 0x9
 6984 0372 08090000 		.4byte	.LASF68
 6985 0376 09       		.byte	0x9
 6986 0377 9B01     		.2byte	0x19b
 6987 0379 BE020000 		.4byte	0x2be
 6988 037d 18       		.byte	0x18
 6989 037e 00       		.byte	0
 6990 037f 03       		.uleb128 0x3
 6991 0380 AE1F0000 		.4byte	.LASF69
 6992 0384 08       		.byte	0x8
 6993 0385 5C       		.byte	0x5c
 6994 0386 8A030000 		.4byte	0x38a
 6995 038a 0A       		.uleb128 0xa
 6996 038b 04       		.byte	0x4
 6997 038c 90030000 		.4byte	0x390
 6998 0390 0C       		.uleb128 0xc
 6999 0391 9B030000 		.4byte	0x39b
 7000 0395 0D       		.uleb128 0xd
 7001 0396 9B030000 		.4byte	0x39b
 7002 039a 00       		.byte	0
 7003 039b 0E       		.uleb128 0xe
 7004 039c 04       		.byte	0x4
 7005 039d 03       		.uleb128 0x3
 7006 039e 620A0000 		.4byte	.LASF70
 7007 03a2 08       		.byte	0x8
 7008 03a3 61       		.byte	0x61
 7009 03a4 A8030000 		.4byte	0x3a8
 7010 03a8 0B       		.uleb128 0xb
 7011 03a9 6F250000 		.4byte	.LASF71
 7012 03ad 14       		.byte	0x14
 7013 03ae 09       		.byte	0x9
 7014 03af 6B01     		.2byte	0x16b
 7015 03b1 F7030000 		.4byte	0x3f7
 7016 03b5 09       		.uleb128 0x9
 7017 03b6 780A0000 		.4byte	.LASF72
 7018 03ba 09       		.byte	0x9
 7019 03bb 6C01     		.2byte	0x16c
 7020 03bd 6F080000 		.4byte	0x86f
 7021 03c1 00       		.byte	0
 7022 03c2 09       		.uleb128 0x9
 7023 03c3 99070000 		.4byte	.LASF73
 7024 03c7 09       		.byte	0x9
 7025 03c8 6D01     		.2byte	0x16d
 7026 03ca 6F080000 		.4byte	0x86f
 7027 03ce 04       		.byte	0x4
 7028 03cf 09       		.uleb128 0x9
 7029 03d0 89140000 		.4byte	.LASF74
 7030 03d4 09       		.byte	0x9
 7031 03d5 6E01     		.2byte	0x16e
 7032 03d7 98010000 		.4byte	0x198
 7033 03db 08       		.byte	0x8
ARM GAS  /var/folders/sv/kgmgr77579zbf78p2zlhkdfr0000gn/T//ccOxe4My.s 			page 126


 7034 03dc 09       		.uleb128 0x9
 7035 03dd 09250000 		.4byte	.LASF75
 7036 03e1 09       		.byte	0x9
 7037 03e2 6F01     		.2byte	0x16f
 7038 03e4 7F030000 		.4byte	0x37f
 7039 03e8 0C       		.byte	0xc
 7040 03e9 09       		.uleb128 0x9
 7041 03ea DC080000 		.4byte	.LASF76
 7042 03ee 09       		.byte	0x9
 7043 03ef 7101     		.2byte	0x171
 7044 03f1 9B030000 		.4byte	0x39b
 7045 03f5 10       		.byte	0x10
 7046 03f6 00       		.byte	0
 7047 03f7 03       		.uleb128 0x3
 7048 03f8 B9260000 		.4byte	.LASF77
 7049 03fc 08       		.byte	0x8
 7050 03fd 66       		.byte	0x66
 7051 03fe 02040000 		.4byte	0x402
 7052 0402 0B       		.uleb128 0xb
 7053 0403 5B030000 		.4byte	.LASF78
 7054 0407 10       		.byte	0x10
 7055 0408 09       		.byte	0x9
 7056 0409 7B01     		.2byte	0x17b
 7057 040b 44040000 		.4byte	0x444
 7058 040f 09       		.uleb128 0x9
 7059 0410 780A0000 		.4byte	.LASF72
 7060 0414 09       		.byte	0x9
 7061 0415 7C01     		.2byte	0x17c
 7062 0417 6F080000 		.4byte	0x86f
 7063 041b 00       		.byte	0
 7064 041c 09       		.uleb128 0x9
 7065 041d 99070000 		.4byte	.LASF73
 7066 0421 09       		.byte	0x9
 7067 0422 7E01     		.2byte	0x17e
 7068 0424 6F080000 		.4byte	0x86f
 7069 0428 04       		.byte	0x4
 7070 0429 09       		.uleb128 0x9
 7071 042a 89140000 		.4byte	.LASF74
 7072 042e 09       		.byte	0x9
 7073 042f 8001     		.2byte	0x180
 7074 0431 98010000 		.4byte	0x198
 7075 0435 08       		.byte	0x8
 7076 0436 09       		.uleb128 0x9
 7077 0437 0A010000 		.4byte	.LASF79
 7078 043b 09       		.byte	0x9
 7079 043c 8201     		.2byte	0x182
 7080 043e 6A080000 		.4byte	0x86a
 7081 0442 0C       		.byte	0xc
 7082 0443 00       		.byte	0
 7083 0444 03       		.uleb128 0x3
 7084 0445 B1080000 		.4byte	.LASF80
 7085 0449 08       		.byte	0x8
 7086 044a 6B       		.byte	0x6b
 7087 044b 4F040000 		.4byte	0x44f
 7088 044f 0B       		.uleb128 0xb
 7089 0450 8A220000 		.4byte	.LASF81
 7090 0454 04       		.byte	0x4
ARM GAS  /var/folders/sv/kgmgr77579zbf78p2zlhkdfr0000gn/T//ccOxe4My.s 			page 127


 7091 0455 09       		.byte	0x9
 7092 0456 A201     		.2byte	0x1a2
 7093 0458 6A040000 		.4byte	0x46a
 7094 045c 09       		.uleb128 0x9
 7095 045d 99130000 		.4byte	.LASF82
 7096 0461 09       		.byte	0x9
 7097 0462 AA01     		.2byte	0x1aa
 7098 0464 75080000 		.4byte	0x875
 7099 0468 00       		.byte	0
 7100 0469 00       		.byte	0
 7101 046a 03       		.uleb128 0x3
 7102 046b BA000000 		.4byte	.LASF83
 7103 046f 08       		.byte	0x8
 7104 0470 70       		.byte	0x70
 7105 0471 75040000 		.4byte	0x475
 7106 0475 0F       		.uleb128 0xf
 7107 0476 17170000 		.4byte	.LASF84
 7108 047a 5802     		.2byte	0x258
 7109 047c 09       		.byte	0x9
 7110 047d C201     		.2byte	0x1c2
 7111 047f D1040000 		.4byte	0x4d1
 7112 0483 09       		.uleb128 0x9
 7113 0484 9F040000 		.4byte	.LASF85
 7114 0488 09       		.byte	0x9
 7115 0489 C601     		.2byte	0x1c6
 7116 048b 18030000 		.4byte	0x318
 7117 048f 00       		.byte	0
 7118 0490 09       		.uleb128 0x9
 7119 0491 68040000 		.4byte	.LASF86
 7120 0495 09       		.byte	0x9
 7121 0496 CA01     		.2byte	0x1ca
 7122 0498 F7030000 		.4byte	0x3f7
 7123 049c 1C       		.byte	0x1c
 7124 049d 08       		.uleb128 0x8
 7125 049e 64626700 		.ascii	"dbg\000"
 7126 04a2 09       		.byte	0x9
 7127 04a3 CE01     		.2byte	0x1ce
 7128 04a5 44040000 		.4byte	0x444
 7129 04a9 2C       		.byte	0x2c
 7130 04aa 09       		.uleb128 0x9
 7131 04ab 1A180000 		.4byte	.LASF87
 7132 04af 09       		.byte	0x9
 7133 04b0 D201     		.2byte	0x1d2
 7134 04b2 A3010000 		.4byte	0x1a3
 7135 04b6 30       		.byte	0x30
 7136 04b7 08       		.uleb128 0x8
 7137 04b8 746D00   		.ascii	"tm\000"
 7138 04bb 09       		.byte	0x9
 7139 04bc D701     		.2byte	0x1d7
 7140 04be 88070000 		.4byte	0x788
 7141 04c2 78       		.byte	0x78
 7142 04c3 09       		.uleb128 0x9
 7143 04c4 F3240000 		.4byte	.LASF88
 7144 04c8 09       		.byte	0x9
 7145 04c9 E301     		.2byte	0x1e3
 7146 04cb 7A080000 		.4byte	0x87a
 7147 04cf 80       		.byte	0x80
ARM GAS  /var/folders/sv/kgmgr77579zbf78p2zlhkdfr0000gn/T//ccOxe4My.s 			page 128


 7148 04d0 00       		.byte	0
 7149 04d1 02       		.uleb128 0x2
 7150 04d2 04       		.byte	0x4
 7151 04d3 07       		.byte	0x7
 7152 04d4 92140000 		.4byte	.LASF89
 7153 04d8 10       		.uleb128 0x10
 7154 04d9 54       		.byte	0x54
 7155 04da 0A       		.byte	0xa
 7156 04db EC02     		.2byte	0x2ec
 7157 04dd F1050000 		.4byte	0x5f1
 7158 04e1 08       		.uleb128 0x8
 7159 04e2 43523100 		.ascii	"CR1\000"
 7160 04e6 0A       		.byte	0xa
 7161 04e7 EE02     		.2byte	0x2ee
 7162 04e9 30010000 		.4byte	0x130
 7163 04ed 00       		.byte	0
 7164 04ee 08       		.uleb128 0x8
 7165 04ef 43523200 		.ascii	"CR2\000"
 7166 04f3 0A       		.byte	0xa
 7167 04f4 EF02     		.2byte	0x2ef
 7168 04f6 30010000 		.4byte	0x130
 7169 04fa 04       		.byte	0x4
 7170 04fb 09       		.uleb128 0x9
 7171 04fc 11250000 		.4byte	.LASF90
 7172 0500 0A       		.byte	0xa
 7173 0501 F002     		.2byte	0x2f0
 7174 0503 30010000 		.4byte	0x130
 7175 0507 08       		.byte	0x8
 7176 0508 09       		.uleb128 0x9
 7177 0509 D1080000 		.4byte	.LASF91
 7178 050d 0A       		.byte	0xa
 7179 050e F102     		.2byte	0x2f1
 7180 0510 30010000 		.4byte	0x130
 7181 0514 0C       		.byte	0xc
 7182 0515 08       		.uleb128 0x8
 7183 0516 535200   		.ascii	"SR\000"
 7184 0519 0A       		.byte	0xa
 7185 051a F202     		.2byte	0x2f2
 7186 051c 30010000 		.4byte	0x130
 7187 0520 10       		.byte	0x10
 7188 0521 08       		.uleb128 0x8
 7189 0522 45475200 		.ascii	"EGR\000"
 7190 0526 0A       		.byte	0xa
 7191 0527 F302     		.2byte	0x2f3
 7192 0529 30010000 		.4byte	0x130
 7193 052d 14       		.byte	0x14
 7194 052e 09       		.uleb128 0x9
 7195 052f E2290000 		.4byte	.LASF92
 7196 0533 0A       		.byte	0xa
 7197 0534 F402     		.2byte	0x2f4
 7198 0536 30010000 		.4byte	0x130
 7199 053a 18       		.byte	0x18
 7200 053b 09       		.uleb128 0x9
 7201 053c E8290000 		.4byte	.LASF93
 7202 0540 0A       		.byte	0xa
 7203 0541 F502     		.2byte	0x2f5
 7204 0543 30010000 		.4byte	0x130
ARM GAS  /var/folders/sv/kgmgr77579zbf78p2zlhkdfr0000gn/T//ccOxe4My.s 			page 129


 7205 0547 1C       		.byte	0x1c
 7206 0548 09       		.uleb128 0x9
 7207 0549 DB050000 		.4byte	.LASF94
 7208 054d 0A       		.byte	0xa
 7209 054e F602     		.2byte	0x2f6
 7210 0550 30010000 		.4byte	0x130
 7211 0554 20       		.byte	0x20
 7212 0555 08       		.uleb128 0x8
 7213 0556 434E5400 		.ascii	"CNT\000"
 7214 055a 0A       		.byte	0xa
 7215 055b F702     		.2byte	0x2f7
 7216 055d 30010000 		.4byte	0x130
 7217 0561 24       		.byte	0x24
 7218 0562 08       		.uleb128 0x8
 7219 0563 50534300 		.ascii	"PSC\000"
 7220 0567 0A       		.byte	0xa
 7221 0568 F802     		.2byte	0x2f8
 7222 056a 30010000 		.4byte	0x130
 7223 056e 28       		.byte	0x28
 7224 056f 08       		.uleb128 0x8
 7225 0570 41525200 		.ascii	"ARR\000"
 7226 0574 0A       		.byte	0xa
 7227 0575 F902     		.2byte	0x2f9
 7228 0577 30010000 		.4byte	0x130
 7229 057b 2C       		.byte	0x2c
 7230 057c 08       		.uleb128 0x8
 7231 057d 52435200 		.ascii	"RCR\000"
 7232 0581 0A       		.byte	0xa
 7233 0582 FA02     		.2byte	0x2fa
 7234 0584 30010000 		.4byte	0x130
 7235 0588 30       		.byte	0x30
 7236 0589 09       		.uleb128 0x9
 7237 058a 280E0000 		.4byte	.LASF95
 7238 058e 0A       		.byte	0xa
 7239 058f FB02     		.2byte	0x2fb
 7240 0591 30010000 		.4byte	0x130
 7241 0595 34       		.byte	0x34
 7242 0596 09       		.uleb128 0x9
 7243 0597 2D0E0000 		.4byte	.LASF96
 7244 059b 0A       		.byte	0xa
 7245 059c FC02     		.2byte	0x2fc
 7246 059e 30010000 		.4byte	0x130
 7247 05a2 38       		.byte	0x38
 7248 05a3 09       		.uleb128 0x9
 7249 05a4 320E0000 		.4byte	.LASF97
 7250 05a8 0A       		.byte	0xa
 7251 05a9 FD02     		.2byte	0x2fd
 7252 05ab 30010000 		.4byte	0x130
 7253 05af 3C       		.byte	0x3c
 7254 05b0 09       		.uleb128 0x9
 7255 05b1 370E0000 		.4byte	.LASF98
 7256 05b5 0A       		.byte	0xa
 7257 05b6 FE02     		.2byte	0x2fe
 7258 05b8 30010000 		.4byte	0x130
 7259 05bc 40       		.byte	0x40
 7260 05bd 09       		.uleb128 0x9
 7261 05be 5C010000 		.4byte	.LASF99
ARM GAS  /var/folders/sv/kgmgr77579zbf78p2zlhkdfr0000gn/T//ccOxe4My.s 			page 130


 7262 05c2 0A       		.byte	0xa
 7263 05c3 FF02     		.2byte	0x2ff
 7264 05c5 30010000 		.4byte	0x130
 7265 05c9 44       		.byte	0x44
 7266 05ca 08       		.uleb128 0x8
 7267 05cb 44435200 		.ascii	"DCR\000"
 7268 05cf 0A       		.byte	0xa
 7269 05d0 0003     		.2byte	0x300
 7270 05d2 30010000 		.4byte	0x130
 7271 05d6 48       		.byte	0x48
 7272 05d7 09       		.uleb128 0x9
 7273 05d8 12170000 		.4byte	.LASF100
 7274 05dc 0A       		.byte	0xa
 7275 05dd 0103     		.2byte	0x301
 7276 05df 30010000 		.4byte	0x130
 7277 05e3 4C       		.byte	0x4c
 7278 05e4 08       		.uleb128 0x8
 7279 05e5 4F5200   		.ascii	"OR\000"
 7280 05e8 0A       		.byte	0xa
 7281 05e9 0203     		.2byte	0x302
 7282 05eb 30010000 		.4byte	0x130
 7283 05ef 50       		.byte	0x50
 7284 05f0 00       		.byte	0
 7285 05f1 11       		.uleb128 0x11
 7286 05f2 3B120000 		.4byte	.LASF101
 7287 05f6 0A       		.byte	0xa
 7288 05f7 0303     		.2byte	0x303
 7289 05f9 D8040000 		.4byte	0x4d8
 7290 05fd 03       		.uleb128 0x3
 7291 05fe CF190000 		.4byte	.LASF102
 7292 0602 0B       		.byte	0xb
 7293 0603 65       		.byte	0x65
 7294 0604 9B030000 		.4byte	0x39b
 7295 0608 03       		.uleb128 0x3
 7296 0609 8E070000 		.4byte	.LASF103
 7297 060d 0B       		.byte	0xb
 7298 060e 6D       		.byte	0x6d
 7299 060f 01010000 		.4byte	0x101
 7300 0613 06       		.uleb128 0x6
 7301 0614 B3180000 		.4byte	.LASF104
 7302 0618 04       		.byte	0x4
 7303 0619 0B       		.byte	0xb
 7304 061a 89       		.byte	0x89
 7305 061b 2C060000 		.4byte	0x62c
 7306 061f 12       		.uleb128 0x12
 7307 0620 72313300 		.ascii	"r13\000"
 7308 0624 0B       		.byte	0xb
 7309 0625 8A       		.byte	0x8a
 7310 0626 6D070000 		.4byte	0x76d
 7311 062a 00       		.byte	0
 7312 062b 00       		.byte	0
 7313 062c 06       		.uleb128 0x6
 7314 062d 00000000 		.4byte	.LASF105
 7315 0631 64       		.byte	0x64
 7316 0632 0C       		.byte	0xc
 7317 0633 F4       		.byte	0xf4
 7318 0634 6D070000 		.4byte	0x76d
ARM GAS  /var/folders/sv/kgmgr77579zbf78p2zlhkdfr0000gn/T//ccOxe4My.s 			page 131


 7319 0638 12       		.uleb128 0x12
 7320 0639 73313600 		.ascii	"s16\000"
 7321 063d 0C       		.byte	0xc
 7322 063e F6       		.byte	0xf6
 7323 063f FD050000 		.4byte	0x5fd
 7324 0643 00       		.byte	0
 7325 0644 12       		.uleb128 0x12
 7326 0645 73313700 		.ascii	"s17\000"
 7327 0649 0C       		.byte	0xc
 7328 064a F7       		.byte	0xf7
 7329 064b FD050000 		.4byte	0x5fd
 7330 064f 04       		.byte	0x4
 7331 0650 12       		.uleb128 0x12
 7332 0651 73313800 		.ascii	"s18\000"
 7333 0655 0C       		.byte	0xc
 7334 0656 F8       		.byte	0xf8
 7335 0657 FD050000 		.4byte	0x5fd
 7336 065b 08       		.byte	0x8
 7337 065c 12       		.uleb128 0x12
 7338 065d 73313900 		.ascii	"s19\000"
 7339 0661 0C       		.byte	0xc
 7340 0662 F9       		.byte	0xf9
 7341 0663 FD050000 		.4byte	0x5fd
 7342 0667 0C       		.byte	0xc
 7343 0668 12       		.uleb128 0x12
 7344 0669 73323000 		.ascii	"s20\000"
 7345 066d 0C       		.byte	0xc
 7346 066e FA       		.byte	0xfa
 7347 066f FD050000 		.4byte	0x5fd
 7348 0673 10       		.byte	0x10
 7349 0674 12       		.uleb128 0x12
 7350 0675 73323100 		.ascii	"s21\000"
 7351 0679 0C       		.byte	0xc
 7352 067a FB       		.byte	0xfb
 7353 067b FD050000 		.4byte	0x5fd
 7354 067f 14       		.byte	0x14
 7355 0680 12       		.uleb128 0x12
 7356 0681 73323200 		.ascii	"s22\000"
 7357 0685 0C       		.byte	0xc
 7358 0686 FC       		.byte	0xfc
 7359 0687 FD050000 		.4byte	0x5fd
 7360 068b 18       		.byte	0x18
 7361 068c 12       		.uleb128 0x12
 7362 068d 73323300 		.ascii	"s23\000"
 7363 0691 0C       		.byte	0xc
 7364 0692 FD       		.byte	0xfd
 7365 0693 FD050000 		.4byte	0x5fd
 7366 0697 1C       		.byte	0x1c
 7367 0698 12       		.uleb128 0x12
 7368 0699 73323400 		.ascii	"s24\000"
 7369 069d 0C       		.byte	0xc
 7370 069e FE       		.byte	0xfe
 7371 069f FD050000 		.4byte	0x5fd
 7372 06a3 20       		.byte	0x20
 7373 06a4 12       		.uleb128 0x12
 7374 06a5 73323500 		.ascii	"s25\000"
 7375 06a9 0C       		.byte	0xc
ARM GAS  /var/folders/sv/kgmgr77579zbf78p2zlhkdfr0000gn/T//ccOxe4My.s 			page 132


 7376 06aa FF       		.byte	0xff
 7377 06ab FD050000 		.4byte	0x5fd
 7378 06af 24       		.byte	0x24
 7379 06b0 08       		.uleb128 0x8
 7380 06b1 73323600 		.ascii	"s26\000"
 7381 06b5 0C       		.byte	0xc
 7382 06b6 0001     		.2byte	0x100
 7383 06b8 FD050000 		.4byte	0x5fd
 7384 06bc 28       		.byte	0x28
 7385 06bd 08       		.uleb128 0x8
 7386 06be 73323700 		.ascii	"s27\000"
 7387 06c2 0C       		.byte	0xc
 7388 06c3 0101     		.2byte	0x101
 7389 06c5 FD050000 		.4byte	0x5fd
 7390 06c9 2C       		.byte	0x2c
 7391 06ca 08       		.uleb128 0x8
 7392 06cb 73323800 		.ascii	"s28\000"
 7393 06cf 0C       		.byte	0xc
 7394 06d0 0201     		.2byte	0x102
 7395 06d2 FD050000 		.4byte	0x5fd
 7396 06d6 30       		.byte	0x30
 7397 06d7 08       		.uleb128 0x8
 7398 06d8 73323900 		.ascii	"s29\000"
 7399 06dc 0C       		.byte	0xc
 7400 06dd 0301     		.2byte	0x103
 7401 06df FD050000 		.4byte	0x5fd
 7402 06e3 34       		.byte	0x34
 7403 06e4 08       		.uleb128 0x8
 7404 06e5 73333000 		.ascii	"s30\000"
 7405 06e9 0C       		.byte	0xc
 7406 06ea 0401     		.2byte	0x104
 7407 06ec FD050000 		.4byte	0x5fd
 7408 06f0 38       		.byte	0x38
 7409 06f1 08       		.uleb128 0x8
 7410 06f2 73333100 		.ascii	"s31\000"
 7411 06f6 0C       		.byte	0xc
 7412 06f7 0501     		.2byte	0x105
 7413 06f9 FD050000 		.4byte	0x5fd
 7414 06fd 3C       		.byte	0x3c
 7415 06fe 08       		.uleb128 0x8
 7416 06ff 723400   		.ascii	"r4\000"
 7417 0702 0C       		.byte	0xc
 7418 0703 0701     		.2byte	0x107
 7419 0705 FD050000 		.4byte	0x5fd
 7420 0709 40       		.byte	0x40
 7421 070a 08       		.uleb128 0x8
 7422 070b 723500   		.ascii	"r5\000"
 7423 070e 0C       		.byte	0xc
 7424 070f 0801     		.2byte	0x108
 7425 0711 FD050000 		.4byte	0x5fd
 7426 0715 44       		.byte	0x44
 7427 0716 08       		.uleb128 0x8
 7428 0717 723600   		.ascii	"r6\000"
 7429 071a 0C       		.byte	0xc
 7430 071b 0901     		.2byte	0x109
 7431 071d FD050000 		.4byte	0x5fd
 7432 0721 48       		.byte	0x48
ARM GAS  /var/folders/sv/kgmgr77579zbf78p2zlhkdfr0000gn/T//ccOxe4My.s 			page 133


 7433 0722 08       		.uleb128 0x8
 7434 0723 723700   		.ascii	"r7\000"
 7435 0726 0C       		.byte	0xc
 7436 0727 0A01     		.2byte	0x10a
 7437 0729 FD050000 		.4byte	0x5fd
 7438 072d 4C       		.byte	0x4c
 7439 072e 08       		.uleb128 0x8
 7440 072f 723800   		.ascii	"r8\000"
 7441 0732 0C       		.byte	0xc
 7442 0733 0B01     		.2byte	0x10b
 7443 0735 FD050000 		.4byte	0x5fd
 7444 0739 50       		.byte	0x50
 7445 073a 08       		.uleb128 0x8
 7446 073b 723900   		.ascii	"r9\000"
 7447 073e 0C       		.byte	0xc
 7448 073f 0C01     		.2byte	0x10c
 7449 0741 FD050000 		.4byte	0x5fd
 7450 0745 54       		.byte	0x54
 7451 0746 08       		.uleb128 0x8
 7452 0747 72313000 		.ascii	"r10\000"
 7453 074b 0C       		.byte	0xc
 7454 074c 0D01     		.2byte	0x10d
 7455 074e FD050000 		.4byte	0x5fd
 7456 0752 58       		.byte	0x58
 7457 0753 08       		.uleb128 0x8
 7458 0754 72313100 		.ascii	"r11\000"
 7459 0758 0C       		.byte	0xc
 7460 0759 0E01     		.2byte	0x10e
 7461 075b FD050000 		.4byte	0x5fd
 7462 075f 5C       		.byte	0x5c
 7463 0760 08       		.uleb128 0x8
 7464 0761 6C7200   		.ascii	"lr\000"
 7465 0764 0C       		.byte	0xc
 7466 0765 0F01     		.2byte	0x10f
 7467 0767 FD050000 		.4byte	0x5fd
 7468 076b 60       		.byte	0x60
 7469 076c 00       		.byte	0
 7470 076d 0A       		.uleb128 0xa
 7471 076e 04       		.byte	0x4
 7472 076f 2C060000 		.4byte	0x62c
 7473 0773 13       		.uleb128 0x13
 7474 0774 04       		.byte	0x4
 7475 0775 0D       		.byte	0xd
 7476 0776 38       		.byte	0x38
 7477 0777 88070000 		.4byte	0x788
 7478 077b 07       		.uleb128 0x7
 7479 077c 7F240000 		.4byte	.LASF106
 7480 0780 0D       		.byte	0xd
 7481 0781 3C       		.byte	0x3c
 7482 0782 35010000 		.4byte	0x135
 7483 0786 00       		.byte	0
 7484 0787 00       		.byte	0
 7485 0788 03       		.uleb128 0x3
 7486 0789 4C290000 		.4byte	.LASF107
 7487 078d 0D       		.byte	0xd
 7488 078e 3D       		.byte	0x3d
 7489 078f 73070000 		.4byte	0x773
ARM GAS  /var/folders/sv/kgmgr77579zbf78p2zlhkdfr0000gn/T//ccOxe4My.s 			page 134


 7490 0793 14       		.uleb128 0x14
 7491 0794 04       		.byte	0x4
 7492 0795 09       		.byte	0x9
 7493 0796 FA       		.byte	0xfa
 7494 0797 F0070000 		.4byte	0x7f0
 7495 079b 15       		.uleb128 0x15
 7496 079c EB0E0000 		.4byte	.LASF108
 7497 07a0 09       		.byte	0x9
 7498 07a1 0101     		.2byte	0x101
 7499 07a3 77010000 		.4byte	0x177
 7500 07a7 15       		.uleb128 0x15
 7501 07a8 810C0000 		.4byte	.LASF109
 7502 07ac 09       		.byte	0x9
 7503 07ad 0801     		.2byte	0x108
 7504 07af 77010000 		.4byte	0x177
 7505 07b3 15       		.uleb128 0x15
 7506 07b4 F01F0000 		.4byte	.LASF110
 7507 07b8 09       		.byte	0x9
 7508 07b9 0F01     		.2byte	0x10f
 7509 07bb 9B030000 		.4byte	0x39b
 7510 07bf 15       		.uleb128 0x15
 7511 07c0 AD180000 		.4byte	.LASF111
 7512 07c4 09       		.byte	0x9
 7513 07c5 1601     		.2byte	0x116
 7514 07c7 F0070000 		.4byte	0x7f0
 7515 07cb 15       		.uleb128 0x15
 7516 07cc D0000000 		.4byte	.LASF112
 7517 07d0 09       		.byte	0x9
 7518 07d1 1E01     		.2byte	0x11e
 7519 07d3 1B080000 		.4byte	0x81b
 7520 07d7 15       		.uleb128 0x15
 7521 07d8 30200000 		.4byte	.LASF113
 7522 07dc 09       		.byte	0x9
 7523 07dd 2701     		.2byte	0x127
 7524 07df 52080000 		.4byte	0x852
 7525 07e3 15       		.uleb128 0x15
 7526 07e4 88250000 		.4byte	.LASF114
 7527 07e8 09       		.byte	0x9
 7528 07e9 2F01     		.2byte	0x12f
 7529 07eb 82010000 		.4byte	0x182
 7530 07ef 00       		.byte	0
 7531 07f0 0A       		.uleb128 0xa
 7532 07f1 04       		.byte	0x4
 7533 07f2 B3020000 		.4byte	0x2b3
 7534 07f6 06       		.uleb128 0x6
 7535 07f7 51170000 		.4byte	.LASF115
 7536 07fb 0C       		.byte	0xc
 7537 07fc 0E       		.byte	0xe
 7538 07fd 34       		.byte	0x34
 7539 07fe 1B080000 		.4byte	0x81b
 7540 0802 07       		.uleb128 0x7
 7541 0803 52270000 		.4byte	.LASF116
 7542 0807 0E       		.byte	0xe
 7543 0808 35       		.byte	0x35
 7544 0809 E8020000 		.4byte	0x2e8
 7545 080d 00       		.byte	0
 7546 080e 07       		.uleb128 0x7
ARM GAS  /var/folders/sv/kgmgr77579zbf78p2zlhkdfr0000gn/T//ccOxe4My.s 			page 135


 7547 080f F2070000 		.4byte	.LASF117
 7548 0813 0E       		.byte	0xe
 7549 0814 37       		.byte	0x37
 7550 0815 8D010000 		.4byte	0x18d
 7551 0819 08       		.byte	0x8
 7552 081a 00       		.byte	0
 7553 081b 0A       		.uleb128 0xa
 7554 081c 04       		.byte	0x4
 7555 081d F6070000 		.4byte	0x7f6
 7556 0821 06       		.uleb128 0x6
 7557 0822 D8090000 		.4byte	.LASF118
 7558 0826 10       		.byte	0x10
 7559 0827 0F       		.byte	0xf
 7560 0828 39       		.byte	0x39
 7561 0829 52080000 		.4byte	0x852
 7562 082d 07       		.uleb128 0x7
 7563 082e 25180000 		.4byte	.LASF119
 7564 0832 0F       		.byte	0xf
 7565 0833 3A       		.byte	0x3a
 7566 0834 E8020000 		.4byte	0x2e8
 7567 0838 00       		.byte	0
 7568 0839 07       		.uleb128 0x7
 7569 083a 75160000 		.4byte	.LASF120
 7570 083e 0F       		.byte	0xf
 7571 083f 3C       		.byte	0x3c
 7572 0840 BE020000 		.4byte	0x2be
 7573 0844 08       		.byte	0x8
 7574 0845 07       		.uleb128 0x7
 7575 0846 26010000 		.4byte	.LASF121
 7576 084a 0F       		.byte	0xf
 7577 084b 3E       		.byte	0x3e
 7578 084c 95080000 		.4byte	0x895
 7579 0850 0C       		.byte	0xc
 7580 0851 00       		.byte	0
 7581 0852 0A       		.uleb128 0xa
 7582 0853 04       		.byte	0x4
 7583 0854 21080000 		.4byte	0x821
 7584 0858 0A       		.uleb128 0xa
 7585 0859 04       		.byte	0x4
 7586 085a 65080000 		.4byte	0x865
 7587 085e 02       		.uleb128 0x2
 7588 085f 01       		.byte	0x1
 7589 0860 08       		.byte	0x8
 7590 0861 1F1B0000 		.4byte	.LASF122
 7591 0865 16       		.uleb128 0x16
 7592 0866 5E080000 		.4byte	0x85e
 7593 086a 05       		.uleb128 0x5
 7594 086b 98010000 		.4byte	0x198
 7595 086f 0A       		.uleb128 0xa
 7596 0870 04       		.byte	0x4
 7597 0871 9D030000 		.4byte	0x39d
 7598 0875 05       		.uleb128 0x5
 7599 0876 58080000 		.4byte	0x858
 7600 087a 17       		.uleb128 0x17
 7601 087b 08060000 		.4byte	0x608
 7602 087f 8A080000 		.4byte	0x88a
 7603 0883 18       		.uleb128 0x18
ARM GAS  /var/folders/sv/kgmgr77579zbf78p2zlhkdfr0000gn/T//ccOxe4My.s 			page 136


 7604 0884 D1040000 		.4byte	0x4d1
 7605 0888 3A       		.byte	0x3a
 7606 0889 00       		.byte	0
 7607 088a 03       		.uleb128 0x3
 7608 088b 2F230000 		.4byte	.LASF123
 7609 088f 0F       		.byte	0xf
 7610 0890 34       		.byte	0x34
 7611 0891 21080000 		.4byte	0x821
 7612 0895 0A       		.uleb128 0xa
 7613 0896 04       		.byte	0x4
 7614 0897 8A080000 		.4byte	0x88a
 7615 089b 19       		.uleb128 0x19
 7616 089c 01       		.byte	0x1
 7617 089d 49000000 		.4byte	0x49
 7618 08a1 10       		.byte	0x10
 7619 08a2 1C       		.byte	0x1c
 7620 08a3 C0080000 		.4byte	0x8c0
 7621 08a7 1A       		.uleb128 0x1a
 7622 08a8 86280000 		.4byte	.LASF124
 7623 08ac 00       		.byte	0
 7624 08ad 1A       		.uleb128 0x1a
 7625 08ae D0020000 		.4byte	.LASF125
 7626 08b2 01       		.byte	0x1
 7627 08b3 1A       		.uleb128 0x1a
 7628 08b4 FA120000 		.4byte	.LASF126
 7629 08b8 02       		.byte	0x2
 7630 08b9 1A       		.uleb128 0x1a
 7631 08ba D4030000 		.4byte	.LASF127
 7632 08be 03       		.byte	0x3
 7633 08bf 00       		.byte	0
 7634 08c0 03       		.uleb128 0x3
 7635 08c1 631C0000 		.4byte	.LASF128
 7636 08c5 10       		.byte	0x10
 7637 08c6 21       		.byte	0x21
 7638 08c7 9B080000 		.4byte	0x89b
 7639 08cb 19       		.uleb128 0x19
 7640 08cc 01       		.byte	0x1
 7641 08cd 49000000 		.4byte	0x49
 7642 08d1 10       		.byte	0x10
 7643 08d2 23       		.byte	0x23
 7644 08d3 EA080000 		.4byte	0x8ea
 7645 08d7 1A       		.uleb128 0x1a
 7646 08d8 CF260000 		.4byte	.LASF129
 7647 08dc 00       		.byte	0
 7648 08dd 1A       		.uleb128 0x1a
 7649 08de A41A0000 		.4byte	.LASF130
 7650 08e2 01       		.byte	0x1
 7651 08e3 1A       		.uleb128 0x1a
 7652 08e4 E8030000 		.4byte	.LASF131
 7653 08e8 02       		.byte	0x2
 7654 08e9 00       		.byte	0
 7655 08ea 03       		.uleb128 0x3
 7656 08eb F9030000 		.4byte	.LASF132
 7657 08ef 10       		.byte	0x10
 7658 08f0 27       		.byte	0x27
 7659 08f1 CB080000 		.4byte	0x8cb
 7660 08f5 19       		.uleb128 0x19
ARM GAS  /var/folders/sv/kgmgr77579zbf78p2zlhkdfr0000gn/T//ccOxe4My.s 			page 137


 7661 08f6 01       		.byte	0x1
 7662 08f7 49000000 		.4byte	0x49
 7663 08fb 10       		.byte	0x10
 7664 08fc 29       		.byte	0x29
 7665 08fd 0E090000 		.4byte	0x90e
 7666 0901 1A       		.uleb128 0x1a
 7667 0902 68180000 		.4byte	.LASF133
 7668 0906 00       		.byte	0
 7669 0907 1A       		.uleb128 0x1a
 7670 0908 522B0000 		.4byte	.LASF134
 7671 090c 01       		.byte	0x1
 7672 090d 00       		.byte	0
 7673 090e 03       		.uleb128 0x3
 7674 090f 61260000 		.4byte	.LASF135
 7675 0913 10       		.byte	0x10
 7676 0914 2C       		.byte	0x2c
 7677 0915 F5080000 		.4byte	0x8f5
 7678 0919 19       		.uleb128 0x19
 7679 091a 01       		.byte	0x1
 7680 091b 49000000 		.4byte	0x49
 7681 091f 10       		.byte	0x10
 7682 0920 2E       		.byte	0x2e
 7683 0921 38090000 		.4byte	0x938
 7684 0925 1A       		.uleb128 0x1a
 7685 0926 09210000 		.4byte	.LASF136
 7686 092a 00       		.byte	0
 7687 092b 1A       		.uleb128 0x1a
 7688 092c FB090000 		.4byte	.LASF137
 7689 0930 01       		.byte	0x1
 7690 0931 1A       		.uleb128 0x1a
 7691 0932 CA0A0000 		.4byte	.LASF138
 7692 0936 02       		.byte	0x2
 7693 0937 00       		.byte	0
 7694 0938 03       		.uleb128 0x3
 7695 0939 F3170000 		.4byte	.LASF139
 7696 093d 10       		.byte	0x10
 7697 093e 32       		.byte	0x32
 7698 093f 19090000 		.4byte	0x919
 7699 0943 19       		.uleb128 0x19
 7700 0944 01       		.byte	0x1
 7701 0945 49000000 		.4byte	0x49
 7702 0949 10       		.byte	0x10
 7703 094a 34       		.byte	0x34
 7704 094b 62090000 		.4byte	0x962
 7705 094f 1A       		.uleb128 0x1a
 7706 0950 A5170000 		.4byte	.LASF140
 7707 0954 00       		.byte	0
 7708 0955 1A       		.uleb128 0x1a
 7709 0956 E0050000 		.4byte	.LASF141
 7710 095a 01       		.byte	0x1
 7711 095b 1A       		.uleb128 0x1a
 7712 095c 53240000 		.4byte	.LASF142
 7713 0960 02       		.byte	0x2
 7714 0961 00       		.byte	0
 7715 0962 03       		.uleb128 0x3
 7716 0963 EE290000 		.4byte	.LASF143
 7717 0967 10       		.byte	0x10
ARM GAS  /var/folders/sv/kgmgr77579zbf78p2zlhkdfr0000gn/T//ccOxe4My.s 			page 138


 7718 0968 38       		.byte	0x38
 7719 0969 43090000 		.4byte	0x943
 7720 096d 19       		.uleb128 0x19
 7721 096e 01       		.byte	0x1
 7722 096f 49000000 		.4byte	0x49
 7723 0973 10       		.byte	0x10
 7724 0974 3A       		.byte	0x3a
 7725 0975 92090000 		.4byte	0x992
 7726 0979 1A       		.uleb128 0x1a
 7727 097a B52A0000 		.4byte	.LASF144
 7728 097e 00       		.byte	0
 7729 097f 1A       		.uleb128 0x1a
 7730 0980 C00F0000 		.4byte	.LASF145
 7731 0984 01       		.byte	0x1
 7732 0985 1A       		.uleb128 0x1a
 7733 0986 D9120000 		.4byte	.LASF146
 7734 098a 02       		.byte	0x2
 7735 098b 1A       		.uleb128 0x1a
 7736 098c 0D0E0000 		.4byte	.LASF147
 7737 0990 03       		.byte	0x3
 7738 0991 00       		.byte	0
 7739 0992 03       		.uleb128 0x3
 7740 0993 37200000 		.4byte	.LASF148
 7741 0997 10       		.byte	0x10
 7742 0998 3F       		.byte	0x3f
 7743 0999 6D090000 		.4byte	0x96d
 7744 099d 19       		.uleb128 0x19
 7745 099e 01       		.byte	0x1
 7746 099f 49000000 		.4byte	0x49
 7747 09a3 10       		.byte	0x10
 7748 09a4 41       		.byte	0x41
 7749 09a5 D4090000 		.4byte	0x9d4
 7750 09a9 1A       		.uleb128 0x1a
 7751 09aa 711E0000 		.4byte	.LASF149
 7752 09ae 00       		.byte	0
 7753 09af 1A       		.uleb128 0x1a
 7754 09b0 800E0000 		.4byte	.LASF150
 7755 09b4 01       		.byte	0x1
 7756 09b5 1A       		.uleb128 0x1a
 7757 09b6 C01D0000 		.4byte	.LASF151
 7758 09ba 02       		.byte	0x2
 7759 09bb 1A       		.uleb128 0x1a
 7760 09bc 7F070000 		.4byte	.LASF152
 7761 09c0 03       		.byte	0x3
 7762 09c1 1A       		.uleb128 0x1a
 7763 09c2 4D090000 		.4byte	.LASF153
 7764 09c6 04       		.byte	0x4
 7765 09c7 1A       		.uleb128 0x1a
 7766 09c8 B4030000 		.4byte	.LASF154
 7767 09cc 05       		.byte	0x5
 7768 09cd 1A       		.uleb128 0x1a
 7769 09ce FE150000 		.4byte	.LASF155
 7770 09d2 06       		.byte	0x6
 7771 09d3 00       		.byte	0
 7772 09d4 03       		.uleb128 0x3
 7773 09d5 61270000 		.4byte	.LASF156
 7774 09d9 10       		.byte	0x10
ARM GAS  /var/folders/sv/kgmgr77579zbf78p2zlhkdfr0000gn/T//ccOxe4My.s 			page 139


 7775 09da 49       		.byte	0x49
 7776 09db 9D090000 		.4byte	0x99d
 7777 09df 19       		.uleb128 0x19
 7778 09e0 01       		.byte	0x1
 7779 09e1 49000000 		.4byte	0x49
 7780 09e5 10       		.byte	0x10
 7781 09e6 60       		.byte	0x60
 7782 09e7 FE090000 		.4byte	0x9fe
 7783 09eb 1A       		.uleb128 0x1a
 7784 09ec 85170000 		.4byte	.LASF157
 7785 09f0 00       		.byte	0
 7786 09f1 1A       		.uleb128 0x1a
 7787 09f2 220B0000 		.4byte	.LASF158
 7788 09f6 01       		.byte	0x1
 7789 09f7 1A       		.uleb128 0x1a
 7790 09f8 B00B0000 		.4byte	.LASF159
 7791 09fc 02       		.byte	0x2
 7792 09fd 00       		.byte	0
 7793 09fe 03       		.uleb128 0x3
 7794 09ff D1290000 		.4byte	.LASF160
 7795 0a03 10       		.byte	0x10
 7796 0a04 64       		.byte	0x64
 7797 0a05 DF090000 		.4byte	0x9df
 7798 0a09 19       		.uleb128 0x19
 7799 0a0a 01       		.byte	0x1
 7800 0a0b 49000000 		.4byte	0x49
 7801 0a0f 10       		.byte	0x10
 7802 0a10 70       		.byte	0x70
 7803 0a11 2E0A0000 		.4byte	0xa2e
 7804 0a15 1A       		.uleb128 0x1a
 7805 0a16 94030000 		.4byte	.LASF161
 7806 0a1a 00       		.byte	0
 7807 0a1b 1A       		.uleb128 0x1a
 7808 0a1c F71F0000 		.4byte	.LASF162
 7809 0a20 01       		.byte	0x1
 7810 0a21 1A       		.uleb128 0x1a
 7811 0a22 30060000 		.4byte	.LASF163
 7812 0a26 02       		.byte	0x2
 7813 0a27 1A       		.uleb128 0x1a
 7814 0a28 FA260000 		.4byte	.LASF164
 7815 0a2c 03       		.byte	0x3
 7816 0a2d 00       		.byte	0
 7817 0a2e 03       		.uleb128 0x3
 7818 0a2f D41A0000 		.4byte	.LASF165
 7819 0a33 10       		.byte	0x10
 7820 0a34 75       		.byte	0x75
 7821 0a35 090A0000 		.4byte	0xa09
 7822 0a39 19       		.uleb128 0x19
 7823 0a3a 01       		.byte	0x1
 7824 0a3b 49000000 		.4byte	0x49
 7825 0a3f 10       		.byte	0x10
 7826 0a40 77       		.byte	0x77
 7827 0a41 760A0000 		.4byte	0xa76
 7828 0a45 1A       		.uleb128 0x1a
 7829 0a46 571D0000 		.4byte	.LASF166
 7830 0a4a 00       		.byte	0
 7831 0a4b 1A       		.uleb128 0x1a
ARM GAS  /var/folders/sv/kgmgr77579zbf78p2zlhkdfr0000gn/T//ccOxe4My.s 			page 140


 7832 0a4c 45200000 		.4byte	.LASF167
 7833 0a50 01       		.byte	0x1
 7834 0a51 1A       		.uleb128 0x1a
 7835 0a52 5D0F0000 		.4byte	.LASF168
 7836 0a56 02       		.byte	0x2
 7837 0a57 1A       		.uleb128 0x1a
 7838 0a58 6A1F0000 		.4byte	.LASF169
 7839 0a5c 03       		.byte	0x3
 7840 0a5d 1A       		.uleb128 0x1a
 7841 0a5e CC0B0000 		.4byte	.LASF170
 7842 0a62 04       		.byte	0x4
 7843 0a63 1A       		.uleb128 0x1a
 7844 0a64 FB220000 		.4byte	.LASF171
 7845 0a68 05       		.byte	0x5
 7846 0a69 1A       		.uleb128 0x1a
 7847 0a6a 8A1E0000 		.4byte	.LASF172
 7848 0a6e 06       		.byte	0x6
 7849 0a6f 1A       		.uleb128 0x1a
 7850 0a70 B8120000 		.4byte	.LASF173
 7851 0a74 07       		.byte	0x7
 7852 0a75 00       		.byte	0
 7853 0a76 03       		.uleb128 0x3
 7854 0a77 6F270000 		.4byte	.LASF174
 7855 0a7b 10       		.byte	0x10
 7856 0a7c 80       		.byte	0x80
 7857 0a7d 390A0000 		.4byte	0xa39
 7858 0a81 1B       		.uleb128 0x1b
 7859 0a82 7401     		.2byte	0x174
 7860 0a84 10       		.byte	0x10
 7861 0a85 89       		.byte	0x89
 7862 0a86 360F0000 		.4byte	0xf36
 7863 0a8a 07       		.uleb128 0x7
 7864 0a8b 19110000 		.4byte	.LASF175
 7865 0a8f 10       		.byte	0x10
 7866 0a90 8B       		.byte	0x8b
 7867 0a91 EA080000 		.4byte	0x8ea
 7868 0a95 00       		.byte	0
 7869 0a96 07       		.uleb128 0x7
 7870 0a97 1D090000 		.4byte	.LASF176
 7871 0a9b 10       		.byte	0x10
 7872 0a9c 8C       		.byte	0x8c
 7873 0a9d 0E090000 		.4byte	0x90e
 7874 0aa1 01       		.byte	0x1
 7875 0aa2 07       		.uleb128 0x7
 7876 0aa3 40110000 		.4byte	.LASF177
 7877 0aa7 10       		.byte	0x10
 7878 0aa8 8D       		.byte	0x8d
 7879 0aa9 92090000 		.4byte	0x992
 7880 0aad 02       		.byte	0x2
 7881 0aae 07       		.uleb128 0x7
 7882 0aaf FD200000 		.4byte	.LASF178
 7883 0ab3 10       		.byte	0x10
 7884 0ab4 8E       		.byte	0x8e
 7885 0ab5 38090000 		.4byte	0x938
 7886 0ab9 03       		.byte	0x3
 7887 0aba 07       		.uleb128 0x7
 7888 0abb 34170000 		.4byte	.LASF179
ARM GAS  /var/folders/sv/kgmgr77579zbf78p2zlhkdfr0000gn/T//ccOxe4My.s 			page 141


 7889 0abf 10       		.byte	0x10
 7890 0ac0 90       		.byte	0x90
 7891 0ac1 25000000 		.4byte	0x25
 7892 0ac5 04       		.byte	0x4
 7893 0ac6 07       		.uleb128 0x7
 7894 0ac7 711D0000 		.4byte	.LASF180
 7895 0acb 10       		.byte	0x10
 7896 0acc 91       		.byte	0x91
 7897 0acd 25000000 		.4byte	0x25
 7898 0ad1 08       		.byte	0x8
 7899 0ad2 07       		.uleb128 0x7
 7900 0ad3 BD280000 		.4byte	.LASF181
 7901 0ad7 10       		.byte	0x10
 7902 0ad8 92       		.byte	0x92
 7903 0ad9 25000000 		.4byte	0x25
 7904 0add 0C       		.byte	0xc
 7905 0ade 07       		.uleb128 0x7
 7906 0adf 4B010000 		.4byte	.LASF182
 7907 0ae3 10       		.byte	0x10
 7908 0ae4 93       		.byte	0x93
 7909 0ae5 25000000 		.4byte	0x25
 7910 0ae9 10       		.byte	0x10
 7911 0aea 07       		.uleb128 0x7
 7912 0aeb 1E000000 		.4byte	.LASF183
 7913 0aef 10       		.byte	0x10
 7914 0af0 94       		.byte	0x94
 7915 0af1 25000000 		.4byte	0x25
 7916 0af5 14       		.byte	0x14
 7917 0af6 07       		.uleb128 0x7
 7918 0af7 45020000 		.4byte	.LASF184
 7919 0afb 10       		.byte	0x10
 7920 0afc 95       		.byte	0x95
 7921 0afd 25000000 		.4byte	0x25
 7922 0b01 18       		.byte	0x18
 7923 0b02 07       		.uleb128 0x7
 7924 0b03 5F150000 		.4byte	.LASF185
 7925 0b07 10       		.byte	0x10
 7926 0b08 96       		.byte	0x96
 7927 0b09 25000000 		.4byte	0x25
 7928 0b0d 1C       		.byte	0x1c
 7929 0b0e 07       		.uleb128 0x7
 7930 0b0f A9160000 		.4byte	.LASF186
 7931 0b13 10       		.byte	0x10
 7932 0b14 97       		.byte	0x97
 7933 0b15 25000000 		.4byte	0x25
 7934 0b19 20       		.byte	0x20
 7935 0b1a 07       		.uleb128 0x7
 7936 0b1b 0C000000 		.4byte	.LASF187
 7937 0b1f 10       		.byte	0x10
 7938 0b20 98       		.byte	0x98
 7939 0b21 25000000 		.4byte	0x25
 7940 0b25 24       		.byte	0x24
 7941 0b26 07       		.uleb128 0x7
 7942 0b27 14280000 		.4byte	.LASF188
 7943 0b2b 10       		.byte	0x10
 7944 0b2c 99       		.byte	0x99
 7945 0b2d 25000000 		.4byte	0x25
ARM GAS  /var/folders/sv/kgmgr77579zbf78p2zlhkdfr0000gn/T//ccOxe4My.s 			page 142


 7946 0b31 28       		.byte	0x28
 7947 0b32 07       		.uleb128 0x7
 7948 0b33 6B0D0000 		.4byte	.LASF189
 7949 0b37 10       		.byte	0x10
 7950 0b38 9A       		.byte	0x9a
 7951 0b39 25000000 		.4byte	0x25
 7952 0b3d 2C       		.byte	0x2c
 7953 0b3e 07       		.uleb128 0x7
 7954 0b3f 770C0000 		.4byte	.LASF190
 7955 0b43 10       		.byte	0x10
 7956 0b44 9B       		.byte	0x9b
 7957 0b45 25000000 		.4byte	0x25
 7958 0b49 30       		.byte	0x30
 7959 0b4a 07       		.uleb128 0x7
 7960 0b4b 210D0000 		.4byte	.LASF191
 7961 0b4f 10       		.byte	0x10
 7962 0b50 9C       		.byte	0x9c
 7963 0b51 25000000 		.4byte	0x25
 7964 0b55 34       		.byte	0x34
 7965 0b56 07       		.uleb128 0x7
 7966 0b57 4D0D0000 		.4byte	.LASF192
 7967 0b5b 10       		.byte	0x10
 7968 0b5c 9D       		.byte	0x9d
 7969 0b5d 25000000 		.4byte	0x25
 7970 0b61 38       		.byte	0x38
 7971 0b62 07       		.uleb128 0x7
 7972 0b63 38010000 		.4byte	.LASF193
 7973 0b67 10       		.byte	0x10
 7974 0b68 9E       		.byte	0x9e
 7975 0b69 360F0000 		.4byte	0xf36
 7976 0b6d 3C       		.byte	0x3c
 7977 0b6e 07       		.uleb128 0x7
 7978 0b6f C0080000 		.4byte	.LASF194
 7979 0b73 10       		.byte	0x10
 7980 0b74 9F       		.byte	0x9f
 7981 0b75 25000000 		.4byte	0x25
 7982 0b79 40       		.byte	0x40
 7983 0b7a 07       		.uleb128 0x7
 7984 0b7b 07030000 		.4byte	.LASF195
 7985 0b7f 10       		.byte	0x10
 7986 0b80 A0       		.byte	0xa0
 7987 0b81 25000000 		.4byte	0x25
 7988 0b85 44       		.byte	0x44
 7989 0b86 07       		.uleb128 0x7
 7990 0b87 5F100000 		.4byte	.LASF196
 7991 0b8b 10       		.byte	0x10
 7992 0b8c A1       		.byte	0xa1
 7993 0b8d 25000000 		.4byte	0x25
 7994 0b91 48       		.byte	0x48
 7995 0b92 07       		.uleb128 0x7
 7996 0b93 BC200000 		.4byte	.LASF197
 7997 0b97 10       		.byte	0x10
 7998 0b98 A2       		.byte	0xa2
 7999 0b99 25000000 		.4byte	0x25
 8000 0b9d 4C       		.byte	0x4c
 8001 0b9e 07       		.uleb128 0x7
 8002 0b9f C51B0000 		.4byte	.LASF198
ARM GAS  /var/folders/sv/kgmgr77579zbf78p2zlhkdfr0000gn/T//ccOxe4My.s 			page 143


 8003 0ba3 10       		.byte	0x10
 8004 0ba4 A3       		.byte	0xa3
 8005 0ba5 25000000 		.4byte	0x25
 8006 0ba9 50       		.byte	0x50
 8007 0baa 07       		.uleb128 0x7
 8008 0bab B4290000 		.4byte	.LASF199
 8009 0baf 10       		.byte	0x10
 8010 0bb0 A4       		.byte	0xa4
 8011 0bb1 25000000 		.4byte	0x25
 8012 0bb5 54       		.byte	0x54
 8013 0bb6 07       		.uleb128 0x7
 8014 0bb7 270F0000 		.4byte	.LASF200
 8015 0bbb 10       		.byte	0x10
 8016 0bbc A5       		.byte	0xa5
 8017 0bbd 25000000 		.4byte	0x25
 8018 0bc1 58       		.byte	0x58
 8019 0bc2 07       		.uleb128 0x7
 8020 0bc3 44080000 		.4byte	.LASF201
 8021 0bc7 10       		.byte	0x10
 8022 0bc8 A6       		.byte	0xa6
 8023 0bc9 25000000 		.4byte	0x25
 8024 0bcd 5C       		.byte	0x5c
 8025 0bce 07       		.uleb128 0x7
 8026 0bcf 09280000 		.4byte	.LASF202
 8027 0bd3 10       		.byte	0x10
 8028 0bd4 A7       		.byte	0xa7
 8029 0bd5 25000000 		.4byte	0x25
 8030 0bd9 60       		.byte	0x60
 8031 0bda 07       		.uleb128 0x7
 8032 0bdb EF0A0000 		.4byte	.LASF203
 8033 0bdf 10       		.byte	0x10
 8034 0be0 A9       		.byte	0xa9
 8035 0be1 25000000 		.4byte	0x25
 8036 0be5 64       		.byte	0x64
 8037 0be6 07       		.uleb128 0x7
 8038 0be7 4B110000 		.4byte	.LASF204
 8039 0beb 10       		.byte	0x10
 8040 0bec AA       		.byte	0xaa
 8041 0bed 25000000 		.4byte	0x25
 8042 0bf1 68       		.byte	0x68
 8043 0bf2 07       		.uleb128 0x7
 8044 0bf3 E6230000 		.4byte	.LASF205
 8045 0bf7 10       		.byte	0x10
 8046 0bf8 AB       		.byte	0xab
 8047 0bf9 25000000 		.4byte	0x25
 8048 0bfd 6C       		.byte	0x6c
 8049 0bfe 07       		.uleb128 0x7
 8050 0bff 7E290000 		.4byte	.LASF206
 8051 0c03 10       		.byte	0x10
 8052 0c04 AC       		.byte	0xac
 8053 0c05 25000000 		.4byte	0x25
 8054 0c09 70       		.byte	0x70
 8055 0c0a 07       		.uleb128 0x7
 8056 0c0b C71E0000 		.4byte	.LASF207
 8057 0c0f 10       		.byte	0x10
 8058 0c10 AD       		.byte	0xad
 8059 0c11 25000000 		.4byte	0x25
ARM GAS  /var/folders/sv/kgmgr77579zbf78p2zlhkdfr0000gn/T//ccOxe4My.s 			page 144


 8060 0c15 74       		.byte	0x74
 8061 0c16 07       		.uleb128 0x7
 8062 0c17 500C0000 		.4byte	.LASF208
 8063 0c1b 10       		.byte	0x10
 8064 0c1c AE       		.byte	0xae
 8065 0c1d 25000000 		.4byte	0x25
 8066 0c21 78       		.byte	0x78
 8067 0c22 07       		.uleb128 0x7
 8068 0c23 1C0E0000 		.4byte	.LASF209
 8069 0c27 10       		.byte	0x10
 8070 0c28 B0       		.byte	0xb0
 8071 0c29 25000000 		.4byte	0x25
 8072 0c2d 7C       		.byte	0x7c
 8073 0c2e 07       		.uleb128 0x7
 8074 0c2f B4040000 		.4byte	.LASF210
 8075 0c33 10       		.byte	0x10
 8076 0c34 B1       		.byte	0xb1
 8077 0c35 25000000 		.4byte	0x25
 8078 0c39 80       		.byte	0x80
 8079 0c3a 07       		.uleb128 0x7
 8080 0c3b 5A110000 		.4byte	.LASF211
 8081 0c3f 10       		.byte	0x10
 8082 0c40 B2       		.byte	0xb2
 8083 0c41 25000000 		.4byte	0x25
 8084 0c45 84       		.byte	0x84
 8085 0c46 07       		.uleb128 0x7
 8086 0c47 7F130000 		.4byte	.LASF212
 8087 0c4b 10       		.byte	0x10
 8088 0c4c B3       		.byte	0xb3
 8089 0c4d 25000000 		.4byte	0x25
 8090 0c51 88       		.byte	0x88
 8091 0c52 07       		.uleb128 0x7
 8092 0c53 87100000 		.4byte	.LASF213
 8093 0c57 10       		.byte	0x10
 8094 0c58 B4       		.byte	0xb4
 8095 0c59 25000000 		.4byte	0x25
 8096 0c5d 8C       		.byte	0x8c
 8097 0c5e 07       		.uleb128 0x7
 8098 0c5f F7250000 		.4byte	.LASF214
 8099 0c63 10       		.byte	0x10
 8100 0c64 B5       		.byte	0xb5
 8101 0c65 25000000 		.4byte	0x25
 8102 0c69 90       		.byte	0x90
 8103 0c6a 07       		.uleb128 0x7
 8104 0c6b 711B0000 		.4byte	.LASF215
 8105 0c6f 10       		.byte	0x10
 8106 0c70 B6       		.byte	0xb6
 8107 0c71 25000000 		.4byte	0x25
 8108 0c75 94       		.byte	0x94
 8109 0c76 07       		.uleb128 0x7
 8110 0c77 47120000 		.4byte	.LASF216
 8111 0c7b 10       		.byte	0x10
 8112 0c7c B8       		.byte	0xb8
 8113 0c7d 3D0F0000 		.4byte	0xf3d
 8114 0c81 98       		.byte	0x98
 8115 0c82 07       		.uleb128 0x7
 8116 0c83 441E0000 		.4byte	.LASF217
ARM GAS  /var/folders/sv/kgmgr77579zbf78p2zlhkdfr0000gn/T//ccOxe4My.s 			page 145


 8117 0c87 10       		.byte	0x10
 8118 0c88 B9       		.byte	0xb9
 8119 0c89 25000000 		.4byte	0x25
 8120 0c8d A0       		.byte	0xa0
 8121 0c8e 07       		.uleb128 0x7
 8122 0c8f DF040000 		.4byte	.LASF218
 8123 0c93 10       		.byte	0x10
 8124 0c94 BB       		.byte	0xbb
 8125 0c95 25000000 		.4byte	0x25
 8126 0c99 A4       		.byte	0xa4
 8127 0c9a 07       		.uleb128 0x7
 8128 0c9b D0040000 		.4byte	.LASF219
 8129 0c9f 10       		.byte	0x10
 8130 0ca0 BC       		.byte	0xbc
 8131 0ca1 25000000 		.4byte	0x25
 8132 0ca5 A8       		.byte	0xa8
 8133 0ca6 07       		.uleb128 0x7
 8134 0ca7 62080000 		.4byte	.LASF220
 8135 0cab 10       		.byte	0x10
 8136 0cac BD       		.byte	0xbd
 8137 0cad 25000000 		.4byte	0x25
 8138 0cb1 AC       		.byte	0xac
 8139 0cb2 07       		.uleb128 0x7
 8140 0cb3 96240000 		.4byte	.LASF221
 8141 0cb7 10       		.byte	0x10
 8142 0cb8 BE       		.byte	0xbe
 8143 0cb9 25000000 		.4byte	0x25
 8144 0cbd B0       		.byte	0xb0
 8145 0cbe 07       		.uleb128 0x7
 8146 0cbf 7B020000 		.4byte	.LASF222
 8147 0cc3 10       		.byte	0x10
 8148 0cc4 BF       		.byte	0xbf
 8149 0cc5 25000000 		.4byte	0x25
 8150 0cc9 B4       		.byte	0xb4
 8151 0cca 07       		.uleb128 0x7
 8152 0ccb FE0A0000 		.4byte	.LASF223
 8153 0ccf 10       		.byte	0x10
 8154 0cd0 C0       		.byte	0xc0
 8155 0cd1 360F0000 		.4byte	0xf36
 8156 0cd5 B8       		.byte	0xb8
 8157 0cd6 07       		.uleb128 0x7
 8158 0cd7 4E190000 		.4byte	.LASF224
 8159 0cdb 10       		.byte	0x10
 8160 0cdc C1       		.byte	0xc1
 8161 0cdd 25000000 		.4byte	0x25
 8162 0ce1 BC       		.byte	0xbc
 8163 0ce2 07       		.uleb128 0x7
 8164 0ce3 67070000 		.4byte	.LASF225
 8165 0ce7 10       		.byte	0x10
 8166 0ce8 C2       		.byte	0xc2
 8167 0ce9 25000000 		.4byte	0x25
 8168 0ced C0       		.byte	0xc0
 8169 0cee 07       		.uleb128 0x7
 8170 0cef 73070000 		.4byte	.LASF226
 8171 0cf3 10       		.byte	0x10
 8172 0cf4 C3       		.byte	0xc3
 8173 0cf5 25000000 		.4byte	0x25
ARM GAS  /var/folders/sv/kgmgr77579zbf78p2zlhkdfr0000gn/T//ccOxe4My.s 			page 146


 8174 0cf9 C4       		.byte	0xc4
 8175 0cfa 07       		.uleb128 0x7
 8176 0cfb 36130000 		.4byte	.LASF227
 8177 0cff 10       		.byte	0x10
 8178 0d00 C4       		.byte	0xc4
 8179 0d01 25000000 		.4byte	0x25
 8180 0d05 C8       		.byte	0xc8
 8181 0d06 07       		.uleb128 0x7
 8182 0d07 69090000 		.4byte	.LASF228
 8183 0d0b 10       		.byte	0x10
 8184 0d0c C5       		.byte	0xc5
 8185 0d0d 25000000 		.4byte	0x25
 8186 0d11 CC       		.byte	0xcc
 8187 0d12 07       		.uleb128 0x7
 8188 0d13 88000000 		.4byte	.LASF229
 8189 0d17 10       		.byte	0x10
 8190 0d18 C6       		.byte	0xc6
 8191 0d19 25000000 		.4byte	0x25
 8192 0d1d D0       		.byte	0xd0
 8193 0d1e 07       		.uleb128 0x7
 8194 0d1f 5F1F0000 		.4byte	.LASF230
 8195 0d23 10       		.byte	0x10
 8196 0d24 C7       		.byte	0xc7
 8197 0d25 25000000 		.4byte	0x25
 8198 0d29 D4       		.byte	0xd4
 8199 0d2a 07       		.uleb128 0x7
 8200 0d2b 421F0000 		.4byte	.LASF231
 8201 0d2f 10       		.byte	0x10
 8202 0d30 C8       		.byte	0xc8
 8203 0d31 25000000 		.4byte	0x25
 8204 0d35 D8       		.byte	0xd8
 8205 0d36 07       		.uleb128 0x7
 8206 0d37 7D160000 		.4byte	.LASF232
 8207 0d3b 10       		.byte	0x10
 8208 0d3c C9       		.byte	0xc9
 8209 0d3d 25000000 		.4byte	0x25
 8210 0d41 DC       		.byte	0xdc
 8211 0d42 07       		.uleb128 0x7
 8212 0d43 4E160000 		.4byte	.LASF233
 8213 0d47 10       		.byte	0x10
 8214 0d48 CA       		.byte	0xca
 8215 0d49 25000000 		.4byte	0x25
 8216 0d4d E0       		.byte	0xe0
 8217 0d4e 07       		.uleb128 0x7
 8218 0d4f 191F0000 		.4byte	.LASF234
 8219 0d53 10       		.byte	0x10
 8220 0d54 CB       		.byte	0xcb
 8221 0d55 25000000 		.4byte	0x25
 8222 0d59 E4       		.byte	0xe4
 8223 0d5a 07       		.uleb128 0x7
 8224 0d5b 78230000 		.4byte	.LASF235
 8225 0d5f 10       		.byte	0x10
 8226 0d60 CC       		.byte	0xcc
 8227 0d61 25000000 		.4byte	0x25
 8228 0d65 E8       		.byte	0xe8
 8229 0d66 07       		.uleb128 0x7
 8230 0d67 37290000 		.4byte	.LASF236
ARM GAS  /var/folders/sv/kgmgr77579zbf78p2zlhkdfr0000gn/T//ccOxe4My.s 			page 147


 8231 0d6b 10       		.byte	0x10
 8232 0d6c CD       		.byte	0xcd
 8233 0d6d 25000000 		.4byte	0x25
 8234 0d71 EC       		.byte	0xec
 8235 0d72 07       		.uleb128 0x7
 8236 0d73 FD110000 		.4byte	.LASF237
 8237 0d77 10       		.byte	0x10
 8238 0d78 CE       		.byte	0xce
 8239 0d79 25000000 		.4byte	0x25
 8240 0d7d F0       		.byte	0xf0
 8241 0d7e 07       		.uleb128 0x7
 8242 0d7f 2A1F0000 		.4byte	.LASF238
 8243 0d83 10       		.byte	0x10
 8244 0d84 CF       		.byte	0xcf
 8245 0d85 25000000 		.4byte	0x25
 8246 0d89 F4       		.byte	0xf4
 8247 0d8a 07       		.uleb128 0x7
 8248 0d8b 17240000 		.4byte	.LASF239
 8249 0d8f 10       		.byte	0x10
 8250 0d90 D0       		.byte	0xd0
 8251 0d91 62090000 		.4byte	0x962
 8252 0d95 F8       		.byte	0xf8
 8253 0d96 07       		.uleb128 0x7
 8254 0d97 B60D0000 		.4byte	.LASF240
 8255 0d9b 10       		.byte	0x10
 8256 0d9c D1       		.byte	0xd1
 8257 0d9d 4D0F0000 		.4byte	0xf4d
 8258 0da1 F9       		.byte	0xf9
 8259 0da2 1C       		.uleb128 0x1c
 8260 0da3 E70F0000 		.4byte	.LASF241
 8261 0da7 10       		.byte	0x10
 8262 0da8 D2       		.byte	0xd2
 8263 0da9 25000000 		.4byte	0x25
 8264 0dad 0401     		.2byte	0x104
 8265 0daf 1C       		.uleb128 0x1c
 8266 0db0 422A0000 		.4byte	.LASF242
 8267 0db4 10       		.byte	0x10
 8268 0db5 D3       		.byte	0xd3
 8269 0db6 360F0000 		.4byte	0xf36
 8270 0dba 0801     		.2byte	0x108
 8271 0dbc 1C       		.uleb128 0x1c
 8272 0dbd 38260000 		.4byte	.LASF243
 8273 0dc1 10       		.byte	0x10
 8274 0dc2 D4       		.byte	0xd4
 8275 0dc3 360F0000 		.4byte	0xf36
 8276 0dc7 0901     		.2byte	0x109
 8277 0dc9 1C       		.uleb128 0x1c
 8278 0dca C3240000 		.4byte	.LASF244
 8279 0dce 10       		.byte	0x10
 8280 0dcf D5       		.byte	0xd5
 8281 0dd0 25000000 		.4byte	0x25
 8282 0dd4 0C01     		.2byte	0x10c
 8283 0dd6 1C       		.uleb128 0x1c
 8284 0dd7 E41A0000 		.4byte	.LASF245
 8285 0ddb 10       		.byte	0x10
 8286 0ddc D6       		.byte	0xd6
 8287 0ddd 360F0000 		.4byte	0xf36
ARM GAS  /var/folders/sv/kgmgr77579zbf78p2zlhkdfr0000gn/T//ccOxe4My.s 			page 148


 8288 0de1 1001     		.2byte	0x110
 8289 0de3 1C       		.uleb128 0x1c
 8290 0de4 D8200000 		.4byte	.LASF246
 8291 0de8 10       		.byte	0x10
 8292 0de9 D7       		.byte	0xd7
 8293 0dea 25000000 		.4byte	0x25
 8294 0dee 1401     		.2byte	0x114
 8295 0df0 1C       		.uleb128 0x1c
 8296 0df1 AE1E0000 		.4byte	.LASF247
 8297 0df5 10       		.byte	0x10
 8298 0df6 D9       		.byte	0xd9
 8299 0df7 25000000 		.4byte	0x25
 8300 0dfb 1801     		.2byte	0x118
 8301 0dfd 1C       		.uleb128 0x1c
 8302 0dfe 811E0000 		.4byte	.LASF248
 8303 0e02 10       		.byte	0x10
 8304 0e03 DA       		.byte	0xda
 8305 0e04 25000000 		.4byte	0x25
 8306 0e08 1C01     		.2byte	0x11c
 8307 0e0a 1C       		.uleb128 0x1c
 8308 0e0b EE060000 		.4byte	.LASF249
 8309 0e0f 10       		.byte	0x10
 8310 0e10 DB       		.byte	0xdb
 8311 0e11 25000000 		.4byte	0x25
 8312 0e15 2001     		.2byte	0x120
 8313 0e17 1C       		.uleb128 0x1c
 8314 0e18 D3070000 		.4byte	.LASF250
 8315 0e1c 10       		.byte	0x10
 8316 0e1d DC       		.byte	0xdc
 8317 0e1e 25000000 		.4byte	0x25
 8318 0e22 2401     		.2byte	0x124
 8319 0e24 1C       		.uleb128 0x1c
 8320 0e25 E1090000 		.4byte	.LASF251
 8321 0e29 10       		.byte	0x10
 8322 0e2a DD       		.byte	0xdd
 8323 0e2b 360F0000 		.4byte	0xf36
 8324 0e2f 2801     		.2byte	0x128
 8325 0e31 1C       		.uleb128 0x1c
 8326 0e32 6F1A0000 		.4byte	.LASF252
 8327 0e36 10       		.byte	0x10
 8328 0e37 DF       		.byte	0xdf
 8329 0e38 25000000 		.4byte	0x25
 8330 0e3c 2C01     		.2byte	0x12c
 8331 0e3e 1C       		.uleb128 0x1c
 8332 0e3f 661A0000 		.4byte	.LASF253
 8333 0e43 10       		.byte	0x10
 8334 0e44 E0       		.byte	0xe0
 8335 0e45 25000000 		.4byte	0x25
 8336 0e49 3001     		.2byte	0x130
 8337 0e4b 1C       		.uleb128 0x1c
 8338 0e4c 5D1A0000 		.4byte	.LASF254
 8339 0e50 10       		.byte	0x10
 8340 0e51 E1       		.byte	0xe1
 8341 0e52 25000000 		.4byte	0x25
 8342 0e56 3401     		.2byte	0x134
 8343 0e58 1C       		.uleb128 0x1c
 8344 0e59 1A290000 		.4byte	.LASF255
ARM GAS  /var/folders/sv/kgmgr77579zbf78p2zlhkdfr0000gn/T//ccOxe4My.s 			page 149


 8345 0e5d 10       		.byte	0x10
 8346 0e5e E2       		.byte	0xe2
 8347 0e5f 25000000 		.4byte	0x25
 8348 0e63 3801     		.2byte	0x138
 8349 0e65 1C       		.uleb128 0x1c
 8350 0e66 10020000 		.4byte	.LASF256
 8351 0e6a 10       		.byte	0x10
 8352 0e6b E4       		.byte	0xe4
 8353 0e6c 25000000 		.4byte	0x25
 8354 0e70 3C01     		.2byte	0x13c
 8355 0e72 1C       		.uleb128 0x1c
 8356 0e73 130B0000 		.4byte	.LASF257
 8357 0e77 10       		.byte	0x10
 8358 0e78 E5       		.byte	0xe5
 8359 0e79 25000000 		.4byte	0x25
 8360 0e7d 4001     		.2byte	0x140
 8361 0e7f 1C       		.uleb128 0x1c
 8362 0e80 C4100000 		.4byte	.LASF258
 8363 0e84 10       		.byte	0x10
 8364 0e85 E6       		.byte	0xe6
 8365 0e86 25000000 		.4byte	0x25
 8366 0e8a 4401     		.2byte	0x144
 8367 0e8c 1C       		.uleb128 0x1c
 8368 0e8d 301A0000 		.4byte	.LASF259
 8369 0e91 10       		.byte	0x10
 8370 0e92 E7       		.byte	0xe7
 8371 0e93 25000000 		.4byte	0x25
 8372 0e97 4801     		.2byte	0x148
 8373 0e99 1C       		.uleb128 0x1c
 8374 0e9a 9E060000 		.4byte	.LASF260
 8375 0e9e 10       		.byte	0x10
 8376 0e9f E9       		.byte	0xe9
 8377 0ea0 EB000000 		.4byte	0xeb
 8378 0ea4 4C01     		.2byte	0x14c
 8379 0ea6 1C       		.uleb128 0x1c
 8380 0ea7 83270000 		.4byte	.LASF261
 8381 0eab 10       		.byte	0x10
 8382 0eac EA       		.byte	0xea
 8383 0ead 25000000 		.4byte	0x25
 8384 0eb1 5001     		.2byte	0x150
 8385 0eb3 1C       		.uleb128 0x1c
 8386 0eb4 980E0000 		.4byte	.LASF262
 8387 0eb8 10       		.byte	0x10
 8388 0eb9 EB       		.byte	0xeb
 8389 0eba 25000000 		.4byte	0x25
 8390 0ebe 5401     		.2byte	0x154
 8391 0ec0 1C       		.uleb128 0x1c
 8392 0ec1 622B0000 		.4byte	.LASF263
 8393 0ec5 10       		.byte	0x10
 8394 0ec6 EC       		.byte	0xec
 8395 0ec7 F6000000 		.4byte	0xf6
 8396 0ecb 5801     		.2byte	0x158
 8397 0ecd 1C       		.uleb128 0x1c
 8398 0ece 5B0E0000 		.4byte	.LASF264
 8399 0ed2 10       		.byte	0x10
 8400 0ed3 ED       		.byte	0xed
 8401 0ed4 FE090000 		.4byte	0x9fe
ARM GAS  /var/folders/sv/kgmgr77579zbf78p2zlhkdfr0000gn/T//ccOxe4My.s 			page 150


 8402 0ed8 5C01     		.2byte	0x15c
 8403 0eda 1C       		.uleb128 0x1c
 8404 0edb BA0E0000 		.4byte	.LASF265
 8405 0edf 10       		.byte	0x10
 8406 0ee0 EE       		.byte	0xee
 8407 0ee1 360F0000 		.4byte	0xf36
 8408 0ee5 5D01     		.2byte	0x15d
 8409 0ee7 1C       		.uleb128 0x1c
 8410 0ee8 DD0A0000 		.4byte	.LASF266
 8411 0eec 10       		.byte	0x10
 8412 0eed EF       		.byte	0xef
 8413 0eee 2E0A0000 		.4byte	0xa2e
 8414 0ef2 5E01     		.2byte	0x15e
 8415 0ef4 1C       		.uleb128 0x1c
 8416 0ef5 15010000 		.4byte	.LASF267
 8417 0ef9 10       		.byte	0x10
 8418 0efa F0       		.byte	0xf0
 8419 0efb B1000000 		.4byte	0xb1
 8420 0eff 6001     		.2byte	0x160
 8421 0f01 1C       		.uleb128 0x1c
 8422 0f02 1F230000 		.4byte	.LASF268
 8423 0f06 10       		.byte	0x10
 8424 0f07 F1       		.byte	0xf1
 8425 0f08 25000000 		.4byte	0x25
 8426 0f0c 6401     		.2byte	0x164
 8427 0f0e 1C       		.uleb128 0x1c
 8428 0f0f B91A0000 		.4byte	.LASF269
 8429 0f13 10       		.byte	0x10
 8430 0f14 F2       		.byte	0xf2
 8431 0f15 25000000 		.4byte	0x25
 8432 0f19 6801     		.2byte	0x168
 8433 0f1b 1C       		.uleb128 0x1c
 8434 0f1c 2E260000 		.4byte	.LASF270
 8435 0f20 10       		.byte	0x10
 8436 0f21 F3       		.byte	0xf3
 8437 0f22 25000000 		.4byte	0x25
 8438 0f26 6C01     		.2byte	0x16c
 8439 0f28 1C       		.uleb128 0x1c
 8440 0f29 24050000 		.4byte	.LASF271
 8441 0f2d 10       		.byte	0x10
 8442 0f2e F4       		.byte	0xf4
 8443 0f2f 25000000 		.4byte	0x25
 8444 0f33 7001     		.2byte	0x170
 8445 0f35 00       		.byte	0
 8446 0f36 02       		.uleb128 0x2
 8447 0f37 01       		.byte	0x1
 8448 0f38 02       		.byte	0x2
 8449 0f39 D7000000 		.4byte	.LASF272
 8450 0f3d 17       		.uleb128 0x17
 8451 0f3e BF000000 		.4byte	0xbf
 8452 0f42 4D0F0000 		.4byte	0xf4d
 8453 0f46 18       		.uleb128 0x18
 8454 0f47 D1040000 		.4byte	0x4d1
 8455 0f4b 07       		.byte	0x7
 8456 0f4c 00       		.byte	0
 8457 0f4d 17       		.uleb128 0x17
 8458 0f4e CA000000 		.4byte	0xca
ARM GAS  /var/folders/sv/kgmgr77579zbf78p2zlhkdfr0000gn/T//ccOxe4My.s 			page 151


 8459 0f52 5D0F0000 		.4byte	0xf5d
 8460 0f56 18       		.uleb128 0x18
 8461 0f57 D1040000 		.4byte	0x4d1
 8462 0f5b 07       		.byte	0x7
 8463 0f5c 00       		.byte	0
 8464 0f5d 03       		.uleb128 0x3
 8465 0f5e 94270000 		.4byte	.LASF273
 8466 0f62 10       		.byte	0x10
 8467 0f63 F5       		.byte	0xf5
 8468 0f64 810A0000 		.4byte	0xa81
 8469 0f68 1D       		.uleb128 0x1d
 8470 0f69 01       		.byte	0x1
 8471 0f6a 49000000 		.4byte	0x49
 8472 0f6e 10       		.byte	0x10
 8473 0f6f C001     		.2byte	0x1c0
 8474 0f71 5A100000 		.4byte	0x105a
 8475 0f75 1A       		.uleb128 0x1a
 8476 0f76 D61B0000 		.4byte	.LASF274
 8477 0f7a 00       		.byte	0
 8478 0f7b 1A       		.uleb128 0x1a
 8479 0f7c 50180000 		.4byte	.LASF275
 8480 0f80 01       		.byte	0x1
 8481 0f81 1A       		.uleb128 0x1a
 8482 0f82 AF0A0000 		.4byte	.LASF276
 8483 0f86 02       		.byte	0x2
 8484 0f87 1A       		.uleb128 0x1a
 8485 0f88 970A0000 		.4byte	.LASF277
 8486 0f8c 03       		.byte	0x3
 8487 0f8d 1A       		.uleb128 0x1a
 8488 0f8e 341E0000 		.4byte	.LASF278
 8489 0f92 04       		.byte	0x4
 8490 0f93 1A       		.uleb128 0x1a
 8491 0f94 0B0D0000 		.4byte	.LASF279
 8492 0f98 05       		.byte	0x5
 8493 0f99 1A       		.uleb128 0x1a
 8494 0f9a C1130000 		.4byte	.LASF280
 8495 0f9e 06       		.byte	0x6
 8496 0f9f 1A       		.uleb128 0x1a
 8497 0fa0 41250000 		.4byte	.LASF281
 8498 0fa4 07       		.byte	0x7
 8499 0fa5 1A       		.uleb128 0x1a
 8500 0fa6 AE250000 		.4byte	.LASF282
 8501 0faa 08       		.byte	0x8
 8502 0fab 1A       		.uleb128 0x1a
 8503 0fac C2190000 		.4byte	.LASF283
 8504 0fb0 09       		.byte	0x9
 8505 0fb1 1A       		.uleb128 0x1a
 8506 0fb2 99190000 		.4byte	.LASF284
 8507 0fb6 0A       		.byte	0xa
 8508 0fb7 1A       		.uleb128 0x1a
 8509 0fb8 2D180000 		.4byte	.LASF285
 8510 0fbc 0B       		.byte	0xb
 8511 0fbd 1A       		.uleb128 0x1a
 8512 0fbe C50D0000 		.4byte	.LASF286
 8513 0fc2 0C       		.byte	0xc
 8514 0fc3 1A       		.uleb128 0x1a
 8515 0fc4 84030000 		.4byte	.LASF287
ARM GAS  /var/folders/sv/kgmgr77579zbf78p2zlhkdfr0000gn/T//ccOxe4My.s 			page 152


 8516 0fc8 0D       		.byte	0xd
 8517 0fc9 1A       		.uleb128 0x1a
 8518 0fca 830D0000 		.4byte	.LASF288
 8519 0fce 0E       		.byte	0xe
 8520 0fcf 1A       		.uleb128 0x1a
 8521 0fd0 0B1E0000 		.4byte	.LASF289
 8522 0fd4 0F       		.byte	0xf
 8523 0fd5 1A       		.uleb128 0x1a
 8524 0fd6 CD230000 		.4byte	.LASF290
 8525 0fda 10       		.byte	0x10
 8526 0fdb 1A       		.uleb128 0x1a
 8527 0fdc 83200000 		.4byte	.LASF291
 8528 0fe0 11       		.byte	0x11
 8529 0fe1 1A       		.uleb128 0x1a
 8530 0fe2 39280000 		.4byte	.LASF292
 8531 0fe6 12       		.byte	0x12
 8532 0fe7 1A       		.uleb128 0x1a
 8533 0fe8 69060000 		.4byte	.LASF293
 8534 0fec 13       		.byte	0x13
 8535 0fed 1A       		.uleb128 0x1a
 8536 0fee F7270000 		.4byte	.LASF294
 8537 0ff2 14       		.byte	0x14
 8538 0ff3 1A       		.uleb128 0x1a
 8539 0ff4 B71E0000 		.4byte	.LASF295
 8540 0ff8 15       		.byte	0x15
 8541 0ff9 1A       		.uleb128 0x1a
 8542 0ffa 3E270000 		.4byte	.LASF296
 8543 0ffe 16       		.byte	0x16
 8544 0fff 1A       		.uleb128 0x1a
 8545 1000 460F0000 		.4byte	.LASF297
 8546 1004 17       		.byte	0x17
 8547 1005 1A       		.uleb128 0x1a
 8548 1006 F8230000 		.4byte	.LASF298
 8549 100a 18       		.byte	0x18
 8550 100b 1A       		.uleb128 0x1a
 8551 100c B71F0000 		.4byte	.LASF299
 8552 1010 19       		.byte	0x19
 8553 1011 1A       		.uleb128 0x1a
 8554 1012 1D0C0000 		.4byte	.LASF300
 8555 1016 1A       		.byte	0x1a
 8556 1017 1A       		.uleb128 0x1a
 8557 1018 D91D0000 		.4byte	.LASF301
 8558 101c 1B       		.byte	0x1b
 8559 101d 1A       		.uleb128 0x1a
 8560 101e 73000000 		.4byte	.LASF302
 8561 1022 1C       		.byte	0x1c
 8562 1023 1A       		.uleb128 0x1a
 8563 1024 93040000 		.4byte	.LASF303
 8564 1028 1D       		.byte	0x1d
 8565 1029 1A       		.uleb128 0x1a
 8566 102a 12090000 		.4byte	.LASF304
 8567 102e 1E       		.byte	0x1e
 8568 102f 1A       		.uleb128 0x1a
 8569 1030 F80D0000 		.4byte	.LASF305
 8570 1034 1F       		.byte	0x1f
 8571 1035 1A       		.uleb128 0x1a
 8572 1036 B8230000 		.4byte	.LASF306
ARM GAS  /var/folders/sv/kgmgr77579zbf78p2zlhkdfr0000gn/T//ccOxe4My.s 			page 153


 8573 103a 20       		.byte	0x20
 8574 103b 1A       		.uleb128 0x1a
 8575 103c 69190000 		.4byte	.LASF307
 8576 1040 21       		.byte	0x21
 8577 1041 1A       		.uleb128 0x1a
 8578 1042 DA0E0000 		.4byte	.LASF308
 8579 1046 22       		.byte	0x22
 8580 1047 1A       		.uleb128 0x1a
 8581 1048 1C200000 		.4byte	.LASF309
 8582 104c 23       		.byte	0x23
 8583 104d 1A       		.uleb128 0x1a
 8584 104e 29270000 		.4byte	.LASF310
 8585 1052 24       		.byte	0x24
 8586 1053 1A       		.uleb128 0x1a
 8587 1054 D6250000 		.4byte	.LASF311
 8588 1058 25       		.byte	0x25
 8589 1059 00       		.byte	0
 8590 105a 10       		.uleb128 0x10
 8591 105b 38       		.byte	0x38
 8592 105c 10       		.byte	0x10
 8593 105d FC01     		.2byte	0x1fc
 8594 105f 1A110000 		.4byte	0x111a
 8595 1063 09       		.uleb128 0x9
 8596 1064 BA1C0000 		.4byte	.LASF312
 8597 1068 10       		.byte	0x10
 8598 1069 FD01     		.2byte	0x1fd
 8599 106b D4090000 		.4byte	0x9d4
 8600 106f 00       		.byte	0
 8601 1070 09       		.uleb128 0x9
 8602 1071 8A150000 		.4byte	.LASF313
 8603 1075 10       		.byte	0x10
 8604 1076 FE01     		.2byte	0x1fe
 8605 1078 25000000 		.4byte	0x25
 8606 107c 04       		.byte	0x4
 8607 107d 09       		.uleb128 0x9
 8608 107e 86260000 		.4byte	.LASF314
 8609 1082 10       		.byte	0x10
 8610 1083 FF01     		.2byte	0x1ff
 8611 1085 25000000 		.4byte	0x25
 8612 1089 08       		.byte	0x8
 8613 108a 09       		.uleb128 0x9
 8614 108b DE230000 		.4byte	.LASF315
 8615 108f 10       		.byte	0x10
 8616 1090 0002     		.2byte	0x200
 8617 1092 25000000 		.4byte	0x25
 8618 1096 0C       		.byte	0xc
 8619 1097 09       		.uleb128 0x9
 8620 1098 6C1E0000 		.4byte	.LASF316
 8621 109c 10       		.byte	0x10
 8622 109d 0102     		.2byte	0x201
 8623 109f 25000000 		.4byte	0x25
 8624 10a3 10       		.byte	0x10
 8625 10a4 08       		.uleb128 0x8
 8626 10a5 72706D00 		.ascii	"rpm\000"
 8627 10a9 10       		.byte	0x10
 8628 10aa 0202     		.2byte	0x202
 8629 10ac 25000000 		.4byte	0x25
ARM GAS  /var/folders/sv/kgmgr77579zbf78p2zlhkdfr0000gn/T//ccOxe4My.s 			page 154


 8630 10b0 14       		.byte	0x14
 8631 10b1 09       		.uleb128 0x9
 8632 10b2 A61D0000 		.4byte	.LASF317
 8633 10b6 10       		.byte	0x10
 8634 10b7 0302     		.2byte	0x203
 8635 10b9 B1000000 		.4byte	0xb1
 8636 10bd 18       		.byte	0x18
 8637 10be 09       		.uleb128 0x9
 8638 10bf 60140000 		.4byte	.LASF318
 8639 10c3 10       		.byte	0x10
 8640 10c4 0402     		.2byte	0x204
 8641 10c6 B1000000 		.4byte	0xb1
 8642 10ca 1C       		.byte	0x1c
 8643 10cb 09       		.uleb128 0x9
 8644 10cc 550A0000 		.4byte	.LASF319
 8645 10d0 10       		.byte	0x10
 8646 10d1 0502     		.2byte	0x205
 8647 10d3 B1000000 		.4byte	0xb1
 8648 10d7 20       		.byte	0x20
 8649 10d8 09       		.uleb128 0x9
 8650 10d9 6E260000 		.4byte	.LASF320
 8651 10dd 10       		.byte	0x10
 8652 10de 0602     		.2byte	0x206
 8653 10e0 B1000000 		.4byte	0xb1
 8654 10e4 24       		.byte	0x24
 8655 10e5 09       		.uleb128 0x9
 8656 10e6 9A220000 		.4byte	.LASF321
 8657 10ea 10       		.byte	0x10
 8658 10eb 0702     		.2byte	0x207
 8659 10ed B1000000 		.4byte	0xb1
 8660 10f1 28       		.byte	0x28
 8661 10f2 09       		.uleb128 0x9
 8662 10f3 9A1A0000 		.4byte	.LASF322
 8663 10f7 10       		.byte	0x10
 8664 10f8 0802     		.2byte	0x208
 8665 10fa B1000000 		.4byte	0xb1
 8666 10fe 2C       		.byte	0x2c
 8667 10ff 09       		.uleb128 0x9
 8668 1100 35250000 		.4byte	.LASF323
 8669 1104 10       		.byte	0x10
 8670 1105 0902     		.2byte	0x209
 8671 1107 25000000 		.4byte	0x25
 8672 110b 30       		.byte	0x30
 8673 110c 09       		.uleb128 0x9
 8674 110d 42170000 		.4byte	.LASF324
 8675 1111 10       		.byte	0x10
 8676 1112 0A02     		.2byte	0x20a
 8677 1114 B1000000 		.4byte	0xb1
 8678 1118 34       		.byte	0x34
 8679 1119 00       		.byte	0
 8680 111a 11       		.uleb128 0x11
 8681 111b 972A0000 		.4byte	.LASF325
 8682 111f 10       		.byte	0x10
 8683 1120 0B02     		.2byte	0x20b
 8684 1122 5A100000 		.4byte	0x105a
 8685 1126 13       		.uleb128 0x13
 8686 1127 04       		.byte	0x4
ARM GAS  /var/folders/sv/kgmgr77579zbf78p2zlhkdfr0000gn/T//ccOxe4My.s 			page 155


 8687 1128 11       		.byte	0x11
 8688 1129 B3       		.byte	0xb3
 8689 112a 47110000 		.4byte	0x1147
 8690 112e 12       		.uleb128 0x12
 8691 112f 73657400 		.ascii	"set\000"
 8692 1133 11       		.byte	0x11
 8693 1134 B4       		.byte	0xb4
 8694 1135 E0000000 		.4byte	0xe0
 8695 1139 00       		.byte	0
 8696 113a 07       		.uleb128 0x7
 8697 113b 460B0000 		.4byte	.LASF326
 8698 113f 11       		.byte	0x11
 8699 1140 B5       		.byte	0xb5
 8700 1141 E0000000 		.4byte	0xe0
 8701 1145 02       		.byte	0x2
 8702 1146 00       		.byte	0
 8703 1147 14       		.uleb128 0x14
 8704 1148 04       		.byte	0x4
 8705 1149 11       		.byte	0x11
 8706 114a B1       		.byte	0xb1
 8707 114b 62110000 		.4byte	0x1162
 8708 114f 1E       		.uleb128 0x1e
 8709 1150 5700     		.ascii	"W\000"
 8710 1152 11       		.byte	0x11
 8711 1153 B2       		.byte	0xb2
 8712 1154 F6000000 		.4byte	0xf6
 8713 1158 1E       		.uleb128 0x1e
 8714 1159 4800     		.ascii	"H\000"
 8715 115b 11       		.byte	0x11
 8716 115c B6       		.byte	0xb6
 8717 115d 26110000 		.4byte	0x1126
 8718 1161 00       		.byte	0
 8719 1162 13       		.uleb128 0x13
 8720 1163 2C       		.byte	0x2c
 8721 1164 11       		.byte	0x11
 8722 1165 A9       		.byte	0xa9
 8723 1166 EF110000 		.4byte	0x11ef
 8724 116a 07       		.uleb128 0x7
 8725 116b 72230000 		.4byte	.LASF327
 8726 116f 11       		.byte	0x11
 8727 1170 AB       		.byte	0xab
 8728 1171 30010000 		.4byte	0x130
 8729 1175 00       		.byte	0
 8730 1176 07       		.uleb128 0x7
 8731 1177 21030000 		.4byte	.LASF328
 8732 117b 11       		.byte	0x11
 8733 117c AC       		.byte	0xac
 8734 117d 30010000 		.4byte	0x130
 8735 1181 04       		.byte	0x4
 8736 1182 07       		.uleb128 0x7
 8737 1183 190D0000 		.4byte	.LASF329
 8738 1187 11       		.byte	0x11
 8739 1188 AD       		.byte	0xad
 8740 1189 30010000 		.4byte	0x130
 8741 118d 08       		.byte	0x8
 8742 118e 07       		.uleb128 0x7
 8743 118f 6F220000 		.4byte	.LASF330
ARM GAS  /var/folders/sv/kgmgr77579zbf78p2zlhkdfr0000gn/T//ccOxe4My.s 			page 156


 8744 1193 11       		.byte	0x11
 8745 1194 AE       		.byte	0xae
 8746 1195 30010000 		.4byte	0x130
 8747 1199 0C       		.byte	0xc
 8748 119a 12       		.uleb128 0x12
 8749 119b 49445200 		.ascii	"IDR\000"
 8750 119f 11       		.byte	0x11
 8751 11a0 AF       		.byte	0xaf
 8752 11a1 30010000 		.4byte	0x130
 8753 11a5 10       		.byte	0x10
 8754 11a6 12       		.uleb128 0x12
 8755 11a7 4F445200 		.ascii	"ODR\000"
 8756 11ab 11       		.byte	0x11
 8757 11ac B0       		.byte	0xb0
 8758 11ad 30010000 		.4byte	0x130
 8759 11b1 14       		.byte	0x14
 8760 11b2 07       		.uleb128 0x7
 8761 11b3 13120000 		.4byte	.LASF331
 8762 11b7 11       		.byte	0x11
 8763 11b8 B7       		.byte	0xb7
 8764 11b9 EF110000 		.4byte	0x11ef
 8765 11bd 18       		.byte	0x18
 8766 11be 07       		.uleb128 0x7
 8767 11bf 49190000 		.4byte	.LASF332
 8768 11c3 11       		.byte	0x11
 8769 11c4 B8       		.byte	0xb8
 8770 11c5 30010000 		.4byte	0x130
 8771 11c9 1C       		.byte	0x1c
 8772 11ca 07       		.uleb128 0x7
 8773 11cb C21E0000 		.4byte	.LASF333
 8774 11cf 11       		.byte	0x11
 8775 11d0 B9       		.byte	0xb9
 8776 11d1 30010000 		.4byte	0x130
 8777 11d5 20       		.byte	0x20
 8778 11d6 07       		.uleb128 0x7
 8779 11d7 061E0000 		.4byte	.LASF334
 8780 11db 11       		.byte	0x11
 8781 11dc BA       		.byte	0xba
 8782 11dd 30010000 		.4byte	0x130
 8783 11e1 24       		.byte	0x24
 8784 11e2 12       		.uleb128 0x12
 8785 11e3 42525200 		.ascii	"BRR\000"
 8786 11e7 11       		.byte	0x11
 8787 11e8 BB       		.byte	0xbb
 8788 11e9 30010000 		.4byte	0x130
 8789 11ed 28       		.byte	0x28
 8790 11ee 00       		.byte	0
 8791 11ef 05       		.uleb128 0x5
 8792 11f0 47110000 		.4byte	0x1147
 8793 11f4 03       		.uleb128 0x3
 8794 11f5 CD0E0000 		.4byte	.LASF335
 8795 11f9 11       		.byte	0x11
 8796 11fa BC       		.byte	0xbc
 8797 11fb 62110000 		.4byte	0x1162
 8798 11ff 0A       		.uleb128 0xa
 8799 1200 04       		.byte	0x4
 8800 1201 05120000 		.4byte	0x1205
ARM GAS  /var/folders/sv/kgmgr77579zbf78p2zlhkdfr0000gn/T//ccOxe4My.s 			page 157


 8801 1205 1F       		.uleb128 0x1f
 8802 1206 02       		.uleb128 0x2
 8803 1207 08       		.byte	0x8
 8804 1208 04       		.byte	0x4
 8805 1209 58200000 		.4byte	.LASF336
 8806 120d 02       		.uleb128 0x2
 8807 120e 08       		.byte	0x8
 8808 120f 04       		.byte	0x4
 8809 1210 B6190000 		.4byte	.LASF337
 8810 1214 20       		.uleb128 0x20
 8811 1215 93280000 		.4byte	.LASF342
 8812 1219 03       		.byte	0x3
 8813 121a 2002     		.2byte	0x220
 8814 121c 03       		.byte	0x3
 8815 121d 2E120000 		.4byte	0x122e
 8816 1221 21       		.uleb128 0x21
 8817 1222 F5090000 		.4byte	.LASF344
 8818 1226 03       		.byte	0x3
 8819 1227 2002     		.2byte	0x220
 8820 1229 F6000000 		.4byte	0xf6
 8821 122d 00       		.byte	0
 8822 122e 22       		.uleb128 0x22
 8823 122f AC190000 		.4byte	.LASF338
 8824 1233 0C       		.byte	0xc
 8825 1234 BC01     		.2byte	0x1bc
 8826 1236 03       		.byte	0x3
 8827 1237 22       		.uleb128 0x22
 8828 1238 69170000 		.4byte	.LASF339
 8829 123c 0C       		.byte	0xc
 8830 123d CA01     		.2byte	0x1ca
 8831 123f 03       		.byte	0x3
 8832 1240 22       		.uleb128 0x22
 8833 1241 02140000 		.4byte	.LASF340
 8834 1245 0C       		.byte	0xc
 8835 1246 D901     		.2byte	0x1d9
 8836 1248 03       		.byte	0x3
 8837 1249 22       		.uleb128 0x22
 8838 124a 4D130000 		.4byte	.LASF341
 8839 124e 0C       		.byte	0xc
 8840 124f E401     		.2byte	0x1e4
 8841 1251 03       		.byte	0x3
 8842 1252 23       		.uleb128 0x23
 8843 1253 6C1C0000 		.4byte	.LASF615
 8844 1257 1A       		.byte	0x1a
 8845 1258 AE       		.byte	0xae
 8846 1259 BE020000 		.4byte	0x2be
 8847 125d 03       		.byte	0x3
 8848 125e 24       		.uleb128 0x24
 8849 125f B0240000 		.4byte	.LASF343
 8850 1263 02       		.byte	0x2
 8851 1264 84       		.byte	0x84
 8852 1265 03       		.byte	0x3
 8853 1266 76120000 		.4byte	0x1276
 8854 126a 25       		.uleb128 0x25
 8855 126b B4260000 		.4byte	.LASF345
 8856 126f 02       		.byte	0x2
 8857 1270 84       		.byte	0x84
ARM GAS  /var/folders/sv/kgmgr77579zbf78p2zlhkdfr0000gn/T//ccOxe4My.s 			page 158


 8858 1271 58080000 		.4byte	0x858
 8859 1275 00       		.byte	0
 8860 1276 26       		.uleb128 0x26
 8861 1277 70280000 		.4byte	.LASF347
 8862 127b 01       		.byte	0x1
 8863 127c 5B01     		.2byte	0x15b
 8864 127e 01       		.byte	0x1
 8865 127f 90120000 		.4byte	0x1290
 8866 1283 21       		.uleb128 0x21
 8867 1284 22110000 		.4byte	.LASF346
 8868 1288 01       		.byte	0x1
 8869 1289 5B01     		.2byte	0x15b
 8870 128b 25000000 		.4byte	0x25
 8871 128f 00       		.byte	0
 8872 1290 26       		.uleb128 0x26
 8873 1291 DA170000 		.4byte	.LASF348
 8874 1295 01       		.byte	0x1
 8875 1296 B801     		.2byte	0x1b8
 8876 1298 01       		.byte	0x1
 8877 1299 AA120000 		.4byte	0x12aa
 8878 129d 21       		.uleb128 0x21
 8879 129e 8A150000 		.4byte	.LASF313
 8880 12a2 01       		.byte	0x1
 8881 12a3 B801     		.2byte	0x1b8
 8882 12a5 25000000 		.4byte	0x25
 8883 12a9 00       		.byte	0
 8884 12aa 26       		.uleb128 0x26
 8885 12ab 16250000 		.4byte	.LASF349
 8886 12af 01       		.byte	0x1
 8887 12b0 CE01     		.2byte	0x1ce
 8888 12b2 01       		.byte	0x1
 8889 12b3 C4120000 		.4byte	0x12c4
 8890 12b7 21       		.uleb128 0x21
 8891 12b8 8A150000 		.4byte	.LASF313
 8892 12bc 01       		.byte	0x1
 8893 12bd CE01     		.2byte	0x1ce
 8894 12bf 25000000 		.4byte	0x25
 8895 12c3 00       		.byte	0
 8896 12c4 26       		.uleb128 0x26
 8897 12c5 BB250000 		.4byte	.LASF350
 8898 12c9 01       		.byte	0x1
 8899 12ca 0202     		.2byte	0x202
 8900 12cc 01       		.byte	0x1
 8901 12cd DE120000 		.4byte	0x12de
 8902 12d1 21       		.uleb128 0x21
 8903 12d2 8A150000 		.4byte	.LASF313
 8904 12d6 01       		.byte	0x1
 8905 12d7 0202     		.2byte	0x202
 8906 12d9 25000000 		.4byte	0x25
 8907 12dd 00       		.byte	0
 8908 12de 26       		.uleb128 0x26
 8909 12df 5D290000 		.4byte	.LASF351
 8910 12e3 01       		.byte	0x1
 8911 12e4 3E04     		.2byte	0x43e
 8912 12e6 01       		.byte	0x1
 8913 12e7 2A130000 		.4byte	0x132a
 8914 12eb 21       		.uleb128 0x21
ARM GAS  /var/folders/sv/kgmgr77579zbf78p2zlhkdfr0000gn/T//ccOxe4My.s 			page 159


 8915 12ec BA1C0000 		.4byte	.LASF312
 8916 12f0 01       		.byte	0x1
 8917 12f1 3E04     		.2byte	0x43e
 8918 12f3 D4090000 		.4byte	0x9d4
 8919 12f7 27       		.uleb128 0x27
 8920 12f8 28       		.uleb128 0x28
 8921 12f9 35050000 		.4byte	.LASF352
 8922 12fd 01       		.byte	0x1
 8923 12fe 4804     		.2byte	0x448
 8924 1300 2A130000 		.4byte	0x132a
 8925 1304 28       		.uleb128 0x28
 8926 1305 17050000 		.4byte	.LASF353
 8927 1309 01       		.byte	0x1
 8928 130a 4904     		.2byte	0x449
 8929 130c 2A130000 		.4byte	0x132a
 8930 1310 28       		.uleb128 0x28
 8931 1311 9A220000 		.4byte	.LASF321
 8932 1315 01       		.byte	0x1
 8933 1316 4A04     		.2byte	0x44a
 8934 1318 2A130000 		.4byte	0x132a
 8935 131c 28       		.uleb128 0x28
 8936 131d 4C0B0000 		.4byte	.LASF354
 8937 1321 01       		.byte	0x1
 8938 1322 4D04     		.2byte	0x44d
 8939 1324 1A110000 		.4byte	0x111a
 8940 1328 00       		.byte	0
 8941 1329 00       		.byte	0
 8942 132a 05       		.uleb128 0x5
 8943 132b B1000000 		.4byte	0xb1
 8944 132f 22       		.uleb128 0x22
 8945 1330 841B0000 		.4byte	.LASF355
 8946 1334 12       		.byte	0x12
 8947 1335 9601     		.2byte	0x196
 8948 1337 03       		.byte	0x3
 8949 1338 22       		.uleb128 0x22
 8950 1339 D4270000 		.4byte	.LASF356
 8951 133d 12       		.byte	0x12
 8952 133e 8201     		.2byte	0x182
 8953 1340 03       		.byte	0x3
 8954 1341 29       		.uleb128 0x29
 8955 1342 8A120000 		.4byte	.LASF616
 8956 1346 01       		.byte	0x1
 8957 1347 E003     		.2byte	0x3e0
 8958 1349 25000000 		.4byte	0x25
 8959 134d 01       		.byte	0x1
 8960 134e 20       		.uleb128 0x20
 8961 134f 19160000 		.4byte	.LASF357
 8962 1353 01       		.byte	0x1
 8963 1354 7905     		.2byte	0x579
 8964 1356 01       		.byte	0x1
 8965 1357 B4140000 		.4byte	0x14b4
 8966 135b 21       		.uleb128 0x21
 8967 135c A8180000 		.4byte	.LASF358
 8968 1360 01       		.byte	0x1
 8969 1361 7905     		.2byte	0x579
 8970 1363 B4140000 		.4byte	0x14b4
 8971 1367 28       		.uleb128 0x28
ARM GAS  /var/folders/sv/kgmgr77579zbf78p2zlhkdfr0000gn/T//ccOxe4My.s 			page 160


 8972 1368 0D150000 		.4byte	.LASF359
 8973 136c 01       		.byte	0x1
 8974 136d 7A05     		.2byte	0x57a
 8975 136f BF140000 		.4byte	0x14bf
 8976 1373 28       		.uleb128 0x28
 8977 1374 EA140000 		.4byte	.LASF360
 8978 1378 01       		.byte	0x1
 8979 1379 7B05     		.2byte	0x57b
 8980 137b BF140000 		.4byte	0x14bf
 8981 137f 28       		.uleb128 0x28
 8982 1380 FC020000 		.4byte	.LASF361
 8983 1384 01       		.byte	0x1
 8984 1385 8105     		.2byte	0x581
 8985 1387 25000000 		.4byte	0x25
 8986 138b 28       		.uleb128 0x28
 8987 138c 2D010000 		.4byte	.LASF362
 8988 1390 01       		.byte	0x1
 8989 1391 8205     		.2byte	0x582
 8990 1393 25000000 		.4byte	0x25
 8991 1397 28       		.uleb128 0x28
 8992 1398 CD200000 		.4byte	.LASF363
 8993 139c 01       		.byte	0x1
 8994 139d 9C05     		.2byte	0x59c
 8995 139f 25000000 		.4byte	0x25
 8996 13a3 28       		.uleb128 0x28
 8997 13a4 571E0000 		.4byte	.LASF364
 8998 13a8 01       		.byte	0x1
 8999 13a9 9D05     		.2byte	0x59d
 9000 13ab 25000000 		.4byte	0x25
 9001 13af 28       		.uleb128 0x28
 9002 13b0 F21A0000 		.4byte	.LASF365
 9003 13b4 01       		.byte	0x1
 9004 13b5 B805     		.2byte	0x5b8
 9005 13b7 BF140000 		.4byte	0x14bf
 9006 13bb 28       		.uleb128 0x28
 9007 13bc E01E0000 		.4byte	.LASF366
 9008 13c0 01       		.byte	0x1
 9009 13c1 B905     		.2byte	0x5b9
 9010 13c3 BF140000 		.4byte	0x14bf
 9011 13c7 28       		.uleb128 0x28
 9012 13c8 DC010000 		.4byte	.LASF367
 9013 13cc 01       		.byte	0x1
 9014 13cd BA05     		.2byte	0x5ba
 9015 13cf BF140000 		.4byte	0x14bf
 9016 13d3 28       		.uleb128 0x28
 9017 13d4 B70C0000 		.4byte	.LASF368
 9018 13d8 01       		.byte	0x1
 9019 13d9 BB05     		.2byte	0x5bb
 9020 13db BF140000 		.4byte	0x14bf
 9021 13df 28       		.uleb128 0x28
 9022 13e0 BF290000 		.4byte	.LASF369
 9023 13e4 01       		.byte	0x1
 9024 13e5 BD05     		.2byte	0x5bd
 9025 13e7 25000000 		.4byte	0x25
 9026 13eb 28       		.uleb128 0x28
 9027 13ec 6F040000 		.4byte	.LASF370
 9028 13f0 01       		.byte	0x1
ARM GAS  /var/folders/sv/kgmgr77579zbf78p2zlhkdfr0000gn/T//ccOxe4My.s 			page 161


 9029 13f1 C705     		.2byte	0x5c7
 9030 13f3 25000000 		.4byte	0x25
 9031 13f7 28       		.uleb128 0x28
 9032 13f8 5E170000 		.4byte	.LASF371
 9033 13fc 01       		.byte	0x1
 9034 13fd D205     		.2byte	0x5d2
 9035 13ff 25000000 		.4byte	0x25
 9036 1403 28       		.uleb128 0x28
 9037 1404 3C0E0000 		.4byte	.LASF372
 9038 1408 01       		.byte	0x1
 9039 1409 D305     		.2byte	0x5d3
 9040 140b BF140000 		.4byte	0x14bf
 9041 140f 28       		.uleb128 0x28
 9042 1410 E2070000 		.4byte	.LASF373
 9043 1414 01       		.byte	0x1
 9044 1415 D405     		.2byte	0x5d4
 9045 1417 BF140000 		.4byte	0x14bf
 9046 141b 28       		.uleb128 0x28
 9047 141c 1B070000 		.4byte	.LASF374
 9048 1420 01       		.byte	0x1
 9049 1421 DE05     		.2byte	0x5de
 9050 1423 25000000 		.4byte	0x25
 9051 1427 28       		.uleb128 0x28
 9052 1428 E5270000 		.4byte	.LASF375
 9053 142c 01       		.byte	0x1
 9054 142d DF05     		.2byte	0x5df
 9055 142f BF140000 		.4byte	0x14bf
 9056 1433 28       		.uleb128 0x28
 9057 1434 3C040000 		.4byte	.LASF376
 9058 1438 01       		.byte	0x1
 9059 1439 E005     		.2byte	0x5e0
 9060 143b BF140000 		.4byte	0x14bf
 9061 143f 28       		.uleb128 0x28
 9062 1440 6A1D0000 		.4byte	.LASF377
 9063 1444 01       		.byte	0x1
 9064 1445 E905     		.2byte	0x5e9
 9065 1447 25000000 		.4byte	0x25
 9066 144b 28       		.uleb128 0x28
 9067 144c B00C0000 		.4byte	.LASF378
 9068 1450 01       		.byte	0x1
 9069 1451 EA05     		.2byte	0x5ea
 9070 1453 25000000 		.4byte	0x25
 9071 1457 28       		.uleb128 0x28
 9072 1458 94200000 		.4byte	.LASF379
 9073 145c 01       		.byte	0x1
 9074 145d FD05     		.2byte	0x5fd
 9075 145f 25000000 		.4byte	0x25
 9076 1463 28       		.uleb128 0x28
 9077 1464 A5270000 		.4byte	.LASF380
 9078 1468 01       		.byte	0x1
 9079 1469 0806     		.2byte	0x608
 9080 146b BF140000 		.4byte	0x14bf
 9081 146f 28       		.uleb128 0x28
 9082 1470 35100000 		.4byte	.LASF381
 9083 1474 01       		.byte	0x1
 9084 1475 0906     		.2byte	0x609
 9085 1477 BF140000 		.4byte	0x14bf
ARM GAS  /var/folders/sv/kgmgr77579zbf78p2zlhkdfr0000gn/T//ccOxe4My.s 			page 162


 9086 147b 28       		.uleb128 0x28
 9087 147c 26060000 		.4byte	.LASF382
 9088 1480 01       		.byte	0x1
 9089 1481 0B06     		.2byte	0x60b
 9090 1483 BF140000 		.4byte	0x14bf
 9091 1487 28       		.uleb128 0x28
 9092 1488 621E0000 		.4byte	.LASF383
 9093 148c 01       		.byte	0x1
 9094 148d 0C06     		.2byte	0x60c
 9095 148f BF140000 		.4byte	0x14bf
 9096 1493 2A       		.uleb128 0x2a
 9097 1494 A5140000 		.4byte	0x14a5
 9098 1498 28       		.uleb128 0x28
 9099 1499 D6050000 		.4byte	.LASF384
 9100 149d 01       		.byte	0x1
 9101 149e 8B05     		.2byte	0x58b
 9102 14a0 25000000 		.4byte	0x25
 9103 14a4 00       		.byte	0
 9104 14a5 27       		.uleb128 0x27
 9105 14a6 28       		.uleb128 0x28
 9106 14a7 D6050000 		.4byte	.LASF384
 9107 14ab 01       		.byte	0x1
 9108 14ac A605     		.2byte	0x5a6
 9109 14ae 25000000 		.4byte	0x25
 9110 14b2 00       		.byte	0
 9111 14b3 00       		.byte	0
 9112 14b4 0A       		.uleb128 0xa
 9113 14b5 04       		.byte	0x4
 9114 14b6 BA140000 		.4byte	0x14ba
 9115 14ba 05       		.uleb128 0x5
 9116 14bb 5D0F0000 		.4byte	0xf5d
 9117 14bf 16       		.uleb128 0x16
 9118 14c0 25000000 		.4byte	0x25
 9119 14c4 2B       		.uleb128 0x2b
 9120 14c5 5F230000 		.4byte	.LASF417
 9121 14c9 01       		.byte	0x1
 9122 14ca 3C06     		.2byte	0x63c
 9123 14cc 00000000 		.4byte	.LFB312
 9124 14d0 3C020000 		.4byte	.LFE312-.LFB312
 9125 14d4 01       		.uleb128 0x1
 9126 14d5 9C       		.byte	0x9c
 9127 14d6 7D160000 		.4byte	0x167d
 9128 14da 2C       		.uleb128 0x2c
 9129 14db 61726700 		.ascii	"arg\000"
 9130 14df 01       		.byte	0x1
 9131 14e0 3C06     		.2byte	0x63c
 9132 14e2 9B030000 		.4byte	0x39b
 9133 14e6 00000000 		.4byte	.LLST0
 9134 14ea 2D       		.uleb128 0x2d
 9135 14eb 5E120000 		.4byte	0x125e
 9136 14ef 04000000 		.4byte	.LBB111
 9137 14f3 00000000 		.4byte	.Ldebug_ranges0+0
 9138 14f7 01       		.byte	0x1
 9139 14f8 3F06     		.2byte	0x63f
 9140 14fa 08150000 		.4byte	0x1508
 9141 14fe 2E       		.uleb128 0x2e
 9142 14ff 6A120000 		.4byte	0x126a
ARM GAS  /var/folders/sv/kgmgr77579zbf78p2zlhkdfr0000gn/T//ccOxe4My.s 			page 163


 9143 1503 21000000 		.4byte	.LLST1
 9144 1507 00       		.byte	0
 9145 1508 2F       		.uleb128 0x2f
 9146 1509 20000000 		.4byte	.Ldebug_ranges0+0x20
 9147 150d 30       		.uleb128 0x30
 9148 150e 6C656E00 		.ascii	"len\000"
 9149 1512 01       		.byte	0x1
 9150 1513 4606     		.2byte	0x646
 9151 1515 B1000000 		.4byte	0xb1
 9152 1519 39000000 		.4byte	.LLST2
 9153 151d 31       		.uleb128 0x31
 9154 151e 7F240000 		.4byte	.LASF106
 9155 1522 01       		.byte	0x1
 9156 1523 4706     		.2byte	0x647
 9157 1525 B1000000 		.4byte	0xb1
 9158 1529 7D000000 		.4byte	.LLST3
 9159 152d 32       		.uleb128 0x32
 9160 152e 38000000 		.4byte	.Ldebug_ranges0+0x38
 9161 1532 6C160000 		.4byte	0x166c
 9162 1536 30       		.uleb128 0x30
 9163 1537 6900     		.ascii	"i\000"
 9164 1539 01       		.byte	0x1
 9165 153a 5B06     		.2byte	0x65b
 9166 153c B1000000 		.4byte	0xb1
 9167 1540 A8000000 		.4byte	.LLST4
 9168 1544 2F       		.uleb128 0x2f
 9169 1545 60000000 		.4byte	.Ldebug_ranges0+0x60
 9170 1549 33       		.uleb128 0x33
 9171 154a 9F1D0000 		.4byte	.LASF385
 9172 154e 01       		.byte	0x1
 9173 154f 5C06     		.2byte	0x65c
 9174 1551 7D160000 		.4byte	0x167d
 9175 1555 03       		.uleb128 0x3
 9176 1556 91       		.byte	0x91
 9177 1557 987F     		.sleb128 -104
 9178 1559 33       		.uleb128 0x33
 9179 155a 8D040000 		.4byte	.LASF386
 9180 155e 01       		.byte	0x1
 9181 155f 5D06     		.2byte	0x65d
 9182 1561 EB000000 		.4byte	0xeb
 9183 1565 03       		.uleb128 0x3
 9184 1566 91       		.byte	0x91
 9185 1567 947F     		.sleb128 -108
 9186 1569 31       		.uleb128 0x31
 9187 156a E0100000 		.4byte	.LASF387
 9188 156e 01       		.byte	0x1
 9189 156f 5E06     		.2byte	0x65e
 9190 1571 B1000000 		.4byte	0xb1
 9191 1575 EB000000 		.4byte	.LLST5
 9192 1579 34       		.uleb128 0x34
 9193 157a 9E000000 		.4byte	.LVL10
 9194 157e D2320000 		.4byte	0x32d2
 9195 1582 95150000 		.4byte	0x1595
 9196 1586 35       		.uleb128 0x35
 9197 1587 01       		.uleb128 0x1
 9198 1588 50       		.byte	0x50
 9199 1589 03       		.uleb128 0x3
ARM GAS  /var/folders/sv/kgmgr77579zbf78p2zlhkdfr0000gn/T//ccOxe4My.s 			page 164


 9200 158a 91       		.byte	0x91
 9201 158b 987F     		.sleb128 -104
 9202 158d 35       		.uleb128 0x35
 9203 158e 01       		.uleb128 0x1
 9204 158f 51       		.byte	0x51
 9205 1590 03       		.uleb128 0x3
 9206 1591 91       		.byte	0x91
 9207 1592 947F     		.sleb128 -108
 9208 1594 00       		.byte	0
 9209 1595 34       		.uleb128 0x34
 9210 1596 BC000000 		.4byte	.LVL11
 9211 159a D2320000 		.4byte	0x32d2
 9212 159e B1150000 		.4byte	0x15b1
 9213 15a2 35       		.uleb128 0x35
 9214 15a3 01       		.uleb128 0x1
 9215 15a4 50       		.byte	0x50
 9216 15a5 03       		.uleb128 0x3
 9217 15a6 91       		.byte	0x91
 9218 15a7 987F     		.sleb128 -104
 9219 15a9 35       		.uleb128 0x35
 9220 15aa 01       		.uleb128 0x1
 9221 15ab 51       		.byte	0x51
 9222 15ac 03       		.uleb128 0x3
 9223 15ad 91       		.byte	0x91
 9224 15ae 947F     		.sleb128 -108
 9225 15b0 00       		.byte	0
 9226 15b1 34       		.uleb128 0x34
 9227 15b2 E8000000 		.4byte	.LVL13
 9228 15b6 D2320000 		.4byte	0x32d2
 9229 15ba CD150000 		.4byte	0x15cd
 9230 15be 35       		.uleb128 0x35
 9231 15bf 01       		.uleb128 0x1
 9232 15c0 50       		.byte	0x50
 9233 15c1 03       		.uleb128 0x3
 9234 15c2 91       		.byte	0x91
 9235 15c3 987F     		.sleb128 -104
 9236 15c5 35       		.uleb128 0x35
 9237 15c6 01       		.uleb128 0x1
 9238 15c7 51       		.byte	0x51
 9239 15c8 03       		.uleb128 0x3
 9240 15c9 91       		.byte	0x91
 9241 15ca 947F     		.sleb128 -108
 9242 15cc 00       		.byte	0
 9243 15cd 34       		.uleb128 0x34
 9244 15ce 0E010000 		.4byte	.LVL14
 9245 15d2 D2320000 		.4byte	0x32d2
 9246 15d6 E9150000 		.4byte	0x15e9
 9247 15da 35       		.uleb128 0x35
 9248 15db 01       		.uleb128 0x1
 9249 15dc 50       		.byte	0x50
 9250 15dd 03       		.uleb128 0x3
 9251 15de 91       		.byte	0x91
 9252 15df 987F     		.sleb128 -104
 9253 15e1 35       		.uleb128 0x35
 9254 15e2 01       		.uleb128 0x1
 9255 15e3 51       		.byte	0x51
 9256 15e4 03       		.uleb128 0x3
ARM GAS  /var/folders/sv/kgmgr77579zbf78p2zlhkdfr0000gn/T//ccOxe4My.s 			page 165


 9257 15e5 91       		.byte	0x91
 9258 15e6 947F     		.sleb128 -108
 9259 15e8 00       		.byte	0
 9260 15e9 34       		.uleb128 0x34
 9261 15ea 34010000 		.4byte	.LVL15
 9262 15ee D2320000 		.4byte	0x32d2
 9263 15f2 05160000 		.4byte	0x1605
 9264 15f6 35       		.uleb128 0x35
 9265 15f7 01       		.uleb128 0x1
 9266 15f8 50       		.byte	0x50
 9267 15f9 03       		.uleb128 0x3
 9268 15fa 91       		.byte	0x91
 9269 15fb 987F     		.sleb128 -104
 9270 15fd 35       		.uleb128 0x35
 9271 15fe 01       		.uleb128 0x1
 9272 15ff 51       		.byte	0x51
 9273 1600 03       		.uleb128 0x3
 9274 1601 91       		.byte	0x91
 9275 1602 947F     		.sleb128 -108
 9276 1604 00       		.byte	0
 9277 1605 34       		.uleb128 0x34
 9278 1606 5A010000 		.4byte	.LVL16
 9279 160a D2320000 		.4byte	0x32d2
 9280 160e 21160000 		.4byte	0x1621
 9281 1612 35       		.uleb128 0x35
 9282 1613 01       		.uleb128 0x1
 9283 1614 50       		.byte	0x50
 9284 1615 03       		.uleb128 0x3
 9285 1616 91       		.byte	0x91
 9286 1617 987F     		.sleb128 -104
 9287 1619 35       		.uleb128 0x35
 9288 161a 01       		.uleb128 0x1
 9289 161b 51       		.byte	0x51
 9290 161c 03       		.uleb128 0x3
 9291 161d 91       		.byte	0x91
 9292 161e 947F     		.sleb128 -108
 9293 1620 00       		.byte	0
 9294 1621 34       		.uleb128 0x34
 9295 1622 78010000 		.4byte	.LVL17
 9296 1626 D2320000 		.4byte	0x32d2
 9297 162a 3D160000 		.4byte	0x163d
 9298 162e 35       		.uleb128 0x35
 9299 162f 01       		.uleb128 0x1
 9300 1630 50       		.byte	0x50
 9301 1631 03       		.uleb128 0x3
 9302 1632 91       		.byte	0x91
 9303 1633 987F     		.sleb128 -104
 9304 1635 35       		.uleb128 0x35
 9305 1636 01       		.uleb128 0x1
 9306 1637 51       		.byte	0x51
 9307 1638 03       		.uleb128 0x3
 9308 1639 91       		.byte	0x91
 9309 163a 947F     		.sleb128 -108
 9310 163c 00       		.byte	0
 9311 163d 34       		.uleb128 0x34
 9312 163e 9A010000 		.4byte	.LVL18
 9313 1642 D2320000 		.4byte	0x32d2
ARM GAS  /var/folders/sv/kgmgr77579zbf78p2zlhkdfr0000gn/T//ccOxe4My.s 			page 166


 9314 1646 59160000 		.4byte	0x1659
 9315 164a 35       		.uleb128 0x35
 9316 164b 01       		.uleb128 0x1
 9317 164c 50       		.byte	0x50
 9318 164d 03       		.uleb128 0x3
 9319 164e 91       		.byte	0x91
 9320 164f 987F     		.sleb128 -104
 9321 1651 35       		.uleb128 0x35
 9322 1652 01       		.uleb128 0x1
 9323 1653 51       		.byte	0x51
 9324 1654 03       		.uleb128 0x3
 9325 1655 91       		.byte	0x91
 9326 1656 947F     		.sleb128 -108
 9327 1658 00       		.byte	0
 9328 1659 36       		.uleb128 0x36
 9329 165a C0010000 		.4byte	.LVL21
 9330 165e DD320000 		.4byte	0x32dd
 9331 1662 35       		.uleb128 0x35
 9332 1663 01       		.uleb128 0x1
 9333 1664 50       		.byte	0x50
 9334 1665 03       		.uleb128 0x3
 9335 1666 91       		.byte	0x91
 9336 1667 987F     		.sleb128 -104
 9337 1669 00       		.byte	0
 9338 166a 00       		.byte	0
 9339 166b 00       		.byte	0
 9340 166c 36       		.uleb128 0x36
 9341 166d 36000000 		.4byte	.LVL3
 9342 1671 E8320000 		.4byte	0x32e8
 9343 1675 35       		.uleb128 0x35
 9344 1676 01       		.uleb128 0x1
 9345 1677 50       		.byte	0x50
 9346 1678 01       		.uleb128 0x1
 9347 1679 31       		.byte	0x31
 9348 167a 00       		.byte	0
 9349 167b 00       		.byte	0
 9350 167c 00       		.byte	0
 9351 167d 17       		.uleb128 0x17
 9352 167e CA000000 		.4byte	0xca
 9353 1682 8D160000 		.4byte	0x168d
 9354 1686 18       		.uleb128 0x18
 9355 1687 D1040000 		.4byte	0x4d1
 9356 168b 27       		.byte	0x27
 9357 168c 00       		.byte	0
 9358 168d 37       		.uleb128 0x37
 9359 168e C4120000 		.4byte	0x12c4
 9360 1692 00000000 		.4byte	.LFB316
 9361 1696 24000000 		.4byte	.LFE316-.LFB316
 9362 169a 01       		.uleb128 0x1
 9363 169b 9C       		.byte	0x9c
 9364 169c C5160000 		.4byte	0x16c5
 9365 16a0 2E       		.uleb128 0x2e
 9366 16a1 D1120000 		.4byte	0x12d1
 9367 16a5 40010000 		.4byte	.LLST6
 9368 16a9 38       		.uleb128 0x38
 9369 16aa 14000000 		.4byte	.LVL28
 9370 16ae F3320000 		.4byte	0x32f3
ARM GAS  /var/folders/sv/kgmgr77579zbf78p2zlhkdfr0000gn/T//ccOxe4My.s 			page 167


 9371 16b2 38       		.uleb128 0x38
 9372 16b3 18000000 		.4byte	.LVL29
 9373 16b7 FE320000 		.4byte	0x32fe
 9374 16bb 38       		.uleb128 0x38
 9375 16bc 1C000000 		.4byte	.LVL30
 9376 16c0 09330000 		.4byte	0x3309
 9377 16c4 00       		.byte	0
 9378 16c5 39       		.uleb128 0x39
 9379 16c6 C52A0000 		.4byte	.LASF389
 9380 16ca 01       		.byte	0x1
 9381 16cb 64       		.byte	0x64
 9382 16cc 00000000 		.4byte	.LFB256
 9383 16d0 80010000 		.4byte	.LFE256-.LFB256
 9384 16d4 01       		.uleb128 0x1
 9385 16d5 9C       		.byte	0x9c
 9386 16d6 C4170000 		.4byte	0x17c4
 9387 16da 3A       		.uleb128 0x3a
 9388 16db C01C0000 		.4byte	.LASF388
 9389 16df 01       		.byte	0x1
 9390 16e0 64       		.byte	0x64
 9391 16e1 C4170000 		.4byte	0x17c4
 9392 16e5 A8010000 		.4byte	.LLST7
 9393 16e9 34       		.uleb128 0x34
 9394 16ea 16000000 		.4byte	.LVL33
 9395 16ee 14330000 		.4byte	0x3314
 9396 16f2 0B170000 		.4byte	0x170b
 9397 16f6 35       		.uleb128 0x35
 9398 16f7 01       		.uleb128 0x1
 9399 16f8 50       		.byte	0x50
 9400 16f9 02       		.uleb128 0x2
 9401 16fa 75       		.byte	0x75
 9402 16fb 00       		.sleb128 0
 9403 16fc 35       		.uleb128 0x35
 9404 16fd 01       		.uleb128 0x1
 9405 16fe 51       		.byte	0x51
 9406 16ff 03       		.uleb128 0x3
 9407 1700 F3       		.byte	0xf3
 9408 1701 01       		.uleb128 0x1
 9409 1702 50       		.byte	0x50
 9410 1703 35       		.uleb128 0x35
 9411 1704 01       		.uleb128 0x1
 9412 1705 52       		.byte	0x52
 9413 1706 03       		.uleb128 0x3
 9414 1707 0A       		.byte	0xa
 9415 1708 7401     		.2byte	0x174
 9416 170a 00       		.byte	0
 9417 170b 34       		.uleb128 0x34
 9418 170c 9C000000 		.4byte	.LVL34
 9419 1710 1D330000 		.4byte	0x331d
 9420 1714 38170000 		.4byte	0x1738
 9421 1718 35       		.uleb128 0x35
 9422 1719 01       		.uleb128 0x1
 9423 171a 50       		.byte	0x50
 9424 171b 05       		.uleb128 0x5
 9425 171c 03       		.byte	0x3
 9426 171d 00000000 		.4byte	.LANCHOR37
 9427 1721 35       		.uleb128 0x35
ARM GAS  /var/folders/sv/kgmgr77579zbf78p2zlhkdfr0000gn/T//ccOxe4My.s 			page 168


 9428 1722 01       		.uleb128 0x1
 9429 1723 51       		.byte	0x51
 9430 1724 03       		.uleb128 0x3
 9431 1725 0A       		.byte	0xa
 9432 1726 9805     		.2byte	0x598
 9433 1728 35       		.uleb128 0x35
 9434 1729 01       		.uleb128 0x1
 9435 172a 52       		.byte	0x52
 9436 172b 02       		.uleb128 0x2
 9437 172c 08       		.byte	0x8
 9438 172d 40       		.byte	0x40
 9439 172e 35       		.uleb128 0x35
 9440 172f 01       		.uleb128 0x1
 9441 1730 53       		.byte	0x53
 9442 1731 05       		.uleb128 0x5
 9443 1732 03       		.byte	0x3
 9444 1733 00000000 		.4byte	timer_thread
 9445 1737 00       		.byte	0
 9446 1738 34       		.uleb128 0x34
 9447 1739 AC000000 		.4byte	.LVL35
 9448 173d 1D330000 		.4byte	0x331d
 9449 1741 6C170000 		.4byte	0x176c
 9450 1745 35       		.uleb128 0x35
 9451 1746 01       		.uleb128 0x1
 9452 1747 50       		.byte	0x50
 9453 1748 05       		.uleb128 0x5
 9454 1749 03       		.byte	0x3
 9455 174a 00000000 		.4byte	.LANCHOR38
 9456 174e 35       		.uleb128 0x35
 9457 174f 01       		.uleb128 0x1
 9458 1750 51       		.byte	0x51
 9459 1751 03       		.uleb128 0x3
 9460 1752 0A       		.byte	0xa
 9461 1753 9805     		.2byte	0x598
 9462 1755 35       		.uleb128 0x35
 9463 1756 01       		.uleb128 0x1
 9464 1757 52       		.byte	0x52
 9465 1758 02       		.uleb128 0x2
 9466 1759 08       		.byte	0x8
 9467 175a 3F       		.byte	0x3f
 9468 175b 35       		.uleb128 0x35
 9469 175c 01       		.uleb128 0x1
 9470 175d 53       		.byte	0x53
 9471 175e 05       		.uleb128 0x5
 9472 175f 03       		.byte	0x3
 9473 1760 00000000 		.4byte	sample_send_thread
 9474 1764 35       		.uleb128 0x35
 9475 1765 02       		.uleb128 0x2
 9476 1766 7D       		.byte	0x7d
 9477 1767 00       		.sleb128 0
 9478 1768 02       		.uleb128 0x2
 9479 1769 74       		.byte	0x74
 9480 176a 00       		.sleb128 0
 9481 176b 00       		.byte	0
 9482 176c 3B       		.uleb128 0x3b
 9483 176d BE000000 		.4byte	.LVL36
 9484 1771 28330000 		.4byte	0x3328
ARM GAS  /var/folders/sv/kgmgr77579zbf78p2zlhkdfr0000gn/T//ccOxe4My.s 			page 169


 9485 1775 3C       		.uleb128 0x3c
 9486 1776 D8000000 		.4byte	.LVL37
 9487 177a 33330000 		.4byte	0x3333
 9488 177e 8C170000 		.4byte	0x178c
 9489 1782 35       		.uleb128 0x35
 9490 1783 01       		.uleb128 0x1
 9491 1784 50       		.byte	0x50
 9492 1785 05       		.uleb128 0x5
 9493 1786 03       		.byte	0x3
 9494 1787 00000000 		.4byte	.LANCHOR12
 9495 178b 00       		.byte	0
 9496 178c 3C       		.uleb128 0x3c
 9497 178d E4000000 		.4byte	.LVL38
 9498 1791 3E330000 		.4byte	0x333e
 9499 1795 A3170000 		.4byte	0x17a3
 9500 1799 35       		.uleb128 0x35
 9501 179a 01       		.uleb128 0x1
 9502 179b 50       		.byte	0x50
 9503 179c 05       		.uleb128 0x5
 9504 179d 03       		.byte	0x3
 9505 179e 00000000 		.4byte	.LANCHOR12
 9506 17a2 00       		.byte	0
 9507 17a3 3C       		.uleb128 0x3c
 9508 17a4 F0000000 		.4byte	.LVL39
 9509 17a8 49330000 		.4byte	0x3349
 9510 17ac BA170000 		.4byte	0x17ba
 9511 17b0 35       		.uleb128 0x35
 9512 17b1 01       		.uleb128 0x1
 9513 17b2 50       		.byte	0x50
 9514 17b3 05       		.uleb128 0x5
 9515 17b4 03       		.byte	0x3
 9516 17b5 00000000 		.4byte	.LANCHOR12
 9517 17b9 00       		.byte	0
 9518 17ba 3B       		.uleb128 0x3b
 9519 17bb F8000000 		.4byte	.LVL40
 9520 17bf 54330000 		.4byte	0x3354
 9521 17c3 00       		.byte	0
 9522 17c4 0A       		.uleb128 0xa
 9523 17c5 04       		.byte	0x4
 9524 17c6 5D0F0000 		.4byte	0xf5d
 9525 17ca 3D       		.uleb128 0x3d
 9526 17cb 8F250000 		.4byte	.LASF395
 9527 17cf 01       		.byte	0x1
 9528 17d0 AE       		.byte	0xae
 9529 17d1 DF170000 		.4byte	0x17df
 9530 17d5 00000000 		.4byte	.LFB257
 9531 17d9 08000000 		.4byte	.LFE257-.LFB257
 9532 17dd 01       		.uleb128 0x1
 9533 17de 9C       		.byte	0x9c
 9534 17df 0A       		.uleb128 0xa
 9535 17e0 04       		.byte	0x4
 9536 17e1 E5170000 		.4byte	0x17e5
 9537 17e5 16       		.uleb128 0x16
 9538 17e6 BA140000 		.4byte	0x14ba
 9539 17ea 3E       		.uleb128 0x3e
 9540 17eb DD000000 		.4byte	.LASF397
 9541 17ef 01       		.byte	0x1
ARM GAS  /var/folders/sv/kgmgr77579zbf78p2zlhkdfr0000gn/T//ccOxe4My.s 			page 170


 9542 17f0 0201     		.2byte	0x102
 9543 17f2 360F0000 		.4byte	0xf36
 9544 17f6 00000000 		.4byte	.LFB259
 9545 17fa 30000000 		.4byte	.LFE259-.LFB259
 9546 17fe 01       		.uleb128 0x1
 9547 17ff 9C       		.byte	0x9c
 9548 1800 30180000 		.4byte	0x1830
 9549 1804 30       		.uleb128 0x30
 9550 1805 72657400 		.ascii	"ret\000"
 9551 1809 01       		.byte	0x1
 9552 180a 0301     		.2byte	0x103
 9553 180c 360F0000 		.4byte	0xf36
 9554 1810 D4010000 		.4byte	.LLST8
 9555 1814 3B       		.uleb128 0x3b
 9556 1815 16000000 		.4byte	.LVL42
 9557 1819 5F330000 		.4byte	0x335f
 9558 181d 38       		.uleb128 0x38
 9559 181e 1E000000 		.4byte	.LVL43
 9560 1822 6A330000 		.4byte	0x336a
 9561 1826 38       		.uleb128 0x38
 9562 1827 26000000 		.4byte	.LVL44
 9563 182b 75330000 		.4byte	0x3375
 9564 182f 00       		.byte	0
 9565 1830 3F       		.uleb128 0x3f
 9566 1831 EA080000 		.4byte	.LASF390
 9567 1835 01       		.byte	0x1
 9568 1836 1C01     		.2byte	0x11c
 9569 1838 00000000 		.4byte	.LFB260
 9570 183c 0C000000 		.4byte	.LFE260-.LFB260
 9571 1840 01       		.uleb128 0x1
 9572 1841 9C       		.byte	0x9c
 9573 1842 55180000 		.4byte	0x1855
 9574 1846 40       		.uleb128 0x40
 9575 1847 312A0000 		.4byte	.LASF391
 9576 184b 01       		.byte	0x1
 9577 184c 1C01     		.2byte	0x11c
 9578 184e FF110000 		.4byte	0x11ff
 9579 1852 01       		.uleb128 0x1
 9580 1853 50       		.byte	0x50
 9581 1854 00       		.byte	0
 9582 1855 41       		.uleb128 0x41
 9583 1856 F30F0000 		.4byte	.LASF392
 9584 185a 01       		.byte	0x1
 9585 185b 2301     		.2byte	0x123
 9586 185d 00000000 		.4byte	.LFB261
 9587 1861 0C000000 		.4byte	.LFE261-.LFB261
 9588 1865 01       		.uleb128 0x1
 9589 1866 9C       		.byte	0x9c
 9590 1867 41       		.uleb128 0x41
 9591 1868 58020000 		.4byte	.LASF393
 9592 186c 01       		.byte	0x1
 9593 186d 2A01     		.2byte	0x12a
 9594 186f 00000000 		.4byte	.LFB262
 9595 1873 0C000000 		.4byte	.LFE262-.LFB262
 9596 1877 01       		.uleb128 0x1
 9597 1878 9C       		.byte	0x9c
 9598 1879 41       		.uleb128 0x41
ARM GAS  /var/folders/sv/kgmgr77579zbf78p2zlhkdfr0000gn/T//ccOxe4My.s 			page 171


 9599 187a D72A0000 		.4byte	.LASF394
 9600 187e 01       		.byte	0x1
 9601 187f 3101     		.2byte	0x131
 9602 1881 00000000 		.4byte	.LFB263
 9603 1885 0C000000 		.4byte	.LFE263-.LFB263
 9604 1889 01       		.uleb128 0x1
 9605 188a 9C       		.byte	0x9c
 9606 188b 42       		.uleb128 0x42
 9607 188c 9E0F0000 		.4byte	.LASF396
 9608 1890 01       		.byte	0x1
 9609 1891 3501     		.2byte	0x135
 9610 1893 D4090000 		.4byte	0x9d4
 9611 1897 00000000 		.4byte	.LFB264
 9612 189b 0C000000 		.4byte	.LFE264-.LFB264
 9613 189f 01       		.uleb128 0x1
 9614 18a0 9C       		.byte	0x9c
 9615 18a1 3E       		.uleb128 0x3e
 9616 18a2 91090000 		.4byte	.LASF398
 9617 18a6 01       		.byte	0x1
 9618 18a7 3901     		.2byte	0x139
 9619 18a9 58080000 		.4byte	0x858
 9620 18ad 00000000 		.4byte	.LFB265
 9621 18b1 18000000 		.4byte	.LFE265-.LFB265
 9622 18b5 01       		.uleb128 0x1
 9623 18b6 9C       		.byte	0x9c
 9624 18b7 CC180000 		.4byte	0x18cc
 9625 18bb 43       		.uleb128 0x43
 9626 18bc BA1C0000 		.4byte	.LASF312
 9627 18c0 01       		.byte	0x1
 9628 18c1 3901     		.2byte	0x139
 9629 18c3 D4090000 		.4byte	0x9d4
 9630 18c7 F4010000 		.4byte	.LLST9
 9631 18cb 00       		.byte	0
 9632 18cc 3E       		.uleb128 0x3e
 9633 18cd 58250000 		.4byte	.LASF399
 9634 18d1 01       		.byte	0x1
 9635 18d2 4601     		.2byte	0x146
 9636 18d4 C0080000 		.4byte	0x8c0
 9637 18d8 00000000 		.4byte	.LFB266
 9638 18dc 20000000 		.4byte	.LFE266-.LFB266
 9639 18e0 01       		.uleb128 0x1
 9640 18e1 9C       		.byte	0x9c
 9641 18e2 06190000 		.4byte	0x1906
 9642 18e6 44       		.uleb128 0x44
 9643 18e7 72657400 		.ascii	"ret\000"
 9644 18eb 01       		.byte	0x1
 9645 18ec 4701     		.2byte	0x147
 9646 18ee C0080000 		.4byte	0x8c0
 9647 18f2 00       		.byte	0
 9648 18f3 38       		.uleb128 0x38
 9649 18f4 14000000 		.4byte	.LVL49
 9650 18f8 80330000 		.4byte	0x3380
 9651 18fc 38       		.uleb128 0x38
 9652 18fd 18000000 		.4byte	.LVL50
 9653 1901 8B330000 		.4byte	0x338b
 9654 1905 00       		.byte	0
 9655 1906 3E       		.uleb128 0x3e
ARM GAS  /var/folders/sv/kgmgr77579zbf78p2zlhkdfr0000gn/T//ccOxe4My.s 			page 172


 9656 1907 7F1D0000 		.4byte	.LASF400
 9657 190b 01       		.byte	0x1
 9658 190c 3102     		.2byte	0x231
 9659 190e 25000000 		.4byte	0x25
 9660 1912 00000000 		.4byte	.LFB279
 9661 1916 4C000000 		.4byte	.LFE279-.LFB279
 9662 191a 01       		.uleb128 0x1
 9663 191b 9C       		.byte	0x9c
 9664 191c 4C190000 		.4byte	0x194c
 9665 1920 30       		.uleb128 0x30
 9666 1921 72657400 		.ascii	"ret\000"
 9667 1925 01       		.byte	0x1
 9668 1926 3202     		.2byte	0x232
 9669 1928 25000000 		.4byte	0x25
 9670 192c 15020000 		.4byte	.LLST10
 9671 1930 3B       		.uleb128 0x3b
 9672 1931 16000000 		.4byte	.LVL52
 9673 1935 96330000 		.4byte	0x3396
 9674 1939 3B       		.uleb128 0x3b
 9675 193a 34000000 		.4byte	.LVL55
 9676 193e A1330000 		.4byte	0x33a1
 9677 1942 3B       		.uleb128 0x3b
 9678 1943 3A000000 		.4byte	.LVL57
 9679 1947 AC330000 		.4byte	0x33ac
 9680 194b 00       		.byte	0
 9681 194c 3E       		.uleb128 0x3e
 9682 194d D80D0000 		.4byte	.LASF401
 9683 1951 01       		.byte	0x1
 9684 1952 4702     		.2byte	0x247
 9685 1954 25000000 		.4byte	0x25
 9686 1958 00000000 		.4byte	.LFB280
 9687 195c 4C000000 		.4byte	.LFE280-.LFB280
 9688 1960 01       		.uleb128 0x1
 9689 1961 9C       		.byte	0x9c
 9690 1962 92190000 		.4byte	0x1992
 9691 1966 30       		.uleb128 0x30
 9692 1967 72657400 		.ascii	"ret\000"
 9693 196b 01       		.byte	0x1
 9694 196c 4802     		.2byte	0x248
 9695 196e 25000000 		.4byte	0x25
 9696 1972 81020000 		.4byte	.LLST11
 9697 1976 3B       		.uleb128 0x3b
 9698 1977 16000000 		.4byte	.LVL60
 9699 197b B7330000 		.4byte	0x33b7
 9700 197f 3B       		.uleb128 0x3b
 9701 1980 34000000 		.4byte	.LVL63
 9702 1984 C2330000 		.4byte	0x33c2
 9703 1988 3B       		.uleb128 0x3b
 9704 1989 3A000000 		.4byte	.LVL65
 9705 198d CD330000 		.4byte	0x33cd
 9706 1991 00       		.byte	0
 9707 1992 3E       		.uleb128 0x3e
 9708 1993 BB110000 		.4byte	.LASF402
 9709 1997 01       		.byte	0x1
 9710 1998 5D02     		.2byte	0x25d
 9711 199a 25000000 		.4byte	0x25
 9712 199e 00000000 		.4byte	.LFB281
ARM GAS  /var/folders/sv/kgmgr77579zbf78p2zlhkdfr0000gn/T//ccOxe4My.s 			page 173


 9713 19a2 2C000000 		.4byte	.LFE281-.LFB281
 9714 19a6 01       		.uleb128 0x1
 9715 19a7 9C       		.byte	0x9c
 9716 19a8 D9190000 		.4byte	0x19d9
 9717 19ac 45       		.uleb128 0x45
 9718 19ad 72657400 		.ascii	"ret\000"
 9719 19b1 01       		.byte	0x1
 9720 19b2 5E02     		.2byte	0x25e
 9721 19b4 25000000 		.4byte	0x25
 9722 19b8 04       		.byte	0x4
 9723 19b9 00000000 		.4byte	0
 9724 19bd 38       		.uleb128 0x38
 9725 19be 14000000 		.4byte	.LVL68
 9726 19c2 D8330000 		.4byte	0x33d8
 9727 19c6 38       		.uleb128 0x38
 9728 19c7 18000000 		.4byte	.LVL69
 9729 19cb E3330000 		.4byte	0x33e3
 9730 19cf 38       		.uleb128 0x38
 9731 19d0 1C000000 		.4byte	.LVL70
 9732 19d4 EE330000 		.4byte	0x33ee
 9733 19d8 00       		.byte	0
 9734 19d9 3E       		.uleb128 0x3e
 9735 19da F60C0000 		.4byte	.LASF403
 9736 19de 01       		.byte	0x1
 9737 19df 7302     		.2byte	0x273
 9738 19e1 25000000 		.4byte	0x25
 9739 19e5 00000000 		.4byte	.LFB282
 9740 19e9 4C000000 		.4byte	.LFE282-.LFB282
 9741 19ed 01       		.uleb128 0x1
 9742 19ee 9C       		.byte	0x9c
 9743 19ef 1F1A0000 		.4byte	0x1a1f
 9744 19f3 30       		.uleb128 0x30
 9745 19f4 72657400 		.ascii	"ret\000"
 9746 19f8 01       		.byte	0x1
 9747 19f9 7402     		.2byte	0x274
 9748 19fb 25000000 		.4byte	0x25
 9749 19ff ED020000 		.4byte	.LLST12
 9750 1a03 3B       		.uleb128 0x3b
 9751 1a04 16000000 		.4byte	.LVL72
 9752 1a08 F9330000 		.4byte	0x33f9
 9753 1a0c 3B       		.uleb128 0x3b
 9754 1a0d 34000000 		.4byte	.LVL75
 9755 1a11 04340000 		.4byte	0x3404
 9756 1a15 3B       		.uleb128 0x3b
 9757 1a16 3A000000 		.4byte	.LVL77
 9758 1a1a 0F340000 		.4byte	0x340f
 9759 1a1e 00       		.byte	0
 9760 1a1f 3E       		.uleb128 0x3e
 9761 1a20 0E270000 		.4byte	.LASF404
 9762 1a24 01       		.byte	0x1
 9763 1a25 9202     		.2byte	0x292
 9764 1a27 25000000 		.4byte	0x25
 9765 1a2b 00000000 		.4byte	.LFB283
 9766 1a2f 20000000 		.4byte	.LFE283-.LFB283
 9767 1a33 01       		.uleb128 0x1
 9768 1a34 9C       		.byte	0x9c
 9769 1a35 571A0000 		.4byte	0x1a57
ARM GAS  /var/folders/sv/kgmgr77579zbf78p2zlhkdfr0000gn/T//ccOxe4My.s 			page 174


 9770 1a39 40       		.uleb128 0x40
 9771 1a3a 5A140000 		.4byte	.LASF405
 9772 1a3e 01       		.byte	0x1
 9773 1a3f 9202     		.2byte	0x292
 9774 1a41 360F0000 		.4byte	0xf36
 9775 1a45 01       		.uleb128 0x1
 9776 1a46 50       		.byte	0x50
 9777 1a47 46       		.uleb128 0x46
 9778 1a48 76616C00 		.ascii	"val\000"
 9779 1a4c 01       		.byte	0x1
 9780 1a4d 9302     		.2byte	0x293
 9781 1a4f 25000000 		.4byte	0x25
 9782 1a53 02       		.uleb128 0x2
 9783 1a54 90       		.byte	0x90
 9784 1a55 40       		.uleb128 0x40
 9785 1a56 00       		.byte	0
 9786 1a57 3E       		.uleb128 0x3e
 9787 1a58 E91C0000 		.4byte	.LASF406
 9788 1a5c 01       		.byte	0x1
 9789 1a5d A502     		.2byte	0x2a5
 9790 1a5f 25000000 		.4byte	0x25
 9791 1a63 00000000 		.4byte	.LFB284
 9792 1a67 20000000 		.4byte	.LFE284-.LFB284
 9793 1a6b 01       		.uleb128 0x1
 9794 1a6c 9C       		.byte	0x9c
 9795 1a6d 8F1A0000 		.4byte	0x1a8f
 9796 1a71 40       		.uleb128 0x40
 9797 1a72 5A140000 		.4byte	.LASF405
 9798 1a76 01       		.byte	0x1
 9799 1a77 A502     		.2byte	0x2a5
 9800 1a79 360F0000 		.4byte	0xf36
 9801 1a7d 01       		.uleb128 0x1
 9802 1a7e 50       		.byte	0x50
 9803 1a7f 46       		.uleb128 0x46
 9804 1a80 76616C00 		.ascii	"val\000"
 9805 1a84 01       		.byte	0x1
 9806 1a85 A602     		.2byte	0x2a6
 9807 1a87 25000000 		.4byte	0x25
 9808 1a8b 02       		.uleb128 0x2
 9809 1a8c 90       		.byte	0x90
 9810 1a8d 40       		.uleb128 0x40
 9811 1a8e 00       		.byte	0
 9812 1a8f 3E       		.uleb128 0x3e
 9813 1a90 411A0000 		.4byte	.LASF407
 9814 1a94 01       		.byte	0x1
 9815 1a95 B802     		.2byte	0x2b8
 9816 1a97 25000000 		.4byte	0x25
 9817 1a9b 00000000 		.4byte	.LFB285
 9818 1a9f 20000000 		.4byte	.LFE285-.LFB285
 9819 1aa3 01       		.uleb128 0x1
 9820 1aa4 9C       		.byte	0x9c
 9821 1aa5 C71A0000 		.4byte	0x1ac7
 9822 1aa9 40       		.uleb128 0x40
 9823 1aaa 5A140000 		.4byte	.LASF405
 9824 1aae 01       		.byte	0x1
 9825 1aaf B802     		.2byte	0x2b8
 9826 1ab1 360F0000 		.4byte	0xf36
ARM GAS  /var/folders/sv/kgmgr77579zbf78p2zlhkdfr0000gn/T//ccOxe4My.s 			page 175


 9827 1ab5 01       		.uleb128 0x1
 9828 1ab6 50       		.byte	0x50
 9829 1ab7 46       		.uleb128 0x46
 9830 1ab8 76616C00 		.ascii	"val\000"
 9831 1abc 01       		.byte	0x1
 9832 1abd B902     		.2byte	0x2b9
 9833 1abf 25000000 		.4byte	0x25
 9834 1ac3 02       		.uleb128 0x2
 9835 1ac4 90       		.byte	0x90
 9836 1ac5 40       		.uleb128 0x40
 9837 1ac6 00       		.byte	0
 9838 1ac7 3E       		.uleb128 0x3e
 9839 1ac8 90290000 		.4byte	.LASF408
 9840 1acc 01       		.byte	0x1
 9841 1acd CB02     		.2byte	0x2cb
 9842 1acf 25000000 		.4byte	0x25
 9843 1ad3 00000000 		.4byte	.LFB286
 9844 1ad7 20000000 		.4byte	.LFE286-.LFB286
 9845 1adb 01       		.uleb128 0x1
 9846 1adc 9C       		.byte	0x9c
 9847 1add FF1A0000 		.4byte	0x1aff
 9848 1ae1 40       		.uleb128 0x40
 9849 1ae2 5A140000 		.4byte	.LASF405
 9850 1ae6 01       		.byte	0x1
 9851 1ae7 CB02     		.2byte	0x2cb
 9852 1ae9 360F0000 		.4byte	0xf36
 9853 1aed 01       		.uleb128 0x1
 9854 1aee 50       		.byte	0x50
 9855 1aef 46       		.uleb128 0x46
 9856 1af0 76616C00 		.ascii	"val\000"
 9857 1af4 01       		.byte	0x1
 9858 1af5 CC02     		.2byte	0x2cc
 9859 1af7 25000000 		.4byte	0x25
 9860 1afb 02       		.uleb128 0x2
 9861 1afc 90       		.byte	0x90
 9862 1afd 40       		.uleb128 0x40
 9863 1afe 00       		.byte	0
 9864 1aff 3E       		.uleb128 0x3e
 9865 1b00 F10B0000 		.4byte	.LASF409
 9866 1b04 01       		.byte	0x1
 9867 1b05 D502     		.2byte	0x2d5
 9868 1b07 25000000 		.4byte	0x25
 9869 1b0b 00000000 		.4byte	.LFB287
 9870 1b0f 2C000000 		.4byte	.LFE287-.LFB287
 9871 1b13 01       		.uleb128 0x1
 9872 1b14 9C       		.byte	0x9c
 9873 1b15 461B0000 		.4byte	0x1b46
 9874 1b19 45       		.uleb128 0x45
 9875 1b1a 72657400 		.ascii	"ret\000"
 9876 1b1e 01       		.byte	0x1
 9877 1b1f D602     		.2byte	0x2d6
 9878 1b21 25000000 		.4byte	0x25
 9879 1b25 04       		.byte	0x4
 9880 1b26 00000000 		.4byte	0
 9881 1b2a 38       		.uleb128 0x38
 9882 1b2b 14000000 		.4byte	.LVL88
 9883 1b2f 1A340000 		.4byte	0x341a
ARM GAS  /var/folders/sv/kgmgr77579zbf78p2zlhkdfr0000gn/T//ccOxe4My.s 			page 176


 9884 1b33 38       		.uleb128 0x38
 9885 1b34 18000000 		.4byte	.LVL89
 9886 1b38 25340000 		.4byte	0x3425
 9887 1b3c 38       		.uleb128 0x38
 9888 1b3d 1C000000 		.4byte	.LVL90
 9889 1b41 30340000 		.4byte	0x3430
 9890 1b45 00       		.byte	0
 9891 1b46 3E       		.uleb128 0x3e
 9892 1b47 23190000 		.4byte	.LASF410
 9893 1b4b 01       		.byte	0x1
 9894 1b4c EB02     		.2byte	0x2eb
 9895 1b4e 25000000 		.4byte	0x25
 9896 1b52 00000000 		.4byte	.LFB288
 9897 1b56 2C000000 		.4byte	.LFE288-.LFB288
 9898 1b5a 01       		.uleb128 0x1
 9899 1b5b 9C       		.byte	0x9c
 9900 1b5c 8D1B0000 		.4byte	0x1b8d
 9901 1b60 45       		.uleb128 0x45
 9902 1b61 72657400 		.ascii	"ret\000"
 9903 1b65 01       		.byte	0x1
 9904 1b66 EC02     		.2byte	0x2ec
 9905 1b68 25000000 		.4byte	0x25
 9906 1b6c 04       		.byte	0x4
 9907 1b6d 00000000 		.4byte	0
 9908 1b71 38       		.uleb128 0x38
 9909 1b72 14000000 		.4byte	.LVL92
 9910 1b76 3B340000 		.4byte	0x343b
 9911 1b7a 38       		.uleb128 0x38
 9912 1b7b 18000000 		.4byte	.LVL93
 9913 1b7f 46340000 		.4byte	0x3446
 9914 1b83 38       		.uleb128 0x38
 9915 1b84 1C000000 		.4byte	.LVL94
 9916 1b88 51340000 		.4byte	0x3451
 9917 1b8c 00       		.byte	0
 9918 1b8d 3E       		.uleb128 0x3e
 9919 1b8e 8E020000 		.4byte	.LASF411
 9920 1b92 01       		.byte	0x1
 9921 1b93 0103     		.2byte	0x301
 9922 1b95 25000000 		.4byte	0x25
 9923 1b99 00000000 		.4byte	.LFB289
 9924 1b9d 4C000000 		.4byte	.LFE289-.LFB289
 9925 1ba1 01       		.uleb128 0x1
 9926 1ba2 9C       		.byte	0x9c
 9927 1ba3 D31B0000 		.4byte	0x1bd3
 9928 1ba7 30       		.uleb128 0x30
 9929 1ba8 72657400 		.ascii	"ret\000"
 9930 1bac 01       		.byte	0x1
 9931 1bad 0203     		.2byte	0x302
 9932 1baf 25000000 		.4byte	0x25
 9933 1bb3 59030000 		.4byte	.LLST13
 9934 1bb7 3B       		.uleb128 0x3b
 9935 1bb8 16000000 		.4byte	.LVL96
 9936 1bbc 5C340000 		.4byte	0x345c
 9937 1bc0 3B       		.uleb128 0x3b
 9938 1bc1 34000000 		.4byte	.LVL99
 9939 1bc5 67340000 		.4byte	0x3467
 9940 1bc9 3B       		.uleb128 0x3b
ARM GAS  /var/folders/sv/kgmgr77579zbf78p2zlhkdfr0000gn/T//ccOxe4My.s 			page 177


 9941 1bca 3A000000 		.4byte	.LVL101
 9942 1bce 72340000 		.4byte	0x3472
 9943 1bd2 00       		.byte	0
 9944 1bd3 3E       		.uleb128 0x3e
 9945 1bd4 9B140000 		.4byte	.LASF412
 9946 1bd8 01       		.byte	0x1
 9947 1bd9 1703     		.2byte	0x317
 9948 1bdb 25000000 		.4byte	0x25
 9949 1bdf 00000000 		.4byte	.LFB290
 9950 1be3 4C000000 		.4byte	.LFE290-.LFB290
 9951 1be7 01       		.uleb128 0x1
 9952 1be8 9C       		.byte	0x9c
 9953 1be9 191C0000 		.4byte	0x1c19
 9954 1bed 30       		.uleb128 0x30
 9955 1bee 72657400 		.ascii	"ret\000"
 9956 1bf2 01       		.byte	0x1
 9957 1bf3 1803     		.2byte	0x318
 9958 1bf5 25000000 		.4byte	0x25
 9959 1bf9 C5030000 		.4byte	.LLST14
 9960 1bfd 3B       		.uleb128 0x3b
 9961 1bfe 16000000 		.4byte	.LVL104
 9962 1c02 7D340000 		.4byte	0x347d
 9963 1c06 3B       		.uleb128 0x3b
 9964 1c07 34000000 		.4byte	.LVL107
 9965 1c0b 88340000 		.4byte	0x3488
 9966 1c0f 3B       		.uleb128 0x3b
 9967 1c10 3A000000 		.4byte	.LVL109
 9968 1c14 93340000 		.4byte	0x3493
 9969 1c18 00       		.byte	0
 9970 1c19 3E       		.uleb128 0x3e
 9971 1c1a 91080000 		.4byte	.LASF413
 9972 1c1e 01       		.byte	0x1
 9973 1c1f 2D03     		.2byte	0x32d
 9974 1c21 25000000 		.4byte	0x25
 9975 1c25 00000000 		.4byte	.LFB291
 9976 1c29 2C000000 		.4byte	.LFE291-.LFB291
 9977 1c2d 01       		.uleb128 0x1
 9978 1c2e 9C       		.byte	0x9c
 9979 1c2f 601C0000 		.4byte	0x1c60
 9980 1c33 45       		.uleb128 0x45
 9981 1c34 72657400 		.ascii	"ret\000"
 9982 1c38 01       		.byte	0x1
 9983 1c39 2E03     		.2byte	0x32e
 9984 1c3b 25000000 		.4byte	0x25
 9985 1c3f 04       		.byte	0x4
 9986 1c40 00000000 		.4byte	0
 9987 1c44 38       		.uleb128 0x38
 9988 1c45 14000000 		.4byte	.LVL112
 9989 1c49 9E340000 		.4byte	0x349e
 9990 1c4d 38       		.uleb128 0x38
 9991 1c4e 18000000 		.4byte	.LVL113
 9992 1c52 A9340000 		.4byte	0x34a9
 9993 1c56 38       		.uleb128 0x38
 9994 1c57 1C000000 		.4byte	.LVL114
 9995 1c5b B4340000 		.4byte	0x34b4
 9996 1c5f 00       		.byte	0
 9997 1c60 3E       		.uleb128 0x3e
ARM GAS  /var/folders/sv/kgmgr77579zbf78p2zlhkdfr0000gn/T//ccOxe4My.s 			page 178


 9998 1c61 A8050000 		.4byte	.LASF414
 9999 1c65 01       		.byte	0x1
 10000 1c66 4303     		.2byte	0x343
 10001 1c68 25000000 		.4byte	0x25
 10002 1c6c 00000000 		.4byte	.LFB292
 10003 1c70 2C000000 		.4byte	.LFE292-.LFB292
 10004 1c74 01       		.uleb128 0x1
 10005 1c75 9C       		.byte	0x9c
 10006 1c76 A71C0000 		.4byte	0x1ca7
 10007 1c7a 45       		.uleb128 0x45
 10008 1c7b 72657400 		.ascii	"ret\000"
 10009 1c7f 01       		.byte	0x1
 10010 1c80 4403     		.2byte	0x344
 10011 1c82 25000000 		.4byte	0x25
 10012 1c86 04       		.byte	0x4
 10013 1c87 00000000 		.4byte	0
 10014 1c8b 38       		.uleb128 0x38
 10015 1c8c 14000000 		.4byte	.LVL116
 10016 1c90 BF340000 		.4byte	0x34bf
 10017 1c94 38       		.uleb128 0x38
 10018 1c95 18000000 		.4byte	.LVL117
 10019 1c99 CA340000 		.4byte	0x34ca
 10020 1c9d 38       		.uleb128 0x38
 10021 1c9e 1C000000 		.4byte	.LVL118
 10022 1ca2 D5340000 		.4byte	0x34d5
 10023 1ca6 00       		.byte	0
 10024 1ca7 3E       		.uleb128 0x3e
 10025 1ca8 781A0000 		.4byte	.LASF415
 10026 1cac 01       		.byte	0x1
 10027 1cad 5903     		.2byte	0x359
 10028 1caf B1000000 		.4byte	0xb1
 10029 1cb3 00000000 		.4byte	.LFB293
 10030 1cb7 6C000000 		.4byte	.LFE293-.LFB293
 10031 1cbb 01       		.uleb128 0x1
 10032 1cbc 9C       		.byte	0x9c
 10033 1cbd FD1C0000 		.4byte	0x1cfd
 10034 1cc1 43       		.uleb128 0x43
 10035 1cc2 5A140000 		.4byte	.LASF405
 10036 1cc6 01       		.byte	0x1
 10037 1cc7 5903     		.2byte	0x359
 10038 1cc9 360F0000 		.4byte	0xf36
 10039 1ccd 31040000 		.4byte	.LLST15
 10040 1cd1 30       		.uleb128 0x30
 10041 1cd2 72657400 		.ascii	"ret\000"
 10042 1cd6 01       		.byte	0x1
 10043 1cd7 5A03     		.2byte	0x35a
 10044 1cd9 B1000000 		.4byte	0xb1
 10045 1cdd 8F040000 		.4byte	.LLST16
 10046 1ce1 3B       		.uleb128 0x3b
 10047 1ce2 16000000 		.4byte	.LVL120
 10048 1ce6 E0340000 		.4byte	0x34e0
 10049 1cea 3B       		.uleb128 0x3b
 10050 1ceb 44000000 		.4byte	.LVL123
 10051 1cef EB340000 		.4byte	0x34eb
 10052 1cf3 3B       		.uleb128 0x3b
 10053 1cf4 52000000 		.4byte	.LVL125
 10054 1cf8 F6340000 		.4byte	0x34f6
ARM GAS  /var/folders/sv/kgmgr77579zbf78p2zlhkdfr0000gn/T//ccOxe4My.s 			page 179


 10055 1cfc 00       		.byte	0
 10056 1cfd 37       		.uleb128 0x37
 10057 1cfe DE120000 		.4byte	0x12de
 10058 1d02 00000000 		.4byte	.LFB317
 10059 1d06 50010000 		.4byte	.LFE317-.LFB317
 10060 1d0a 01       		.uleb128 0x1
 10061 1d0b 9C       		.byte	0x9c
 10062 1d0c DD1D0000 		.4byte	0x1ddd
 10063 1d10 2E       		.uleb128 0x2e
 10064 1d11 EB120000 		.4byte	0x12eb
 10065 1d15 E8040000 		.4byte	.LLST17
 10066 1d19 47       		.uleb128 0x47
 10067 1d1a 48000000 		.4byte	.LBB128
 10068 1d1e 08010000 		.4byte	.LBE128-.LBB128
 10069 1d22 B81D0000 		.4byte	0x1db8
 10070 1d26 48       		.uleb128 0x48
 10071 1d27 F8120000 		.4byte	0x12f8
 10072 1d2b 03       		.uleb128 0x3
 10073 1d2c 91       		.byte	0x91
 10074 1d2d A47F     		.sleb128 -92
 10075 1d2f 48       		.uleb128 0x48
 10076 1d30 04130000 		.4byte	0x1304
 10077 1d34 03       		.uleb128 0x3
 10078 1d35 91       		.byte	0x91
 10079 1d36 A87F     		.sleb128 -88
 10080 1d38 48       		.uleb128 0x48
 10081 1d39 10130000 		.4byte	0x1310
 10082 1d3d 03       		.uleb128 0x3
 10083 1d3e 91       		.byte	0x91
 10084 1d3f AC7F     		.sleb128 -84
 10085 1d41 48       		.uleb128 0x48
 10086 1d42 1C130000 		.4byte	0x131c
 10087 1d46 03       		.uleb128 0x3
 10088 1d47 91       		.byte	0x91
 10089 1d48 B07F     		.sleb128 -80
 10090 1d4a 3B       		.uleb128 0x3b
 10091 1d4b 4C000000 		.4byte	.LVL132
 10092 1d4f 01350000 		.4byte	0x3501
 10093 1d53 3B       		.uleb128 0x3b
 10094 1d54 60000000 		.4byte	.LVL133
 10095 1d58 0C350000 		.4byte	0x350c
 10096 1d5c 3B       		.uleb128 0x3b
 10097 1d5d 68000000 		.4byte	.LVL134
 10098 1d61 FF1A0000 		.4byte	0x1aff
 10099 1d65 3B       		.uleb128 0x3b
 10100 1d66 72000000 		.4byte	.LVL135
 10101 1d6a 461B0000 		.4byte	0x1b46
 10102 1d6e 3B       		.uleb128 0x3b
 10103 1d6f 9A000000 		.4byte	.LVL136
 10104 1d73 4C190000 		.4byte	0x194c
 10105 1d77 3B       		.uleb128 0x3b
 10106 1d78 A2000000 		.4byte	.LVL137
 10107 1d7c D9190000 		.4byte	0x19d9
 10108 1d80 34       		.uleb128 0x34
 10109 1d81 AC000000 		.4byte	.LVL138
 10110 1d85 A71C0000 		.4byte	0x1ca7
 10111 1d89 941D0000 		.4byte	0x1d94
ARM GAS  /var/folders/sv/kgmgr77579zbf78p2zlhkdfr0000gn/T//ccOxe4My.s 			page 180


 10112 1d8d 35       		.uleb128 0x35
 10113 1d8e 01       		.uleb128 0x1
 10114 1d8f 50       		.byte	0x50
 10115 1d90 02       		.uleb128 0x2
 10116 1d91 76       		.byte	0x76
 10117 1d92 00       		.sleb128 0
 10118 1d93 00       		.byte	0
 10119 1d94 3B       		.uleb128 0x3b
 10120 1d95 C4000000 		.4byte	.LVL139
 10121 1d99 17350000 		.4byte	0x3517
 10122 1d9d 3B       		.uleb128 0x3b
 10123 1d9e EA000000 		.4byte	.LVL140
 10124 1da2 22350000 		.4byte	0x3522
 10125 1da6 36       		.uleb128 0x36
 10126 1da7 14010000 		.4byte	.LVL141
 10127 1dab 2E350000 		.4byte	0x352e
 10128 1daf 35       		.uleb128 0x35
 10129 1db0 01       		.uleb128 0x1
 10130 1db1 50       		.byte	0x50
 10131 1db2 03       		.uleb128 0x3
 10132 1db3 91       		.byte	0x91
 10133 1db4 B07F     		.sleb128 -80
 10134 1db6 00       		.byte	0
 10135 1db7 00       		.byte	0
 10136 1db8 3B       		.uleb128 0x3b
 10137 1db9 0A000000 		.4byte	.LVL128
 10138 1dbd EA170000 		.4byte	0x17ea
 10139 1dc1 3B       		.uleb128 0x3b
 10140 1dc2 2E000000 		.4byte	.LVL129
 10141 1dc6 39350000 		.4byte	0x3539
 10142 1dca 3B       		.uleb128 0x3b
 10143 1dcb 38000000 		.4byte	.LVL130
 10144 1dcf 44350000 		.4byte	0x3544
 10145 1dd3 3B       		.uleb128 0x3b
 10146 1dd4 42000000 		.4byte	.LVL131
 10147 1dd8 4F350000 		.4byte	0x354f
 10148 1ddc 00       		.byte	0
 10149 1ddd 37       		.uleb128 0x37
 10150 1dde 4E130000 		.4byte	0x134e
 10151 1de2 00000000 		.4byte	.LFB318
 10152 1de6 DC050000 		.4byte	.LFE318-.LFB318
 10153 1dea 01       		.uleb128 0x1
 10154 1deb 9C       		.byte	0x9c
 10155 1dec E7210000 		.4byte	0x21e7
 10156 1df0 49       		.uleb128 0x49
 10157 1df1 67130000 		.4byte	0x1367
 10158 1df5 09050000 		.4byte	.LLST18
 10159 1df9 49       		.uleb128 0x49
 10160 1dfa 73130000 		.4byte	0x1373
 10161 1dfe 29050000 		.4byte	.LLST19
 10162 1e02 49       		.uleb128 0x49
 10163 1e03 7F130000 		.4byte	0x137f
 10164 1e07 79050000 		.4byte	.LLST20
 10165 1e0b 49       		.uleb128 0x49
 10166 1e0c 8B130000 		.4byte	0x138b
 10167 1e10 19060000 		.4byte	.LLST21
 10168 1e14 49       		.uleb128 0x49
ARM GAS  /var/folders/sv/kgmgr77579zbf78p2zlhkdfr0000gn/T//ccOxe4My.s 			page 181


 10169 1e15 97130000 		.4byte	0x1397
 10170 1e19 C9060000 		.4byte	.LLST22
 10171 1e1d 49       		.uleb128 0x49
 10172 1e1e A3130000 		.4byte	0x13a3
 10173 1e22 5D070000 		.4byte	.LLST23
 10174 1e26 49       		.uleb128 0x49
 10175 1e27 AF130000 		.4byte	0x13af
 10176 1e2b D9070000 		.4byte	.LLST24
 10177 1e2f 49       		.uleb128 0x49
 10178 1e30 BB130000 		.4byte	0x13bb
 10179 1e34 11080000 		.4byte	.LLST25
 10180 1e38 49       		.uleb128 0x49
 10181 1e39 C7130000 		.4byte	0x13c7
 10182 1e3d 49080000 		.4byte	.LLST26
 10183 1e41 49       		.uleb128 0x49
 10184 1e42 D3130000 		.4byte	0x13d3
 10185 1e46 99080000 		.4byte	.LLST27
 10186 1e4a 49       		.uleb128 0x49
 10187 1e4b DF130000 		.4byte	0x13df
 10188 1e4f 0D090000 		.4byte	.LLST28
 10189 1e53 49       		.uleb128 0x49
 10190 1e54 EB130000 		.4byte	0x13eb
 10191 1e58 75090000 		.4byte	.LLST29
 10192 1e5c 49       		.uleb128 0x49
 10193 1e5d F7130000 		.4byte	0x13f7
 10194 1e61 DD090000 		.4byte	.LLST30
 10195 1e65 49       		.uleb128 0x49
 10196 1e66 03140000 		.4byte	0x1403
 10197 1e6a 450A0000 		.4byte	.LLST31
 10198 1e6e 49       		.uleb128 0x49
 10199 1e6f 0F140000 		.4byte	0x140f
 10200 1e73 710A0000 		.4byte	.LLST32
 10201 1e77 49       		.uleb128 0x49
 10202 1e78 1B140000 		.4byte	0x141b
 10203 1e7c 9D0A0000 		.4byte	.LLST33
 10204 1e80 49       		.uleb128 0x49
 10205 1e81 27140000 		.4byte	0x1427
 10206 1e85 F90A0000 		.4byte	.LLST34
 10207 1e89 49       		.uleb128 0x49
 10208 1e8a 33140000 		.4byte	0x1433
 10209 1e8e 250B0000 		.4byte	.LLST35
 10210 1e92 49       		.uleb128 0x49
 10211 1e93 3F140000 		.4byte	0x143f
 10212 1e97 510B0000 		.4byte	.LLST36
 10213 1e9b 49       		.uleb128 0x49
 10214 1e9c 4B140000 		.4byte	0x144b
 10215 1ea0 B90B0000 		.4byte	.LLST37
 10216 1ea4 49       		.uleb128 0x49
 10217 1ea5 57140000 		.4byte	0x1457
 10218 1ea9 F10B0000 		.4byte	.LLST38
 10219 1ead 49       		.uleb128 0x49
 10220 1eae 63140000 		.4byte	0x1463
 10221 1eb2 4D0C0000 		.4byte	.LLST39
 10222 1eb6 49       		.uleb128 0x49
 10223 1eb7 6F140000 		.4byte	0x146f
 10224 1ebb 730C0000 		.4byte	.LLST40
 10225 1ebf 49       		.uleb128 0x49
ARM GAS  /var/folders/sv/kgmgr77579zbf78p2zlhkdfr0000gn/T//ccOxe4My.s 			page 182


 10226 1ec0 7B140000 		.4byte	0x147b
 10227 1ec4 870C0000 		.4byte	.LLST41
 10228 1ec8 49       		.uleb128 0x49
 10229 1ec9 87140000 		.4byte	0x1487
 10230 1ecd A70C0000 		.4byte	.LLST42
 10231 1ed1 4A       		.uleb128 0x4a
 10232 1ed2 5B130000 		.4byte	0x135b
 10233 1ed6 06       		.uleb128 0x6
 10234 1ed7 03       		.byte	0x3
 10235 1ed8 00000000 		.4byte	m_conf
 10236 1edc 9F       		.byte	0x9f
 10237 1edd 2D       		.uleb128 0x2d
 10238 1ede DE120000 		.4byte	0x12de
 10239 1ee2 F4020000 		.4byte	.LBB129
 10240 1ee6 90000000 		.4byte	.Ldebug_ranges0+0x90
 10241 1eea 01       		.byte	0x1
 10242 1eeb 8905     		.2byte	0x589
 10243 1eed 0A1F0000 		.4byte	0x1f0a
 10244 1ef1 2E       		.uleb128 0x2e
 10245 1ef2 EB120000 		.4byte	0x12eb
 10246 1ef6 BB0C0000 		.4byte	.LLST43
 10247 1efa 36       		.uleb128 0x36
 10248 1efb 0C030000 		.4byte	.LVL196
 10249 1eff FD1C0000 		.4byte	0x1cfd
 10250 1f03 35       		.uleb128 0x35
 10251 1f04 01       		.uleb128 0x1
 10252 1f05 50       		.byte	0x50
 10253 1f06 01       		.uleb128 0x1
 10254 1f07 35       		.byte	0x35
 10255 1f08 00       		.byte	0
 10256 1f09 00       		.byte	0
 10257 1f0a 2D       		.uleb128 0x2d
 10258 1f0b DE120000 		.4byte	0x12de
 10259 1f0f 70030000 		.4byte	.LBB137
 10260 1f13 C0000000 		.4byte	.Ldebug_ranges0+0xc0
 10261 1f17 01       		.byte	0x1
 10262 1f18 A405     		.2byte	0x5a4
 10263 1f1a 371F0000 		.4byte	0x1f37
 10264 1f1e 2E       		.uleb128 0x2e
 10265 1f1f EB120000 		.4byte	0x12eb
 10266 1f23 DB0C0000 		.4byte	.LLST44
 10267 1f27 36       		.uleb128 0x36
 10268 1f28 88030000 		.4byte	.LVL207
 10269 1f2c FD1C0000 		.4byte	0x1cfd
 10270 1f30 35       		.uleb128 0x35
 10271 1f31 01       		.uleb128 0x1
 10272 1f32 50       		.byte	0x50
 10273 1f33 01       		.uleb128 0x1
 10274 1f34 36       		.byte	0x36
 10275 1f35 00       		.byte	0
 10276 1f36 00       		.byte	0
 10277 1f37 47       		.uleb128 0x47
 10278 1f38 C8030000 		.4byte	.LBB145
 10279 1f3c A2000000 		.4byte	.LBE145-.LBB145
 10280 1f40 641F0000 		.4byte	0x1f64
 10281 1f44 49       		.uleb128 0x49
 10282 1f45 98140000 		.4byte	0x1498
ARM GAS  /var/folders/sv/kgmgr77579zbf78p2zlhkdfr0000gn/T//ccOxe4My.s 			page 183


 10283 1f49 FB0C0000 		.4byte	.LLST45
 10284 1f4d 36       		.uleb128 0x36
 10285 1f4e 02040000 		.4byte	.LVL212
 10286 1f52 5A350000 		.4byte	0x355a
 10287 1f56 35       		.uleb128 0x35
 10288 1f57 02       		.uleb128 0x2
 10289 1f58 90       		.byte	0x90
 10290 1f59 44       		.uleb128 0x44
 10291 1f5a 07       		.uleb128 0x7
 10292 1f5b F4       		.byte	0xf4
 10293 1f5c 25       		.uleb128 0x25
 10294 1f5d 04       		.byte	0x4
 10295 1f5e 00000000 		.4byte	0
 10296 1f62 00       		.byte	0
 10297 1f63 00       		.byte	0
 10298 1f64 32       		.uleb128 0x32
 10299 1f65 F0000000 		.4byte	.Ldebug_ranges0+0xf0
 10300 1f69 8D1F0000 		.4byte	0x1f8d
 10301 1f6d 49       		.uleb128 0x49
 10302 1f6e A6140000 		.4byte	0x14a6
 10303 1f72 3F0D0000 		.4byte	.LLST46
 10304 1f76 36       		.uleb128 0x36
 10305 1f77 A4040000 		.4byte	.LVL219
 10306 1f7b 5A350000 		.4byte	0x355a
 10307 1f7f 35       		.uleb128 0x35
 10308 1f80 02       		.uleb128 0x2
 10309 1f81 90       		.byte	0x90
 10310 1f82 44       		.uleb128 0x44
 10311 1f83 07       		.uleb128 0x7
 10312 1f84 F4       		.byte	0xf4
 10313 1f85 25       		.uleb128 0x25
 10314 1f86 04       		.byte	0x4
 10315 1f87 00000000 		.4byte	0
 10316 1f8b 00       		.byte	0
 10317 1f8c 00       		.byte	0
 10318 1f8d 3B       		.uleb128 0x3b
 10319 1f8e 42000000 		.4byte	.LVL144
 10320 1f92 D9190000 		.4byte	0x19d9
 10321 1f96 3B       		.uleb128 0x3b
 10322 1f97 6A000000 		.4byte	.LVL147
 10323 1f9b 22350000 		.4byte	0x3522
 10324 1f9f 3B       		.uleb128 0x3b
 10325 1fa0 B6000000 		.4byte	.LVL148
 10326 1fa4 22350000 		.4byte	0x3522
 10327 1fa8 34       		.uleb128 0x34
 10328 1fa9 30010000 		.4byte	.LVL154
 10329 1fad 5A350000 		.4byte	0x355a
 10330 1fb1 D61F0000 		.4byte	0x1fd6
 10331 1fb5 35       		.uleb128 0x35
 10332 1fb6 02       		.uleb128 0x2
 10333 1fb7 90       		.byte	0x90
 10334 1fb8 41       		.uleb128 0x41
 10335 1fb9 07       		.uleb128 0x7
 10336 1fba F4       		.byte	0xf4
 10337 1fbb 25       		.uleb128 0x25
 10338 1fbc 04       		.byte	0x4
 10339 1fbd 00000000 		.4byte	0
ARM GAS  /var/folders/sv/kgmgr77579zbf78p2zlhkdfr0000gn/T//ccOxe4My.s 			page 184


 10340 1fc1 35       		.uleb128 0x35
 10341 1fc2 02       		.uleb128 0x2
 10342 1fc3 90       		.byte	0x90
 10343 1fc4 42       		.uleb128 0x42
 10344 1fc5 03       		.uleb128 0x3
 10345 1fc6 F5       		.byte	0xf5
 10346 1fc7 57       		.uleb128 0x57
 10347 1fc8 25       		.uleb128 0x25
 10348 1fc9 35       		.uleb128 0x35
 10349 1fca 02       		.uleb128 0x2
 10350 1fcb 90       		.byte	0x90
 10351 1fcc 44       		.uleb128 0x44
 10352 1fcd 07       		.uleb128 0x7
 10353 1fce F4       		.byte	0xf4
 10354 1fcf 25       		.uleb128 0x25
 10355 1fd0 04       		.byte	0x4
 10356 1fd1 0000C841 		.4byte	0x41c80000
 10357 1fd5 00       		.byte	0
 10358 1fd6 34       		.uleb128 0x34
 10359 1fd7 4C010000 		.4byte	.LVL157
 10360 1fdb 5A350000 		.4byte	0x355a
 10361 1fdf 08200000 		.4byte	0x2008
 10362 1fe3 35       		.uleb128 0x35
 10363 1fe4 02       		.uleb128 0x2
 10364 1fe5 90       		.byte	0x90
 10365 1fe6 41       		.uleb128 0x41
 10366 1fe7 07       		.uleb128 0x7
 10367 1fe8 F4       		.byte	0xf4
 10368 1fe9 25       		.uleb128 0x25
 10369 1fea 04       		.byte	0x4
 10370 1feb 00000000 		.4byte	0
 10371 1fef 35       		.uleb128 0x35
 10372 1ff0 02       		.uleb128 0x2
 10373 1ff1 90       		.byte	0x90
 10374 1ff2 42       		.uleb128 0x42
 10375 1ff3 07       		.uleb128 0x7
 10376 1ff4 F4       		.byte	0xf4
 10377 1ff5 25       		.uleb128 0x25
 10378 1ff6 04       		.byte	0x4
 10379 1ff7 0000803F 		.4byte	0x3f800000
 10380 1ffb 35       		.uleb128 0x35
 10381 1ffc 02       		.uleb128 0x2
 10382 1ffd 90       		.byte	0x90
 10383 1ffe 44       		.uleb128 0x44
 10384 1fff 07       		.uleb128 0x7
 10385 2000 F4       		.byte	0xf4
 10386 2001 25       		.uleb128 0x25
 10387 2002 04       		.byte	0x4
 10388 2003 0000C841 		.4byte	0x41c80000
 10389 2007 00       		.byte	0
 10390 2008 34       		.uleb128 0x34
 10391 2009 68010000 		.4byte	.LVL160
 10392 200d 5A350000 		.4byte	0x355a
 10393 2011 3A200000 		.4byte	0x203a
 10394 2015 35       		.uleb128 0x35
 10395 2016 02       		.uleb128 0x2
 10396 2017 90       		.byte	0x90
ARM GAS  /var/folders/sv/kgmgr77579zbf78p2zlhkdfr0000gn/T//ccOxe4My.s 			page 185


 10397 2018 41       		.uleb128 0x41
 10398 2019 07       		.uleb128 0x7
 10399 201a F4       		.byte	0xf4
 10400 201b 25       		.uleb128 0x25
 10401 201c 04       		.byte	0x4
 10402 201d 00000000 		.4byte	0
 10403 2021 35       		.uleb128 0x35
 10404 2022 02       		.uleb128 0x2
 10405 2023 90       		.byte	0x90
 10406 2024 42       		.uleb128 0x42
 10407 2025 07       		.uleb128 0x7
 10408 2026 F4       		.byte	0xf4
 10409 2027 25       		.uleb128 0x25
 10410 2028 04       		.byte	0x4
 10411 2029 0000803F 		.4byte	0x3f800000
 10412 202d 35       		.uleb128 0x35
 10413 202e 02       		.uleb128 0x2
 10414 202f 90       		.byte	0x90
 10415 2030 44       		.uleb128 0x44
 10416 2031 07       		.uleb128 0x7
 10417 2032 F4       		.byte	0xf4
 10418 2033 25       		.uleb128 0x25
 10419 2034 04       		.byte	0x4
 10420 2035 0000C841 		.4byte	0x41c80000
 10421 2039 00       		.byte	0
 10422 203a 34       		.uleb128 0x34
 10423 203b 84010000 		.4byte	.LVL163
 10424 203f 5A350000 		.4byte	0x355a
 10425 2043 6C200000 		.4byte	0x206c
 10426 2047 35       		.uleb128 0x35
 10427 2048 02       		.uleb128 0x2
 10428 2049 90       		.byte	0x90
 10429 204a 41       		.uleb128 0x41
 10430 204b 07       		.uleb128 0x7
 10431 204c F4       		.byte	0xf4
 10432 204d 25       		.uleb128 0x25
 10433 204e 04       		.byte	0x4
 10434 204f 00000000 		.4byte	0
 10435 2053 35       		.uleb128 0x35
 10436 2054 02       		.uleb128 0x2
 10437 2055 90       		.byte	0x90
 10438 2056 42       		.uleb128 0x42
 10439 2057 07       		.uleb128 0x7
 10440 2058 F4       		.byte	0xf4
 10441 2059 25       		.uleb128 0x25
 10442 205a 04       		.byte	0x4
 10443 205b 0000803F 		.4byte	0x3f800000
 10444 205f 35       		.uleb128 0x35
 10445 2060 02       		.uleb128 0x2
 10446 2061 90       		.byte	0x90
 10447 2062 44       		.uleb128 0x44
 10448 2063 07       		.uleb128 0x7
 10449 2064 F4       		.byte	0xf4
 10450 2065 25       		.uleb128 0x25
 10451 2066 04       		.byte	0x4
 10452 2067 0000C841 		.4byte	0x41c80000
 10453 206b 00       		.byte	0
ARM GAS  /var/folders/sv/kgmgr77579zbf78p2zlhkdfr0000gn/T//ccOxe4My.s 			page 186


 10454 206c 34       		.uleb128 0x34
 10455 206d 04020000 		.4byte	.LVL171
 10456 2071 65350000 		.4byte	0x3565
 10457 2075 8A200000 		.4byte	0x208a
 10458 2079 35       		.uleb128 0x35
 10459 207a 02       		.uleb128 0x2
 10460 207b 90       		.byte	0x90
 10461 207c 40       		.uleb128 0x40
 10462 207d 03       		.uleb128 0x3
 10463 207e F5       		.byte	0xf5
 10464 207f 54       		.uleb128 0x54
 10465 2080 25       		.uleb128 0x25
 10466 2081 35       		.uleb128 0x35
 10467 2082 02       		.uleb128 0x2
 10468 2083 90       		.byte	0x90
 10469 2084 41       		.uleb128 0x41
 10470 2085 03       		.uleb128 0x3
 10471 2086 F5       		.byte	0xf5
 10472 2087 55       		.uleb128 0x55
 10473 2088 25       		.uleb128 0x25
 10474 2089 00       		.byte	0
 10475 208a 34       		.uleb128 0x34
 10476 208b 14020000 		.4byte	.LVL174
 10477 208f 65350000 		.4byte	0x3565
 10478 2093 A8200000 		.4byte	0x20a8
 10479 2097 35       		.uleb128 0x35
 10480 2098 02       		.uleb128 0x2
 10481 2099 90       		.byte	0x90
 10482 209a 40       		.uleb128 0x40
 10483 209b 03       		.uleb128 0x3
 10484 209c F5       		.byte	0xf5
 10485 209d 51       		.uleb128 0x51
 10486 209e 25       		.uleb128 0x25
 10487 209f 35       		.uleb128 0x35
 10488 20a0 02       		.uleb128 0x2
 10489 20a1 90       		.byte	0x90
 10490 20a2 41       		.uleb128 0x41
 10491 20a3 03       		.uleb128 0x3
 10492 20a4 F5       		.byte	0xf5
 10493 20a5 53       		.uleb128 0x53
 10494 20a6 25       		.uleb128 0x25
 10495 20a7 00       		.byte	0
 10496 20a8 34       		.uleb128 0x34
 10497 20a9 24020000 		.4byte	.LVL177
 10498 20ad 65350000 		.4byte	0x3565
 10499 20b1 C6200000 		.4byte	0x20c6
 10500 20b5 35       		.uleb128 0x35
 10501 20b6 02       		.uleb128 0x2
 10502 20b7 90       		.byte	0x90
 10503 20b8 40       		.uleb128 0x40
 10504 20b9 03       		.uleb128 0x3
 10505 20ba F5       		.byte	0xf5
 10506 20bb 54       		.uleb128 0x54
 10507 20bc 25       		.uleb128 0x25
 10508 20bd 35       		.uleb128 0x35
 10509 20be 02       		.uleb128 0x2
 10510 20bf 90       		.byte	0x90
ARM GAS  /var/folders/sv/kgmgr77579zbf78p2zlhkdfr0000gn/T//ccOxe4My.s 			page 187


 10511 20c0 41       		.uleb128 0x41
 10512 20c1 03       		.uleb128 0x3
 10513 20c2 F5       		.byte	0xf5
 10514 20c3 58       		.uleb128 0x58
 10515 20c4 25       		.uleb128 0x25
 10516 20c5 00       		.byte	0
 10517 20c6 34       		.uleb128 0x34
 10518 20c7 2C020000 		.4byte	.LVL178
 10519 20cb 65350000 		.4byte	0x3565
 10520 20cf DC200000 		.4byte	0x20dc
 10521 20d3 35       		.uleb128 0x35
 10522 20d4 02       		.uleb128 0x2
 10523 20d5 90       		.byte	0x90
 10524 20d6 41       		.uleb128 0x41
 10525 20d7 03       		.uleb128 0x3
 10526 20d8 F5       		.byte	0xf5
 10527 20d9 52       		.uleb128 0x52
 10528 20da 25       		.uleb128 0x25
 10529 20db 00       		.byte	0
 10530 20dc 34       		.uleb128 0x34
 10531 20dd 34020000 		.4byte	.LVL179
 10532 20e1 65350000 		.4byte	0x3565
 10533 20e5 F2200000 		.4byte	0x20f2
 10534 20e9 35       		.uleb128 0x35
 10535 20ea 02       		.uleb128 0x2
 10536 20eb 90       		.byte	0x90
 10537 20ec 41       		.uleb128 0x41
 10538 20ed 03       		.uleb128 0x3
 10539 20ee F5       		.byte	0xf5
 10540 20ef 57       		.uleb128 0x57
 10541 20f0 25       		.uleb128 0x25
 10542 20f1 00       		.byte	0
 10543 20f2 34       		.uleb128 0x34
 10544 20f3 3C020000 		.4byte	.LVL180
 10545 20f7 65350000 		.4byte	0x3565
 10546 20fb 08210000 		.4byte	0x2108
 10547 20ff 35       		.uleb128 0x35
 10548 2100 02       		.uleb128 0x2
 10549 2101 90       		.byte	0x90
 10550 2102 41       		.uleb128 0x41
 10551 2103 03       		.uleb128 0x3
 10552 2104 F5       		.byte	0xf5
 10553 2105 56       		.uleb128 0x56
 10554 2106 25       		.uleb128 0x25
 10555 2107 00       		.byte	0
 10556 2108 3B       		.uleb128 0x3b
 10557 2109 B0020000 		.4byte	.LVL189
 10558 210d 65350000 		.4byte	0x3565
 10559 2111 3B       		.uleb128 0x3b
 10560 2112 C0020000 		.4byte	.LVL191
 10561 2116 65350000 		.4byte	0x3565
 10562 211a 34       		.uleb128 0x34
 10563 211b D0020000 		.4byte	.LVL192
 10564 211f 65350000 		.4byte	0x3565
 10565 2123 30210000 		.4byte	0x2130
 10566 2127 35       		.uleb128 0x35
 10567 2128 02       		.uleb128 0x2
ARM GAS  /var/folders/sv/kgmgr77579zbf78p2zlhkdfr0000gn/T//ccOxe4My.s 			page 188


 10568 2129 90       		.byte	0x90
 10569 212a 41       		.uleb128 0x41
 10570 212b 03       		.uleb128 0x3
 10571 212c F5       		.byte	0xf5
 10572 212d 51       		.uleb128 0x51
 10573 212e 25       		.uleb128 0x25
 10574 212f 00       		.byte	0
 10575 2130 34       		.uleb128 0x34
 10576 2131 06050000 		.4byte	.LVL224
 10577 2135 5A350000 		.4byte	0x355a
 10578 2139 52210000 		.4byte	0x2152
 10579 213d 35       		.uleb128 0x35
 10580 213e 02       		.uleb128 0x2
 10581 213f 90       		.byte	0x90
 10582 2140 40       		.uleb128 0x40
 10583 2141 03       		.uleb128 0x3
 10584 2142 F5       		.byte	0xf5
 10585 2143 50       		.uleb128 0x50
 10586 2144 25       		.uleb128 0x25
 10587 2145 35       		.uleb128 0x35
 10588 2146 02       		.uleb128 0x2
 10589 2147 90       		.byte	0x90
 10590 2148 44       		.uleb128 0x44
 10591 2149 07       		.uleb128 0x7
 10592 214a F4       		.byte	0xf4
 10593 214b 25       		.uleb128 0x25
 10594 214c 04       		.byte	0x4
 10595 214d 00000000 		.4byte	0
 10596 2151 00       		.byte	0
 10597 2152 34       		.uleb128 0x34
 10598 2153 22050000 		.4byte	.LVL229
 10599 2157 5A350000 		.4byte	0x355a
 10600 215b 74210000 		.4byte	0x2174
 10601 215f 35       		.uleb128 0x35
 10602 2160 02       		.uleb128 0x2
 10603 2161 90       		.byte	0x90
 10604 2162 40       		.uleb128 0x40
 10605 2163 03       		.uleb128 0x3
 10606 2164 F5       		.byte	0xf5
 10607 2165 52       		.uleb128 0x52
 10608 2166 25       		.uleb128 0x25
 10609 2167 35       		.uleb128 0x35
 10610 2168 02       		.uleb128 0x2
 10611 2169 90       		.byte	0x90
 10612 216a 44       		.uleb128 0x44
 10613 216b 07       		.uleb128 0x7
 10614 216c F4       		.byte	0xf4
 10615 216d 25       		.uleb128 0x25
 10616 216e 04       		.byte	0x4
 10617 216f 00000000 		.4byte	0
 10618 2173 00       		.byte	0
 10619 2174 34       		.uleb128 0x34
 10620 2175 38050000 		.4byte	.LVL232
 10621 2179 5A350000 		.4byte	0x355a
 10622 217d 96210000 		.4byte	0x2196
 10623 2181 35       		.uleb128 0x35
 10624 2182 02       		.uleb128 0x2
ARM GAS  /var/folders/sv/kgmgr77579zbf78p2zlhkdfr0000gn/T//ccOxe4My.s 			page 189


 10625 2183 90       		.byte	0x90
 10626 2184 40       		.uleb128 0x40
 10627 2185 03       		.uleb128 0x3
 10628 2186 F5       		.byte	0xf5
 10629 2187 52       		.uleb128 0x52
 10630 2188 25       		.uleb128 0x25
 10631 2189 35       		.uleb128 0x35
 10632 218a 02       		.uleb128 0x2
 10633 218b 90       		.byte	0x90
 10634 218c 44       		.uleb128 0x44
 10635 218d 07       		.uleb128 0x7
 10636 218e F4       		.byte	0xf4
 10637 218f 25       		.uleb128 0x25
 10638 2190 04       		.byte	0x4
 10639 2191 00000000 		.4byte	0
 10640 2195 00       		.byte	0
 10641 2196 34       		.uleb128 0x34
 10642 2197 56050000 		.4byte	.LVL235
 10643 219b 5A350000 		.4byte	0x355a
 10644 219f C0210000 		.4byte	0x21c0
 10645 21a3 35       		.uleb128 0x35
 10646 21a4 02       		.uleb128 0x2
 10647 21a5 90       		.byte	0x90
 10648 21a6 41       		.uleb128 0x41
 10649 21a7 03       		.uleb128 0x3
 10650 21a8 F5       		.byte	0xf5
 10651 21a9 56       		.uleb128 0x56
 10652 21aa 25       		.uleb128 0x25
 10653 21ab 35       		.uleb128 0x35
 10654 21ac 02       		.uleb128 0x2
 10655 21ad 90       		.byte	0x90
 10656 21ae 42       		.uleb128 0x42
 10657 21af 03       		.uleb128 0x3
 10658 21b0 F5       		.byte	0xf5
 10659 21b1 58       		.uleb128 0x58
 10660 21b2 25       		.uleb128 0x25
 10661 21b3 35       		.uleb128 0x35
 10662 21b4 02       		.uleb128 0x2
 10663 21b5 90       		.byte	0x90
 10664 21b6 44       		.uleb128 0x44
 10665 21b7 07       		.uleb128 0x7
 10666 21b8 F4       		.byte	0xf4
 10667 21b9 25       		.uleb128 0x25
 10668 21ba 04       		.byte	0x4
 10669 21bb 00000000 		.4byte	0
 10670 21bf 00       		.byte	0
 10671 21c0 36       		.uleb128 0x36
 10672 21c1 74050000 		.4byte	.LVL239
 10673 21c5 5A350000 		.4byte	0x355a
 10674 21c9 35       		.uleb128 0x35
 10675 21ca 02       		.uleb128 0x2
 10676 21cb 90       		.byte	0x90
 10677 21cc 41       		.uleb128 0x41
 10678 21cd 03       		.uleb128 0x3
 10679 21ce F5       		.byte	0xf5
 10680 21cf 57       		.uleb128 0x57
 10681 21d0 25       		.uleb128 0x25
ARM GAS  /var/folders/sv/kgmgr77579zbf78p2zlhkdfr0000gn/T//ccOxe4My.s 			page 190


 10682 21d1 35       		.uleb128 0x35
 10683 21d2 02       		.uleb128 0x2
 10684 21d3 90       		.byte	0x90
 10685 21d4 42       		.uleb128 0x42
 10686 21d5 03       		.uleb128 0x3
 10687 21d6 F5       		.byte	0xf5
 10688 21d7 59       		.uleb128 0x59
 10689 21d8 25       		.uleb128 0x25
 10690 21d9 35       		.uleb128 0x35
 10691 21da 02       		.uleb128 0x2
 10692 21db 90       		.byte	0x90
 10693 21dc 44       		.uleb128 0x44
 10694 21dd 07       		.uleb128 0x7
 10695 21de F4       		.byte	0xf4
 10696 21df 25       		.uleb128 0x25
 10697 21e0 04       		.byte	0x4
 10698 21e1 00000000 		.4byte	0
 10699 21e5 00       		.byte	0
 10700 21e6 00       		.byte	0
 10701 21e7 39       		.uleb128 0x39
 10702 21e8 A5100000 		.4byte	.LASF416
 10703 21ec 01       		.byte	0x1
 10704 21ed B2       		.byte	0xb2
 10705 21ee 00000000 		.4byte	.LFB258
 10706 21f2 D0000000 		.4byte	.LFE258-.LFB258
 10707 21f6 01       		.uleb128 0x1
 10708 21f7 9C       		.byte	0x9c
 10709 21f8 F6220000 		.4byte	0x22f6
 10710 21fc 3A       		.uleb128 0x3a
 10711 21fd C01C0000 		.4byte	.LASF388
 10712 2201 01       		.byte	0x1
 10713 2202 B2       		.byte	0xb2
 10714 2203 C4170000 		.4byte	0x17c4
 10715 2207 830D0000 		.4byte	.LLST47
 10716 220b 3B       		.uleb128 0x3b
 10717 220c 16000000 		.4byte	.LVL249
 10718 2210 70350000 		.4byte	0x3570
 10719 2214 3B       		.uleb128 0x3b
 10720 2215 38000000 		.4byte	.LVL250
 10721 2219 7B350000 		.4byte	0x357b
 10722 221d 34       		.uleb128 0x34
 10723 221e 44000000 		.4byte	.LVL251
 10724 2222 14330000 		.4byte	0x3314
 10725 2226 3E220000 		.4byte	0x223e
 10726 222a 35       		.uleb128 0x35
 10727 222b 01       		.uleb128 0x1
 10728 222c 50       		.byte	0x50
 10729 222d 02       		.uleb128 0x2
 10730 222e 74       		.byte	0x74
 10731 222f 00       		.sleb128 0
 10732 2230 35       		.uleb128 0x35
 10733 2231 01       		.uleb128 0x1
 10734 2232 51       		.byte	0x51
 10735 2233 02       		.uleb128 0x2
 10736 2234 75       		.byte	0x75
 10737 2235 00       		.sleb128 0
 10738 2236 35       		.uleb128 0x35
ARM GAS  /var/folders/sv/kgmgr77579zbf78p2zlhkdfr0000gn/T//ccOxe4My.s 			page 191


 10739 2237 01       		.uleb128 0x1
 10740 2238 52       		.byte	0x52
 10741 2239 03       		.uleb128 0x3
 10742 223a 0A       		.byte	0xa
 10743 223b 7401     		.2byte	0x174
 10744 223d 00       		.byte	0
 10745 223e 34       		.uleb128 0x34
 10746 223f 58000000 		.4byte	.LVL252
 10747 2243 49330000 		.4byte	0x3349
 10748 2247 52220000 		.4byte	0x2252
 10749 224b 35       		.uleb128 0x35
 10750 224c 01       		.uleb128 0x1
 10751 224d 50       		.byte	0x50
 10752 224e 02       		.uleb128 0x2
 10753 224f 74       		.byte	0x74
 10754 2250 00       		.sleb128 0
 10755 2251 00       		.byte	0
 10756 2252 3B       		.uleb128 0x3b
 10757 2253 5C000000 		.4byte	.LVL253
 10758 2257 DD1D0000 		.4byte	0x1ddd
 10759 225b 3C       		.uleb128 0x3c
 10760 225c 74000000 		.4byte	.LVL255
 10761 2260 86350000 		.4byte	0x3586
 10762 2264 72220000 		.4byte	0x2272
 10763 2268 35       		.uleb128 0x35
 10764 2269 01       		.uleb128 0x1
 10765 226a 50       		.byte	0x50
 10766 226b 05       		.uleb128 0x5
 10767 226c 03       		.byte	0x3
 10768 226d 00000000 		.4byte	.LANCHOR12
 10769 2271 00       		.byte	0
 10770 2272 3C       		.uleb128 0x3c
 10771 2273 7E000000 		.4byte	.LVL257
 10772 2277 91350000 		.4byte	0x3591
 10773 227b 89220000 		.4byte	0x2289
 10774 227f 35       		.uleb128 0x35
 10775 2280 01       		.uleb128 0x1
 10776 2281 50       		.byte	0x50
 10777 2282 05       		.uleb128 0x5
 10778 2283 03       		.byte	0x3
 10779 2284 00000000 		.4byte	.LANCHOR12
 10780 2288 00       		.byte	0
 10781 2289 3C       		.uleb128 0x3c
 10782 228a 88000000 		.4byte	.LVL259
 10783 228e 9C350000 		.4byte	0x359c
 10784 2292 A0220000 		.4byte	0x22a0
 10785 2296 35       		.uleb128 0x35
 10786 2297 01       		.uleb128 0x1
 10787 2298 50       		.byte	0x50
 10788 2299 05       		.uleb128 0x5
 10789 229a 03       		.byte	0x3
 10790 229b 00000000 		.4byte	.LANCHOR12
 10791 229f 00       		.byte	0
 10792 22a0 34       		.uleb128 0x34
 10793 22a1 8E000000 		.4byte	.LVL260
 10794 22a5 33330000 		.4byte	0x3333
 10795 22a9 B4220000 		.4byte	0x22b4
ARM GAS  /var/folders/sv/kgmgr77579zbf78p2zlhkdfr0000gn/T//ccOxe4My.s 			page 192


 10796 22ad 35       		.uleb128 0x35
 10797 22ae 01       		.uleb128 0x1
 10798 22af 50       		.byte	0x50
 10799 22b0 02       		.uleb128 0x2
 10800 22b1 74       		.byte	0x74
 10801 22b2 00       		.sleb128 0
 10802 22b3 00       		.byte	0
 10803 22b4 34       		.uleb128 0x34
 10804 22b5 96000000 		.4byte	.LVL261
 10805 22b9 3E330000 		.4byte	0x333e
 10806 22bd C8220000 		.4byte	0x22c8
 10807 22c1 35       		.uleb128 0x35
 10808 22c2 01       		.uleb128 0x1
 10809 22c3 50       		.byte	0x50
 10810 22c4 02       		.uleb128 0x2
 10811 22c5 74       		.byte	0x74
 10812 22c6 00       		.sleb128 0
 10813 22c7 00       		.byte	0
 10814 22c8 3B       		.uleb128 0x3b
 10815 22c9 9C000000 		.4byte	.LVL262
 10816 22cd A7350000 		.4byte	0x35a7
 10817 22d1 3B       		.uleb128 0x3b
 10818 22d2 A2000000 		.4byte	.LVL263
 10819 22d6 B2350000 		.4byte	0x35b2
 10820 22da 3B       		.uleb128 0x3b
 10821 22db AA000000 		.4byte	.LVL265
 10822 22df 28330000 		.4byte	0x3328
 10823 22e3 3B       		.uleb128 0x3b
 10824 22e4 BA000000 		.4byte	.LVL266
 10825 22e8 BD350000 		.4byte	0x35bd
 10826 22ec 3B       		.uleb128 0x3b
 10827 22ed C4000000 		.4byte	.LVL267
 10828 22f1 54330000 		.4byte	0x3354
 10829 22f5 00       		.byte	0
 10830 22f6 2B       		.uleb128 0x2b
 10831 22f7 45030000 		.4byte	.LASF418
 10832 22fb 01       		.byte	0x1
 10833 22fc 2706     		.2byte	0x627
 10834 22fe 00000000 		.4byte	.LFB311
 10835 2302 50000000 		.4byte	.LFE311-.LFB311
 10836 2306 01       		.uleb128 0x1
 10837 2307 9C       		.byte	0x9c
 10838 2308 56230000 		.4byte	0x2356
 10839 230c 2C       		.uleb128 0x2c
 10840 230d 61726700 		.ascii	"arg\000"
 10841 2311 01       		.byte	0x1
 10842 2312 2706     		.2byte	0x627
 10843 2314 9B030000 		.4byte	0x39b
 10844 2318 EC0D0000 		.4byte	.LLST48
 10845 231c 2D       		.uleb128 0x2d
 10846 231d 5E120000 		.4byte	0x125e
 10847 2321 00000000 		.4byte	.LBB153
 10848 2325 10010000 		.4byte	.Ldebug_ranges0+0x110
 10849 2329 01       		.byte	0x1
 10850 232a 2A06     		.2byte	0x62a
 10851 232c 3D230000 		.4byte	0x233d
 10852 2330 4A       		.uleb128 0x4a
ARM GAS  /var/folders/sv/kgmgr77579zbf78p2zlhkdfr0000gn/T//ccOxe4My.s 			page 193


 10853 2331 6A120000 		.4byte	0x126a
 10854 2335 06       		.uleb128 0x6
 10855 2336 03       		.byte	0x3
 10856 2337 20000000 		.4byte	.LC2
 10857 233b 9F       		.byte	0x9f
 10858 233c 00       		.byte	0
 10859 233d 3B       		.uleb128 0x3b
 10860 233e 1E000000 		.4byte	.LVL270
 10861 2342 DD1D0000 		.4byte	0x1ddd
 10862 2346 36       		.uleb128 0x36
 10863 2347 24000000 		.4byte	.LVL271
 10864 234b C8350000 		.4byte	0x35c8
 10865 234f 35       		.uleb128 0x35
 10866 2350 01       		.uleb128 0x1
 10867 2351 50       		.byte	0x50
 10868 2352 01       		.uleb128 0x1
 10869 2353 3A       		.byte	0x3a
 10870 2354 00       		.byte	0
 10871 2355 00       		.byte	0
 10872 2356 3E       		.uleb128 0x3e
 10873 2357 F31E0000 		.4byte	.LASF419
 10874 235b 01       		.byte	0x1
 10875 235c 6F03     		.2byte	0x36f
 10876 235e B1000000 		.4byte	0xb1
 10877 2362 00000000 		.4byte	.LFB294
 10878 2366 24000000 		.4byte	.LFE294-.LFB294
 10879 236a 01       		.uleb128 0x1
 10880 236b 9C       		.byte	0x9c
 10881 236c A9230000 		.4byte	0x23a9
 10882 2370 43       		.uleb128 0x43
 10883 2371 5A140000 		.4byte	.LASF405
 10884 2375 01       		.byte	0x1
 10885 2376 6F03     		.2byte	0x36f
 10886 2378 360F0000 		.4byte	0xf36
 10887 237c 0D0E0000 		.4byte	.LLST49
 10888 2380 44       		.uleb128 0x44
 10889 2381 72657400 		.ascii	"ret\000"
 10890 2385 01       		.byte	0x1
 10891 2386 7003     		.2byte	0x370
 10892 2388 B1000000 		.4byte	0xb1
 10893 238c 00       		.byte	0
 10894 238d 38       		.uleb128 0x38
 10895 238e 14000000 		.4byte	.LVL273
 10896 2392 D3350000 		.4byte	0x35d3
 10897 2396 38       		.uleb128 0x38
 10898 2397 18000000 		.4byte	.LVL274
 10899 239b DE350000 		.4byte	0x35de
 10900 239f 38       		.uleb128 0x38
 10901 23a0 1C000000 		.4byte	.LVL275
 10902 23a4 E9350000 		.4byte	0x35e9
 10903 23a8 00       		.byte	0
 10904 23a9 3E       		.uleb128 0x3e
 10905 23aa 0B130000 		.4byte	.LASF420
 10906 23ae 01       		.byte	0x1
 10907 23af 8503     		.2byte	0x385
 10908 23b1 25000000 		.4byte	0x25
 10909 23b5 00000000 		.4byte	.LFB295
ARM GAS  /var/folders/sv/kgmgr77579zbf78p2zlhkdfr0000gn/T//ccOxe4My.s 			page 194


 10910 23b9 2C000000 		.4byte	.LFE295-.LFB295
 10911 23bd 01       		.uleb128 0x1
 10912 23be 9C       		.byte	0x9c
 10913 23bf F0230000 		.4byte	0x23f0
 10914 23c3 45       		.uleb128 0x45
 10915 23c4 72657400 		.ascii	"ret\000"
 10916 23c8 01       		.byte	0x1
 10917 23c9 8603     		.2byte	0x386
 10918 23cb 25000000 		.4byte	0x25
 10919 23cf 04       		.byte	0x4
 10920 23d0 00000000 		.4byte	0
 10921 23d4 38       		.uleb128 0x38
 10922 23d5 14000000 		.4byte	.LVL278
 10923 23d9 F4350000 		.4byte	0x35f4
 10924 23dd 38       		.uleb128 0x38
 10925 23de 18000000 		.4byte	.LVL279
 10926 23e2 FF350000 		.4byte	0x35ff
 10927 23e6 38       		.uleb128 0x38
 10928 23e7 1C000000 		.4byte	.LVL280
 10929 23eb 0A360000 		.4byte	0x360a
 10930 23ef 00       		.byte	0
 10931 23f0 3E       		.uleb128 0x3e
 10932 23f1 AE090000 		.4byte	.LASF421
 10933 23f5 01       		.byte	0x1
 10934 23f6 9B03     		.2byte	0x39b
 10935 23f8 25000000 		.4byte	0x25
 10936 23fc 00000000 		.4byte	.LFB296
 10937 2400 20000000 		.4byte	.LFE296-.LFB296
 10938 2404 01       		.uleb128 0x1
 10939 2405 9C       		.byte	0x9c
 10940 2406 1B240000 		.4byte	0x241b
 10941 240a 30       		.uleb128 0x30
 10942 240b 72657300 		.ascii	"res\000"
 10943 240f 01       		.byte	0x1
 10944 2410 9C03     		.2byte	0x39c
 10945 2412 25000000 		.4byte	0x25
 10946 2416 790E0000 		.4byte	.LLST50
 10947 241a 00       		.byte	0
 10948 241b 3E       		.uleb128 0x3e
 10949 241c CC0C0000 		.4byte	.LASF422
 10950 2420 01       		.byte	0x1
 10951 2421 A203     		.2byte	0x3a2
 10952 2423 25000000 		.4byte	0x25
 10953 2427 00000000 		.4byte	.LFB297
 10954 242b 20000000 		.4byte	.LFE297-.LFB297
 10955 242f 01       		.uleb128 0x1
 10956 2430 9C       		.byte	0x9c
 10957 2431 46240000 		.4byte	0x2446
 10958 2435 30       		.uleb128 0x30
 10959 2436 72657300 		.ascii	"res\000"
 10960 243a 01       		.byte	0x1
 10961 243b A303     		.2byte	0x3a3
 10962 243d 25000000 		.4byte	0x25
 10963 2441 9F0E0000 		.4byte	.LLST51
 10964 2445 00       		.byte	0
 10965 2446 3E       		.uleb128 0x3e
 10966 2447 D2130000 		.4byte	.LASF423
ARM GAS  /var/folders/sv/kgmgr77579zbf78p2zlhkdfr0000gn/T//ccOxe4My.s 			page 195


 10967 244b 01       		.byte	0x1
 10968 244c AF03     		.2byte	0x3af
 10969 244e 25000000 		.4byte	0x25
 10970 2452 00000000 		.4byte	.LFB298
 10971 2456 40000000 		.4byte	.LFE298-.LFB298
 10972 245a 01       		.uleb128 0x1
 10973 245b 9C       		.byte	0x9c
 10974 245c 71240000 		.4byte	0x2471
 10975 2460 30       		.uleb128 0x30
 10976 2461 72657300 		.ascii	"res\000"
 10977 2465 01       		.byte	0x1
 10978 2466 B003     		.2byte	0x3b0
 10979 2468 25000000 		.4byte	0x25
 10980 246c C50E0000 		.4byte	.LLST52
 10981 2470 00       		.byte	0
 10982 2471 3E       		.uleb128 0x3e
 10983 2472 9B1C0000 		.4byte	.LASF424
 10984 2476 01       		.byte	0x1
 10985 2477 BC03     		.2byte	0x3bc
 10986 2479 25000000 		.4byte	0x25
 10987 247d 00000000 		.4byte	.LFB299
 10988 2481 40000000 		.4byte	.LFE299-.LFB299
 10989 2485 01       		.uleb128 0x1
 10990 2486 9C       		.byte	0x9c
 10991 2487 9C240000 		.4byte	0x249c
 10992 248b 30       		.uleb128 0x30
 10993 248c 72657300 		.ascii	"res\000"
 10994 2490 01       		.byte	0x1
 10995 2491 BD03     		.2byte	0x3bd
 10996 2493 25000000 		.4byte	0x25
 10997 2497 D90E0000 		.4byte	.LLST53
 10998 249b 00       		.byte	0
 10999 249c 42       		.uleb128 0x42
 11000 249d 37230000 		.4byte	.LASF425
 11001 24a1 01       		.byte	0x1
 11002 24a2 C303     		.2byte	0x3c3
 11003 24a4 25000000 		.4byte	0x25
 11004 24a8 00000000 		.4byte	.LFB300
 11005 24ac 0C000000 		.4byte	.LFE300-.LFB300
 11006 24b0 01       		.uleb128 0x1
 11007 24b1 9C       		.byte	0x9c
 11008 24b2 3E       		.uleb128 0x3e
 11009 24b3 52120000 		.4byte	.LASF426
 11010 24b7 01       		.byte	0x1
 11011 24b8 C703     		.2byte	0x3c7
 11012 24ba 25000000 		.4byte	0x25
 11013 24be 00000000 		.4byte	.LFB301
 11014 24c2 60000000 		.4byte	.LFE301-.LFB301
 11015 24c6 01       		.uleb128 0x1
 11016 24c7 9C       		.byte	0x9c
 11017 24c8 0B250000 		.4byte	0x250b
 11018 24cc 46       		.uleb128 0x46
 11019 24cd 72657400 		.ascii	"ret\000"
 11020 24d1 01       		.byte	0x1
 11021 24d2 C803     		.2byte	0x3c8
 11022 24d4 25000000 		.4byte	0x25
 11023 24d8 02       		.uleb128 0x2
ARM GAS  /var/folders/sv/kgmgr77579zbf78p2zlhkdfr0000gn/T//ccOxe4My.s 			page 196


 11024 24d9 91       		.byte	0x91
 11025 24da 74       		.sleb128 -12
 11026 24db 3B       		.uleb128 0x3b
 11027 24dc 1C000000 		.4byte	.LVL289
 11028 24e0 15360000 		.4byte	0x3615
 11029 24e4 34       		.uleb128 0x34
 11030 24e5 3E000000 		.4byte	.LVL290
 11031 24e9 20360000 		.4byte	0x3620
 11032 24ed F8240000 		.4byte	0x24f8
 11033 24f1 35       		.uleb128 0x35
 11034 24f2 01       		.uleb128 0x1
 11035 24f3 50       		.byte	0x50
 11036 24f4 02       		.uleb128 0x2
 11037 24f5 91       		.byte	0x91
 11038 24f6 74       		.sleb128 -12
 11039 24f7 00       		.byte	0
 11040 24f8 3B       		.uleb128 0x3b
 11041 24f9 4A000000 		.4byte	.LVL291
 11042 24fd 2B360000 		.4byte	0x362b
 11043 2501 3B       		.uleb128 0x3b
 11044 2502 50000000 		.4byte	.LVL292
 11045 2506 36360000 		.4byte	0x3636
 11046 250a 00       		.byte	0
 11047 250b 4B       		.uleb128 0x4b
 11048 250c 41130000 		.4byte	0x1341
 11049 2510 00000000 		.4byte	.LFB302
 11050 2514 0C000000 		.4byte	.LFE302-.LFB302
 11051 2518 01       		.uleb128 0x1
 11052 2519 9C       		.byte	0x9c
 11053 251a 3F       		.uleb128 0x3f
 11054 251b BB180000 		.4byte	.LASF427
 11055 251f 01       		.byte	0x1
 11056 2520 E403     		.2byte	0x3e4
 11057 2522 00000000 		.4byte	.LFB303
 11058 2526 50000000 		.4byte	.LFE303-.LFB303
 11059 252a 01       		.uleb128 0x1
 11060 252b 9C       		.byte	0x9c
 11061 252c 70250000 		.4byte	0x2570
 11062 2530 43       		.uleb128 0x43
 11063 2531 07070000 		.4byte	.LASF428
 11064 2535 01       		.byte	0x1
 11065 2536 E403     		.2byte	0x3e4
 11066 2538 760A0000 		.4byte	0xa76
 11067 253c ED0E0000 		.4byte	.LLST54
 11068 2540 2C       		.uleb128 0x2c
 11069 2541 6C656E00 		.ascii	"len\000"
 11070 2545 01       		.byte	0x1
 11071 2546 E403     		.2byte	0x3e4
 11072 2548 E0000000 		.4byte	0xe0
 11073 254c 0E0F0000 		.4byte	.LLST55
 11074 2550 43       		.uleb128 0x43
 11075 2551 6E2A0000 		.4byte	.LASF429
 11076 2555 01       		.byte	0x1
 11077 2556 E403     		.2byte	0x3e4
 11078 2558 CA000000 		.4byte	0xca
 11079 255c 2C0F0000 		.4byte	.LLST56
 11080 2560 4C       		.uleb128 0x4c
ARM GAS  /var/folders/sv/kgmgr77579zbf78p2zlhkdfr0000gn/T//ccOxe4My.s 			page 197


 11081 2561 38000000 		.4byte	.LVL297
 11082 2565 41360000 		.4byte	0x3641
 11083 2569 35       		.uleb128 0x35
 11084 256a 01       		.uleb128 0x1
 11085 256b 51       		.byte	0x51
 11086 256c 01       		.uleb128 0x1
 11087 256d 31       		.byte	0x31
 11088 256e 00       		.byte	0
 11089 256f 00       		.byte	0
 11090 2570 42       		.uleb128 0x42
 11091 2571 971B0000 		.4byte	.LASF430
 11092 2575 01       		.byte	0x1
 11093 2576 FB03     		.2byte	0x3fb
 11094 2578 25000000 		.4byte	0x25
 11095 257c 00000000 		.4byte	.LFB304
 11096 2580 0C000000 		.4byte	.LFE304-.LFB304
 11097 2584 01       		.uleb128 0x1
 11098 2585 9C       		.byte	0x9c
 11099 2586 42       		.uleb128 0x42
 11100 2587 34150000 		.4byte	.LASF431
 11101 258b 01       		.byte	0x1
 11102 258c 0604     		.2byte	0x406
 11103 258e 25000000 		.4byte	0x25
 11104 2592 00000000 		.4byte	.LFB305
 11105 2596 0C000000 		.4byte	.LFE305-.LFB305
 11106 259a 01       		.uleb128 0x1
 11107 259b 9C       		.byte	0x9c
 11108 259c 3E       		.uleb128 0x3e
 11109 259d 92160000 		.4byte	.LASF432
 11110 25a1 01       		.byte	0x1
 11111 25a2 1404     		.2byte	0x414
 11112 25a4 B1000000 		.4byte	0xb1
 11113 25a8 00000000 		.4byte	.LFB306
 11114 25ac 74000000 		.4byte	.LFE306-.LFB306
 11115 25b0 01       		.uleb128 0x1
 11116 25b1 9C       		.byte	0x9c
 11117 25b2 F4250000 		.4byte	0x25f4
 11118 25b6 31       		.uleb128 0x31
 11119 25b7 5A270000 		.4byte	.LASF433
 11120 25bb 01       		.byte	0x1
 11121 25bc 1B04     		.2byte	0x41b
 11122 25be B1000000 		.4byte	0xb1
 11123 25c2 4D0F0000 		.4byte	.LLST57
 11124 25c6 3B       		.uleb128 0x3b
 11125 25c7 06000000 		.4byte	.LVL298
 11126 25cb CC180000 		.4byte	0x18cc
 11127 25cf 3B       		.uleb128 0x3b
 11128 25d0 32000000 		.4byte	.LVL301
 11129 25d4 4C360000 		.4byte	0x364c
 11130 25d8 3B       		.uleb128 0x3b
 11131 25d9 3E000000 		.4byte	.LVL305
 11132 25dd 57360000 		.4byte	0x3657
 11133 25e1 3B       		.uleb128 0x3b
 11134 25e2 4A000000 		.4byte	.LVL308
 11135 25e6 62360000 		.4byte	0x3662
 11136 25ea 3B       		.uleb128 0x3b
 11137 25eb 5A000000 		.4byte	.LVL312
ARM GAS  /var/folders/sv/kgmgr77579zbf78p2zlhkdfr0000gn/T//ccOxe4My.s 			page 198


 11138 25ef 4F350000 		.4byte	0x354f
 11139 25f3 00       		.byte	0
 11140 25f4 37       		.uleb128 0x37
 11141 25f5 76120000 		.4byte	0x1276
 11142 25f9 00000000 		.4byte	.LFB267
 11143 25fd 98000000 		.4byte	.LFE267-.LFB267
 11144 2601 01       		.uleb128 0x1
 11145 2602 9C       		.byte	0x9c
 11146 2603 48260000 		.4byte	0x2648
 11147 2607 2E       		.uleb128 0x2e
 11148 2608 83120000 		.4byte	0x1283
 11149 260c B30F0000 		.4byte	.LLST58
 11150 2610 32       		.uleb128 0x32
 11151 2611 28010000 		.4byte	.Ldebug_ranges0+0x128
 11152 2615 2C260000 		.4byte	0x262c
 11153 2619 2E       		.uleb128 0x2e
 11154 261a 83120000 		.4byte	0x1283
 11155 261e 37100000 		.4byte	.LLST59
 11156 2622 38       		.uleb128 0x38
 11157 2623 6E000000 		.4byte	.LVL321
 11158 2627 6D360000 		.4byte	0x366d
 11159 262b 00       		.byte	0
 11160 262c 3B       		.uleb128 0x3b
 11161 262d 0E000000 		.4byte	.LVL315
 11162 2631 9C250000 		.4byte	0x259c
 11163 2635 38       		.uleb128 0x38
 11164 2636 4A000000 		.4byte	.LVL319
 11165 263a 78360000 		.4byte	0x3678
 11166 263e 38       		.uleb128 0x38
 11167 263f 92000000 		.4byte	.LVL323
 11168 2643 83360000 		.4byte	0x3683
 11169 2647 00       		.byte	0
 11170 2648 3F       		.uleb128 0x3f
 11171 2649 800A0000 		.4byte	.LASF434
 11172 264d 01       		.byte	0x1
 11173 264e 2602     		.2byte	0x226
 11174 2650 00000000 		.4byte	.LFB277
 11175 2654 0C000000 		.4byte	.LFE277-.LFB277
 11176 2658 01       		.uleb128 0x1
 11177 2659 9C       		.byte	0x9c
 11178 265a 75260000 		.4byte	0x2675
 11179 265e 4C       		.uleb128 0x4c
 11180 265f 08000000 		.4byte	.LVL324
 11181 2663 76120000 		.4byte	0x1276
 11182 2667 35       		.uleb128 0x35
 11183 2668 02       		.uleb128 0x2
 11184 2669 90       		.byte	0x90
 11185 266a 40       		.uleb128 0x40
 11186 266b 07       		.uleb128 0x7
 11187 266c F4       		.byte	0xf4
 11188 266d 25       		.uleb128 0x25
 11189 266e 04       		.byte	0x4
 11190 266f 00000000 		.4byte	0
 11191 2673 00       		.byte	0
 11192 2674 00       		.byte	0
 11193 2675 3F       		.uleb128 0x3f
 11194 2676 97260000 		.4byte	.LASF435
ARM GAS  /var/folders/sv/kgmgr77579zbf78p2zlhkdfr0000gn/T//ccOxe4My.s 			page 199


 11195 267a 01       		.byte	0x1
 11196 267b 7101     		.2byte	0x171
 11197 267d 00000000 		.4byte	.LFB268
 11198 2681 98000000 		.4byte	.LFE268-.LFB268
 11199 2685 01       		.uleb128 0x1
 11200 2686 9C       		.byte	0x9c
 11201 2687 C0260000 		.4byte	0x26c0
 11202 268b 43       		.uleb128 0x43
 11203 268c 22110000 		.4byte	.LASF346
 11204 2690 01       		.byte	0x1
 11205 2691 7101     		.2byte	0x171
 11206 2693 25000000 		.4byte	0x25
 11207 2697 5B100000 		.4byte	.LLST60
 11208 269b 3B       		.uleb128 0x3b
 11209 269c 0E000000 		.4byte	.LVL326
 11210 26a0 9C250000 		.4byte	0x259c
 11211 26a4 38       		.uleb128 0x38
 11212 26a5 4A000000 		.4byte	.LVL330
 11213 26a9 8E360000 		.4byte	0x368e
 11214 26ad 38       		.uleb128 0x38
 11215 26ae 6E000000 		.4byte	.LVL332
 11216 26b2 99360000 		.4byte	0x3699
 11217 26b6 38       		.uleb128 0x38
 11218 26b7 92000000 		.4byte	.LVL334
 11219 26bb A4360000 		.4byte	0x36a4
 11220 26bf 00       		.byte	0
 11221 26c0 3F       		.uleb128 0x3f
 11222 26c1 B3060000 		.4byte	.LASF436
 11223 26c5 01       		.byte	0x1
 11224 26c6 8701     		.2byte	0x187
 11225 26c8 00000000 		.4byte	.LFB269
 11226 26cc 98000000 		.4byte	.LFE269-.LFB269
 11227 26d0 01       		.uleb128 0x1
 11228 26d1 9C       		.byte	0x9c
 11229 26d2 0B270000 		.4byte	0x270b
 11230 26d6 2C       		.uleb128 0x2c
 11231 26d7 72706D00 		.ascii	"rpm\000"
 11232 26db 01       		.byte	0x1
 11233 26dc 8701     		.2byte	0x187
 11234 26de 25000000 		.4byte	0x25
 11235 26e2 DF100000 		.4byte	.LLST61
 11236 26e6 3B       		.uleb128 0x3b
 11237 26e7 0E000000 		.4byte	.LVL336
 11238 26eb 9C250000 		.4byte	0x259c
 11239 26ef 38       		.uleb128 0x38
 11240 26f0 4A000000 		.4byte	.LVL340
 11241 26f4 AF360000 		.4byte	0x36af
 11242 26f8 38       		.uleb128 0x38
 11243 26f9 6E000000 		.4byte	.LVL342
 11244 26fd BA360000 		.4byte	0x36ba
 11245 2701 38       		.uleb128 0x38
 11246 2702 92000000 		.4byte	.LVL344
 11247 2706 C5360000 		.4byte	0x36c5
 11248 270a 00       		.byte	0
 11249 270b 3F       		.uleb128 0x3f
 11250 270c A3200000 		.4byte	.LASF437
 11251 2710 01       		.byte	0x1
ARM GAS  /var/folders/sv/kgmgr77579zbf78p2zlhkdfr0000gn/T//ccOxe4My.s 			page 200


 11252 2711 9D01     		.2byte	0x19d
 11253 2713 00000000 		.4byte	.LFB270
 11254 2717 78000000 		.4byte	.LFE270-.LFB270
 11255 271b 01       		.uleb128 0x1
 11256 271c 9C       		.byte	0x9c
 11257 271d 6A270000 		.4byte	0x276a
 11258 2721 2C       		.uleb128 0x2c
 11259 2722 706F7300 		.ascii	"pos\000"
 11260 2726 01       		.byte	0x1
 11261 2727 9D01     		.2byte	0x19d
 11262 2729 25000000 		.4byte	0x25
 11263 272d 63110000 		.4byte	.LLST62
 11264 2731 3B       		.uleb128 0x3b
 11265 2732 0C000000 		.4byte	.LVL346
 11266 2736 9C250000 		.4byte	0x259c
 11267 273a 34       		.uleb128 0x34
 11268 273b 3C000000 		.4byte	.LVL347
 11269 273f 20360000 		.4byte	0x3620
 11270 2743 4E270000 		.4byte	0x274e
 11271 2747 35       		.uleb128 0x35
 11272 2748 01       		.uleb128 0x1
 11273 2749 50       		.byte	0x50
 11274 274a 02       		.uleb128 0x2
 11275 274b 91       		.byte	0x91
 11276 274c 74       		.sleb128 -12
 11277 274d 00       		.byte	0
 11278 274e 3B       		.uleb128 0x3b
 11279 274f 52000000 		.4byte	.LVL348
 11280 2753 D0360000 		.4byte	0x36d0
 11281 2757 3B       		.uleb128 0x3b
 11282 2758 5E000000 		.4byte	.LVL350
 11283 275c DB360000 		.4byte	0x36db
 11284 2760 3B       		.uleb128 0x3b
 11285 2761 6A000000 		.4byte	.LVL352
 11286 2765 E6360000 		.4byte	0x36e6
 11287 2769 00       		.byte	0
 11288 276a 37       		.uleb128 0x37
 11289 276b 90120000 		.4byte	0x1290
 11290 276f 00000000 		.4byte	.LFB271
 11291 2773 98000000 		.4byte	.LFE271-.LFB271
 11292 2777 01       		.uleb128 0x1
 11293 2778 9C       		.byte	0x9c
 11294 2779 BE270000 		.4byte	0x27be
 11295 277d 2E       		.uleb128 0x2e
 11296 277e 9D120000 		.4byte	0x129d
 11297 2782 8F110000 		.4byte	.LLST63
 11298 2786 32       		.uleb128 0x32
 11299 2787 40010000 		.4byte	.Ldebug_ranges0+0x140
 11300 278b A2270000 		.4byte	0x27a2
 11301 278f 2E       		.uleb128 0x2e
 11302 2790 9D120000 		.4byte	0x129d
 11303 2794 13120000 		.4byte	.LLST64
 11304 2798 38       		.uleb128 0x38
 11305 2799 6E000000 		.4byte	.LVL361
 11306 279d F1360000 		.4byte	0x36f1
 11307 27a1 00       		.byte	0
 11308 27a2 3B       		.uleb128 0x3b
ARM GAS  /var/folders/sv/kgmgr77579zbf78p2zlhkdfr0000gn/T//ccOxe4My.s 			page 201


 11309 27a3 0E000000 		.4byte	.LVL355
 11310 27a7 9C250000 		.4byte	0x259c
 11311 27ab 38       		.uleb128 0x38
 11312 27ac 4A000000 		.4byte	.LVL359
 11313 27b0 FC360000 		.4byte	0x36fc
 11314 27b4 38       		.uleb128 0x38
 11315 27b5 92000000 		.4byte	.LVL363
 11316 27b9 07370000 		.4byte	0x3707
 11317 27bd 00       		.byte	0
 11318 27be 3F       		.uleb128 0x3f
 11319 27bf 7E110000 		.4byte	.LASF438
 11320 27c3 01       		.byte	0x1
 11321 27c4 EA01     		.2byte	0x1ea
 11322 27c6 00000000 		.4byte	.LFB273
 11323 27ca 2C000000 		.4byte	.LFE273-.LFB273
 11324 27ce 01       		.uleb128 0x1
 11325 27cf 9C       		.byte	0x9c
 11326 27d0 F7270000 		.4byte	0x27f7
 11327 27d4 2C       		.uleb128 0x2c
 11328 27d5 76616C00 		.ascii	"val\000"
 11329 27d9 01       		.byte	0x1
 11330 27da EA01     		.2byte	0x1ea
 11331 27dc 25000000 		.4byte	0x25
 11332 27e0 37120000 		.4byte	.LLST65
 11333 27e4 38       		.uleb128 0x38
 11334 27e5 18000000 		.4byte	.LVL366
 11335 27e9 90120000 		.4byte	0x1290
 11336 27ed 38       		.uleb128 0x38
 11337 27ee 28000000 		.4byte	.LVL368
 11338 27f2 90120000 		.4byte	0x1290
 11339 27f6 00       		.byte	0
 11340 27f7 3F       		.uleb128 0x3f
 11341 27f8 931F0000 		.4byte	.LASF439
 11342 27fc 01       		.byte	0x1
 11343 27fd 2D02     		.2byte	0x22d
 11344 27ff 00000000 		.4byte	.LFB278
 11345 2803 0C000000 		.4byte	.LFE278-.LFB278
 11346 2807 01       		.uleb128 0x1
 11347 2808 9C       		.byte	0x9c
 11348 2809 24280000 		.4byte	0x2824
 11349 280d 4C       		.uleb128 0x4c
 11350 280e 08000000 		.4byte	.LVL369
 11351 2812 90120000 		.4byte	0x1290
 11352 2816 35       		.uleb128 0x35
 11353 2817 02       		.uleb128 0x2
 11354 2818 90       		.byte	0x90
 11355 2819 40       		.uleb128 0x40
 11356 281a 07       		.uleb128 0x7
 11357 281b F4       		.byte	0xf4
 11358 281c 25       		.uleb128 0x25
 11359 281d 04       		.byte	0x4
 11360 281e 00000000 		.4byte	0
 11361 2822 00       		.byte	0
 11362 2823 00       		.byte	0
 11363 2824 37       		.uleb128 0x37
 11364 2825 AA120000 		.4byte	0x12aa
 11365 2829 00000000 		.4byte	.LFB272
ARM GAS  /var/folders/sv/kgmgr77579zbf78p2zlhkdfr0000gn/T//ccOxe4My.s 			page 202


 11366 282d 98000000 		.4byte	.LFE272-.LFB272
 11367 2831 01       		.uleb128 0x1
 11368 2832 9C       		.byte	0x9c
 11369 2833 78280000 		.4byte	0x2878
 11370 2837 2E       		.uleb128 0x2e
 11371 2838 B7120000 		.4byte	0x12b7
 11372 283c 77120000 		.4byte	.LLST66
 11373 2840 32       		.uleb128 0x32
 11374 2841 58010000 		.4byte	.Ldebug_ranges0+0x158
 11375 2845 5C280000 		.4byte	0x285c
 11376 2849 2E       		.uleb128 0x2e
 11377 284a B7120000 		.4byte	0x12b7
 11378 284e FB120000 		.4byte	.LLST67
 11379 2852 38       		.uleb128 0x38
 11380 2853 6E000000 		.4byte	.LVL377
 11381 2857 09330000 		.4byte	0x3309
 11382 285b 00       		.byte	0
 11383 285c 3B       		.uleb128 0x3b
 11384 285d 0E000000 		.4byte	.LVL371
 11385 2861 9C250000 		.4byte	0x259c
 11386 2865 38       		.uleb128 0x38
 11387 2866 4A000000 		.4byte	.LVL375
 11388 286a 12370000 		.4byte	0x3712
 11389 286e 38       		.uleb128 0x38
 11390 286f 92000000 		.4byte	.LVL379
 11391 2873 FE320000 		.4byte	0x32fe
 11392 2877 00       		.byte	0
 11393 2878 3F       		.uleb128 0x3f
 11394 2879 D0240000 		.4byte	.LASF440
 11395 287d 01       		.byte	0x1
 11396 287e F801     		.2byte	0x1f8
 11397 2880 00000000 		.4byte	.LFB274
 11398 2884 14000000 		.4byte	.LFE274-.LFB274
 11399 2888 01       		.uleb128 0x1
 11400 2889 9C       		.byte	0x9c
 11401 288a A8280000 		.4byte	0x28a8
 11402 288e 2C       		.uleb128 0x2c
 11403 288f 76616C00 		.ascii	"val\000"
 11404 2893 01       		.byte	0x1
 11405 2894 F801     		.2byte	0x1f8
 11406 2896 25000000 		.4byte	0x25
 11407 289a 1F130000 		.4byte	.LLST68
 11408 289e 38       		.uleb128 0x38
 11409 289f 0E000000 		.4byte	.LVL382
 11410 28a3 AA120000 		.4byte	0x12aa
 11411 28a7 00       		.byte	0
 11412 28a8 37       		.uleb128 0x37
 11413 28a9 C4120000 		.4byte	0x12c4
 11414 28ad 00000000 		.4byte	.LFB275
 11415 28b1 26000000 		.4byte	.LFE275-.LFB275
 11416 28b5 01       		.uleb128 0x1
 11417 28b6 9C       		.byte	0x9c
 11418 28b7 E2280000 		.4byte	0x28e2
 11419 28bb 2E       		.uleb128 0x2e
 11420 28bc D1120000 		.4byte	0x12d1
 11421 28c0 43130000 		.4byte	.LLST69
 11422 28c4 3B       		.uleb128 0x3b
ARM GAS  /var/folders/sv/kgmgr77579zbf78p2zlhkdfr0000gn/T//ccOxe4My.s 			page 203


 11423 28c5 0E000000 		.4byte	.LVL384
 11424 28c9 9C250000 		.4byte	0x259c
 11425 28cd 4C       		.uleb128 0x4c
 11426 28ce 20000000 		.4byte	.LVL386
 11427 28d2 8D160000 		.4byte	0x168d
 11428 28d6 35       		.uleb128 0x35
 11429 28d7 02       		.uleb128 0x2
 11430 28d8 90       		.byte	0x90
 11431 28d9 40       		.uleb128 0x40
 11432 28da 05       		.uleb128 0x5
 11433 28db F3       		.byte	0xf3
 11434 28dc 03       		.uleb128 0x3
 11435 28dd F5       		.byte	0xf5
 11436 28de 40       		.uleb128 0x40
 11437 28df 25       		.uleb128 0x25
 11438 28e0 00       		.byte	0
 11439 28e1 00       		.byte	0
 11440 28e2 3F       		.uleb128 0x3f
 11441 28e3 34240000 		.4byte	.LASF441
 11442 28e7 01       		.byte	0x1
 11443 28e8 1F02     		.2byte	0x21f
 11444 28ea 00000000 		.4byte	.LFB276
 11445 28ee 34000000 		.4byte	.LFE276-.LFB276
 11446 28f2 01       		.uleb128 0x1
 11447 28f3 9C       		.byte	0x9c
 11448 28f4 35290000 		.4byte	0x2935
 11449 28f8 2C       		.uleb128 0x2c
 11450 28f9 76616C00 		.ascii	"val\000"
 11451 28fd 01       		.byte	0x1
 11452 28fe 1F02     		.2byte	0x21f
 11453 2900 25000000 		.4byte	0x25
 11454 2904 9B130000 		.4byte	.LLST70
 11455 2908 4D       		.uleb128 0x4d
 11456 2909 C4120000 		.4byte	0x12c4
 11457 290d 10000000 		.4byte	.LBB175
 11458 2911 70010000 		.4byte	.Ldebug_ranges0+0x170
 11459 2915 01       		.byte	0x1
 11460 2916 2002     		.2byte	0x220
 11461 2918 2E       		.uleb128 0x2e
 11462 2919 D1120000 		.4byte	0x12d1
 11463 291d BB130000 		.4byte	.LLST71
 11464 2921 3B       		.uleb128 0x3b
 11465 2922 14000000 		.4byte	.LVL390
 11466 2926 9C250000 		.4byte	0x259c
 11467 292a 38       		.uleb128 0x38
 11468 292b 30000000 		.4byte	.LVL394
 11469 292f 8D160000 		.4byte	0x168d
 11470 2933 00       		.byte	0
 11471 2934 00       		.byte	0
 11472 2935 37       		.uleb128 0x37
 11473 2936 DE120000 		.4byte	0x12de
 11474 293a 00000000 		.4byte	.LFB307
 11475 293e 24000000 		.4byte	.LFE307-.LFB307
 11476 2942 01       		.uleb128 0x1
 11477 2943 9C       		.byte	0x9c
 11478 2944 5B290000 		.4byte	0x295b
 11479 2948 2E       		.uleb128 0x2e
ARM GAS  /var/folders/sv/kgmgr77579zbf78p2zlhkdfr0000gn/T//ccOxe4My.s 			page 204


 11480 2949 EB120000 		.4byte	0x12eb
 11481 294d FC130000 		.4byte	.LLST72
 11482 2951 38       		.uleb128 0x38
 11483 2952 0C000000 		.4byte	.LVL396
 11484 2956 FD1C0000 		.4byte	0x1cfd
 11485 295a 00       		.byte	0
 11486 295b 4E       		.uleb128 0x4e
 11487 295c 7F190000 		.4byte	.LASF442
 11488 2960 01       		.byte	0x1
 11489 2961 7804     		.2byte	0x478
 11490 2963 00000000 		.4byte	.LFB308
 11491 2967 84070000 		.4byte	.LFE308-.LFB308
 11492 296b 01       		.uleb128 0x1
 11493 296c 9C       		.byte	0x9c
 11494 296d B62E0000 		.4byte	0x2eb6
 11495 2971 31       		.uleb128 0x31
 11496 2972 EC260000 		.4byte	.LASF443
 11497 2976 01       		.byte	0x1
 11498 2977 7B04     		.2byte	0x47b
 11499 2979 BF140000 		.4byte	0x14bf
 11500 297d 28140000 		.4byte	.LLST73
 11501 2981 33       		.uleb128 0x33
 11502 2982 E3020000 		.4byte	.LASF444
 11503 2986 01       		.byte	0x1
 11504 2987 7E04     		.2byte	0x47e
 11505 2989 B1000000 		.4byte	0xb1
 11506 298d 05       		.uleb128 0x5
 11507 298e 03       		.byte	0x3
 11508 298f 00000000 		.4byte	wrong_voltage_iterations.10954
 11509 2993 31       		.uleb128 0x31
 11510 2994 8A150000 		.4byte	.LASF313
 11511 2998 01       		.byte	0x1
 11512 2999 9504     		.2byte	0x495
 11513 299b BF140000 		.4byte	0x14bf
 11514 299f 48140000 		.4byte	.LLST74
 11515 29a3 31       		.uleb128 0x31
 11516 29a4 E3060000 		.4byte	.LASF445
 11517 29a8 01       		.byte	0x1
 11518 29a9 9604     		.2byte	0x496
 11519 29ab BF140000 		.4byte	0x14bf
 11520 29af 8C140000 		.4byte	.LLST75
 11521 29b3 31       		.uleb128 0x31
 11522 29b4 871F0000 		.4byte	.LASF446
 11523 29b8 01       		.byte	0x1
 11524 29b9 A104     		.2byte	0x4a1
 11525 29bb 25000000 		.4byte	0x25
 11526 29bf C4140000 		.4byte	.LLST76
 11527 29c3 31       		.uleb128 0x31
 11528 29c4 F5000000 		.4byte	.LASF447
 11529 29c8 01       		.byte	0x1
 11530 29c9 A204     		.2byte	0x4a2
 11531 29cb 25000000 		.4byte	0x25
 11532 29cf 20150000 		.4byte	.LLST77
 11533 29d3 31       		.uleb128 0x31
 11534 29d4 CD030000 		.4byte	.LASF448
 11535 29d8 01       		.byte	0x1
 11536 29d9 BA04     		.2byte	0x4ba
ARM GAS  /var/folders/sv/kgmgr77579zbf78p2zlhkdfr0000gn/T//ccOxe4My.s 			page 205


 11537 29db BF140000 		.4byte	0x14bf
 11538 29df 64150000 		.4byte	.LLST78
 11539 29e3 31       		.uleb128 0x31
 11540 29e4 02250000 		.4byte	.LASF449
 11541 29e8 01       		.byte	0x1
 11542 29e9 D104     		.2byte	0x4d1
 11543 29eb 360F0000 		.4byte	0xf36
 11544 29ef 68160000 		.4byte	.LLST79
 11545 29f3 2D       		.uleb128 0x2d
 11546 29f4 DE120000 		.4byte	0x12de
 11547 29f8 30010000 		.4byte	.LBB181
 11548 29fc 90010000 		.4byte	.Ldebug_ranges0+0x190
 11549 2a00 01       		.byte	0x1
 11550 2a01 B004     		.2byte	0x4b0
 11551 2a03 112A0000 		.4byte	0x2a11
 11552 2a07 2E       		.uleb128 0x2e
 11553 2a08 EB120000 		.4byte	0x12eb
 11554 2a0c 22170000 		.4byte	.LLST80
 11555 2a10 00       		.byte	0
 11556 2a11 4F       		.uleb128 0x4f
 11557 2a12 DE120000 		.4byte	0x12de
 11558 2a16 3A010000 		.4byte	.LBB185
 11559 2a1a 06000000 		.4byte	.LBE185-.LBB185
 11560 2a1e 01       		.byte	0x1
 11561 2a1f AC04     		.2byte	0x4ac
 11562 2a21 3A2A0000 		.4byte	0x2a3a
 11563 2a25 50       		.uleb128 0x50
 11564 2a26 EB120000 		.4byte	0x12eb
 11565 2a2a 36       		.uleb128 0x36
 11566 2a2b 40010000 		.4byte	.LVL413
 11567 2a2f FD1C0000 		.4byte	0x1cfd
 11568 2a33 35       		.uleb128 0x35
 11569 2a34 01       		.uleb128 0x1
 11570 2a35 50       		.byte	0x50
 11571 2a36 01       		.uleb128 0x1
 11572 2a37 34       		.byte	0x34
 11573 2a38 00       		.byte	0
 11574 2a39 00       		.byte	0
 11575 2a3a 2D       		.uleb128 0x2d
 11576 2a3b DE120000 		.4byte	0x12de
 11577 2a3f 48010000 		.4byte	.LBB187
 11578 2a43 B0010000 		.4byte	.Ldebug_ranges0+0x1b0
 11579 2a47 01       		.byte	0x1
 11580 2a48 B604     		.2byte	0x4b6
 11581 2a4a 672A0000 		.4byte	0x2a67
 11582 2a4e 2E       		.uleb128 0x2e
 11583 2a4f EB120000 		.4byte	0x12eb
 11584 2a53 4E170000 		.4byte	.LLST81
 11585 2a57 36       		.uleb128 0x36
 11586 2a58 B0040000 		.4byte	.LVL457
 11587 2a5c FD1C0000 		.4byte	0x1cfd
 11588 2a60 35       		.uleb128 0x35
 11589 2a61 01       		.uleb128 0x1
 11590 2a62 50       		.byte	0x50
 11591 2a63 01       		.uleb128 0x1
 11592 2a64 33       		.byte	0x33
 11593 2a65 00       		.byte	0
ARM GAS  /var/folders/sv/kgmgr77579zbf78p2zlhkdfr0000gn/T//ccOxe4My.s 			page 206


 11594 2a66 00       		.byte	0
 11595 2a67 32       		.uleb128 0x32
 11596 2a68 C8010000 		.4byte	.Ldebug_ranges0+0x1c8
 11597 2a6c 952A0000 		.4byte	0x2a95
 11598 2a70 33       		.uleb128 0x33
 11599 2a71 E61B0000 		.4byte	.LASF450
 11600 2a75 01       		.byte	0x1
 11601 2a76 BD04     		.2byte	0x4bd
 11602 2a78 25000000 		.4byte	0x25
 11603 2a7c 05       		.uleb128 0x5
 11604 2a7d 03       		.byte	0x3
 11605 2a7e 00000000 		.4byte	curr_diff_sum.10960
 11606 2a82 33       		.uleb128 0x33
 11607 2a83 C2270000 		.4byte	.LASF451
 11608 2a87 01       		.byte	0x1
 11609 2a88 BE04     		.2byte	0x4be
 11610 2a8a 25000000 		.4byte	0x25
 11611 2a8e 05       		.uleb128 0x5
 11612 2a8f 03       		.byte	0x3
 11613 2a90 00000000 		.4byte	curr_diff_samples.10961
 11614 2a94 00       		.byte	0
 11615 2a95 32       		.uleb128 0x32
 11616 2a96 E0010000 		.4byte	.Ldebug_ranges0+0x1e0
 11617 2a9a 722B0000 		.4byte	0x2b72
 11618 2a9e 31       		.uleb128 0x31
 11619 2a9f 04060000 		.4byte	.LASF452
 11620 2aa3 01       		.byte	0x1
 11621 2aa4 F204     		.2byte	0x4f2
 11622 2aa6 B1000000 		.4byte	0xb1
 11623 2aaa 6E170000 		.4byte	.LLST82
 11624 2aae 4F       		.uleb128 0x4f
 11625 2aaf 38130000 		.4byte	0x1338
 11626 2ab3 E6060000 		.4byte	.LBB192
 11627 2ab7 06000000 		.4byte	.LBE192-.LBB192
 11628 2abb 01       		.byte	0x1
 11629 2abc FF04     		.2byte	0x4ff
 11630 2abe FF2A0000 		.4byte	0x2aff
 11631 2ac2 51       		.uleb128 0x51
 11632 2ac3 40120000 		.4byte	0x1240
 11633 2ac7 E6060000 		.4byte	.LBB193
 11634 2acb 06000000 		.4byte	.LBE193-.LBB193
 11635 2acf 12       		.byte	0x12
 11636 2ad0 8401     		.2byte	0x184
 11637 2ad2 51       		.uleb128 0x51
 11638 2ad3 2E120000 		.4byte	0x122e
 11639 2ad7 E6060000 		.4byte	.LBB194
 11640 2adb 06000000 		.4byte	.LBE194-.LBB194
 11641 2adf 0C       		.byte	0xc
 11642 2ae0 DB01     		.2byte	0x1db
 11643 2ae2 51       		.uleb128 0x51
 11644 2ae3 14120000 		.4byte	0x1214
 11645 2ae7 E6060000 		.4byte	.LBB195
 11646 2aeb 06000000 		.4byte	.LBE195-.LBB195
 11647 2aef 0C       		.byte	0xc
 11648 2af0 BF01     		.2byte	0x1bf
 11649 2af2 2E       		.uleb128 0x2e
 11650 2af3 21120000 		.4byte	0x1221
ARM GAS  /var/folders/sv/kgmgr77579zbf78p2zlhkdfr0000gn/T//ccOxe4My.s 			page 207


 11651 2af7 C1170000 		.4byte	.LLST83
 11652 2afb 00       		.byte	0
 11653 2afc 00       		.byte	0
 11654 2afd 00       		.byte	0
 11655 2afe 00       		.byte	0
 11656 2aff 4F       		.uleb128 0x4f
 11657 2b00 2F130000 		.4byte	0x132f
 11658 2b04 F6060000 		.4byte	.LBB197
 11659 2b08 08000000 		.4byte	.LBE197-.LBB197
 11660 2b0c 01       		.byte	0x1
 11661 2b0d 0105     		.2byte	0x501
 11662 2b0f 502B0000 		.4byte	0x2b50
 11663 2b13 51       		.uleb128 0x51
 11664 2b14 49120000 		.4byte	0x1249
 11665 2b18 F6060000 		.4byte	.LBB198
 11666 2b1c 08000000 		.4byte	.LBE198-.LBB198
 11667 2b20 12       		.byte	0x12
 11668 2b21 9A01     		.2byte	0x19a
 11669 2b23 51       		.uleb128 0x51
 11670 2b24 37120000 		.4byte	0x1237
 11671 2b28 F6060000 		.4byte	.LBB199
 11672 2b2c 08000000 		.4byte	.LBE199-.LBB199
 11673 2b30 0C       		.byte	0xc
 11674 2b31 E601     		.2byte	0x1e6
 11675 2b33 51       		.uleb128 0x51
 11676 2b34 14120000 		.4byte	0x1214
 11677 2b38 F6060000 		.4byte	.LBB200
 11678 2b3c 08000000 		.4byte	.LBE200-.LBB200
 11679 2b40 0C       		.byte	0xc
 11680 2b41 CD01     		.2byte	0x1cd
 11681 2b43 2E       		.uleb128 0x2e
 11682 2b44 21120000 		.4byte	0x1221
 11683 2b48 D6170000 		.4byte	.LLST84
 11684 2b4c 00       		.byte	0
 11685 2b4d 00       		.byte	0
 11686 2b4e 00       		.byte	0
 11687 2b4f 00       		.byte	0
 11688 2b50 3B       		.uleb128 0x3b
 11689 2b51 7A020000 		.4byte	.LVL424
 11690 2b55 CC180000 		.4byte	0x18cc
 11691 2b59 3B       		.uleb128 0x3b
 11692 2b5a 3C050000 		.4byte	.LVL472
 11693 2b5e CC180000 		.4byte	0x18cc
 11694 2b62 36       		.uleb128 0x36
 11695 2b63 F6060000 		.4byte	.LVL488
 11696 2b67 1D370000 		.4byte	0x371d
 11697 2b6b 35       		.uleb128 0x35
 11698 2b6c 01       		.uleb128 0x1
 11699 2b6d 51       		.byte	0x51
 11700 2b6e 01       		.uleb128 0x1
 11701 2b6f 31       		.byte	0x31
 11702 2b70 00       		.byte	0
 11703 2b71 00       		.byte	0
 11704 2b72 32       		.uleb128 0x32
 11705 2b73 08020000 		.4byte	.Ldebug_ranges0+0x208
 11706 2b77 F12B0000 		.4byte	0x2bf1
 11707 2b7b 46       		.uleb128 0x46
ARM GAS  /var/folders/sv/kgmgr77579zbf78p2zlhkdfr0000gn/T//ccOxe4My.s 			page 208


 11708 2b7c 6100     		.ascii	"a\000"
 11709 2b7e 01       		.byte	0x1
 11710 2b7f 2F05     		.2byte	0x52f
 11711 2b81 B1000000 		.4byte	0xb1
 11712 2b85 05       		.uleb128 0x5
 11713 2b86 03       		.byte	0x3
 11714 2b87 00000000 		.4byte	a.10973
 11715 2b8b 2F       		.uleb128 0x2f
 11716 2b8c 28020000 		.4byte	.Ldebug_ranges0+0x228
 11717 2b90 31       		.uleb128 0x31
 11718 2b91 D1050000 		.4byte	.LASF453
 11719 2b95 01       		.byte	0x1
 11720 2b96 3905     		.2byte	0x539
 11721 2b98 D5000000 		.4byte	0xd5
 11722 2b9c EA170000 		.4byte	.LLST85
 11723 2ba0 52       		.uleb128 0x52
 11724 2ba1 41130000 		.4byte	0x1341
 11725 2ba5 94030000 		.4byte	.LBB204
 11726 2ba9 48020000 		.4byte	.Ldebug_ranges0+0x248
 11727 2bad 01       		.byte	0x1
 11728 2bae 5F05     		.2byte	0x55f
 11729 2bb0 3B       		.uleb128 0x3b
 11730 2bb1 CA020000 		.4byte	.LVL427
 11731 2bb5 CC180000 		.4byte	0x18cc
 11732 2bb9 3B       		.uleb128 0x3b
 11733 2bba 3C030000 		.4byte	.LVL429
 11734 2bbe FF1A0000 		.4byte	0x1aff
 11735 2bc2 3B       		.uleb128 0x3b
 11736 2bc3 80030000 		.4byte	.LVL430
 11737 2bc7 17350000 		.4byte	0x3517
 11738 2bcb 3B       		.uleb128 0x3b
 11739 2bcc 86030000 		.4byte	.LVL431
 11740 2bd0 28370000 		.4byte	0x3728
 11741 2bd4 3B       		.uleb128 0x3b
 11742 2bd5 02060000 		.4byte	.LVL478
 11743 2bd9 33370000 		.4byte	0x3733
 11744 2bdd 3B       		.uleb128 0x3b
 11745 2bde 32060000 		.4byte	.LVL480
 11746 2be2 17350000 		.4byte	0x3517
 11747 2be6 3B       		.uleb128 0x3b
 11748 2be7 56060000 		.4byte	.LVL481
 11749 2beb 17350000 		.4byte	0x3517
 11750 2bef 00       		.byte	0
 11751 2bf0 00       		.byte	0
 11752 2bf1 2D       		.uleb128 0x2d
 11753 2bf2 DE120000 		.4byte	0x12de
 11754 2bf6 C8030000 		.4byte	.LBB211
 11755 2bfa 60020000 		.4byte	.Ldebug_ranges0+0x260
 11756 2bfe 01       		.byte	0x1
 11757 2bff 8404     		.2byte	0x484
 11758 2c01 182C0000 		.4byte	0x2c18
 11759 2c05 2E       		.uleb128 0x2e
 11760 2c06 EB120000 		.4byte	0x12eb
 11761 2c0a 20180000 		.4byte	.LLST86
 11762 2c0e 3B       		.uleb128 0x3b
 11763 2c0f E2030000 		.4byte	.LVL438
 11764 2c13 FD1C0000 		.4byte	0x1cfd
ARM GAS  /var/folders/sv/kgmgr77579zbf78p2zlhkdfr0000gn/T//ccOxe4My.s 			page 209


 11765 2c17 00       		.byte	0
 11766 2c18 32       		.uleb128 0x32
 11767 2c19 88020000 		.4byte	.Ldebug_ranges0+0x288
 11768 2c1d E32C0000 		.4byte	0x2ce3
 11769 2c21 31       		.uleb128 0x31
 11770 2c22 04060000 		.4byte	.LASF452
 11771 2c26 01       		.byte	0x1
 11772 2c27 1005     		.2byte	0x510
 11773 2c29 B1000000 		.4byte	0xb1
 11774 2c2d 3E180000 		.4byte	.LLST87
 11775 2c31 4F       		.uleb128 0x4f
 11776 2c32 38130000 		.4byte	0x1338
 11777 2c36 CE060000 		.4byte	.LBB219
 11778 2c3a 06000000 		.4byte	.LBE219-.LBB219
 11779 2c3e 01       		.byte	0x1
 11780 2c3f 1D05     		.2byte	0x51d
 11781 2c41 822C0000 		.4byte	0x2c82
 11782 2c45 51       		.uleb128 0x51
 11783 2c46 40120000 		.4byte	0x1240
 11784 2c4a CE060000 		.4byte	.LBB220
 11785 2c4e 06000000 		.4byte	.LBE220-.LBB220
 11786 2c52 12       		.byte	0x12
 11787 2c53 8401     		.2byte	0x184
 11788 2c55 51       		.uleb128 0x51
 11789 2c56 2E120000 		.4byte	0x122e
 11790 2c5a CE060000 		.4byte	.LBB221
 11791 2c5e 06000000 		.4byte	.LBE221-.LBB221
 11792 2c62 0C       		.byte	0xc
 11793 2c63 DB01     		.2byte	0x1db
 11794 2c65 51       		.uleb128 0x51
 11795 2c66 14120000 		.4byte	0x1214
 11796 2c6a CE060000 		.4byte	.LBB222
 11797 2c6e 06000000 		.4byte	.LBE222-.LBB222
 11798 2c72 0C       		.byte	0xc
 11799 2c73 BF01     		.2byte	0x1bf
 11800 2c75 2E       		.uleb128 0x2e
 11801 2c76 21120000 		.4byte	0x1221
 11802 2c7a 91180000 		.4byte	.LLST88
 11803 2c7e 00       		.byte	0
 11804 2c7f 00       		.byte	0
 11805 2c80 00       		.byte	0
 11806 2c81 00       		.byte	0
 11807 2c82 4F       		.uleb128 0x4f
 11808 2c83 2F130000 		.4byte	0x132f
 11809 2c87 DE060000 		.4byte	.LBB224
 11810 2c8b 08000000 		.4byte	.LBE224-.LBB224
 11811 2c8f 01       		.byte	0x1
 11812 2c90 1F05     		.2byte	0x51f
 11813 2c92 D32C0000 		.4byte	0x2cd3
 11814 2c96 51       		.uleb128 0x51
 11815 2c97 49120000 		.4byte	0x1249
 11816 2c9b DE060000 		.4byte	.LBB225
 11817 2c9f 08000000 		.4byte	.LBE225-.LBB225
 11818 2ca3 12       		.byte	0x12
 11819 2ca4 9A01     		.2byte	0x19a
 11820 2ca6 51       		.uleb128 0x51
 11821 2ca7 37120000 		.4byte	0x1237
ARM GAS  /var/folders/sv/kgmgr77579zbf78p2zlhkdfr0000gn/T//ccOxe4My.s 			page 210


 11822 2cab DE060000 		.4byte	.LBB226
 11823 2caf 08000000 		.4byte	.LBE226-.LBB226
 11824 2cb3 0C       		.byte	0xc
 11825 2cb4 E601     		.2byte	0x1e6
 11826 2cb6 51       		.uleb128 0x51
 11827 2cb7 14120000 		.4byte	0x1214
 11828 2cbb DE060000 		.4byte	.LBB227
 11829 2cbf 08000000 		.4byte	.LBE227-.LBB227
 11830 2cc3 0C       		.byte	0xc
 11831 2cc4 CD01     		.2byte	0x1cd
 11832 2cc6 2E       		.uleb128 0x2e
 11833 2cc7 21120000 		.4byte	0x1221
 11834 2ccb A6180000 		.4byte	.LLST89
 11835 2ccf 00       		.byte	0
 11836 2cd0 00       		.byte	0
 11837 2cd1 00       		.byte	0
 11838 2cd2 00       		.byte	0
 11839 2cd3 36       		.uleb128 0x36
 11840 2cd4 DE060000 		.4byte	.LVL484
 11841 2cd8 1D370000 		.4byte	0x371d
 11842 2cdc 35       		.uleb128 0x35
 11843 2cdd 01       		.uleb128 0x1
 11844 2cde 51       		.byte	0x51
 11845 2cdf 01       		.uleb128 0x1
 11846 2ce0 31       		.byte	0x31
 11847 2ce1 00       		.byte	0
 11848 2ce2 00       		.byte	0
 11849 2ce3 2D       		.uleb128 0x2d
 11850 2ce4 38130000 		.4byte	0x1338
 11851 2ce8 5E040000 		.4byte	.LBB229
 11852 2cec B8020000 		.4byte	.Ldebug_ranges0+0x2b8
 11853 2cf0 01       		.byte	0x1
 11854 2cf1 D804     		.2byte	0x4d8
 11855 2cf3 342D0000 		.4byte	0x2d34
 11856 2cf7 4D       		.uleb128 0x4d
 11857 2cf8 40120000 		.4byte	0x1240
 11858 2cfc 5E040000 		.4byte	.LBB230
 11859 2d00 B8020000 		.4byte	.Ldebug_ranges0+0x2b8
 11860 2d04 12       		.byte	0x12
 11861 2d05 8401     		.2byte	0x184
 11862 2d07 4D       		.uleb128 0x4d
 11863 2d08 2E120000 		.4byte	0x122e
 11864 2d0c 5E040000 		.4byte	.LBB231
 11865 2d10 B8020000 		.4byte	.Ldebug_ranges0+0x2b8
 11866 2d14 0C       		.byte	0xc
 11867 2d15 DB01     		.2byte	0x1db
 11868 2d17 4D       		.uleb128 0x4d
 11869 2d18 14120000 		.4byte	0x1214
 11870 2d1c 5E040000 		.4byte	.LBB232
 11871 2d20 B8020000 		.4byte	.Ldebug_ranges0+0x2b8
 11872 2d24 0C       		.byte	0xc
 11873 2d25 BF01     		.2byte	0x1bf
 11874 2d27 2E       		.uleb128 0x2e
 11875 2d28 21120000 		.4byte	0x1221
 11876 2d2c BA180000 		.4byte	.LLST90
 11877 2d30 00       		.byte	0
 11878 2d31 00       		.byte	0
ARM GAS  /var/folders/sv/kgmgr77579zbf78p2zlhkdfr0000gn/T//ccOxe4My.s 			page 211


 11879 2d32 00       		.byte	0
 11880 2d33 00       		.byte	0
 11881 2d34 4F       		.uleb128 0x4f
 11882 2d35 2F130000 		.4byte	0x132f
 11883 2d39 6E040000 		.4byte	.LBB239
 11884 2d3d 06000000 		.4byte	.LBE239-.LBB239
 11885 2d41 01       		.byte	0x1
 11886 2d42 DA04     		.2byte	0x4da
 11887 2d44 852D0000 		.4byte	0x2d85
 11888 2d48 51       		.uleb128 0x51
 11889 2d49 49120000 		.4byte	0x1249
 11890 2d4d 6E040000 		.4byte	.LBB240
 11891 2d51 06000000 		.4byte	.LBE240-.LBB240
 11892 2d55 12       		.byte	0x12
 11893 2d56 9A01     		.2byte	0x19a
 11894 2d58 51       		.uleb128 0x51
 11895 2d59 37120000 		.4byte	0x1237
 11896 2d5d 6E040000 		.4byte	.LBB241
 11897 2d61 06000000 		.4byte	.LBE241-.LBB241
 11898 2d65 0C       		.byte	0xc
 11899 2d66 E601     		.2byte	0x1e6
 11900 2d68 51       		.uleb128 0x51
 11901 2d69 14120000 		.4byte	0x1214
 11902 2d6d 6E040000 		.4byte	.LBB242
 11903 2d71 06000000 		.4byte	.LBE242-.LBB242
 11904 2d75 0C       		.byte	0xc
 11905 2d76 CD01     		.2byte	0x1cd
 11906 2d78 2E       		.uleb128 0x2e
 11907 2d79 21120000 		.4byte	0x1221
 11908 2d7d CF180000 		.4byte	.LLST91
 11909 2d81 00       		.byte	0
 11910 2d82 00       		.byte	0
 11911 2d83 00       		.byte	0
 11912 2d84 00       		.byte	0
 11913 2d85 2D       		.uleb128 0x2d
 11914 2d86 38130000 		.4byte	0x1338
 11915 2d8a 26070000 		.4byte	.LBB257
 11916 2d8e D0020000 		.4byte	.Ldebug_ranges0+0x2d0
 11917 2d92 01       		.byte	0x1
 11918 2d93 E804     		.2byte	0x4e8
 11919 2d95 D62D0000 		.4byte	0x2dd6
 11920 2d99 4D       		.uleb128 0x4d
 11921 2d9a 40120000 		.4byte	0x1240
 11922 2d9e 26070000 		.4byte	.LBB258
 11923 2da2 D0020000 		.4byte	.Ldebug_ranges0+0x2d0
 11924 2da6 12       		.byte	0x12
 11925 2da7 8401     		.2byte	0x184
 11926 2da9 4D       		.uleb128 0x4d
 11927 2daa 2E120000 		.4byte	0x122e
 11928 2dae 26070000 		.4byte	.LBB259
 11929 2db2 D0020000 		.4byte	.Ldebug_ranges0+0x2d0
 11930 2db6 0C       		.byte	0xc
 11931 2db7 DB01     		.2byte	0x1db
 11932 2db9 4D       		.uleb128 0x4d
 11933 2dba 14120000 		.4byte	0x1214
 11934 2dbe 26070000 		.4byte	.LBB260
 11935 2dc2 D0020000 		.4byte	.Ldebug_ranges0+0x2d0
ARM GAS  /var/folders/sv/kgmgr77579zbf78p2zlhkdfr0000gn/T//ccOxe4My.s 			page 212


 11936 2dc6 0C       		.byte	0xc
 11937 2dc7 BF01     		.2byte	0x1bf
 11938 2dc9 2E       		.uleb128 0x2e
 11939 2dca 21120000 		.4byte	0x1221
 11940 2dce E3180000 		.4byte	.LLST92
 11941 2dd2 00       		.byte	0
 11942 2dd3 00       		.byte	0
 11943 2dd4 00       		.byte	0
 11944 2dd5 00       		.byte	0
 11945 2dd6 4F       		.uleb128 0x4f
 11946 2dd7 2F130000 		.4byte	0x132f
 11947 2ddb 3A070000 		.4byte	.LBB267
 11948 2ddf 04000000 		.4byte	.LBE267-.LBB267
 11949 2de3 01       		.byte	0x1
 11950 2de4 EA04     		.2byte	0x4ea
 11951 2de6 272E0000 		.4byte	0x2e27
 11952 2dea 51       		.uleb128 0x51
 11953 2deb 49120000 		.4byte	0x1249
 11954 2def 3A070000 		.4byte	.LBB268
 11955 2df3 04000000 		.4byte	.LBE268-.LBB268
 11956 2df7 12       		.byte	0x12
 11957 2df8 9A01     		.2byte	0x19a
 11958 2dfa 51       		.uleb128 0x51
 11959 2dfb 37120000 		.4byte	0x1237
 11960 2dff 3A070000 		.4byte	.LBB269
 11961 2e03 04000000 		.4byte	.LBE269-.LBB269
 11962 2e07 0C       		.byte	0xc
 11963 2e08 E601     		.2byte	0x1e6
 11964 2e0a 51       		.uleb128 0x51
 11965 2e0b 14120000 		.4byte	0x1214
 11966 2e0f 3A070000 		.4byte	.LBB270
 11967 2e13 04000000 		.4byte	.LBE270-.LBB270
 11968 2e17 0C       		.byte	0xc
 11969 2e18 CD01     		.2byte	0x1cd
 11970 2e1a 2E       		.uleb128 0x2e
 11971 2e1b 21120000 		.4byte	0x1221
 11972 2e1f F8180000 		.4byte	.LLST93
 11973 2e23 00       		.byte	0
 11974 2e24 00       		.byte	0
 11975 2e25 00       		.byte	0
 11976 2e26 00       		.byte	0
 11977 2e27 3B       		.uleb128 0x3b
 11978 2e28 16000000 		.4byte	.LVL397
 11979 2e2c 3E370000 		.4byte	0x373e
 11980 2e30 3B       		.uleb128 0x3b
 11981 2e31 5E000000 		.4byte	.LVL399
 11982 2e35 CC180000 		.4byte	0x18cc
 11983 2e39 3B       		.uleb128 0x3b
 11984 2e3a 76000000 		.4byte	.LVL401
 11985 2e3e 461B0000 		.4byte	0x1b46
 11986 2e42 3B       		.uleb128 0x3b
 11987 2e43 7E000000 		.4byte	.LVL403
 11988 2e47 601C0000 		.4byte	0x1c60
 11989 2e4b 3B       		.uleb128 0x3b
 11990 2e4c C2000000 		.4byte	.LVL405
 11991 2e50 49370000 		.4byte	0x3749
 11992 2e54 3B       		.uleb128 0x3b
ARM GAS  /var/folders/sv/kgmgr77579zbf78p2zlhkdfr0000gn/T//ccOxe4My.s 			page 213


 11993 2e55 D4000000 		.4byte	.LVL406
 11994 2e59 54370000 		.4byte	0x3754
 11995 2e5d 3B       		.uleb128 0x3b
 11996 2e5e 02010000 		.4byte	.LVL407
 11997 2e62 FF1A0000 		.4byte	0x1aff
 11998 2e66 3B       		.uleb128 0x3b
 11999 2e67 5E010000 		.4byte	.LVL416
 12000 2e6b 92190000 		.4byte	0x1992
 12001 2e6f 3B       		.uleb128 0x3b
 12002 2e70 E6030000 		.4byte	.LVL439
 12003 2e74 CC180000 		.4byte	0x18cc
 12004 2e78 34       		.uleb128 0x34
 12005 2e79 6E040000 		.4byte	.LVL450
 12006 2e7d 1D370000 		.4byte	0x371d
 12007 2e81 8B2E0000 		.4byte	0x2e8b
 12008 2e85 35       		.uleb128 0x35
 12009 2e86 01       		.uleb128 0x1
 12010 2e87 51       		.byte	0x51
 12011 2e88 01       		.uleb128 0x1
 12012 2e89 31       		.byte	0x31
 12013 2e8a 00       		.byte	0
 12014 2e8b 3B       		.uleb128 0x3b
 12015 2e8c 78040000 		.4byte	.LVL453
 12016 2e90 CC180000 		.4byte	0x18cc
 12017 2e94 3B       		.uleb128 0x3b
 12018 2e95 CC040000 		.4byte	.LVL462
 12019 2e99 5F370000 		.4byte	0x375f
 12020 2e9d 3B       		.uleb128 0x3b
 12021 2e9e D4040000 		.4byte	.LVL464
 12022 2ea2 6A370000 		.4byte	0x376a
 12023 2ea6 36       		.uleb128 0x36
 12024 2ea7 3A070000 		.4byte	.LVL498
 12025 2eab 1D370000 		.4byte	0x371d
 12026 2eaf 35       		.uleb128 0x35
 12027 2eb0 01       		.uleb128 0x1
 12028 2eb1 51       		.byte	0x51
 12029 2eb2 01       		.uleb128 0x1
 12030 2eb3 31       		.byte	0x31
 12031 2eb4 00       		.byte	0
 12032 2eb5 00       		.byte	0
 12033 2eb6 3F       		.uleb128 0x3f
 12034 2eb7 221C0000 		.4byte	.LASF454
 12035 2ebb 01       		.byte	0x1
 12036 2ebc 6405     		.2byte	0x564
 12037 2ebe 00000000 		.4byte	.LFB309
 12038 2ec2 18000000 		.4byte	.LFE309-.LFB309
 12039 2ec6 01       		.uleb128 0x1
 12040 2ec7 9C       		.byte	0x9c
 12041 2ec8 D62E0000 		.4byte	0x2ed6
 12042 2ecc 38       		.uleb128 0x38
 12043 2ecd 14000000 		.4byte	.LVL500
 12044 2ed1 75370000 		.4byte	0x3775
 12045 2ed5 00       		.byte	0
 12046 2ed6 53       		.uleb128 0x53
 12047 2ed7 A8150000 		.4byte	.LASF455
 12048 2edb 01       		.byte	0x1
 12049 2edc 2D       		.byte	0x2d
ARM GAS  /var/folders/sv/kgmgr77579zbf78p2zlhkdfr0000gn/T//ccOxe4My.s 			page 214


 12050 2edd BA140000 		.4byte	0x14ba
 12051 2ee1 05       		.uleb128 0x5
 12052 2ee2 03       		.byte	0x3
 12053 2ee3 00000000 		.4byte	m_conf
 12054 2ee7 53       		.uleb128 0x53
 12055 2ee8 F8050000 		.4byte	.LASF456
 12056 2eec 01       		.byte	0x1
 12057 2eed 2E       		.byte	0x2e
 12058 2eee D4090000 		.4byte	0x9d4
 12059 2ef2 05       		.uleb128 0x5
 12060 2ef3 03       		.byte	0x3
 12061 2ef4 00000000 		.4byte	m_fault_now
 12062 2ef8 53       		.uleb128 0x53
 12063 2ef9 27090000 		.4byte	.LASF457
 12064 2efd 01       		.byte	0x1
 12065 2efe 2F       		.byte	0x2f
 12066 2eff B1000000 		.4byte	0xb1
 12067 2f03 05       		.uleb128 0x5
 12068 2f04 03       		.byte	0x3
 12069 2f05 00000000 		.4byte	m_ignore_iterations
 12070 2f09 53       		.uleb128 0x53
 12071 2f0a ED150000 		.4byte	.LASF458
 12072 2f0e 01       		.byte	0x1
 12073 2f0f 30       		.byte	0x30
 12074 2f10 1A2F0000 		.4byte	0x2f1a
 12075 2f14 05       		.uleb128 0x5
 12076 2f15 03       		.byte	0x3
 12077 2f16 00000000 		.4byte	m_cycles_running
 12078 2f1a 05       		.uleb128 0x5
 12079 2f1b B8000000 		.4byte	0xb8
 12080 2f1f 53       		.uleb128 0x53
 12081 2f20 882A0000 		.4byte	.LASF459
 12082 2f24 01       		.byte	0x1
 12083 2f25 31       		.byte	0x31
 12084 2f26 302F0000 		.4byte	0x2f30
 12085 2f2a 05       		.uleb128 0x5
 12086 2f2b 03       		.byte	0x3
 12087 2f2c 00000000 		.4byte	m_lock_enabled
 12088 2f30 05       		.uleb128 0x5
 12089 2f31 360F0000 		.4byte	0xf36
 12090 2f35 53       		.uleb128 0x53
 12091 2f36 CE060000 		.4byte	.LASF460
 12092 2f3a 01       		.byte	0x1
 12093 2f3b 32       		.byte	0x32
 12094 2f3c 302F0000 		.4byte	0x2f30
 12095 2f40 05       		.uleb128 0x5
 12096 2f41 03       		.byte	0x3
 12097 2f42 00000000 		.4byte	m_lock_override_once
 12098 2f46 53       		.uleb128 0x53
 12099 2f47 431C0000 		.4byte	.LASF461
 12100 2f4b 01       		.byte	0x1
 12101 2f4c 33       		.byte	0x33
 12102 2f4d 572F0000 		.4byte	0x2f57
 12103 2f51 05       		.uleb128 0x5
 12104 2f52 03       		.byte	0x3
 12105 2f53 00000000 		.4byte	m_motor_current_sum
 12106 2f57 05       		.uleb128 0x5
ARM GAS  /var/folders/sv/kgmgr77579zbf78p2zlhkdfr0000gn/T//ccOxe4My.s 			page 215


 12107 2f58 25000000 		.4byte	0x25
 12108 2f5c 53       		.uleb128 0x53
 12109 2f5d C8220000 		.4byte	.LASF462
 12110 2f61 01       		.byte	0x1
 12111 2f62 34       		.byte	0x34
 12112 2f63 572F0000 		.4byte	0x2f57
 12113 2f67 05       		.uleb128 0x5
 12114 2f68 03       		.byte	0x3
 12115 2f69 00000000 		.4byte	m_input_current_sum
 12116 2f6d 53       		.uleb128 0x53
 12117 2f6e CE1C0000 		.4byte	.LASF463
 12118 2f72 01       		.byte	0x1
 12119 2f73 35       		.byte	0x35
 12120 2f74 572F0000 		.4byte	0x2f57
 12121 2f78 05       		.uleb128 0x5
 12122 2f79 03       		.byte	0x3
 12123 2f7a 00000000 		.4byte	m_motor_current_iterations
 12124 2f7e 53       		.uleb128 0x53
 12125 2f7f 6F120000 		.4byte	.LASF464
 12126 2f83 01       		.byte	0x1
 12127 2f84 36       		.byte	0x36
 12128 2f85 572F0000 		.4byte	0x2f57
 12129 2f89 05       		.uleb128 0x5
 12130 2f8a 03       		.byte	0x3
 12131 2f8b 00000000 		.4byte	m_input_current_iterations
 12132 2f8f 53       		.uleb128 0x53
 12133 2f90 0B180000 		.4byte	.LASF465
 12134 2f94 01       		.byte	0x1
 12135 2f95 37       		.byte	0x37
 12136 2f96 572F0000 		.4byte	0x2f57
 12137 2f9a 05       		.uleb128 0x5
 12138 2f9b 03       		.byte	0x3
 12139 2f9c 00000000 		.4byte	m_motor_id_sum
 12140 2fa0 53       		.uleb128 0x53
 12141 2fa1 B61B0000 		.4byte	.LASF466
 12142 2fa5 01       		.byte	0x1
 12143 2fa6 38       		.byte	0x38
 12144 2fa7 572F0000 		.4byte	0x2f57
 12145 2fab 05       		.uleb128 0x5
 12146 2fac 03       		.byte	0x3
 12147 2fad 00000000 		.4byte	m_motor_iq_sum
 12148 2fb1 53       		.uleb128 0x53
 12149 2fb2 0E2A0000 		.4byte	.LASF467
 12150 2fb6 01       		.byte	0x1
 12151 2fb7 39       		.byte	0x39
 12152 2fb8 572F0000 		.4byte	0x2f57
 12153 2fbc 05       		.uleb128 0x5
 12154 2fbd 03       		.byte	0x3
 12155 2fbe 00000000 		.4byte	m_motor_id_iterations
 12156 2fc2 53       		.uleb128 0x53
 12157 2fc3 10060000 		.4byte	.LASF468
 12158 2fc7 01       		.byte	0x1
 12159 2fc8 3A       		.byte	0x3a
 12160 2fc9 572F0000 		.4byte	0x2f57
 12161 2fcd 05       		.uleb128 0x5
 12162 2fce 03       		.byte	0x3
 12163 2fcf 00000000 		.4byte	m_motor_iq_iterations
ARM GAS  /var/folders/sv/kgmgr77579zbf78p2zlhkdfr0000gn/T//ccOxe4My.s 			page 216


 12164 2fd3 53       		.uleb128 0x53
 12165 2fd4 4C140000 		.4byte	.LASF469
 12166 2fd8 01       		.byte	0x1
 12167 2fd9 3B       		.byte	0x3b
 12168 2fda 572F0000 		.4byte	0x2f57
 12169 2fde 05       		.uleb128 0x5
 12170 2fdf 03       		.byte	0x3
 12171 2fe0 00000000 		.4byte	m_amp_seconds
 12172 2fe4 53       		.uleb128 0x53
 12173 2fe5 A3130000 		.4byte	.LASF470
 12174 2fe9 01       		.byte	0x1
 12175 2fea 3C       		.byte	0x3c
 12176 2feb 572F0000 		.4byte	0x2f57
 12177 2fef 05       		.uleb128 0x5
 12178 2ff0 03       		.byte	0x3
 12179 2ff1 00000000 		.4byte	m_amp_seconds_charged
 12180 2ff5 53       		.uleb128 0x53
 12181 2ff6 0C070000 		.4byte	.LASF471
 12182 2ffa 01       		.byte	0x1
 12183 2ffb 3D       		.byte	0x3d
 12184 2ffc 572F0000 		.4byte	0x2f57
 12185 3000 05       		.uleb128 0x5
 12186 3001 03       		.byte	0x3
 12187 3002 00000000 		.4byte	m_watt_seconds
 12188 3006 53       		.uleb128 0x53
 12189 3007 3F070000 		.4byte	.LASF472
 12190 300b 01       		.byte	0x1
 12191 300c 3E       		.byte	0x3e
 12192 300d 572F0000 		.4byte	0x2f57
 12193 3011 05       		.uleb128 0x5
 12194 3012 03       		.byte	0x3
 12195 3013 00000000 		.4byte	m_watt_seconds_charged
 12196 3017 53       		.uleb128 0x53
 12197 3018 30000000 		.4byte	.LASF473
 12198 301c 01       		.byte	0x1
 12199 301d 3F       		.byte	0x3f
 12200 301e 572F0000 		.4byte	0x2f57
 12201 3022 05       		.uleb128 0x5
 12202 3023 03       		.byte	0x3
 12203 3024 00000000 		.4byte	m_position_set
 12204 3028 53       		.uleb128 0x53
 12205 3029 C91A0000 		.4byte	.LASF474
 12206 302d 01       		.byte	0x1
 12207 302e 40       		.byte	0x40
 12208 302f 572F0000 		.4byte	0x2f57
 12209 3033 05       		.uleb128 0x5
 12210 3034 03       		.byte	0x3
 12211 3035 00000000 		.4byte	m_temp_fet
 12212 3039 53       		.uleb128 0x53
 12213 303a 51060000 		.4byte	.LASF475
 12214 303e 01       		.byte	0x1
 12215 303f 41       		.byte	0x41
 12216 3040 572F0000 		.4byte	0x2f57
 12217 3044 05       		.uleb128 0x5
 12218 3045 03       		.byte	0x3
 12219 3046 00000000 		.4byte	m_temp_motor
 12220 304a 17       		.uleb128 0x17
ARM GAS  /var/folders/sv/kgmgr77579zbf78p2zlhkdfr0000gn/T//ccOxe4My.s 			page 217


 12221 304b 21010000 		.4byte	0x121
 12222 304f 5B300000 		.4byte	0x305b
 12223 3053 54       		.uleb128 0x54
 12224 3054 D1040000 		.4byte	0x4d1
 12225 3058 CF07     		.2byte	0x7cf
 12226 305a 00       		.byte	0
 12227 305b 53       		.uleb128 0x53
 12228 305c 86240000 		.4byte	.LASF476
 12229 3060 01       		.byte	0x1
 12230 3061 45       		.byte	0x45
 12231 3062 6C300000 		.4byte	0x306c
 12232 3066 05       		.uleb128 0x5
 12233 3067 03       		.byte	0x3
 12234 3068 00000000 		.4byte	m_curr0_samples
 12235 306c 05       		.uleb128 0x5
 12236 306d 4A300000 		.4byte	0x304a
 12237 3071 53       		.uleb128 0x53
 12238 3072 A0240000 		.4byte	.LASF477
 12239 3076 01       		.byte	0x1
 12240 3077 46       		.byte	0x46
 12241 3078 82300000 		.4byte	0x3082
 12242 307c 05       		.uleb128 0x5
 12243 307d 03       		.byte	0x3
 12244 307e A00F0000 		.4byte	m_curr1_samples
 12245 3082 05       		.uleb128 0x5
 12246 3083 4A300000 		.4byte	0x304a
 12247 3087 53       		.uleb128 0x53
 12248 3088 100A0000 		.4byte	.LASF478
 12249 308c 01       		.byte	0x1
 12250 308d 47       		.byte	0x47
 12251 308e 98300000 		.4byte	0x3098
 12252 3092 05       		.uleb128 0x5
 12253 3093 03       		.byte	0x3
 12254 3094 401F0000 		.4byte	m_ph1_samples
 12255 3098 05       		.uleb128 0x5
 12256 3099 4A300000 		.4byte	0x304a
 12257 309d 53       		.uleb128 0x53
 12258 309e 1E0A0000 		.4byte	.LASF479
 12259 30a2 01       		.byte	0x1
 12260 30a3 48       		.byte	0x48
 12261 30a4 AE300000 		.4byte	0x30ae
 12262 30a8 05       		.uleb128 0x5
 12263 30a9 03       		.byte	0x3
 12264 30aa E02E0000 		.4byte	m_ph2_samples
 12265 30ae 05       		.uleb128 0x5
 12266 30af 4A300000 		.4byte	0x304a
 12267 30b3 53       		.uleb128 0x53
 12268 30b4 6C0B0000 		.4byte	.LASF480
 12269 30b8 01       		.byte	0x1
 12270 30b9 49       		.byte	0x49
 12271 30ba C4300000 		.4byte	0x30c4
 12272 30be 05       		.uleb128 0x5
 12273 30bf 03       		.byte	0x3
 12274 30c0 803E0000 		.4byte	m_ph3_samples
 12275 30c4 05       		.uleb128 0x5
 12276 30c5 4A300000 		.4byte	0x304a
 12277 30c9 53       		.uleb128 0x53
ARM GAS  /var/folders/sv/kgmgr77579zbf78p2zlhkdfr0000gn/T//ccOxe4My.s 			page 218


 12278 30ca F72A0000 		.4byte	.LASF481
 12279 30ce 01       		.byte	0x1
 12280 30cf 4A       		.byte	0x4a
 12281 30d0 DA300000 		.4byte	0x30da
 12282 30d4 05       		.uleb128 0x5
 12283 30d5 03       		.byte	0x3
 12284 30d6 204E0000 		.4byte	m_vzero_samples
 12285 30da 05       		.uleb128 0x5
 12286 30db 4A300000 		.4byte	0x304a
 12287 30df 17       		.uleb128 0x17
 12288 30e0 1C010000 		.4byte	0x11c
 12289 30e4 F0300000 		.4byte	0x30f0
 12290 30e8 54       		.uleb128 0x54
 12291 30e9 D1040000 		.4byte	0x4d1
 12292 30ed CF07     		.2byte	0x7cf
 12293 30ef 00       		.byte	0
 12294 30f0 53       		.uleb128 0x53
 12295 30f1 EE040000 		.4byte	.LASF482
 12296 30f5 01       		.byte	0x1
 12297 30f6 4B       		.byte	0x4b
 12298 30f7 01310000 		.4byte	0x3101
 12299 30fb 05       		.uleb128 0x5
 12300 30fc 03       		.byte	0x3
 12301 30fd 007D0000 		.4byte	m_status_samples
 12302 3101 05       		.uleb128 0x5
 12303 3102 DF300000 		.4byte	0x30df
 12304 3106 53       		.uleb128 0x53
 12305 3107 A22A0000 		.4byte	.LASF483
 12306 310b 01       		.byte	0x1
 12307 310c 4C       		.byte	0x4c
 12308 310d 17310000 		.4byte	0x3117
 12309 3111 05       		.uleb128 0x5
 12310 3112 03       		.byte	0x3
 12311 3113 C05D0000 		.4byte	m_curr_fir_samples
 12312 3117 05       		.uleb128 0x5
 12313 3118 4A300000 		.4byte	0x304a
 12314 311c 53       		.uleb128 0x53
 12315 311d CE280000 		.4byte	.LASF484
 12316 3121 01       		.byte	0x1
 12317 3122 4D       		.byte	0x4d
 12318 3123 2D310000 		.4byte	0x312d
 12319 3127 05       		.uleb128 0x5
 12320 3128 03       		.byte	0x3
 12321 3129 606D0000 		.4byte	m_f_sw_samples
 12322 312d 05       		.uleb128 0x5
 12323 312e 4A300000 		.4byte	0x304a
 12324 3132 17       		.uleb128 0x17
 12325 3133 17010000 		.4byte	0x117
 12326 3137 43310000 		.4byte	0x3143
 12327 313b 54       		.uleb128 0x54
 12328 313c D1040000 		.4byte	0x4d1
 12329 3140 CF07     		.2byte	0x7cf
 12330 3142 00       		.byte	0
 12331 3143 53       		.uleb128 0x53
 12332 3144 7A1C0000 		.4byte	.LASF485
 12333 3148 01       		.byte	0x1
 12334 3149 4E       		.byte	0x4e
ARM GAS  /var/folders/sv/kgmgr77579zbf78p2zlhkdfr0000gn/T//ccOxe4My.s 			page 219


 12335 314a 54310000 		.4byte	0x3154
 12336 314e 05       		.uleb128 0x5
 12337 314f 03       		.byte	0x3
 12338 3150 D0840000 		.4byte	m_phase_samples
 12339 3154 05       		.uleb128 0x5
 12340 3155 32310000 		.4byte	0x3132
 12341 3159 53       		.uleb128 0x53
 12342 315a 1A0F0000 		.4byte	.LASF486
 12343 315e 01       		.byte	0x1
 12344 315f 4F       		.byte	0x4f
 12345 3160 2A130000 		.4byte	0x132a
 12346 3164 05       		.uleb128 0x5
 12347 3165 03       		.byte	0x3
 12348 3166 00000000 		.4byte	m_sample_len
 12349 316a 53       		.uleb128 0x53
 12350 316b 7B090000 		.4byte	.LASF487
 12351 316f 01       		.byte	0x1
 12352 3170 50       		.byte	0x50
 12353 3171 2A130000 		.4byte	0x132a
 12354 3175 05       		.uleb128 0x5
 12355 3176 03       		.byte	0x3
 12356 3177 00000000 		.4byte	m_sample_int
 12357 317b 53       		.uleb128 0x53
 12358 317c 690C0000 		.4byte	.LASF488
 12359 3180 01       		.byte	0x1
 12360 3181 51       		.byte	0x51
 12361 3182 8C310000 		.4byte	0x318c
 12362 3186 05       		.uleb128 0x5
 12363 3187 03       		.byte	0x3
 12364 3188 00000000 		.4byte	m_sample_mode
 12365 318c 05       		.uleb128 0x5
 12366 318d 760A0000 		.4byte	0xa76
 12367 3191 53       		.uleb128 0x53
 12368 3192 21170000 		.4byte	.LASF489
 12369 3196 01       		.byte	0x1
 12370 3197 52       		.byte	0x52
 12371 3198 8C310000 		.4byte	0x318c
 12372 319c 05       		.uleb128 0x5
 12373 319d 03       		.byte	0x3
 12374 319e 00000000 		.4byte	m_sample_mode_last
 12375 31a2 53       		.uleb128 0x53
 12376 31a3 F0200000 		.4byte	.LASF490
 12377 31a7 01       		.byte	0x1
 12378 31a8 53       		.byte	0x53
 12379 31a9 2A130000 		.4byte	0x132a
 12380 31ad 05       		.uleb128 0x5
 12381 31ae 03       		.byte	0x3
 12382 31af 00000000 		.4byte	m_sample_now
 12383 31b3 53       		.uleb128 0x53
 12384 31b4 5F200000 		.4byte	.LASF491
 12385 31b8 01       		.byte	0x1
 12386 31b9 54       		.byte	0x54
 12387 31ba 2A130000 		.4byte	0x132a
 12388 31be 05       		.uleb128 0x5
 12389 31bf 03       		.byte	0x3
 12390 31c0 00000000 		.4byte	m_sample_trigger
 12391 31c4 53       		.uleb128 0x53
ARM GAS  /var/folders/sv/kgmgr77579zbf78p2zlhkdfr0000gn/T//ccOxe4My.s 			page 220


 12392 31c5 44100000 		.4byte	.LASF492
 12393 31c9 01       		.byte	0x1
 12394 31ca 55       		.byte	0x55
 12395 31cb 572F0000 		.4byte	0x2f57
 12396 31cf 05       		.uleb128 0x5
 12397 31d0 03       		.byte	0x3
 12398 31d1 00000000 		.4byte	m_last_adc_duration_sample
 12399 31d5 53       		.uleb128 0x53
 12400 31d6 26020000 		.4byte	.LASF493
 12401 31da 01       		.byte	0x1
 12402 31db 5B       		.byte	0x5b
 12403 31dc FF110000 		.4byte	0x11ff
 12404 31e0 05       		.uleb128 0x5
 12405 31e1 03       		.byte	0x3
 12406 31e2 00000000 		.4byte	pwm_done_func
 12407 31e6 17       		.uleb128 0x17
 12408 31e7 08060000 		.4byte	0x608
 12409 31eb F6310000 		.4byte	0x31f6
 12410 31ef 18       		.uleb128 0x18
 12411 31f0 D1040000 		.4byte	0x4d1
 12412 31f4 B2       		.byte	0xb2
 12413 31f5 00       		.byte	0
 12414 31f6 53       		.uleb128 0x53
 12415 31f7 1F040000 		.4byte	.LASF494
 12416 31fb 01       		.byte	0x1
 12417 31fc 5E       		.byte	0x5e
 12418 31fd E6310000 		.4byte	0x31e6
 12419 3201 05       		.uleb128 0x5
 12420 3202 03       		.byte	0x3
 12421 3203 00000000 		.4byte	timer_thread_wa
 12422 3207 53       		.uleb128 0x53
 12423 3208 92180000 		.4byte	.LASF495
 12424 320c 01       		.byte	0x1
 12425 320d 60       		.byte	0x60
 12426 320e E6310000 		.4byte	0x31e6
 12427 3212 05       		.uleb128 0x5
 12428 3213 03       		.byte	0x3
 12429 3214 00000000 		.4byte	sample_send_thread_wa
 12430 3218 53       		.uleb128 0x53
 12431 3219 332B0000 		.4byte	.LASF496
 12432 321d 01       		.byte	0x1
 12433 321e 62       		.byte	0x62
 12434 321f BE020000 		.4byte	0x2be
 12435 3223 05       		.uleb128 0x5
 12436 3224 03       		.byte	0x3
 12437 3225 00000000 		.4byte	sample_send_tp
 12438 3229 55       		.uleb128 0x55
 12439 322a 27240000 		.4byte	.LASF497
 12440 322e 13       		.byte	0x13
 12441 322f A706     		.2byte	0x6a7
 12442 3231 2B010000 		.4byte	0x12b
 12443 3235 56       		.uleb128 0x56
 12444 3236 636800   		.ascii	"ch\000"
 12445 3239 09       		.byte	0x9
 12446 323a 0902     		.2byte	0x209
 12447 323c 6A040000 		.4byte	0x46a
 12448 3240 17       		.uleb128 0x17
ARM GAS  /var/folders/sv/kgmgr77579zbf78p2zlhkdfr0000gn/T//ccOxe4My.s 			page 221


 12449 3241 26010000 		.4byte	0x126
 12450 3245 50320000 		.4byte	0x3250
 12451 3249 18       		.uleb128 0x18
 12452 324a D1040000 		.4byte	0x4d1
 12453 324e 0B       		.byte	0xb
 12454 324f 00       		.byte	0
 12455 3250 57       		.uleb128 0x57
 12456 3251 9B170000 		.4byte	.LASF498
 12457 3255 01       		.byte	0x1
 12458 3256 29       		.byte	0x29
 12459 3257 61320000 		.4byte	0x3261
 12460 325b 05       		.uleb128 0x5
 12461 325c 03       		.byte	0x3
 12462 325d 00000000 		.4byte	ADC_Value
 12463 3261 05       		.uleb128 0x5
 12464 3262 40320000 		.4byte	0x3240
 12465 3266 17       		.uleb128 0x17
 12466 3267 2A130000 		.4byte	0x132a
 12467 326b 76320000 		.4byte	0x3276
 12468 326f 18       		.uleb128 0x18
 12469 3270 D1040000 		.4byte	0x4d1
 12470 3274 02       		.byte	0x2
 12471 3275 00       		.byte	0
 12472 3276 57       		.uleb128 0x57
 12473 3277 CC100000 		.4byte	.LASF499
 12474 327b 01       		.byte	0x1
 12475 327c 2A       		.byte	0x2a
 12476 327d 87320000 		.4byte	0x3287
 12477 3281 05       		.uleb128 0x5
 12478 3282 03       		.byte	0x3
 12479 3283 00000000 		.4byte	ADC_curr_norm_value
 12480 3287 05       		.uleb128 0x5
 12481 3288 66320000 		.4byte	0x3266
 12482 328c 17       		.uleb128 0x17
 12483 328d 572F0000 		.4byte	0x2f57
 12484 3291 97320000 		.4byte	0x3297
 12485 3295 58       		.uleb128 0x58
 12486 3296 00       		.byte	0
 12487 3297 59       		.uleb128 0x59
 12488 3298 7C180000 		.4byte	.LASF500
 12489 329c 14       		.byte	0x14
 12490 329d 4B       		.byte	0x4b
 12491 329e A2320000 		.4byte	0x32a2
 12492 32a2 05       		.uleb128 0x5
 12493 32a3 8C320000 		.4byte	0x328c
 12494 32a7 59       		.uleb128 0x59
 12495 32a8 0D190000 		.4byte	.LASF501
 12496 32ac 14       		.byte	0x14
 12497 32ad 4C       		.byte	0x4c
 12498 32ae B2320000 		.4byte	0x32b2
 12499 32b2 05       		.uleb128 0x5
 12500 32b3 8C320000 		.4byte	0x328c
 12501 32b7 59       		.uleb128 0x59
 12502 32b8 532A0000 		.4byte	.LASF502
 12503 32bc 14       		.byte	0x14
 12504 32bd 4D       		.byte	0x4d
 12505 32be C2320000 		.4byte	0x32c2
ARM GAS  /var/folders/sv/kgmgr77579zbf78p2zlhkdfr0000gn/T//ccOxe4My.s 			page 222


 12506 32c2 05       		.uleb128 0x5
 12507 32c3 8C320000 		.4byte	0x328c
 12508 32c7 59       		.uleb128 0x59
 12509 32c8 5F0D0000 		.4byte	.LASF503
 12510 32cc 14       		.byte	0x14
 12511 32cd 4E       		.byte	0x4e
 12512 32ce 2A130000 		.4byte	0x132a
 12513 32d2 5A       		.uleb128 0x5a
 12514 32d3 9F000000 		.4byte	.LASF504
 12515 32d7 9F000000 		.4byte	.LASF504
 12516 32db 15       		.byte	0x15
 12517 32dc 1F       		.byte	0x1f
 12518 32dd 5A       		.uleb128 0x5a
 12519 32de 72100000 		.4byte	.LASF505
 12520 32e2 72100000 		.4byte	.LASF505
 12521 32e6 16       		.byte	0x16
 12522 32e7 1C       		.byte	0x1c
 12523 32e8 5A       		.uleb128 0x5a
 12524 32e9 242A0000 		.4byte	.LASF506
 12525 32ed 242A0000 		.4byte	.LASF506
 12526 32f1 17       		.byte	0x17
 12527 32f2 8B       		.byte	0x8b
 12528 32f3 5A       		.uleb128 0x5a
 12529 32f4 FF040000 		.4byte	.LASF507
 12530 32f8 FF040000 		.4byte	.LASF507
 12531 32fc 18       		.byte	0x18
 12532 32fd 29       		.byte	0x29
 12533 32fe 5A       		.uleb128 0x5a
 12534 32ff 4C040000 		.4byte	.LASF508
 12535 3303 4C040000 		.4byte	.LASF508
 12536 3307 19       		.byte	0x19
 12537 3308 13       		.byte	0x13
 12538 3309 5A       		.uleb128 0x5a
 12539 330a CF0F0000 		.4byte	.LASF509
 12540 330e CF0F0000 		.4byte	.LASF509
 12541 3312 14       		.byte	0x14
 12542 3313 24       		.byte	0x24
 12543 3314 5B       		.uleb128 0x5b
 12544 3315 E3080000 		.4byte	.LASF617
 12545 3319 E3080000 		.4byte	.LASF617
 12546 331d 5A       		.uleb128 0x5a
 12547 331e A1070000 		.4byte	.LASF510
 12548 3322 A1070000 		.4byte	.LASF510
 12549 3326 1A       		.byte	0x1a
 12550 3327 89       		.byte	0x89
 12551 3328 5A       		.uleb128 0x5a
 12552 3329 ED1D0000 		.4byte	.LASF511
 12553 332d ED1D0000 		.4byte	.LASF511
 12554 3331 1B       		.byte	0x1b
 12555 3332 1C       		.byte	0x1c
 12556 3333 5A       		.uleb128 0x5a
 12557 3334 6C020000 		.4byte	.LASF512
 12558 3338 6C020000 		.4byte	.LASF512
 12559 333c 18       		.byte	0x18
 12560 333d 1C       		.byte	0x1c
 12561 333e 5A       		.uleb128 0x5a
 12562 333f 28290000 		.4byte	.LASF513
ARM GAS  /var/folders/sv/kgmgr77579zbf78p2zlhkdfr0000gn/T//ccOxe4My.s 			page 223


 12563 3343 28290000 		.4byte	.LASF513
 12564 3347 19       		.byte	0x19
 12565 3348 08       		.byte	0x8
 12566 3349 5A       		.uleb128 0x5a
 12567 334a 16030000 		.4byte	.LASF514
 12568 334e 16030000 		.4byte	.LASF514
 12569 3352 14       		.byte	0x14
 12570 3353 1A       		.byte	0x1a
 12571 3354 5A       		.uleb128 0x5a
 12572 3355 50260000 		.4byte	.LASF515
 12573 3359 50260000 		.4byte	.LASF515
 12574 335d 1B       		.byte	0x1b
 12575 335e 1B       		.byte	0x1b
 12576 335f 5A       		.uleb128 0x5a
 12577 3360 B6160000 		.4byte	.LASF516
 12578 3364 B6160000 		.4byte	.LASF516
 12579 3368 19       		.byte	0x19
 12580 3369 23       		.byte	0x23
 12581 336a 5A       		.uleb128 0x5a
 12582 336b 071B0000 		.4byte	.LASF517
 12583 336f 071B0000 		.4byte	.LASF517
 12584 3373 18       		.byte	0x18
 12585 3374 21       		.byte	0x21
 12586 3375 5A       		.uleb128 0x5a
 12587 3376 52280000 		.4byte	.LASF518
 12588 337a 52280000 		.4byte	.LASF518
 12589 337e 14       		.byte	0x14
 12590 337f 43       		.byte	0x43
 12591 3380 5A       		.uleb128 0x5a
 12592 3381 F7060000 		.4byte	.LASF519
 12593 3385 F7060000 		.4byte	.LASF519
 12594 3389 14       		.byte	0x14
 12595 338a 2C       		.byte	0x2c
 12596 338b 5A       		.uleb128 0x5a
 12597 338c 2C110000 		.4byte	.LASF520
 12598 3390 2C110000 		.4byte	.LASF520
 12599 3394 18       		.byte	0x18
 12600 3395 20       		.byte	0x20
 12601 3396 5A       		.uleb128 0x5a
 12602 3397 28030000 		.4byte	.LASF521
 12603 339b 28030000 		.4byte	.LASF521
 12604 339f 18       		.byte	0x18
 12605 33a0 2B       		.byte	0x2b
 12606 33a1 5A       		.uleb128 0x5a
 12607 33a2 CD140000 		.4byte	.LASF522
 12608 33a6 CD140000 		.4byte	.LASF522
 12609 33aa 19       		.byte	0x19
 12610 33ab 14       		.byte	0x14
 12611 33ac 5A       		.uleb128 0x5a
 12612 33ad 71150000 		.4byte	.LASF523
 12613 33b1 71150000 		.4byte	.LASF523
 12614 33b5 14       		.byte	0x14
 12615 33b6 28       		.byte	0x28
 12616 33b7 5A       		.uleb128 0x5a
 12617 33b8 52220000 		.4byte	.LASF524
 12618 33bc 52220000 		.4byte	.LASF524
 12619 33c0 18       		.byte	0x18
ARM GAS  /var/folders/sv/kgmgr77579zbf78p2zlhkdfr0000gn/T//ccOxe4My.s 			page 224


 12620 33c1 2C       		.byte	0x2c
 12621 33c2 5A       		.uleb128 0x5a
 12622 33c3 81060000 		.4byte	.LASF525
 12623 33c7 81060000 		.4byte	.LASF525
 12624 33cb 19       		.byte	0x19
 12625 33cc 15       		.byte	0x15
 12626 33cd 5A       		.uleb128 0x5a
 12627 33ce 26070000 		.4byte	.LASF526
 12628 33d2 26070000 		.4byte	.LASF526
 12629 33d6 14       		.byte	0x14
 12630 33d7 29       		.byte	0x29
 12631 33d8 5A       		.uleb128 0x5a
 12632 33d9 790F0000 		.4byte	.LASF527
 12633 33dd 790F0000 		.4byte	.LASF527
 12634 33e1 18       		.byte	0x18
 12635 33e2 30       		.byte	0x30
 12636 33e3 5A       		.uleb128 0x5a
 12637 33e4 B7010000 		.4byte	.LASF528
 12638 33e8 B7010000 		.4byte	.LASF528
 12639 33ec 19       		.byte	0x19
 12640 33ed 1E       		.byte	0x1e
 12641 33ee 5A       		.uleb128 0x5a
 12642 33ef 13100000 		.4byte	.LASF529
 12643 33f3 13100000 		.4byte	.LASF529
 12644 33f7 14       		.byte	0x14
 12645 33f8 2A       		.byte	0x2a
 12646 33f9 5A       		.uleb128 0x5a
 12647 33fa 4D1F0000 		.4byte	.LASF530
 12648 33fe 4D1F0000 		.4byte	.LASF530
 12649 3402 18       		.byte	0x18
 12650 3403 31       		.byte	0x31
 12651 3404 5A       		.uleb128 0x5a
 12652 3405 63160000 		.4byte	.LASF531
 12653 3409 63160000 		.4byte	.LASF531
 12654 340d 19       		.byte	0x19
 12655 340e 1F       		.byte	0x1f
 12656 340f 5A       		.uleb128 0x5a
 12657 3410 750D0000 		.4byte	.LASF532
 12658 3414 750D0000 		.4byte	.LASF532
 12659 3418 14       		.byte	0x14
 12660 3419 2B       		.byte	0x2b
 12661 341a 5A       		.uleb128 0x5a
 12662 341b 9E230000 		.4byte	.LASF533
 12663 341f 9E230000 		.4byte	.LASF533
 12664 3423 18       		.byte	0x18
 12665 3424 32       		.byte	0x32
 12666 3425 5A       		.uleb128 0x5a
 12667 3426 520B0000 		.4byte	.LASF534
 12668 342a 520B0000 		.4byte	.LASF534
 12669 342e 19       		.byte	0x19
 12670 342f 18       		.byte	0x18
 12671 3430 5A       		.uleb128 0x5a
 12672 3431 1E150000 		.4byte	.LASF535
 12673 3435 1E150000 		.4byte	.LASF535
 12674 3439 14       		.byte	0x14
 12675 343a 32       		.byte	0x32
 12676 343b 5A       		.uleb128 0x5a
ARM GAS  /var/folders/sv/kgmgr77579zbf78p2zlhkdfr0000gn/T//ccOxe4My.s 			page 225


 12677 343c 930D0000 		.4byte	.LASF536
 12678 3440 930D0000 		.4byte	.LASF536
 12679 3444 18       		.byte	0x18
 12680 3445 33       		.byte	0x33
 12681 3446 5A       		.uleb128 0x5a
 12682 3447 18120000 		.4byte	.LASF537
 12683 344b 18120000 		.4byte	.LASF537
 12684 344f 19       		.byte	0x19
 12685 3450 19       		.byte	0x19
 12686 3451 5A       		.uleb128 0x5a
 12687 3452 4E000000 		.4byte	.LASF538
 12688 3456 4E000000 		.4byte	.LASF538
 12689 345a 14       		.byte	0x14
 12690 345b 33       		.byte	0x33
 12691 345c 5A       		.uleb128 0x5a
 12692 345d 6B080000 		.4byte	.LASF539
 12693 3461 6B080000 		.4byte	.LASF539
 12694 3465 18       		.byte	0x18
 12695 3466 37       		.byte	0x37
 12696 3467 5A       		.uleb128 0x5a
 12697 3468 241B0000 		.4byte	.LASF540
 12698 346c 241B0000 		.4byte	.LASF540
 12699 3470 19       		.byte	0x19
 12700 3471 1A       		.byte	0x1a
 12701 3472 5A       		.uleb128 0x5a
 12702 3473 E4190000 		.4byte	.LASF541
 12703 3477 E4190000 		.4byte	.LASF541
 12704 347b 14       		.byte	0x14
 12705 347c 34       		.byte	0x34
 12706 347d 5A       		.uleb128 0x5a
 12707 347e 810B0000 		.4byte	.LASF542
 12708 3482 810B0000 		.4byte	.LASF542
 12709 3486 18       		.byte	0x18
 12710 3487 38       		.byte	0x38
 12711 3488 5A       		.uleb128 0x5a
 12712 3489 CE160000 		.4byte	.LASF543
 12713 348d CE160000 		.4byte	.LASF543
 12714 3491 19       		.byte	0x19
 12715 3492 1B       		.byte	0x1b
 12716 3493 5A       		.uleb128 0x5a
 12717 3494 7D050000 		.4byte	.LASF544
 12718 3498 7D050000 		.4byte	.LASF544
 12719 349c 14       		.byte	0x14
 12720 349d 35       		.byte	0x35
 12721 349e 5A       		.uleb128 0x5a
 12722 349f 62130000 		.4byte	.LASF545
 12723 34a3 62130000 		.4byte	.LASF545
 12724 34a7 18       		.byte	0x18
 12725 34a8 3B       		.byte	0x3b
 12726 34a9 5A       		.uleb128 0x5a
 12727 34aa F3010000 		.4byte	.LASF546
 12728 34ae F3010000 		.4byte	.LASF546
 12729 34b2 19       		.byte	0x19
 12730 34b3 1C       		.byte	0x1c
 12731 34b4 5A       		.uleb128 0x5a
 12732 34b5 B7020000 		.4byte	.LASF547
 12733 34b9 B7020000 		.4byte	.LASF547
ARM GAS  /var/folders/sv/kgmgr77579zbf78p2zlhkdfr0000gn/T//ccOxe4My.s 			page 226


 12734 34bd 14       		.byte	0x14
 12735 34be 36       		.byte	0x36
 12736 34bf 5A       		.uleb128 0x5a
 12737 34c0 8A0C0000 		.4byte	.LASF548
 12738 34c4 8A0C0000 		.4byte	.LASF548
 12739 34c8 18       		.byte	0x18
 12740 34c9 3C       		.byte	0x3c
 12741 34ca 5A       		.uleb128 0x5a
 12742 34cb A2220000 		.4byte	.LASF549
 12743 34cf A2220000 		.4byte	.LASF549
 12744 34d3 19       		.byte	0x19
 12745 34d4 1D       		.byte	0x1d
 12746 34d5 5A       		.uleb128 0x5a
 12747 34d6 E5280000 		.4byte	.LASF550
 12748 34da E5280000 		.4byte	.LASF550
 12749 34de 14       		.byte	0x14
 12750 34df 37       		.byte	0x37
 12751 34e0 5A       		.uleb128 0x5a
 12752 34e1 221D0000 		.4byte	.LASF551
 12753 34e5 221D0000 		.4byte	.LASF551
 12754 34e9 18       		.byte	0x18
 12755 34ea 3D       		.byte	0x3d
 12756 34eb 5A       		.uleb128 0x5a
 12757 34ec EE180000 		.4byte	.LASF552
 12758 34f0 EE180000 		.4byte	.LASF552
 12759 34f4 19       		.byte	0x19
 12760 34f5 21       		.byte	0x21
 12761 34f6 5A       		.uleb128 0x5a
 12762 34f7 62050000 		.4byte	.LASF553
 12763 34fb 62050000 		.4byte	.LASF553
 12764 34ff 14       		.byte	0x14
 12765 3500 2F       		.byte	0x2f
 12766 3501 5A       		.uleb128 0x5a
 12767 3502 3D180000 		.4byte	.LASF554
 12768 3506 3D180000 		.4byte	.LASF554
 12769 350a 1C       		.byte	0x1c
 12770 350b 31       		.byte	0x31
 12771 350c 5A       		.uleb128 0x5a
 12772 350d FD160000 		.4byte	.LASF555
 12773 3511 FD160000 		.4byte	.LASF555
 12774 3515 1C       		.byte	0x1c
 12775 3516 32       		.byte	0x32
 12776 3517 5A       		.uleb128 0x5a
 12777 3518 A3010000 		.4byte	.LASF556
 12778 351c A3010000 		.4byte	.LASF556
 12779 3520 14       		.byte	0x14
 12780 3521 27       		.byte	0x27
 12781 3522 5C       		.uleb128 0x5c
 12782 3523 DC220000 		.4byte	.LASF557
 12783 3527 DC220000 		.4byte	.LASF557
 12784 352b 1D       		.byte	0x1d
 12785 352c 8201     		.2byte	0x182
 12786 352e 5A       		.uleb128 0x5a
 12787 352f 0A1C0000 		.4byte	.LASF558
 12788 3533 0A1C0000 		.4byte	.LASF558
 12789 3537 1E       		.byte	0x1e
 12790 3538 1B       		.byte	0x1b
ARM GAS  /var/folders/sv/kgmgr77579zbf78p2zlhkdfr0000gn/T//ccOxe4My.s 			page 227


 12791 3539 5A       		.uleb128 0x5a
 12792 353a E7120000 		.4byte	.LASF559
 12793 353e E7120000 		.4byte	.LASF559
 12794 3542 18       		.byte	0x18
 12795 3543 22       		.byte	0x22
 12796 3544 5A       		.uleb128 0x5a
 12797 3545 30160000 		.4byte	.LASF560
 12798 3549 30160000 		.4byte	.LASF560
 12799 354d 19       		.byte	0x19
 12800 354e 0D       		.byte	0xd
 12801 354f 5A       		.uleb128 0x5a
 12802 3550 A5030000 		.4byte	.LASF561
 12803 3554 A5030000 		.4byte	.LASF561
 12804 3558 14       		.byte	0x14
 12805 3559 31       		.byte	0x31
 12806 355a 5A       		.uleb128 0x5a
 12807 355b 66280000 		.4byte	.LASF562
 12808 355f 66280000 		.4byte	.LASF562
 12809 3563 1C       		.byte	0x1c
 12810 3564 20       		.byte	0x20
 12811 3565 5A       		.uleb128 0x5a
 12812 3566 05100000 		.4byte	.LASF563
 12813 356a 05100000 		.4byte	.LASF563
 12814 356e 1C       		.byte	0x1c
 12815 356f 2D       		.byte	0x2d
 12816 3570 5A       		.uleb128 0x5a
 12817 3571 3F000000 		.4byte	.LASF564
 12818 3575 3F000000 		.4byte	.LASF564
 12819 3579 1B       		.byte	0x1b
 12820 357a 1A       		.byte	0x1a
 12821 357b 5A       		.uleb128 0x5a
 12822 357c 4E0E0000 		.4byte	.LASF565
 12823 3580 4E0E0000 		.4byte	.LASF565
 12824 3584 14       		.byte	0x14
 12825 3585 1B       		.byte	0x1b
 12826 3586 5A       		.uleb128 0x5a
 12827 3587 3E050000 		.4byte	.LASF566
 12828 358b 3E050000 		.4byte	.LASF566
 12829 358f 18       		.byte	0x18
 12830 3590 1F       		.byte	0x1f
 12831 3591 5A       		.uleb128 0x5a
 12832 3592 26140000 		.4byte	.LASF567
 12833 3596 26140000 		.4byte	.LASF567
 12834 359a 19       		.byte	0x19
 12835 359b 0C       		.byte	0xc
 12836 359c 5A       		.uleb128 0x5a
 12837 359d 9B110000 		.4byte	.LASF568
 12838 35a1 9B110000 		.4byte	.LASF568
 12839 35a5 14       		.byte	0x14
 12840 35a6 1D       		.byte	0x1d
 12841 35a7 5A       		.uleb128 0x5a
 12842 35a8 8A1C0000 		.4byte	.LASF569
 12843 35ac 8A1C0000 		.4byte	.LASF569
 12844 35b0 18       		.byte	0x18
 12845 35b1 1D       		.byte	0x1d
 12846 35b2 5A       		.uleb128 0x5a
 12847 35b3 8D230000 		.4byte	.LASF570
ARM GAS  /var/folders/sv/kgmgr77579zbf78p2zlhkdfr0000gn/T//ccOxe4My.s 			page 228


 12848 35b7 8D230000 		.4byte	.LASF570
 12849 35bb 19       		.byte	0x19
 12850 35bc 09       		.byte	0x9
 12851 35bd 5A       		.uleb128 0x5a
 12852 35be 70200000 		.4byte	.LASF571
 12853 35c2 70200000 		.4byte	.LASF571
 12854 35c6 1B       		.byte	0x1b
 12855 35c7 21       		.byte	0x21
 12856 35c8 5A       		.uleb128 0x5a
 12857 35c9 AF0E0000 		.4byte	.LASF572
 12858 35cd AF0E0000 		.4byte	.LASF572
 12859 35d1 1A       		.byte	0x1a
 12860 35d2 96       		.byte	0x96
 12861 35d3 5A       		.uleb128 0x5a
 12862 35d4 6A010000 		.4byte	.LASF573
 12863 35d8 6A010000 		.4byte	.LASF573
 12864 35dc 18       		.byte	0x18
 12865 35dd 3E       		.byte	0x3e
 12866 35de 5A       		.uleb128 0x5a
 12867 35df CD1F0000 		.4byte	.LASF574
 12868 35e3 CD1F0000 		.4byte	.LASF574
 12869 35e7 19       		.byte	0x19
 12870 35e8 22       		.byte	0x22
 12871 35e9 5A       		.uleb128 0x5a
 12872 35ea 521B0000 		.4byte	.LASF575
 12873 35ee 521B0000 		.4byte	.LASF575
 12874 35f2 14       		.byte	0x14
 12875 35f3 30       		.byte	0x30
 12876 35f4 5A       		.uleb128 0x5a
 12877 35f5 C5150000 		.4byte	.LASF576
 12878 35f9 C5150000 		.4byte	.LASF576
 12879 35fd 18       		.byte	0x18
 12880 35fe 4A       		.byte	0x4a
 12881 35ff 5A       		.uleb128 0x5a
 12882 3600 F20E0000 		.4byte	.LASF577
 12883 3604 F20E0000 		.4byte	.LASF577
 12884 3608 19       		.byte	0x19
 12885 3609 20       		.byte	0x20
 12886 360a 5A       		.uleb128 0x5a
 12887 360b 072B0000 		.4byte	.LASF578
 12888 360f 072B0000 		.4byte	.LASF578
 12889 3613 14       		.byte	0x14
 12890 3614 41       		.byte	0x41
 12891 3615 5A       		.uleb128 0x5a
 12892 3616 05040000 		.4byte	.LASF579
 12893 361a 05040000 		.4byte	.LASF579
 12894 361e 18       		.byte	0x18
 12895 361f 2E       		.byte	0x2e
 12896 3620 5A       		.uleb128 0x5a
 12897 3621 56070000 		.4byte	.LASF580
 12898 3625 56070000 		.4byte	.LASF580
 12899 3629 1C       		.byte	0x1c
 12900 362a 1B       		.byte	0x1b
 12901 362b 5A       		.uleb128 0x5a
 12902 362c E3110000 		.4byte	.LASF581
 12903 3630 E3110000 		.4byte	.LASF581
 12904 3634 19       		.byte	0x19
ARM GAS  /var/folders/sv/kgmgr77579zbf78p2zlhkdfr0000gn/T//ccOxe4My.s 			page 229


 12905 3635 17       		.byte	0x17
 12906 3636 5A       		.uleb128 0x5a
 12907 3637 231E0000 		.4byte	.LASF582
 12908 363b 231E0000 		.4byte	.LASF582
 12909 363f 1B       		.byte	0x1b
 12910 3640 1E       		.byte	0x1e
 12911 3641 5A       		.uleb128 0x5a
 12912 3642 571C0000 		.4byte	.LASF583
 12913 3646 571C0000 		.4byte	.LASF583
 12914 364a 17       		.byte	0x17
 12915 364b 84       		.byte	0x84
 12916 364c 5A       		.uleb128 0x5a
 12917 364d 3C0C0000 		.4byte	.LASF584
 12918 3651 3C0C0000 		.4byte	.LASF584
 12919 3655 18       		.byte	0x18
 12920 3656 1E       		.byte	0x1e
 12921 3657 5A       		.uleb128 0x5a
 12922 3658 320F0000 		.4byte	.LASF585
 12923 365c 320F0000 		.4byte	.LASF585
 12924 3660 19       		.byte	0x19
 12925 3661 0A       		.byte	0xa
 12926 3662 5A       		.uleb128 0x5a
 12927 3663 29280000 		.4byte	.LASF586
 12928 3667 29280000 		.4byte	.LASF586
 12929 366b 14       		.byte	0x14
 12930 366c 1C       		.byte	0x1c
 12931 366d 5A       		.uleb128 0x5a
 12932 366e 792A0000 		.4byte	.LASF587
 12933 3672 792A0000 		.4byte	.LASF587
 12934 3676 14       		.byte	0x14
 12935 3677 1F       		.byte	0x1f
 12936 3678 5A       		.uleb128 0x5a
 12937 3679 C7170000 		.4byte	.LASF588
 12938 367d C7170000 		.4byte	.LASF588
 12939 3681 18       		.byte	0x18
 12940 3682 23       		.byte	0x23
 12941 3683 5A       		.uleb128 0x5a
 12942 3684 4F080000 		.4byte	.LASF589
 12943 3688 4F080000 		.4byte	.LASF589
 12944 368c 19       		.byte	0x19
 12945 368d 0F       		.byte	0xf
 12946 368e 5A       		.uleb128 0x5a
 12947 368f 6F140000 		.4byte	.LASF590
 12948 3693 6F140000 		.4byte	.LASF590
 12949 3697 18       		.byte	0x18
 12950 3698 24       		.byte	0x24
 12951 3699 5A       		.uleb128 0x5a
 12952 369a 8D010000 		.4byte	.LASF591
 12953 369e 8D010000 		.4byte	.LASF591
 12954 36a2 14       		.byte	0x14
 12955 36a3 20       		.byte	0x20
 12956 36a4 5A       		.uleb128 0x5a
 12957 36a5 14260000 		.4byte	.LASF592
 12958 36a9 14260000 		.4byte	.LASF592
 12959 36ad 19       		.byte	0x19
 12960 36ae 10       		.byte	0x10
 12961 36af 5A       		.uleb128 0x5a
ARM GAS  /var/folders/sv/kgmgr77579zbf78p2zlhkdfr0000gn/T//ccOxe4My.s 			page 230


 12962 36b0 350D0000 		.4byte	.LASF593
 12963 36b4 350D0000 		.4byte	.LASF593
 12964 36b8 18       		.byte	0x18
 12965 36b9 25       		.byte	0x25
 12966 36ba 5A       		.uleb128 0x5a
 12967 36bb DA180000 		.4byte	.LASF594
 12968 36bf DA180000 		.4byte	.LASF594
 12969 36c3 14       		.byte	0x14
 12970 36c4 21       		.byte	0x21
 12971 36c5 5A       		.uleb128 0x5a
 12972 36c6 181A0000 		.4byte	.LASF595
 12973 36ca 181A0000 		.4byte	.LASF595
 12974 36ce 19       		.byte	0x19
 12975 36cf 11       		.byte	0x11
 12976 36d0 5A       		.uleb128 0x5a
 12977 36d1 0C1D0000 		.4byte	.LASF596
 12978 36d5 0C1D0000 		.4byte	.LASF596
 12979 36d9 18       		.byte	0x18
 12980 36da 26       		.byte	0x26
 12981 36db 5A       		.uleb128 0x5a
 12982 36dc 6E0E0000 		.4byte	.LASF597
 12983 36e0 6E0E0000 		.4byte	.LASF597
 12984 36e4 14       		.byte	0x14
 12985 36e5 22       		.byte	0x22
 12986 36e6 5A       		.uleb128 0x5a
 12987 36e7 411D0000 		.4byte	.LASF598
 12988 36eb 411D0000 		.4byte	.LASF598
 12989 36ef 19       		.byte	0x19
 12990 36f0 0E       		.byte	0xe
 12991 36f1 5A       		.uleb128 0x5a
 12992 36f2 3B090000 		.4byte	.LASF599
 12993 36f6 3B090000 		.4byte	.LASF599
 12994 36fa 14       		.byte	0x14
 12995 36fb 23       		.byte	0x23
 12996 36fc 5A       		.uleb128 0x5a
 12997 36fd 92150000 		.4byte	.LASF600
 12998 3701 92150000 		.4byte	.LASF600
 12999 3705 18       		.byte	0x18
 13000 3706 27       		.byte	0x27
 13001 3707 5A       		.uleb128 0x5a
 13002 3708 AF150000 		.4byte	.LASF601
 13003 370c AF150000 		.4byte	.LASF601
 13004 3710 19       		.byte	0x19
 13005 3711 12       		.byte	0x12
 13006 3712 5A       		.uleb128 0x5a
 13007 3713 A1280000 		.4byte	.LASF602
 13008 3717 A1280000 		.4byte	.LASF602
 13009 371b 18       		.byte	0x18
 13010 371c 28       		.byte	0x28
 13011 371d 5A       		.uleb128 0x5a
 13012 371e 2F040000 		.4byte	.LASF603
 13013 3722 2F040000 		.4byte	.LASF603
 13014 3726 17       		.byte	0x17
 13015 3727 85       		.byte	0x85
 13016 3728 5A       		.uleb128 0x5a
 13017 3729 F41B0000 		.4byte	.LASF604
 13018 372d F41B0000 		.4byte	.LASF604
ARM GAS  /var/folders/sv/kgmgr77579zbf78p2zlhkdfr0000gn/T//ccOxe4My.s 			page 231


 13019 3731 14       		.byte	0x14
 13020 3732 3C       		.byte	0x3c
 13021 3733 5A       		.uleb128 0x5a
 13022 3734 AC1D0000 		.4byte	.LASF605
 13023 3738 AC1D0000 		.4byte	.LASF605
 13024 373c 18       		.byte	0x18
 13025 373d 3F       		.byte	0x3f
 13026 373e 5A       		.uleb128 0x5a
 13027 373f C1070000 		.4byte	.LASF606
 13028 3743 C1070000 		.4byte	.LASF606
 13029 3747 1F       		.byte	0x1f
 13030 3748 23       		.byte	0x23
 13031 3749 5A       		.uleb128 0x5a
 13032 374a F1130000 		.4byte	.LASF607
 13033 374e F1130000 		.4byte	.LASF607
 13034 3752 18       		.byte	0x18
 13035 3753 39       		.byte	0x39
 13036 3754 5A       		.uleb128 0x5a
 13037 3755 15140000 		.4byte	.LASF608
 13038 3759 15140000 		.4byte	.LASF608
 13039 375d 18       		.byte	0x18
 13040 375e 3A       		.byte	0x3a
 13041 375f 5A       		.uleb128 0x5a
 13042 3760 F9100000 		.4byte	.LASF609
 13043 3764 F9100000 		.4byte	.LASF609
 13044 3768 18       		.byte	0x18
 13045 3769 34       		.byte	0x34
 13046 376a 5A       		.uleb128 0x5a
 13047 376b 2C0A0000 		.4byte	.LASF610
 13048 376f 2C0A0000 		.4byte	.LASF610
 13049 3773 18       		.byte	0x18
 13050 3774 36       		.byte	0x36
 13051 3775 5A       		.uleb128 0x5a
 13052 3776 E1220000 		.4byte	.LASF611
 13053 377a E1220000 		.4byte	.LASF611
 13054 377e 14       		.byte	0x14
 13055 377f 47       		.byte	0x47
 13056 3780 00       		.byte	0
 13057              		.section	.debug_abbrev,"",%progbits
 13058              	.Ldebug_abbrev0:
 13059 0000 01       		.uleb128 0x1
 13060 0001 11       		.uleb128 0x11
 13061 0002 01       		.byte	0x1
 13062 0003 25       		.uleb128 0x25
 13063 0004 0E       		.uleb128 0xe
 13064 0005 13       		.uleb128 0x13
 13065 0006 0B       		.uleb128 0xb
 13066 0007 03       		.uleb128 0x3
 13067 0008 0E       		.uleb128 0xe
 13068 0009 1B       		.uleb128 0x1b
 13069 000a 0E       		.uleb128 0xe
 13070 000b 55       		.uleb128 0x55
 13071 000c 17       		.uleb128 0x17
 13072 000d 11       		.uleb128 0x11
 13073 000e 01       		.uleb128 0x1
 13074 000f 10       		.uleb128 0x10
 13075 0010 17       		.uleb128 0x17
ARM GAS  /var/folders/sv/kgmgr77579zbf78p2zlhkdfr0000gn/T//ccOxe4My.s 			page 232


 13076 0011 00       		.byte	0
 13077 0012 00       		.byte	0
 13078 0013 02       		.uleb128 0x2
 13079 0014 24       		.uleb128 0x24
 13080 0015 00       		.byte	0
 13081 0016 0B       		.uleb128 0xb
 13082 0017 0B       		.uleb128 0xb
 13083 0018 3E       		.uleb128 0x3e
 13084 0019 0B       		.uleb128 0xb
 13085 001a 03       		.uleb128 0x3
 13086 001b 0E       		.uleb128 0xe
 13087 001c 00       		.byte	0
 13088 001d 00       		.byte	0
 13089 001e 03       		.uleb128 0x3
 13090 001f 16       		.uleb128 0x16
 13091 0020 00       		.byte	0
 13092 0021 03       		.uleb128 0x3
 13093 0022 0E       		.uleb128 0xe
 13094 0023 3A       		.uleb128 0x3a
 13095 0024 0B       		.uleb128 0xb
 13096 0025 3B       		.uleb128 0x3b
 13097 0026 0B       		.uleb128 0xb
 13098 0027 49       		.uleb128 0x49
 13099 0028 13       		.uleb128 0x13
 13100 0029 00       		.byte	0
 13101 002a 00       		.byte	0
 13102 002b 04       		.uleb128 0x4
 13103 002c 24       		.uleb128 0x24
 13104 002d 00       		.byte	0
 13105 002e 0B       		.uleb128 0xb
 13106 002f 0B       		.uleb128 0xb
 13107 0030 3E       		.uleb128 0x3e
 13108 0031 0B       		.uleb128 0xb
 13109 0032 03       		.uleb128 0x3
 13110 0033 08       		.uleb128 0x8
 13111 0034 00       		.byte	0
 13112 0035 00       		.byte	0
 13113 0036 05       		.uleb128 0x5
 13114 0037 35       		.uleb128 0x35
 13115 0038 00       		.byte	0
 13116 0039 49       		.uleb128 0x49
 13117 003a 13       		.uleb128 0x13
 13118 003b 00       		.byte	0
 13119 003c 00       		.byte	0
 13120 003d 06       		.uleb128 0x6
 13121 003e 13       		.uleb128 0x13
 13122 003f 01       		.byte	0x1
 13123 0040 03       		.uleb128 0x3
 13124 0041 0E       		.uleb128 0xe
 13125 0042 0B       		.uleb128 0xb
 13126 0043 0B       		.uleb128 0xb
 13127 0044 3A       		.uleb128 0x3a
 13128 0045 0B       		.uleb128 0xb
 13129 0046 3B       		.uleb128 0x3b
 13130 0047 0B       		.uleb128 0xb
 13131 0048 01       		.uleb128 0x1
 13132 0049 13       		.uleb128 0x13
ARM GAS  /var/folders/sv/kgmgr77579zbf78p2zlhkdfr0000gn/T//ccOxe4My.s 			page 233


 13133 004a 00       		.byte	0
 13134 004b 00       		.byte	0
 13135 004c 07       		.uleb128 0x7
 13136 004d 0D       		.uleb128 0xd
 13137 004e 00       		.byte	0
 13138 004f 03       		.uleb128 0x3
 13139 0050 0E       		.uleb128 0xe
 13140 0051 3A       		.uleb128 0x3a
 13141 0052 0B       		.uleb128 0xb
 13142 0053 3B       		.uleb128 0x3b
 13143 0054 0B       		.uleb128 0xb
 13144 0055 49       		.uleb128 0x49
 13145 0056 13       		.uleb128 0x13
 13146 0057 38       		.uleb128 0x38
 13147 0058 0B       		.uleb128 0xb
 13148 0059 00       		.byte	0
 13149 005a 00       		.byte	0
 13150 005b 08       		.uleb128 0x8
 13151 005c 0D       		.uleb128 0xd
 13152 005d 00       		.byte	0
 13153 005e 03       		.uleb128 0x3
 13154 005f 08       		.uleb128 0x8
 13155 0060 3A       		.uleb128 0x3a
 13156 0061 0B       		.uleb128 0xb
 13157 0062 3B       		.uleb128 0x3b
 13158 0063 05       		.uleb128 0x5
 13159 0064 49       		.uleb128 0x49
 13160 0065 13       		.uleb128 0x13
 13161 0066 38       		.uleb128 0x38
 13162 0067 0B       		.uleb128 0xb
 13163 0068 00       		.byte	0
 13164 0069 00       		.byte	0
 13165 006a 09       		.uleb128 0x9
 13166 006b 0D       		.uleb128 0xd
 13167 006c 00       		.byte	0
 13168 006d 03       		.uleb128 0x3
 13169 006e 0E       		.uleb128 0xe
 13170 006f 3A       		.uleb128 0x3a
 13171 0070 0B       		.uleb128 0xb
 13172 0071 3B       		.uleb128 0x3b
 13173 0072 05       		.uleb128 0x5
 13174 0073 49       		.uleb128 0x49
 13175 0074 13       		.uleb128 0x13
 13176 0075 38       		.uleb128 0x38
 13177 0076 0B       		.uleb128 0xb
 13178 0077 00       		.byte	0
 13179 0078 00       		.byte	0
 13180 0079 0A       		.uleb128 0xa
 13181 007a 0F       		.uleb128 0xf
 13182 007b 00       		.byte	0
 13183 007c 0B       		.uleb128 0xb
 13184 007d 0B       		.uleb128 0xb
 13185 007e 49       		.uleb128 0x49
 13186 007f 13       		.uleb128 0x13
 13187 0080 00       		.byte	0
 13188 0081 00       		.byte	0
 13189 0082 0B       		.uleb128 0xb
ARM GAS  /var/folders/sv/kgmgr77579zbf78p2zlhkdfr0000gn/T//ccOxe4My.s 			page 234


 13190 0083 13       		.uleb128 0x13
 13191 0084 01       		.byte	0x1
 13192 0085 03       		.uleb128 0x3
 13193 0086 0E       		.uleb128 0xe
 13194 0087 0B       		.uleb128 0xb
 13195 0088 0B       		.uleb128 0xb
 13196 0089 3A       		.uleb128 0x3a
 13197 008a 0B       		.uleb128 0xb
 13198 008b 3B       		.uleb128 0x3b
 13199 008c 05       		.uleb128 0x5
 13200 008d 01       		.uleb128 0x1
 13201 008e 13       		.uleb128 0x13
 13202 008f 00       		.byte	0
 13203 0090 00       		.byte	0
 13204 0091 0C       		.uleb128 0xc
 13205 0092 15       		.uleb128 0x15
 13206 0093 01       		.byte	0x1
 13207 0094 27       		.uleb128 0x27
 13208 0095 19       		.uleb128 0x19
 13209 0096 01       		.uleb128 0x1
 13210 0097 13       		.uleb128 0x13
 13211 0098 00       		.byte	0
 13212 0099 00       		.byte	0
 13213 009a 0D       		.uleb128 0xd
 13214 009b 05       		.uleb128 0x5
 13215 009c 00       		.byte	0
 13216 009d 49       		.uleb128 0x49
 13217 009e 13       		.uleb128 0x13
 13218 009f 00       		.byte	0
 13219 00a0 00       		.byte	0
 13220 00a1 0E       		.uleb128 0xe
 13221 00a2 0F       		.uleb128 0xf
 13222 00a3 00       		.byte	0
 13223 00a4 0B       		.uleb128 0xb
 13224 00a5 0B       		.uleb128 0xb
 13225 00a6 00       		.byte	0
 13226 00a7 00       		.byte	0
 13227 00a8 0F       		.uleb128 0xf
 13228 00a9 13       		.uleb128 0x13
 13229 00aa 01       		.byte	0x1
 13230 00ab 03       		.uleb128 0x3
 13231 00ac 0E       		.uleb128 0xe
 13232 00ad 0B       		.uleb128 0xb
 13233 00ae 05       		.uleb128 0x5
 13234 00af 3A       		.uleb128 0x3a
 13235 00b0 0B       		.uleb128 0xb
 13236 00b1 3B       		.uleb128 0x3b
 13237 00b2 05       		.uleb128 0x5
 13238 00b3 01       		.uleb128 0x1
 13239 00b4 13       		.uleb128 0x13
 13240 00b5 00       		.byte	0
 13241 00b6 00       		.byte	0
 13242 00b7 10       		.uleb128 0x10
 13243 00b8 13       		.uleb128 0x13
 13244 00b9 01       		.byte	0x1
 13245 00ba 0B       		.uleb128 0xb
 13246 00bb 0B       		.uleb128 0xb
ARM GAS  /var/folders/sv/kgmgr77579zbf78p2zlhkdfr0000gn/T//ccOxe4My.s 			page 235


 13247 00bc 3A       		.uleb128 0x3a
 13248 00bd 0B       		.uleb128 0xb
 13249 00be 3B       		.uleb128 0x3b
 13250 00bf 05       		.uleb128 0x5
 13251 00c0 01       		.uleb128 0x1
 13252 00c1 13       		.uleb128 0x13
 13253 00c2 00       		.byte	0
 13254 00c3 00       		.byte	0
 13255 00c4 11       		.uleb128 0x11
 13256 00c5 16       		.uleb128 0x16
 13257 00c6 00       		.byte	0
 13258 00c7 03       		.uleb128 0x3
 13259 00c8 0E       		.uleb128 0xe
 13260 00c9 3A       		.uleb128 0x3a
 13261 00ca 0B       		.uleb128 0xb
 13262 00cb 3B       		.uleb128 0x3b
 13263 00cc 05       		.uleb128 0x5
 13264 00cd 49       		.uleb128 0x49
 13265 00ce 13       		.uleb128 0x13
 13266 00cf 00       		.byte	0
 13267 00d0 00       		.byte	0
 13268 00d1 12       		.uleb128 0x12
 13269 00d2 0D       		.uleb128 0xd
 13270 00d3 00       		.byte	0
 13271 00d4 03       		.uleb128 0x3
 13272 00d5 08       		.uleb128 0x8
 13273 00d6 3A       		.uleb128 0x3a
 13274 00d7 0B       		.uleb128 0xb
 13275 00d8 3B       		.uleb128 0x3b
 13276 00d9 0B       		.uleb128 0xb
 13277 00da 49       		.uleb128 0x49
 13278 00db 13       		.uleb128 0x13
 13279 00dc 38       		.uleb128 0x38
 13280 00dd 0B       		.uleb128 0xb
 13281 00de 00       		.byte	0
 13282 00df 00       		.byte	0
 13283 00e0 13       		.uleb128 0x13
 13284 00e1 13       		.uleb128 0x13
 13285 00e2 01       		.byte	0x1
 13286 00e3 0B       		.uleb128 0xb
 13287 00e4 0B       		.uleb128 0xb
 13288 00e5 3A       		.uleb128 0x3a
 13289 00e6 0B       		.uleb128 0xb
 13290 00e7 3B       		.uleb128 0x3b
 13291 00e8 0B       		.uleb128 0xb
 13292 00e9 01       		.uleb128 0x1
 13293 00ea 13       		.uleb128 0x13
 13294 00eb 00       		.byte	0
 13295 00ec 00       		.byte	0
 13296 00ed 14       		.uleb128 0x14
 13297 00ee 17       		.uleb128 0x17
 13298 00ef 01       		.byte	0x1
 13299 00f0 0B       		.uleb128 0xb
 13300 00f1 0B       		.uleb128 0xb
 13301 00f2 3A       		.uleb128 0x3a
 13302 00f3 0B       		.uleb128 0xb
 13303 00f4 3B       		.uleb128 0x3b
ARM GAS  /var/folders/sv/kgmgr77579zbf78p2zlhkdfr0000gn/T//ccOxe4My.s 			page 236


 13304 00f5 0B       		.uleb128 0xb
 13305 00f6 01       		.uleb128 0x1
 13306 00f7 13       		.uleb128 0x13
 13307 00f8 00       		.byte	0
 13308 00f9 00       		.byte	0
 13309 00fa 15       		.uleb128 0x15
 13310 00fb 0D       		.uleb128 0xd
 13311 00fc 00       		.byte	0
 13312 00fd 03       		.uleb128 0x3
 13313 00fe 0E       		.uleb128 0xe
 13314 00ff 3A       		.uleb128 0x3a
 13315 0100 0B       		.uleb128 0xb
 13316 0101 3B       		.uleb128 0x3b
 13317 0102 05       		.uleb128 0x5
 13318 0103 49       		.uleb128 0x49
 13319 0104 13       		.uleb128 0x13
 13320 0105 00       		.byte	0
 13321 0106 00       		.byte	0
 13322 0107 16       		.uleb128 0x16
 13323 0108 26       		.uleb128 0x26
 13324 0109 00       		.byte	0
 13325 010a 49       		.uleb128 0x49
 13326 010b 13       		.uleb128 0x13
 13327 010c 00       		.byte	0
 13328 010d 00       		.byte	0
 13329 010e 17       		.uleb128 0x17
 13330 010f 01       		.uleb128 0x1
 13331 0110 01       		.byte	0x1
 13332 0111 49       		.uleb128 0x49
 13333 0112 13       		.uleb128 0x13
 13334 0113 01       		.uleb128 0x1
 13335 0114 13       		.uleb128 0x13
 13336 0115 00       		.byte	0
 13337 0116 00       		.byte	0
 13338 0117 18       		.uleb128 0x18
 13339 0118 21       		.uleb128 0x21
 13340 0119 00       		.byte	0
 13341 011a 49       		.uleb128 0x49
 13342 011b 13       		.uleb128 0x13
 13343 011c 2F       		.uleb128 0x2f
 13344 011d 0B       		.uleb128 0xb
 13345 011e 00       		.byte	0
 13346 011f 00       		.byte	0
 13347 0120 19       		.uleb128 0x19
 13348 0121 04       		.uleb128 0x4
 13349 0122 01       		.byte	0x1
 13350 0123 0B       		.uleb128 0xb
 13351 0124 0B       		.uleb128 0xb
 13352 0125 49       		.uleb128 0x49
 13353 0126 13       		.uleb128 0x13
 13354 0127 3A       		.uleb128 0x3a
 13355 0128 0B       		.uleb128 0xb
 13356 0129 3B       		.uleb128 0x3b
 13357 012a 0B       		.uleb128 0xb
 13358 012b 01       		.uleb128 0x1
 13359 012c 13       		.uleb128 0x13
 13360 012d 00       		.byte	0
ARM GAS  /var/folders/sv/kgmgr77579zbf78p2zlhkdfr0000gn/T//ccOxe4My.s 			page 237


 13361 012e 00       		.byte	0
 13362 012f 1A       		.uleb128 0x1a
 13363 0130 28       		.uleb128 0x28
 13364 0131 00       		.byte	0
 13365 0132 03       		.uleb128 0x3
 13366 0133 0E       		.uleb128 0xe
 13367 0134 1C       		.uleb128 0x1c
 13368 0135 0B       		.uleb128 0xb
 13369 0136 00       		.byte	0
 13370 0137 00       		.byte	0
 13371 0138 1B       		.uleb128 0x1b
 13372 0139 13       		.uleb128 0x13
 13373 013a 01       		.byte	0x1
 13374 013b 0B       		.uleb128 0xb
 13375 013c 05       		.uleb128 0x5
 13376 013d 3A       		.uleb128 0x3a
 13377 013e 0B       		.uleb128 0xb
 13378 013f 3B       		.uleb128 0x3b
 13379 0140 0B       		.uleb128 0xb
 13380 0141 01       		.uleb128 0x1
 13381 0142 13       		.uleb128 0x13
 13382 0143 00       		.byte	0
 13383 0144 00       		.byte	0
 13384 0145 1C       		.uleb128 0x1c
 13385 0146 0D       		.uleb128 0xd
 13386 0147 00       		.byte	0
 13387 0148 03       		.uleb128 0x3
 13388 0149 0E       		.uleb128 0xe
 13389 014a 3A       		.uleb128 0x3a
 13390 014b 0B       		.uleb128 0xb
 13391 014c 3B       		.uleb128 0x3b
 13392 014d 0B       		.uleb128 0xb
 13393 014e 49       		.uleb128 0x49
 13394 014f 13       		.uleb128 0x13
 13395 0150 38       		.uleb128 0x38
 13396 0151 05       		.uleb128 0x5
 13397 0152 00       		.byte	0
 13398 0153 00       		.byte	0
 13399 0154 1D       		.uleb128 0x1d
 13400 0155 04       		.uleb128 0x4
 13401 0156 01       		.byte	0x1
 13402 0157 0B       		.uleb128 0xb
 13403 0158 0B       		.uleb128 0xb
 13404 0159 49       		.uleb128 0x49
 13405 015a 13       		.uleb128 0x13
 13406 015b 3A       		.uleb128 0x3a
 13407 015c 0B       		.uleb128 0xb
 13408 015d 3B       		.uleb128 0x3b
 13409 015e 05       		.uleb128 0x5
 13410 015f 01       		.uleb128 0x1
 13411 0160 13       		.uleb128 0x13
 13412 0161 00       		.byte	0
 13413 0162 00       		.byte	0
 13414 0163 1E       		.uleb128 0x1e
 13415 0164 0D       		.uleb128 0xd
 13416 0165 00       		.byte	0
 13417 0166 03       		.uleb128 0x3
ARM GAS  /var/folders/sv/kgmgr77579zbf78p2zlhkdfr0000gn/T//ccOxe4My.s 			page 238


 13418 0167 08       		.uleb128 0x8
 13419 0168 3A       		.uleb128 0x3a
 13420 0169 0B       		.uleb128 0xb
 13421 016a 3B       		.uleb128 0x3b
 13422 016b 0B       		.uleb128 0xb
 13423 016c 49       		.uleb128 0x49
 13424 016d 13       		.uleb128 0x13
 13425 016e 00       		.byte	0
 13426 016f 00       		.byte	0
 13427 0170 1F       		.uleb128 0x1f
 13428 0171 15       		.uleb128 0x15
 13429 0172 00       		.byte	0
 13430 0173 27       		.uleb128 0x27
 13431 0174 19       		.uleb128 0x19
 13432 0175 00       		.byte	0
 13433 0176 00       		.byte	0
 13434 0177 20       		.uleb128 0x20
 13435 0178 2E       		.uleb128 0x2e
 13436 0179 01       		.byte	0x1
 13437 017a 03       		.uleb128 0x3
 13438 017b 0E       		.uleb128 0xe
 13439 017c 3A       		.uleb128 0x3a
 13440 017d 0B       		.uleb128 0xb
 13441 017e 3B       		.uleb128 0x3b
 13442 017f 05       		.uleb128 0x5
 13443 0180 27       		.uleb128 0x27
 13444 0181 19       		.uleb128 0x19
 13445 0182 20       		.uleb128 0x20
 13446 0183 0B       		.uleb128 0xb
 13447 0184 01       		.uleb128 0x1
 13448 0185 13       		.uleb128 0x13
 13449 0186 00       		.byte	0
 13450 0187 00       		.byte	0
 13451 0188 21       		.uleb128 0x21
 13452 0189 05       		.uleb128 0x5
 13453 018a 00       		.byte	0
 13454 018b 03       		.uleb128 0x3
 13455 018c 0E       		.uleb128 0xe
 13456 018d 3A       		.uleb128 0x3a
 13457 018e 0B       		.uleb128 0xb
 13458 018f 3B       		.uleb128 0x3b
 13459 0190 05       		.uleb128 0x5
 13460 0191 49       		.uleb128 0x49
 13461 0192 13       		.uleb128 0x13
 13462 0193 00       		.byte	0
 13463 0194 00       		.byte	0
 13464 0195 22       		.uleb128 0x22
 13465 0196 2E       		.uleb128 0x2e
 13466 0197 00       		.byte	0
 13467 0198 03       		.uleb128 0x3
 13468 0199 0E       		.uleb128 0xe
 13469 019a 3A       		.uleb128 0x3a
 13470 019b 0B       		.uleb128 0xb
 13471 019c 3B       		.uleb128 0x3b
 13472 019d 05       		.uleb128 0x5
 13473 019e 27       		.uleb128 0x27
 13474 019f 19       		.uleb128 0x19
ARM GAS  /var/folders/sv/kgmgr77579zbf78p2zlhkdfr0000gn/T//ccOxe4My.s 			page 239


 13475 01a0 20       		.uleb128 0x20
 13476 01a1 0B       		.uleb128 0xb
 13477 01a2 00       		.byte	0
 13478 01a3 00       		.byte	0
 13479 01a4 23       		.uleb128 0x23
 13480 01a5 2E       		.uleb128 0x2e
 13481 01a6 00       		.byte	0
 13482 01a7 03       		.uleb128 0x3
 13483 01a8 0E       		.uleb128 0xe
 13484 01a9 3A       		.uleb128 0x3a
 13485 01aa 0B       		.uleb128 0xb
 13486 01ab 3B       		.uleb128 0x3b
 13487 01ac 0B       		.uleb128 0xb
 13488 01ad 27       		.uleb128 0x27
 13489 01ae 19       		.uleb128 0x19
 13490 01af 49       		.uleb128 0x49
 13491 01b0 13       		.uleb128 0x13
 13492 01b1 20       		.uleb128 0x20
 13493 01b2 0B       		.uleb128 0xb
 13494 01b3 00       		.byte	0
 13495 01b4 00       		.byte	0
 13496 01b5 24       		.uleb128 0x24
 13497 01b6 2E       		.uleb128 0x2e
 13498 01b7 01       		.byte	0x1
 13499 01b8 03       		.uleb128 0x3
 13500 01b9 0E       		.uleb128 0xe
 13501 01ba 3A       		.uleb128 0x3a
 13502 01bb 0B       		.uleb128 0xb
 13503 01bc 3B       		.uleb128 0x3b
 13504 01bd 0B       		.uleb128 0xb
 13505 01be 27       		.uleb128 0x27
 13506 01bf 19       		.uleb128 0x19
 13507 01c0 20       		.uleb128 0x20
 13508 01c1 0B       		.uleb128 0xb
 13509 01c2 01       		.uleb128 0x1
 13510 01c3 13       		.uleb128 0x13
 13511 01c4 00       		.byte	0
 13512 01c5 00       		.byte	0
 13513 01c6 25       		.uleb128 0x25
 13514 01c7 05       		.uleb128 0x5
 13515 01c8 00       		.byte	0
 13516 01c9 03       		.uleb128 0x3
 13517 01ca 0E       		.uleb128 0xe
 13518 01cb 3A       		.uleb128 0x3a
 13519 01cc 0B       		.uleb128 0xb
 13520 01cd 3B       		.uleb128 0x3b
 13521 01ce 0B       		.uleb128 0xb
 13522 01cf 49       		.uleb128 0x49
 13523 01d0 13       		.uleb128 0x13
 13524 01d1 00       		.byte	0
 13525 01d2 00       		.byte	0
 13526 01d3 26       		.uleb128 0x26
 13527 01d4 2E       		.uleb128 0x2e
 13528 01d5 01       		.byte	0x1
 13529 01d6 3F       		.uleb128 0x3f
 13530 01d7 19       		.uleb128 0x19
 13531 01d8 03       		.uleb128 0x3
ARM GAS  /var/folders/sv/kgmgr77579zbf78p2zlhkdfr0000gn/T//ccOxe4My.s 			page 240


 13532 01d9 0E       		.uleb128 0xe
 13533 01da 3A       		.uleb128 0x3a
 13534 01db 0B       		.uleb128 0xb
 13535 01dc 3B       		.uleb128 0x3b
 13536 01dd 05       		.uleb128 0x5
 13537 01de 27       		.uleb128 0x27
 13538 01df 19       		.uleb128 0x19
 13539 01e0 20       		.uleb128 0x20
 13540 01e1 0B       		.uleb128 0xb
 13541 01e2 01       		.uleb128 0x1
 13542 01e3 13       		.uleb128 0x13
 13543 01e4 00       		.byte	0
 13544 01e5 00       		.byte	0
 13545 01e6 27       		.uleb128 0x27
 13546 01e7 0B       		.uleb128 0xb
 13547 01e8 01       		.byte	0x1
 13548 01e9 00       		.byte	0
 13549 01ea 00       		.byte	0
 13550 01eb 28       		.uleb128 0x28
 13551 01ec 34       		.uleb128 0x34
 13552 01ed 00       		.byte	0
 13553 01ee 03       		.uleb128 0x3
 13554 01ef 0E       		.uleb128 0xe
 13555 01f0 3A       		.uleb128 0x3a
 13556 01f1 0B       		.uleb128 0xb
 13557 01f2 3B       		.uleb128 0x3b
 13558 01f3 05       		.uleb128 0x5
 13559 01f4 49       		.uleb128 0x49
 13560 01f5 13       		.uleb128 0x13
 13561 01f6 00       		.byte	0
 13562 01f7 00       		.byte	0
 13563 01f8 29       		.uleb128 0x29
 13564 01f9 2E       		.uleb128 0x2e
 13565 01fa 00       		.byte	0
 13566 01fb 3F       		.uleb128 0x3f
 13567 01fc 19       		.uleb128 0x19
 13568 01fd 03       		.uleb128 0x3
 13569 01fe 0E       		.uleb128 0xe
 13570 01ff 3A       		.uleb128 0x3a
 13571 0200 0B       		.uleb128 0xb
 13572 0201 3B       		.uleb128 0x3b
 13573 0202 05       		.uleb128 0x5
 13574 0203 27       		.uleb128 0x27
 13575 0204 19       		.uleb128 0x19
 13576 0205 49       		.uleb128 0x49
 13577 0206 13       		.uleb128 0x13
 13578 0207 20       		.uleb128 0x20
 13579 0208 0B       		.uleb128 0xb
 13580 0209 00       		.byte	0
 13581 020a 00       		.byte	0
 13582 020b 2A       		.uleb128 0x2a
 13583 020c 0B       		.uleb128 0xb
 13584 020d 01       		.byte	0x1
 13585 020e 01       		.uleb128 0x1
 13586 020f 13       		.uleb128 0x13
 13587 0210 00       		.byte	0
 13588 0211 00       		.byte	0
ARM GAS  /var/folders/sv/kgmgr77579zbf78p2zlhkdfr0000gn/T//ccOxe4My.s 			page 241


 13589 0212 2B       		.uleb128 0x2b
 13590 0213 2E       		.uleb128 0x2e
 13591 0214 01       		.byte	0x1
 13592 0215 03       		.uleb128 0x3
 13593 0216 0E       		.uleb128 0xe
 13594 0217 3A       		.uleb128 0x3a
 13595 0218 0B       		.uleb128 0xb
 13596 0219 3B       		.uleb128 0x3b
 13597 021a 05       		.uleb128 0x5
 13598 021b 27       		.uleb128 0x27
 13599 021c 19       		.uleb128 0x19
 13600 021d 8701     		.uleb128 0x87
 13601 021f 19       		.uleb128 0x19
 13602 0220 11       		.uleb128 0x11
 13603 0221 01       		.uleb128 0x1
 13604 0222 12       		.uleb128 0x12
 13605 0223 06       		.uleb128 0x6
 13606 0224 40       		.uleb128 0x40
 13607 0225 18       		.uleb128 0x18
 13608 0226 9742     		.uleb128 0x2117
 13609 0228 19       		.uleb128 0x19
 13610 0229 01       		.uleb128 0x1
 13611 022a 13       		.uleb128 0x13
 13612 022b 00       		.byte	0
 13613 022c 00       		.byte	0
 13614 022d 2C       		.uleb128 0x2c
 13615 022e 05       		.uleb128 0x5
 13616 022f 00       		.byte	0
 13617 0230 03       		.uleb128 0x3
 13618 0231 08       		.uleb128 0x8
 13619 0232 3A       		.uleb128 0x3a
 13620 0233 0B       		.uleb128 0xb
 13621 0234 3B       		.uleb128 0x3b
 13622 0235 05       		.uleb128 0x5
 13623 0236 49       		.uleb128 0x49
 13624 0237 13       		.uleb128 0x13
 13625 0238 02       		.uleb128 0x2
 13626 0239 17       		.uleb128 0x17
 13627 023a 00       		.byte	0
 13628 023b 00       		.byte	0
 13629 023c 2D       		.uleb128 0x2d
 13630 023d 1D       		.uleb128 0x1d
 13631 023e 01       		.byte	0x1
 13632 023f 31       		.uleb128 0x31
 13633 0240 13       		.uleb128 0x13
 13634 0241 52       		.uleb128 0x52
 13635 0242 01       		.uleb128 0x1
 13636 0243 55       		.uleb128 0x55
 13637 0244 17       		.uleb128 0x17
 13638 0245 58       		.uleb128 0x58
 13639 0246 0B       		.uleb128 0xb
 13640 0247 59       		.uleb128 0x59
 13641 0248 05       		.uleb128 0x5
 13642 0249 01       		.uleb128 0x1
 13643 024a 13       		.uleb128 0x13
 13644 024b 00       		.byte	0
 13645 024c 00       		.byte	0
ARM GAS  /var/folders/sv/kgmgr77579zbf78p2zlhkdfr0000gn/T//ccOxe4My.s 			page 242


 13646 024d 2E       		.uleb128 0x2e
 13647 024e 05       		.uleb128 0x5
 13648 024f 00       		.byte	0
 13649 0250 31       		.uleb128 0x31
 13650 0251 13       		.uleb128 0x13
 13651 0252 02       		.uleb128 0x2
 13652 0253 17       		.uleb128 0x17
 13653 0254 00       		.byte	0
 13654 0255 00       		.byte	0
 13655 0256 2F       		.uleb128 0x2f
 13656 0257 0B       		.uleb128 0xb
 13657 0258 01       		.byte	0x1
 13658 0259 55       		.uleb128 0x55
 13659 025a 17       		.uleb128 0x17
 13660 025b 00       		.byte	0
 13661 025c 00       		.byte	0
 13662 025d 30       		.uleb128 0x30
 13663 025e 34       		.uleb128 0x34
 13664 025f 00       		.byte	0
 13665 0260 03       		.uleb128 0x3
 13666 0261 08       		.uleb128 0x8
 13667 0262 3A       		.uleb128 0x3a
 13668 0263 0B       		.uleb128 0xb
 13669 0264 3B       		.uleb128 0x3b
 13670 0265 05       		.uleb128 0x5
 13671 0266 49       		.uleb128 0x49
 13672 0267 13       		.uleb128 0x13
 13673 0268 02       		.uleb128 0x2
 13674 0269 17       		.uleb128 0x17
 13675 026a 00       		.byte	0
 13676 026b 00       		.byte	0
 13677 026c 31       		.uleb128 0x31
 13678 026d 34       		.uleb128 0x34
 13679 026e 00       		.byte	0
 13680 026f 03       		.uleb128 0x3
 13681 0270 0E       		.uleb128 0xe
 13682 0271 3A       		.uleb128 0x3a
 13683 0272 0B       		.uleb128 0xb
 13684 0273 3B       		.uleb128 0x3b
 13685 0274 05       		.uleb128 0x5
 13686 0275 49       		.uleb128 0x49
 13687 0276 13       		.uleb128 0x13
 13688 0277 02       		.uleb128 0x2
 13689 0278 17       		.uleb128 0x17
 13690 0279 00       		.byte	0
 13691 027a 00       		.byte	0
 13692 027b 32       		.uleb128 0x32
 13693 027c 0B       		.uleb128 0xb
 13694 027d 01       		.byte	0x1
 13695 027e 55       		.uleb128 0x55
 13696 027f 17       		.uleb128 0x17
 13697 0280 01       		.uleb128 0x1
 13698 0281 13       		.uleb128 0x13
 13699 0282 00       		.byte	0
 13700 0283 00       		.byte	0
 13701 0284 33       		.uleb128 0x33
 13702 0285 34       		.uleb128 0x34
ARM GAS  /var/folders/sv/kgmgr77579zbf78p2zlhkdfr0000gn/T//ccOxe4My.s 			page 243


 13703 0286 00       		.byte	0
 13704 0287 03       		.uleb128 0x3
 13705 0288 0E       		.uleb128 0xe
 13706 0289 3A       		.uleb128 0x3a
 13707 028a 0B       		.uleb128 0xb
 13708 028b 3B       		.uleb128 0x3b
 13709 028c 05       		.uleb128 0x5
 13710 028d 49       		.uleb128 0x49
 13711 028e 13       		.uleb128 0x13
 13712 028f 02       		.uleb128 0x2
 13713 0290 18       		.uleb128 0x18
 13714 0291 00       		.byte	0
 13715 0292 00       		.byte	0
 13716 0293 34       		.uleb128 0x34
 13717 0294 898201   		.uleb128 0x4109
 13718 0297 01       		.byte	0x1
 13719 0298 11       		.uleb128 0x11
 13720 0299 01       		.uleb128 0x1
 13721 029a 31       		.uleb128 0x31
 13722 029b 13       		.uleb128 0x13
 13723 029c 01       		.uleb128 0x1
 13724 029d 13       		.uleb128 0x13
 13725 029e 00       		.byte	0
 13726 029f 00       		.byte	0
 13727 02a0 35       		.uleb128 0x35
 13728 02a1 8A8201   		.uleb128 0x410a
 13729 02a4 00       		.byte	0
 13730 02a5 02       		.uleb128 0x2
 13731 02a6 18       		.uleb128 0x18
 13732 02a7 9142     		.uleb128 0x2111
 13733 02a9 18       		.uleb128 0x18
 13734 02aa 00       		.byte	0
 13735 02ab 00       		.byte	0
 13736 02ac 36       		.uleb128 0x36
 13737 02ad 898201   		.uleb128 0x4109
 13738 02b0 01       		.byte	0x1
 13739 02b1 11       		.uleb128 0x11
 13740 02b2 01       		.uleb128 0x1
 13741 02b3 31       		.uleb128 0x31
 13742 02b4 13       		.uleb128 0x13
 13743 02b5 00       		.byte	0
 13744 02b6 00       		.byte	0
 13745 02b7 37       		.uleb128 0x37
 13746 02b8 2E       		.uleb128 0x2e
 13747 02b9 01       		.byte	0x1
 13748 02ba 31       		.uleb128 0x31
 13749 02bb 13       		.uleb128 0x13
 13750 02bc 11       		.uleb128 0x11
 13751 02bd 01       		.uleb128 0x1
 13752 02be 12       		.uleb128 0x12
 13753 02bf 06       		.uleb128 0x6
 13754 02c0 40       		.uleb128 0x40
 13755 02c1 18       		.uleb128 0x18
 13756 02c2 9742     		.uleb128 0x2117
 13757 02c4 19       		.uleb128 0x19
 13758 02c5 01       		.uleb128 0x1
 13759 02c6 13       		.uleb128 0x13
ARM GAS  /var/folders/sv/kgmgr77579zbf78p2zlhkdfr0000gn/T//ccOxe4My.s 			page 244


 13760 02c7 00       		.byte	0
 13761 02c8 00       		.byte	0
 13762 02c9 38       		.uleb128 0x38
 13763 02ca 898201   		.uleb128 0x4109
 13764 02cd 00       		.byte	0
 13765 02ce 11       		.uleb128 0x11
 13766 02cf 01       		.uleb128 0x1
 13767 02d0 9542     		.uleb128 0x2115
 13768 02d2 19       		.uleb128 0x19
 13769 02d3 31       		.uleb128 0x31
 13770 02d4 13       		.uleb128 0x13
 13771 02d5 00       		.byte	0
 13772 02d6 00       		.byte	0
 13773 02d7 39       		.uleb128 0x39
 13774 02d8 2E       		.uleb128 0x2e
 13775 02d9 01       		.byte	0x1
 13776 02da 3F       		.uleb128 0x3f
 13777 02db 19       		.uleb128 0x19
 13778 02dc 03       		.uleb128 0x3
 13779 02dd 0E       		.uleb128 0xe
 13780 02de 3A       		.uleb128 0x3a
 13781 02df 0B       		.uleb128 0xb
 13782 02e0 3B       		.uleb128 0x3b
 13783 02e1 0B       		.uleb128 0xb
 13784 02e2 27       		.uleb128 0x27
 13785 02e3 19       		.uleb128 0x19
 13786 02e4 11       		.uleb128 0x11
 13787 02e5 01       		.uleb128 0x1
 13788 02e6 12       		.uleb128 0x12
 13789 02e7 06       		.uleb128 0x6
 13790 02e8 40       		.uleb128 0x40
 13791 02e9 18       		.uleb128 0x18
 13792 02ea 9742     		.uleb128 0x2117
 13793 02ec 19       		.uleb128 0x19
 13794 02ed 01       		.uleb128 0x1
 13795 02ee 13       		.uleb128 0x13
 13796 02ef 00       		.byte	0
 13797 02f0 00       		.byte	0
 13798 02f1 3A       		.uleb128 0x3a
 13799 02f2 05       		.uleb128 0x5
 13800 02f3 00       		.byte	0
 13801 02f4 03       		.uleb128 0x3
 13802 02f5 0E       		.uleb128 0xe
 13803 02f6 3A       		.uleb128 0x3a
 13804 02f7 0B       		.uleb128 0xb
 13805 02f8 3B       		.uleb128 0x3b
 13806 02f9 0B       		.uleb128 0xb
 13807 02fa 49       		.uleb128 0x49
 13808 02fb 13       		.uleb128 0x13
 13809 02fc 02       		.uleb128 0x2
 13810 02fd 17       		.uleb128 0x17
 13811 02fe 00       		.byte	0
 13812 02ff 00       		.byte	0
 13813 0300 3B       		.uleb128 0x3b
 13814 0301 898201   		.uleb128 0x4109
 13815 0304 00       		.byte	0
 13816 0305 11       		.uleb128 0x11
ARM GAS  /var/folders/sv/kgmgr77579zbf78p2zlhkdfr0000gn/T//ccOxe4My.s 			page 245


 13817 0306 01       		.uleb128 0x1
 13818 0307 31       		.uleb128 0x31
 13819 0308 13       		.uleb128 0x13
 13820 0309 00       		.byte	0
 13821 030a 00       		.byte	0
 13822 030b 3C       		.uleb128 0x3c
 13823 030c 898201   		.uleb128 0x4109
 13824 030f 01       		.byte	0x1
 13825 0310 11       		.uleb128 0x11
 13826 0311 01       		.uleb128 0x1
 13827 0312 9542     		.uleb128 0x2115
 13828 0314 19       		.uleb128 0x19
 13829 0315 31       		.uleb128 0x31
 13830 0316 13       		.uleb128 0x13
 13831 0317 01       		.uleb128 0x1
 13832 0318 13       		.uleb128 0x13
 13833 0319 00       		.byte	0
 13834 031a 00       		.byte	0
 13835 031b 3D       		.uleb128 0x3d
 13836 031c 2E       		.uleb128 0x2e
 13837 031d 00       		.byte	0
 13838 031e 3F       		.uleb128 0x3f
 13839 031f 19       		.uleb128 0x19
 13840 0320 03       		.uleb128 0x3
 13841 0321 0E       		.uleb128 0xe
 13842 0322 3A       		.uleb128 0x3a
 13843 0323 0B       		.uleb128 0xb
 13844 0324 3B       		.uleb128 0x3b
 13845 0325 0B       		.uleb128 0xb
 13846 0326 27       		.uleb128 0x27
 13847 0327 19       		.uleb128 0x19
 13848 0328 49       		.uleb128 0x49
 13849 0329 13       		.uleb128 0x13
 13850 032a 11       		.uleb128 0x11
 13851 032b 01       		.uleb128 0x1
 13852 032c 12       		.uleb128 0x12
 13853 032d 06       		.uleb128 0x6
 13854 032e 40       		.uleb128 0x40
 13855 032f 18       		.uleb128 0x18
 13856 0330 9742     		.uleb128 0x2117
 13857 0332 19       		.uleb128 0x19
 13858 0333 00       		.byte	0
 13859 0334 00       		.byte	0
 13860 0335 3E       		.uleb128 0x3e
 13861 0336 2E       		.uleb128 0x2e
 13862 0337 01       		.byte	0x1
 13863 0338 3F       		.uleb128 0x3f
 13864 0339 19       		.uleb128 0x19
 13865 033a 03       		.uleb128 0x3
 13866 033b 0E       		.uleb128 0xe
 13867 033c 3A       		.uleb128 0x3a
 13868 033d 0B       		.uleb128 0xb
 13869 033e 3B       		.uleb128 0x3b
 13870 033f 05       		.uleb128 0x5
 13871 0340 27       		.uleb128 0x27
 13872 0341 19       		.uleb128 0x19
 13873 0342 49       		.uleb128 0x49
ARM GAS  /var/folders/sv/kgmgr77579zbf78p2zlhkdfr0000gn/T//ccOxe4My.s 			page 246


 13874 0343 13       		.uleb128 0x13
 13875 0344 11       		.uleb128 0x11
 13876 0345 01       		.uleb128 0x1
 13877 0346 12       		.uleb128 0x12
 13878 0347 06       		.uleb128 0x6
 13879 0348 40       		.uleb128 0x40
 13880 0349 18       		.uleb128 0x18
 13881 034a 9742     		.uleb128 0x2117
 13882 034c 19       		.uleb128 0x19
 13883 034d 01       		.uleb128 0x1
 13884 034e 13       		.uleb128 0x13
 13885 034f 00       		.byte	0
 13886 0350 00       		.byte	0
 13887 0351 3F       		.uleb128 0x3f
 13888 0352 2E       		.uleb128 0x2e
 13889 0353 01       		.byte	0x1
 13890 0354 3F       		.uleb128 0x3f
 13891 0355 19       		.uleb128 0x19
 13892 0356 03       		.uleb128 0x3
 13893 0357 0E       		.uleb128 0xe
 13894 0358 3A       		.uleb128 0x3a
 13895 0359 0B       		.uleb128 0xb
 13896 035a 3B       		.uleb128 0x3b
 13897 035b 05       		.uleb128 0x5
 13898 035c 27       		.uleb128 0x27
 13899 035d 19       		.uleb128 0x19
 13900 035e 11       		.uleb128 0x11
 13901 035f 01       		.uleb128 0x1
 13902 0360 12       		.uleb128 0x12
 13903 0361 06       		.uleb128 0x6
 13904 0362 40       		.uleb128 0x40
 13905 0363 18       		.uleb128 0x18
 13906 0364 9742     		.uleb128 0x2117
 13907 0366 19       		.uleb128 0x19
 13908 0367 01       		.uleb128 0x1
 13909 0368 13       		.uleb128 0x13
 13910 0369 00       		.byte	0
 13911 036a 00       		.byte	0
 13912 036b 40       		.uleb128 0x40
 13913 036c 05       		.uleb128 0x5
 13914 036d 00       		.byte	0
 13915 036e 03       		.uleb128 0x3
 13916 036f 0E       		.uleb128 0xe
 13917 0370 3A       		.uleb128 0x3a
 13918 0371 0B       		.uleb128 0xb
 13919 0372 3B       		.uleb128 0x3b
 13920 0373 05       		.uleb128 0x5
 13921 0374 49       		.uleb128 0x49
 13922 0375 13       		.uleb128 0x13
 13923 0376 02       		.uleb128 0x2
 13924 0377 18       		.uleb128 0x18
 13925 0378 00       		.byte	0
 13926 0379 00       		.byte	0
 13927 037a 41       		.uleb128 0x41
 13928 037b 2E       		.uleb128 0x2e
 13929 037c 00       		.byte	0
 13930 037d 3F       		.uleb128 0x3f
ARM GAS  /var/folders/sv/kgmgr77579zbf78p2zlhkdfr0000gn/T//ccOxe4My.s 			page 247


 13931 037e 19       		.uleb128 0x19
 13932 037f 03       		.uleb128 0x3
 13933 0380 0E       		.uleb128 0xe
 13934 0381 3A       		.uleb128 0x3a
 13935 0382 0B       		.uleb128 0xb
 13936 0383 3B       		.uleb128 0x3b
 13937 0384 05       		.uleb128 0x5
 13938 0385 27       		.uleb128 0x27
 13939 0386 19       		.uleb128 0x19
 13940 0387 11       		.uleb128 0x11
 13941 0388 01       		.uleb128 0x1
 13942 0389 12       		.uleb128 0x12
 13943 038a 06       		.uleb128 0x6
 13944 038b 40       		.uleb128 0x40
 13945 038c 18       		.uleb128 0x18
 13946 038d 9742     		.uleb128 0x2117
 13947 038f 19       		.uleb128 0x19
 13948 0390 00       		.byte	0
 13949 0391 00       		.byte	0
 13950 0392 42       		.uleb128 0x42
 13951 0393 2E       		.uleb128 0x2e
 13952 0394 00       		.byte	0
 13953 0395 3F       		.uleb128 0x3f
 13954 0396 19       		.uleb128 0x19
 13955 0397 03       		.uleb128 0x3
 13956 0398 0E       		.uleb128 0xe
 13957 0399 3A       		.uleb128 0x3a
 13958 039a 0B       		.uleb128 0xb
 13959 039b 3B       		.uleb128 0x3b
 13960 039c 05       		.uleb128 0x5
 13961 039d 27       		.uleb128 0x27
 13962 039e 19       		.uleb128 0x19
 13963 039f 49       		.uleb128 0x49
 13964 03a0 13       		.uleb128 0x13
 13965 03a1 11       		.uleb128 0x11
 13966 03a2 01       		.uleb128 0x1
 13967 03a3 12       		.uleb128 0x12
 13968 03a4 06       		.uleb128 0x6
 13969 03a5 40       		.uleb128 0x40
 13970 03a6 18       		.uleb128 0x18
 13971 03a7 9742     		.uleb128 0x2117
 13972 03a9 19       		.uleb128 0x19
 13973 03aa 00       		.byte	0
 13974 03ab 00       		.byte	0
 13975 03ac 43       		.uleb128 0x43
 13976 03ad 05       		.uleb128 0x5
 13977 03ae 00       		.byte	0
 13978 03af 03       		.uleb128 0x3
 13979 03b0 0E       		.uleb128 0xe
 13980 03b1 3A       		.uleb128 0x3a
 13981 03b2 0B       		.uleb128 0xb
 13982 03b3 3B       		.uleb128 0x3b
 13983 03b4 05       		.uleb128 0x5
 13984 03b5 49       		.uleb128 0x49
 13985 03b6 13       		.uleb128 0x13
 13986 03b7 02       		.uleb128 0x2
 13987 03b8 17       		.uleb128 0x17
ARM GAS  /var/folders/sv/kgmgr77579zbf78p2zlhkdfr0000gn/T//ccOxe4My.s 			page 248


 13988 03b9 00       		.byte	0
 13989 03ba 00       		.byte	0
 13990 03bb 44       		.uleb128 0x44
 13991 03bc 34       		.uleb128 0x34
 13992 03bd 00       		.byte	0
 13993 03be 03       		.uleb128 0x3
 13994 03bf 08       		.uleb128 0x8
 13995 03c0 3A       		.uleb128 0x3a
 13996 03c1 0B       		.uleb128 0xb
 13997 03c2 3B       		.uleb128 0x3b
 13998 03c3 05       		.uleb128 0x5
 13999 03c4 49       		.uleb128 0x49
 14000 03c5 13       		.uleb128 0x13
 14001 03c6 1C       		.uleb128 0x1c
 14002 03c7 0B       		.uleb128 0xb
 14003 03c8 00       		.byte	0
 14004 03c9 00       		.byte	0
 14005 03ca 45       		.uleb128 0x45
 14006 03cb 34       		.uleb128 0x34
 14007 03cc 00       		.byte	0
 14008 03cd 03       		.uleb128 0x3
 14009 03ce 08       		.uleb128 0x8
 14010 03cf 3A       		.uleb128 0x3a
 14011 03d0 0B       		.uleb128 0xb
 14012 03d1 3B       		.uleb128 0x3b
 14013 03d2 05       		.uleb128 0x5
 14014 03d3 49       		.uleb128 0x49
 14015 03d4 13       		.uleb128 0x13
 14016 03d5 1C       		.uleb128 0x1c
 14017 03d6 0A       		.uleb128 0xa
 14018 03d7 00       		.byte	0
 14019 03d8 00       		.byte	0
 14020 03d9 46       		.uleb128 0x46
 14021 03da 34       		.uleb128 0x34
 14022 03db 00       		.byte	0
 14023 03dc 03       		.uleb128 0x3
 14024 03dd 08       		.uleb128 0x8
 14025 03de 3A       		.uleb128 0x3a
 14026 03df 0B       		.uleb128 0xb
 14027 03e0 3B       		.uleb128 0x3b
 14028 03e1 05       		.uleb128 0x5
 14029 03e2 49       		.uleb128 0x49
 14030 03e3 13       		.uleb128 0x13
 14031 03e4 02       		.uleb128 0x2
 14032 03e5 18       		.uleb128 0x18
 14033 03e6 00       		.byte	0
 14034 03e7 00       		.byte	0
 14035 03e8 47       		.uleb128 0x47
 14036 03e9 0B       		.uleb128 0xb
 14037 03ea 01       		.byte	0x1
 14038 03eb 11       		.uleb128 0x11
 14039 03ec 01       		.uleb128 0x1
 14040 03ed 12       		.uleb128 0x12
 14041 03ee 06       		.uleb128 0x6
 14042 03ef 01       		.uleb128 0x1
 14043 03f0 13       		.uleb128 0x13
 14044 03f1 00       		.byte	0
ARM GAS  /var/folders/sv/kgmgr77579zbf78p2zlhkdfr0000gn/T//ccOxe4My.s 			page 249


 14045 03f2 00       		.byte	0
 14046 03f3 48       		.uleb128 0x48
 14047 03f4 34       		.uleb128 0x34
 14048 03f5 00       		.byte	0
 14049 03f6 31       		.uleb128 0x31
 14050 03f7 13       		.uleb128 0x13
 14051 03f8 02       		.uleb128 0x2
 14052 03f9 18       		.uleb128 0x18
 14053 03fa 00       		.byte	0
 14054 03fb 00       		.byte	0
 14055 03fc 49       		.uleb128 0x49
 14056 03fd 34       		.uleb128 0x34
 14057 03fe 00       		.byte	0
 14058 03ff 31       		.uleb128 0x31
 14059 0400 13       		.uleb128 0x13
 14060 0401 02       		.uleb128 0x2
 14061 0402 17       		.uleb128 0x17
 14062 0403 00       		.byte	0
 14063 0404 00       		.byte	0
 14064 0405 4A       		.uleb128 0x4a
 14065 0406 05       		.uleb128 0x5
 14066 0407 00       		.byte	0
 14067 0408 31       		.uleb128 0x31
 14068 0409 13       		.uleb128 0x13
 14069 040a 02       		.uleb128 0x2
 14070 040b 18       		.uleb128 0x18
 14071 040c 00       		.byte	0
 14072 040d 00       		.byte	0
 14073 040e 4B       		.uleb128 0x4b
 14074 040f 2E       		.uleb128 0x2e
 14075 0410 00       		.byte	0
 14076 0411 31       		.uleb128 0x31
 14077 0412 13       		.uleb128 0x13
 14078 0413 11       		.uleb128 0x11
 14079 0414 01       		.uleb128 0x1
 14080 0415 12       		.uleb128 0x12
 14081 0416 06       		.uleb128 0x6
 14082 0417 40       		.uleb128 0x40
 14083 0418 18       		.uleb128 0x18
 14084 0419 9742     		.uleb128 0x2117
 14085 041b 19       		.uleb128 0x19
 14086 041c 00       		.byte	0
 14087 041d 00       		.byte	0
 14088 041e 4C       		.uleb128 0x4c
 14089 041f 898201   		.uleb128 0x4109
 14090 0422 01       		.byte	0x1
 14091 0423 11       		.uleb128 0x11
 14092 0424 01       		.uleb128 0x1
 14093 0425 9542     		.uleb128 0x2115
 14094 0427 19       		.uleb128 0x19
 14095 0428 31       		.uleb128 0x31
 14096 0429 13       		.uleb128 0x13
 14097 042a 00       		.byte	0
 14098 042b 00       		.byte	0
 14099 042c 4D       		.uleb128 0x4d
 14100 042d 1D       		.uleb128 0x1d
 14101 042e 01       		.byte	0x1
ARM GAS  /var/folders/sv/kgmgr77579zbf78p2zlhkdfr0000gn/T//ccOxe4My.s 			page 250


 14102 042f 31       		.uleb128 0x31
 14103 0430 13       		.uleb128 0x13
 14104 0431 52       		.uleb128 0x52
 14105 0432 01       		.uleb128 0x1
 14106 0433 55       		.uleb128 0x55
 14107 0434 17       		.uleb128 0x17
 14108 0435 58       		.uleb128 0x58
 14109 0436 0B       		.uleb128 0xb
 14110 0437 59       		.uleb128 0x59
 14111 0438 05       		.uleb128 0x5
 14112 0439 00       		.byte	0
 14113 043a 00       		.byte	0
 14114 043b 4E       		.uleb128 0x4e
 14115 043c 2E       		.uleb128 0x2e
 14116 043d 01       		.byte	0x1
 14117 043e 3F       		.uleb128 0x3f
 14118 043f 19       		.uleb128 0x19
 14119 0440 03       		.uleb128 0x3
 14120 0441 0E       		.uleb128 0xe
 14121 0442 3A       		.uleb128 0x3a
 14122 0443 0B       		.uleb128 0xb
 14123 0444 3B       		.uleb128 0x3b
 14124 0445 05       		.uleb128 0x5
 14125 0446 27       		.uleb128 0x27
 14126 0447 19       		.uleb128 0x19
 14127 0448 11       		.uleb128 0x11
 14128 0449 01       		.uleb128 0x1
 14129 044a 12       		.uleb128 0x12
 14130 044b 06       		.uleb128 0x6
 14131 044c 40       		.uleb128 0x40
 14132 044d 18       		.uleb128 0x18
 14133 044e 9642     		.uleb128 0x2116
 14134 0450 19       		.uleb128 0x19
 14135 0451 01       		.uleb128 0x1
 14136 0452 13       		.uleb128 0x13
 14137 0453 00       		.byte	0
 14138 0454 00       		.byte	0
 14139 0455 4F       		.uleb128 0x4f
 14140 0456 1D       		.uleb128 0x1d
 14141 0457 01       		.byte	0x1
 14142 0458 31       		.uleb128 0x31
 14143 0459 13       		.uleb128 0x13
 14144 045a 11       		.uleb128 0x11
 14145 045b 01       		.uleb128 0x1
 14146 045c 12       		.uleb128 0x12
 14147 045d 06       		.uleb128 0x6
 14148 045e 58       		.uleb128 0x58
 14149 045f 0B       		.uleb128 0xb
 14150 0460 59       		.uleb128 0x59
 14151 0461 05       		.uleb128 0x5
 14152 0462 01       		.uleb128 0x1
 14153 0463 13       		.uleb128 0x13
 14154 0464 00       		.byte	0
 14155 0465 00       		.byte	0
 14156 0466 50       		.uleb128 0x50
 14157 0467 05       		.uleb128 0x5
 14158 0468 00       		.byte	0
ARM GAS  /var/folders/sv/kgmgr77579zbf78p2zlhkdfr0000gn/T//ccOxe4My.s 			page 251


 14159 0469 31       		.uleb128 0x31
 14160 046a 13       		.uleb128 0x13
 14161 046b 00       		.byte	0
 14162 046c 00       		.byte	0
 14163 046d 51       		.uleb128 0x51
 14164 046e 1D       		.uleb128 0x1d
 14165 046f 01       		.byte	0x1
 14166 0470 31       		.uleb128 0x31
 14167 0471 13       		.uleb128 0x13
 14168 0472 11       		.uleb128 0x11
 14169 0473 01       		.uleb128 0x1
 14170 0474 12       		.uleb128 0x12
 14171 0475 06       		.uleb128 0x6
 14172 0476 58       		.uleb128 0x58
 14173 0477 0B       		.uleb128 0xb
 14174 0478 59       		.uleb128 0x59
 14175 0479 05       		.uleb128 0x5
 14176 047a 00       		.byte	0
 14177 047b 00       		.byte	0
 14178 047c 52       		.uleb128 0x52
 14179 047d 1D       		.uleb128 0x1d
 14180 047e 00       		.byte	0
 14181 047f 31       		.uleb128 0x31
 14182 0480 13       		.uleb128 0x13
 14183 0481 52       		.uleb128 0x52
 14184 0482 01       		.uleb128 0x1
 14185 0483 55       		.uleb128 0x55
 14186 0484 17       		.uleb128 0x17
 14187 0485 58       		.uleb128 0x58
 14188 0486 0B       		.uleb128 0xb
 14189 0487 59       		.uleb128 0x59
 14190 0488 05       		.uleb128 0x5
 14191 0489 00       		.byte	0
 14192 048a 00       		.byte	0
 14193 048b 53       		.uleb128 0x53
 14194 048c 34       		.uleb128 0x34
 14195 048d 00       		.byte	0
 14196 048e 03       		.uleb128 0x3
 14197 048f 0E       		.uleb128 0xe
 14198 0490 3A       		.uleb128 0x3a
 14199 0491 0B       		.uleb128 0xb
 14200 0492 3B       		.uleb128 0x3b
 14201 0493 0B       		.uleb128 0xb
 14202 0494 49       		.uleb128 0x49
 14203 0495 13       		.uleb128 0x13
 14204 0496 02       		.uleb128 0x2
 14205 0497 18       		.uleb128 0x18
 14206 0498 00       		.byte	0
 14207 0499 00       		.byte	0
 14208 049a 54       		.uleb128 0x54
 14209 049b 21       		.uleb128 0x21
 14210 049c 00       		.byte	0
 14211 049d 49       		.uleb128 0x49
 14212 049e 13       		.uleb128 0x13
 14213 049f 2F       		.uleb128 0x2f
 14214 04a0 05       		.uleb128 0x5
 14215 04a1 00       		.byte	0
ARM GAS  /var/folders/sv/kgmgr77579zbf78p2zlhkdfr0000gn/T//ccOxe4My.s 			page 252


 14216 04a2 00       		.byte	0
 14217 04a3 55       		.uleb128 0x55
 14218 04a4 34       		.uleb128 0x34
 14219 04a5 00       		.byte	0
 14220 04a6 03       		.uleb128 0x3
 14221 04a7 0E       		.uleb128 0xe
 14222 04a8 3A       		.uleb128 0x3a
 14223 04a9 0B       		.uleb128 0xb
 14224 04aa 3B       		.uleb128 0x3b
 14225 04ab 05       		.uleb128 0x5
 14226 04ac 49       		.uleb128 0x49
 14227 04ad 13       		.uleb128 0x13
 14228 04ae 3F       		.uleb128 0x3f
 14229 04af 19       		.uleb128 0x19
 14230 04b0 3C       		.uleb128 0x3c
 14231 04b1 19       		.uleb128 0x19
 14232 04b2 00       		.byte	0
 14233 04b3 00       		.byte	0
 14234 04b4 56       		.uleb128 0x56
 14235 04b5 34       		.uleb128 0x34
 14236 04b6 00       		.byte	0
 14237 04b7 03       		.uleb128 0x3
 14238 04b8 08       		.uleb128 0x8
 14239 04b9 3A       		.uleb128 0x3a
 14240 04ba 0B       		.uleb128 0xb
 14241 04bb 3B       		.uleb128 0x3b
 14242 04bc 05       		.uleb128 0x5
 14243 04bd 49       		.uleb128 0x49
 14244 04be 13       		.uleb128 0x13
 14245 04bf 3F       		.uleb128 0x3f
 14246 04c0 19       		.uleb128 0x19
 14247 04c1 3C       		.uleb128 0x3c
 14248 04c2 19       		.uleb128 0x19
 14249 04c3 00       		.byte	0
 14250 04c4 00       		.byte	0
 14251 04c5 57       		.uleb128 0x57
 14252 04c6 34       		.uleb128 0x34
 14253 04c7 00       		.byte	0
 14254 04c8 03       		.uleb128 0x3
 14255 04c9 0E       		.uleb128 0xe
 14256 04ca 3A       		.uleb128 0x3a
 14257 04cb 0B       		.uleb128 0xb
 14258 04cc 3B       		.uleb128 0x3b
 14259 04cd 0B       		.uleb128 0xb
 14260 04ce 49       		.uleb128 0x49
 14261 04cf 13       		.uleb128 0x13
 14262 04d0 3F       		.uleb128 0x3f
 14263 04d1 19       		.uleb128 0x19
 14264 04d2 02       		.uleb128 0x2
 14265 04d3 18       		.uleb128 0x18
 14266 04d4 00       		.byte	0
 14267 04d5 00       		.byte	0
 14268 04d6 58       		.uleb128 0x58
 14269 04d7 21       		.uleb128 0x21
 14270 04d8 00       		.byte	0
 14271 04d9 00       		.byte	0
 14272 04da 00       		.byte	0
ARM GAS  /var/folders/sv/kgmgr77579zbf78p2zlhkdfr0000gn/T//ccOxe4My.s 			page 253


 14273 04db 59       		.uleb128 0x59
 14274 04dc 34       		.uleb128 0x34
 14275 04dd 00       		.byte	0
 14276 04de 03       		.uleb128 0x3
 14277 04df 0E       		.uleb128 0xe
 14278 04e0 3A       		.uleb128 0x3a
 14279 04e1 0B       		.uleb128 0xb
 14280 04e2 3B       		.uleb128 0x3b
 14281 04e3 0B       		.uleb128 0xb
 14282 04e4 49       		.uleb128 0x49
 14283 04e5 13       		.uleb128 0x13
 14284 04e6 3F       		.uleb128 0x3f
 14285 04e7 19       		.uleb128 0x19
 14286 04e8 3C       		.uleb128 0x3c
 14287 04e9 19       		.uleb128 0x19
 14288 04ea 00       		.byte	0
 14289 04eb 00       		.byte	0
 14290 04ec 5A       		.uleb128 0x5a
 14291 04ed 2E       		.uleb128 0x2e
 14292 04ee 00       		.byte	0
 14293 04ef 3F       		.uleb128 0x3f
 14294 04f0 19       		.uleb128 0x19
 14295 04f1 3C       		.uleb128 0x3c
 14296 04f2 19       		.uleb128 0x19
 14297 04f3 6E       		.uleb128 0x6e
 14298 04f4 0E       		.uleb128 0xe
 14299 04f5 03       		.uleb128 0x3
 14300 04f6 0E       		.uleb128 0xe
 14301 04f7 3A       		.uleb128 0x3a
 14302 04f8 0B       		.uleb128 0xb
 14303 04f9 3B       		.uleb128 0x3b
 14304 04fa 0B       		.uleb128 0xb
 14305 04fb 00       		.byte	0
 14306 04fc 00       		.byte	0
 14307 04fd 5B       		.uleb128 0x5b
 14308 04fe 2E       		.uleb128 0x2e
 14309 04ff 00       		.byte	0
 14310 0500 3F       		.uleb128 0x3f
 14311 0501 19       		.uleb128 0x19
 14312 0502 3C       		.uleb128 0x3c
 14313 0503 19       		.uleb128 0x19
 14314 0504 6E       		.uleb128 0x6e
 14315 0505 0E       		.uleb128 0xe
 14316 0506 03       		.uleb128 0x3
 14317 0507 0E       		.uleb128 0xe
 14318 0508 00       		.byte	0
 14319 0509 00       		.byte	0
 14320 050a 5C       		.uleb128 0x5c
 14321 050b 2E       		.uleb128 0x2e
 14322 050c 00       		.byte	0
 14323 050d 3F       		.uleb128 0x3f
 14324 050e 19       		.uleb128 0x19
 14325 050f 3C       		.uleb128 0x3c
 14326 0510 19       		.uleb128 0x19
 14327 0511 6E       		.uleb128 0x6e
 14328 0512 0E       		.uleb128 0xe
 14329 0513 03       		.uleb128 0x3
ARM GAS  /var/folders/sv/kgmgr77579zbf78p2zlhkdfr0000gn/T//ccOxe4My.s 			page 254


 14330 0514 0E       		.uleb128 0xe
 14331 0515 3A       		.uleb128 0x3a
 14332 0516 0B       		.uleb128 0xb
 14333 0517 3B       		.uleb128 0x3b
 14334 0518 05       		.uleb128 0x5
 14335 0519 00       		.byte	0
 14336 051a 00       		.byte	0
 14337 051b 00       		.byte	0
 14338              		.section	.debug_loc,"",%progbits
 14339              	.Ldebug_loc0:
 14340              	.LLST0:
 14341 0000 00000000 		.4byte	.LVL0
 14342 0004 30000000 		.4byte	.LVL2
 14343 0008 0100     		.2byte	0x1
 14344 000a 50       		.byte	0x50
 14345 000b 30000000 		.4byte	.LVL2
 14346 000f 3C020000 		.4byte	.LFE312
 14347 0013 0400     		.2byte	0x4
 14348 0015 F3       		.byte	0xf3
 14349 0016 01       		.uleb128 0x1
 14350 0017 50       		.byte	0x50
 14351 0018 9F       		.byte	0x9f
 14352 0019 00000000 		.4byte	0
 14353 001d 00000000 		.4byte	0
 14354              	.LLST1:
 14355 0021 00000000 		.4byte	.LVL0
 14356 0025 2C000000 		.4byte	.LVL1
 14357 0029 0600     		.2byte	0x6
 14358 002b 03       		.byte	0x3
 14359 002c 00000000 		.4byte	.LC0
 14360 0030 9F       		.byte	0x9f
 14361 0031 00000000 		.4byte	0
 14362 0035 00000000 		.4byte	0
 14363              	.LLST2:
 14364 0039 36000000 		.4byte	.LVL3
 14365 003d 4A000000 		.4byte	.LVL4
 14366 0041 0200     		.2byte	0x2
 14367 0043 30       		.byte	0x30
 14368 0044 9F       		.byte	0x9f
 14369 0045 4A000000 		.4byte	.LVL4
 14370 0049 58000000 		.4byte	.LVL5
 14371 004d 0400     		.2byte	0x4
 14372 004f 0A       		.byte	0xa
 14373 0050 D007     		.2byte	0x7d0
 14374 0052 9F       		.byte	0x9f
 14375 0053 58000000 		.4byte	.LVL5
 14376 0057 E0010000 		.4byte	.LVL25
 14377 005b 0100     		.2byte	0x1
 14378 005d 57       		.byte	0x57
 14379 005e E0010000 		.4byte	.LVL25
 14380 0062 E4010000 		.4byte	.LVL26
 14381 0066 0200     		.2byte	0x2
 14382 0068 30       		.byte	0x30
 14383 0069 9F       		.byte	0x9f
 14384 006a E4010000 		.4byte	.LVL26
 14385 006e 3C020000 		.4byte	.LFE312
 14386 0072 0100     		.2byte	0x1
ARM GAS  /var/folders/sv/kgmgr77579zbf78p2zlhkdfr0000gn/T//ccOxe4My.s 			page 255


 14387 0074 57       		.byte	0x57
 14388 0075 00000000 		.4byte	0
 14389 0079 00000000 		.4byte	0
 14390              	.LLST3:
 14391 007d 36000000 		.4byte	.LVL3
 14392 0081 58000000 		.4byte	.LVL5
 14393 0085 0200     		.2byte	0x2
 14394 0087 30       		.byte	0x30
 14395 0088 9F       		.byte	0x9f
 14396 0089 58000000 		.4byte	.LVL5
 14397 008d 6C000000 		.4byte	.LVL8
 14398 0091 0100     		.2byte	0x1
 14399 0093 53       		.byte	0x53
 14400 0094 E0010000 		.4byte	.LVL25
 14401 0098 3C020000 		.4byte	.LFE312
 14402 009c 0200     		.2byte	0x2
 14403 009e 30       		.byte	0x30
 14404 009f 9F       		.byte	0x9f
 14405 00a0 00000000 		.4byte	0
 14406 00a4 00000000 		.4byte	0
 14407              	.LLST4:
 14408 00a8 58000000 		.4byte	.LVL5
 14409 00ac 66000000 		.4byte	.LVL6
 14410 00b0 0200     		.2byte	0x2
 14411 00b2 30       		.byte	0x30
 14412 00b3 9F       		.byte	0x9f
 14413 00b4 66000000 		.4byte	.LVL6
 14414 00b8 D8000000 		.4byte	.LVL12
 14415 00bc 0100     		.2byte	0x1
 14416 00be 55       		.byte	0x55
 14417 00bf D8000000 		.4byte	.LVL12
 14418 00c3 C0010000 		.4byte	.LVL21
 14419 00c7 0300     		.2byte	0x3
 14420 00c9 75       		.byte	0x75
 14421 00ca 7F       		.sleb128 -1
 14422 00cb 9F       		.byte	0x9f
 14423 00cc C0010000 		.4byte	.LVL21
 14424 00d0 E0010000 		.4byte	.LVL25
 14425 00d4 0100     		.2byte	0x1
 14426 00d6 55       		.byte	0x55
 14427 00d7 E4010000 		.4byte	.LVL26
 14428 00db 3C020000 		.4byte	.LFE312
 14429 00df 0200     		.2byte	0x2
 14430 00e1 30       		.byte	0x30
 14431 00e2 9F       		.byte	0x9f
 14432 00e3 00000000 		.4byte	0
 14433 00e7 00000000 		.4byte	0
 14434              	.LLST5:
 14435 00eb 68000000 		.4byte	.LVL7
 14436 00ef 6C000000 		.4byte	.LVL8
 14437 00f3 0100     		.2byte	0x1
 14438 00f5 53       		.byte	0x53
 14439 00f6 6C000000 		.4byte	.LVL8
 14440 00fa A0010000 		.4byte	.LVL19
 14441 00fe 0100     		.2byte	0x1
 14442 0100 54       		.byte	0x54
 14443 0101 A0010000 		.4byte	.LVL19
ARM GAS  /var/folders/sv/kgmgr77579zbf78p2zlhkdfr0000gn/T//ccOxe4My.s 			page 256


 14444 0105 B2010000 		.4byte	.LVL20
 14445 0109 0900     		.2byte	0x9
 14446 010b 74       		.byte	0x74
 14447 010c 00       		.sleb128 0
 14448 010d 03       		.byte	0x3
 14449 010e C8760000 		.4byte	.LANCHOR11
 14450 0112 1C       		.byte	0x1c
 14451 0113 9F       		.byte	0x9f
 14452 0114 CC010000 		.4byte	.LVL22
 14453 0118 D8010000 		.4byte	.LVL23
 14454 011c 0100     		.2byte	0x1
 14455 011e 54       		.byte	0x54
 14456 011f D8010000 		.4byte	.LVL23
 14457 0123 DC010000 		.4byte	.LVL24
 14458 0127 0400     		.2byte	0x4
 14459 0129 74       		.byte	0x74
 14460 012a D00F     		.sleb128 2000
 14461 012c 9F       		.byte	0x9f
 14462 012d DC010000 		.4byte	.LVL24
 14463 0131 E0010000 		.4byte	.LVL25
 14464 0135 0100     		.2byte	0x1
 14465 0137 54       		.byte	0x54
 14466 0138 00000000 		.4byte	0
 14467 013c 00000000 		.4byte	0
 14468              	.LLST6:
 14469 0140 00000000 		.4byte	.LVL27
 14470 0144 13000000 		.4byte	.LVL28-1
 14471 0148 0200     		.2byte	0x2
 14472 014a 90       		.byte	0x90
 14473 014b 40       		.uleb128 0x40
 14474 014c 13000000 		.4byte	.LVL28-1
 14475 0150 14000000 		.4byte	.LVL28
 14476 0154 0600     		.2byte	0x6
 14477 0156 F3       		.byte	0xf3
 14478 0157 03       		.uleb128 0x3
 14479 0158 F5       		.byte	0xf5
 14480 0159 40       		.uleb128 0x40
 14481 015a 25       		.uleb128 0x25
 14482 015b 9F       		.byte	0x9f
 14483 015c 14000000 		.4byte	.LVL28
 14484 0160 17000000 		.4byte	.LVL29-1
 14485 0164 0200     		.2byte	0x2
 14486 0166 90       		.byte	0x90
 14487 0167 40       		.uleb128 0x40
 14488 0168 17000000 		.4byte	.LVL29-1
 14489 016c 18000000 		.4byte	.LVL29
 14490 0170 0600     		.2byte	0x6
 14491 0172 F3       		.byte	0xf3
 14492 0173 03       		.uleb128 0x3
 14493 0174 F5       		.byte	0xf5
 14494 0175 40       		.uleb128 0x40
 14495 0176 25       		.uleb128 0x25
 14496 0177 9F       		.byte	0x9f
 14497 0178 18000000 		.4byte	.LVL29
 14498 017c 1B000000 		.4byte	.LVL30-1
 14499 0180 0200     		.2byte	0x2
 14500 0182 90       		.byte	0x90
ARM GAS  /var/folders/sv/kgmgr77579zbf78p2zlhkdfr0000gn/T//ccOxe4My.s 			page 257


 14501 0183 40       		.uleb128 0x40
 14502 0184 1B000000 		.4byte	.LVL30-1
 14503 0188 1C000000 		.4byte	.LVL30
 14504 018c 0600     		.2byte	0x6
 14505 018e F3       		.byte	0xf3
 14506 018f 03       		.uleb128 0x3
 14507 0190 F5       		.byte	0xf5
 14508 0191 40       		.uleb128 0x40
 14509 0192 25       		.uleb128 0x25
 14510 0193 9F       		.byte	0x9f
 14511 0194 1C000000 		.4byte	.LVL30
 14512 0198 24000000 		.4byte	.LFE316
 14513 019c 0200     		.2byte	0x2
 14514 019e 90       		.byte	0x90
 14515 019f 40       		.uleb128 0x40
 14516 01a0 00000000 		.4byte	0
 14517 01a4 00000000 		.4byte	0
 14518              	.LLST7:
 14519 01a8 00000000 		.4byte	.LVL31
 14520 01ac 12000000 		.4byte	.LVL32
 14521 01b0 0100     		.2byte	0x1
 14522 01b2 50       		.byte	0x50
 14523 01b3 12000000 		.4byte	.LVL32
 14524 01b7 15000000 		.4byte	.LVL33-1
 14525 01bb 0100     		.2byte	0x1
 14526 01bd 51       		.byte	0x51
 14527 01be 15000000 		.4byte	.LVL33-1
 14528 01c2 80010000 		.4byte	.LFE256
 14529 01c6 0400     		.2byte	0x4
 14530 01c8 F3       		.byte	0xf3
 14531 01c9 01       		.uleb128 0x1
 14532 01ca 50       		.byte	0x50
 14533 01cb 9F       		.byte	0x9f
 14534 01cc 00000000 		.4byte	0
 14535 01d0 00000000 		.4byte	0
 14536              	.LLST8:
 14537 01d4 00000000 		.4byte	.LVL41
 14538 01d8 16000000 		.4byte	.LVL42
 14539 01dc 0200     		.2byte	0x2
 14540 01de 30       		.byte	0x30
 14541 01df 9F       		.byte	0x9f
 14542 01e0 1E000000 		.4byte	.LVL43
 14543 01e4 30000000 		.4byte	.LFE259
 14544 01e8 0200     		.2byte	0x2
 14545 01ea 30       		.byte	0x30
 14546 01eb 9F       		.byte	0x9f
 14547 01ec 00000000 		.4byte	0
 14548 01f0 00000000 		.4byte	0
 14549              	.LLST9:
 14550 01f4 00000000 		.4byte	.LVL46
 14551 01f8 0A000000 		.4byte	.LVL47
 14552 01fc 0100     		.2byte	0x1
 14553 01fe 50       		.byte	0x50
 14554 01ff 0A000000 		.4byte	.LVL47
 14555 0203 18000000 		.4byte	.LFE265
 14556 0207 0400     		.2byte	0x4
 14557 0209 F3       		.byte	0xf3
ARM GAS  /var/folders/sv/kgmgr77579zbf78p2zlhkdfr0000gn/T//ccOxe4My.s 			page 258


 14558 020a 01       		.uleb128 0x1
 14559 020b 50       		.byte	0x50
 14560 020c 9F       		.byte	0x9f
 14561 020d 00000000 		.4byte	0
 14562 0211 00000000 		.4byte	0
 14563              	.LLST10:
 14564 0215 00000000 		.4byte	.LVL51
 14565 0219 16000000 		.4byte	.LVL52
 14566 021d 0600     		.2byte	0x6
 14567 021f 9E       		.byte	0x9e
 14568 0220 04       		.uleb128 0x4
 14569 0221 00000000 		.4byte	0
 14570 0225 16000000 		.4byte	.LVL52
 14571 0229 2E000000 		.4byte	.LVL53
 14572 022d 0200     		.2byte	0x2
 14573 022f 90       		.byte	0x90
 14574 0230 40       		.uleb128 0x40
 14575 0231 30000000 		.4byte	.LVL54
 14576 0235 34000000 		.4byte	.LVL55
 14577 0239 0600     		.2byte	0x6
 14578 023b 9E       		.byte	0x9e
 14579 023c 04       		.uleb128 0x4
 14580 023d 00000000 		.4byte	0
 14581 0241 34000000 		.4byte	.LVL55
 14582 0245 36000000 		.4byte	.LVL56
 14583 0249 0200     		.2byte	0x2
 14584 024b 90       		.byte	0x90
 14585 024c 40       		.uleb128 0x40
 14586 024d 36000000 		.4byte	.LVL56
 14587 0251 3A000000 		.4byte	.LVL57
 14588 0255 0600     		.2byte	0x6
 14589 0257 9E       		.byte	0x9e
 14590 0258 04       		.uleb128 0x4
 14591 0259 00000000 		.4byte	0
 14592 025d 3A000000 		.4byte	.LVL57
 14593 0261 3C000000 		.4byte	.LVL58
 14594 0265 0200     		.2byte	0x2
 14595 0267 90       		.byte	0x90
 14596 0268 40       		.uleb128 0x40
 14597 0269 3C000000 		.4byte	.LVL58
 14598 026d 4C000000 		.4byte	.LFE279
 14599 0271 0600     		.2byte	0x6
 14600 0273 9E       		.byte	0x9e
 14601 0274 04       		.uleb128 0x4
 14602 0275 00000000 		.4byte	0
 14603 0279 00000000 		.4byte	0
 14604 027d 00000000 		.4byte	0
 14605              	.LLST11:
 14606 0281 00000000 		.4byte	.LVL59
 14607 0285 16000000 		.4byte	.LVL60
 14608 0289 0600     		.2byte	0x6
 14609 028b 9E       		.byte	0x9e
 14610 028c 04       		.uleb128 0x4
 14611 028d 00000000 		.4byte	0
 14612 0291 16000000 		.4byte	.LVL60
 14613 0295 2E000000 		.4byte	.LVL61
 14614 0299 0200     		.2byte	0x2
ARM GAS  /var/folders/sv/kgmgr77579zbf78p2zlhkdfr0000gn/T//ccOxe4My.s 			page 259


 14615 029b 90       		.byte	0x90
 14616 029c 40       		.uleb128 0x40
 14617 029d 30000000 		.4byte	.LVL62
 14618 02a1 34000000 		.4byte	.LVL63
 14619 02a5 0600     		.2byte	0x6
 14620 02a7 9E       		.byte	0x9e
 14621 02a8 04       		.uleb128 0x4
 14622 02a9 00000000 		.4byte	0
 14623 02ad 34000000 		.4byte	.LVL63
 14624 02b1 36000000 		.4byte	.LVL64
 14625 02b5 0200     		.2byte	0x2
 14626 02b7 90       		.byte	0x90
 14627 02b8 40       		.uleb128 0x40
 14628 02b9 36000000 		.4byte	.LVL64
 14629 02bd 3A000000 		.4byte	.LVL65
 14630 02c1 0600     		.2byte	0x6
 14631 02c3 9E       		.byte	0x9e
 14632 02c4 04       		.uleb128 0x4
 14633 02c5 00000000 		.4byte	0
 14634 02c9 3A000000 		.4byte	.LVL65
 14635 02cd 3C000000 		.4byte	.LVL66
 14636 02d1 0200     		.2byte	0x2
 14637 02d3 90       		.byte	0x90
 14638 02d4 40       		.uleb128 0x40
 14639 02d5 3C000000 		.4byte	.LVL66
 14640 02d9 4C000000 		.4byte	.LFE280
 14641 02dd 0600     		.2byte	0x6
 14642 02df 9E       		.byte	0x9e
 14643 02e0 04       		.uleb128 0x4
 14644 02e1 00000000 		.4byte	0
 14645 02e5 00000000 		.4byte	0
 14646 02e9 00000000 		.4byte	0
 14647              	.LLST12:
 14648 02ed 00000000 		.4byte	.LVL71
 14649 02f1 16000000 		.4byte	.LVL72
 14650 02f5 0600     		.2byte	0x6
 14651 02f7 9E       		.byte	0x9e
 14652 02f8 04       		.uleb128 0x4
 14653 02f9 00000000 		.4byte	0
 14654 02fd 16000000 		.4byte	.LVL72
 14655 0301 2E000000 		.4byte	.LVL73
 14656 0305 0200     		.2byte	0x2
 14657 0307 90       		.byte	0x90
 14658 0308 40       		.uleb128 0x40
 14659 0309 30000000 		.4byte	.LVL74
 14660 030d 34000000 		.4byte	.LVL75
 14661 0311 0600     		.2byte	0x6
 14662 0313 9E       		.byte	0x9e
 14663 0314 04       		.uleb128 0x4
 14664 0315 00000000 		.4byte	0
 14665 0319 34000000 		.4byte	.LVL75
 14666 031d 36000000 		.4byte	.LVL76
 14667 0321 0200     		.2byte	0x2
 14668 0323 90       		.byte	0x90
 14669 0324 40       		.uleb128 0x40
 14670 0325 36000000 		.4byte	.LVL76
 14671 0329 3A000000 		.4byte	.LVL77
ARM GAS  /var/folders/sv/kgmgr77579zbf78p2zlhkdfr0000gn/T//ccOxe4My.s 			page 260


 14672 032d 0600     		.2byte	0x6
 14673 032f 9E       		.byte	0x9e
 14674 0330 04       		.uleb128 0x4
 14675 0331 00000000 		.4byte	0
 14676 0335 3A000000 		.4byte	.LVL77
 14677 0339 3C000000 		.4byte	.LVL78
 14678 033d 0200     		.2byte	0x2
 14679 033f 90       		.byte	0x90
 14680 0340 40       		.uleb128 0x40
 14681 0341 3C000000 		.4byte	.LVL78
 14682 0345 4C000000 		.4byte	.LFE282
 14683 0349 0600     		.2byte	0x6
 14684 034b 9E       		.byte	0x9e
 14685 034c 04       		.uleb128 0x4
 14686 034d 00000000 		.4byte	0
 14687 0351 00000000 		.4byte	0
 14688 0355 00000000 		.4byte	0
 14689              	.LLST13:
 14690 0359 00000000 		.4byte	.LVL95
 14691 035d 16000000 		.4byte	.LVL96
 14692 0361 0600     		.2byte	0x6
 14693 0363 9E       		.byte	0x9e
 14694 0364 04       		.uleb128 0x4
 14695 0365 00000000 		.4byte	0
 14696 0369 16000000 		.4byte	.LVL96
 14697 036d 2E000000 		.4byte	.LVL97
 14698 0371 0200     		.2byte	0x2
 14699 0373 90       		.byte	0x90
 14700 0374 40       		.uleb128 0x40
 14701 0375 30000000 		.4byte	.LVL98
 14702 0379 34000000 		.4byte	.LVL99
 14703 037d 0600     		.2byte	0x6
 14704 037f 9E       		.byte	0x9e
 14705 0380 04       		.uleb128 0x4
 14706 0381 00000000 		.4byte	0
 14707 0385 34000000 		.4byte	.LVL99
 14708 0389 36000000 		.4byte	.LVL100
 14709 038d 0200     		.2byte	0x2
 14710 038f 90       		.byte	0x90
 14711 0390 40       		.uleb128 0x40
 14712 0391 36000000 		.4byte	.LVL100
 14713 0395 3A000000 		.4byte	.LVL101
 14714 0399 0600     		.2byte	0x6
 14715 039b 9E       		.byte	0x9e
 14716 039c 04       		.uleb128 0x4
 14717 039d 00000000 		.4byte	0
 14718 03a1 3A000000 		.4byte	.LVL101
 14719 03a5 3C000000 		.4byte	.LVL102
 14720 03a9 0200     		.2byte	0x2
 14721 03ab 90       		.byte	0x90
 14722 03ac 40       		.uleb128 0x40
 14723 03ad 3C000000 		.4byte	.LVL102
 14724 03b1 4C000000 		.4byte	.LFE289
 14725 03b5 0600     		.2byte	0x6
 14726 03b7 9E       		.byte	0x9e
 14727 03b8 04       		.uleb128 0x4
 14728 03b9 00000000 		.4byte	0
ARM GAS  /var/folders/sv/kgmgr77579zbf78p2zlhkdfr0000gn/T//ccOxe4My.s 			page 261


 14729 03bd 00000000 		.4byte	0
 14730 03c1 00000000 		.4byte	0
 14731              	.LLST14:
 14732 03c5 00000000 		.4byte	.LVL103
 14733 03c9 16000000 		.4byte	.LVL104
 14734 03cd 0600     		.2byte	0x6
 14735 03cf 9E       		.byte	0x9e
 14736 03d0 04       		.uleb128 0x4
 14737 03d1 00000000 		.4byte	0
 14738 03d5 16000000 		.4byte	.LVL104
 14739 03d9 2E000000 		.4byte	.LVL105
 14740 03dd 0200     		.2byte	0x2
 14741 03df 90       		.byte	0x90
 14742 03e0 40       		.uleb128 0x40
 14743 03e1 30000000 		.4byte	.LVL106
 14744 03e5 34000000 		.4byte	.LVL107
 14745 03e9 0600     		.2byte	0x6
 14746 03eb 9E       		.byte	0x9e
 14747 03ec 04       		.uleb128 0x4
 14748 03ed 00000000 		.4byte	0
 14749 03f1 34000000 		.4byte	.LVL107
 14750 03f5 36000000 		.4byte	.LVL108
 14751 03f9 0200     		.2byte	0x2
 14752 03fb 90       		.byte	0x90
 14753 03fc 40       		.uleb128 0x40
 14754 03fd 36000000 		.4byte	.LVL108
 14755 0401 3A000000 		.4byte	.LVL109
 14756 0405 0600     		.2byte	0x6
 14757 0407 9E       		.byte	0x9e
 14758 0408 04       		.uleb128 0x4
 14759 0409 00000000 		.4byte	0
 14760 040d 3A000000 		.4byte	.LVL109
 14761 0411 3C000000 		.4byte	.LVL110
 14762 0415 0200     		.2byte	0x2
 14763 0417 90       		.byte	0x90
 14764 0418 40       		.uleb128 0x40
 14765 0419 3C000000 		.4byte	.LVL110
 14766 041d 4C000000 		.4byte	.LFE290
 14767 0421 0600     		.2byte	0x6
 14768 0423 9E       		.byte	0x9e
 14769 0424 04       		.uleb128 0x4
 14770 0425 00000000 		.4byte	0
 14771 0429 00000000 		.4byte	0
 14772 042d 00000000 		.4byte	0
 14773              	.LLST15:
 14774 0431 00000000 		.4byte	.LVL119
 14775 0435 15000000 		.4byte	.LVL120-1
 14776 0439 0100     		.2byte	0x1
 14777 043b 50       		.byte	0x50
 14778 043c 15000000 		.4byte	.LVL120-1
 14779 0440 40000000 		.4byte	.LVL122
 14780 0444 0400     		.2byte	0x4
 14781 0446 F3       		.byte	0xf3
 14782 0447 01       		.uleb128 0x1
 14783 0448 50       		.byte	0x50
 14784 0449 9F       		.byte	0x9f
 14785 044a 40000000 		.4byte	.LVL122
ARM GAS  /var/folders/sv/kgmgr77579zbf78p2zlhkdfr0000gn/T//ccOxe4My.s 			page 262


 14786 044e 43000000 		.4byte	.LVL123-1
 14787 0452 0100     		.2byte	0x1
 14788 0454 50       		.byte	0x50
 14789 0455 43000000 		.4byte	.LVL123-1
 14790 0459 4E000000 		.4byte	.LVL124
 14791 045d 0400     		.2byte	0x4
 14792 045f F3       		.byte	0xf3
 14793 0460 01       		.uleb128 0x1
 14794 0461 50       		.byte	0x50
 14795 0462 9F       		.byte	0x9f
 14796 0463 4E000000 		.4byte	.LVL124
 14797 0467 51000000 		.4byte	.LVL125-1
 14798 046b 0100     		.2byte	0x1
 14799 046d 50       		.byte	0x50
 14800 046e 51000000 		.4byte	.LVL125-1
 14801 0472 5C000000 		.4byte	.LVL126
 14802 0476 0400     		.2byte	0x4
 14803 0478 F3       		.byte	0xf3
 14804 0479 01       		.uleb128 0x1
 14805 047a 50       		.byte	0x50
 14806 047b 9F       		.byte	0x9f
 14807 047c 5C000000 		.4byte	.LVL126
 14808 0480 6C000000 		.4byte	.LFE293
 14809 0484 0100     		.2byte	0x1
 14810 0486 50       		.byte	0x50
 14811 0487 00000000 		.4byte	0
 14812 048b 00000000 		.4byte	0
 14813              	.LLST16:
 14814 048f 00000000 		.4byte	.LVL119
 14815 0493 16000000 		.4byte	.LVL120
 14816 0497 0200     		.2byte	0x2
 14817 0499 30       		.byte	0x30
 14818 049a 9F       		.byte	0x9f
 14819 049b 16000000 		.4byte	.LVL120
 14820 049f 1E000000 		.4byte	.LVL121
 14821 04a3 0100     		.2byte	0x1
 14822 04a5 50       		.byte	0x50
 14823 04a6 40000000 		.4byte	.LVL122
 14824 04aa 44000000 		.4byte	.LVL123
 14825 04ae 0200     		.2byte	0x2
 14826 04b0 30       		.byte	0x30
 14827 04b1 9F       		.byte	0x9f
 14828 04b2 44000000 		.4byte	.LVL123
 14829 04b6 4E000000 		.4byte	.LVL124
 14830 04ba 0100     		.2byte	0x1
 14831 04bc 50       		.byte	0x50
 14832 04bd 4E000000 		.4byte	.LVL124
 14833 04c1 52000000 		.4byte	.LVL125
 14834 04c5 0200     		.2byte	0x2
 14835 04c7 30       		.byte	0x30
 14836 04c8 9F       		.byte	0x9f
 14837 04c9 52000000 		.4byte	.LVL125
 14838 04cd 5C000000 		.4byte	.LVL126
 14839 04d1 0100     		.2byte	0x1
 14840 04d3 50       		.byte	0x50
 14841 04d4 5C000000 		.4byte	.LVL126
 14842 04d8 6C000000 		.4byte	.LFE293
ARM GAS  /var/folders/sv/kgmgr77579zbf78p2zlhkdfr0000gn/T//ccOxe4My.s 			page 263


 14843 04dc 0200     		.2byte	0x2
 14844 04de 30       		.byte	0x30
 14845 04df 9F       		.byte	0x9f
 14846 04e0 00000000 		.4byte	0
 14847 04e4 00000000 		.4byte	0
 14848              	.LLST17:
 14849 04e8 00000000 		.4byte	.LVL127
 14850 04ec 09000000 		.4byte	.LVL128-1
 14851 04f0 0100     		.2byte	0x1
 14852 04f2 50       		.byte	0x50
 14853 04f3 09000000 		.4byte	.LVL128-1
 14854 04f7 50010000 		.4byte	.LFE317
 14855 04fb 0400     		.2byte	0x4
 14856 04fd F3       		.byte	0xf3
 14857 04fe 01       		.uleb128 0x1
 14858 04ff 50       		.byte	0x50
 14859 0500 9F       		.byte	0x9f
 14860 0501 00000000 		.4byte	0
 14861 0505 00000000 		.4byte	0
 14862              	.LLST18:
 14863 0509 3E000000 		.4byte	.LVL143
 14864 050d D4020000 		.4byte	.LVL193
 14865 0511 0200     		.2byte	0x2
 14866 0513 90       		.byte	0x90
 14867 0514 50       		.uleb128 0x50
 14868 0515 E2020000 		.4byte	.LVL194
 14869 0519 DC050000 		.4byte	.LFE318
 14870 051d 0200     		.2byte	0x2
 14871 051f 90       		.byte	0x90
 14872 0520 50       		.uleb128 0x50
 14873 0521 00000000 		.4byte	0
 14874 0525 00000000 		.4byte	0
 14875              	.LLST19:
 14876 0529 5A000000 		.4byte	.LVL145
 14877 052d 5E000000 		.4byte	.LVL146
 14878 0531 0200     		.2byte	0x2
 14879 0533 90       		.byte	0x90
 14880 0534 40       		.uleb128 0x40
 14881 0535 5E000000 		.4byte	.LVL146
 14882 0539 F8010000 		.4byte	.LVL170
 14883 053d 0200     		.2byte	0x2
 14884 053f 90       		.byte	0x90
 14885 0540 52       		.uleb128 0x52
 14886 0541 E2020000 		.4byte	.LVL194
 14887 0545 1E030000 		.4byte	.LVL198
 14888 0549 0200     		.2byte	0x2
 14889 054b 90       		.byte	0x90
 14890 054c 52       		.uleb128 0x52
 14891 054d 20030000 		.4byte	.LVL199
 14892 0551 EE040000 		.4byte	.LVL222
 14893 0555 0200     		.2byte	0x2
 14894 0557 90       		.byte	0x90
 14895 0558 52       		.uleb128 0x52
 14896 0559 12050000 		.4byte	.LVL228
 14897 055d 26050000 		.4byte	.LVL230
 14898 0561 0200     		.2byte	0x2
 14899 0563 90       		.byte	0x90
ARM GAS  /var/folders/sv/kgmgr77579zbf78p2zlhkdfr0000gn/T//ccOxe4My.s 			page 264


 14900 0564 52       		.uleb128 0x52
 14901 0565 28050000 		.4byte	.LVL231
 14902 0569 DC050000 		.4byte	.LFE318
 14903 056d 0200     		.2byte	0x2
 14904 056f 90       		.byte	0x90
 14905 0570 52       		.uleb128 0x52
 14906 0571 00000000 		.4byte	0
 14907 0575 00000000 		.4byte	0
 14908              	.LLST20:
 14909 0579 DA000000 		.4byte	.LVL149
 14910 057d F6000000 		.4byte	.LVL151
 14911 0581 0600     		.2byte	0x6
 14912 0583 9E       		.byte	0x9e
 14913 0584 04       		.uleb128 0x4
 14914 0585 00000000 		.4byte	0
 14915 0589 F6000000 		.4byte	.LVL151
 14916 058d 0C020000 		.4byte	.LVL172
 14917 0591 0200     		.2byte	0x2
 14918 0593 90       		.byte	0x90
 14919 0594 54       		.uleb128 0x54
 14920 0595 E2020000 		.4byte	.LVL194
 14921 0599 0E030000 		.4byte	.LVL197
 14922 059d 0600     		.2byte	0x6
 14923 059f 9E       		.byte	0x9e
 14924 05a0 04       		.uleb128 0x4
 14925 05a1 00000000 		.4byte	0
 14926 05a5 0E030000 		.4byte	.LVL197
 14927 05a9 C8030000 		.4byte	.LVL208
 14928 05ad 0200     		.2byte	0x2
 14929 05af 90       		.byte	0x90
 14930 05b0 54       		.uleb128 0x54
 14931 05b1 C8030000 		.4byte	.LVL208
 14932 05b5 34040000 		.4byte	.LVL213
 14933 05b9 0600     		.2byte	0x6
 14934 05bb 9E       		.byte	0x9e
 14935 05bc 04       		.uleb128 0x4
 14936 05bd 00000000 		.4byte	0
 14937 05c1 34040000 		.4byte	.LVL213
 14938 05c5 EE040000 		.4byte	.LVL222
 14939 05c9 0200     		.2byte	0x2
 14940 05cb 90       		.byte	0x90
 14941 05cc 54       		.uleb128 0x54
 14942 05cd 12050000 		.4byte	.LVL228
 14943 05d1 7A050000 		.4byte	.LVL241
 14944 05d5 0200     		.2byte	0x2
 14945 05d7 90       		.byte	0x90
 14946 05d8 54       		.uleb128 0x54
 14947 05d9 7A050000 		.4byte	.LVL241
 14948 05dd 80050000 		.4byte	.LVL242
 14949 05e1 0600     		.2byte	0x6
 14950 05e3 9E       		.byte	0x9e
 14951 05e4 04       		.uleb128 0x4
 14952 05e5 00000000 		.4byte	0
 14953 05e9 80050000 		.4byte	.LVL242
 14954 05ed B2050000 		.4byte	.LVL245
 14955 05f1 0200     		.2byte	0x2
 14956 05f3 90       		.byte	0x90
ARM GAS  /var/folders/sv/kgmgr77579zbf78p2zlhkdfr0000gn/T//ccOxe4My.s 			page 265


 14957 05f4 54       		.uleb128 0x54
 14958 05f5 B2050000 		.4byte	.LVL245
 14959 05f9 C4050000 		.4byte	.LVL246
 14960 05fd 0600     		.2byte	0x6
 14961 05ff 9E       		.byte	0x9e
 14962 0600 04       		.uleb128 0x4
 14963 0601 00000000 		.4byte	0
 14964 0605 C4050000 		.4byte	.LVL246
 14965 0609 DC050000 		.4byte	.LFE318
 14966 060d 0200     		.2byte	0x2
 14967 060f 90       		.byte	0x90
 14968 0610 54       		.uleb128 0x54
 14969 0611 00000000 		.4byte	0
 14970 0615 00000000 		.4byte	0
 14971              	.LLST21:
 14972 0619 DA000000 		.4byte	.LVL149
 14973 061d F2000000 		.4byte	.LVL150
 14974 0621 0600     		.2byte	0x6
 14975 0623 9E       		.byte	0x9e
 14976 0624 04       		.uleb128 0x4
 14977 0625 00000000 		.4byte	0
 14978 0629 F2000000 		.4byte	.LVL150
 14979 062d 1C020000 		.4byte	.LVL175
 14980 0631 0200     		.2byte	0x2
 14981 0633 90       		.byte	0x90
 14982 0634 51       		.uleb128 0x51
 14983 0635 E2020000 		.4byte	.LVL194
 14984 0639 0E030000 		.4byte	.LVL197
 14985 063d 0600     		.2byte	0x6
 14986 063f 9E       		.byte	0x9e
 14987 0640 04       		.uleb128 0x4
 14988 0641 00000000 		.4byte	0
 14989 0645 0E030000 		.4byte	.LVL197
 14990 0649 C8030000 		.4byte	.LVL208
 14991 064d 0200     		.2byte	0x2
 14992 064f 90       		.byte	0x90
 14993 0650 51       		.uleb128 0x51
 14994 0651 C8030000 		.4byte	.LVL208
 14995 0655 68040000 		.4byte	.LVL214
 14996 0659 0600     		.2byte	0x6
 14997 065b 9E       		.byte	0x9e
 14998 065c 04       		.uleb128 0x4
 14999 065d 00000000 		.4byte	0
 15000 0661 68040000 		.4byte	.LVL214
 15001 0665 EE040000 		.4byte	.LVL222
 15002 0669 0200     		.2byte	0x2
 15003 066b 90       		.byte	0x90
 15004 066c 51       		.uleb128 0x51
 15005 066d 12050000 		.4byte	.LVL228
 15006 0671 7A050000 		.4byte	.LVL241
 15007 0675 0200     		.2byte	0x2
 15008 0677 90       		.byte	0x90
 15009 0678 51       		.uleb128 0x51
 15010 0679 7A050000 		.4byte	.LVL241
 15011 067d 80050000 		.4byte	.LVL242
 15012 0681 0600     		.2byte	0x6
 15013 0683 9E       		.byte	0x9e
ARM GAS  /var/folders/sv/kgmgr77579zbf78p2zlhkdfr0000gn/T//ccOxe4My.s 			page 266


 15014 0684 04       		.uleb128 0x4
 15015 0685 00000000 		.4byte	0
 15016 0689 80050000 		.4byte	.LVL242
 15017 068d B2050000 		.4byte	.LVL245
 15018 0691 0200     		.2byte	0x2
 15019 0693 90       		.byte	0x90
 15020 0694 51       		.uleb128 0x51
 15021 0695 B2050000 		.4byte	.LVL245
 15022 0699 C4050000 		.4byte	.LVL246
 15023 069d 0600     		.2byte	0x6
 15024 069f 9E       		.byte	0x9e
 15025 06a0 04       		.uleb128 0x4
 15026 06a1 00000000 		.4byte	0
 15027 06a5 C4050000 		.4byte	.LVL246
 15028 06a9 CA050000 		.4byte	.LVL247
 15029 06ad 0200     		.2byte	0x2
 15030 06af 90       		.byte	0x90
 15031 06b0 51       		.uleb128 0x51
 15032 06b1 CA050000 		.4byte	.LVL247
 15033 06b5 DC050000 		.4byte	.LFE318
 15034 06b9 0600     		.2byte	0x6
 15035 06bb 9E       		.byte	0x9e
 15036 06bc 04       		.uleb128 0x4
 15037 06bd 00000000 		.4byte	0
 15038 06c1 00000000 		.4byte	0
 15039 06c5 00000000 		.4byte	0
 15040              	.LLST22:
 15041 06c9 F6000000 		.4byte	.LVL151
 15042 06cd 16010000 		.4byte	.LVL153
 15043 06d1 0600     		.2byte	0x6
 15044 06d3 9E       		.byte	0x9e
 15045 06d4 04       		.uleb128 0x4
 15046 06d5 00000000 		.4byte	0
 15047 06d9 16010000 		.4byte	.LVL153
 15048 06dd E2020000 		.4byte	.LVL194
 15049 06e1 0200     		.2byte	0x2
 15050 06e3 90       		.byte	0x90
 15051 06e4 55       		.uleb128 0x55
 15052 06e5 0E030000 		.4byte	.LVL197
 15053 06e9 5E030000 		.4byte	.LVL205
 15054 06ed 0200     		.2byte	0x2
 15055 06ef 90       		.byte	0x90
 15056 06f0 55       		.uleb128 0x55
 15057 06f1 5E030000 		.4byte	.LVL205
 15058 06f5 C8030000 		.4byte	.LVL208
 15059 06f9 0600     		.2byte	0x6
 15060 06fb 9E       		.byte	0x9e
 15061 06fc 04       		.uleb128 0x4
 15062 06fd 00000000 		.4byte	0
 15063 0701 6A040000 		.4byte	.LVL215
 15064 0705 BA040000 		.4byte	.LVL220
 15065 0709 0600     		.2byte	0x6
 15066 070b 9E       		.byte	0x9e
 15067 070c 04       		.uleb128 0x4
 15068 070d 00000000 		.4byte	0
 15069 0711 BA040000 		.4byte	.LVL220
 15070 0715 7A050000 		.4byte	.LVL241
ARM GAS  /var/folders/sv/kgmgr77579zbf78p2zlhkdfr0000gn/T//ccOxe4My.s 			page 267


 15071 0719 0200     		.2byte	0x2
 15072 071b 90       		.byte	0x90
 15073 071c 55       		.uleb128 0x55
 15074 071d 80050000 		.4byte	.LVL242
 15075 0721 9E050000 		.4byte	.LVL243
 15076 0725 0600     		.2byte	0x6
 15077 0727 9E       		.byte	0x9e
 15078 0728 04       		.uleb128 0x4
 15079 0729 00000000 		.4byte	0
 15080 072d 9E050000 		.4byte	.LVL243
 15081 0731 A0050000 		.4byte	.LVL244
 15082 0735 0200     		.2byte	0x2
 15083 0737 90       		.byte	0x90
 15084 0738 55       		.uleb128 0x55
 15085 0739 A0050000 		.4byte	.LVL244
 15086 073d B2050000 		.4byte	.LVL245
 15087 0741 0600     		.2byte	0x6
 15088 0743 9E       		.byte	0x9e
 15089 0744 04       		.uleb128 0x4
 15090 0745 00000000 		.4byte	0
 15091 0749 C4050000 		.4byte	.LVL246
 15092 074d CA050000 		.4byte	.LVL247
 15093 0751 0200     		.2byte	0x2
 15094 0753 90       		.byte	0x90
 15095 0754 55       		.uleb128 0x55
 15096 0755 00000000 		.4byte	0
 15097 0759 00000000 		.4byte	0
 15098              	.LLST23:
 15099 075d F6000000 		.4byte	.LVL151
 15100 0761 12010000 		.4byte	.LVL152
 15101 0765 0600     		.2byte	0x6
 15102 0767 9E       		.byte	0x9e
 15103 0768 04       		.uleb128 0x4
 15104 0769 00000000 		.4byte	0
 15105 076d 12010000 		.4byte	.LVL152
 15106 0771 E2020000 		.4byte	.LVL194
 15107 0775 0200     		.2byte	0x2
 15108 0777 90       		.byte	0x90
 15109 0778 53       		.uleb128 0x53
 15110 0779 0E030000 		.4byte	.LVL197
 15111 077d 5E030000 		.4byte	.LVL205
 15112 0781 0200     		.2byte	0x2
 15113 0783 90       		.byte	0x90
 15114 0784 53       		.uleb128 0x53
 15115 0785 5E030000 		.4byte	.LVL205
 15116 0789 C8030000 		.4byte	.LVL208
 15117 078d 0600     		.2byte	0x6
 15118 078f 9E       		.byte	0x9e
 15119 0790 04       		.uleb128 0x4
 15120 0791 00000000 		.4byte	0
 15121 0795 6A040000 		.4byte	.LVL215
 15122 0799 EC040000 		.4byte	.LVL221
 15123 079d 0600     		.2byte	0x6
 15124 079f 9E       		.byte	0x9e
 15125 07a0 04       		.uleb128 0x4
 15126 07a1 00000000 		.4byte	0
 15127 07a5 EC040000 		.4byte	.LVL221
ARM GAS  /var/folders/sv/kgmgr77579zbf78p2zlhkdfr0000gn/T//ccOxe4My.s 			page 268


 15128 07a9 7A050000 		.4byte	.LVL241
 15129 07ad 0200     		.2byte	0x2
 15130 07af 90       		.byte	0x90
 15131 07b0 53       		.uleb128 0x53
 15132 07b1 80050000 		.4byte	.LVL242
 15133 07b5 B2050000 		.4byte	.LVL245
 15134 07b9 0600     		.2byte	0x6
 15135 07bb 9E       		.byte	0x9e
 15136 07bc 04       		.uleb128 0x4
 15137 07bd 00000000 		.4byte	0
 15138 07c1 C4050000 		.4byte	.LVL246
 15139 07c5 CA050000 		.4byte	.LVL247
 15140 07c9 0600     		.2byte	0x6
 15141 07cb 9E       		.byte	0x9e
 15142 07cc 04       		.uleb128 0x4
 15143 07cd 00000000 		.4byte	0
 15144 07d1 00000000 		.4byte	0
 15145 07d5 00000000 		.4byte	0
 15146              	.LLST24:
 15147 07d9 38010000 		.4byte	.LVL155
 15148 07dd 40010000 		.4byte	.LVL156
 15149 07e1 0200     		.2byte	0x2
 15150 07e3 90       		.byte	0x90
 15151 07e4 40       		.uleb128 0x40
 15152 07e5 40010000 		.4byte	.LVL156
 15153 07e9 9E010000 		.4byte	.LVL165
 15154 07ed 0200     		.2byte	0x2
 15155 07ef 90       		.byte	0x90
 15156 07f0 57       		.uleb128 0x57
 15157 07f1 48030000 		.4byte	.LVL203
 15158 07f5 5C030000 		.4byte	.LVL204
 15159 07f9 0200     		.2byte	0x2
 15160 07fb 90       		.byte	0x90
 15161 07fc 57       		.uleb128 0x57
 15162 07fd 5C050000 		.4byte	.LVL237
 15163 0801 78050000 		.4byte	.LVL240
 15164 0805 0200     		.2byte	0x2
 15165 0807 90       		.byte	0x90
 15166 0808 57       		.uleb128 0x57
 15167 0809 00000000 		.4byte	0
 15168 080d 00000000 		.4byte	0
 15169              	.LLST25:
 15170 0811 5C010000 		.4byte	.LVL158
 15171 0815 60010000 		.4byte	.LVL159
 15172 0819 0200     		.2byte	0x2
 15173 081b 90       		.byte	0x90
 15174 081c 40       		.uleb128 0x40
 15175 081d 60010000 		.4byte	.LVL159
 15176 0821 E2020000 		.4byte	.LVL194
 15177 0825 0200     		.2byte	0x2
 15178 0827 90       		.byte	0x90
 15179 0828 59       		.uleb128 0x59
 15180 0829 0E030000 		.4byte	.LVL197
 15181 082d 5E030000 		.4byte	.LVL205
 15182 0831 0200     		.2byte	0x2
 15183 0833 90       		.byte	0x90
 15184 0834 59       		.uleb128 0x59
ARM GAS  /var/folders/sv/kgmgr77579zbf78p2zlhkdfr0000gn/T//ccOxe4My.s 			page 269


 15185 0835 EE040000 		.4byte	.LVL222
 15186 0839 7A050000 		.4byte	.LVL241
 15187 083d 0200     		.2byte	0x2
 15188 083f 90       		.byte	0x90
 15189 0840 59       		.uleb128 0x59
 15190 0841 00000000 		.4byte	0
 15191 0845 00000000 		.4byte	0
 15192              	.LLST26:
 15193 0849 70010000 		.4byte	.LVL161
 15194 084d 78010000 		.4byte	.LVL162
 15195 0851 0200     		.2byte	0x2
 15196 0853 90       		.byte	0x90
 15197 0854 40       		.uleb128 0x40
 15198 0855 78010000 		.4byte	.LVL162
 15199 0859 B4010000 		.4byte	.LVL166
 15200 085d 0200     		.2byte	0x2
 15201 085f 90       		.byte	0x90
 15202 0860 56       		.uleb128 0x56
 15203 0861 32030000 		.4byte	.LVL201
 15204 0865 46030000 		.4byte	.LVL202
 15205 0869 0200     		.2byte	0x2
 15206 086b 90       		.byte	0x90
 15207 086c 56       		.uleb128 0x56
 15208 086d 48030000 		.4byte	.LVL203
 15209 0871 5E030000 		.4byte	.LVL205
 15210 0875 0200     		.2byte	0x2
 15211 0877 90       		.byte	0x90
 15212 0878 56       		.uleb128 0x56
 15213 0879 3E050000 		.4byte	.LVL234
 15214 087d 5A050000 		.4byte	.LVL236
 15215 0881 0200     		.2byte	0x2
 15216 0883 90       		.byte	0x90
 15217 0884 56       		.uleb128 0x56
 15218 0885 5C050000 		.4byte	.LVL237
 15219 0889 7A050000 		.4byte	.LVL241
 15220 088d 0200     		.2byte	0x2
 15221 088f 90       		.byte	0x90
 15222 0890 56       		.uleb128 0x56
 15223 0891 00000000 		.4byte	0
 15224 0895 00000000 		.4byte	0
 15225              	.LLST27:
 15226 0899 96010000 		.4byte	.LVL164
 15227 089d 9E010000 		.4byte	.LVL165
 15228 08a1 0200     		.2byte	0x2
 15229 08a3 90       		.byte	0x90
 15230 08a4 40       		.uleb128 0x40
 15231 08a5 9E010000 		.4byte	.LVL165
 15232 08a9 D6010000 		.4byte	.LVL168
 15233 08ad 0200     		.2byte	0x2
 15234 08af 90       		.byte	0x90
 15235 08b0 58       		.uleb128 0x58
 15236 08b1 20030000 		.4byte	.LVL199
 15237 08b5 30030000 		.4byte	.LVL200
 15238 08b9 0200     		.2byte	0x2
 15239 08bb 90       		.byte	0x90
 15240 08bc 58       		.uleb128 0x58
 15241 08bd 32030000 		.4byte	.LVL201
ARM GAS  /var/folders/sv/kgmgr77579zbf78p2zlhkdfr0000gn/T//ccOxe4My.s 			page 270


 15242 08c1 48030000 		.4byte	.LVL203
 15243 08c5 0200     		.2byte	0x2
 15244 08c7 90       		.byte	0x90
 15245 08c8 58       		.uleb128 0x58
 15246 08c9 48030000 		.4byte	.LVL203
 15247 08cd 5E030000 		.4byte	.LVL205
 15248 08d1 0200     		.2byte	0x2
 15249 08d3 90       		.byte	0x90
 15250 08d4 40       		.uleb128 0x40
 15251 08d5 28050000 		.4byte	.LVL231
 15252 08d9 3C050000 		.4byte	.LVL233
 15253 08dd 0200     		.2byte	0x2
 15254 08df 90       		.byte	0x90
 15255 08e0 58       		.uleb128 0x58
 15256 08e1 3E050000 		.4byte	.LVL234
 15257 08e5 5C050000 		.4byte	.LVL237
 15258 08e9 0200     		.2byte	0x2
 15259 08eb 90       		.byte	0x90
 15260 08ec 58       		.uleb128 0x58
 15261 08ed 5C050000 		.4byte	.LVL237
 15262 08f1 60050000 		.4byte	.LVL238
 15263 08f5 0200     		.2byte	0x2
 15264 08f7 90       		.byte	0x90
 15265 08f8 40       		.uleb128 0x40
 15266 08f9 60050000 		.4byte	.LVL238
 15267 08fd 7A050000 		.4byte	.LVL241
 15268 0901 0200     		.2byte	0x2
 15269 0903 90       		.byte	0x90
 15270 0904 58       		.uleb128 0x58
 15271 0905 00000000 		.4byte	0
 15272 0909 00000000 		.4byte	0
 15273              	.LLST28:
 15274 090d 96010000 		.4byte	.LVL164
 15275 0911 9E010000 		.4byte	.LVL165
 15276 0915 0600     		.2byte	0x6
 15277 0917 9E       		.byte	0x9e
 15278 0918 04       		.uleb128 0x4
 15279 0919 00000000 		.4byte	0
 15280 091d 9E010000 		.4byte	.LVL165
 15281 0921 E2020000 		.4byte	.LVL194
 15282 0925 0200     		.2byte	0x2
 15283 0927 90       		.byte	0x90
 15284 0928 57       		.uleb128 0x57
 15285 0929 0E030000 		.4byte	.LVL197
 15286 092d 48030000 		.4byte	.LVL203
 15287 0931 0200     		.2byte	0x2
 15288 0933 90       		.byte	0x90
 15289 0934 57       		.uleb128 0x57
 15290 0935 48030000 		.4byte	.LVL203
 15291 0939 5E030000 		.4byte	.LVL205
 15292 093d 0600     		.2byte	0x6
 15293 093f 9E       		.byte	0x9e
 15294 0940 04       		.uleb128 0x4
 15295 0941 00000000 		.4byte	0
 15296 0945 EE040000 		.4byte	.LVL222
 15297 0949 5C050000 		.4byte	.LVL237
 15298 094d 0200     		.2byte	0x2
ARM GAS  /var/folders/sv/kgmgr77579zbf78p2zlhkdfr0000gn/T//ccOxe4My.s 			page 271


 15299 094f 90       		.byte	0x90
 15300 0950 57       		.uleb128 0x57
 15301 0951 5C050000 		.4byte	.LVL237
 15302 0955 78050000 		.4byte	.LVL240
 15303 0959 0600     		.2byte	0x6
 15304 095b 9E       		.byte	0x9e
 15305 095c 04       		.uleb128 0x4
 15306 095d 00000000 		.4byte	0
 15307 0961 78050000 		.4byte	.LVL240
 15308 0965 7A050000 		.4byte	.LVL241
 15309 0969 0200     		.2byte	0x2
 15310 096b 90       		.byte	0x90
 15311 096c 40       		.uleb128 0x40
 15312 096d 00000000 		.4byte	0
 15313 0971 00000000 		.4byte	0
 15314              	.LLST29:
 15315 0975 9E010000 		.4byte	.LVL165
 15316 0979 B4010000 		.4byte	.LVL166
 15317 097d 0600     		.2byte	0x6
 15318 097f 9E       		.byte	0x9e
 15319 0980 04       		.uleb128 0x4
 15320 0981 00000000 		.4byte	0
 15321 0985 B4010000 		.4byte	.LVL166
 15322 0989 D4020000 		.4byte	.LVL193
 15323 098d 0200     		.2byte	0x2
 15324 098f 90       		.byte	0x90
 15325 0990 56       		.uleb128 0x56
 15326 0991 0E030000 		.4byte	.LVL197
 15327 0995 32030000 		.4byte	.LVL201
 15328 0999 0200     		.2byte	0x2
 15329 099b 90       		.byte	0x90
 15330 099c 56       		.uleb128 0x56
 15331 099d 32030000 		.4byte	.LVL201
 15332 09a1 48030000 		.4byte	.LVL203
 15333 09a5 0600     		.2byte	0x6
 15334 09a7 9E       		.byte	0x9e
 15335 09a8 04       		.uleb128 0x4
 15336 09a9 00000000 		.4byte	0
 15337 09ad EE040000 		.4byte	.LVL222
 15338 09b1 3E050000 		.4byte	.LVL234
 15339 09b5 0200     		.2byte	0x2
 15340 09b7 90       		.byte	0x90
 15341 09b8 56       		.uleb128 0x56
 15342 09b9 3E050000 		.4byte	.LVL234
 15343 09bd 5A050000 		.4byte	.LVL236
 15344 09c1 0600     		.2byte	0x6
 15345 09c3 9E       		.byte	0x9e
 15346 09c4 04       		.uleb128 0x4
 15347 09c5 00000000 		.4byte	0
 15348 09c9 5A050000 		.4byte	.LVL236
 15349 09cd 5C050000 		.4byte	.LVL237
 15350 09d1 0200     		.2byte	0x2
 15351 09d3 90       		.byte	0x90
 15352 09d4 40       		.uleb128 0x40
 15353 09d5 00000000 		.4byte	0
 15354 09d9 00000000 		.4byte	0
 15355              	.LLST30:
ARM GAS  /var/folders/sv/kgmgr77579zbf78p2zlhkdfr0000gn/T//ccOxe4My.s 			page 272


 15356 09dd B4010000 		.4byte	.LVL166
 15357 09e1 D6010000 		.4byte	.LVL168
 15358 09e5 0600     		.2byte	0x6
 15359 09e7 9E       		.byte	0x9e
 15360 09e8 04       		.uleb128 0x4
 15361 09e9 00000000 		.4byte	0
 15362 09ed D6010000 		.4byte	.LVL168
 15363 09f1 D4020000 		.4byte	.LVL193
 15364 09f5 0200     		.2byte	0x2
 15365 09f7 90       		.byte	0x90
 15366 09f8 58       		.uleb128 0x58
 15367 09f9 0E030000 		.4byte	.LVL197
 15368 09fd 20030000 		.4byte	.LVL199
 15369 0a01 0200     		.2byte	0x2
 15370 0a03 90       		.byte	0x90
 15371 0a04 58       		.uleb128 0x58
 15372 0a05 20030000 		.4byte	.LVL199
 15373 0a09 32030000 		.4byte	.LVL201
 15374 0a0d 0600     		.2byte	0x6
 15375 0a0f 9E       		.byte	0x9e
 15376 0a10 04       		.uleb128 0x4
 15377 0a11 00000000 		.4byte	0
 15378 0a15 EE040000 		.4byte	.LVL222
 15379 0a19 28050000 		.4byte	.LVL231
 15380 0a1d 0200     		.2byte	0x2
 15381 0a1f 90       		.byte	0x90
 15382 0a20 58       		.uleb128 0x58
 15383 0a21 28050000 		.4byte	.LVL231
 15384 0a25 3C050000 		.4byte	.LVL233
 15385 0a29 0600     		.2byte	0x6
 15386 0a2b 9E       		.byte	0x9e
 15387 0a2c 04       		.uleb128 0x4
 15388 0a2d 00000000 		.4byte	0
 15389 0a31 3C050000 		.4byte	.LVL233
 15390 0a35 3E050000 		.4byte	.LVL234
 15391 0a39 0200     		.2byte	0x2
 15392 0a3b 90       		.byte	0x90
 15393 0a3c 40       		.uleb128 0x40
 15394 0a3d 00000000 		.4byte	0
 15395 0a41 00000000 		.4byte	0
 15396              	.LLST31:
 15397 0a45 C6010000 		.4byte	.LVL167
 15398 0a49 D6010000 		.4byte	.LVL168
 15399 0a4d 0200     		.2byte	0x2
 15400 0a4f 90       		.byte	0x90
 15401 0a50 41       		.uleb128 0x41
 15402 0a51 20030000 		.4byte	.LVL199
 15403 0a55 32030000 		.4byte	.LVL201
 15404 0a59 0200     		.2byte	0x2
 15405 0a5b 90       		.byte	0x90
 15406 0a5c 41       		.uleb128 0x41
 15407 0a5d 28050000 		.4byte	.LVL231
 15408 0a61 37050000 		.4byte	.LVL232-1
 15409 0a65 0200     		.2byte	0x2
 15410 0a67 90       		.byte	0x90
 15411 0a68 41       		.uleb128 0x41
 15412 0a69 00000000 		.4byte	0
ARM GAS  /var/folders/sv/kgmgr77579zbf78p2zlhkdfr0000gn/T//ccOxe4My.s 			page 273


 15413 0a6d 00000000 		.4byte	0
 15414              	.LLST32:
 15415 0a71 C6010000 		.4byte	.LVL167
 15416 0a75 D6010000 		.4byte	.LVL168
 15417 0a79 0200     		.2byte	0x2
 15418 0a7b 90       		.byte	0x90
 15419 0a7c 42       		.uleb128 0x42
 15420 0a7d 20030000 		.4byte	.LVL199
 15421 0a81 32030000 		.4byte	.LVL201
 15422 0a85 0200     		.2byte	0x2
 15423 0a87 90       		.byte	0x90
 15424 0a88 42       		.uleb128 0x42
 15425 0a89 28050000 		.4byte	.LVL231
 15426 0a8d 37050000 		.4byte	.LVL232-1
 15427 0a91 0200     		.2byte	0x2
 15428 0a93 90       		.byte	0x90
 15429 0a94 42       		.uleb128 0x42
 15430 0a95 00000000 		.4byte	0
 15431 0a99 00000000 		.4byte	0
 15432              	.LLST33:
 15433 0a9d D6010000 		.4byte	.LVL168
 15434 0aa1 F8010000 		.4byte	.LVL170
 15435 0aa5 0600     		.2byte	0x6
 15436 0aa7 9E       		.byte	0x9e
 15437 0aa8 04       		.uleb128 0x4
 15438 0aa9 00000000 		.4byte	0
 15439 0aad F8010000 		.4byte	.LVL170
 15440 0ab1 D4020000 		.4byte	.LVL193
 15441 0ab5 0200     		.2byte	0x2
 15442 0ab7 90       		.byte	0x90
 15443 0ab8 52       		.uleb128 0x52
 15444 0ab9 0E030000 		.4byte	.LVL197
 15445 0abd 20030000 		.4byte	.LVL199
 15446 0ac1 0600     		.2byte	0x6
 15447 0ac3 9E       		.byte	0x9e
 15448 0ac4 04       		.uleb128 0x4
 15449 0ac5 00000000 		.4byte	0
 15450 0ac9 EE040000 		.4byte	.LVL222
 15451 0acd 12050000 		.4byte	.LVL228
 15452 0ad1 0200     		.2byte	0x2
 15453 0ad3 90       		.byte	0x90
 15454 0ad4 52       		.uleb128 0x52
 15455 0ad5 12050000 		.4byte	.LVL228
 15456 0ad9 26050000 		.4byte	.LVL230
 15457 0add 0600     		.2byte	0x6
 15458 0adf 9E       		.byte	0x9e
 15459 0ae0 04       		.uleb128 0x4
 15460 0ae1 00000000 		.4byte	0
 15461 0ae5 26050000 		.4byte	.LVL230
 15462 0ae9 28050000 		.4byte	.LVL231
 15463 0aed 0200     		.2byte	0x2
 15464 0aef 90       		.byte	0x90
 15465 0af0 40       		.uleb128 0x40
 15466 0af1 00000000 		.4byte	0
 15467 0af5 00000000 		.4byte	0
 15468              	.LLST34:
 15469 0af9 E8010000 		.4byte	.LVL169
ARM GAS  /var/folders/sv/kgmgr77579zbf78p2zlhkdfr0000gn/T//ccOxe4My.s 			page 274


 15470 0afd F8010000 		.4byte	.LVL170
 15471 0b01 0200     		.2byte	0x2
 15472 0b03 90       		.byte	0x90
 15473 0b04 41       		.uleb128 0x41
 15474 0b05 0E030000 		.4byte	.LVL197
 15475 0b09 20030000 		.4byte	.LVL199
 15476 0b0d 0200     		.2byte	0x2
 15477 0b0f 90       		.byte	0x90
 15478 0b10 41       		.uleb128 0x41
 15479 0b11 12050000 		.4byte	.LVL228
 15480 0b15 21050000 		.4byte	.LVL229-1
 15481 0b19 0200     		.2byte	0x2
 15482 0b1b 90       		.byte	0x90
 15483 0b1c 41       		.uleb128 0x41
 15484 0b1d 00000000 		.4byte	0
 15485 0b21 00000000 		.4byte	0
 15486              	.LLST35:
 15487 0b25 E8010000 		.4byte	.LVL169
 15488 0b29 F8010000 		.4byte	.LVL170
 15489 0b2d 0200     		.2byte	0x2
 15490 0b2f 90       		.byte	0x90
 15491 0b30 42       		.uleb128 0x42
 15492 0b31 0E030000 		.4byte	.LVL197
 15493 0b35 20030000 		.4byte	.LVL199
 15494 0b39 0200     		.2byte	0x2
 15495 0b3b 90       		.byte	0x90
 15496 0b3c 42       		.uleb128 0x42
 15497 0b3d 12050000 		.4byte	.LVL228
 15498 0b41 21050000 		.4byte	.LVL229-1
 15499 0b45 0200     		.2byte	0x2
 15500 0b47 90       		.byte	0x90
 15501 0b48 42       		.uleb128 0x42
 15502 0b49 00000000 		.4byte	0
 15503 0b4d 00000000 		.4byte	0
 15504              	.LLST36:
 15505 0b51 0C020000 		.4byte	.LVL172
 15506 0b55 10020000 		.4byte	.LVL173
 15507 0b59 0200     		.2byte	0x2
 15508 0b5b 90       		.byte	0x90
 15509 0b5c 40       		.uleb128 0x40
 15510 0b5d 10020000 		.4byte	.LVL173
 15511 0b61 24020000 		.4byte	.LVL177
 15512 0b65 0200     		.2byte	0x2
 15513 0b67 90       		.byte	0x90
 15514 0b68 54       		.uleb128 0x54
 15515 0b69 24020000 		.4byte	.LVL177
 15516 0b6d 2B020000 		.4byte	.LVL178-1
 15517 0b71 0200     		.2byte	0x2
 15518 0b73 90       		.byte	0x90
 15519 0b74 40       		.uleb128 0x40
 15520 0b75 2C020000 		.4byte	.LVL178
 15521 0b79 33020000 		.4byte	.LVL179-1
 15522 0b7d 0200     		.2byte	0x2
 15523 0b7f 90       		.byte	0x90
 15524 0b80 40       		.uleb128 0x40
 15525 0b81 34020000 		.4byte	.LVL179
 15526 0b85 3B020000 		.4byte	.LVL180-1
ARM GAS  /var/folders/sv/kgmgr77579zbf78p2zlhkdfr0000gn/T//ccOxe4My.s 			page 275


 15527 0b89 0200     		.2byte	0x2
 15528 0b8b 90       		.byte	0x90
 15529 0b8c 40       		.uleb128 0x40
 15530 0b8d 3C020000 		.4byte	.LVL180
 15531 0b91 9C020000 		.4byte	.LVL185
 15532 0b95 0200     		.2byte	0x2
 15533 0b97 90       		.byte	0x90
 15534 0b98 40       		.uleb128 0x40
 15535 0b99 EE040000 		.4byte	.LVL222
 15536 0b9d 02050000 		.4byte	.LVL223
 15537 0ba1 0200     		.2byte	0x2
 15538 0ba3 90       		.byte	0x90
 15539 0ba4 40       		.uleb128 0x40
 15540 0ba5 0C050000 		.4byte	.LVL226
 15541 0ba9 12050000 		.4byte	.LVL228
 15542 0bad 0200     		.2byte	0x2
 15543 0baf 90       		.byte	0x90
 15544 0bb0 40       		.uleb128 0x40
 15545 0bb1 00000000 		.4byte	0
 15546 0bb5 00000000 		.4byte	0
 15547              	.LLST37:
 15548 0bb9 1C020000 		.4byte	.LVL175
 15549 0bbd 20020000 		.4byte	.LVL176
 15550 0bc1 0200     		.2byte	0x2
 15551 0bc3 90       		.byte	0x90
 15552 0bc4 40       		.uleb128 0x40
 15553 0bc5 20020000 		.4byte	.LVL176
 15554 0bc9 68020000 		.4byte	.LVL182
 15555 0bcd 0200     		.2byte	0x2
 15556 0bcf 90       		.byte	0x90
 15557 0bd0 51       		.uleb128 0x51
 15558 0bd1 72020000 		.4byte	.LVL183
 15559 0bd5 A8020000 		.4byte	.LVL187
 15560 0bd9 0200     		.2byte	0x2
 15561 0bdb 90       		.byte	0x90
 15562 0bdc 51       		.uleb128 0x51
 15563 0bdd EE040000 		.4byte	.LVL222
 15564 0be1 12050000 		.4byte	.LVL228
 15565 0be5 0200     		.2byte	0x2
 15566 0be7 90       		.byte	0x90
 15567 0be8 51       		.uleb128 0x51
 15568 0be9 00000000 		.4byte	0
 15569 0bed 00000000 		.4byte	0
 15570              	.LLST38:
 15571 0bf1 76020000 		.4byte	.LVL184
 15572 0bf5 9C020000 		.4byte	.LVL185
 15573 0bf9 0600     		.2byte	0x6
 15574 0bfb 9E       		.byte	0x9e
 15575 0bfc 04       		.uleb128 0x4
 15576 0bfd 00000000 		.4byte	0
 15577 0c01 9C020000 		.4byte	.LVL185
 15578 0c05 AF020000 		.4byte	.LVL189-1
 15579 0c09 0200     		.2byte	0x2
 15580 0c0b 90       		.byte	0x90
 15581 0c0c 41       		.uleb128 0x41
 15582 0c0d EE040000 		.4byte	.LVL222
 15583 0c11 0A050000 		.4byte	.LVL225
ARM GAS  /var/folders/sv/kgmgr77579zbf78p2zlhkdfr0000gn/T//ccOxe4My.s 			page 276


 15584 0c15 0600     		.2byte	0x6
 15585 0c17 9E       		.byte	0x9e
 15586 0c18 04       		.uleb128 0x4
 15587 0c19 00000000 		.4byte	0
 15588 0c1d 0A050000 		.4byte	.LVL225
 15589 0c21 0C050000 		.4byte	.LVL226
 15590 0c25 0200     		.2byte	0x2
 15591 0c27 90       		.byte	0x90
 15592 0c28 40       		.uleb128 0x40
 15593 0c29 0C050000 		.4byte	.LVL226
 15594 0c2d 10050000 		.4byte	.LVL227
 15595 0c31 0600     		.2byte	0x6
 15596 0c33 9E       		.byte	0x9e
 15597 0c34 04       		.uleb128 0x4
 15598 0c35 00000000 		.4byte	0
 15599 0c39 10050000 		.4byte	.LVL227
 15600 0c3d 12050000 		.4byte	.LVL228
 15601 0c41 0200     		.2byte	0x2
 15602 0c43 90       		.byte	0x90
 15603 0c44 41       		.uleb128 0x41
 15604 0c45 00000000 		.4byte	0
 15605 0c49 00000000 		.4byte	0
 15606              	.LLST39:
 15607 0c4d A0020000 		.4byte	.LVL186
 15608 0c51 AC020000 		.4byte	.LVL188
 15609 0c55 0800     		.2byte	0x8
 15610 0c57 F5       		.byte	0xf5
 15611 0c58 40       		.uleb128 0x40
 15612 0c59 25       		.uleb128 0x25
 15613 0c5a F5       		.byte	0xf5
 15614 0c5b 50       		.uleb128 0x50
 15615 0c5c 25       		.uleb128 0x25
 15616 0c5d 1B       		.byte	0x1b
 15617 0c5e 9F       		.byte	0x9f
 15618 0c5f AC020000 		.4byte	.LVL188
 15619 0c63 AF020000 		.4byte	.LVL189-1
 15620 0c67 0200     		.2byte	0x2
 15621 0c69 90       		.byte	0x90
 15622 0c6a 40       		.uleb128 0x40
 15623 0c6b 00000000 		.4byte	0
 15624 0c6f 00000000 		.4byte	0
 15625              	.LLST40:
 15626 0c73 A8020000 		.4byte	.LVL187
 15627 0c77 E2020000 		.4byte	.LVL194
 15628 0c7b 0200     		.2byte	0x2
 15629 0c7d 90       		.byte	0x90
 15630 0c7e 51       		.uleb128 0x51
 15631 0c7f 00000000 		.4byte	0
 15632 0c83 00000000 		.4byte	0
 15633              	.LLST41:
 15634 0c87 B0020000 		.4byte	.LVL189
 15635 0c8b BC020000 		.4byte	.LVL190
 15636 0c8f 0200     		.2byte	0x2
 15637 0c91 90       		.byte	0x90
 15638 0c92 40       		.uleb128 0x40
 15639 0c93 BC020000 		.4byte	.LVL190
 15640 0c97 BF020000 		.4byte	.LVL191-1
ARM GAS  /var/folders/sv/kgmgr77579zbf78p2zlhkdfr0000gn/T//ccOxe4My.s 			page 277


 15641 0c9b 0200     		.2byte	0x2
 15642 0c9d 90       		.byte	0x90
 15643 0c9e 41       		.uleb128 0x41
 15644 0c9f 00000000 		.4byte	0
 15645 0ca3 00000000 		.4byte	0
 15646              	.LLST42:
 15647 0ca7 B0020000 		.4byte	.LVL189
 15648 0cab E2020000 		.4byte	.LVL194
 15649 0caf 0200     		.2byte	0x2
 15650 0cb1 90       		.byte	0x90
 15651 0cb2 51       		.uleb128 0x51
 15652 0cb3 00000000 		.4byte	0
 15653 0cb7 00000000 		.4byte	0
 15654              	.LLST43:
 15655 0cbb F4020000 		.4byte	.LVL195
 15656 0cbf 0E030000 		.4byte	.LVL197
 15657 0cc3 0200     		.2byte	0x2
 15658 0cc5 35       		.byte	0x35
 15659 0cc6 9F       		.byte	0x9f
 15660 0cc7 B2050000 		.4byte	.LVL245
 15661 0ccb C4050000 		.4byte	.LVL246
 15662 0ccf 0200     		.2byte	0x2
 15663 0cd1 35       		.byte	0x35
 15664 0cd2 9F       		.byte	0x9f
 15665 0cd3 00000000 		.4byte	0
 15666 0cd7 00000000 		.4byte	0
 15667              	.LLST44:
 15668 0cdb 70030000 		.4byte	.LVL206
 15669 0cdf C8030000 		.4byte	.LVL208
 15670 0ce3 0200     		.2byte	0x2
 15671 0ce5 36       		.byte	0x36
 15672 0ce6 9F       		.byte	0x9f
 15673 0ce7 A0050000 		.4byte	.LVL244
 15674 0ceb B2050000 		.4byte	.LVL245
 15675 0cef 0200     		.2byte	0x2
 15676 0cf1 36       		.byte	0x36
 15677 0cf2 9F       		.byte	0x9f
 15678 0cf3 00000000 		.4byte	0
 15679 0cf7 00000000 		.4byte	0
 15680              	.LLST45:
 15681 0cfb DA030000 		.4byte	.LVL209
 15682 0cff EC030000 		.4byte	.LVL210
 15683 0d03 0200     		.2byte	0x2
 15684 0d05 90       		.byte	0x90
 15685 0d06 43       		.uleb128 0x43
 15686 0d07 FE030000 		.4byte	.LVL211
 15687 0d0b 01040000 		.4byte	.LVL212-1
 15688 0d0f 0200     		.2byte	0x2
 15689 0d11 90       		.byte	0x90
 15690 0d12 43       		.uleb128 0x43
 15691 0d13 02040000 		.4byte	.LVL212
 15692 0d17 6A040000 		.4byte	.LVL215
 15693 0d1b 0200     		.2byte	0x2
 15694 0d1d 90       		.byte	0x90
 15695 0d1e 40       		.uleb128 0x40
 15696 0d1f 7A050000 		.4byte	.LVL241
 15697 0d23 80050000 		.4byte	.LVL242
ARM GAS  /var/folders/sv/kgmgr77579zbf78p2zlhkdfr0000gn/T//ccOxe4My.s 			page 278


 15698 0d27 0200     		.2byte	0x2
 15699 0d29 90       		.byte	0x90
 15700 0d2a 40       		.uleb128 0x40
 15701 0d2b CA050000 		.4byte	.LVL247
 15702 0d2f DC050000 		.4byte	.LFE318
 15703 0d33 0200     		.2byte	0x2
 15704 0d35 90       		.byte	0x90
 15705 0d36 40       		.uleb128 0x40
 15706 0d37 00000000 		.4byte	0
 15707 0d3b 00000000 		.4byte	0
 15708              	.LLST46:
 15709 0d3f 7C040000 		.4byte	.LVL216
 15710 0d43 8E040000 		.4byte	.LVL217
 15711 0d47 0200     		.2byte	0x2
 15712 0d49 90       		.byte	0x90
 15713 0d4a 43       		.uleb128 0x43
 15714 0d4b A0040000 		.4byte	.LVL218
 15715 0d4f A3040000 		.4byte	.LVL219-1
 15716 0d53 0200     		.2byte	0x2
 15717 0d55 90       		.byte	0x90
 15718 0d56 43       		.uleb128 0x43
 15719 0d57 A4040000 		.4byte	.LVL219
 15720 0d5b EE040000 		.4byte	.LVL222
 15721 0d5f 0200     		.2byte	0x2
 15722 0d61 90       		.byte	0x90
 15723 0d62 40       		.uleb128 0x40
 15724 0d63 80050000 		.4byte	.LVL242
 15725 0d67 A0050000 		.4byte	.LVL244
 15726 0d6b 0200     		.2byte	0x2
 15727 0d6d 90       		.byte	0x90
 15728 0d6e 40       		.uleb128 0x40
 15729 0d6f C4050000 		.4byte	.LVL246
 15730 0d73 CA050000 		.4byte	.LVL247
 15731 0d77 0200     		.2byte	0x2
 15732 0d79 90       		.byte	0x90
 15733 0d7a 40       		.uleb128 0x40
 15734 0d7b 00000000 		.4byte	0
 15735 0d7f 00000000 		.4byte	0
 15736              	.LLST47:
 15737 0d83 00000000 		.4byte	.LVL248
 15738 0d87 15000000 		.4byte	.LVL249-1
 15739 0d8b 0100     		.2byte	0x1
 15740 0d8d 50       		.byte	0x50
 15741 0d8e 15000000 		.4byte	.LVL249-1
 15742 0d92 70000000 		.4byte	.LVL254
 15743 0d96 0100     		.2byte	0x1
 15744 0d98 55       		.byte	0x55
 15745 0d99 70000000 		.4byte	.LVL254
 15746 0d9d 74000000 		.4byte	.LVL255
 15747 0da1 0400     		.2byte	0x4
 15748 0da3 F3       		.byte	0xf3
 15749 0da4 01       		.uleb128 0x1
 15750 0da5 50       		.byte	0x50
 15751 0da6 9F       		.byte	0x9f
 15752 0da7 74000000 		.4byte	.LVL255
 15753 0dab 7A000000 		.4byte	.LVL256
 15754 0daf 0100     		.2byte	0x1
ARM GAS  /var/folders/sv/kgmgr77579zbf78p2zlhkdfr0000gn/T//ccOxe4My.s 			page 279


 15755 0db1 55       		.byte	0x55
 15756 0db2 7A000000 		.4byte	.LVL256
 15757 0db6 7E000000 		.4byte	.LVL257
 15758 0dba 0400     		.2byte	0x4
 15759 0dbc F3       		.byte	0xf3
 15760 0dbd 01       		.uleb128 0x1
 15761 0dbe 50       		.byte	0x50
 15762 0dbf 9F       		.byte	0x9f
 15763 0dc0 7E000000 		.4byte	.LVL257
 15764 0dc4 84000000 		.4byte	.LVL258
 15765 0dc8 0100     		.2byte	0x1
 15766 0dca 55       		.byte	0x55
 15767 0dcb 84000000 		.4byte	.LVL258
 15768 0dcf 88000000 		.4byte	.LVL259
 15769 0dd3 0400     		.2byte	0x4
 15770 0dd5 F3       		.byte	0xf3
 15771 0dd6 01       		.uleb128 0x1
 15772 0dd7 50       		.byte	0x50
 15773 0dd8 9F       		.byte	0x9f
 15774 0dd9 88000000 		.4byte	.LVL259
 15775 0ddd D0000000 		.4byte	.LFE258
 15776 0de1 0100     		.2byte	0x1
 15777 0de3 55       		.byte	0x55
 15778 0de4 00000000 		.4byte	0
 15779 0de8 00000000 		.4byte	0
 15780              	.LLST48:
 15781 0dec 00000000 		.4byte	.LVL268
 15782 0df0 18000000 		.4byte	.LVL269
 15783 0df4 0100     		.2byte	0x1
 15784 0df6 50       		.byte	0x50
 15785 0df7 18000000 		.4byte	.LVL269
 15786 0dfb 50000000 		.4byte	.LFE311
 15787 0dff 0400     		.2byte	0x4
 15788 0e01 F3       		.byte	0xf3
 15789 0e02 01       		.uleb128 0x1
 15790 0e03 50       		.byte	0x50
 15791 0e04 9F       		.byte	0x9f
 15792 0e05 00000000 		.4byte	0
 15793 0e09 00000000 		.4byte	0
 15794              	.LLST49:
 15795 0e0d 00000000 		.4byte	.LVL272
 15796 0e11 13000000 		.4byte	.LVL273-1
 15797 0e15 0100     		.2byte	0x1
 15798 0e17 50       		.byte	0x50
 15799 0e18 13000000 		.4byte	.LVL273-1
 15800 0e1c 14000000 		.4byte	.LVL273
 15801 0e20 0400     		.2byte	0x4
 15802 0e22 F3       		.byte	0xf3
 15803 0e23 01       		.uleb128 0x1
 15804 0e24 50       		.byte	0x50
 15805 0e25 9F       		.byte	0x9f
 15806 0e26 14000000 		.4byte	.LVL273
 15807 0e2a 17000000 		.4byte	.LVL274-1
 15808 0e2e 0100     		.2byte	0x1
 15809 0e30 50       		.byte	0x50
 15810 0e31 17000000 		.4byte	.LVL274-1
 15811 0e35 18000000 		.4byte	.LVL274
ARM GAS  /var/folders/sv/kgmgr77579zbf78p2zlhkdfr0000gn/T//ccOxe4My.s 			page 280


 15812 0e39 0400     		.2byte	0x4
 15813 0e3b F3       		.byte	0xf3
 15814 0e3c 01       		.uleb128 0x1
 15815 0e3d 50       		.byte	0x50
 15816 0e3e 9F       		.byte	0x9f
 15817 0e3f 18000000 		.4byte	.LVL274
 15818 0e43 1B000000 		.4byte	.LVL275-1
 15819 0e47 0100     		.2byte	0x1
 15820 0e49 50       		.byte	0x50
 15821 0e4a 1B000000 		.4byte	.LVL275-1
 15822 0e4e 1C000000 		.4byte	.LVL275
 15823 0e52 0400     		.2byte	0x4
 15824 0e54 F3       		.byte	0xf3
 15825 0e55 01       		.uleb128 0x1
 15826 0e56 50       		.byte	0x50
 15827 0e57 9F       		.byte	0x9f
 15828 0e58 1C000000 		.4byte	.LVL275
 15829 0e5c 1E000000 		.4byte	.LVL276
 15830 0e60 0100     		.2byte	0x1
 15831 0e62 50       		.byte	0x50
 15832 0e63 1E000000 		.4byte	.LVL276
 15833 0e67 24000000 		.4byte	.LFE294
 15834 0e6b 0400     		.2byte	0x4
 15835 0e6d F3       		.byte	0xf3
 15836 0e6e 01       		.uleb128 0x1
 15837 0e6f 50       		.byte	0x50
 15838 0e70 9F       		.byte	0x9f
 15839 0e71 00000000 		.4byte	0
 15840 0e75 00000000 		.4byte	0
 15841              	.LLST50:
 15842 0e79 0C000000 		.4byte	.LVL281
 15843 0e7d 14000000 		.4byte	.LVL282
 15844 0e81 0800     		.2byte	0x8
 15845 0e83 F5       		.byte	0xf5
 15846 0e84 40       		.uleb128 0x40
 15847 0e85 25       		.uleb128 0x25
 15848 0e86 F5       		.byte	0xf5
 15849 0e87 4F       		.uleb128 0x4f
 15850 0e88 25       		.uleb128 0x25
 15851 0e89 1B       		.byte	0x1b
 15852 0e8a 9F       		.byte	0x9f
 15853 0e8b 14000000 		.4byte	.LVL282
 15854 0e8f 20000000 		.4byte	.LFE296
 15855 0e93 0200     		.2byte	0x2
 15856 0e95 90       		.byte	0x90
 15857 0e96 40       		.uleb128 0x40
 15858 0e97 00000000 		.4byte	0
 15859 0e9b 00000000 		.4byte	0
 15860              	.LLST51:
 15861 0e9f 0C000000 		.4byte	.LVL283
 15862 0ea3 14000000 		.4byte	.LVL284
 15863 0ea7 0800     		.2byte	0x8
 15864 0ea9 F5       		.byte	0xf5
 15865 0eaa 40       		.uleb128 0x40
 15866 0eab 25       		.uleb128 0x25
 15867 0eac F5       		.byte	0xf5
 15868 0ead 4F       		.uleb128 0x4f
ARM GAS  /var/folders/sv/kgmgr77579zbf78p2zlhkdfr0000gn/T//ccOxe4My.s 			page 281


 15869 0eae 25       		.uleb128 0x25
 15870 0eaf 1B       		.byte	0x1b
 15871 0eb0 9F       		.byte	0x9f
 15872 0eb1 14000000 		.4byte	.LVL284
 15873 0eb5 20000000 		.4byte	.LFE297
 15874 0eb9 0200     		.2byte	0x2
 15875 0ebb 90       		.byte	0x90
 15876 0ebc 40       		.uleb128 0x40
 15877 0ebd 00000000 		.4byte	0
 15878 0ec1 00000000 		.4byte	0
 15879              	.LLST52:
 15880 0ec5 12000000 		.4byte	.LVL285
 15881 0ec9 30000000 		.4byte	.LVL286
 15882 0ecd 0200     		.2byte	0x2
 15883 0ecf 90       		.byte	0x90
 15884 0ed0 40       		.uleb128 0x40
 15885 0ed1 00000000 		.4byte	0
 15886 0ed5 00000000 		.4byte	0
 15887              	.LLST53:
 15888 0ed9 12000000 		.4byte	.LVL287
 15889 0edd 30000000 		.4byte	.LVL288
 15890 0ee1 0200     		.2byte	0x2
 15891 0ee3 90       		.byte	0x90
 15892 0ee4 40       		.uleb128 0x40
 15893 0ee5 00000000 		.4byte	0
 15894 0ee9 00000000 		.4byte	0
 15895              	.LLST54:
 15896 0eed 00000000 		.4byte	.LVL293
 15897 0ef1 34000000 		.4byte	.LVL296
 15898 0ef5 0100     		.2byte	0x1
 15899 0ef7 50       		.byte	0x50
 15900 0ef8 34000000 		.4byte	.LVL296
 15901 0efc 50000000 		.4byte	.LFE303
 15902 0f00 0400     		.2byte	0x4
 15903 0f02 F3       		.byte	0xf3
 15904 0f03 01       		.uleb128 0x1
 15905 0f04 50       		.byte	0x50
 15906 0f05 9F       		.byte	0x9f
 15907 0f06 00000000 		.4byte	0
 15908 0f0a 00000000 		.4byte	0
 15909              	.LLST55:
 15910 0f0e 00000000 		.4byte	.LVL293
 15911 0f12 0A000000 		.4byte	.LVL294
 15912 0f16 0100     		.2byte	0x1
 15913 0f18 51       		.byte	0x51
 15914 0f19 0A000000 		.4byte	.LVL294
 15915 0f1d 32000000 		.4byte	.LVL295
 15916 0f21 0100     		.2byte	0x1
 15917 0f23 51       		.byte	0x51
 15918 0f24 00000000 		.4byte	0
 15919 0f28 00000000 		.4byte	0
 15920              	.LLST56:
 15921 0f2c 00000000 		.4byte	.LVL293
 15922 0f30 37000000 		.4byte	.LVL297-1
 15923 0f34 0100     		.2byte	0x1
 15924 0f36 52       		.byte	0x52
 15925 0f37 37000000 		.4byte	.LVL297-1
ARM GAS  /var/folders/sv/kgmgr77579zbf78p2zlhkdfr0000gn/T//ccOxe4My.s 			page 282


 15926 0f3b 50000000 		.4byte	.LFE303
 15927 0f3f 0400     		.2byte	0x4
 15928 0f41 F3       		.byte	0xf3
 15929 0f42 01       		.uleb128 0x1
 15930 0f43 52       		.byte	0x52
 15931 0f44 9F       		.byte	0x9f
 15932 0f45 00000000 		.4byte	0
 15933 0f49 00000000 		.4byte	0
 15934              	.LLST57:
 15935 0f4d 0E000000 		.4byte	.LVL299
 15936 0f51 34000000 		.4byte	.LVL302
 15937 0f55 0100     		.2byte	0x1
 15938 0f57 54       		.byte	0x54
 15939 0f58 34000000 		.4byte	.LVL302
 15940 0f5c 36000000 		.4byte	.LVL303
 15941 0f60 0200     		.2byte	0x2
 15942 0f62 31       		.byte	0x31
 15943 0f63 9F       		.byte	0x9f
 15944 0f64 36000000 		.4byte	.LVL303
 15945 0f68 42000000 		.4byte	.LVL306
 15946 0f6c 0100     		.2byte	0x1
 15947 0f6e 54       		.byte	0x54
 15948 0f6f 42000000 		.4byte	.LVL306
 15949 0f73 46000000 		.4byte	.LVL307
 15950 0f77 0200     		.2byte	0x2
 15951 0f79 31       		.byte	0x31
 15952 0f7a 9F       		.byte	0x9f
 15953 0f7b 46000000 		.4byte	.LVL307
 15954 0f7f 4E000000 		.4byte	.LVL309
 15955 0f83 0100     		.2byte	0x1
 15956 0f85 54       		.byte	0x54
 15957 0f86 4E000000 		.4byte	.LVL309
 15958 0f8a 52000000 		.4byte	.LVL310
 15959 0f8e 0200     		.2byte	0x2
 15960 0f90 31       		.byte	0x31
 15961 0f91 9F       		.byte	0x9f
 15962 0f92 52000000 		.4byte	.LVL310
 15963 0f96 56000000 		.4byte	.LVL311
 15964 0f9a 0100     		.2byte	0x1
 15965 0f9c 54       		.byte	0x54
 15966 0f9d 62000000 		.4byte	.LVL313
 15967 0fa1 74000000 		.4byte	.LFE306
 15968 0fa5 0400     		.2byte	0x4
 15969 0fa7 0A       		.byte	0xa
 15970 0fa8 F401     		.2byte	0x1f4
 15971 0faa 9F       		.byte	0x9f
 15972 0fab 00000000 		.4byte	0
 15973 0faf 00000000 		.4byte	0
 15974              	.LLST58:
 15975 0fb3 00000000 		.4byte	.LVL314
 15976 0fb7 0D000000 		.4byte	.LVL315-1
 15977 0fbb 0200     		.2byte	0x2
 15978 0fbd 90       		.byte	0x90
 15979 0fbe 40       		.uleb128 0x40
 15980 0fbf 0D000000 		.4byte	.LVL315-1
 15981 0fc3 24000000 		.4byte	.LVL316
 15982 0fc7 0200     		.2byte	0x2
ARM GAS  /var/folders/sv/kgmgr77579zbf78p2zlhkdfr0000gn/T//ccOxe4My.s 			page 283


 15983 0fc9 90       		.byte	0x90
 15984 0fca 50       		.uleb128 0x50
 15985 0fcb 24000000 		.4byte	.LVL316
 15986 0fcf 26000000 		.4byte	.LVL317
 15987 0fd3 0600     		.2byte	0x6
 15988 0fd5 F3       		.byte	0xf3
 15989 0fd6 03       		.uleb128 0x3
 15990 0fd7 F5       		.byte	0xf5
 15991 0fd8 40       		.uleb128 0x40
 15992 0fd9 25       		.uleb128 0x25
 15993 0fda 9F       		.byte	0x9f
 15994 0fdb 26000000 		.4byte	.LVL317
 15995 0fdf 42000000 		.4byte	.LVL318
 15996 0fe3 0200     		.2byte	0x2
 15997 0fe5 90       		.byte	0x90
 15998 0fe6 50       		.uleb128 0x50
 15999 0fe7 42000000 		.4byte	.LVL318
 16000 0feb 4A000000 		.4byte	.LVL319
 16001 0fef 0600     		.2byte	0x6
 16002 0ff1 F3       		.byte	0xf3
 16003 0ff2 03       		.uleb128 0x3
 16004 0ff3 F5       		.byte	0xf5
 16005 0ff4 40       		.uleb128 0x40
 16006 0ff5 25       		.uleb128 0x25
 16007 0ff6 9F       		.byte	0x9f
 16008 0ff7 4A000000 		.4byte	.LVL319
 16009 0ffb 66000000 		.4byte	.LVL320
 16010 0fff 0200     		.2byte	0x2
 16011 1001 90       		.byte	0x90
 16012 1002 50       		.uleb128 0x50
 16013 1003 66000000 		.4byte	.LVL320
 16014 1007 6E000000 		.4byte	.LVL321
 16015 100b 0600     		.2byte	0x6
 16016 100d F3       		.byte	0xf3
 16017 100e 03       		.uleb128 0x3
 16018 100f F5       		.byte	0xf5
 16019 1010 40       		.uleb128 0x40
 16020 1011 25       		.uleb128 0x25
 16021 1012 9F       		.byte	0x9f
 16022 1013 6E000000 		.4byte	.LVL321
 16023 1017 8A000000 		.4byte	.LVL322
 16024 101b 0200     		.2byte	0x2
 16025 101d 90       		.byte	0x90
 16026 101e 50       		.uleb128 0x50
 16027 101f 8A000000 		.4byte	.LVL322
 16028 1023 98000000 		.4byte	.LFE267
 16029 1027 0600     		.2byte	0x6
 16030 1029 F3       		.byte	0xf3
 16031 102a 03       		.uleb128 0x3
 16032 102b F5       		.byte	0xf5
 16033 102c 40       		.uleb128 0x40
 16034 102d 25       		.uleb128 0x25
 16035 102e 9F       		.byte	0x9f
 16036 102f 00000000 		.4byte	0
 16037 1033 00000000 		.4byte	0
 16038              	.LLST59:
 16039 1037 4A000000 		.4byte	.LVL319
ARM GAS  /var/folders/sv/kgmgr77579zbf78p2zlhkdfr0000gn/T//ccOxe4My.s 			page 284


 16040 103b 66000000 		.4byte	.LVL320
 16041 103f 0200     		.2byte	0x2
 16042 1041 90       		.byte	0x90
 16043 1042 50       		.uleb128 0x50
 16044 1043 66000000 		.4byte	.LVL320
 16045 1047 6E000000 		.4byte	.LVL321
 16046 104b 0600     		.2byte	0x6
 16047 104d F3       		.byte	0xf3
 16048 104e 03       		.uleb128 0x3
 16049 104f F5       		.byte	0xf5
 16050 1050 40       		.uleb128 0x40
 16051 1051 25       		.uleb128 0x25
 16052 1052 9F       		.byte	0x9f
 16053 1053 00000000 		.4byte	0
 16054 1057 00000000 		.4byte	0
 16055              	.LLST60:
 16056 105b 00000000 		.4byte	.LVL325
 16057 105f 0D000000 		.4byte	.LVL326-1
 16058 1063 0200     		.2byte	0x2
 16059 1065 90       		.byte	0x90
 16060 1066 40       		.uleb128 0x40
 16061 1067 0D000000 		.4byte	.LVL326-1
 16062 106b 24000000 		.4byte	.LVL327
 16063 106f 0200     		.2byte	0x2
 16064 1071 90       		.byte	0x90
 16065 1072 50       		.uleb128 0x50
 16066 1073 24000000 		.4byte	.LVL327
 16067 1077 26000000 		.4byte	.LVL328
 16068 107b 0600     		.2byte	0x6
 16069 107d F3       		.byte	0xf3
 16070 107e 03       		.uleb128 0x3
 16071 107f F5       		.byte	0xf5
 16072 1080 40       		.uleb128 0x40
 16073 1081 25       		.uleb128 0x25
 16074 1082 9F       		.byte	0x9f
 16075 1083 26000000 		.4byte	.LVL328
 16076 1087 42000000 		.4byte	.LVL329
 16077 108b 0200     		.2byte	0x2
 16078 108d 90       		.byte	0x90
 16079 108e 50       		.uleb128 0x50
 16080 108f 42000000 		.4byte	.LVL329
 16081 1093 4A000000 		.4byte	.LVL330
 16082 1097 0600     		.2byte	0x6
 16083 1099 F3       		.byte	0xf3
 16084 109a 03       		.uleb128 0x3
 16085 109b F5       		.byte	0xf5
 16086 109c 40       		.uleb128 0x40
 16087 109d 25       		.uleb128 0x25
 16088 109e 9F       		.byte	0x9f
 16089 109f 4A000000 		.4byte	.LVL330
 16090 10a3 66000000 		.4byte	.LVL331
 16091 10a7 0200     		.2byte	0x2
 16092 10a9 90       		.byte	0x90
 16093 10aa 50       		.uleb128 0x50
 16094 10ab 66000000 		.4byte	.LVL331
 16095 10af 6E000000 		.4byte	.LVL332
 16096 10b3 0600     		.2byte	0x6
ARM GAS  /var/folders/sv/kgmgr77579zbf78p2zlhkdfr0000gn/T//ccOxe4My.s 			page 285


 16097 10b5 F3       		.byte	0xf3
 16098 10b6 03       		.uleb128 0x3
 16099 10b7 F5       		.byte	0xf5
 16100 10b8 40       		.uleb128 0x40
 16101 10b9 25       		.uleb128 0x25
 16102 10ba 9F       		.byte	0x9f
 16103 10bb 6E000000 		.4byte	.LVL332
 16104 10bf 8A000000 		.4byte	.LVL333
 16105 10c3 0200     		.2byte	0x2
 16106 10c5 90       		.byte	0x90
 16107 10c6 50       		.uleb128 0x50
 16108 10c7 8A000000 		.4byte	.LVL333
 16109 10cb 98000000 		.4byte	.LFE268
 16110 10cf 0600     		.2byte	0x6
 16111 10d1 F3       		.byte	0xf3
 16112 10d2 03       		.uleb128 0x3
 16113 10d3 F5       		.byte	0xf5
 16114 10d4 40       		.uleb128 0x40
 16115 10d5 25       		.uleb128 0x25
 16116 10d6 9F       		.byte	0x9f
 16117 10d7 00000000 		.4byte	0
 16118 10db 00000000 		.4byte	0
 16119              	.LLST61:
 16120 10df 00000000 		.4byte	.LVL335
 16121 10e3 0D000000 		.4byte	.LVL336-1
 16122 10e7 0200     		.2byte	0x2
 16123 10e9 90       		.byte	0x90
 16124 10ea 40       		.uleb128 0x40
 16125 10eb 0D000000 		.4byte	.LVL336-1
 16126 10ef 24000000 		.4byte	.LVL337
 16127 10f3 0200     		.2byte	0x2
 16128 10f5 90       		.byte	0x90
 16129 10f6 50       		.uleb128 0x50
 16130 10f7 24000000 		.4byte	.LVL337
 16131 10fb 26000000 		.4byte	.LVL338
 16132 10ff 0600     		.2byte	0x6
 16133 1101 F3       		.byte	0xf3
 16134 1102 03       		.uleb128 0x3
 16135 1103 F5       		.byte	0xf5
 16136 1104 40       		.uleb128 0x40
 16137 1105 25       		.uleb128 0x25
 16138 1106 9F       		.byte	0x9f
 16139 1107 26000000 		.4byte	.LVL338
 16140 110b 42000000 		.4byte	.LVL339
 16141 110f 0200     		.2byte	0x2
 16142 1111 90       		.byte	0x90
 16143 1112 50       		.uleb128 0x50
 16144 1113 42000000 		.4byte	.LVL339
 16145 1117 4A000000 		.4byte	.LVL340
 16146 111b 0600     		.2byte	0x6
 16147 111d F3       		.byte	0xf3
 16148 111e 03       		.uleb128 0x3
 16149 111f F5       		.byte	0xf5
 16150 1120 40       		.uleb128 0x40
 16151 1121 25       		.uleb128 0x25
 16152 1122 9F       		.byte	0x9f
 16153 1123 4A000000 		.4byte	.LVL340
ARM GAS  /var/folders/sv/kgmgr77579zbf78p2zlhkdfr0000gn/T//ccOxe4My.s 			page 286


 16154 1127 66000000 		.4byte	.LVL341
 16155 112b 0200     		.2byte	0x2
 16156 112d 90       		.byte	0x90
 16157 112e 50       		.uleb128 0x50
 16158 112f 66000000 		.4byte	.LVL341
 16159 1133 6E000000 		.4byte	.LVL342
 16160 1137 0600     		.2byte	0x6
 16161 1139 F3       		.byte	0xf3
 16162 113a 03       		.uleb128 0x3
 16163 113b F5       		.byte	0xf5
 16164 113c 40       		.uleb128 0x40
 16165 113d 25       		.uleb128 0x25
 16166 113e 9F       		.byte	0x9f
 16167 113f 6E000000 		.4byte	.LVL342
 16168 1143 8A000000 		.4byte	.LVL343
 16169 1147 0200     		.2byte	0x2
 16170 1149 90       		.byte	0x90
 16171 114a 50       		.uleb128 0x50
 16172 114b 8A000000 		.4byte	.LVL343
 16173 114f 98000000 		.4byte	.LFE269
 16174 1153 0600     		.2byte	0x6
 16175 1155 F3       		.byte	0xf3
 16176 1156 03       		.uleb128 0x3
 16177 1157 F5       		.byte	0xf5
 16178 1158 40       		.uleb128 0x40
 16179 1159 25       		.uleb128 0x25
 16180 115a 9F       		.byte	0x9f
 16181 115b 00000000 		.4byte	0
 16182 115f 00000000 		.4byte	0
 16183              	.LLST62:
 16184 1163 00000000 		.4byte	.LVL345
 16185 1167 0B000000 		.4byte	.LVL346-1
 16186 116b 0200     		.2byte	0x2
 16187 116d 90       		.byte	0x90
 16188 116e 40       		.uleb128 0x40
 16189 116f 0B000000 		.4byte	.LVL346-1
 16190 1173 6E000000 		.4byte	.LVL353
 16191 1177 0200     		.2byte	0x2
 16192 1179 91       		.byte	0x91
 16193 117a 74       		.sleb128 -12
 16194 117b 6E000000 		.4byte	.LVL353
 16195 117f 78000000 		.4byte	.LFE270
 16196 1183 0200     		.2byte	0x2
 16197 1185 7D       		.byte	0x7d
 16198 1186 74       		.sleb128 -12
 16199 1187 00000000 		.4byte	0
 16200 118b 00000000 		.4byte	0
 16201              	.LLST63:
 16202 118f 00000000 		.4byte	.LVL354
 16203 1193 0D000000 		.4byte	.LVL355-1
 16204 1197 0200     		.2byte	0x2
 16205 1199 90       		.byte	0x90
 16206 119a 40       		.uleb128 0x40
 16207 119b 0D000000 		.4byte	.LVL355-1
 16208 119f 24000000 		.4byte	.LVL356
 16209 11a3 0200     		.2byte	0x2
 16210 11a5 90       		.byte	0x90
ARM GAS  /var/folders/sv/kgmgr77579zbf78p2zlhkdfr0000gn/T//ccOxe4My.s 			page 287


 16211 11a6 50       		.uleb128 0x50
 16212 11a7 24000000 		.4byte	.LVL356
 16213 11ab 26000000 		.4byte	.LVL357
 16214 11af 0600     		.2byte	0x6
 16215 11b1 F3       		.byte	0xf3
 16216 11b2 03       		.uleb128 0x3
 16217 11b3 F5       		.byte	0xf5
 16218 11b4 40       		.uleb128 0x40
 16219 11b5 25       		.uleb128 0x25
 16220 11b6 9F       		.byte	0x9f
 16221 11b7 26000000 		.4byte	.LVL357
 16222 11bb 42000000 		.4byte	.LVL358
 16223 11bf 0200     		.2byte	0x2
 16224 11c1 90       		.byte	0x90
 16225 11c2 50       		.uleb128 0x50
 16226 11c3 42000000 		.4byte	.LVL358
 16227 11c7 4A000000 		.4byte	.LVL359
 16228 11cb 0600     		.2byte	0x6
 16229 11cd F3       		.byte	0xf3
 16230 11ce 03       		.uleb128 0x3
 16231 11cf F5       		.byte	0xf5
 16232 11d0 40       		.uleb128 0x40
 16233 11d1 25       		.uleb128 0x25
 16234 11d2 9F       		.byte	0x9f
 16235 11d3 4A000000 		.4byte	.LVL359
 16236 11d7 66000000 		.4byte	.LVL360
 16237 11db 0200     		.2byte	0x2
 16238 11dd 90       		.byte	0x90
 16239 11de 50       		.uleb128 0x50
 16240 11df 66000000 		.4byte	.LVL360
 16241 11e3 6E000000 		.4byte	.LVL361
 16242 11e7 0600     		.2byte	0x6
 16243 11e9 F3       		.byte	0xf3
 16244 11ea 03       		.uleb128 0x3
 16245 11eb F5       		.byte	0xf5
 16246 11ec 40       		.uleb128 0x40
 16247 11ed 25       		.uleb128 0x25
 16248 11ee 9F       		.byte	0x9f
 16249 11ef 6E000000 		.4byte	.LVL361
 16250 11f3 8A000000 		.4byte	.LVL362
 16251 11f7 0200     		.2byte	0x2
 16252 11f9 90       		.byte	0x90
 16253 11fa 50       		.uleb128 0x50
 16254 11fb 8A000000 		.4byte	.LVL362
 16255 11ff 98000000 		.4byte	.LFE271
 16256 1203 0600     		.2byte	0x6
 16257 1205 F3       		.byte	0xf3
 16258 1206 03       		.uleb128 0x3
 16259 1207 F5       		.byte	0xf5
 16260 1208 40       		.uleb128 0x40
 16261 1209 25       		.uleb128 0x25
 16262 120a 9F       		.byte	0x9f
 16263 120b 00000000 		.4byte	0
 16264 120f 00000000 		.4byte	0
 16265              	.LLST64:
 16266 1213 4A000000 		.4byte	.LVL359
 16267 1217 66000000 		.4byte	.LVL360
ARM GAS  /var/folders/sv/kgmgr77579zbf78p2zlhkdfr0000gn/T//ccOxe4My.s 			page 288


 16268 121b 0200     		.2byte	0x2
 16269 121d 90       		.byte	0x90
 16270 121e 50       		.uleb128 0x50
 16271 121f 66000000 		.4byte	.LVL360
 16272 1223 6E000000 		.4byte	.LVL361
 16273 1227 0600     		.2byte	0x6
 16274 1229 F3       		.byte	0xf3
 16275 122a 03       		.uleb128 0x3
 16276 122b F5       		.byte	0xf5
 16277 122c 40       		.uleb128 0x40
 16278 122d 25       		.uleb128 0x25
 16279 122e 9F       		.byte	0x9f
 16280 122f 00000000 		.4byte	0
 16281 1233 00000000 		.4byte	0
 16282              	.LLST65:
 16283 1237 00000000 		.4byte	.LVL364
 16284 123b 14000000 		.4byte	.LVL365
 16285 123f 0200     		.2byte	0x2
 16286 1241 90       		.byte	0x90
 16287 1242 40       		.uleb128 0x40
 16288 1243 14000000 		.4byte	.LVL365
 16289 1247 18000000 		.4byte	.LVL366
 16290 124b 0600     		.2byte	0x6
 16291 124d F3       		.byte	0xf3
 16292 124e 03       		.uleb128 0x3
 16293 124f F5       		.byte	0xf5
 16294 1250 40       		.uleb128 0x40
 16295 1251 25       		.uleb128 0x25
 16296 1252 9F       		.byte	0x9f
 16297 1253 18000000 		.4byte	.LVL366
 16298 1257 24000000 		.4byte	.LVL367
 16299 125b 0200     		.2byte	0x2
 16300 125d 90       		.byte	0x90
 16301 125e 40       		.uleb128 0x40
 16302 125f 24000000 		.4byte	.LVL367
 16303 1263 2C000000 		.4byte	.LFE273
 16304 1267 0600     		.2byte	0x6
 16305 1269 F3       		.byte	0xf3
 16306 126a 03       		.uleb128 0x3
 16307 126b F5       		.byte	0xf5
 16308 126c 40       		.uleb128 0x40
 16309 126d 25       		.uleb128 0x25
 16310 126e 9F       		.byte	0x9f
 16311 126f 00000000 		.4byte	0
 16312 1273 00000000 		.4byte	0
 16313              	.LLST66:
 16314 1277 00000000 		.4byte	.LVL370
 16315 127b 0D000000 		.4byte	.LVL371-1
 16316 127f 0200     		.2byte	0x2
 16317 1281 90       		.byte	0x90
 16318 1282 40       		.uleb128 0x40
 16319 1283 0D000000 		.4byte	.LVL371-1
 16320 1287 24000000 		.4byte	.LVL372
 16321 128b 0200     		.2byte	0x2
 16322 128d 90       		.byte	0x90
 16323 128e 50       		.uleb128 0x50
 16324 128f 24000000 		.4byte	.LVL372
ARM GAS  /var/folders/sv/kgmgr77579zbf78p2zlhkdfr0000gn/T//ccOxe4My.s 			page 289


 16325 1293 26000000 		.4byte	.LVL373
 16326 1297 0600     		.2byte	0x6
 16327 1299 F3       		.byte	0xf3
 16328 129a 03       		.uleb128 0x3
 16329 129b F5       		.byte	0xf5
 16330 129c 40       		.uleb128 0x40
 16331 129d 25       		.uleb128 0x25
 16332 129e 9F       		.byte	0x9f
 16333 129f 26000000 		.4byte	.LVL373
 16334 12a3 42000000 		.4byte	.LVL374
 16335 12a7 0200     		.2byte	0x2
 16336 12a9 90       		.byte	0x90
 16337 12aa 50       		.uleb128 0x50
 16338 12ab 42000000 		.4byte	.LVL374
 16339 12af 4A000000 		.4byte	.LVL375
 16340 12b3 0600     		.2byte	0x6
 16341 12b5 F3       		.byte	0xf3
 16342 12b6 03       		.uleb128 0x3
 16343 12b7 F5       		.byte	0xf5
 16344 12b8 40       		.uleb128 0x40
 16345 12b9 25       		.uleb128 0x25
 16346 12ba 9F       		.byte	0x9f
 16347 12bb 4A000000 		.4byte	.LVL375
 16348 12bf 66000000 		.4byte	.LVL376
 16349 12c3 0200     		.2byte	0x2
 16350 12c5 90       		.byte	0x90
 16351 12c6 50       		.uleb128 0x50
 16352 12c7 66000000 		.4byte	.LVL376
 16353 12cb 6E000000 		.4byte	.LVL377
 16354 12cf 0600     		.2byte	0x6
 16355 12d1 F3       		.byte	0xf3
 16356 12d2 03       		.uleb128 0x3
 16357 12d3 F5       		.byte	0xf5
 16358 12d4 40       		.uleb128 0x40
 16359 12d5 25       		.uleb128 0x25
 16360 12d6 9F       		.byte	0x9f
 16361 12d7 6E000000 		.4byte	.LVL377
 16362 12db 8A000000 		.4byte	.LVL378
 16363 12df 0200     		.2byte	0x2
 16364 12e1 90       		.byte	0x90
 16365 12e2 50       		.uleb128 0x50
 16366 12e3 8A000000 		.4byte	.LVL378
 16367 12e7 98000000 		.4byte	.LFE272
 16368 12eb 0600     		.2byte	0x6
 16369 12ed F3       		.byte	0xf3
 16370 12ee 03       		.uleb128 0x3
 16371 12ef F5       		.byte	0xf5
 16372 12f0 40       		.uleb128 0x40
 16373 12f1 25       		.uleb128 0x25
 16374 12f2 9F       		.byte	0x9f
 16375 12f3 00000000 		.4byte	0
 16376 12f7 00000000 		.4byte	0
 16377              	.LLST67:
 16378 12fb 4A000000 		.4byte	.LVL375
 16379 12ff 66000000 		.4byte	.LVL376
 16380 1303 0200     		.2byte	0x2
 16381 1305 90       		.byte	0x90
ARM GAS  /var/folders/sv/kgmgr77579zbf78p2zlhkdfr0000gn/T//ccOxe4My.s 			page 290


 16382 1306 50       		.uleb128 0x50
 16383 1307 66000000 		.4byte	.LVL376
 16384 130b 6E000000 		.4byte	.LVL377
 16385 130f 0600     		.2byte	0x6
 16386 1311 F3       		.byte	0xf3
 16387 1312 03       		.uleb128 0x3
 16388 1313 F5       		.byte	0xf5
 16389 1314 40       		.uleb128 0x40
 16390 1315 25       		.uleb128 0x25
 16391 1316 9F       		.byte	0x9f
 16392 1317 00000000 		.4byte	0
 16393 131b 00000000 		.4byte	0
 16394              	.LLST68:
 16395 131f 00000000 		.4byte	.LVL380
 16396 1323 0A000000 		.4byte	.LVL381
 16397 1327 0200     		.2byte	0x2
 16398 1329 90       		.byte	0x90
 16399 132a 40       		.uleb128 0x40
 16400 132b 0A000000 		.4byte	.LVL381
 16401 132f 14000000 		.4byte	.LFE274
 16402 1333 0600     		.2byte	0x6
 16403 1335 F3       		.byte	0xf3
 16404 1336 03       		.uleb128 0x3
 16405 1337 F5       		.byte	0xf5
 16406 1338 40       		.uleb128 0x40
 16407 1339 25       		.uleb128 0x25
 16408 133a 9F       		.byte	0x9f
 16409 133b 00000000 		.4byte	0
 16410 133f 00000000 		.4byte	0
 16411              	.LLST69:
 16412 1343 00000000 		.4byte	.LVL383
 16413 1347 0D000000 		.4byte	.LVL384-1
 16414 134b 0200     		.2byte	0x2
 16415 134d 90       		.byte	0x90
 16416 134e 40       		.uleb128 0x40
 16417 134f 0D000000 		.4byte	.LVL384-1
 16418 1353 18000000 		.4byte	.LVL385
 16419 1357 0200     		.2byte	0x2
 16420 1359 90       		.byte	0x90
 16421 135a 50       		.uleb128 0x50
 16422 135b 18000000 		.4byte	.LVL385
 16423 135f 1F000000 		.4byte	.LVL386-1
 16424 1363 0200     		.2byte	0x2
 16425 1365 90       		.byte	0x90
 16426 1366 40       		.uleb128 0x40
 16427 1367 1F000000 		.4byte	.LVL386-1
 16428 136b 20000000 		.4byte	.LVL386
 16429 136f 0600     		.2byte	0x6
 16430 1371 F3       		.byte	0xf3
 16431 1372 03       		.uleb128 0x3
 16432 1373 F5       		.byte	0xf5
 16433 1374 40       		.uleb128 0x40
 16434 1375 25       		.uleb128 0x25
 16435 1376 9F       		.byte	0x9f
 16436 1377 20000000 		.4byte	.LVL386
 16437 137b 24000000 		.4byte	.LVL387
 16438 137f 0200     		.2byte	0x2
ARM GAS  /var/folders/sv/kgmgr77579zbf78p2zlhkdfr0000gn/T//ccOxe4My.s 			page 291


 16439 1381 90       		.byte	0x90
 16440 1382 50       		.uleb128 0x50
 16441 1383 24000000 		.4byte	.LVL387
 16442 1387 26000000 		.4byte	.LFE275
 16443 138b 0600     		.2byte	0x6
 16444 138d F3       		.byte	0xf3
 16445 138e 03       		.uleb128 0x3
 16446 138f F5       		.byte	0xf5
 16447 1390 40       		.uleb128 0x40
 16448 1391 25       		.uleb128 0x25
 16449 1392 9F       		.byte	0x9f
 16450 1393 00000000 		.4byte	0
 16451 1397 00000000 		.4byte	0
 16452              	.LLST70:
 16453 139b 00000000 		.4byte	.LVL388
 16454 139f 13000000 		.4byte	.LVL390-1
 16455 13a3 0200     		.2byte	0x2
 16456 13a5 90       		.byte	0x90
 16457 13a6 40       		.uleb128 0x40
 16458 13a7 13000000 		.4byte	.LVL390-1
 16459 13ab 34000000 		.4byte	.LFE276
 16460 13af 0200     		.2byte	0x2
 16461 13b1 90       		.byte	0x90
 16462 13b2 51       		.uleb128 0x51
 16463 13b3 00000000 		.4byte	0
 16464 13b7 00000000 		.4byte	0
 16465              	.LLST71:
 16466 13bb 10000000 		.4byte	.LVL389
 16467 13bf 13000000 		.4byte	.LVL390-1
 16468 13c3 0900     		.2byte	0x9
 16469 13c5 F5       		.byte	0xf5
 16470 13c6 50       		.uleb128 0x50
 16471 13c7 25       		.uleb128 0x25
 16472 13c8 19       		.byte	0x19
 16473 13c9 F5       		.byte	0xf5
 16474 13ca 40       		.uleb128 0x40
 16475 13cb 25       		.uleb128 0x25
 16476 13cc 1E       		.byte	0x1e
 16477 13cd 9F       		.byte	0x9f
 16478 13ce 13000000 		.4byte	.LVL390-1
 16479 13d2 1A000000 		.4byte	.LVL391
 16480 13d6 0900     		.2byte	0x9
 16481 13d8 F5       		.byte	0xf5
 16482 13d9 50       		.uleb128 0x50
 16483 13da 25       		.uleb128 0x25
 16484 13db 19       		.byte	0x19
 16485 13dc F5       		.byte	0xf5
 16486 13dd 51       		.uleb128 0x51
 16487 13de 25       		.uleb128 0x25
 16488 13df 1E       		.byte	0x1e
 16489 13e0 9F       		.byte	0x9f
 16490 13e1 1C000000 		.4byte	.LVL392
 16491 13e5 28000000 		.4byte	.LVL393
 16492 13e9 0900     		.2byte	0x9
 16493 13eb F5       		.byte	0xf5
 16494 13ec 50       		.uleb128 0x50
 16495 13ed 25       		.uleb128 0x25
ARM GAS  /var/folders/sv/kgmgr77579zbf78p2zlhkdfr0000gn/T//ccOxe4My.s 			page 292


 16496 13ee 19       		.byte	0x19
 16497 13ef F5       		.byte	0xf5
 16498 13f0 51       		.uleb128 0x51
 16499 13f1 25       		.uleb128 0x25
 16500 13f2 1E       		.byte	0x1e
 16501 13f3 9F       		.byte	0x9f
 16502 13f4 00000000 		.4byte	0
 16503 13f8 00000000 		.4byte	0
 16504              	.LLST72:
 16505 13fc 00000000 		.4byte	.LVL395
 16506 1400 0B000000 		.4byte	.LVL396-1
 16507 1404 0100     		.2byte	0x1
 16508 1406 50       		.byte	0x50
 16509 1407 0B000000 		.4byte	.LVL396-1
 16510 140b 0C000000 		.4byte	.LVL396
 16511 140f 0400     		.2byte	0x4
 16512 1411 F3       		.byte	0xf3
 16513 1412 01       		.uleb128 0x1
 16514 1413 50       		.byte	0x50
 16515 1414 9F       		.byte	0x9f
 16516 1415 0C000000 		.4byte	.LVL396
 16517 1419 24000000 		.4byte	.LFE307
 16518 141d 0100     		.2byte	0x1
 16519 141f 50       		.byte	0x50
 16520 1420 00000000 		.4byte	0
 16521 1424 00000000 		.4byte	0
 16522              	.LLST73:
 16523 1428 32000000 		.4byte	.LVL398
 16524 142c A4030000 		.4byte	.LVL432
 16525 1430 0200     		.2byte	0x2
 16526 1432 90       		.byte	0x90
 16527 1433 50       		.uleb128 0x50
 16528 1434 A8030000 		.4byte	.LVL433
 16529 1438 84070000 		.4byte	.LFE308
 16530 143c 0200     		.2byte	0x2
 16531 143e 90       		.byte	0x90
 16532 143f 50       		.uleb128 0x50
 16533 1440 00000000 		.4byte	0
 16534 1444 00000000 		.4byte	0
 16535              	.LLST74:
 16536 1448 7A000000 		.4byte	.LVL402
 16537 144c 7D000000 		.4byte	.LVL403-1
 16538 1450 0200     		.2byte	0x2
 16539 1452 90       		.byte	0x90
 16540 1453 40       		.uleb128 0x40
 16541 1454 7D000000 		.4byte	.LVL403-1
 16542 1458 62010000 		.4byte	.LVL417
 16543 145c 0200     		.2byte	0x2
 16544 145e 90       		.byte	0x90
 16545 145f 51       		.uleb128 0x51
 16546 1460 A8030000 		.4byte	.LVL433
 16547 1464 C4030000 		.4byte	.LVL436
 16548 1468 0200     		.2byte	0x2
 16549 146a 90       		.byte	0x90
 16550 146b 51       		.uleb128 0x51
 16551 146c 98040000 		.4byte	.LVL455
 16552 1470 B2040000 		.4byte	.LVL458
ARM GAS  /var/folders/sv/kgmgr77579zbf78p2zlhkdfr0000gn/T//ccOxe4My.s 			page 293


 16553 1474 0200     		.2byte	0x2
 16554 1476 90       		.byte	0x90
 16555 1477 51       		.uleb128 0x51
 16556 1478 C8040000 		.4byte	.LVL461
 16557 147c D6040000 		.4byte	.LVL465
 16558 1480 0200     		.2byte	0x2
 16559 1482 90       		.byte	0x90
 16560 1483 51       		.uleb128 0x51
 16561 1484 00000000 		.4byte	0
 16562 1488 00000000 		.4byte	0
 16563              	.LLST75:
 16564 148c A2000000 		.4byte	.LVL404
 16565 1490 C1000000 		.4byte	.LVL405-1
 16566 1494 0200     		.2byte	0x2
 16567 1496 90       		.byte	0x90
 16568 1497 40       		.uleb128 0x40
 16569 1498 C1000000 		.4byte	.LVL405-1
 16570 149c C4030000 		.4byte	.LVL436
 16571 14a0 0200     		.2byte	0x2
 16572 14a2 90       		.byte	0x90
 16573 14a3 53       		.uleb128 0x53
 16574 14a4 FE030000 		.4byte	.LVL440
 16575 14a8 B2040000 		.4byte	.LVL458
 16576 14ac 0200     		.2byte	0x2
 16577 14ae 90       		.byte	0x90
 16578 14af 53       		.uleb128 0x53
 16579 14b0 BC040000 		.4byte	.LVL459
 16580 14b4 84070000 		.4byte	.LFE308
 16581 14b8 0200     		.2byte	0x2
 16582 14ba 90       		.byte	0x90
 16583 14bb 53       		.uleb128 0x53
 16584 14bc 00000000 		.4byte	0
 16585 14c0 00000000 		.4byte	0
 16586              	.LLST76:
 16587 14c4 0A010000 		.4byte	.LVL408
 16588 14c8 12010000 		.4byte	.LVL409
 16589 14cc 0200     		.2byte	0x2
 16590 14ce 90       		.byte	0x90
 16591 14cf 40       		.uleb128 0x40
 16592 14d0 12010000 		.4byte	.LVL409
 16593 14d4 3A010000 		.4byte	.LVL412
 16594 14d8 0200     		.2byte	0x2
 16595 14da 90       		.byte	0x90
 16596 14db 52       		.uleb128 0x52
 16597 14dc A8030000 		.4byte	.LVL433
 16598 14e0 AC030000 		.4byte	.LVL434
 16599 14e4 0200     		.2byte	0x2
 16600 14e6 90       		.byte	0x90
 16601 14e7 52       		.uleb128 0x52
 16602 14e8 C8040000 		.4byte	.LVL461
 16603 14ec CB040000 		.4byte	.LVL462-1
 16604 14f0 0200     		.2byte	0x2
 16605 14f2 90       		.byte	0x90
 16606 14f3 40       		.uleb128 0x40
 16607 14f4 CB040000 		.4byte	.LVL462-1
 16608 14f8 D0040000 		.4byte	.LVL463
 16609 14fc 0200     		.2byte	0x2
ARM GAS  /var/folders/sv/kgmgr77579zbf78p2zlhkdfr0000gn/T//ccOxe4My.s 			page 294


 16610 14fe 90       		.byte	0x90
 16611 14ff 52       		.uleb128 0x52
 16612 1500 D0040000 		.4byte	.LVL463
 16613 1504 D3040000 		.4byte	.LVL464-1
 16614 1508 0200     		.2byte	0x2
 16615 150a 90       		.byte	0x90
 16616 150b 40       		.uleb128 0x40
 16617 150c D3040000 		.4byte	.LVL464-1
 16618 1510 D6040000 		.4byte	.LVL465
 16619 1514 0200     		.2byte	0x2
 16620 1516 90       		.byte	0x90
 16621 1517 52       		.uleb128 0x52
 16622 1518 00000000 		.4byte	0
 16623 151c 00000000 		.4byte	0
 16624              	.LLST77:
 16625 1520 0A010000 		.4byte	.LVL408
 16626 1524 12010000 		.4byte	.LVL409
 16627 1528 0200     		.2byte	0x2
 16628 152a 90       		.byte	0x90
 16629 152b 51       		.uleb128 0x51
 16630 152c 12010000 		.4byte	.LVL409
 16631 1530 26010000 		.4byte	.LVL410
 16632 1534 0200     		.2byte	0x2
 16633 1536 90       		.byte	0x90
 16634 1537 40       		.uleb128 0x40
 16635 1538 A8030000 		.4byte	.LVL433
 16636 153c C4030000 		.4byte	.LVL436
 16637 1540 0200     		.2byte	0x2
 16638 1542 90       		.byte	0x90
 16639 1543 40       		.uleb128 0x40
 16640 1544 C8040000 		.4byte	.LVL461
 16641 1548 D4040000 		.4byte	.LVL464
 16642 154c 0200     		.2byte	0x2
 16643 154e 90       		.byte	0x90
 16644 154f 51       		.uleb128 0x51
 16645 1550 D4040000 		.4byte	.LVL464
 16646 1554 D6040000 		.4byte	.LVL465
 16647 1558 0200     		.2byte	0x2
 16648 155a 90       		.byte	0x90
 16649 155b 40       		.uleb128 0x40
 16650 155c 00000000 		.4byte	0
 16651 1560 00000000 		.4byte	0
 16652              	.LLST78:
 16653 1564 72010000 		.4byte	.LVL418
 16654 1568 79020000 		.4byte	.LVL424-1
 16655 156c 0200     		.2byte	0x2
 16656 156e 90       		.byte	0x90
 16657 156f 40       		.uleb128 0x40
 16658 1570 79020000 		.4byte	.LVL424-1
 16659 1574 A4030000 		.4byte	.LVL432
 16660 1578 0200     		.2byte	0x2
 16661 157a 90       		.byte	0x90
 16662 157b 52       		.uleb128 0x52
 16663 157c FE030000 		.4byte	.LVL440
 16664 1580 2C040000 		.4byte	.LVL445
 16665 1584 0200     		.2byte	0x2
 16666 1586 90       		.byte	0x90
ARM GAS  /var/folders/sv/kgmgr77579zbf78p2zlhkdfr0000gn/T//ccOxe4My.s 			page 295


 16667 1587 40       		.uleb128 0x40
 16668 1588 2C040000 		.4byte	.LVL445
 16669 158c 48040000 		.4byte	.LVL447
 16670 1590 0200     		.2byte	0x2
 16671 1592 90       		.byte	0x90
 16672 1593 52       		.uleb128 0x52
 16673 1594 48040000 		.4byte	.LVL447
 16674 1598 6D040000 		.4byte	.LVL450-1
 16675 159c 0200     		.2byte	0x2
 16676 159e 90       		.byte	0x90
 16677 159f 40       		.uleb128 0x40
 16678 15a0 6D040000 		.4byte	.LVL450-1
 16679 15a4 74040000 		.4byte	.LVL452
 16680 15a8 0200     		.2byte	0x2
 16681 15aa 90       		.byte	0x90
 16682 15ab 52       		.uleb128 0x52
 16683 15ac 74040000 		.4byte	.LVL452
 16684 15b0 77040000 		.4byte	.LVL453-1
 16685 15b4 0200     		.2byte	0x2
 16686 15b6 90       		.byte	0x90
 16687 15b7 40       		.uleb128 0x40
 16688 15b8 77040000 		.4byte	.LVL453-1
 16689 15bc 98040000 		.4byte	.LVL455
 16690 15c0 0200     		.2byte	0x2
 16691 15c2 90       		.byte	0x90
 16692 15c3 52       		.uleb128 0x52
 16693 15c4 BC040000 		.4byte	.LVL459
 16694 15c8 C8040000 		.4byte	.LVL461
 16695 15cc 0200     		.2byte	0x2
 16696 15ce 90       		.byte	0x90
 16697 15cf 40       		.uleb128 0x40
 16698 15d0 D6040000 		.4byte	.LVL465
 16699 15d4 F4040000 		.4byte	.LVL466
 16700 15d8 0200     		.2byte	0x2
 16701 15da 90       		.byte	0x90
 16702 15db 40       		.uleb128 0x40
 16703 15dc F4040000 		.4byte	.LVL466
 16704 15e0 20050000 		.4byte	.LVL468
 16705 15e4 0200     		.2byte	0x2
 16706 15e6 90       		.byte	0x90
 16707 15e7 52       		.uleb128 0x52
 16708 15e8 20050000 		.4byte	.LVL468
 16709 15ec 30050000 		.4byte	.LVL471
 16710 15f0 0200     		.2byte	0x2
 16711 15f2 90       		.byte	0x90
 16712 15f3 40       		.uleb128 0x40
 16713 15f4 30050000 		.4byte	.LVL471
 16714 15f8 BC050000 		.4byte	.LVL473
 16715 15fc 0200     		.2byte	0x2
 16716 15fe 90       		.byte	0x90
 16717 15ff 52       		.uleb128 0x52
 16718 1600 BC050000 		.4byte	.LVL473
 16719 1604 CC050000 		.4byte	.LVL476
 16720 1608 0200     		.2byte	0x2
 16721 160a 90       		.byte	0x90
 16722 160b 40       		.uleb128 0x40
 16723 160c CC050000 		.4byte	.LVL476
ARM GAS  /var/folders/sv/kgmgr77579zbf78p2zlhkdfr0000gn/T//ccOxe4My.s 			page 296


 16724 1610 CE060000 		.4byte	.LVL482
 16725 1614 0200     		.2byte	0x2
 16726 1616 90       		.byte	0x90
 16727 1617 52       		.uleb128 0x52
 16728 1618 CE060000 		.4byte	.LVL482
 16729 161c DD060000 		.4byte	.LVL484-1
 16730 1620 0200     		.2byte	0x2
 16731 1622 90       		.byte	0x90
 16732 1623 40       		.uleb128 0x40
 16733 1624 DD060000 		.4byte	.LVL484-1
 16734 1628 E6060000 		.4byte	.LVL486
 16735 162c 0200     		.2byte	0x2
 16736 162e 90       		.byte	0x90
 16737 162f 52       		.uleb128 0x52
 16738 1630 E6060000 		.4byte	.LVL486
 16739 1634 F5060000 		.4byte	.LVL488-1
 16740 1638 0200     		.2byte	0x2
 16741 163a 90       		.byte	0x90
 16742 163b 40       		.uleb128 0x40
 16743 163c F5060000 		.4byte	.LVL488-1
 16744 1640 FE060000 		.4byte	.LVL490
 16745 1644 0200     		.2byte	0x2
 16746 1646 90       		.byte	0x90
 16747 1647 52       		.uleb128 0x52
 16748 1648 FE060000 		.4byte	.LVL490
 16749 164c 0A070000 		.4byte	.LVL494
 16750 1650 0200     		.2byte	0x2
 16751 1652 90       		.byte	0x90
 16752 1653 40       		.uleb128 0x40
 16753 1654 0A070000 		.4byte	.LVL494
 16754 1658 84070000 		.4byte	.LFE308
 16755 165c 0200     		.2byte	0x2
 16756 165e 90       		.byte	0x90
 16757 165f 52       		.uleb128 0x52
 16758 1660 00000000 		.4byte	0
 16759 1664 00000000 		.4byte	0
 16760              	.LLST79:
 16761 1668 D4010000 		.4byte	.LVL419
 16762 166c 50020000 		.4byte	.LVL420
 16763 1670 0200     		.2byte	0x2
 16764 1672 30       		.byte	0x30
 16765 1673 9F       		.byte	0x9f
 16766 1674 50020000 		.4byte	.LVL420
 16767 1678 80020000 		.4byte	.LVL425
 16768 167c 0200     		.2byte	0x2
 16769 167e 31       		.byte	0x31
 16770 167f 9F       		.byte	0x9f
 16771 1680 FE030000 		.4byte	.LVL440
 16772 1684 3A040000 		.4byte	.LVL446
 16773 1688 0200     		.2byte	0x2
 16774 168a 31       		.byte	0x31
 16775 168b 9F       		.byte	0x9f
 16776 168c 3A040000 		.4byte	.LVL446
 16777 1690 48040000 		.4byte	.LVL447
 16778 1694 0100     		.2byte	0x1
 16779 1696 59       		.byte	0x59
 16780 1697 48040000 		.4byte	.LVL447
ARM GAS  /var/folders/sv/kgmgr77579zbf78p2zlhkdfr0000gn/T//ccOxe4My.s 			page 297


 16781 169b 86040000 		.4byte	.LVL454
 16782 169f 0200     		.2byte	0x2
 16783 16a1 30       		.byte	0x30
 16784 16a2 9F       		.byte	0x9f
 16785 16a3 86040000 		.4byte	.LVL454
 16786 16a7 98040000 		.4byte	.LVL455
 16787 16ab 0200     		.2byte	0x2
 16788 16ad 31       		.byte	0x31
 16789 16ae 9F       		.byte	0x9f
 16790 16af BC040000 		.4byte	.LVL459
 16791 16b3 C8040000 		.4byte	.LVL461
 16792 16b7 0200     		.2byte	0x2
 16793 16b9 31       		.byte	0x31
 16794 16ba 9F       		.byte	0x9f
 16795 16bb 20050000 		.4byte	.LVL468
 16796 16bf 28050000 		.4byte	.LVL470
 16797 16c3 0200     		.2byte	0x2
 16798 16c5 31       		.byte	0x31
 16799 16c6 9F       		.byte	0x9f
 16800 16c7 28050000 		.4byte	.LVL470
 16801 16cb BC050000 		.4byte	.LVL473
 16802 16cf 0200     		.2byte	0x2
 16803 16d1 30       		.byte	0x30
 16804 16d2 9F       		.byte	0x9f
 16805 16d3 BC050000 		.4byte	.LVL473
 16806 16d7 C4050000 		.4byte	.LVL475
 16807 16db 0200     		.2byte	0x2
 16808 16dd 31       		.byte	0x31
 16809 16de 9F       		.byte	0x9f
 16810 16df C4050000 		.4byte	.LVL475
 16811 16e3 DE050000 		.4byte	.LVL477
 16812 16e7 0200     		.2byte	0x2
 16813 16e9 30       		.byte	0x30
 16814 16ea 9F       		.byte	0x9f
 16815 16eb CE060000 		.4byte	.LVL482
 16816 16ef FE060000 		.4byte	.LVL490
 16817 16f3 0200     		.2byte	0x2
 16818 16f5 30       		.byte	0x30
 16819 16f6 9F       		.byte	0x9f
 16820 16f7 FE060000 		.4byte	.LVL490
 16821 16fb 0A070000 		.4byte	.LVL494
 16822 16ff 0200     		.2byte	0x2
 16823 1701 31       		.byte	0x31
 16824 1702 9F       		.byte	0x9f
 16825 1703 0A070000 		.4byte	.LVL494
 16826 1707 1A070000 		.4byte	.LVL495
 16827 170b 0200     		.2byte	0x2
 16828 170d 30       		.byte	0x30
 16829 170e 9F       		.byte	0x9f
 16830 170f 3E070000 		.4byte	.LVL499
 16831 1713 84070000 		.4byte	.LFE308
 16832 1717 0100     		.2byte	0x1
 16833 1719 59       		.byte	0x59
 16834 171a 00000000 		.4byte	0
 16835 171e 00000000 		.4byte	0
 16836              	.LLST80:
 16837 1722 30010000 		.4byte	.LVL411
ARM GAS  /var/folders/sv/kgmgr77579zbf78p2zlhkdfr0000gn/T//ccOxe4My.s 			page 298


 16838 1726 40010000 		.4byte	.LVL413
 16839 172a 0200     		.2byte	0x2
 16840 172c 34       		.byte	0x34
 16841 172d 9F       		.byte	0x9f
 16842 172e B8030000 		.4byte	.LVL435
 16843 1732 C4030000 		.4byte	.LVL436
 16844 1736 0200     		.2byte	0x2
 16845 1738 34       		.byte	0x34
 16846 1739 9F       		.byte	0x9f
 16847 173a 98040000 		.4byte	.LVL455
 16848 173e AA040000 		.4byte	.LVL456
 16849 1742 0200     		.2byte	0x2
 16850 1744 34       		.byte	0x34
 16851 1745 9F       		.byte	0x9f
 16852 1746 00000000 		.4byte	0
 16853 174a 00000000 		.4byte	0
 16854              	.LLST81:
 16855 174e 48010000 		.4byte	.LVL414
 16856 1752 5A010000 		.4byte	.LVL415
 16857 1756 0200     		.2byte	0x2
 16858 1758 33       		.byte	0x33
 16859 1759 9F       		.byte	0x9f
 16860 175a AA040000 		.4byte	.LVL456
 16861 175e B2040000 		.4byte	.LVL458
 16862 1762 0200     		.2byte	0x2
 16863 1764 33       		.byte	0x33
 16864 1765 9F       		.byte	0x9f
 16865 1766 00000000 		.4byte	0
 16866 176a 00000000 		.4byte	0
 16867              	.LLST82:
 16868 176e 50020000 		.4byte	.LVL420
 16869 1772 66020000 		.4byte	.LVL421
 16870 1776 0300     		.2byte	0x3
 16871 1778 09       		.byte	0x9
 16872 1779 FF       		.byte	0xff
 16873 177a 9F       		.byte	0x9f
 16874 177b 66020000 		.4byte	.LVL421
 16875 177f 68020000 		.4byte	.LVL422
 16876 1783 0600     		.2byte	0x6
 16877 1785 73       		.byte	0x73
 16878 1786 00       		.sleb128 0
 16879 1787 72       		.byte	0x72
 16880 1788 00       		.sleb128 0
 16881 1789 1C       		.byte	0x1c
 16882 178a 9F       		.byte	0x9f
 16883 178b 68020000 		.4byte	.LVL422
 16884 178f 79020000 		.4byte	.LVL424-1
 16885 1793 0100     		.2byte	0x1
 16886 1795 53       		.byte	0x53
 16887 1796 BC040000 		.4byte	.LVL459
 16888 179a C2040000 		.4byte	.LVL460
 16889 179e 0300     		.2byte	0x3
 16890 17a0 09       		.byte	0x9
 16891 17a1 FF       		.byte	0xff
 16892 17a2 9F       		.byte	0x9f
 16893 17a3 20050000 		.4byte	.LVL468
 16894 17a7 22050000 		.4byte	.LVL469
ARM GAS  /var/folders/sv/kgmgr77579zbf78p2zlhkdfr0000gn/T//ccOxe4My.s 			page 299


 16895 17ab 0100     		.2byte	0x1
 16896 17ad 53       		.byte	0x53
 16897 17ae FE060000 		.4byte	.LVL490
 16898 17b2 04070000 		.4byte	.LVL492
 16899 17b6 0100     		.2byte	0x1
 16900 17b8 53       		.byte	0x53
 16901 17b9 00000000 		.4byte	0
 16902 17bd 00000000 		.4byte	0
 16903              	.LLST83:
 16904 17c1 E6060000 		.4byte	.LVL486
 16905 17c5 EC060000 		.4byte	.LVL487
 16906 17c9 0300     		.2byte	0x3
 16907 17cb 08       		.byte	0x8
 16908 17cc 20       		.byte	0x20
 16909 17cd 9F       		.byte	0x9f
 16910 17ce 00000000 		.4byte	0
 16911 17d2 00000000 		.4byte	0
 16912              	.LLST84:
 16913 17d6 F6060000 		.4byte	.LVL488
 16914 17da FC060000 		.4byte	.LVL489
 16915 17de 0200     		.2byte	0x2
 16916 17e0 30       		.byte	0x30
 16917 17e1 9F       		.byte	0x9f
 16918 17e2 00000000 		.4byte	0
 16919 17e6 00000000 		.4byte	0
 16920              	.LLST85:
 16921 17ea C2020000 		.4byte	.LVL426
 16922 17ee 38030000 		.4byte	.LVL428
 16923 17f2 0100     		.2byte	0x1
 16924 17f4 55       		.byte	0x55
 16925 17f5 38030000 		.4byte	.LVL428
 16926 17f9 3B030000 		.4byte	.LVL429-1
 16927 17fd 0300     		.2byte	0x3
 16928 17ff 73       		.byte	0x73
 16929 1800 C014     		.sleb128 2624
 16930 1802 1A050000 		.4byte	.LVL467
 16931 1806 20050000 		.4byte	.LVL468
 16932 180a 0100     		.2byte	0x1
 16933 180c 55       		.byte	0x55
 16934 180d 12060000 		.4byte	.LVL479
 16935 1811 CE060000 		.4byte	.LVL482
 16936 1815 0100     		.2byte	0x1
 16937 1817 55       		.byte	0x55
 16938 1818 00000000 		.4byte	0
 16939 181c 00000000 		.4byte	0
 16940              	.LLST86:
 16941 1820 DA030000 		.4byte	.LVL437
 16942 1824 E1030000 		.4byte	.LVL438-1
 16943 1828 0100     		.2byte	0x1
 16944 182a 50       		.byte	0x50
 16945 182b B2040000 		.4byte	.LVL458
 16946 182f BC040000 		.4byte	.LVL459
 16947 1833 0100     		.2byte	0x1
 16948 1835 50       		.byte	0x50
 16949 1836 00000000 		.4byte	0
 16950 183a 00000000 		.4byte	0
 16951              	.LLST87:
ARM GAS  /var/folders/sv/kgmgr77579zbf78p2zlhkdfr0000gn/T//ccOxe4My.s 			page 300


 16952 183e FE030000 		.4byte	.LVL440
 16953 1842 12040000 		.4byte	.LVL441
 16954 1846 0300     		.2byte	0x3
 16955 1848 09       		.byte	0x9
 16956 1849 FF       		.byte	0xff
 16957 184a 9F       		.byte	0x9f
 16958 184b 12040000 		.4byte	.LVL441
 16959 184f 14040000 		.4byte	.LVL442
 16960 1853 0600     		.2byte	0x6
 16961 1855 73       		.byte	0x73
 16962 1856 00       		.sleb128 0
 16963 1857 72       		.byte	0x72
 16964 1858 00       		.sleb128 0
 16965 1859 1C       		.byte	0x1c
 16966 185a 9F       		.byte	0x9f
 16967 185b 14040000 		.4byte	.LVL442
 16968 185f 24040000 		.4byte	.LVL444
 16969 1863 0100     		.2byte	0x1
 16970 1865 53       		.byte	0x53
 16971 1866 C2040000 		.4byte	.LVL460
 16972 186a C8040000 		.4byte	.LVL461
 16973 186e 0300     		.2byte	0x3
 16974 1870 09       		.byte	0x9
 16975 1871 FF       		.byte	0xff
 16976 1872 9F       		.byte	0x9f
 16977 1873 BC050000 		.4byte	.LVL473
 16978 1877 BE050000 		.4byte	.LVL474
 16979 187b 0100     		.2byte	0x1
 16980 187d 53       		.byte	0x53
 16981 187e 04070000 		.4byte	.LVL492
 16982 1882 0A070000 		.4byte	.LVL494
 16983 1886 0100     		.2byte	0x1
 16984 1888 53       		.byte	0x53
 16985 1889 00000000 		.4byte	0
 16986 188d 00000000 		.4byte	0
 16987              	.LLST88:
 16988 1891 CE060000 		.4byte	.LVL482
 16989 1895 D4060000 		.4byte	.LVL483
 16990 1899 0300     		.2byte	0x3
 16991 189b 08       		.byte	0x8
 16992 189c 20       		.byte	0x20
 16993 189d 9F       		.byte	0x9f
 16994 189e 00000000 		.4byte	0
 16995 18a2 00000000 		.4byte	0
 16996              	.LLST89:
 16997 18a6 DE060000 		.4byte	.LVL484
 16998 18aa E4060000 		.4byte	.LVL485
 16999 18ae 0200     		.2byte	0x2
 17000 18b0 30       		.byte	0x30
 17001 18b1 9F       		.byte	0x9f
 17002 18b2 00000000 		.4byte	0
 17003 18b6 00000000 		.4byte	0
 17004              	.LLST90:
 17005 18ba 62040000 		.4byte	.LVL448
 17006 18be 66040000 		.4byte	.LVL449
 17007 18c2 0300     		.2byte	0x3
 17008 18c4 08       		.byte	0x8
ARM GAS  /var/folders/sv/kgmgr77579zbf78p2zlhkdfr0000gn/T//ccOxe4My.s 			page 301


 17009 18c5 20       		.byte	0x20
 17010 18c6 9F       		.byte	0x9f
 17011 18c7 00000000 		.4byte	0
 17012 18cb 00000000 		.4byte	0
 17013              	.LLST91:
 17014 18cf 6E040000 		.4byte	.LVL450
 17015 18d3 72040000 		.4byte	.LVL451
 17016 18d7 0200     		.2byte	0x2
 17017 18d9 30       		.byte	0x30
 17018 18da 9F       		.byte	0x9f
 17019 18db 00000000 		.4byte	0
 17020 18df 00000000 		.4byte	0
 17021              	.LLST92:
 17022 18e3 2C070000 		.4byte	.LVL496
 17023 18e7 30070000 		.4byte	.LVL497
 17024 18eb 0300     		.2byte	0x3
 17025 18ed 08       		.byte	0x8
 17026 18ee 20       		.byte	0x20
 17027 18ef 9F       		.byte	0x9f
 17028 18f0 00000000 		.4byte	0
 17029 18f4 00000000 		.4byte	0
 17030              	.LLST93:
 17031 18f8 3A070000 		.4byte	.LVL498
 17032 18fc 3E070000 		.4byte	.LVL499
 17033 1900 0200     		.2byte	0x2
 17034 1902 30       		.byte	0x30
 17035 1903 9F       		.byte	0x9f
 17036 1904 00000000 		.4byte	0
 17037 1908 00000000 		.4byte	0
 17038              		.section	.debug_aranges,"",%progbits
 17039 0000 EC010000 		.4byte	0x1ec
 17040 0004 0200     		.2byte	0x2
 17041 0006 00000000 		.4byte	.Ldebug_info0
 17042 000a 04       		.byte	0x4
 17043 000b 00       		.byte	0
 17044 000c 0000     		.2byte	0
 17045 000e 0000     		.2byte	0
 17046 0010 00000000 		.4byte	.LFB312
 17047 0014 3C020000 		.4byte	.LFE312-.LFB312
 17048 0018 00000000 		.4byte	.LFB316
 17049 001c 24000000 		.4byte	.LFE316-.LFB316
 17050 0020 00000000 		.4byte	.LFB256
 17051 0024 80010000 		.4byte	.LFE256-.LFB256
 17052 0028 00000000 		.4byte	.LFB257
 17053 002c 08000000 		.4byte	.LFE257-.LFB257
 17054 0030 00000000 		.4byte	.LFB259
 17055 0034 30000000 		.4byte	.LFE259-.LFB259
 17056 0038 00000000 		.4byte	.LFB260
 17057 003c 0C000000 		.4byte	.LFE260-.LFB260
 17058 0040 00000000 		.4byte	.LFB261
 17059 0044 0C000000 		.4byte	.LFE261-.LFB261
 17060 0048 00000000 		.4byte	.LFB262
 17061 004c 0C000000 		.4byte	.LFE262-.LFB262
 17062 0050 00000000 		.4byte	.LFB263
 17063 0054 0C000000 		.4byte	.LFE263-.LFB263
 17064 0058 00000000 		.4byte	.LFB264
 17065 005c 0C000000 		.4byte	.LFE264-.LFB264
ARM GAS  /var/folders/sv/kgmgr77579zbf78p2zlhkdfr0000gn/T//ccOxe4My.s 			page 302


 17066 0060 00000000 		.4byte	.LFB265
 17067 0064 18000000 		.4byte	.LFE265-.LFB265
 17068 0068 00000000 		.4byte	.LFB266
 17069 006c 20000000 		.4byte	.LFE266-.LFB266
 17070 0070 00000000 		.4byte	.LFB279
 17071 0074 4C000000 		.4byte	.LFE279-.LFB279
 17072 0078 00000000 		.4byte	.LFB280
 17073 007c 4C000000 		.4byte	.LFE280-.LFB280
 17074 0080 00000000 		.4byte	.LFB281
 17075 0084 2C000000 		.4byte	.LFE281-.LFB281
 17076 0088 00000000 		.4byte	.LFB282
 17077 008c 4C000000 		.4byte	.LFE282-.LFB282
 17078 0090 00000000 		.4byte	.LFB283
 17079 0094 20000000 		.4byte	.LFE283-.LFB283
 17080 0098 00000000 		.4byte	.LFB284
 17081 009c 20000000 		.4byte	.LFE284-.LFB284
 17082 00a0 00000000 		.4byte	.LFB285
 17083 00a4 20000000 		.4byte	.LFE285-.LFB285
 17084 00a8 00000000 		.4byte	.LFB286
 17085 00ac 20000000 		.4byte	.LFE286-.LFB286
 17086 00b0 00000000 		.4byte	.LFB287
 17087 00b4 2C000000 		.4byte	.LFE287-.LFB287
 17088 00b8 00000000 		.4byte	.LFB288
 17089 00bc 2C000000 		.4byte	.LFE288-.LFB288
 17090 00c0 00000000 		.4byte	.LFB289
 17091 00c4 4C000000 		.4byte	.LFE289-.LFB289
 17092 00c8 00000000 		.4byte	.LFB290
 17093 00cc 4C000000 		.4byte	.LFE290-.LFB290
 17094 00d0 00000000 		.4byte	.LFB291
 17095 00d4 2C000000 		.4byte	.LFE291-.LFB291
 17096 00d8 00000000 		.4byte	.LFB292
 17097 00dc 2C000000 		.4byte	.LFE292-.LFB292
 17098 00e0 00000000 		.4byte	.LFB293
 17099 00e4 6C000000 		.4byte	.LFE293-.LFB293
 17100 00e8 00000000 		.4byte	.LFB317
 17101 00ec 50010000 		.4byte	.LFE317-.LFB317
 17102 00f0 00000000 		.4byte	.LFB318
 17103 00f4 DC050000 		.4byte	.LFE318-.LFB318
 17104 00f8 00000000 		.4byte	.LFB258
 17105 00fc D0000000 		.4byte	.LFE258-.LFB258
 17106 0100 00000000 		.4byte	.LFB311
 17107 0104 50000000 		.4byte	.LFE311-.LFB311
 17108 0108 00000000 		.4byte	.LFB294
 17109 010c 24000000 		.4byte	.LFE294-.LFB294
 17110 0110 00000000 		.4byte	.LFB295
 17111 0114 2C000000 		.4byte	.LFE295-.LFB295
 17112 0118 00000000 		.4byte	.LFB296
 17113 011c 20000000 		.4byte	.LFE296-.LFB296
 17114 0120 00000000 		.4byte	.LFB297
 17115 0124 20000000 		.4byte	.LFE297-.LFB297
 17116 0128 00000000 		.4byte	.LFB298
 17117 012c 40000000 		.4byte	.LFE298-.LFB298
 17118 0130 00000000 		.4byte	.LFB299
 17119 0134 40000000 		.4byte	.LFE299-.LFB299
 17120 0138 00000000 		.4byte	.LFB300
 17121 013c 0C000000 		.4byte	.LFE300-.LFB300
 17122 0140 00000000 		.4byte	.LFB301
ARM GAS  /var/folders/sv/kgmgr77579zbf78p2zlhkdfr0000gn/T//ccOxe4My.s 			page 303


 17123 0144 60000000 		.4byte	.LFE301-.LFB301
 17124 0148 00000000 		.4byte	.LFB302
 17125 014c 0C000000 		.4byte	.LFE302-.LFB302
 17126 0150 00000000 		.4byte	.LFB303
 17127 0154 50000000 		.4byte	.LFE303-.LFB303
 17128 0158 00000000 		.4byte	.LFB304
 17129 015c 0C000000 		.4byte	.LFE304-.LFB304
 17130 0160 00000000 		.4byte	.LFB305
 17131 0164 0C000000 		.4byte	.LFE305-.LFB305
 17132 0168 00000000 		.4byte	.LFB306
 17133 016c 74000000 		.4byte	.LFE306-.LFB306
 17134 0170 00000000 		.4byte	.LFB267
 17135 0174 98000000 		.4byte	.LFE267-.LFB267
 17136 0178 00000000 		.4byte	.LFB277
 17137 017c 0C000000 		.4byte	.LFE277-.LFB277
 17138 0180 00000000 		.4byte	.LFB268
 17139 0184 98000000 		.4byte	.LFE268-.LFB268
 17140 0188 00000000 		.4byte	.LFB269
 17141 018c 98000000 		.4byte	.LFE269-.LFB269
 17142 0190 00000000 		.4byte	.LFB270
 17143 0194 78000000 		.4byte	.LFE270-.LFB270
 17144 0198 00000000 		.4byte	.LFB271
 17145 019c 98000000 		.4byte	.LFE271-.LFB271
 17146 01a0 00000000 		.4byte	.LFB273
 17147 01a4 2C000000 		.4byte	.LFE273-.LFB273
 17148 01a8 00000000 		.4byte	.LFB278
 17149 01ac 0C000000 		.4byte	.LFE278-.LFB278
 17150 01b0 00000000 		.4byte	.LFB272
 17151 01b4 98000000 		.4byte	.LFE272-.LFB272
 17152 01b8 00000000 		.4byte	.LFB274
 17153 01bc 14000000 		.4byte	.LFE274-.LFB274
 17154 01c0 00000000 		.4byte	.LFB275
 17155 01c4 26000000 		.4byte	.LFE275-.LFB275
 17156 01c8 00000000 		.4byte	.LFB276
 17157 01cc 34000000 		.4byte	.LFE276-.LFB276
 17158 01d0 00000000 		.4byte	.LFB307
 17159 01d4 24000000 		.4byte	.LFE307-.LFB307
 17160 01d8 00000000 		.4byte	.LFB308
 17161 01dc 84070000 		.4byte	.LFE308-.LFB308
 17162 01e0 00000000 		.4byte	.LFB309
 17163 01e4 18000000 		.4byte	.LFE309-.LFB309
 17164 01e8 00000000 		.4byte	0
 17165 01ec 00000000 		.4byte	0
 17166              		.section	.debug_ranges,"",%progbits
 17167              	.Ldebug_ranges0:
 17168 0000 04000000 		.4byte	.LBB111
 17169 0004 06000000 		.4byte	.LBE111
 17170 0008 08000000 		.4byte	.LBB115
 17171 000c 16000000 		.4byte	.LBE115
 17172 0010 2A000000 		.4byte	.LBB126
 17173 0014 2C000000 		.4byte	.LBE126
 17174 0018 00000000 		.4byte	0
 17175 001c 00000000 		.4byte	0
 17176 0020 1A000000 		.4byte	.LBB116
 17177 0024 2A000000 		.4byte	.LBE116
 17178 0028 30000000 		.4byte	.LBB127
 17179 002c 3C020000 		.4byte	.LBE127
ARM GAS  /var/folders/sv/kgmgr77579zbf78p2zlhkdfr0000gn/T//ccOxe4My.s 			page 304


 17180 0030 00000000 		.4byte	0
 17181 0034 00000000 		.4byte	0
 17182 0038 1A000000 		.4byte	.LBB117
 17183 003c 2A000000 		.4byte	.LBE117
 17184 0040 5A000000 		.4byte	.LBB123
 17185 0044 62000000 		.4byte	.LBE123
 17186 0048 66000000 		.4byte	.LBB124
 17187 004c E0010000 		.4byte	.LBE124
 17188 0050 E4010000 		.4byte	.LBB125
 17189 0054 3C020000 		.4byte	.LBE125
 17190 0058 00000000 		.4byte	0
 17191 005c 00000000 		.4byte	0
 17192 0060 1A000000 		.4byte	.LBB118
 17193 0064 2A000000 		.4byte	.LBE118
 17194 0068 5A000000 		.4byte	.LBB119
 17195 006c 62000000 		.4byte	.LBE119
 17196 0070 66000000 		.4byte	.LBB120
 17197 0074 D6000000 		.4byte	.LBE120
 17198 0078 D8000000 		.4byte	.LBB121
 17199 007c C0010000 		.4byte	.LBE121
 17200 0080 C6010000 		.4byte	.LBB122
 17201 0084 E0010000 		.4byte	.LBE122
 17202 0088 00000000 		.4byte	0
 17203 008c 00000000 		.4byte	0
 17204 0090 F4020000 		.4byte	.LBB129
 17205 0094 FE020000 		.4byte	.LBE129
 17206 0098 02030000 		.4byte	.LBB135
 17207 009c 04030000 		.4byte	.LBE135
 17208 00a0 08030000 		.4byte	.LBB136
 17209 00a4 0E030000 		.4byte	.LBE136
 17210 00a8 B2050000 		.4byte	.LBB151
 17211 00ac B4050000 		.4byte	.LBE151
 17212 00b0 B8050000 		.4byte	.LBB152
 17213 00b4 BE050000 		.4byte	.LBE152
 17214 00b8 00000000 		.4byte	0
 17215 00bc 00000000 		.4byte	0
 17216 00c0 70030000 		.4byte	.LBB137
 17217 00c4 7A030000 		.4byte	.LBE137
 17218 00c8 7E030000 		.4byte	.LBB143
 17219 00cc 80030000 		.4byte	.LBE143
 17220 00d0 84030000 		.4byte	.LBB144
 17221 00d4 C8030000 		.4byte	.LBE144
 17222 00d8 A0050000 		.4byte	.LBB149
 17223 00dc A2050000 		.4byte	.LBE149
 17224 00e0 A6050000 		.4byte	.LBB150
 17225 00e4 AC050000 		.4byte	.LBE150
 17226 00e8 00000000 		.4byte	0
 17227 00ec 00000000 		.4byte	0
 17228 00f0 6A040000 		.4byte	.LBB146
 17229 00f4 B6040000 		.4byte	.LBE146
 17230 00f8 BA040000 		.4byte	.LBB147
 17231 00fc EE040000 		.4byte	.LBE147
 17232 0100 80050000 		.4byte	.LBB148
 17233 0104 A0050000 		.4byte	.LBE148
 17234 0108 00000000 		.4byte	0
 17235 010c 00000000 		.4byte	0
 17236 0110 00000000 		.4byte	.LBB153
ARM GAS  /var/folders/sv/kgmgr77579zbf78p2zlhkdfr0000gn/T//ccOxe4My.s 			page 305


 17237 0114 0C000000 		.4byte	.LBE153
 17238 0118 12000000 		.4byte	.LBB156
 17239 011c 14000000 		.4byte	.LBE156
 17240 0120 00000000 		.4byte	0
 17241 0124 00000000 		.4byte	0
 17242 0128 4A000000 		.4byte	.LBB159
 17243 012c 62000000 		.4byte	.LBE159
 17244 0130 6A000000 		.4byte	.LBB162
 17245 0134 6E000000 		.4byte	.LBE162
 17246 0138 00000000 		.4byte	0
 17247 013c 00000000 		.4byte	0
 17248 0140 4A000000 		.4byte	.LBB165
 17249 0144 62000000 		.4byte	.LBE165
 17250 0148 6A000000 		.4byte	.LBB168
 17251 014c 6E000000 		.4byte	.LBE168
 17252 0150 00000000 		.4byte	0
 17253 0154 00000000 		.4byte	0
 17254 0158 4A000000 		.4byte	.LBB171
 17255 015c 62000000 		.4byte	.LBE171
 17256 0160 6A000000 		.4byte	.LBB174
 17257 0164 6E000000 		.4byte	.LBE174
 17258 0168 00000000 		.4byte	0
 17259 016c 00000000 		.4byte	0
 17260 0170 10000000 		.4byte	.LBB175
 17261 0174 16000000 		.4byte	.LBE175
 17262 0178 1C000000 		.4byte	.LBB179
 17263 017c 24000000 		.4byte	.LBE179
 17264 0180 2C000000 		.4byte	.LBB180
 17265 0184 34000000 		.4byte	.LBE180
 17266 0188 00000000 		.4byte	0
 17267 018c 00000000 		.4byte	0
 17268 0190 30010000 		.4byte	.LBB181
 17269 0194 3A010000 		.4byte	.LBE181
 17270 0198 B8030000 		.4byte	.LBB210
 17271 019c C4030000 		.4byte	.LBE210
 17272 01a0 98040000 		.4byte	.LBB244
 17273 01a4 A0040000 		.4byte	.LBE244
 17274 01a8 00000000 		.4byte	0
 17275 01ac 00000000 		.4byte	0
 17276 01b0 48010000 		.4byte	.LBB187
 17277 01b4 5A010000 		.4byte	.LBE187
 17278 01b8 AA040000 		.4byte	.LBB245
 17279 01bc B2040000 		.4byte	.LBE245
 17280 01c0 00000000 		.4byte	0
 17281 01c4 00000000 		.4byte	0
 17282 01c8 74010000 		.4byte	.LBB190
 17283 01cc D4010000 		.4byte	.LBE190
 17284 01d0 D6040000 		.4byte	.LBB249
 17285 01d4 F4040000 		.4byte	.LBE249
 17286 01d8 00000000 		.4byte	0
 17287 01dc 00000000 		.4byte	0
 17288 01e0 50020000 		.4byte	.LBB191
 17289 01e4 80020000 		.4byte	.LBE191
 17290 01e8 BC040000 		.4byte	.LBB247
 17291 01ec C2040000 		.4byte	.LBE247
 17292 01f0 20050000 		.4byte	.LBB251
 17293 01f4 42050000 		.4byte	.LBE251
ARM GAS  /var/folders/sv/kgmgr77579zbf78p2zlhkdfr0000gn/T//ccOxe4My.s 			page 306


 17294 01f8 E6060000 		.4byte	.LBB255
 17295 01fc 04070000 		.4byte	.LBE255
 17296 0200 00000000 		.4byte	0
 17297 0204 00000000 		.4byte	0
 17298 0208 80020000 		.4byte	.LBB202
 17299 020c 9E030000 		.4byte	.LBE202
 17300 0210 F4040000 		.4byte	.LBB250
 17301 0214 20050000 		.4byte	.LBE250
 17302 0218 DE050000 		.4byte	.LBB253
 17303 021c CE060000 		.4byte	.LBE253
 17304 0220 00000000 		.4byte	0
 17305 0224 00000000 		.4byte	0
 17306 0228 92020000 		.4byte	.LBB203
 17307 022c 9E030000 		.4byte	.LBE203
 17308 0230 F4040000 		.4byte	.LBB208
 17309 0234 20050000 		.4byte	.LBE208
 17310 0238 DE050000 		.4byte	.LBB209
 17311 023c CE060000 		.4byte	.LBE209
 17312 0240 00000000 		.4byte	0
 17313 0244 00000000 		.4byte	0
 17314 0248 94030000 		.4byte	.LBB204
 17315 024c 96030000 		.4byte	.LBE204
 17316 0250 9A030000 		.4byte	.LBB207
 17317 0254 9C030000 		.4byte	.LBE207
 17318 0258 00000000 		.4byte	0
 17319 025c 00000000 		.4byte	0
 17320 0260 C8030000 		.4byte	.LBB211
 17321 0264 CA030000 		.4byte	.LBE211
 17322 0268 D2030000 		.4byte	.LBB216
 17323 026c D4030000 		.4byte	.LBE216
 17324 0270 DA030000 		.4byte	.LBB217
 17325 0274 E2030000 		.4byte	.LBE217
 17326 0278 B2040000 		.4byte	.LBB246
 17327 027c BC040000 		.4byte	.LBE246
 17328 0280 00000000 		.4byte	0
 17329 0284 00000000 		.4byte	0
 17330 0288 FE030000 		.4byte	.LBB218
 17331 028c 40040000 		.4byte	.LBE218
 17332 0290 C2040000 		.4byte	.LBB248
 17333 0294 C8040000 		.4byte	.LBE248
 17334 0298 42050000 		.4byte	.LBB252
 17335 029c DE050000 		.4byte	.LBE252
 17336 02a0 CE060000 		.4byte	.LBB254
 17337 02a4 E6060000 		.4byte	.LBE254
 17338 02a8 04070000 		.4byte	.LBB256
 17339 02ac 0A070000 		.4byte	.LBE256
 17340 02b0 00000000 		.4byte	0
 17341 02b4 00000000 		.4byte	0
 17342 02b8 5E040000 		.4byte	.LBB229
 17343 02bc 60040000 		.4byte	.LBE229
 17344 02c0 62040000 		.4byte	.LBB238
 17345 02c4 66040000 		.4byte	.LBE238
 17346 02c8 00000000 		.4byte	0
 17347 02cc 00000000 		.4byte	0
 17348 02d0 26070000 		.4byte	.LBB257
 17349 02d4 28070000 		.4byte	.LBE257
 17350 02d8 2C070000 		.4byte	.LBB266
ARM GAS  /var/folders/sv/kgmgr77579zbf78p2zlhkdfr0000gn/T//ccOxe4My.s 			page 307


 17351 02dc 30070000 		.4byte	.LBE266
 17352 02e0 00000000 		.4byte	0
 17353 02e4 00000000 		.4byte	0
 17354 02e8 00000000 		.4byte	.LFB312
 17355 02ec 3C020000 		.4byte	.LFE312
 17356 02f0 00000000 		.4byte	.LFB316
 17357 02f4 24000000 		.4byte	.LFE316
 17358 02f8 00000000 		.4byte	.LFB256
 17359 02fc 80010000 		.4byte	.LFE256
 17360 0300 00000000 		.4byte	.LFB257
 17361 0304 08000000 		.4byte	.LFE257
 17362 0308 00000000 		.4byte	.LFB259
 17363 030c 30000000 		.4byte	.LFE259
 17364 0310 00000000 		.4byte	.LFB260
 17365 0314 0C000000 		.4byte	.LFE260
 17366 0318 00000000 		.4byte	.LFB261
 17367 031c 0C000000 		.4byte	.LFE261
 17368 0320 00000000 		.4byte	.LFB262
 17369 0324 0C000000 		.4byte	.LFE262
 17370 0328 00000000 		.4byte	.LFB263
 17371 032c 0C000000 		.4byte	.LFE263
 17372 0330 00000000 		.4byte	.LFB264
 17373 0334 0C000000 		.4byte	.LFE264
 17374 0338 00000000 		.4byte	.LFB265
 17375 033c 18000000 		.4byte	.LFE265
 17376 0340 00000000 		.4byte	.LFB266
 17377 0344 20000000 		.4byte	.LFE266
 17378 0348 00000000 		.4byte	.LFB279
 17379 034c 4C000000 		.4byte	.LFE279
 17380 0350 00000000 		.4byte	.LFB280
 17381 0354 4C000000 		.4byte	.LFE280
 17382 0358 00000000 		.4byte	.LFB281
 17383 035c 2C000000 		.4byte	.LFE281
 17384 0360 00000000 		.4byte	.LFB282
 17385 0364 4C000000 		.4byte	.LFE282
 17386 0368 00000000 		.4byte	.LFB283
 17387 036c 20000000 		.4byte	.LFE283
 17388 0370 00000000 		.4byte	.LFB284
 17389 0374 20000000 		.4byte	.LFE284
 17390 0378 00000000 		.4byte	.LFB285
 17391 037c 20000000 		.4byte	.LFE285
 17392 0380 00000000 		.4byte	.LFB286
 17393 0384 20000000 		.4byte	.LFE286
 17394 0388 00000000 		.4byte	.LFB287
 17395 038c 2C000000 		.4byte	.LFE287
 17396 0390 00000000 		.4byte	.LFB288
 17397 0394 2C000000 		.4byte	.LFE288
 17398 0398 00000000 		.4byte	.LFB289
 17399 039c 4C000000 		.4byte	.LFE289
 17400 03a0 00000000 		.4byte	.LFB290
 17401 03a4 4C000000 		.4byte	.LFE290
 17402 03a8 00000000 		.4byte	.LFB291
 17403 03ac 2C000000 		.4byte	.LFE291
 17404 03b0 00000000 		.4byte	.LFB292
 17405 03b4 2C000000 		.4byte	.LFE292
 17406 03b8 00000000 		.4byte	.LFB293
 17407 03bc 6C000000 		.4byte	.LFE293
ARM GAS  /var/folders/sv/kgmgr77579zbf78p2zlhkdfr0000gn/T//ccOxe4My.s 			page 308


 17408 03c0 00000000 		.4byte	.LFB317
 17409 03c4 50010000 		.4byte	.LFE317
 17410 03c8 00000000 		.4byte	.LFB318
 17411 03cc DC050000 		.4byte	.LFE318
 17412 03d0 00000000 		.4byte	.LFB258
 17413 03d4 D0000000 		.4byte	.LFE258
 17414 03d8 00000000 		.4byte	.LFB311
 17415 03dc 50000000 		.4byte	.LFE311
 17416 03e0 00000000 		.4byte	.LFB294
 17417 03e4 24000000 		.4byte	.LFE294
 17418 03e8 00000000 		.4byte	.LFB295
 17419 03ec 2C000000 		.4byte	.LFE295
 17420 03f0 00000000 		.4byte	.LFB296
 17421 03f4 20000000 		.4byte	.LFE296
 17422 03f8 00000000 		.4byte	.LFB297
 17423 03fc 20000000 		.4byte	.LFE297
 17424 0400 00000000 		.4byte	.LFB298
 17425 0404 40000000 		.4byte	.LFE298
 17426 0408 00000000 		.4byte	.LFB299
 17427 040c 40000000 		.4byte	.LFE299
 17428 0410 00000000 		.4byte	.LFB300
 17429 0414 0C000000 		.4byte	.LFE300
 17430 0418 00000000 		.4byte	.LFB301
 17431 041c 60000000 		.4byte	.LFE301
 17432 0420 00000000 		.4byte	.LFB302
 17433 0424 0C000000 		.4byte	.LFE302
 17434 0428 00000000 		.4byte	.LFB303
 17435 042c 50000000 		.4byte	.LFE303
 17436 0430 00000000 		.4byte	.LFB304
 17437 0434 0C000000 		.4byte	.LFE304
 17438 0438 00000000 		.4byte	.LFB305
 17439 043c 0C000000 		.4byte	.LFE305
 17440 0440 00000000 		.4byte	.LFB306
 17441 0444 74000000 		.4byte	.LFE306
 17442 0448 00000000 		.4byte	.LFB267
 17443 044c 98000000 		.4byte	.LFE267
 17444 0450 00000000 		.4byte	.LFB277
 17445 0454 0C000000 		.4byte	.LFE277
 17446 0458 00000000 		.4byte	.LFB268
 17447 045c 98000000 		.4byte	.LFE268
 17448 0460 00000000 		.4byte	.LFB269
 17449 0464 98000000 		.4byte	.LFE269
 17450 0468 00000000 		.4byte	.LFB270
 17451 046c 78000000 		.4byte	.LFE270
 17452 0470 00000000 		.4byte	.LFB271
 17453 0474 98000000 		.4byte	.LFE271
 17454 0478 00000000 		.4byte	.LFB273
 17455 047c 2C000000 		.4byte	.LFE273
 17456 0480 00000000 		.4byte	.LFB278
 17457 0484 0C000000 		.4byte	.LFE278
 17458 0488 00000000 		.4byte	.LFB272
 17459 048c 98000000 		.4byte	.LFE272
 17460 0490 00000000 		.4byte	.LFB274
 17461 0494 14000000 		.4byte	.LFE274
 17462 0498 00000000 		.4byte	.LFB275
 17463 049c 26000000 		.4byte	.LFE275
 17464 04a0 00000000 		.4byte	.LFB276
ARM GAS  /var/folders/sv/kgmgr77579zbf78p2zlhkdfr0000gn/T//ccOxe4My.s 			page 309


 17465 04a4 34000000 		.4byte	.LFE276
 17466 04a8 00000000 		.4byte	.LFB307
 17467 04ac 24000000 		.4byte	.LFE307
 17468 04b0 00000000 		.4byte	.LFB308
 17469 04b4 84070000 		.4byte	.LFE308
 17470 04b8 00000000 		.4byte	.LFB309
 17471 04bc 18000000 		.4byte	.LFE309
 17472 04c0 00000000 		.4byte	0
 17473 04c4 00000000 		.4byte	0
 17474              		.section	.debug_line,"",%progbits
 17475              	.Ldebug_line0:
 17476 0000 010E0000 		.section	.debug_str,"MS",%progbits,1
 17476      0200B903 
 17476      00000201 
 17476      FB0E0D00 
 17476      01010101 
 17477              	.LASF105:
 17478 0000 706F7274 		.ascii	"port_intctx\000"
 17478      5F696E74 
 17478      63747800 
 17479              	.LASF187:
 17480 000c 6C5F6D61 		.ascii	"l_max_erpm_fbrake\000"
 17480      785F6572 
 17480      706D5F66 
 17480      6272616B 
 17480      6500
 17481              	.LASF183:
 17482 001e 6C5F6162 		.ascii	"l_abs_current_max\000"
 17482      735F6375 
 17482      7272656E 
 17482      745F6D61 
 17482      7800
 17483              	.LASF473:
 17484 0030 6D5F706F 		.ascii	"m_position_set\000"
 17484      73697469 
 17484      6F6E5F73 
 17484      657400
 17485              	.LASF564:
 17486 003f 656E636F 		.ascii	"encoder_deinit\000"
 17486      6465725F 
 17486      6465696E 
 17486      697400
 17487              	.LASF538:
 17488 004e 6D637077 		.ascii	"mcpwm_get_tot_current_filtered\000"
 17488      6D5F6765 
 17488      745F746F 
 17488      745F6375 
 17488      7272656E 
 17489              	.LASF31:
 17490 006d 6D73675F 		.ascii	"msg_t\000"
 17490      7400
 17491              	.LASF302:
 17492 0073 434F4D4D 		.ascii	"COMM_DETECT_HALL_FOC\000"
 17492      5F444554 
 17492      4543545F 
 17492      48414C4C 
 17492      5F464F43 
ARM GAS  /var/folders/sv/kgmgr77579zbf78p2zlhkdfr0000gn/T//ccOxe4My.s 			page 310


 17493              	.LASF229:
 17494 0088 666F635F 		.ascii	"foc_observer_gain_slow\000"
 17494      6F627365 
 17494      72766572 
 17494      5F676169 
 17494      6E5F736C 
 17495              	.LASF504:
 17496 009f 62756666 		.ascii	"buffer_append_float32_auto\000"
 17496      65725F61 
 17496      7070656E 
 17496      645F666C 
 17496      6F617433 
 17497              	.LASF83:
 17498 00ba 63685F73 		.ascii	"ch_system_t\000"
 17498      79737465 
 17498      6D5F7400 
 17499              	.LASF3:
 17500 00c6 5F5F7569 		.ascii	"__uint8_t\000"
 17500      6E74385F 
 17500      7400
 17501              	.LASF112:
 17502 00d0 77747365 		.ascii	"wtsemp\000"
 17502      6D7000
 17503              	.LASF272:
 17504 00d7 5F426F6F 		.ascii	"_Bool\000"
 17504      6C00
 17505              	.LASF397:
 17506 00dd 6D635F69 		.ascii	"mc_interface_dccal_done\000"
 17506      6E746572 
 17506      66616365 
 17506      5F646363 
 17506      616C5F64 
 17507              	.LASF447:
 17508 00f5 6162735F 		.ascii	"abs_current_filtered\000"
 17508      63757272 
 17508      656E745F 
 17508      66696C74 
 17508      65726564 
 17509              	.LASF79:
 17510 010a 76745F73 		.ascii	"vt_systime\000"
 17510      79737469 
 17510      6D6500
 17511              	.LASF267:
 17512 0115 6D5F6472 		.ascii	"m_drv8301_oc_adj\000"
 17512      76383330 
 17512      315F6F63 
 17512      5F61646A 
 17512      00
 17513              	.LASF121:
 17514 0126 6D5F6E65 		.ascii	"m_next\000"
 17514      787400
 17515              	.LASF362:
 17516 012d 6C6F5F6D 		.ascii	"lo_min_mos\000"
 17516      696E5F6D 
 17516      6F7300
 17517              	.LASF193:
 17518 0138 6C5F736C 		.ascii	"l_slow_abs_current\000"
ARM GAS  /var/folders/sv/kgmgr77579zbf78p2zlhkdfr0000gn/T//ccOxe4My.s 			page 311


 17518      6F775F61 
 17518      62735F63 
 17518      75727265 
 17518      6E7400
 17519              	.LASF182:
 17520 014b 6C5F696E 		.ascii	"l_in_current_min\000"
 17520      5F637572 
 17520      72656E74 
 17520      5F6D696E 
 17520      00
 17521              	.LASF99:
 17522 015c 42445452 		.ascii	"BDTR\000"
 17522      00
 17523              	.LASF20:
 17524 0161 75696E74 		.ascii	"uint16_t\000"
 17524      31365F74 
 17524      00
 17525              	.LASF573:
 17526 016a 6D637077 		.ascii	"mcpwm_foc_get_tachometer_abs_value\000"
 17526      6D5F666F 
 17526      635F6765 
 17526      745F7461 
 17526      63686F6D 
 17527              	.LASF591:
 17528 018d 6D637077 		.ascii	"mcpwm_set_duty_noramp\000"
 17528      6D5F7365 
 17528      745F6475 
 17528      74795F6E 
 17528      6F72616D 
 17529              	.LASF556:
 17530 01a3 6D637077 		.ascii	"mcpwm_get_comm_step\000"
 17530      6D5F6765 
 17530      745F636F 
 17530      6D6D5F73 
 17530      74657000 
 17531              	.LASF528:
 17532 01b7 6D637077 		.ascii	"mcpwm_atc_get_sampling_frequency_now\000"
 17532      6D5F6174 
 17532      635F6765 
 17532      745F7361 
 17532      6D706C69 
 17533              	.LASF367:
 17534 01dc 74656D70 		.ascii	"temp_motor_accel_start\000"
 17534      5F6D6F74 
 17534      6F725F61 
 17534      6363656C 
 17534      5F737461 
 17535              	.LASF546:
 17536 01f3 6D637077 		.ascii	"mcpwm_atc_get_tot_current_in\000"
 17536      6D5F6174 
 17536      635F6765 
 17536      745F746F 
 17536      745F6375 
 17537              	.LASF256:
 17538 0210 63635F73 		.ascii	"cc_startup_boost_duty\000"
 17538      74617274 
 17538      75705F62 
ARM GAS  /var/folders/sv/kgmgr77579zbf78p2zlhkdfr0000gn/T//ccOxe4My.s 			page 312


 17538      6F6F7374 
 17538      5F647574 
 17539              	.LASF493:
 17540 0226 70776D5F 		.ascii	"pwm_done_func\000"
 17540      646F6E65 
 17540      5F66756E 
 17540      6300
 17541              	.LASF60:
 17542 0234 63685F74 		.ascii	"ch_threads_queue\000"
 17542      68726561 
 17542      64735F71 
 17542      75657565 
 17542      00
 17543              	.LASF184:
 17544 0245 6C5F6D69 		.ascii	"l_min_erpm\000"
 17544      6E5F6572 
 17544      706D00
 17545              	.LASF40:
 17546 0250 705F6E65 		.ascii	"p_newer\000"
 17546      77657200 
 17547              	.LASF393:
 17548 0258 6D635F69 		.ascii	"mc_interface_unlock\000"
 17548      6E746572 
 17548      66616365 
 17548      5F756E6C 
 17548      6F636B00 
 17549              	.LASF512:
 17550 026c 6D637077 		.ascii	"mcpwm_foc_init\000"
 17550      6D5F666F 
 17550      635F696E 
 17550      697400
 17551              	.LASF222:
 17552 027b 666F635F 		.ascii	"foc_encoder_offset\000"
 17552      656E636F 
 17552      6465725F 
 17552      6F666673 
 17552      657400
 17553              	.LASF411:
 17554 028e 6D635F69 		.ascii	"mc_interface_get_tot_current_directional\000"
 17554      6E746572 
 17554      66616365 
 17554      5F676574 
 17554      5F746F74 
 17555              	.LASF547:
 17556 02b7 6D637077 		.ascii	"mcpwm_get_tot_current_in\000"
 17556      6D5F6765 
 17556      745F746F 
 17556      745F6375 
 17556      7272656E 
 17557              	.LASF125:
 17558 02d0 4D435F53 		.ascii	"MC_STATE_DETECTING\000"
 17558      54415445 
 17558      5F444554 
 17558      45435449 
 17558      4E4700
 17559              	.LASF444:
 17560 02e3 77726F6E 		.ascii	"wrong_voltage_iterations\000"
ARM GAS  /var/folders/sv/kgmgr77579zbf78p2zlhkdfr0000gn/T//ccOxe4My.s 			page 313


 17560      675F766F 
 17560      6C746167 
 17560      655F6974 
 17560      65726174 
 17561              	.LASF361:
 17562 02fc 6C6F5F6D 		.ascii	"lo_max_mos\000"
 17562      61785F6D 
 17562      6F7300
 17563              	.LASF195:
 17564 0307 6C5F7465 		.ascii	"l_temp_fet_end\000"
 17564      6D705F66 
 17564      65745F65 
 17564      6E6400
 17565              	.LASF514:
 17566 0316 6D637077 		.ascii	"mcpwm_init\000"
 17566      6D5F696E 
 17566      697400
 17567              	.LASF328:
 17568 0321 4F545950 		.ascii	"OTYPER\000"
 17568      455200
 17569              	.LASF521:
 17570 0328 6D637077 		.ascii	"mcpwm_foc_get_duty_cycle_set\000"
 17570      6D5F666F 
 17570      635F6765 
 17570      745F6475 
 17570      74795F63 
 17571              	.LASF418:
 17572 0345 74696D65 		.ascii	"timer_thread\000"
 17572      725F7468 
 17572      72656164 
 17572      00
 17573              	.LASF35:
 17574 0352 74687265 		.ascii	"thread_t\000"
 17574      61645F74 
 17574      00
 17575              	.LASF78:
 17576 035b 63685F76 		.ascii	"ch_virtual_timers_list\000"
 17576      69727475 
 17576      616C5F74 
 17576      696D6572 
 17576      735F6C69 
 17577              	.LASF21:
 17578 0372 696E7433 		.ascii	"int32_t\000"
 17578      325F7400 
 17579              	.LASF34:
 17580 037a 73797374 		.ascii	"systime_t\000"
 17580      696D655F 
 17580      7400
 17581              	.LASF287:
 17582 0384 434F4D4D 		.ascii	"COMM_SET_MCCONF\000"
 17582      5F534554 
 17582      5F4D4343 
 17582      4F4E4600 
 17583              	.LASF161:
 17584 0394 44525638 		.ascii	"DRV8301_OC_LIMIT\000"
 17584      3330315F 
 17584      4F435F4C 
ARM GAS  /var/folders/sv/kgmgr77579zbf78p2zlhkdfr0000gn/T//ccOxe4My.s 			page 314


 17584      494D4954 
 17584      00
 17585              	.LASF561:
 17586 03a5 6D637077 		.ascii	"mcpwm_stop_pwm\000"
 17586      6D5F7374 
 17586      6F705F70 
 17586      776D00
 17587              	.LASF154:
 17588 03b4 4641554C 		.ascii	"FAULT_CODE_OVER_TEMP_FET\000"
 17588      545F434F 
 17588      44455F4F 
 17588      5645525F 
 17588      54454D50 
 17589              	.LASF448:
 17590 03cd 665F7361 		.ascii	"f_samp\000"
 17590      6D7000
 17591              	.LASF127:
 17592 03d4 4D435F53 		.ascii	"MC_STATE_FULL_BRAKE\000"
 17592      54415445 
 17592      5F46554C 
 17592      4C5F4252 
 17592      414B4500 
 17593              	.LASF131:
 17594 03e8 50574D5F 		.ascii	"PWM_MODE_BIPOLAR\000"
 17594      4D4F4445 
 17594      5F424950 
 17594      4F4C4152 
 17594      00
 17595              	.LASF132:
 17596 03f9 6D635F70 		.ascii	"mc_pwm_mode\000"
 17596      776D5F6D 
 17596      6F646500 
 17597              	.LASF579:
 17598 0405 6D637077 		.ascii	"mcpwm_foc_get_pid_pos_now\000"
 17598      6D5F666F 
 17598      635F6765 
 17598      745F7069 
 17598      645F706F 
 17599              	.LASF494:
 17600 041f 74696D65 		.ascii	"timer_thread_wa\000"
 17600      725F7468 
 17600      72656164 
 17600      5F776100 
 17601              	.LASF603:
 17602 042f 63684576 		.ascii	"chEvtSignalI\000"
 17602      74536967 
 17602      6E616C49 
 17602      00
 17603              	.LASF376:
 17604 043c 72706D5F 		.ascii	"rpm_neg_cut_end\000"
 17604      6E65675F 
 17604      6375745F 
 17604      656E6400 
 17605              	.LASF508:
 17606 044c 6D637077 		.ascii	"mcpwm_atc_set_brake_current\000"
 17606      6D5F6174 
 17606      635F7365 
ARM GAS  /var/folders/sv/kgmgr77579zbf78p2zlhkdfr0000gn/T//ccOxe4My.s 			page 315


 17606      745F6272 
 17606      616B655F 
 17607              	.LASF86:
 17608 0468 76746C69 		.ascii	"vtlist\000"
 17608      737400
 17609              	.LASF370:
 17610 046f 6C6F5F6D 		.ascii	"lo_motor_temp_accel\000"
 17610      6F746F72 
 17610      5F74656D 
 17610      705F6163 
 17610      63656C00 
 17611              	.LASF48:
 17612 0483 705F7761 		.ascii	"p_waiting\000"
 17612      6974696E 
 17612      6700
 17613              	.LASF386:
 17614 048d 696E6465 		.ascii	"index\000"
 17614      7800
 17615              	.LASF303:
 17616 0493 434F4D4D 		.ascii	"COMM_REBOOT\000"
 17616      5F524542 
 17616      4F4F5400 
 17617              	.LASF85:
 17618 049f 726C6973 		.ascii	"rlist\000"
 17618      7400
 17619              	.LASF56:
 17620 04a5 74687265 		.ascii	"threads_list_t\000"
 17620      6164735F 
 17620      6C697374 
 17620      5F7400
 17621              	.LASF210:
 17622 04b4 736C5F6D 		.ascii	"sl_min_erpm_cycle_int_limit\000"
 17622      696E5F65 
 17622      72706D5F 
 17622      6379636C 
 17622      655F696E 
 17623              	.LASF219:
 17624 04d0 666F635F 		.ascii	"foc_current_ki\000"
 17624      63757272 
 17624      656E745F 
 17624      6B6900
 17625              	.LASF218:
 17626 04df 666F635F 		.ascii	"foc_current_kp\000"
 17626      63757272 
 17626      656E745F 
 17626      6B7000
 17627              	.LASF482:
 17628 04ee 6D5F7374 		.ascii	"m_status_samples\000"
 17628      61747573 
 17628      5F73616D 
 17628      706C6573 
 17628      00
 17629              	.LASF507:
 17630 04ff 6D637077 		.ascii	"mcpwm_foc_set_handbrake\000"
 17630      6D5F666F 
 17630      635F7365 
 17630      745F6861 
ARM GAS  /var/folders/sv/kgmgr77579zbf78p2zlhkdfr0000gn/T//ccOxe4My.s 			page 316


 17630      6E646272 
 17631              	.LASF353:
 17632 0517 63757272 		.ascii	"current_samp\000"
 17632      656E745F 
 17632      73616D70 
 17632      00
 17633              	.LASF271:
 17634 0524 6D5F6E74 		.ascii	"m_ntc_motor_beta\000"
 17634      635F6D6F 
 17634      746F725F 
 17634      62657461 
 17634      00
 17635              	.LASF352:
 17636 0535 76616C5F 		.ascii	"val_samp\000"
 17636      73616D70 
 17636      00
 17637              	.LASF566:
 17638 053e 6D637077 		.ascii	"mcpwm_foc_set_configuration\000"
 17638      6D5F666F 
 17638      635F7365 
 17638      745F636F 
 17638      6E666967 
 17639              	.LASF30:
 17640 055a 74707269 		.ascii	"tprio_t\000"
 17640      6F5F7400 
 17641              	.LASF553:
 17642 0562 6D637077 		.ascii	"mcpwm_get_tachometer_value\000"
 17642      6D5F6765 
 17642      745F7461 
 17642      63686F6D 
 17642      65746572 
 17643              	.LASF544:
 17644 057d 6D637077 		.ascii	"mcpwm_get_tot_current_directional_filtered\000"
 17644      6D5F6765 
 17644      745F746F 
 17644      745F6375 
 17644      7272656E 
 17645              	.LASF414:
 17646 05a8 6D635F69 		.ascii	"mc_interface_get_tot_current_in_filtered\000"
 17646      6E746572 
 17646      66616365 
 17646      5F676574 
 17646      5F746F74 
 17647              	.LASF453:
 17648 05d1 7A65726F 		.ascii	"zero\000"
 17648      00
 17649              	.LASF384:
 17650 05d6 6D617863 		.ascii	"maxc\000"
 17650      00
 17651              	.LASF94:
 17652 05db 43434552 		.ascii	"CCER\000"
 17652      00
 17653              	.LASF141:
 17654 05e0 464F435F 		.ascii	"FOC_SENSOR_MODE_ENCODER\000"
 17654      53454E53 
 17654      4F525F4D 
 17654      4F44455F 
ARM GAS  /var/folders/sv/kgmgr77579zbf78p2zlhkdfr0000gn/T//ccOxe4My.s 			page 317


 17654      454E434F 
 17655              	.LASF456:
 17656 05f8 6D5F6661 		.ascii	"m_fault_now\000"
 17656      756C745F 
 17656      6E6F7700 
 17657              	.LASF452:
 17658 0604 73616D70 		.ascii	"sample_last\000"
 17658      6C655F6C 
 17658      61737400 
 17659              	.LASF468:
 17660 0610 6D5F6D6F 		.ascii	"m_motor_iq_iterations\000"
 17660      746F725F 
 17660      69715F69 
 17660      74657261 
 17660      74696F6E 
 17661              	.LASF382:
 17662 0626 6C6F5F69 		.ascii	"lo_in_max\000"
 17662      6E5F6D61 
 17662      7800
 17663              	.LASF163:
 17664 0630 44525638 		.ascii	"DRV8301_OC_REPORT_ONLY\000"
 17664      3330315F 
 17664      4F435F52 
 17664      45504F52 
 17664      545F4F4E 
 17665              	.LASF5:
 17666 0647 5F5F696E 		.ascii	"__int16_t\000"
 17666      7431365F 
 17666      7400
 17667              	.LASF475:
 17668 0651 6D5F7465 		.ascii	"m_temp_motor\000"
 17668      6D705F6D 
 17668      6F746F72 
 17668      00
 17669              	.LASF7:
 17670 065e 5F5F7569 		.ascii	"__uint16_t\000"
 17670      6E743136 
 17670      5F7400
 17671              	.LASF293:
 17672 0669 434F4D4D 		.ascii	"COMM_SAMPLE_PRINT\000"
 17672      5F53414D 
 17672      504C455F 
 17672      5052494E 
 17672      5400
 17673              	.LASF50:
 17674 067b 705F6D73 		.ascii	"p_msg\000"
 17674      6700
 17675              	.LASF525:
 17676 0681 6D637077 		.ascii	"mcpwm_atc_get_duty_cycle_now\000"
 17676      6D5F6174 
 17676      635F6765 
 17676      745F6475 
 17676      74795F63 
 17677              	.LASF260:
 17678 069e 6D5F6661 		.ascii	"m_fault_stop_time_ms\000"
 17678      756C745F 
 17678      73746F70 
ARM GAS  /var/folders/sv/kgmgr77579zbf78p2zlhkdfr0000gn/T//ccOxe4My.s 			page 318


 17678      5F74696D 
 17678      655F6D73 
 17679              	.LASF436:
 17680 06b3 6D635F69 		.ascii	"mc_interface_set_pid_speed\000"
 17680      6E746572 
 17680      66616365 
 17680      5F736574 
 17680      5F706964 
 17681              	.LASF460:
 17682 06ce 6D5F6C6F 		.ascii	"m_lock_override_once\000"
 17682      636B5F6F 
 17682      76657272 
 17682      6964655F 
 17682      6F6E6365 
 17683              	.LASF445:
 17684 06e3 63757272 		.ascii	"current_in\000"
 17684      656E745F 
 17684      696E00
 17685              	.LASF249:
 17686 06ee 735F7069 		.ascii	"s_pid_kd\000"
 17686      645F6B64 
 17686      00
 17687              	.LASF519:
 17688 06f7 6D637077 		.ascii	"mcpwm_get_state\000"
 17688      6D5F6765 
 17688      745F7374 
 17688      61746500 
 17689              	.LASF428:
 17690 0707 6D6F6465 		.ascii	"mode\000"
 17690      00
 17691              	.LASF471:
 17692 070c 6D5F7761 		.ascii	"m_watt_seconds\000"
 17692      74745F73 
 17692      65636F6E 
 17692      647300
 17693              	.LASF374:
 17694 071b 6C6F5F6D 		.ascii	"lo_min_rpm\000"
 17694      696E5F72 
 17694      706D00
 17695              	.LASF526:
 17696 0726 6D637077 		.ascii	"mcpwm_get_duty_cycle_now\000"
 17696      6D5F6765 
 17696      745F6475 
 17696      74795F63 
 17696      79636C65 
 17697              	.LASF472:
 17698 073f 6D5F7761 		.ascii	"m_watt_seconds_charged\000"
 17698      74745F73 
 17698      65636F6E 
 17698      64735F63 
 17698      68617267 
 17699              	.LASF580:
 17700 0756 7574696C 		.ascii	"utils_norm_angle\000"
 17700      735F6E6F 
 17700      726D5F61 
 17700      6E676C65 
 17700      00
ARM GAS  /var/folders/sv/kgmgr77579zbf78p2zlhkdfr0000gn/T//ccOxe4My.s 			page 319


 17701              	.LASF225:
 17702 0767 666F635F 		.ascii	"foc_motor_l\000"
 17702      6D6F746F 
 17702      725F6C00 
 17703              	.LASF226:
 17704 0773 666F635F 		.ascii	"foc_motor_r\000"
 17704      6D6F746F 
 17704      725F7200 
 17705              	.LASF152:
 17706 077f 4641554C 		.ascii	"FAULT_CODE_DRV\000"
 17706      545F434F 
 17706      44455F44 
 17706      525600
 17707              	.LASF103:
 17708 078e 73746B61 		.ascii	"stkalign_t\000"
 17708      6C69676E 
 17708      5F7400
 17709              	.LASF73:
 17710 0799 76745F70 		.ascii	"vt_prev\000"
 17710      72657600 
 17711              	.LASF510:
 17712 07a1 63685468 		.ascii	"chThdCreateStatic\000"
 17712      64437265 
 17712      61746553 
 17712      74617469 
 17712      6300
 17713              	.LASF4:
 17714 07b3 756E7369 		.ascii	"unsigned char\000"
 17714      676E6564 
 17714      20636861 
 17714      7200
 17715              	.LASF606:
 17716 07c1 6C656470 		.ascii	"ledpwm_update_pwm\000"
 17716      776D5F75 
 17716      70646174 
 17716      655F7077 
 17716      6D00
 17717              	.LASF250:
 17718 07d3 735F7069 		.ascii	"s_pid_min_erpm\000"
 17718      645F6D69 
 17718      6E5F6572 
 17718      706D00
 17719              	.LASF373:
 17720 07e2 72706D5F 		.ascii	"rpm_pos_cut_end\000"
 17720      706F735F 
 17720      6375745F 
 17720      656E6400 
 17721              	.LASF117:
 17722 07f2 735F636E 		.ascii	"s_cnt\000"
 17722      7400
 17723              	.LASF61:
 17724 07f8 72656164 		.ascii	"ready_list_t\000"
 17724      795F6C69 
 17724      73745F74 
 17724      00
 17725              	.LASF57:
 17726 0805 63685F74 		.ascii	"ch_thread\000"
ARM GAS  /var/folders/sv/kgmgr77579zbf78p2zlhkdfr0000gn/T//ccOxe4My.s 			page 320


 17726      68726561 
 17726      6400
 17727              	.LASF614:
 17728 080f 2F557365 		.ascii	"/Users/moslin/Documents/Project/torque_control\000"
 17728      72732F6D 
 17728      6F736C69 
 17728      6E2F446F 
 17728      63756D65 
 17729              	.LASF0:
 17730 083e 666C6F61 		.ascii	"float\000"
 17730      7400
 17731              	.LASF201:
 17732 0844 6C5F7761 		.ascii	"l_watt_max\000"
 17732      74745F6D 
 17732      617800
 17733              	.LASF589:
 17734 084f 6D637077 		.ascii	"mcpwm_atc_set_duty\000"
 17734      6D5F6174 
 17734      635F7365 
 17734      745F6475 
 17734      747900
 17735              	.LASF220:
 17736 0862 666F635F 		.ascii	"foc_f_sw\000"
 17736      665F7377 
 17736      00
 17737              	.LASF539:
 17738 086b 6D637077 		.ascii	"mcpwm_foc_get_tot_current_directional\000"
 17738      6D5F666F 
 17738      635F6765 
 17738      745F746F 
 17738      745F6375 
 17739              	.LASF413:
 17740 0891 6D635F69 		.ascii	"mc_interface_get_tot_current_in\000"
 17740      6E746572 
 17740      66616365 
 17740      5F676574 
 17740      5F746F74 
 17741              	.LASF80:
 17742 08b1 73797374 		.ascii	"system_debug_t\000"
 17742      656D5F64 
 17742      65627567 
 17742      5F7400
 17743              	.LASF194:
 17744 08c0 6C5F7465 		.ascii	"l_temp_fet_start\000"
 17744      6D705F66 
 17744      65745F73 
 17744      74617274 
 17744      00
 17745              	.LASF91:
 17746 08d1 44494552 		.ascii	"DIER\000"
 17746      00
 17747              	.LASF39:
 17748 08d6 705F6374 		.ascii	"p_ctx\000"
 17748      7800
 17749              	.LASF76:
 17750 08dc 76745F70 		.ascii	"vt_par\000"
 17750      617200
ARM GAS  /var/folders/sv/kgmgr77579zbf78p2zlhkdfr0000gn/T//ccOxe4My.s 			page 321


 17751              	.LASF617:
 17752 08e3 6D656D63 		.ascii	"memcpy\000"
 17752      707900
 17753              	.LASF390:
 17754 08ea 6D635F69 		.ascii	"mc_interface_set_pwm_callback\000"
 17754      6E746572 
 17754      66616365 
 17754      5F736574 
 17754      5F70776D 
 17755              	.LASF68:
 17756 0908 725F6375 		.ascii	"r_current\000"
 17756      7272656E 
 17756      7400
 17757              	.LASF304:
 17758 0912 434F4D4D 		.ascii	"COMM_ALIVE\000"
 17758      5F414C49 
 17758      564500
 17759              	.LASF176:
 17760 091d 636F6D6D 		.ascii	"comm_mode\000"
 17760      5F6D6F64 
 17760      6500
 17761              	.LASF457:
 17762 0927 6D5F6967 		.ascii	"m_ignore_iterations\000"
 17762      6E6F7265 
 17762      5F697465 
 17762      72617469 
 17762      6F6E7300 
 17763              	.LASF599:
 17764 093b 6D637077 		.ascii	"mcpwm_set_current\000"
 17764      6D5F7365 
 17764      745F6375 
 17764      7272656E 
 17764      7400
 17765              	.LASF153:
 17766 094d 4641554C 		.ascii	"FAULT_CODE_ABS_OVER_CURRENT\000"
 17766      545F434F 
 17766      44455F41 
 17766      42535F4F 
 17766      5645525F 
 17767              	.LASF228:
 17768 0969 666F635F 		.ascii	"foc_observer_gain\000"
 17768      6F627365 
 17768      72766572 
 17768      5F676169 
 17768      6E00
 17769              	.LASF487:
 17770 097b 6D5F7361 		.ascii	"m_sample_int\000"
 17770      6D706C65 
 17770      5F696E74 
 17770      00
 17771              	.LASF23:
 17772 0988 75696E74 		.ascii	"uint64_t\000"
 17772      36345F74 
 17772      00
 17773              	.LASF398:
 17774 0991 6D635F69 		.ascii	"mc_interface_fault_to_string\000"
 17774      6E746572 
ARM GAS  /var/folders/sv/kgmgr77579zbf78p2zlhkdfr0000gn/T//ccOxe4My.s 			page 322


 17774      66616365 
 17774      5F666175 
 17774      6C745F74 
 17775              	.LASF421:
 17776 09ae 6D635F69 		.ascii	"mc_interface_read_reset_avg_motor_current\000"
 17776      6E746572 
 17776      66616365 
 17776      5F726561 
 17776      645F7265 
 17777              	.LASF118:
 17778 09d8 63685F6D 		.ascii	"ch_mutex\000"
 17778      75746578 
 17778      00
 17779              	.LASF251:
 17780 09e1 735F7069 		.ascii	"s_pid_allow_braking\000"
 17780      645F616C 
 17780      6C6F775F 
 17780      6272616B 
 17780      696E6700 
 17781              	.LASF344:
 17782 09f5 76616C75 		.ascii	"value\000"
 17782      6500
 17783              	.LASF137:
 17784 09fb 53454E53 		.ascii	"SENSOR_MODE_SENSORED\000"
 17784      4F525F4D 
 17784      4F44455F 
 17784      53454E53 
 17784      4F524544 
 17785              	.LASF478:
 17786 0a10 6D5F7068 		.ascii	"m_ph1_samples\000"
 17786      315F7361 
 17786      6D706C65 
 17786      7300
 17787              	.LASF479:
 17788 0a1e 6D5F7068 		.ascii	"m_ph2_samples\000"
 17788      325F7361 
 17788      6D706C65 
 17788      7300
 17789              	.LASF610:
 17790 0a2c 6D637077 		.ascii	"mcpwm_foc_get_abs_motor_current_filtered\000"
 17790      6D5F666F 
 17790      635F6765 
 17790      745F6162 
 17790      735F6D6F 
 17791              	.LASF319:
 17792 0a55 74696D5F 		.ascii	"tim_val_samp\000"
 17792      76616C5F 
 17792      73616D70 
 17792      00
 17793              	.LASF70:
 17794 0a62 76697274 		.ascii	"virtual_timer_t\000"
 17794      75616C5F 
 17794      74696D65 
 17794      725F7400 
 17795              	.LASF65:
 17796 0a72 725F6374 		.ascii	"r_ctx\000"
 17796      7800
ARM GAS  /var/folders/sv/kgmgr77579zbf78p2zlhkdfr0000gn/T//ccOxe4My.s 			page 323


 17797              	.LASF72:
 17798 0a78 76745F6E 		.ascii	"vt_next\000"
 17798      65787400 
 17799              	.LASF434:
 17800 0a80 6D635F69 		.ascii	"mc_interface_brake_now\000"
 17800      6E746572 
 17800      66616365 
 17800      5F627261 
 17800      6B655F6E 
 17801              	.LASF277:
 17802 0a97 434F4D4D 		.ascii	"COMM_WRITE_NEW_APP_DATA\000"
 17802      5F575249 
 17802      54455F4E 
 17802      45575F41 
 17802      50505F44 
 17803              	.LASF276:
 17804 0aaf 434F4D4D 		.ascii	"COMM_ERASE_NEW_APP\000"
 17804      5F455241 
 17804      53455F4E 
 17804      45575F41 
 17804      505000
 17805              	.LASF25:
 17806 0ac2 7274636E 		.ascii	"rtcnt_t\000"
 17806      745F7400 
 17807              	.LASF138:
 17808 0aca 53454E53 		.ascii	"SENSOR_MODE_HYBRID\000"
 17808      4F525F4D 
 17808      4F44455F 
 17808      48594252 
 17808      494400
 17809              	.LASF266:
 17810 0add 6D5F6472 		.ascii	"m_drv8301_oc_mode\000"
 17810      76383330 
 17810      315F6F63 
 17810      5F6D6F64 
 17810      6500
 17811              	.LASF203:
 17812 0aef 6C6F5F63 		.ascii	"lo_current_max\000"
 17812      75727265 
 17812      6E745F6D 
 17812      617800
 17813              	.LASF223:
 17814 0afe 666F635F 		.ascii	"foc_encoder_inverted\000"
 17814      656E636F 
 17814      6465725F 
 17814      696E7665 
 17814      72746564 
 17815              	.LASF257:
 17816 0b13 63635F6D 		.ascii	"cc_min_current\000"
 17816      696E5F63 
 17816      75727265 
 17816      6E7400
 17817              	.LASF158:
 17818 0b22 53454E53 		.ascii	"SENSOR_PORT_MODE_ABI\000"
 17818      4F525F50 
 17818      4F52545F 
 17818      4D4F4445 
ARM GAS  /var/folders/sv/kgmgr77579zbf78p2zlhkdfr0000gn/T//ccOxe4My.s 			page 324


 17818      5F414249 
 17819              	.LASF613:
 17820 0b37 6D635F69 		.ascii	"mc_interface.c\000"
 17820      6E746572 
 17820      66616365 
 17820      2E6300
 17821              	.LASF326:
 17822 0b46 636C6561 		.ascii	"clear\000"
 17822      7200
 17823              	.LASF354:
 17824 0b4c 66646174 		.ascii	"fdata\000"
 17824      6100
 17825              	.LASF534:
 17826 0b52 6D637077 		.ascii	"mcpwm_atc_get_tot_current\000"
 17826      6D5F6174 
 17826      635F6765 
 17826      745F746F 
 17826      745F6375 
 17827              	.LASF480:
 17828 0b6c 6D5F7068 		.ascii	"m_ph3_samples\000"
 17828      335F7361 
 17828      6D706C65 
 17828      7300
 17829              	.LASF24:
 17830 0b7a 73697A65 		.ascii	"size_t\000"
 17830      5F7400
 17831              	.LASF542:
 17832 0b81 6D637077 		.ascii	"mcpwm_foc_get_tot_current_directional_filtered\000"
 17832      6D5F666F 
 17832      635F6765 
 17832      745F746F 
 17832      745F6375 
 17833              	.LASF159:
 17834 0bb0 53454E53 		.ascii	"SENSOR_PORT_MODE_AS5047_SPI\000"
 17834      4F525F50 
 17834      4F52545F 
 17834      4D4F4445 
 17834      5F415335 
 17835              	.LASF170:
 17836 0bcc 44454255 		.ascii	"DEBUG_SAMPLING_TRIGGER_FAULT\000"
 17836      475F5341 
 17836      4D504C49 
 17836      4E475F54 
 17836      52494747 
 17837              	.LASF18:
 17838 0be9 75696E74 		.ascii	"uint8_t\000"
 17838      385F7400 
 17839              	.LASF409:
 17840 0bf1 6D635F69 		.ascii	"mc_interface_get_tot_current\000"
 17840      6E746572 
 17840      66616365 
 17840      5F676574 
 17840      5F746F74 
 17841              	.LASF67:
 17842 0c0e 725F6F6C 		.ascii	"r_older\000"
 17842      64657200 
 17843              	.LASF37:
ARM GAS  /var/folders/sv/kgmgr77579zbf78p2zlhkdfr0000gn/T//ccOxe4My.s 			page 325


 17844 0c16 705F7072 		.ascii	"p_prev\000"
 17844      657600
 17845              	.LASF300:
 17846 0c1d 434F4D4D 		.ascii	"COMM_DETECT_MOTOR_FLUX_LINKAGE\000"
 17846      5F444554 
 17846      4543545F 
 17846      4D4F544F 
 17846      525F464C 
 17847              	.LASF584:
 17848 0c3c 6D637077 		.ascii	"mcpwm_foc_init_done\000"
 17848      6D5F666F 
 17848      635F696E 
 17848      69745F64 
 17848      6F6E6500 
 17849              	.LASF208:
 17850 0c50 6C6F5F63 		.ascii	"lo_current_motor_min_now\000"
 17850      75727265 
 17850      6E745F6D 
 17850      6F746F72 
 17850      5F6D696E 
 17851              	.LASF488:
 17852 0c69 6D5F7361 		.ascii	"m_sample_mode\000"
 17852      6D706C65 
 17852      5F6D6F64 
 17852      6500
 17853              	.LASF190:
 17854 0c77 6C5F6D61 		.ascii	"l_max_vin\000"
 17854      785F7669 
 17854      6E00
 17855              	.LASF109:
 17856 0c81 65786974 		.ascii	"exitcode\000"
 17856      636F6465 
 17856      00
 17857              	.LASF548:
 17858 0c8a 6D637077 		.ascii	"mcpwm_foc_get_tot_current_in_filtered\000"
 17858      6D5F666F 
 17858      635F6765 
 17858      745F746F 
 17858      745F6375 
 17859              	.LASF378:
 17860 0cb0 6C6F5F6D 		.ascii	"lo_min\000"
 17860      696E00
 17861              	.LASF368:
 17862 0cb7 74656D70 		.ascii	"temp_motor_accel_end\000"
 17862      5F6D6F74 
 17862      6F725F61 
 17862      6363656C 
 17862      5F656E64 
 17863              	.LASF422:
 17864 0ccc 6D635F69 		.ascii	"mc_interface_read_reset_avg_input_current\000"
 17864      6E746572 
 17864      66616365 
 17864      5F726561 
 17864      645F7265 
 17865              	.LASF403:
 17866 0cf6 6D635F69 		.ascii	"mc_interface_get_rpm\000"
 17866      6E746572 
ARM GAS  /var/folders/sv/kgmgr77579zbf78p2zlhkdfr0000gn/T//ccOxe4My.s 			page 326


 17866      66616365 
 17866      5F676574 
 17866      5F72706D 
 17867              	.LASF279:
 17868 0d0b 434F4D4D 		.ascii	"COMM_SET_DUTY\000"
 17868      5F534554 
 17868      5F445554 
 17868      5900
 17869              	.LASF329:
 17870 0d19 4F535045 		.ascii	"OSPEEDR\000"
 17870      45445200 
 17871              	.LASF191:
 17872 0d21 6C5F6261 		.ascii	"l_battery_cut_start\000"
 17872      74746572 
 17872      795F6375 
 17872      745F7374 
 17872      61727400 
 17873              	.LASF593:
 17874 0d35 6D637077 		.ascii	"mcpwm_foc_set_pid_speed\000"
 17874      6D5F666F 
 17874      635F7365 
 17874      745F7069 
 17874      645F7370 
 17875              	.LASF192:
 17876 0d4d 6C5F6261 		.ascii	"l_battery_cut_end\000"
 17876      74746572 
 17876      795F6375 
 17876      745F656E 
 17876      6400
 17877              	.LASF503:
 17878 0d5f 6D637077 		.ascii	"mcpwm_vzero\000"
 17878      6D5F767A 
 17878      65726F00 
 17879              	.LASF189:
 17880 0d6b 6C5F6D69 		.ascii	"l_min_vin\000"
 17880      6E5F7669 
 17880      6E00
 17881              	.LASF532:
 17882 0d75 6D637077 		.ascii	"mcpwm_get_rpm\000"
 17882      6D5F6765 
 17882      745F7270 
 17882      6D00
 17883              	.LASF288:
 17884 0d83 434F4D4D 		.ascii	"COMM_GET_MCCONF\000"
 17884      5F474554 
 17884      5F4D4343 
 17884      4F4E4600 
 17885              	.LASF536:
 17886 0d93 6D637077 		.ascii	"mcpwm_foc_get_tot_current_filtered\000"
 17886      6D5F666F 
 17886      635F6765 
 17886      745F746F 
 17886      745F6375 
 17887              	.LASF240:
 17888 0db6 666F635F 		.ascii	"foc_hall_table\000"
 17888      68616C6C 
 17888      5F746162 
ARM GAS  /var/folders/sv/kgmgr77579zbf78p2zlhkdfr0000gn/T//ccOxe4My.s 			page 327


 17888      6C6500
 17889              	.LASF286:
 17890 0dc5 434F4D4D 		.ascii	"COMM_SET_SERVO_POS\000"
 17890      5F534554 
 17890      5F534552 
 17890      564F5F50 
 17890      4F5300
 17891              	.LASF401:
 17892 0dd8 6D635F69 		.ascii	"mc_interface_get_duty_cycle_now\000"
 17892      6E746572 
 17892      66616365 
 17892      5F676574 
 17892      5F647574 
 17893              	.LASF305:
 17894 0df8 434F4D4D 		.ascii	"COMM_GET_DECODED_PPM\000"
 17894      5F474554 
 17894      5F444543 
 17894      4F444544 
 17894      5F50504D 
 17895              	.LASF147:
 17896 0e0d 4D4F544F 		.ascii	"MOTOR_TYPE_FOC\000"
 17896      525F5459 
 17896      50455F46 
 17896      4F4300
 17897              	.LASF209:
 17898 0e1c 736C5F6D 		.ascii	"sl_min_erpm\000"
 17898      696E5F65 
 17898      72706D00 
 17899              	.LASF95:
 17900 0e28 43435231 		.ascii	"CCR1\000"
 17900      00
 17901              	.LASF96:
 17902 0e2d 43435232 		.ascii	"CCR2\000"
 17902      00
 17903              	.LASF97:
 17904 0e32 43435233 		.ascii	"CCR3\000"
 17904      00
 17905              	.LASF98:
 17906 0e37 43435234 		.ascii	"CCR4\000"
 17906      00
 17907              	.LASF372:
 17908 0e3c 72706D5F 		.ascii	"rpm_pos_cut_start\000"
 17908      706F735F 
 17908      6375745F 
 17908      73746172 
 17908      7400
 17909              	.LASF565:
 17910 0e4e 6D637077 		.ascii	"mcpwm_deinit\000"
 17910      6D5F6465 
 17910      696E6974 
 17910      00
 17911              	.LASF264:
 17912 0e5b 6D5F7365 		.ascii	"m_sensor_port_mode\000"
 17912      6E736F72 
 17912      5F706F72 
 17912      745F6D6F 
 17912      646500
ARM GAS  /var/folders/sv/kgmgr77579zbf78p2zlhkdfr0000gn/T//ccOxe4My.s 			page 328


 17913              	.LASF597:
 17914 0e6e 6D637077 		.ascii	"mcpwm_set_pid_pos\000"
 17914      6D5F7365 
 17914      745F7069 
 17914      645F706F 
 17914      7300
 17915              	.LASF150:
 17916 0e80 4641554C 		.ascii	"FAULT_CODE_OVER_VOLTAGE\000"
 17916      545F434F 
 17916      44455F4F 
 17916      5645525F 
 17916      564F4C54 
 17917              	.LASF262:
 17918 0e98 6D5F6375 		.ascii	"m_current_backoff_gain\000"
 17918      7272656E 
 17918      745F6261 
 17918      636B6F66 
 17918      665F6761 
 17919              	.LASF572:
 17920 0eaf 63685468 		.ascii	"chThdSleep\000"
 17920      64536C65 
 17920      657000
 17921              	.LASF265:
 17922 0eba 6D5F696E 		.ascii	"m_invert_direction\000"
 17922      76657274 
 17922      5F646972 
 17922      65637469 
 17922      6F6E00
 17923              	.LASF335:
 17924 0ecd 73746D33 		.ascii	"stm32_gpio_t\000"
 17924      325F6770 
 17924      696F5F74 
 17924      00
 17925              	.LASF308:
 17926 0eda 434F4D4D 		.ascii	"COMM_FORWARD_CAN\000"
 17926      5F464F52 
 17926      57415244 
 17926      5F43414E 
 17926      00
 17927              	.LASF108:
 17928 0eeb 7264796D 		.ascii	"rdymsg\000"
 17928      736700
 17929              	.LASF577:
 17930 0ef2 6D637077 		.ascii	"mcpwm_atc_get_last_inj_adc_isr_duration\000"
 17930      6D5F6174 
 17930      635F6765 
 17930      745F6C61 
 17930      73745F69 
 17931              	.LASF486:
 17932 0f1a 6D5F7361 		.ascii	"m_sample_len\000"
 17932      6D706C65 
 17932      5F6C656E 
 17932      00
 17933              	.LASF200:
 17934 0f27 6C5F6D61 		.ascii	"l_max_duty\000"
 17934      785F6475 
 17934      747900
ARM GAS  /var/folders/sv/kgmgr77579zbf78p2zlhkdfr0000gn/T//ccOxe4My.s 			page 329


 17935              	.LASF585:
 17936 0f32 6D637077 		.ascii	"mcpwm_atc_init_done\000"
 17936      6D5F6174 
 17936      635F696E 
 17936      69745F64 
 17936      6F6E6500 
 17937              	.LASF297:
 17938 0f46 434F4D4D 		.ascii	"COMM_EXPERIMENT_SAMPLE\000"
 17938      5F455850 
 17938      4552494D 
 17938      454E545F 
 17938      53414D50 
 17939              	.LASF168:
 17940 0f5d 44454255 		.ascii	"DEBUG_SAMPLING_START\000"
 17940      475F5341 
 17940      4D504C49 
 17940      4E475F53 
 17940      54415254 
 17941              	.LASF38:
 17942 0f72 705F7072 		.ascii	"p_prio\000"
 17942      696F00
 17943              	.LASF527:
 17944 0f79 6D637077 		.ascii	"mcpwm_foc_get_sampling_frequency_now\000"
 17944      6D5F666F 
 17944      635F6765 
 17944      745F7361 
 17944      6D706C69 
 17945              	.LASF396:
 17946 0f9e 6D635F69 		.ascii	"mc_interface_get_fault\000"
 17946      6E746572 
 17946      66616365 
 17946      5F676574 
 17946      5F666175 
 17947              	.LASF14:
 17948 0fb5 5F5F7569 		.ascii	"__uint64_t\000"
 17948      6E743634 
 17948      5F7400
 17949              	.LASF145:
 17950 0fc0 4D4F544F 		.ascii	"MOTOR_TYPE_ATC\000"
 17950      525F5459 
 17950      50455F41 
 17950      544300
 17951              	.LASF509:
 17952 0fcf 6D637077 		.ascii	"mcpwm_set_brake_current\000"
 17952      6D5F7365 
 17952      745F6272 
 17952      616B655F 
 17952      63757272 
 17953              	.LASF241:
 17954 0fe7 666F635F 		.ascii	"foc_sl_erpm\000"
 17954      736C5F65 
 17954      72706D00 
 17955              	.LASF392:
 17956 0ff3 6D635F69 		.ascii	"mc_interface_lock\000"
 17956      6E746572 
 17956      66616365 
 17956      5F6C6F63 
ARM GAS  /var/folders/sv/kgmgr77579zbf78p2zlhkdfr0000gn/T//ccOxe4My.s 			page 330


 17956      6B00
 17957              	.LASF563:
 17958 1005 7574696C 		.ascii	"utils_min_abs\000"
 17958      735F6D69 
 17958      6E5F6162 
 17958      7300
 17959              	.LASF529:
 17960 1013 6D637077 		.ascii	"mcpwm_get_switching_frequency_now\000"
 17960      6D5F6765 
 17960      745F7377 
 17960      69746368 
 17960      696E675F 
 17961              	.LASF381:
 17962 1035 6C6F5F69 		.ascii	"lo_in_min_watt\000"
 17962      6E5F6D69 
 17962      6E5F7761 
 17962      747400
 17963              	.LASF492:
 17964 1044 6D5F6C61 		.ascii	"m_last_adc_duration_sample\000"
 17964      73745F61 
 17964      64635F64 
 17964      75726174 
 17964      696F6E5F 
 17965              	.LASF196:
 17966 105f 6C5F7465 		.ascii	"l_temp_motor_start\000"
 17966      6D705F6D 
 17966      6F746F72 
 17966      5F737461 
 17966      727400
 17967              	.LASF505:
 17968 1072 636F6D6D 		.ascii	"commands_send_packet\000"
 17968      616E6473 
 17968      5F73656E 
 17968      645F7061 
 17968      636B6574 
 17969              	.LASF213:
 17970 1087 736C5F70 		.ascii	"sl_phase_advance_at_br\000"
 17970      68617365 
 17970      5F616476 
 17970      616E6365 
 17970      5F61745F 
 17971              	.LASF36:
 17972 109e 705F6E65 		.ascii	"p_next\000"
 17972      787400
 17973              	.LASF416:
 17974 10a5 6D635F69 		.ascii	"mc_interface_set_configuration\000"
 17974      6E746572 
 17974      66616365 
 17974      5F736574 
 17974      5F636F6E 
 17975              	.LASF258:
 17976 10c4 63635F67 		.ascii	"cc_gain\000"
 17976      61696E00 
 17977              	.LASF499:
 17978 10cc 4144435F 		.ascii	"ADC_curr_norm_value\000"
 17978      63757272 
 17978      5F6E6F72 
ARM GAS  /var/folders/sv/kgmgr77579zbf78p2zlhkdfr0000gn/T//ccOxe4My.s 			page 331


 17978      6D5F7661 
 17978      6C756500 
 17979              	.LASF387:
 17980 10e0 696E645F 		.ascii	"ind_samp\000"
 17980      73616D70 
 17980      00
 17981              	.LASF28:
 17982 10e9 74726566 		.ascii	"trefs_t\000"
 17982      735F7400 
 17983              	.LASF54:
 17984 10f1 705F6D70 		.ascii	"p_mpool\000"
 17984      6F6F6C00 
 17985              	.LASF609:
 17986 10f9 6D637077 		.ascii	"mcpwm_foc_get_abs_motor_current\000"
 17986      6D5F666F 
 17986      635F6765 
 17986      745F6162 
 17986      735F6D6F 
 17987              	.LASF175:
 17988 1119 70776D5F 		.ascii	"pwm_mode\000"
 17988      6D6F6465 
 17988      00
 17989              	.LASF346:
 17990 1122 64757479 		.ascii	"dutyCycle\000"
 17990      4379636C 
 17990      6500
 17991              	.LASF520:
 17992 112c 6D637077 		.ascii	"mcpwm_foc_get_state\000"
 17992      6D5F666F 
 17992      635F6765 
 17992      745F7374 
 17992      61746500 
 17993              	.LASF177:
 17994 1140 6D6F746F 		.ascii	"motor_type\000"
 17994      725F7479 
 17994      706500
 17995              	.LASF204:
 17996 114b 6C6F5F63 		.ascii	"lo_current_min\000"
 17996      75727265 
 17996      6E745F6D 
 17996      696E00
 17997              	.LASF211:
 17998 115a 736C5F6D 		.ascii	"sl_max_fullbreak_current_dir_change\000"
 17998      61785F66 
 17998      756C6C62 
 17998      7265616B 
 17998      5F637572 
 17999              	.LASF438:
 18000 117e 6D635F69 		.ascii	"mc_interface_set_current_rel\000"
 18000      6E746572 
 18000      66616365 
 18000      5F736574 
 18000      5F637572 
 18001              	.LASF568:
 18002 119b 6D637077 		.ascii	"mcpwm_set_configuration\000"
 18002      6D5F7365 
 18002      745F636F 
ARM GAS  /var/folders/sv/kgmgr77579zbf78p2zlhkdfr0000gn/T//ccOxe4My.s 			page 332


 18002      6E666967 
 18002      75726174 
 18003              	.LASF26:
 18004 11b3 746D6F64 		.ascii	"tmode_t\000"
 18004      655F7400 
 18005              	.LASF402:
 18006 11bb 6D635F69 		.ascii	"mc_interface_get_sampling_frequency_now\000"
 18006      6E746572 
 18006      66616365 
 18006      5F676574 
 18006      5F73616D 
 18007              	.LASF581:
 18008 11e3 6D637077 		.ascii	"mcpwm_atc_get_pid_pos_now\000"
 18008      6D5F6174 
 18008      635F6765 
 18008      745F7069 
 18008      645F706F 
 18009              	.LASF237:
 18010 11fd 666F635F 		.ascii	"foc_sl_d_current_duty\000"
 18010      736C5F64 
 18010      5F637572 
 18010      72656E74 
 18010      5F647574 
 18011              	.LASF331:
 18012 1213 42535252 		.ascii	"BSRR\000"
 18012      00
 18013              	.LASF537:
 18014 1218 6D637077 		.ascii	"mcpwm_atc_get_tot_current_filtered\000"
 18014      6D5F6174 
 18014      635F6765 
 18014      745F746F 
 18014      745F6375 
 18015              	.LASF101:
 18016 123b 54494D5F 		.ascii	"TIM_TypeDef\000"
 18016      54797065 
 18016      44656600 
 18017              	.LASF216:
 18018 1247 68616C6C 		.ascii	"hall_table\000"
 18018      5F746162 
 18018      6C6500
 18019              	.LASF426:
 18020 1252 6D635F69 		.ascii	"mc_interface_get_pid_pos_now\000"
 18020      6E746572 
 18020      66616365 
 18020      5F676574 
 18020      5F706964 
 18021              	.LASF464:
 18022 126f 6D5F696E 		.ascii	"m_input_current_iterations\000"
 18022      7075745F 
 18022      63757272 
 18022      656E745F 
 18022      69746572 
 18023              	.LASF616:
 18024 128a 6D635F69 		.ascii	"mc_interface_get_last_sample_adc_isr_duration\000"
 18024      6E746572 
 18024      66616365 
 18024      5F676574 
ARM GAS  /var/folders/sv/kgmgr77579zbf78p2zlhkdfr0000gn/T//ccOxe4My.s 			page 333


 18024      5F6C6173 
 18025              	.LASF173:
 18026 12b8 44454255 		.ascii	"DEBUG_SAMPLING_SEND_LAST_SAMPLES\000"
 18026      475F5341 
 18026      4D504C49 
 18026      4E475F53 
 18026      454E445F 
 18027              	.LASF146:
 18028 12d9 4D4F544F 		.ascii	"MOTOR_TYPE_DC\000"
 18028      525F5459 
 18028      50455F44 
 18028      4300
 18029              	.LASF559:
 18030 12e7 6D637077 		.ascii	"mcpwm_foc_stop_pwm\000"
 18030      6D5F666F 
 18030      635F7374 
 18030      6F705F70 
 18030      776D00
 18031              	.LASF126:
 18032 12fa 4D435F53 		.ascii	"MC_STATE_RUNNING\000"
 18032      54415445 
 18032      5F52554E 
 18032      4E494E47 
 18032      00
 18033              	.LASF420:
 18034 130b 6D635F69 		.ascii	"mc_interface_get_last_inj_adc_isr_duration\000"
 18034      6E746572 
 18034      66616365 
 18034      5F676574 
 18034      5F6C6173 
 18035              	.LASF227:
 18036 1336 666F635F 		.ascii	"foc_motor_flux_linkage\000"
 18036      6D6F746F 
 18036      725F666C 
 18036      75785F6C 
 18036      696E6B61 
 18037              	.LASF341:
 18038 134d 706F7274 		.ascii	"port_unlock_from_isr\000"
 18038      5F756E6C 
 18038      6F636B5F 
 18038      66726F6D 
 18038      5F697372 
 18039              	.LASF545:
 18040 1362 6D637077 		.ascii	"mcpwm_foc_get_tot_current_in\000"
 18040      6D5F666F 
 18040      635F6765 
 18040      745F746F 
 18040      745F6375 
 18041              	.LASF212:
 18042 137f 736C5F63 		.ascii	"sl_cycle_int_limit\000"
 18042      79636C65 
 18042      5F696E74 
 18042      5F6C696D 
 18042      697400
 18043              	.LASF17:
 18044 1392 696E7438 		.ascii	"int8_t\000"
 18044      5F7400
ARM GAS  /var/folders/sv/kgmgr77579zbf78p2zlhkdfr0000gn/T//ccOxe4My.s 			page 334


 18045              	.LASF82:
 18046 1399 70616E69 		.ascii	"panic_msg\000"
 18046      635F6D73 
 18046      6700
 18047              	.LASF470:
 18048 13a3 6D5F616D 		.ascii	"m_amp_seconds_charged\000"
 18048      705F7365 
 18048      636F6E64 
 18048      735F6368 
 18048      61726765 
 18049              	.LASF66:
 18050 13b9 725F6E65 		.ascii	"r_newer\000"
 18050      77657200 
 18051              	.LASF280:
 18052 13c1 434F4D4D 		.ascii	"COMM_SET_CURRENT\000"
 18052      5F534554 
 18052      5F435552 
 18052      52454E54 
 18052      00
 18053              	.LASF423:
 18054 13d2 6D635F69 		.ascii	"mc_interface_read_reset_avg_id\000"
 18054      6E746572 
 18054      66616365 
 18054      5F726561 
 18054      645F7265 
 18055              	.LASF607:
 18056 13f1 6D637077 		.ascii	"mcpwm_foc_get_id\000"
 18056      6D5F666F 
 18056      635F6765 
 18056      745F6964 
 18056      00
 18057              	.LASF340:
 18058 1402 706F7274 		.ascii	"port_lock_from_isr\000"
 18058      5F6C6F63 
 18058      6B5F6672 
 18058      6F6D5F69 
 18058      737200
 18059              	.LASF608:
 18060 1415 6D637077 		.ascii	"mcpwm_foc_get_iq\000"
 18060      6D5F666F 
 18060      635F6765 
 18060      745F6971 
 18060      00
 18061              	.LASF567:
 18062 1426 6D637077 		.ascii	"mcpwm_atc_set_configuration\000"
 18062      6D5F6174 
 18062      635F7365 
 18062      745F636F 
 18062      6E666967 
 18063              	.LASF29:
 18064 1442 74736C69 		.ascii	"tslices_t\000"
 18064      6365735F 
 18064      7400
 18065              	.LASF469:
 18066 144c 6D5F616D 		.ascii	"m_amp_seconds\000"
 18066      705F7365 
 18066      636F6E64 
ARM GAS  /var/folders/sv/kgmgr77579zbf78p2zlhkdfr0000gn/T//ccOxe4My.s 			page 335


 18066      7300
 18067              	.LASF405:
 18068 145a 72657365 		.ascii	"reset\000"
 18068      7400
 18069              	.LASF318:
 18070 1460 6379636C 		.ascii	"cycles_running\000"
 18070      65735F72 
 18070      756E6E69 
 18070      6E6700
 18071              	.LASF590:
 18072 146f 6D637077 		.ascii	"mcpwm_foc_set_duty_noramp\000"
 18072      6D5F666F 
 18072      635F7365 
 18072      745F6475 
 18072      74795F6E 
 18073              	.LASF74:
 18074 1489 76745F64 		.ascii	"vt_delta\000"
 18074      656C7461 
 18074      00
 18075              	.LASF89:
 18076 1492 73697A65 		.ascii	"sizetype\000"
 18076      74797065 
 18076      00
 18077              	.LASF412:
 18078 149b 6D635F69 		.ascii	"mc_interface_get_tot_current_directional_filtered\000"
 18078      6E746572 
 18078      66616365 
 18078      5F676574 
 18078      5F746F74 
 18079              	.LASF522:
 18080 14cd 6D637077 		.ascii	"mcpwm_atc_get_duty_cycle_set\000"
 18080      6D5F6174 
 18080      635F6765 
 18080      745F6475 
 18080      74795F63 
 18081              	.LASF360:
 18082 14ea 72706D5F 		.ascii	"rpm_now\000"
 18082      6E6F7700 
 18083              	.LASF19:
 18084 14f2 696E7431 		.ascii	"int16_t\000"
 18084      365F7400 
 18085              	.LASF8:
 18086 14fa 73686F72 		.ascii	"short unsigned int\000"
 18086      7420756E 
 18086      7369676E 
 18086      65642069 
 18086      6E7400
 18087              	.LASF359:
 18088 150d 765F696E 		.ascii	"v_in\000"
 18088      00
 18089              	.LASF1:
 18090 1512 7369676E 		.ascii	"signed char\000"
 18090      65642063 
 18090      68617200 
 18091              	.LASF535:
 18092 151e 6D637077 		.ascii	"mcpwm_get_tot_current\000"
 18092      6D5F6765 
ARM GAS  /var/folders/sv/kgmgr77579zbf78p2zlhkdfr0000gn/T//ccOxe4My.s 			page 336


 18092      745F746F 
 18092      745F6375 
 18092      7272656E 
 18093              	.LASF431:
 18094 1534 6D635F69 		.ascii	"mc_interface_temp_motor_filtered\000"
 18094      6E746572 
 18094      66616365 
 18094      5F74656D 
 18094      705F6D6F 
 18095              	.LASF46:
 18096 1555 705F7072 		.ascii	"p_preempt\000"
 18096      65656D70 
 18096      7400
 18097              	.LASF185:
 18098 155f 6C5F6D61 		.ascii	"l_max_erpm\000"
 18098      785F6572 
 18098      706D00
 18099              	.LASF47:
 18100 156a 705F7469 		.ascii	"p_time\000"
 18100      6D6500
 18101              	.LASF523:
 18102 1571 6D637077 		.ascii	"mcpwm_get_duty_cycle_set\000"
 18102      6D5F6765 
 18102      745F6475 
 18102      74795F63 
 18102      79636C65 
 18103              	.LASF313:
 18104 158a 63757272 		.ascii	"current\000"
 18104      656E7400 
 18105              	.LASF600:
 18106 1592 6D637077 		.ascii	"mcpwm_foc_set_current\000"
 18106      6D5F666F 
 18106      635F7365 
 18106      745F6375 
 18106      7272656E 
 18107              	.LASF455:
 18108 15a8 6D5F636F 		.ascii	"m_conf\000"
 18108      6E6600
 18109              	.LASF601:
 18110 15af 6D637077 		.ascii	"mcpwm_atc_set_current\000"
 18110      6D5F6174 
 18110      635F7365 
 18110      745F6375 
 18110      7272656E 
 18111              	.LASF576:
 18112 15c5 6D637077 		.ascii	"mcpwm_foc_get_last_inj_adc_isr_duration\000"
 18112      6D5F666F 
 18112      635F6765 
 18112      745F6C61 
 18112      73745F69 
 18113              	.LASF458:
 18114 15ed 6D5F6379 		.ascii	"m_cycles_running\000"
 18114      636C6573 
 18114      5F72756E 
 18114      6E696E67 
 18114      00
 18115              	.LASF155:
ARM GAS  /var/folders/sv/kgmgr77579zbf78p2zlhkdfr0000gn/T//ccOxe4My.s 			page 337


 18116 15fe 4641554C 		.ascii	"FAULT_CODE_OVER_TEMP_MOTOR\000"
 18116      545F434F 
 18116      44455F4F 
 18116      5645525F 
 18116      54454D50 
 18117              	.LASF357:
 18118 1619 75706461 		.ascii	"update_override_limits\000"
 18118      74655F6F 
 18118      76657272 
 18118      6964655F 
 18118      6C696D69 
 18119              	.LASF560:
 18120 1630 6D637077 		.ascii	"mcpwm_atc_stop_pwm\000"
 18120      6D5F6174 
 18120      635F7374 
 18120      6F705F70 
 18120      776D00
 18121              	.LASF49:
 18122 1643 705F6D73 		.ascii	"p_msgqueue\000"
 18122      67717565 
 18122      756500
 18123              	.LASF233:
 18124 164e 666F635F 		.ascii	"foc_duty_dowmramp_ki\000"
 18124      64757479 
 18124      5F646F77 
 18124      6D72616D 
 18124      705F6B69 
 18125              	.LASF531:
 18126 1663 6D637077 		.ascii	"mcpwm_atc_get_rpm\000"
 18126      6D5F6174 
 18126      635F6765 
 18126      745F7270 
 18126      6D00
 18127              	.LASF120:
 18128 1675 6D5F6F77 		.ascii	"m_owner\000"
 18128      6E657200 
 18129              	.LASF232:
 18130 167d 666F635F 		.ascii	"foc_duty_dowmramp_kp\000"
 18130      64757479 
 18130      5F646F77 
 18130      6D72616D 
 18130      705F6B70 
 18131              	.LASF432:
 18132 1692 6D635F69 		.ascii	"mc_interface_try_input\000"
 18132      6E746572 
 18132      66616365 
 18132      5F747279 
 18132      5F696E70 
 18133              	.LASF186:
 18134 16a9 6C5F6572 		.ascii	"l_erpm_start\000"
 18134      706D5F73 
 18134      74617274 
 18134      00
 18135              	.LASF516:
 18136 16b6 6D637077 		.ascii	"mcpwm_atc_is_dccal_done\000"
 18136      6D5F6174 
 18136      635F6973 
ARM GAS  /var/folders/sv/kgmgr77579zbf78p2zlhkdfr0000gn/T//ccOxe4My.s 			page 338


 18136      5F646363 
 18136      616C5F64 
 18137              	.LASF543:
 18138 16ce 6D637077 		.ascii	"mcpwm_atc_get_tot_current_directional_filtered\000"
 18138      6D5F6174 
 18138      635F6765 
 18138      745F746F 
 18138      745F6375 
 18139              	.LASF555:
 18140 16fd 7574696C 		.ascii	"utils_sys_unlock_cnt\000"
 18140      735F7379 
 18140      735F756E 
 18140      6C6F636B 
 18140      5F636E74 
 18141              	.LASF100:
 18142 1712 444D4152 		.ascii	"DMAR\000"
 18142      00
 18143              	.LASF84:
 18144 1717 63685F73 		.ascii	"ch_system\000"
 18144      79737465 
 18144      6D00
 18145              	.LASF489:
 18146 1721 6D5F7361 		.ascii	"m_sample_mode_last\000"
 18146      6D706C65 
 18146      5F6D6F64 
 18146      655F6C61 
 18146      737400
 18147              	.LASF179:
 18148 1734 6C5F6375 		.ascii	"l_current_max\000"
 18148      7272656E 
 18148      745F6D61 
 18148      7800
 18149              	.LASF324:
 18150 1742 64727638 		.ascii	"drv8301_faults\000"
 18150      3330315F 
 18150      6661756C 
 18150      747300
 18151              	.LASF115:
 18152 1751 63685F73 		.ascii	"ch_semaphore\000"
 18152      656D6170 
 18152      686F7265 
 18152      00
 18153              	.LASF371:
 18154 175e 6C6F5F6D 		.ascii	"lo_max_rpm\000"
 18154      61785F72 
 18154      706D00
 18155              	.LASF339:
 18156 1769 706F7274 		.ascii	"port_unlock\000"
 18156      5F756E6C 
 18156      6F636B00 
 18157              	.LASF59:
 18158 1775 74687265 		.ascii	"threads_queue_t\000"
 18158      6164735F 
 18158      71756575 
 18158      655F7400 
 18159              	.LASF157:
 18160 1785 53454E53 		.ascii	"SENSOR_PORT_MODE_HALL\000"
ARM GAS  /var/folders/sv/kgmgr77579zbf78p2zlhkdfr0000gn/T//ccOxe4My.s 			page 339


 18160      4F525F50 
 18160      4F52545F 
 18160      4D4F4445 
 18160      5F48414C 
 18161              	.LASF498:
 18162 179b 4144435F 		.ascii	"ADC_Value\000"
 18162      56616C75 
 18162      6500
 18163              	.LASF140:
 18164 17a5 464F435F 		.ascii	"FOC_SENSOR_MODE_SENSORLESS\000"
 18164      53454E53 
 18164      4F525F4D 
 18164      4F44455F 
 18164      53454E53 
 18165              	.LASF45:
 18166 17c0 705F7265 		.ascii	"p_refs\000"
 18166      667300
 18167              	.LASF588:
 18168 17c7 6D637077 		.ascii	"mcpwm_foc_set_duty\000"
 18168      6D5F666F 
 18168      635F7365 
 18168      745F6475 
 18168      747900
 18169              	.LASF348:
 18170 17da 6D635F69 		.ascii	"mc_interface_set_current\000"
 18170      6E746572 
 18170      66616365 
 18170      5F736574 
 18170      5F637572 
 18171              	.LASF139:
 18172 17f3 6D635F73 		.ascii	"mc_sensor_mode\000"
 18172      656E736F 
 18172      725F6D6F 
 18172      646500
 18173              	.LASF10:
 18174 1802 6C6F6E67 		.ascii	"long int\000"
 18174      20696E74 
 18174      00
 18175              	.LASF465:
 18176 180b 6D5F6D6F 		.ascii	"m_motor_id_sum\000"
 18176      746F725F 
 18176      69645F73 
 18176      756D00
 18177              	.LASF87:
 18178 181a 6D61696E 		.ascii	"mainthread\000"
 18178      74687265 
 18178      616400
 18179              	.LASF119:
 18180 1825 6D5F7175 		.ascii	"m_queue\000"
 18180      65756500 
 18181              	.LASF285:
 18182 182d 434F4D4D 		.ascii	"COMM_SET_DETECT\000"
 18182      5F534554 
 18182      5F444554 
 18182      45435400 
 18183              	.LASF554:
 18184 183d 7574696C 		.ascii	"utils_sys_lock_cnt\000"
ARM GAS  /var/folders/sv/kgmgr77579zbf78p2zlhkdfr0000gn/T//ccOxe4My.s 			page 340


 18184      735F7379 
 18184      735F6C6F 
 18184      636B5F63 
 18184      6E7400
 18185              	.LASF275:
 18186 1850 434F4D4D 		.ascii	"COMM_JUMP_TO_BOOTLOADER\000"
 18186      5F4A554D 
 18186      505F544F 
 18186      5F424F4F 
 18186      544C4F41 
 18187              	.LASF133:
 18188 1868 434F4D4D 		.ascii	"COMM_MODE_INTEGRATE\000"
 18188      5F4D4F44 
 18188      455F494E 
 18188      54454752 
 18188      41544500 
 18189              	.LASF500:
 18190 187c 6D637077 		.ascii	"mcpwm_detect_currents\000"
 18190      6D5F6465 
 18190      74656374 
 18190      5F637572 
 18190      72656E74 
 18191              	.LASF495:
 18192 1892 73616D70 		.ascii	"sample_send_thread_wa\000"
 18192      6C655F73 
 18192      656E645F 
 18192      74687265 
 18192      61645F77 
 18193              	.LASF358:
 18194 18a8 636F6E66 		.ascii	"conf\000"
 18194      00
 18195              	.LASF111:
 18196 18ad 77747472 		.ascii	"wttrp\000"
 18196      7000
 18197              	.LASF104:
 18198 18b3 636F6E74 		.ascii	"context\000"
 18198      65787400 
 18199              	.LASF427:
 18200 18bb 6D635F69 		.ascii	"mc_interface_sample_print_data\000"
 18200      6E746572 
 18200      66616365 
 18200      5F73616D 
 18200      706C655F 
 18201              	.LASF594:
 18202 18da 6D637077 		.ascii	"mcpwm_set_pid_speed\000"
 18202      6D5F7365 
 18202      745F7069 
 18202      645F7370 
 18202      65656400 
 18203              	.LASF552:
 18204 18ee 6D637077 		.ascii	"mcpwm_atc_get_tachometer_value\000"
 18204      6D5F6174 
 18204      635F6765 
 18204      745F7461 
 18204      63686F6D 
 18205              	.LASF501:
 18206 190d 6D637077 		.ascii	"mcpwm_detect_voltages\000"
ARM GAS  /var/folders/sv/kgmgr77579zbf78p2zlhkdfr0000gn/T//ccOxe4My.s 			page 341


 18206      6D5F6465 
 18206      74656374 
 18206      5F766F6C 
 18206      74616765 
 18207              	.LASF410:
 18208 1923 6D635F69 		.ascii	"mc_interface_get_tot_current_filtered\000"
 18208      6E746572 
 18208      66616365 
 18208      5F676574 
 18208      5F746F74 
 18209              	.LASF332:
 18210 1949 4C434B52 		.ascii	"LCKR\000"
 18210      00
 18211              	.LASF224:
 18212 194e 666F635F 		.ascii	"foc_encoder_ratio\000"
 18212      656E636F 
 18212      6465725F 
 18212      72617469 
 18212      6F00
 18213              	.LASF22:
 18214 1960 75696E74 		.ascii	"uint32_t\000"
 18214      33325F74 
 18214      00
 18215              	.LASF307:
 18216 1969 434F4D4D 		.ascii	"COMM_GET_DECODED_CHUK\000"
 18216      5F474554 
 18216      5F444543 
 18216      4F444544 
 18216      5F434855 
 18217              	.LASF442:
 18218 197f 6D635F69 		.ascii	"mc_interface_mc_timer_isr\000"
 18218      6E746572 
 18218      66616365 
 18218      5F6D635F 
 18218      74696D65 
 18219              	.LASF284:
 18220 1999 434F4D4D 		.ascii	"COMM_SET_HANDBRAKE\000"
 18220      5F534554 
 18220      5F48414E 
 18220      44425241 
 18220      4B4500
 18221              	.LASF338:
 18222 19ac 706F7274 		.ascii	"port_lock\000"
 18222      5F6C6F63 
 18222      6B00
 18223              	.LASF337:
 18224 19b6 6C6F6E67 		.ascii	"long double\000"
 18224      20646F75 
 18224      626C6500 
 18225              	.LASF283:
 18226 19c2 434F4D4D 		.ascii	"COMM_SET_POS\000"
 18226      5F534554 
 18226      5F504F53 
 18226      00
 18227              	.LASF102:
 18228 19cf 72656761 		.ascii	"regarm_t\000"
 18228      726D5F74 
ARM GAS  /var/folders/sv/kgmgr77579zbf78p2zlhkdfr0000gn/T//ccOxe4My.s 			page 342


 18228      00
 18229              	.LASF32:
 18230 19d8 6576656E 		.ascii	"eventmask_t\000"
 18230      746D6173 
 18230      6B5F7400 
 18231              	.LASF541:
 18232 19e4 6D637077 		.ascii	"mcpwm_get_tot_current_directional\000"
 18232      6D5F6765 
 18232      745F746F 
 18232      745F6375 
 18232      7272656E 
 18233              	.LASF12:
 18234 1a06 6C6F6E67 		.ascii	"long unsigned int\000"
 18234      20756E73 
 18234      69676E65 
 18234      6420696E 
 18234      7400
 18235              	.LASF595:
 18236 1a18 6D637077 		.ascii	"mcpwm_atc_set_pid_speed\000"
 18236      6D5F6174 
 18236      635F7365 
 18236      745F7069 
 18236      645F7370 
 18237              	.LASF259:
 18238 1a30 63635F72 		.ascii	"cc_ramp_step_max\000"
 18238      616D705F 
 18238      73746570 
 18238      5F6D6178 
 18238      00
 18239              	.LASF407:
 18240 1a41 6D635F69 		.ascii	"mc_interface_get_watt_hours\000"
 18240      6E746572 
 18240      66616365 
 18240      5F676574 
 18240      5F776174 
 18241              	.LASF254:
 18242 1a5d 705F7069 		.ascii	"p_pid_kd\000"
 18242      645F6B64 
 18242      00
 18243              	.LASF253:
 18244 1a66 705F7069 		.ascii	"p_pid_ki\000"
 18244      645F6B69 
 18244      00
 18245              	.LASF252:
 18246 1a6f 705F7069 		.ascii	"p_pid_kp\000"
 18246      645F6B70 
 18246      00
 18247              	.LASF415:
 18248 1a78 6D635F69 		.ascii	"mc_interface_get_tachometer_value\000"
 18248      6E746572 
 18248      66616365 
 18248      5F676574 
 18248      5F746163 
 18249              	.LASF322:
 18250 1a9a 636F6D6D 		.ascii	"comm_step\000"
 18250      5F737465 
 18250      7000
ARM GAS  /var/folders/sv/kgmgr77579zbf78p2zlhkdfr0000gn/T//ccOxe4My.s 			page 343


 18251              	.LASF130:
 18252 1aa4 50574D5F 		.ascii	"PWM_MODE_SYNCHRONOUS\000"
 18252      4D4F4445 
 18252      5F53594E 
 18252      4348524F 
 18252      4E4F5553 
 18253              	.LASF269:
 18254 1ab9 6D5F626C 		.ascii	"m_bldc_f_sw_max\000"
 18254      64635F66 
 18254      5F73775F 
 18254      6D617800 
 18255              	.LASF474:
 18256 1ac9 6D5F7465 		.ascii	"m_temp_fet\000"
 18256      6D705F66 
 18256      657400
 18257              	.LASF165:
 18258 1ad4 64727638 		.ascii	"drv8301_oc_mode\000"
 18258      3330315F 
 18258      6F635F6D 
 18258      6F646500 
 18259              	.LASF245:
 18260 1ae4 666F635F 		.ascii	"foc_temp_comp\000"
 18260      74656D70 
 18260      5F636F6D 
 18260      7000
 18261              	.LASF365:
 18262 1af2 74656D70 		.ascii	"temp_fet_accel_start\000"
 18262      5F666574 
 18262      5F616363 
 18262      656C5F73 
 18262      74617274 
 18263              	.LASF517:
 18264 1b07 6D637077 		.ascii	"mcpwm_foc_is_dccal_done\000"
 18264      6D5F666F 
 18264      635F6973 
 18264      5F646363 
 18264      616C5F64 
 18265              	.LASF122:
 18266 1b1f 63686172 		.ascii	"char\000"
 18266      00
 18267              	.LASF540:
 18268 1b24 6D637077 		.ascii	"mcpwm_atc_get_tot_current_directional\000"
 18268      6D5F6174 
 18268      635F6765 
 18268      745F746F 
 18268      745F6375 
 18269              	.LASF63:
 18270 1b4a 725F7175 		.ascii	"r_queue\000"
 18270      65756500 
 18271              	.LASF575:
 18272 1b52 6D637077 		.ascii	"mcpwm_get_tachometer_abs_value\000"
 18272      6D5F6765 
 18272      745F7461 
 18272      63686F6D 
 18272      65746572 
 18273              	.LASF215:
 18274 1b71 736C5F62 		.ascii	"sl_bemf_coupling_k\000"
ARM GAS  /var/folders/sv/kgmgr77579zbf78p2zlhkdfr0000gn/T//ccOxe4My.s 			page 344


 18274      656D665F 
 18274      636F7570 
 18274      6C696E67 
 18274      5F6B00
 18275              	.LASF355:
 18276 1b84 63685379 		.ascii	"chSysUnlockFromISR\000"
 18276      73556E6C 
 18276      6F636B46 
 18276      726F6D49 
 18276      535200
 18277              	.LASF430:
 18278 1b97 6D635F69 		.ascii	"mc_interface_temp_fet_filtered\000"
 18278      6E746572 
 18278      66616365 
 18278      5F74656D 
 18278      705F6665 
 18279              	.LASF466:
 18280 1bb6 6D5F6D6F 		.ascii	"m_motor_iq_sum\000"
 18280      746F725F 
 18280      69715F73 
 18280      756D00
 18281              	.LASF198:
 18282 1bc5 6C5F7465 		.ascii	"l_temp_accel_dec\000"
 18282      6D705F61 
 18282      6363656C 
 18282      5F646563 
 18282      00
 18283              	.LASF274:
 18284 1bd6 434F4D4D 		.ascii	"COMM_FW_VERSION\000"
 18284      5F46575F 
 18284      56455253 
 18284      494F4E00 
 18285              	.LASF450:
 18286 1be6 63757272 		.ascii	"curr_diff_sum\000"
 18286      5F646966 
 18286      665F7375 
 18286      6D00
 18287              	.LASF604:
 18288 1bf4 6D637077 		.ascii	"mcpwm_read_hall_phase\000"
 18288      6D5F7265 
 18288      61645F68 
 18288      616C6C5F 
 18288      70686173 
 18289              	.LASF558:
 18290 1c0a 7465726D 		.ascii	"terminal_add_fault_data\000"
 18290      696E616C 
 18290      5F616464 
 18290      5F666175 
 18290      6C745F64 
 18291              	.LASF454:
 18292 1c22 6D635F69 		.ascii	"mc_interface_adc_inj_int_handler\000"
 18292      6E746572 
 18292      66616365 
 18292      5F616463 
 18292      5F696E6A 
 18293              	.LASF461:
 18294 1c43 6D5F6D6F 		.ascii	"m_motor_current_sum\000"
ARM GAS  /var/folders/sv/kgmgr77579zbf78p2zlhkdfr0000gn/T//ccOxe4My.s 			page 345


 18294      746F725F 
 18294      63757272 
 18294      656E745F 
 18294      73756D00 
 18295              	.LASF583:
 18296 1c57 63684576 		.ascii	"chEvtSignal\000"
 18296      74536967 
 18296      6E616C00 
 18297              	.LASF128:
 18298 1c63 6D635F73 		.ascii	"mc_state\000"
 18298      74617465 
 18298      00
 18299              	.LASF615:
 18300 1c6c 63685468 		.ascii	"chThdGetSelfX\000"
 18300      64476574 
 18300      53656C66 
 18300      5800
 18301              	.LASF485:
 18302 1c7a 6D5F7068 		.ascii	"m_phase_samples\000"
 18302      6173655F 
 18302      73616D70 
 18302      6C657300 
 18303              	.LASF569:
 18304 1c8a 6D637077 		.ascii	"mcpwm_foc_deinit\000"
 18304      6D5F666F 
 18304      635F6465 
 18304      696E6974 
 18304      00
 18305              	.LASF424:
 18306 1c9b 6D635F69 		.ascii	"mc_interface_read_reset_avg_iq\000"
 18306      6E746572 
 18306      66616365 
 18306      5F726561 
 18306      645F7265 
 18307              	.LASF312:
 18308 1cba 6661756C 		.ascii	"fault\000"
 18308      7400
 18309              	.LASF388:
 18310 1cc0 636F6E66 		.ascii	"configuration\000"
 18310      69677572 
 18310      6174696F 
 18310      6E00
 18311              	.LASF463:
 18312 1cce 6D5F6D6F 		.ascii	"m_motor_current_iterations\000"
 18312      746F725F 
 18312      63757272 
 18312      656E745F 
 18312      69746572 
 18313              	.LASF406:
 18314 1ce9 6D635F69 		.ascii	"mc_interface_get_amp_hours_charged\000"
 18314      6E746572 
 18314      66616365 
 18314      5F676574 
 18314      5F616D70 
 18315              	.LASF596:
 18316 1d0c 6D637077 		.ascii	"mcpwm_foc_set_pid_pos\000"
 18316      6D5F666F 
ARM GAS  /var/folders/sv/kgmgr77579zbf78p2zlhkdfr0000gn/T//ccOxe4My.s 			page 346


 18316      635F7365 
 18316      745F7069 
 18316      645F706F 
 18317              	.LASF551:
 18318 1d22 6D637077 		.ascii	"mcpwm_foc_get_tachometer_value\000"
 18318      6D5F666F 
 18318      635F6765 
 18318      745F7461 
 18318      63686F6D 
 18319              	.LASF598:
 18320 1d41 6D637077 		.ascii	"mcpwm_atc_set_pid_pos\000"
 18320      6D5F6174 
 18320      635F7365 
 18320      745F7069 
 18320      645F706F 
 18321              	.LASF166:
 18322 1d57 44454255 		.ascii	"DEBUG_SAMPLING_OFF\000"
 18322      475F5341 
 18322      4D504C49 
 18322      4E475F4F 
 18322      464600
 18323              	.LASF377:
 18324 1d6a 6C6F5F6D 		.ascii	"lo_max\000"
 18324      617800
 18325              	.LASF180:
 18326 1d71 6C5F6375 		.ascii	"l_current_min\000"
 18326      7272656E 
 18326      745F6D69 
 18326      6E00
 18327              	.LASF400:
 18328 1d7f 6D635F69 		.ascii	"mc_interface_get_duty_cycle_set\000"
 18328      6E746572 
 18328      66616365 
 18328      5F676574 
 18328      5F647574 
 18329              	.LASF385:
 18330 1d9f 62756666 		.ascii	"buffer\000"
 18330      657200
 18331              	.LASF317:
 18332 1da6 74616368 		.ascii	"tacho\000"
 18332      6F00
 18333              	.LASF605:
 18334 1dac 6D637077 		.ascii	"mcpwm_foc_get_phase\000"
 18334      6D5F666F 
 18334      635F6765 
 18334      745F7068 
 18334      61736500 
 18335              	.LASF151:
 18336 1dc0 4641554C 		.ascii	"FAULT_CODE_UNDER_VOLTAGE\000"
 18336      545F434F 
 18336      44455F55 
 18336      4E444552 
 18336      5F564F4C 
 18337              	.LASF301:
 18338 1dd9 434F4D4D 		.ascii	"COMM_DETECT_ENCODER\000"
 18338      5F444554 
 18338      4543545F 
ARM GAS  /var/folders/sv/kgmgr77579zbf78p2zlhkdfr0000gn/T//ccOxe4My.s 			page 347


 18338      454E434F 
 18338      44455200 
 18339              	.LASF511:
 18340 1ded 656E636F 		.ascii	"encoder_init_as5047p_spi\000"
 18340      6465725F 
 18340      696E6974 
 18340      5F617335 
 18340      30343770 
 18341              	.LASF334:
 18342 1e06 41465248 		.ascii	"AFRH\000"
 18342      00
 18343              	.LASF289:
 18344 1e0b 434F4D4D 		.ascii	"COMM_GET_MCCONF_DEFAULT\000"
 18344      5F474554 
 18344      5F4D4343 
 18344      4F4E465F 
 18344      44454641 
 18345              	.LASF582:
 18346 1e23 656E636F 		.ascii	"encoder_read_deg\000"
 18346      6465725F 
 18346      72656164 
 18346      5F646567 
 18346      00
 18347              	.LASF278:
 18348 1e34 434F4D4D 		.ascii	"COMM_GET_VALUES\000"
 18348      5F474554 
 18348      5F56414C 
 18348      55455300 
 18349              	.LASF217:
 18350 1e44 68616C6C 		.ascii	"hall_sl_erpm\000"
 18350      5F736C5F 
 18350      6572706D 
 18350      00
 18351              	.LASF33:
 18352 1e51 636E745F 		.ascii	"cnt_t\000"
 18352      7400
 18353              	.LASF364:
 18354 1e57 6C6F5F6D 		.ascii	"lo_min_mot\000"
 18354      696E5F6D 
 18354      6F7400
 18355              	.LASF383:
 18356 1e62 6C6F5F69 		.ascii	"lo_in_min\000"
 18356      6E5F6D69 
 18356      6E00
 18357              	.LASF316:
 18358 1e6c 64757479 		.ascii	"duty\000"
 18358      00
 18359              	.LASF149:
 18360 1e71 4641554C 		.ascii	"FAULT_CODE_NONE\000"
 18360      545F434F 
 18360      44455F4E 
 18360      4F4E4500 
 18361              	.LASF248:
 18362 1e81 735F7069 		.ascii	"s_pid_ki\000"
 18362      645F6B69 
 18362      00
 18363              	.LASF172:
ARM GAS  /var/folders/sv/kgmgr77579zbf78p2zlhkdfr0000gn/T//ccOxe4My.s 			page 348


 18364 1e8a 44454255 		.ascii	"DEBUG_SAMPLING_TRIGGER_FAULT_NOSEND\000"
 18364      475F5341 
 18364      4D504C49 
 18364      4E475F54 
 18364      52494747 
 18365              	.LASF247:
 18366 1eae 735F7069 		.ascii	"s_pid_kp\000"
 18366      645F6B70 
 18366      00
 18367              	.LASF295:
 18368 1eb7 434F4D4D 		.ascii	"COMM_PRINT\000"
 18368      5F505249 
 18368      4E5400
 18369              	.LASF333:
 18370 1ec2 4146524C 		.ascii	"AFRL\000"
 18370      00
 18371              	.LASF207:
 18372 1ec7 6C6F5F63 		.ascii	"lo_current_motor_max_now\000"
 18372      75727265 
 18372      6E745F6D 
 18372      6F746F72 
 18372      5F6D6178 
 18373              	.LASF366:
 18374 1ee0 74656D70 		.ascii	"temp_fet_accel_end\000"
 18374      5F666574 
 18374      5F616363 
 18374      656C5F65 
 18374      6E6400
 18375              	.LASF419:
 18376 1ef3 6D635F69 		.ascii	"mc_interface_get_tachometer_abs_value\000"
 18376      6E746572 
 18376      66616365 
 18376      5F676574 
 18376      5F746163 
 18377              	.LASF234:
 18378 1f19 666F635F 		.ascii	"foc_openloop_rpm\000"
 18378      6F70656E 
 18378      6C6F6F70 
 18378      5F72706D 
 18378      00
 18379              	.LASF238:
 18380 1f2a 666F635F 		.ascii	"foc_sl_d_current_factor\000"
 18380      736C5F64 
 18380      5F637572 
 18380      72656E74 
 18380      5F666163 
 18381              	.LASF231:
 18382 1f42 666F635F 		.ascii	"foc_pll_ki\000"
 18382      706C6C5F 
 18382      6B6900
 18383              	.LASF530:
 18384 1f4d 6D637077 		.ascii	"mcpwm_foc_get_rpm\000"
 18384      6D5F666F 
 18384      635F6765 
 18384      745F7270 
 18384      6D00
 18385              	.LASF230:
ARM GAS  /var/folders/sv/kgmgr77579zbf78p2zlhkdfr0000gn/T//ccOxe4My.s 			page 349


 18386 1f5f 666F635F 		.ascii	"foc_pll_kp\000"
 18386      706C6C5F 
 18386      6B7000
 18387              	.LASF169:
 18388 1f6a 44454255 		.ascii	"DEBUG_SAMPLING_TRIGGER_START\000"
 18388      475F5341 
 18388      4D504C49 
 18388      4E475F54 
 18388      52494747 
 18389              	.LASF446:
 18390 1f87 6162735F 		.ascii	"abs_current\000"
 18390      63757272 
 18390      656E7400 
 18391              	.LASF439:
 18392 1f93 6D635F69 		.ascii	"mc_interface_release_motor\000"
 18392      6E746572 
 18392      66616365 
 18392      5F72656C 
 18392      65617365 
 18393              	.LASF69:
 18394 1fae 76746675 		.ascii	"vtfunc_t\000"
 18394      6E635F74 
 18394      00
 18395              	.LASF299:
 18396 1fb7 434F4D4D 		.ascii	"COMM_DETECT_MOTOR_R_L\000"
 18396      5F444554 
 18396      4543545F 
 18396      4D4F544F 
 18396      525F525F 
 18397              	.LASF574:
 18398 1fcd 6D637077 		.ascii	"mcpwm_atc_get_tachometer_abs_value\000"
 18398      6D5F6174 
 18398      635F6765 
 18398      745F7461 
 18398      63686F6D 
 18399              	.LASF110:
 18400 1ff0 77746F62 		.ascii	"wtobjp\000"
 18400      6A7000
 18401              	.LASF162:
 18402 1ff7 44525638 		.ascii	"DRV8301_OC_LATCH_SHUTDOWN\000"
 18402      3330315F 
 18402      4F435F4C 
 18402      41544348 
 18402      5F534855 
 18403              	.LASF53:
 18404 2011 705F7265 		.ascii	"p_realprio\000"
 18404      616C7072 
 18404      696F00
 18405              	.LASF309:
 18406 201c 434F4D4D 		.ascii	"COMM_SET_CHUCK_DATA\000"
 18406      5F534554 
 18406      5F434855 
 18406      434B5F44 
 18406      41544100 
 18407              	.LASF113:
 18408 2030 77746D74 		.ascii	"wtmtxp\000"
 18408      787000
ARM GAS  /var/folders/sv/kgmgr77579zbf78p2zlhkdfr0000gn/T//ccOxe4My.s 			page 350


 18409              	.LASF148:
 18410 2037 6D635F6D 		.ascii	"mc_motor_type\000"
 18410      6F746F72 
 18410      5F747970 
 18410      6500
 18411              	.LASF167:
 18412 2045 44454255 		.ascii	"DEBUG_SAMPLING_NOW\000"
 18412      475F5341 
 18412      4D504C49 
 18412      4E475F4E 
 18412      4F5700
 18413              	.LASF336:
 18414 2058 646F7562 		.ascii	"double\000"
 18414      6C6500
 18415              	.LASF491:
 18416 205f 6D5F7361 		.ascii	"m_sample_trigger\000"
 18416      6D706C65 
 18416      5F747269 
 18416      67676572 
 18416      00
 18417              	.LASF571:
 18418 2070 656E636F 		.ascii	"encoder_set_counts\000"
 18418      6465725F 
 18418      7365745F 
 18418      636F756E 
 18418      747300
 18419              	.LASF291:
 18420 2083 434F4D4D 		.ascii	"COMM_GET_APPCONF\000"
 18420      5F474554 
 18420      5F415050 
 18420      434F4E46 
 18420      00
 18421              	.LASF379:
 18422 2094 6C6F5F69 		.ascii	"lo_in_max_batt\000"
 18422      6E5F6D61 
 18422      785F6261 
 18422      747400
 18423              	.LASF437:
 18424 20a3 6D635F69 		.ascii	"mc_interface_set_pid_pos\000"
 18424      6E746572 
 18424      66616365 
 18424      5F736574 
 18424      5F706964 
 18425              	.LASF197:
 18426 20bc 6C5F7465 		.ascii	"l_temp_motor_end\000"
 18426      6D705F6D 
 18426      6F746F72 
 18426      5F656E64 
 18426      00
 18427              	.LASF363:
 18428 20cd 6C6F5F6D 		.ascii	"lo_max_mot\000"
 18428      61785F6D 
 18428      6F7400
 18429              	.LASF246:
 18430 20d8 666F635F 		.ascii	"foc_temp_comp_base_temp\000"
 18430      74656D70 
 18430      5F636F6D 
ARM GAS  /var/folders/sv/kgmgr77579zbf78p2zlhkdfr0000gn/T//ccOxe4My.s 			page 351


 18430      705F6261 
 18430      73655F74 
 18431              	.LASF490:
 18432 20f0 6D5F7361 		.ascii	"m_sample_now\000"
 18432      6D706C65 
 18432      5F6E6F77 
 18432      00
 18433              	.LASF178:
 18434 20fd 73656E73 		.ascii	"sensor_mode\000"
 18434      6F725F6D 
 18434      6F646500 
 18435              	.LASF136:
 18436 2109 53454E53 		.ascii	"SENSOR_MODE_SENSORLESS\000"
 18436      4F525F4D 
 18436      4F44455F 
 18436      53454E53 
 18436      4F524C45 
 18437              	.LASF62:
 18438 2120 63685F72 		.ascii	"ch_ready_list\000"
 18438      65616479 
 18438      5F6C6973 
 18438      7400
 18439              	.LASF612:
 18440 212e 474E5520 		.ascii	"GNU C99 5.4.1 20160919 (release) [ARM/embedded-5-br"
 18440      43393920 
 18440      352E342E 
 18440      31203230 
 18440      31363039 
 18441 2161 616E6368 		.ascii	"anch revision 240496] -mcpu=cortex-m4 -mfloat-abi=h"
 18441      20726576 
 18441      6973696F 
 18441      6E203234 
 18441      30343936 
 18442 2194 61726420 		.ascii	"ard -mfpu=fpv4-sp-d16 -mno-thumb-interwork -mthumb "
 18442      2D6D6670 
 18442      753D6670 
 18442      76342D73 
 18442      702D6431 
 18443 21c7 2D676764 		.ascii	"-ggdb -O2 -std=gnu99 -fomit-frame-pointer -falign-f"
 18443      62202D4F 
 18443      32202D73 
 18443      74643D67 
 18443      6E753939 
 18444 21fa 756E6374 		.ascii	"unctions=16 -ffunction-sections -fdata-sections -fn"
 18444      696F6E73 
 18444      3D313620 
 18444      2D666675 
 18444      6E637469 
 18445 222d 6F2D636F 		.ascii	"o-common -fsingle-precision-constant\000"
 18445      6D6D6F6E 
 18445      202D6673 
 18445      696E676C 
 18445      652D7072 
 18446              	.LASF524:
 18447 2252 6D637077 		.ascii	"mcpwm_foc_get_duty_cycle_now\000"
 18447      6D5F666F 
 18447      635F6765 
ARM GAS  /var/folders/sv/kgmgr77579zbf78p2zlhkdfr0000gn/T//ccOxe4My.s 			page 352


 18447      745F6475 
 18447      74795F63 
 18448              	.LASF330:
 18449 226f 50555044 		.ascii	"PUPDR\000"
 18449      5200
 18450              	.LASF9:
 18451 2275 5F5F696E 		.ascii	"__int32_t\000"
 18451      7433325F 
 18451      7400
 18452              	.LASF11:
 18453 227f 5F5F7569 		.ascii	"__uint32_t\000"
 18453      6E743332 
 18453      5F7400
 18454              	.LASF81:
 18455 228a 63685F73 		.ascii	"ch_system_debug\000"
 18455      79737465 
 18455      6D5F6465 
 18455      62756700 
 18456              	.LASF321:
 18457 229a 74696D5F 		.ascii	"tim_top\000"
 18457      746F7000 
 18458              	.LASF549:
 18459 22a2 6D637077 		.ascii	"mcpwm_atc_get_tot_current_in_filtered\000"
 18459      6D5F6174 
 18459      635F6765 
 18459      745F746F 
 18459      745F6375 
 18460              	.LASF462:
 18461 22c8 6D5F696E 		.ascii	"m_input_current_sum\000"
 18461      7075745F 
 18461      63757272 
 18461      656E745F 
 18461      73756D00 
 18462              	.LASF557:
 18463 22dc 6C6F6766 		.ascii	"logf\000"
 18463      00
 18464              	.LASF611:
 18465 22e1 6D637077 		.ascii	"mcpwm_adc_inj_int_handler\000"
 18465      6D5F6164 
 18465      635F696E 
 18465      6A5F696E 
 18465      745F6861 
 18466              	.LASF171:
 18467 22fb 44454255 		.ascii	"DEBUG_SAMPLING_TRIGGER_START_NOSEND\000"
 18467      475F5341 
 18467      4D504C49 
 18467      4E475F54 
 18467      52494747 
 18468              	.LASF268:
 18469 231f 6D5F626C 		.ascii	"m_bldc_f_sw_min\000"
 18469      64635F66 
 18469      5F73775F 
 18469      6D696E00 
 18470              	.LASF123:
 18471 232f 6D757465 		.ascii	"mutex_t\000"
 18471      785F7400 
 18472              	.LASF425:
ARM GAS  /var/folders/sv/kgmgr77579zbf78p2zlhkdfr0000gn/T//ccOxe4My.s 			page 353


 18473 2337 6D635F69 		.ascii	"mc_interface_get_pid_pos_set\000"
 18473      6E746572 
 18473      66616365 
 18473      5F676574 
 18473      5F706964 
 18474              	.LASF51:
 18475 2354 705F6570 		.ascii	"p_epending\000"
 18475      656E6469 
 18475      6E6700
 18476              	.LASF417:
 18477 235f 73616D70 		.ascii	"sample_send_thread\000"
 18477      6C655F73 
 18477      656E645F 
 18477      74687265 
 18477      616400
 18478              	.LASF327:
 18479 2372 4D4F4445 		.ascii	"MODER\000"
 18479      5200
 18480              	.LASF235:
 18481 2378 666F635F 		.ascii	"foc_sl_openloop_hyst\000"
 18481      736C5F6F 
 18481      70656E6C 
 18481      6F6F705F 
 18481      68797374 
 18482              	.LASF570:
 18483 238d 6D637077 		.ascii	"mcpwm_atc_deinit\000"
 18483      6D5F6174 
 18483      635F6465 
 18483      696E6974 
 18483      00
 18484              	.LASF533:
 18485 239e 6D637077 		.ascii	"mcpwm_foc_get_tot_current\000"
 18485      6D5F666F 
 18485      635F6765 
 18485      745F746F 
 18485      745F6375 
 18486              	.LASF306:
 18487 23b8 434F4D4D 		.ascii	"COMM_GET_DECODED_ADC\000"
 18487      5F474554 
 18487      5F444543 
 18487      4F444544 
 18487      5F414443 
 18488              	.LASF290:
 18489 23cd 434F4D4D 		.ascii	"COMM_SET_APPCONF\000"
 18489      5F534554 
 18489      5F415050 
 18489      434F4E46 
 18489      00
 18490              	.LASF315:
 18491 23de 766F6C74 		.ascii	"voltage\000"
 18491      61676500 
 18492              	.LASF205:
 18493 23e6 6C6F5F69 		.ascii	"lo_in_current_max\000"
 18493      6E5F6375 
 18493      7272656E 
 18493      745F6D61 
 18493      7800
ARM GAS  /var/folders/sv/kgmgr77579zbf78p2zlhkdfr0000gn/T//ccOxe4My.s 			page 354


 18494              	.LASF298:
 18495 23f8 434F4D4D 		.ascii	"COMM_DETECT_MOTOR_PARAM\000"
 18495      5F444554 
 18495      4543545F 
 18495      4D4F544F 
 18495      525F5041 
 18496              	.LASF64:
 18497 2410 725F7072 		.ascii	"r_prio\000"
 18497      696F00
 18498              	.LASF239:
 18499 2417 666F635F 		.ascii	"foc_sensor_mode\000"
 18499      73656E73 
 18499      6F725F6D 
 18499      6F646500 
 18500              	.LASF497:
 18501 2427 49544D5F 		.ascii	"ITM_RxBuffer\000"
 18501      52784275 
 18501      66666572 
 18501      00
 18502              	.LASF441:
 18503 2434 6D635F69 		.ascii	"mc_interface_set_handbrake_rel\000"
 18503      6E746572 
 18503      66616365 
 18503      5F736574 
 18503      5F68616E 
 18504              	.LASF142:
 18505 2453 464F435F 		.ascii	"FOC_SENSOR_MODE_HALL\000"
 18505      53454E53 
 18505      4F525F4D 
 18505      4F44455F 
 18505      48414C4C 
 18506              	.LASF15:
 18507 2468 6C6F6E67 		.ascii	"long long unsigned int\000"
 18507      206C6F6E 
 18507      6720756E 
 18507      7369676E 
 18507      65642069 
 18508              	.LASF106:
 18509 247f 6F666673 		.ascii	"offset\000"
 18509      657400
 18510              	.LASF476:
 18511 2486 6D5F6375 		.ascii	"m_curr0_samples\000"
 18511      7272305F 
 18511      73616D70 
 18511      6C657300 
 18512              	.LASF221:
 18513 2496 666F635F 		.ascii	"foc_dt_us\000"
 18513      64745F75 
 18513      7300
 18514              	.LASF477:
 18515 24a0 6D5F6375 		.ascii	"m_curr1_samples\000"
 18515      7272315F 
 18515      73616D70 
 18515      6C657300 
 18516              	.LASF343:
 18517 24b0 63685265 		.ascii	"chRegSetThreadName\000"
 18517      67536574 
ARM GAS  /var/folders/sv/kgmgr77579zbf78p2zlhkdfr0000gn/T//ccOxe4My.s 			page 355


 18517      54687265 
 18517      61644E61 
 18517      6D6500
 18518              	.LASF244:
 18519 24c3 666F635F 		.ascii	"foc_sat_comp\000"
 18519      7361745F 
 18519      636F6D70 
 18519      00
 18520              	.LASF440:
 18521 24d0 6D635F69 		.ascii	"mc_interface_set_brake_current_rel\000"
 18521      6E746572 
 18521      66616365 
 18521      5F736574 
 18521      5F627261 
 18522              	.LASF88:
 18523 24f3 69646C65 		.ascii	"idle_thread_wa\000"
 18523      5F746872 
 18523      6561645F 
 18523      776100
 18524              	.LASF449:
 18525 2502 73616D70 		.ascii	"sample\000"
 18525      6C6500
 18526              	.LASF75:
 18527 2509 76745F66 		.ascii	"vt_func\000"
 18527      756E6300 
 18528              	.LASF90:
 18529 2511 534D4352 		.ascii	"SMCR\000"
 18529      00
 18530              	.LASF349:
 18531 2516 6D635F69 		.ascii	"mc_interface_set_brake_current\000"
 18531      6E746572 
 18531      66616365 
 18531      5F736574 
 18531      5F627261 
 18532              	.LASF323:
 18533 2535 74656D70 		.ascii	"temperature\000"
 18533      65726174 
 18533      75726500 
 18534              	.LASF281:
 18535 2541 434F4D4D 		.ascii	"COMM_SET_CURRENT_BRAKE\000"
 18535      5F534554 
 18535      5F435552 
 18535      52454E54 
 18535      5F425241 
 18536              	.LASF399:
 18537 2558 6D635F69 		.ascii	"mc_interface_get_state\000"
 18537      6E746572 
 18537      66616365 
 18537      5F676574 
 18537      5F737461 
 18538              	.LASF71:
 18539 256f 63685F76 		.ascii	"ch_virtual_timer\000"
 18539      69727475 
 18539      616C5F74 
 18539      696D6572 
 18539      00
 18540              	.LASF44:
ARM GAS  /var/folders/sv/kgmgr77579zbf78p2zlhkdfr0000gn/T//ccOxe4My.s 			page 356


 18541 2580 705F666C 		.ascii	"p_flags\000"
 18541      61677300 
 18542              	.LASF114:
 18543 2588 65776D61 		.ascii	"ewmask\000"
 18543      736B00
 18544              	.LASF395:
 18545 258f 6D635F69 		.ascii	"mc_interface_get_configuration\000"
 18545      6E746572 
 18545      66616365 
 18545      5F676574 
 18545      5F636F6E 
 18546              	.LASF282:
 18547 25ae 434F4D4D 		.ascii	"COMM_SET_RPM\000"
 18547      5F534554 
 18547      5F52504D 
 18547      00
 18548              	.LASF350:
 18549 25bb 6D635F69 		.ascii	"mc_interface_set_handbrake\000"
 18549      6E746572 
 18549      66616365 
 18549      5F736574 
 18549      5F68616E 
 18550              	.LASF311:
 18551 25d6 434F4D4D 		.ascii	"COMM_NRF_START_PAIRING\000"
 18551      5F4E5246 
 18551      5F535441 
 18551      52545F50 
 18551      41495249 
 18552              	.LASF52:
 18553 25ed 705F6D74 		.ascii	"p_mtxlist\000"
 18553      786C6973 
 18553      7400
 18554              	.LASF214:
 18555 25f7 736C5F63 		.ascii	"sl_cycle_int_rpm_br\000"
 18555      79636C65 
 18555      5F696E74 
 18555      5F72706D 
 18555      5F627200 
 18556              	.LASF27:
 18557 260b 74737461 		.ascii	"tstate_t\000"
 18557      74655F74 
 18557      00
 18558              	.LASF592:
 18559 2614 6D637077 		.ascii	"mcpwm_atc_set_duty_noramp\000"
 18559      6D5F6174 
 18559      635F7365 
 18559      745F6475 
 18559      74795F6E 
 18560              	.LASF270:
 18561 262e 6D5F6463 		.ascii	"m_dc_f_sw\000"
 18561      5F665F73 
 18561      7700
 18562              	.LASF243:
 18563 2638 666F635F 		.ascii	"foc_sample_high_current\000"
 18563      73616D70 
 18563      6C655F68 
 18563      6967685F 
ARM GAS  /var/folders/sv/kgmgr77579zbf78p2zlhkdfr0000gn/T//ccOxe4My.s 			page 357


 18563      63757272 
 18564              	.LASF515:
 18565 2650 656E636F 		.ascii	"encoder_init_abi\000"
 18565      6465725F 
 18565      696E6974 
 18565      5F616269 
 18565      00
 18566              	.LASF135:
 18567 2661 6D635F63 		.ascii	"mc_comm_mode\000"
 18567      6F6D6D5F 
 18567      6D6F6465 
 18567      00
 18568              	.LASF320:
 18569 266e 74696D5F 		.ascii	"tim_current_samp\000"
 18569      63757272 
 18569      656E745F 
 18569      73616D70 
 18569      00
 18570              	.LASF42:
 18571 267f 705F6E61 		.ascii	"p_name\000"
 18571      6D6500
 18572              	.LASF314:
 18573 2686 63757272 		.ascii	"current_filtered\000"
 18573      656E745F 
 18573      66696C74 
 18573      65726564 
 18573      00
 18574              	.LASF435:
 18575 2697 6D635F69 		.ascii	"mc_interface_set_duty_noramp\000"
 18575      6E746572 
 18575      66616365 
 18575      5F736574 
 18575      5F647574 
 18576              	.LASF345:
 18577 26b4 6E616D65 		.ascii	"name\000"
 18577      00
 18578              	.LASF77:
 18579 26b9 76697274 		.ascii	"virtual_timers_list_t\000"
 18579      75616C5F 
 18579      74696D65 
 18579      72735F6C 
 18579      6973745F 
 18580              	.LASF129:
 18581 26cf 50574D5F 		.ascii	"PWM_MODE_NONSYNCHRONOUS_HISW\000"
 18581      4D4F4445 
 18581      5F4E4F4E 
 18581      53594E43 
 18581      48524F4E 
 18582              	.LASF443:
 18583 26ec 696E7075 		.ascii	"input_voltage\000"
 18583      745F766F 
 18583      6C746167 
 18583      6500
 18584              	.LASF164:
 18585 26fa 44525638 		.ascii	"DRV8301_OC_DISABLED\000"
 18585      3330315F 
 18585      4F435F44 
ARM GAS  /var/folders/sv/kgmgr77579zbf78p2zlhkdfr0000gn/T//ccOxe4My.s 			page 358


 18585      49534142 
 18585      4C454400 
 18586              	.LASF404:
 18587 270e 6D635F69 		.ascii	"mc_interface_get_amp_hours\000"
 18587      6E746572 
 18587      66616365 
 18587      5F676574 
 18587      5F616D70 
 18588              	.LASF310:
 18589 2729 434F4D4D 		.ascii	"COMM_CUSTOM_APP_DATA\000"
 18589      5F435553 
 18589      544F4D5F 
 18589      4150505F 
 18589      44415441 
 18590              	.LASF296:
 18591 273e 434F4D4D 		.ascii	"COMM_ROTOR_POSITION\000"
 18591      5F524F54 
 18591      4F525F50 
 18591      4F534954 
 18591      494F4E00 
 18592              	.LASF116:
 18593 2752 735F7175 		.ascii	"s_queue\000"
 18593      65756500 
 18594              	.LASF433:
 18595 275a 72657476 		.ascii	"retval\000"
 18595      616C00
 18596              	.LASF156:
 18597 2761 6D635F66 		.ascii	"mc_fault_code\000"
 18597      61756C74 
 18597      5F636F64 
 18597      6500
 18598              	.LASF174:
 18599 276f 64656275 		.ascii	"debug_sampling_mode\000"
 18599      675F7361 
 18599      6D706C69 
 18599      6E675F6D 
 18599      6F646500 
 18600              	.LASF261:
 18601 2783 6D5F6475 		.ascii	"m_duty_ramp_step\000"
 18601      74795F72 
 18601      616D705F 
 18601      73746570 
 18601      00
 18602              	.LASF273:
 18603 2794 6D635F63 		.ascii	"mc_configuration\000"
 18603      6F6E6669 
 18603      67757261 
 18603      74696F6E 
 18603      00
 18604              	.LASF380:
 18605 27a5 6C6F5F69 		.ascii	"lo_in_max_watt\000"
 18605      6E5F6D61 
 18605      785F7761 
 18605      747400
 18606              	.LASF13:
 18607 27b4 6C6F6E67 		.ascii	"long long int\000"
 18607      206C6F6E 
ARM GAS  /var/folders/sv/kgmgr77579zbf78p2zlhkdfr0000gn/T//ccOxe4My.s 			page 359


 18607      6720696E 
 18607      7400
 18608              	.LASF451:
 18609 27c2 63757272 		.ascii	"curr_diff_samples\000"
 18609      5F646966 
 18609      665F7361 
 18609      6D706C65 
 18609      7300
 18610              	.LASF356:
 18611 27d4 63685379 		.ascii	"chSysLockFromISR\000"
 18611      734C6F63 
 18611      6B46726F 
 18611      6D495352 
 18611      00
 18612              	.LASF375:
 18613 27e5 72706D5F 		.ascii	"rpm_neg_cut_start\000"
 18613      6E65675F 
 18613      6375745F 
 18613      73746172 
 18613      7400
 18614              	.LASF294:
 18615 27f7 434F4D4D 		.ascii	"COMM_TERMINAL_CMD\000"
 18615      5F544552 
 18615      4D494E41 
 18615      4C5F434D 
 18615      4400
 18616              	.LASF202:
 18617 2809 6C5F7761 		.ascii	"l_watt_min\000"
 18617      74745F6D 
 18617      696E00
 18618              	.LASF188:
 18619 2814 6C5F6D61 		.ascii	"l_max_erpm_fbrake_cc\000"
 18619      785F6572 
 18619      706D5F66 
 18619      6272616B 
 18619      655F6363 
 18620              	.LASF586:
 18621 2829 6D637077 		.ascii	"mcpwm_init_done\000"
 18621      6D5F696E 
 18621      69745F64 
 18621      6F6E6500 
 18622              	.LASF292:
 18623 2839 434F4D4D 		.ascii	"COMM_GET_APPCONF_DEFAULT\000"
 18623      5F474554 
 18623      5F415050 
 18623      434F4E46 
 18623      5F444546 
 18624              	.LASF518:
 18625 2852 6D637077 		.ascii	"mcpwm_is_dccal_done\000"
 18625      6D5F6973 
 18625      5F646363 
 18625      616C5F64 
 18625      6F6E6500 
 18626              	.LASF562:
 18627 2866 7574696C 		.ascii	"utils_map\000"
 18627      735F6D61 
 18627      7000
ARM GAS  /var/folders/sv/kgmgr77579zbf78p2zlhkdfr0000gn/T//ccOxe4My.s 			page 360


 18628              	.LASF347:
 18629 2870 6D635F69 		.ascii	"mc_interface_set_duty\000"
 18629      6E746572 
 18629      66616365 
 18629      5F736574 
 18629      5F647574 
 18630              	.LASF124:
 18631 2886 4D435F53 		.ascii	"MC_STATE_OFF\000"
 18631      54415445 
 18631      5F4F4646 
 18631      00
 18632              	.LASF342:
 18633 2893 5F5F7365 		.ascii	"__set_BASEPRI\000"
 18633      745F4241 
 18633      53455052 
 18633      4900
 18634              	.LASF602:
 18635 28a1 6D637077 		.ascii	"mcpwm_foc_set_brake_current\000"
 18635      6D5F666F 
 18635      635F7365 
 18635      745F6272 
 18635      616B655F 
 18636              	.LASF181:
 18637 28bd 6C5F696E 		.ascii	"l_in_current_max\000"
 18637      5F637572 
 18637      72656E74 
 18637      5F6D6178 
 18637      00
 18638              	.LASF484:
 18639 28ce 6D5F665F 		.ascii	"m_f_sw_samples\000"
 18639      73775F73 
 18639      616D706C 
 18639      657300
 18640              	.LASF41:
 18641 28dd 705F6F6C 		.ascii	"p_older\000"
 18641      64657200 
 18642              	.LASF550:
 18643 28e5 6D637077 		.ascii	"mcpwm_get_tot_current_in_filtered\000"
 18643      6D5F6765 
 18643      745F746F 
 18643      745F6375 
 18643      7272656E 
 18644              	.LASF55:
 18645 2907 74687265 		.ascii	"thread_reference_t\000"
 18645      61645F72 
 18645      65666572 
 18645      656E6365 
 18645      5F7400
 18646              	.LASF255:
 18647 291a 705F7069 		.ascii	"p_pid_ang_div\000"
 18647      645F616E 
 18647      675F6469 
 18647      7600
 18648              	.LASF513:
 18649 2928 6D637077 		.ascii	"mcpwm_atc_init\000"
 18649      6D5F6174 
 18649      635F696E 
ARM GAS  /var/folders/sv/kgmgr77579zbf78p2zlhkdfr0000gn/T//ccOxe4My.s 			page 361


 18649      697400
 18650              	.LASF236:
 18651 2937 666F635F 		.ascii	"foc_sl_openloop_time\000"
 18651      736C5F6F 
 18651      70656E6C 
 18651      6F6F705F 
 18651      74696D65 
 18652              	.LASF107:
 18653 294c 746D5F63 		.ascii	"tm_calibration_t\000"
 18653      616C6962 
 18653      72617469 
 18653      6F6E5F74 
 18653      00
 18654              	.LASF351:
 18655 295d 6D635F69 		.ascii	"mc_interface_fault_stop\000"
 18655      6E746572 
 18655      66616365 
 18655      5F666175 
 18655      6C745F73 
 18656              	.LASF2:
 18657 2975 5F5F696E 		.ascii	"__int8_t\000"
 18657      74385F74 
 18657      00
 18658              	.LASF206:
 18659 297e 6C6F5F69 		.ascii	"lo_in_current_min\000"
 18659      6E5F6375 
 18659      7272656E 
 18659      745F6D69 
 18659      6E00
 18660              	.LASF408:
 18661 2990 6D635F69 		.ascii	"mc_interface_get_watt_hours_charged\000"
 18661      6E746572 
 18661      66616365 
 18661      5F676574 
 18661      5F776174 
 18662              	.LASF199:
 18663 29b4 6C5F6D69 		.ascii	"l_min_duty\000"
 18663      6E5F6475 
 18663      747900
 18664              	.LASF369:
 18665 29bf 6C6F5F66 		.ascii	"lo_fet_temp_accel\000"
 18665      65745F74 
 18665      656D705F 
 18665      61636365 
 18665      6C00
 18666              	.LASF160:
 18667 29d1 73656E73 		.ascii	"sensor_port_mode\000"
 18667      6F725F70 
 18667      6F72745F 
 18667      6D6F6465 
 18667      00
 18668              	.LASF92:
 18669 29e2 43434D52 		.ascii	"CCMR1\000"
 18669      3100
 18670              	.LASF93:
 18671 29e8 43434D52 		.ascii	"CCMR2\000"
 18671      3200
ARM GAS  /var/folders/sv/kgmgr77579zbf78p2zlhkdfr0000gn/T//ccOxe4My.s 			page 362


 18672              	.LASF143:
 18673 29ee 6D635F66 		.ascii	"mc_foc_sensor_mode\000"
 18673      6F635F73 
 18673      656E736F 
 18673      725F6D6F 
 18673      646500
 18674              	.LASF16:
 18675 2a01 756E7369 		.ascii	"unsigned int\000"
 18675      676E6564 
 18675      20696E74 
 18675      00
 18676              	.LASF467:
 18677 2a0e 6D5F6D6F 		.ascii	"m_motor_id_iterations\000"
 18677      746F725F 
 18677      69645F69 
 18677      74657261 
 18677      74696F6E 
 18678              	.LASF506:
 18679 2a24 63684576 		.ascii	"chEvtWaitAny\000"
 18679      74576169 
 18679      74416E79 
 18679      00
 18680              	.LASF391:
 18681 2a31 705F6675 		.ascii	"p_func\000"
 18681      6E6300
 18682              	.LASF6:
 18683 2a38 73686F72 		.ascii	"short int\000"
 18683      7420696E 
 18683      7400
 18684              	.LASF242:
 18685 2a42 666F635F 		.ascii	"foc_sample_v0_v7\000"
 18685      73616D70 
 18685      6C655F76 
 18685      305F7637 
 18685      00
 18686              	.LASF502:
 18687 2a53 6D637077 		.ascii	"mcpwm_detect_currents_diff\000"
 18687      6D5F6465 
 18687      74656374 
 18687      5F637572 
 18687      72656E74 
 18688              	.LASF429:
 18689 2a6e 64656369 		.ascii	"decimation\000"
 18689      6D617469 
 18689      6F6E00
 18690              	.LASF587:
 18691 2a79 6D637077 		.ascii	"mcpwm_set_duty\000"
 18691      6D5F7365 
 18691      745F6475 
 18691      747900
 18692              	.LASF459:
 18693 2a88 6D5F6C6F 		.ascii	"m_lock_enabled\000"
 18693      636B5F65 
 18693      6E61626C 
 18693      656400
 18694              	.LASF325:
 18695 2a97 6661756C 		.ascii	"fault_data\000"
ARM GAS  /var/folders/sv/kgmgr77579zbf78p2zlhkdfr0000gn/T//ccOxe4My.s 			page 363


 18695      745F6461 
 18695      746100
 18696              	.LASF483:
 18697 2aa2 6D5F6375 		.ascii	"m_curr_fir_samples\000"
 18697      72725F66 
 18697      69725F73 
 18697      616D706C 
 18697      657300
 18698              	.LASF144:
 18699 2ab5 4D4F544F 		.ascii	"MOTOR_TYPE_BLDC\000"
 18699      525F5459 
 18699      50455F42 
 18699      4C444300 
 18700              	.LASF389:
 18701 2ac5 6D635F69 		.ascii	"mc_interface_init\000"
 18701      6E746572 
 18701      66616365 
 18701      5F696E69 
 18701      7400
 18702              	.LASF394:
 18703 2ad7 6D635F69 		.ascii	"mc_interface_lock_override_once\000"
 18703      6E746572 
 18703      66616365 
 18703      5F6C6F63 
 18703      6B5F6F76 
 18704              	.LASF481:
 18705 2af7 6D5F767A 		.ascii	"m_vzero_samples\000"
 18705      65726F5F 
 18705      73616D70 
 18705      6C657300 
 18706              	.LASF578:
 18707 2b07 6D637077 		.ascii	"mcpwm_get_last_inj_adc_isr_duration\000"
 18707      6D5F6765 
 18707      745F6C61 
 18707      73745F69 
 18707      6E6A5F61 
 18708              	.LASF43:
 18709 2b2b 705F7374 		.ascii	"p_state\000"
 18709      61746500 
 18710              	.LASF496:
 18711 2b33 73616D70 		.ascii	"sample_send_tp\000"
 18711      6C655F73 
 18711      656E645F 
 18711      747000
 18712              	.LASF58:
 18713 2b42 63685F74 		.ascii	"ch_threads_list\000"
 18713      68726561 
 18713      64735F6C 
 18713      69737400 
 18714              	.LASF134:
 18715 2b52 434F4D4D 		.ascii	"COMM_MODE_DELAY\000"
 18715      5F4D4F44 
 18715      455F4445 
 18715      4C415900 
 18716              	.LASF263:
 18717 2b62 6D5F656E 		.ascii	"m_encoder_counts\000"
 18717      636F6465 
ARM GAS  /var/folders/sv/kgmgr77579zbf78p2zlhkdfr0000gn/T//ccOxe4My.s 			page 364


 18717      725F636F 
 18717      756E7473 
 18717      00
 18718              		.ident	"GCC: (GNU Tools for ARM Embedded Processors) 5.4.1 20160919 (release) [ARM/embedded-5-bran
ARM GAS  /var/folders/sv/kgmgr77579zbf78p2zlhkdfr0000gn/T//ccOxe4My.s 			page 365


DEFINED SYMBOLS
                            *ABS*:0000000000000000 mc_interface.c
/var/folders/sv/kgmgr77579zbf78p2zlhkdfr0000gn/T//ccOxe4My.s:22     .text.sample_send_thread:0000000000000000 $t
/var/folders/sv/kgmgr77579zbf78p2zlhkdfr0000gn/T//ccOxe4My.s:27     .text.sample_send_thread:0000000000000000 sample_send_thread
/var/folders/sv/kgmgr77579zbf78p2zlhkdfr0000gn/T//ccOxe4My.s:113    .text.sample_send_thread:0000000000000044 $d
/var/folders/sv/kgmgr77579zbf78p2zlhkdfr0000gn/T//ccOxe4My.s:119    .text.sample_send_thread:000000000000004a $t
/var/folders/sv/kgmgr77579zbf78p2zlhkdfr0000gn/T//ccOxe4My.s:341    .text.sample_send_thread:00000000000001f0 $d
/var/folders/sv/kgmgr77579zbf78p2zlhkdfr0000gn/T//ccOxe4My.s:366    .text.mc_interface_set_handbrake.part.3:0000000000000000 $t
/var/folders/sv/kgmgr77579zbf78p2zlhkdfr0000gn/T//ccOxe4My.s:371    .text.mc_interface_set_handbrake.part.3:0000000000000000 mc_interface_set_handbrake.part.3
/var/folders/sv/kgmgr77579zbf78p2zlhkdfr0000gn/T//ccOxe4My.s:386    .text.mc_interface_set_handbrake.part.3:000000000000000c $d
/var/folders/sv/kgmgr77579zbf78p2zlhkdfr0000gn/T//ccOxe4My.s:390    .text.mc_interface_set_handbrake.part.3:0000000000000010 $t
/var/folders/sv/kgmgr77579zbf78p2zlhkdfr0000gn/T//ccOxe4My.s:408    .text.mc_interface_set_handbrake.part.3:0000000000000020 $d
/var/folders/sv/kgmgr77579zbf78p2zlhkdfr0000gn/T//ccOxe4My.s:413    .text.mc_interface_init:0000000000000000 $t
/var/folders/sv/kgmgr77579zbf78p2zlhkdfr0000gn/T//ccOxe4My.s:419    .text.mc_interface_init:0000000000000000 mc_interface_init
/var/folders/sv/kgmgr77579zbf78p2zlhkdfr0000gn/T//ccOxe4My.s:596    .text.mc_interface_init:00000000000000c8 $d
/var/folders/sv/kgmgr77579zbf78p2zlhkdfr0000gn/T//ccOxe4My.s:600    .text.mc_interface_init:00000000000000cc $t
/var/folders/sv/kgmgr77579zbf78p2zlhkdfr0000gn/T//ccOxe4My.s:673    .text.mc_interface_init:0000000000000100 $d
/var/folders/sv/kgmgr77579zbf78p2zlhkdfr0000gn/T//ccOxe4My.s:3077   .text.timer_thread:0000000000000000 timer_thread
/var/folders/sv/kgmgr77579zbf78p2zlhkdfr0000gn/T//ccOxe4My.s:709    .text.mc_interface_get_configuration:0000000000000000 $t
/var/folders/sv/kgmgr77579zbf78p2zlhkdfr0000gn/T//ccOxe4My.s:715    .text.mc_interface_get_configuration:0000000000000000 mc_interface_get_configuration
/var/folders/sv/kgmgr77579zbf78p2zlhkdfr0000gn/T//ccOxe4My.s:728    .text.mc_interface_get_configuration:0000000000000004 $d
/var/folders/sv/kgmgr77579zbf78p2zlhkdfr0000gn/T//ccOxe4My.s:733    .text.mc_interface_dccal_done:0000000000000000 $t
/var/folders/sv/kgmgr77579zbf78p2zlhkdfr0000gn/T//ccOxe4My.s:739    .text.mc_interface_dccal_done:0000000000000000 mc_interface_dccal_done
/var/folders/sv/kgmgr77579zbf78p2zlhkdfr0000gn/T//ccOxe4My.s:757    .text.mc_interface_dccal_done:000000000000000e $d
/var/folders/sv/kgmgr77579zbf78p2zlhkdfr0000gn/T//ccOxe4My.s:761    .text.mc_interface_dccal_done:0000000000000012 $t
/var/folders/sv/kgmgr77579zbf78p2zlhkdfr0000gn/T//ccOxe4My.s:793    .text.mc_interface_dccal_done:000000000000002c $d
/var/folders/sv/kgmgr77579zbf78p2zlhkdfr0000gn/T//ccOxe4My.s:798    .text.mc_interface_set_pwm_callback:0000000000000000 $t
/var/folders/sv/kgmgr77579zbf78p2zlhkdfr0000gn/T//ccOxe4My.s:804    .text.mc_interface_set_pwm_callback:0000000000000000 mc_interface_set_pwm_callback
/var/folders/sv/kgmgr77579zbf78p2zlhkdfr0000gn/T//ccOxe4My.s:819    .text.mc_interface_set_pwm_callback:0000000000000008 $d
/var/folders/sv/kgmgr77579zbf78p2zlhkdfr0000gn/T//ccOxe4My.s:824    .text.mc_interface_lock:0000000000000000 $t
/var/folders/sv/kgmgr77579zbf78p2zlhkdfr0000gn/T//ccOxe4My.s:830    .text.mc_interface_lock:0000000000000000 mc_interface_lock
/var/folders/sv/kgmgr77579zbf78p2zlhkdfr0000gn/T//ccOxe4My.s:845    .text.mc_interface_lock:0000000000000008 $d
/var/folders/sv/kgmgr77579zbf78p2zlhkdfr0000gn/T//ccOxe4My.s:850    .text.mc_interface_unlock:0000000000000000 $t
/var/folders/sv/kgmgr77579zbf78p2zlhkdfr0000gn/T//ccOxe4My.s:856    .text.mc_interface_unlock:0000000000000000 mc_interface_unlock
/var/folders/sv/kgmgr77579zbf78p2zlhkdfr0000gn/T//ccOxe4My.s:871    .text.mc_interface_unlock:0000000000000008 $d
/var/folders/sv/kgmgr77579zbf78p2zlhkdfr0000gn/T//ccOxe4My.s:876    .text.mc_interface_lock_override_once:0000000000000000 $t
/var/folders/sv/kgmgr77579zbf78p2zlhkdfr0000gn/T//ccOxe4My.s:882    .text.mc_interface_lock_override_once:0000000000000000 mc_interface_lock_override_once
/var/folders/sv/kgmgr77579zbf78p2zlhkdfr0000gn/T//ccOxe4My.s:897    .text.mc_interface_lock_override_once:0000000000000008 $d
/var/folders/sv/kgmgr77579zbf78p2zlhkdfr0000gn/T//ccOxe4My.s:902    .text.mc_interface_get_fault:0000000000000000 $t
/var/folders/sv/kgmgr77579zbf78p2zlhkdfr0000gn/T//ccOxe4My.s:908    .text.mc_interface_get_fault:0000000000000000 mc_interface_get_fault
/var/folders/sv/kgmgr77579zbf78p2zlhkdfr0000gn/T//ccOxe4My.s:923    .text.mc_interface_get_fault:0000000000000008 $d
/var/folders/sv/kgmgr77579zbf78p2zlhkdfr0000gn/T//ccOxe4My.s:928    .text.mc_interface_fault_to_string:0000000000000000 $t
/var/folders/sv/kgmgr77579zbf78p2zlhkdfr0000gn/T//ccOxe4My.s:934    .text.mc_interface_fault_to_string:0000000000000000 mc_interface_fault_to_string
/var/folders/sv/kgmgr77579zbf78p2zlhkdfr0000gn/T//ccOxe4My.s:954    .text.mc_interface_fault_to_string:0000000000000010 $d
/var/folders/sv/kgmgr77579zbf78p2zlhkdfr0000gn/T//ccOxe4My.s:960    .text.mc_interface_get_state:0000000000000000 $t
/var/folders/sv/kgmgr77579zbf78p2zlhkdfr0000gn/T//ccOxe4My.s:966    .text.mc_interface_get_state:0000000000000000 mc_interface_get_state
/var/folders/sv/kgmgr77579zbf78p2zlhkdfr0000gn/T//ccOxe4My.s:981    .text.mc_interface_get_state:000000000000000c $d
/var/folders/sv/kgmgr77579zbf78p2zlhkdfr0000gn/T//ccOxe4My.s:985    .text.mc_interface_get_state:0000000000000010 $t
/var/folders/sv/kgmgr77579zbf78p2zlhkdfr0000gn/T//ccOxe4My.s:1001   .text.mc_interface_get_state:000000000000001c $d
/var/folders/sv/kgmgr77579zbf78p2zlhkdfr0000gn/T//ccOxe4My.s:1006   .text.mc_interface_get_duty_cycle_set:0000000000000000 $t
/var/folders/sv/kgmgr77579zbf78p2zlhkdfr0000gn/T//ccOxe4My.s:1012   .text.mc_interface_get_duty_cycle_set:0000000000000000 mc_interface_get_duty_cycle_set
/var/folders/sv/kgmgr77579zbf78p2zlhkdfr0000gn/T//ccOxe4My.s:1030   .text.mc_interface_get_duty_cycle_set:000000000000000e $d
/var/folders/sv/kgmgr77579zbf78p2zlhkdfr0000gn/T//ccOxe4My.s:1034   .text.mc_interface_get_duty_cycle_set:0000000000000012 $t
/var/folders/sv/kgmgr77579zbf78p2zlhkdfr0000gn/T//ccOxe4My.s:1073   .text.mc_interface_get_duty_cycle_set:0000000000000044 $d
/var/folders/sv/kgmgr77579zbf78p2zlhkdfr0000gn/T//ccOxe4My.s:1079   .text.mc_interface_get_duty_cycle_now:0000000000000000 $t
/var/folders/sv/kgmgr77579zbf78p2zlhkdfr0000gn/T//ccOxe4My.s:1085   .text.mc_interface_get_duty_cycle_now:0000000000000000 mc_interface_get_duty_cycle_now
/var/folders/sv/kgmgr77579zbf78p2zlhkdfr0000gn/T//ccOxe4My.s:1103   .text.mc_interface_get_duty_cycle_now:000000000000000e $d
ARM GAS  /var/folders/sv/kgmgr77579zbf78p2zlhkdfr0000gn/T//ccOxe4My.s 			page 366


/var/folders/sv/kgmgr77579zbf78p2zlhkdfr0000gn/T//ccOxe4My.s:1107   .text.mc_interface_get_duty_cycle_now:0000000000000012 $t
/var/folders/sv/kgmgr77579zbf78p2zlhkdfr0000gn/T//ccOxe4My.s:1146   .text.mc_interface_get_duty_cycle_now:0000000000000044 $d
/var/folders/sv/kgmgr77579zbf78p2zlhkdfr0000gn/T//ccOxe4My.s:1152   .text.mc_interface_get_sampling_frequency_now:0000000000000000 $t
/var/folders/sv/kgmgr77579zbf78p2zlhkdfr0000gn/T//ccOxe4My.s:1158   .text.mc_interface_get_sampling_frequency_now:0000000000000000 mc_interface_get_sampling_frequency_now
/var/folders/sv/kgmgr77579zbf78p2zlhkdfr0000gn/T//ccOxe4My.s:1173   .text.mc_interface_get_sampling_frequency_now:000000000000000c $d
/var/folders/sv/kgmgr77579zbf78p2zlhkdfr0000gn/T//ccOxe4My.s:1177   .text.mc_interface_get_sampling_frequency_now:0000000000000010 $t
/var/folders/sv/kgmgr77579zbf78p2zlhkdfr0000gn/T//ccOxe4My.s:1197   .text.mc_interface_get_sampling_frequency_now:0000000000000024 $d
/var/folders/sv/kgmgr77579zbf78p2zlhkdfr0000gn/T//ccOxe4My.s:1203   .text.mc_interface_get_rpm:0000000000000000 $t
/var/folders/sv/kgmgr77579zbf78p2zlhkdfr0000gn/T//ccOxe4My.s:1209   .text.mc_interface_get_rpm:0000000000000000 mc_interface_get_rpm
/var/folders/sv/kgmgr77579zbf78p2zlhkdfr0000gn/T//ccOxe4My.s:1227   .text.mc_interface_get_rpm:000000000000000e $d
/var/folders/sv/kgmgr77579zbf78p2zlhkdfr0000gn/T//ccOxe4My.s:1231   .text.mc_interface_get_rpm:0000000000000012 $t
/var/folders/sv/kgmgr77579zbf78p2zlhkdfr0000gn/T//ccOxe4My.s:1270   .text.mc_interface_get_rpm:0000000000000044 $d
/var/folders/sv/kgmgr77579zbf78p2zlhkdfr0000gn/T//ccOxe4My.s:1276   .text.mc_interface_get_amp_hours:0000000000000000 $t
/var/folders/sv/kgmgr77579zbf78p2zlhkdfr0000gn/T//ccOxe4My.s:1282   .text.mc_interface_get_amp_hours:0000000000000000 mc_interface_get_amp_hours
/var/folders/sv/kgmgr77579zbf78p2zlhkdfr0000gn/T//ccOxe4My.s:1307   .text.mc_interface_get_amp_hours:0000000000000018 $d
/var/folders/sv/kgmgr77579zbf78p2zlhkdfr0000gn/T//ccOxe4My.s:1313   .text.mc_interface_get_amp_hours_charged:0000000000000000 $t
/var/folders/sv/kgmgr77579zbf78p2zlhkdfr0000gn/T//ccOxe4My.s:1319   .text.mc_interface_get_amp_hours_charged:0000000000000000 mc_interface_get_amp_hours_charged
/var/folders/sv/kgmgr77579zbf78p2zlhkdfr0000gn/T//ccOxe4My.s:1344   .text.mc_interface_get_amp_hours_charged:0000000000000018 $d
/var/folders/sv/kgmgr77579zbf78p2zlhkdfr0000gn/T//ccOxe4My.s:1350   .text.mc_interface_get_watt_hours:0000000000000000 $t
/var/folders/sv/kgmgr77579zbf78p2zlhkdfr0000gn/T//ccOxe4My.s:1356   .text.mc_interface_get_watt_hours:0000000000000000 mc_interface_get_watt_hours
/var/folders/sv/kgmgr77579zbf78p2zlhkdfr0000gn/T//ccOxe4My.s:1381   .text.mc_interface_get_watt_hours:0000000000000018 $d
/var/folders/sv/kgmgr77579zbf78p2zlhkdfr0000gn/T//ccOxe4My.s:1387   .text.mc_interface_get_watt_hours_charged:0000000000000000 $t
/var/folders/sv/kgmgr77579zbf78p2zlhkdfr0000gn/T//ccOxe4My.s:1393   .text.mc_interface_get_watt_hours_charged:0000000000000000 mc_interface_get_watt_hours_charged
/var/folders/sv/kgmgr77579zbf78p2zlhkdfr0000gn/T//ccOxe4My.s:1418   .text.mc_interface_get_watt_hours_charged:0000000000000018 $d
/var/folders/sv/kgmgr77579zbf78p2zlhkdfr0000gn/T//ccOxe4My.s:1424   .text.mc_interface_get_tot_current:0000000000000000 $t
/var/folders/sv/kgmgr77579zbf78p2zlhkdfr0000gn/T//ccOxe4My.s:1430   .text.mc_interface_get_tot_current:0000000000000000 mc_interface_get_tot_current
/var/folders/sv/kgmgr77579zbf78p2zlhkdfr0000gn/T//ccOxe4My.s:1445   .text.mc_interface_get_tot_current:000000000000000c $d
/var/folders/sv/kgmgr77579zbf78p2zlhkdfr0000gn/T//ccOxe4My.s:1449   .text.mc_interface_get_tot_current:0000000000000010 $t
/var/folders/sv/kgmgr77579zbf78p2zlhkdfr0000gn/T//ccOxe4My.s:1469   .text.mc_interface_get_tot_current:0000000000000024 $d
/var/folders/sv/kgmgr77579zbf78p2zlhkdfr0000gn/T//ccOxe4My.s:1475   .text.mc_interface_get_tot_current_filtered:0000000000000000 $t
/var/folders/sv/kgmgr77579zbf78p2zlhkdfr0000gn/T//ccOxe4My.s:1481   .text.mc_interface_get_tot_current_filtered:0000000000000000 mc_interface_get_tot_current_filtered
/var/folders/sv/kgmgr77579zbf78p2zlhkdfr0000gn/T//ccOxe4My.s:1496   .text.mc_interface_get_tot_current_filtered:000000000000000c $d
/var/folders/sv/kgmgr77579zbf78p2zlhkdfr0000gn/T//ccOxe4My.s:1500   .text.mc_interface_get_tot_current_filtered:0000000000000010 $t
/var/folders/sv/kgmgr77579zbf78p2zlhkdfr0000gn/T//ccOxe4My.s:1520   .text.mc_interface_get_tot_current_filtered:0000000000000024 $d
/var/folders/sv/kgmgr77579zbf78p2zlhkdfr0000gn/T//ccOxe4My.s:1526   .text.mc_interface_get_tot_current_directional:0000000000000000 $t
/var/folders/sv/kgmgr77579zbf78p2zlhkdfr0000gn/T//ccOxe4My.s:1532   .text.mc_interface_get_tot_current_directional:0000000000000000 mc_interface_get_tot_current_directional
/var/folders/sv/kgmgr77579zbf78p2zlhkdfr0000gn/T//ccOxe4My.s:1550   .text.mc_interface_get_tot_current_directional:000000000000000e $d
/var/folders/sv/kgmgr77579zbf78p2zlhkdfr0000gn/T//ccOxe4My.s:1554   .text.mc_interface_get_tot_current_directional:0000000000000012 $t
/var/folders/sv/kgmgr77579zbf78p2zlhkdfr0000gn/T//ccOxe4My.s:1593   .text.mc_interface_get_tot_current_directional:0000000000000044 $d
/var/folders/sv/kgmgr77579zbf78p2zlhkdfr0000gn/T//ccOxe4My.s:1599   .text.mc_interface_get_tot_current_directional_filtered:0000000000000000 $t
/var/folders/sv/kgmgr77579zbf78p2zlhkdfr0000gn/T//ccOxe4My.s:1605   .text.mc_interface_get_tot_current_directional_filtered:0000000000000000 mc_interface_get_tot_current_directional_filtered
/var/folders/sv/kgmgr77579zbf78p2zlhkdfr0000gn/T//ccOxe4My.s:1623   .text.mc_interface_get_tot_current_directional_filtered:000000000000000e $d
/var/folders/sv/kgmgr77579zbf78p2zlhkdfr0000gn/T//ccOxe4My.s:1627   .text.mc_interface_get_tot_current_directional_filtered:0000000000000012 $t
/var/folders/sv/kgmgr77579zbf78p2zlhkdfr0000gn/T//ccOxe4My.s:1666   .text.mc_interface_get_tot_current_directional_filtered:0000000000000044 $d
/var/folders/sv/kgmgr77579zbf78p2zlhkdfr0000gn/T//ccOxe4My.s:1672   .text.mc_interface_get_tot_current_in:0000000000000000 $t
/var/folders/sv/kgmgr77579zbf78p2zlhkdfr0000gn/T//ccOxe4My.s:1678   .text.mc_interface_get_tot_current_in:0000000000000000 mc_interface_get_tot_current_in
/var/folders/sv/kgmgr77579zbf78p2zlhkdfr0000gn/T//ccOxe4My.s:1693   .text.mc_interface_get_tot_current_in:000000000000000c $d
/var/folders/sv/kgmgr77579zbf78p2zlhkdfr0000gn/T//ccOxe4My.s:1697   .text.mc_interface_get_tot_current_in:0000000000000010 $t
/var/folders/sv/kgmgr77579zbf78p2zlhkdfr0000gn/T//ccOxe4My.s:1717   .text.mc_interface_get_tot_current_in:0000000000000024 $d
/var/folders/sv/kgmgr77579zbf78p2zlhkdfr0000gn/T//ccOxe4My.s:1723   .text.mc_interface_get_tot_current_in_filtered:0000000000000000 $t
/var/folders/sv/kgmgr77579zbf78p2zlhkdfr0000gn/T//ccOxe4My.s:1729   .text.mc_interface_get_tot_current_in_filtered:0000000000000000 mc_interface_get_tot_current_in_filtered
/var/folders/sv/kgmgr77579zbf78p2zlhkdfr0000gn/T//ccOxe4My.s:1744   .text.mc_interface_get_tot_current_in_filtered:000000000000000c $d
/var/folders/sv/kgmgr77579zbf78p2zlhkdfr0000gn/T//ccOxe4My.s:1748   .text.mc_interface_get_tot_current_in_filtered:0000000000000010 $t
/var/folders/sv/kgmgr77579zbf78p2zlhkdfr0000gn/T//ccOxe4My.s:1768   .text.mc_interface_get_tot_current_in_filtered:0000000000000024 $d
/var/folders/sv/kgmgr77579zbf78p2zlhkdfr0000gn/T//ccOxe4My.s:1774   .text.mc_interface_get_tachometer_value:0000000000000000 $t
/var/folders/sv/kgmgr77579zbf78p2zlhkdfr0000gn/T//ccOxe4My.s:1780   .text.mc_interface_get_tachometer_value:0000000000000000 mc_interface_get_tachometer_value
/var/folders/sv/kgmgr77579zbf78p2zlhkdfr0000gn/T//ccOxe4My.s:1798   .text.mc_interface_get_tachometer_value:000000000000000e $d
ARM GAS  /var/folders/sv/kgmgr77579zbf78p2zlhkdfr0000gn/T//ccOxe4My.s 			page 367


/var/folders/sv/kgmgr77579zbf78p2zlhkdfr0000gn/T//ccOxe4My.s:1802   .text.mc_interface_get_tachometer_value:0000000000000012 $t
/var/folders/sv/kgmgr77579zbf78p2zlhkdfr0000gn/T//ccOxe4My.s:1849   .text.mc_interface_get_tachometer_value:0000000000000064 $d
/var/folders/sv/kgmgr77579zbf78p2zlhkdfr0000gn/T//ccOxe4My.s:1855   .text.mc_interface_fault_stop.part.4:0000000000000000 $t
/var/folders/sv/kgmgr77579zbf78p2zlhkdfr0000gn/T//ccOxe4My.s:1860   .text.mc_interface_fault_stop.part.4:0000000000000000 mc_interface_fault_stop.part.4
/var/folders/sv/kgmgr77579zbf78p2zlhkdfr0000gn/T//ccOxe4My.s:1899   .text.mc_interface_fault_stop.part.4:0000000000000026 $d
/var/folders/sv/kgmgr77579zbf78p2zlhkdfr0000gn/T//ccOxe4My.s:1903   .text.mc_interface_fault_stop.part.4:000000000000002a $t
/var/folders/sv/kgmgr77579zbf78p2zlhkdfr0000gn/T//ccOxe4My.s:2061   .text.mc_interface_fault_stop.part.4:0000000000000118 $d
/var/folders/sv/kgmgr77579zbf78p2zlhkdfr0000gn/T//ccOxe4My.s:2080   .text.update_override_limits.constprop.5:0000000000000000 $t
/var/folders/sv/kgmgr77579zbf78p2zlhkdfr0000gn/T//ccOxe4My.s:2085   .text.update_override_limits.constprop.5:0000000000000000 update_override_limits.constprop.5
/var/folders/sv/kgmgr77579zbf78p2zlhkdfr0000gn/T//ccOxe4My.s:2573   .text.update_override_limits.constprop.5:000000000000038c $d
/var/folders/sv/kgmgr77579zbf78p2zlhkdfr0000gn/T//ccOxe4My.s:2594   .text.update_override_limits.constprop.5:00000000000003c8 $t
/var/folders/sv/kgmgr77579zbf78p2zlhkdfr0000gn/T//ccOxe4My.s:2863   .text.update_override_limits.constprop.5:00000000000005d0 $d
/var/folders/sv/kgmgr77579zbf78p2zlhkdfr0000gn/T//ccOxe4My.s:2870   .text.mc_interface_set_configuration:0000000000000000 $t
/var/folders/sv/kgmgr77579zbf78p2zlhkdfr0000gn/T//ccOxe4My.s:2876   .text.mc_interface_set_configuration:0000000000000000 mc_interface_set_configuration
/var/folders/sv/kgmgr77579zbf78p2zlhkdfr0000gn/T//ccOxe4My.s:2918   .text.mc_interface_set_configuration:0000000000000030 $d
/var/folders/sv/kgmgr77579zbf78p2zlhkdfr0000gn/T//ccOxe4My.s:2922   .text.mc_interface_set_configuration:0000000000000034 $t
/var/folders/sv/kgmgr77579zbf78p2zlhkdfr0000gn/T//ccOxe4My.s:2940   .text.mc_interface_set_configuration:000000000000004e $d
/var/folders/sv/kgmgr77579zbf78p2zlhkdfr0000gn/T//ccOxe4My.s:2944   .text.mc_interface_set_configuration:0000000000000052 $t
/var/folders/sv/kgmgr77579zbf78p2zlhkdfr0000gn/T//ccOxe4My.s:2960   .text.mc_interface_set_configuration:0000000000000066 $d
/var/folders/sv/kgmgr77579zbf78p2zlhkdfr0000gn/T//ccOxe4My.s:2964   .text.mc_interface_set_configuration:000000000000006a $t
/var/folders/sv/kgmgr77579zbf78p2zlhkdfr0000gn/T//ccOxe4My.s:3067   .text.mc_interface_set_configuration:00000000000000cc $d
/var/folders/sv/kgmgr77579zbf78p2zlhkdfr0000gn/T//ccOxe4My.s:3072   .text.timer_thread:0000000000000000 $t
/var/folders/sv/kgmgr77579zbf78p2zlhkdfr0000gn/T//ccOxe4My.s:3143   .text.timer_thread:000000000000003c $d
/var/folders/sv/kgmgr77579zbf78p2zlhkdfr0000gn/T//ccOxe4My.s:3152   .text.mc_interface_get_tachometer_abs_value:0000000000000000 $t
/var/folders/sv/kgmgr77579zbf78p2zlhkdfr0000gn/T//ccOxe4My.s:3158   .text.mc_interface_get_tachometer_abs_value:0000000000000000 mc_interface_get_tachometer_abs_value
/var/folders/sv/kgmgr77579zbf78p2zlhkdfr0000gn/T//ccOxe4My.s:3173   .text.mc_interface_get_tachometer_abs_value:000000000000000c $d
/var/folders/sv/kgmgr77579zbf78p2zlhkdfr0000gn/T//ccOxe4My.s:3177   .text.mc_interface_get_tachometer_abs_value:0000000000000010 $t
/var/folders/sv/kgmgr77579zbf78p2zlhkdfr0000gn/T//ccOxe4My.s:3198   .text.mc_interface_get_tachometer_abs_value:0000000000000020 $d
/var/folders/sv/kgmgr77579zbf78p2zlhkdfr0000gn/T//ccOxe4My.s:3203   .text.mc_interface_get_last_inj_adc_isr_duration:0000000000000000 $t
/var/folders/sv/kgmgr77579zbf78p2zlhkdfr0000gn/T//ccOxe4My.s:3209   .text.mc_interface_get_last_inj_adc_isr_duration:0000000000000000 mc_interface_get_last_inj_adc_isr_duration
/var/folders/sv/kgmgr77579zbf78p2zlhkdfr0000gn/T//ccOxe4My.s:3224   .text.mc_interface_get_last_inj_adc_isr_duration:000000000000000c $d
/var/folders/sv/kgmgr77579zbf78p2zlhkdfr0000gn/T//ccOxe4My.s:3228   .text.mc_interface_get_last_inj_adc_isr_duration:0000000000000010 $t
/var/folders/sv/kgmgr77579zbf78p2zlhkdfr0000gn/T//ccOxe4My.s:3248   .text.mc_interface_get_last_inj_adc_isr_duration:0000000000000024 $d
/var/folders/sv/kgmgr77579zbf78p2zlhkdfr0000gn/T//ccOxe4My.s:3254   .text.mc_interface_read_reset_avg_motor_current:0000000000000000 $t
/var/folders/sv/kgmgr77579zbf78p2zlhkdfr0000gn/T//ccOxe4My.s:3260   .text.mc_interface_read_reset_avg_motor_current:0000000000000000 mc_interface_read_reset_avg_motor_current
/var/folders/sv/kgmgr77579zbf78p2zlhkdfr0000gn/T//ccOxe4My.s:3286   .text.mc_interface_read_reset_avg_motor_current:0000000000000018 $d
/var/folders/sv/kgmgr77579zbf78p2zlhkdfr0000gn/T//ccOxe4My.s:3292   .text.mc_interface_read_reset_avg_input_current:0000000000000000 $t
/var/folders/sv/kgmgr77579zbf78p2zlhkdfr0000gn/T//ccOxe4My.s:3298   .text.mc_interface_read_reset_avg_input_current:0000000000000000 mc_interface_read_reset_avg_input_current
/var/folders/sv/kgmgr77579zbf78p2zlhkdfr0000gn/T//ccOxe4My.s:3324   .text.mc_interface_read_reset_avg_input_current:0000000000000018 $d
/var/folders/sv/kgmgr77579zbf78p2zlhkdfr0000gn/T//ccOxe4My.s:3330   .text.mc_interface_read_reset_avg_id:0000000000000000 $t
/var/folders/sv/kgmgr77579zbf78p2zlhkdfr0000gn/T//ccOxe4My.s:3336   .text.mc_interface_read_reset_avg_id:0000000000000000 mc_interface_read_reset_avg_id
/var/folders/sv/kgmgr77579zbf78p2zlhkdfr0000gn/T//ccOxe4My.s:3372   .text.mc_interface_read_reset_avg_id:0000000000000034 $d
/var/folders/sv/kgmgr77579zbf78p2zlhkdfr0000gn/T//ccOxe4My.s:3379   .text.mc_interface_read_reset_avg_iq:0000000000000000 $t
/var/folders/sv/kgmgr77579zbf78p2zlhkdfr0000gn/T//ccOxe4My.s:3385   .text.mc_interface_read_reset_avg_iq:0000000000000000 mc_interface_read_reset_avg_iq
/var/folders/sv/kgmgr77579zbf78p2zlhkdfr0000gn/T//ccOxe4My.s:3421   .text.mc_interface_read_reset_avg_iq:0000000000000034 $d
/var/folders/sv/kgmgr77579zbf78p2zlhkdfr0000gn/T//ccOxe4My.s:3428   .text.mc_interface_get_pid_pos_set:0000000000000000 $t
/var/folders/sv/kgmgr77579zbf78p2zlhkdfr0000gn/T//ccOxe4My.s:3434   .text.mc_interface_get_pid_pos_set:0000000000000000 mc_interface_get_pid_pos_set
/var/folders/sv/kgmgr77579zbf78p2zlhkdfr0000gn/T//ccOxe4My.s:3449   .text.mc_interface_get_pid_pos_set:0000000000000008 $d
/var/folders/sv/kgmgr77579zbf78p2zlhkdfr0000gn/T//ccOxe4My.s:3454   .text.mc_interface_get_pid_pos_now:0000000000000000 $t
/var/folders/sv/kgmgr77579zbf78p2zlhkdfr0000gn/T//ccOxe4My.s:3460   .text.mc_interface_get_pid_pos_now:0000000000000000 mc_interface_get_pid_pos_now
/var/folders/sv/kgmgr77579zbf78p2zlhkdfr0000gn/T//ccOxe4My.s:3485   .text.mc_interface_get_pid_pos_now:0000000000000014 $d
/var/folders/sv/kgmgr77579zbf78p2zlhkdfr0000gn/T//ccOxe4My.s:3489   .text.mc_interface_get_pid_pos_now:0000000000000018 $t
/var/folders/sv/kgmgr77579zbf78p2zlhkdfr0000gn/T//ccOxe4My.s:3535   .text.mc_interface_get_pid_pos_now:0000000000000058 $d
/var/folders/sv/kgmgr77579zbf78p2zlhkdfr0000gn/T//ccOxe4My.s:3541   .text.mc_interface_get_last_sample_adc_isr_duration:0000000000000000 $t
/var/folders/sv/kgmgr77579zbf78p2zlhkdfr0000gn/T//ccOxe4My.s:3547   .text.mc_interface_get_last_sample_adc_isr_duration:0000000000000000 mc_interface_get_last_sample_adc_isr_duration
/var/folders/sv/kgmgr77579zbf78p2zlhkdfr0000gn/T//ccOxe4My.s:3562   .text.mc_interface_get_last_sample_adc_isr_duration:0000000000000008 $d
/var/folders/sv/kgmgr77579zbf78p2zlhkdfr0000gn/T//ccOxe4My.s:3567   .text.mc_interface_sample_print_data:0000000000000000 $t
ARM GAS  /var/folders/sv/kgmgr77579zbf78p2zlhkdfr0000gn/T//ccOxe4My.s 			page 368


/var/folders/sv/kgmgr77579zbf78p2zlhkdfr0000gn/T//ccOxe4My.s:3573   .text.mc_interface_sample_print_data:0000000000000000 mc_interface_sample_print_data
/var/folders/sv/kgmgr77579zbf78p2zlhkdfr0000gn/T//ccOxe4My.s:3636   .text.mc_interface_sample_print_data:0000000000000038 $d
/var/folders/sv/kgmgr77579zbf78p2zlhkdfr0000gn/T//ccOxe4My.s:3646   .text.mc_interface_temp_fet_filtered:0000000000000000 $t
/var/folders/sv/kgmgr77579zbf78p2zlhkdfr0000gn/T//ccOxe4My.s:3652   .text.mc_interface_temp_fet_filtered:0000000000000000 mc_interface_temp_fet_filtered
/var/folders/sv/kgmgr77579zbf78p2zlhkdfr0000gn/T//ccOxe4My.s:3667   .text.mc_interface_temp_fet_filtered:0000000000000008 $d
/var/folders/sv/kgmgr77579zbf78p2zlhkdfr0000gn/T//ccOxe4My.s:3672   .text.mc_interface_temp_motor_filtered:0000000000000000 $t
/var/folders/sv/kgmgr77579zbf78p2zlhkdfr0000gn/T//ccOxe4My.s:3678   .text.mc_interface_temp_motor_filtered:0000000000000000 mc_interface_temp_motor_filtered
/var/folders/sv/kgmgr77579zbf78p2zlhkdfr0000gn/T//ccOxe4My.s:3693   .text.mc_interface_temp_motor_filtered:0000000000000008 $d
/var/folders/sv/kgmgr77579zbf78p2zlhkdfr0000gn/T//ccOxe4My.s:3698   .text.mc_interface_try_input:0000000000000000 $t
/var/folders/sv/kgmgr77579zbf78p2zlhkdfr0000gn/T//ccOxe4My.s:3704   .text.mc_interface_try_input:0000000000000000 mc_interface_try_input
/var/folders/sv/kgmgr77579zbf78p2zlhkdfr0000gn/T//ccOxe4My.s:3744   .text.mc_interface_try_input:000000000000002a $d
/var/folders/sv/kgmgr77579zbf78p2zlhkdfr0000gn/T//ccOxe4My.s:3748   .text.mc_interface_try_input:000000000000002e $t
/var/folders/sv/kgmgr77579zbf78p2zlhkdfr0000gn/T//ccOxe4My.s:3803   .text.mc_interface_try_input:0000000000000064 $d
/var/folders/sv/kgmgr77579zbf78p2zlhkdfr0000gn/T//ccOxe4My.s:3811   .text.mc_interface_set_duty:0000000000000000 $t
/var/folders/sv/kgmgr77579zbf78p2zlhkdfr0000gn/T//ccOxe4My.s:3817   .text.mc_interface_set_duty:0000000000000000 mc_interface_set_duty
/var/folders/sv/kgmgr77579zbf78p2zlhkdfr0000gn/T//ccOxe4My.s:3845   .text.mc_interface_set_duty:000000000000001c $d
/var/folders/sv/kgmgr77579zbf78p2zlhkdfr0000gn/T//ccOxe4My.s:3849   .text.mc_interface_set_duty:0000000000000020 $t
/var/folders/sv/kgmgr77579zbf78p2zlhkdfr0000gn/T//ccOxe4My.s:3942   .text.mc_interface_set_duty:0000000000000094 $d
/var/folders/sv/kgmgr77579zbf78p2zlhkdfr0000gn/T//ccOxe4My.s:3947   .text.mc_interface_brake_now:0000000000000000 $t
/var/folders/sv/kgmgr77579zbf78p2zlhkdfr0000gn/T//ccOxe4My.s:3953   .text.mc_interface_brake_now:0000000000000000 mc_interface_brake_now
/var/folders/sv/kgmgr77579zbf78p2zlhkdfr0000gn/T//ccOxe4My.s:3967   .text.mc_interface_brake_now:0000000000000008 $d
/var/folders/sv/kgmgr77579zbf78p2zlhkdfr0000gn/T//ccOxe4My.s:3972   .text.mc_interface_set_duty_noramp:0000000000000000 $t
/var/folders/sv/kgmgr77579zbf78p2zlhkdfr0000gn/T//ccOxe4My.s:3978   .text.mc_interface_set_duty_noramp:0000000000000000 mc_interface_set_duty_noramp
/var/folders/sv/kgmgr77579zbf78p2zlhkdfr0000gn/T//ccOxe4My.s:4006   .text.mc_interface_set_duty_noramp:000000000000001c $d
/var/folders/sv/kgmgr77579zbf78p2zlhkdfr0000gn/T//ccOxe4My.s:4010   .text.mc_interface_set_duty_noramp:0000000000000020 $t
/var/folders/sv/kgmgr77579zbf78p2zlhkdfr0000gn/T//ccOxe4My.s:4095   .text.mc_interface_set_duty_noramp:0000000000000094 $d
/var/folders/sv/kgmgr77579zbf78p2zlhkdfr0000gn/T//ccOxe4My.s:4100   .text.mc_interface_set_pid_speed:0000000000000000 $t
/var/folders/sv/kgmgr77579zbf78p2zlhkdfr0000gn/T//ccOxe4My.s:4106   .text.mc_interface_set_pid_speed:0000000000000000 mc_interface_set_pid_speed
/var/folders/sv/kgmgr77579zbf78p2zlhkdfr0000gn/T//ccOxe4My.s:4134   .text.mc_interface_set_pid_speed:000000000000001c $d
/var/folders/sv/kgmgr77579zbf78p2zlhkdfr0000gn/T//ccOxe4My.s:4138   .text.mc_interface_set_pid_speed:0000000000000020 $t
/var/folders/sv/kgmgr77579zbf78p2zlhkdfr0000gn/T//ccOxe4My.s:4223   .text.mc_interface_set_pid_speed:0000000000000094 $d
/var/folders/sv/kgmgr77579zbf78p2zlhkdfr0000gn/T//ccOxe4My.s:4228   .text.mc_interface_set_pid_pos:0000000000000000 $t
/var/folders/sv/kgmgr77579zbf78p2zlhkdfr0000gn/T//ccOxe4My.s:4234   .text.mc_interface_set_pid_pos:0000000000000000 mc_interface_set_pid_pos
/var/folders/sv/kgmgr77579zbf78p2zlhkdfr0000gn/T//ccOxe4My.s:4279   .text.mc_interface_set_pid_pos:0000000000000046 $d
/var/folders/sv/kgmgr77579zbf78p2zlhkdfr0000gn/T//ccOxe4My.s:4283   .text.mc_interface_set_pid_pos:000000000000004a $t
/var/folders/sv/kgmgr77579zbf78p2zlhkdfr0000gn/T//ccOxe4My.s:4325   .text.mc_interface_set_pid_pos:0000000000000070 $d
/var/folders/sv/kgmgr77579zbf78p2zlhkdfr0000gn/T//ccOxe4My.s:4331   .text.mc_interface_set_current:0000000000000000 $t
/var/folders/sv/kgmgr77579zbf78p2zlhkdfr0000gn/T//ccOxe4My.s:4337   .text.mc_interface_set_current:0000000000000000 mc_interface_set_current
/var/folders/sv/kgmgr77579zbf78p2zlhkdfr0000gn/T//ccOxe4My.s:4365   .text.mc_interface_set_current:000000000000001c $d
/var/folders/sv/kgmgr77579zbf78p2zlhkdfr0000gn/T//ccOxe4My.s:4369   .text.mc_interface_set_current:0000000000000020 $t
/var/folders/sv/kgmgr77579zbf78p2zlhkdfr0000gn/T//ccOxe4My.s:4462   .text.mc_interface_set_current:0000000000000094 $d
/var/folders/sv/kgmgr77579zbf78p2zlhkdfr0000gn/T//ccOxe4My.s:4467   .text.mc_interface_set_current_rel:0000000000000000 $t
/var/folders/sv/kgmgr77579zbf78p2zlhkdfr0000gn/T//ccOxe4My.s:4473   .text.mc_interface_set_current_rel:0000000000000000 mc_interface_set_current_rel
/var/folders/sv/kgmgr77579zbf78p2zlhkdfr0000gn/T//ccOxe4My.s:4505   .text.mc_interface_set_current_rel:0000000000000028 $d
/var/folders/sv/kgmgr77579zbf78p2zlhkdfr0000gn/T//ccOxe4My.s:4510   .text.mc_interface_release_motor:0000000000000000 $t
/var/folders/sv/kgmgr77579zbf78p2zlhkdfr0000gn/T//ccOxe4My.s:4516   .text.mc_interface_release_motor:0000000000000000 mc_interface_release_motor
/var/folders/sv/kgmgr77579zbf78p2zlhkdfr0000gn/T//ccOxe4My.s:4530   .text.mc_interface_release_motor:0000000000000008 $d
/var/folders/sv/kgmgr77579zbf78p2zlhkdfr0000gn/T//ccOxe4My.s:4535   .text.mc_interface_set_brake_current:0000000000000000 $t
/var/folders/sv/kgmgr77579zbf78p2zlhkdfr0000gn/T//ccOxe4My.s:4541   .text.mc_interface_set_brake_current:0000000000000000 mc_interface_set_brake_current
/var/folders/sv/kgmgr77579zbf78p2zlhkdfr0000gn/T//ccOxe4My.s:4569   .text.mc_interface_set_brake_current:000000000000001c $d
/var/folders/sv/kgmgr77579zbf78p2zlhkdfr0000gn/T//ccOxe4My.s:4573   .text.mc_interface_set_brake_current:0000000000000020 $t
/var/folders/sv/kgmgr77579zbf78p2zlhkdfr0000gn/T//ccOxe4My.s:4666   .text.mc_interface_set_brake_current:0000000000000094 $d
/var/folders/sv/kgmgr77579zbf78p2zlhkdfr0000gn/T//ccOxe4My.s:4671   .text.mc_interface_set_brake_current_rel:0000000000000000 $t
/var/folders/sv/kgmgr77579zbf78p2zlhkdfr0000gn/T//ccOxe4My.s:4677   .text.mc_interface_set_brake_current_rel:0000000000000000 mc_interface_set_brake_current_rel
/var/folders/sv/kgmgr77579zbf78p2zlhkdfr0000gn/T//ccOxe4My.s:4695   .text.mc_interface_set_brake_current_rel:0000000000000010 $d
/var/folders/sv/kgmgr77579zbf78p2zlhkdfr0000gn/T//ccOxe4My.s:4700   .text.mc_interface_set_handbrake:0000000000000000 $t
/var/folders/sv/kgmgr77579zbf78p2zlhkdfr0000gn/T//ccOxe4My.s:4706   .text.mc_interface_set_handbrake:0000000000000000 mc_interface_set_handbrake
ARM GAS  /var/folders/sv/kgmgr77579zbf78p2zlhkdfr0000gn/T//ccOxe4My.s 			page 369


/var/folders/sv/kgmgr77579zbf78p2zlhkdfr0000gn/T//ccOxe4My.s:4753   .text.mc_interface_set_handbrake_rel:0000000000000000 $t
/var/folders/sv/kgmgr77579zbf78p2zlhkdfr0000gn/T//ccOxe4My.s:4759   .text.mc_interface_set_handbrake_rel:0000000000000000 mc_interface_set_handbrake_rel
/var/folders/sv/kgmgr77579zbf78p2zlhkdfr0000gn/T//ccOxe4My.s:4823   .text.mc_interface_set_handbrake_rel:0000000000000030 $d
/var/folders/sv/kgmgr77579zbf78p2zlhkdfr0000gn/T//ccOxe4My.s:4830   .text.mc_interface_fault_stop:0000000000000000 $t
/var/folders/sv/kgmgr77579zbf78p2zlhkdfr0000gn/T//ccOxe4My.s:4836   .text.mc_interface_fault_stop:0000000000000000 mc_interface_fault_stop
/var/folders/sv/kgmgr77579zbf78p2zlhkdfr0000gn/T//ccOxe4My.s:4862   .text.mc_interface_fault_stop:0000000000000018 $d
/var/folders/sv/kgmgr77579zbf78p2zlhkdfr0000gn/T//ccOxe4My.s:4869   .text.mc_interface_mc_timer_isr:0000000000000000 $t
/var/folders/sv/kgmgr77579zbf78p2zlhkdfr0000gn/T//ccOxe4My.s:4875   .text.mc_interface_mc_timer_isr:0000000000000000 mc_interface_mc_timer_isr
/var/folders/sv/kgmgr77579zbf78p2zlhkdfr0000gn/T//ccOxe4My.s:5171   .text.mc_interface_mc_timer_isr:00000000000001e4 $d
/var/folders/sv/kgmgr77579zbf78p2zlhkdfr0000gn/T//ccOxe4My.s:5181   .text.mc_interface_mc_timer_isr:00000000000001f0 $d
/var/folders/sv/kgmgr77579zbf78p2zlhkdfr0000gn/T//ccOxe4My.s:5209   .text.mc_interface_mc_timer_isr:0000000000000250 $t
/var/folders/sv/kgmgr77579zbf78p2zlhkdfr0000gn/T//ccOxe4My.s:5782   .text.mc_interface_mc_timer_isr:0000000000000550 $d
/var/folders/sv/kgmgr77579zbf78p2zlhkdfr0000gn/T//ccOxe4My.s:5812   .text.mc_interface_mc_timer_isr:00000000000005bc $t
/var/folders/sv/kgmgr77579zbf78p2zlhkdfr0000gn/T//ccOxe4My.s:6130   .text.mc_interface_mc_timer_isr:0000000000000748 $d
/var/folders/sv/kgmgr77579zbf78p2zlhkdfr0000gn/T//ccOxe4My.s:6149   .text.mc_interface_adc_inj_int_handler:0000000000000000 $t
/var/folders/sv/kgmgr77579zbf78p2zlhkdfr0000gn/T//ccOxe4My.s:6155   .text.mc_interface_adc_inj_int_handler:0000000000000000 mc_interface_adc_inj_int_handler
/var/folders/sv/kgmgr77579zbf78p2zlhkdfr0000gn/T//ccOxe4My.s:6177   .text.mc_interface_adc_inj_int_handler:0000000000000014 $d
/var/folders/sv/kgmgr77579zbf78p2zlhkdfr0000gn/T//ccOxe4My.s:6499   .bss.ADC_curr_norm_value:0000000000000000 ADC_curr_norm_value
/var/folders/sv/kgmgr77579zbf78p2zlhkdfr0000gn/T//ccOxe4My.s:6293   .bss.ADC_Value:0000000000000000 ADC_Value
/var/folders/sv/kgmgr77579zbf78p2zlhkdfr0000gn/T//ccOxe4My.s:6184   .rodata.CSWTCH.203:0000000000000000 $d
/var/folders/sv/kgmgr77579zbf78p2zlhkdfr0000gn/T//ccOxe4My.s:6188   .rodata.CSWTCH.203:0000000000000000 CSWTCH.203
/var/folders/sv/kgmgr77579zbf78p2zlhkdfr0000gn/T//ccOxe4My.s:6197   .bss.m_sample_trigger:0000000000000000 $d
/var/folders/sv/kgmgr77579zbf78p2zlhkdfr0000gn/T//ccOxe4My.s:6201   .bss.m_sample_trigger:0000000000000000 m_sample_trigger
/var/folders/sv/kgmgr77579zbf78p2zlhkdfr0000gn/T//ccOxe4My.s:6204   .bss.m_sample_int:0000000000000000 $d
/var/folders/sv/kgmgr77579zbf78p2zlhkdfr0000gn/T//ccOxe4My.s:6208   .bss.m_sample_int:0000000000000000 m_sample_int
/var/folders/sv/kgmgr77579zbf78p2zlhkdfr0000gn/T//ccOxe4My.s:6211   .bss.m_watt_seconds_charged:0000000000000000 $d
/var/folders/sv/kgmgr77579zbf78p2zlhkdfr0000gn/T//ccOxe4My.s:6215   .bss.m_watt_seconds_charged:0000000000000000 m_watt_seconds_charged
/var/folders/sv/kgmgr77579zbf78p2zlhkdfr0000gn/T//ccOxe4My.s:6218   .ram4:0000000000000000 $d
/var/folders/sv/kgmgr77579zbf78p2zlhkdfr0000gn/T//ccOxe4My.s:6229   .ram4:0000000000000000 m_curr0_samples
/var/folders/sv/kgmgr77579zbf78p2zlhkdfr0000gn/T//ccOxe4My.s:6233   .ram4:0000000000000fa0 m_curr1_samples
/var/folders/sv/kgmgr77579zbf78p2zlhkdfr0000gn/T//ccOxe4My.s:6237   .ram4:0000000000001f40 m_ph1_samples
/var/folders/sv/kgmgr77579zbf78p2zlhkdfr0000gn/T//ccOxe4My.s:6241   .ram4:0000000000002ee0 m_ph2_samples
/var/folders/sv/kgmgr77579zbf78p2zlhkdfr0000gn/T//ccOxe4My.s:6245   .ram4:0000000000003e80 m_ph3_samples
/var/folders/sv/kgmgr77579zbf78p2zlhkdfr0000gn/T//ccOxe4My.s:6249   .ram4:0000000000004e20 m_vzero_samples
/var/folders/sv/kgmgr77579zbf78p2zlhkdfr0000gn/T//ccOxe4My.s:6253   .ram4:0000000000005dc0 m_curr_fir_samples
/var/folders/sv/kgmgr77579zbf78p2zlhkdfr0000gn/T//ccOxe4My.s:6257   .ram4:0000000000006d60 m_f_sw_samples
/var/folders/sv/kgmgr77579zbf78p2zlhkdfr0000gn/T//ccOxe4My.s:6261   .ram4:0000000000007d00 m_status_samples
/var/folders/sv/kgmgr77579zbf78p2zlhkdfr0000gn/T//ccOxe4My.s:6265   .ram4:00000000000084d0 m_phase_samples
/var/folders/sv/kgmgr77579zbf78p2zlhkdfr0000gn/T//ccOxe4My.s:6268   .bss.pwm_done_func:0000000000000000 $d
/var/folders/sv/kgmgr77579zbf78p2zlhkdfr0000gn/T//ccOxe4My.s:6272   .bss.pwm_done_func:0000000000000000 pwm_done_func
/var/folders/sv/kgmgr77579zbf78p2zlhkdfr0000gn/T//ccOxe4My.s:6275   .bss.m_motor_iq_sum:0000000000000000 $d
/var/folders/sv/kgmgr77579zbf78p2zlhkdfr0000gn/T//ccOxe4My.s:6279   .bss.m_motor_iq_sum:0000000000000000 m_motor_iq_sum
/var/folders/sv/kgmgr77579zbf78p2zlhkdfr0000gn/T//ccOxe4My.s:6282   .bss.m_motor_id_sum:0000000000000000 $d
/var/folders/sv/kgmgr77579zbf78p2zlhkdfr0000gn/T//ccOxe4My.s:6286   .bss.m_motor_id_sum:0000000000000000 m_motor_id_sum
/var/folders/sv/kgmgr77579zbf78p2zlhkdfr0000gn/T//ccOxe4My.s:6289   .bss.ADC_Value:0000000000000000 $d
/var/folders/sv/kgmgr77579zbf78p2zlhkdfr0000gn/T//ccOxe4My.s:6296   .bss.curr_diff_sum.10960:0000000000000000 $d
/var/folders/sv/kgmgr77579zbf78p2zlhkdfr0000gn/T//ccOxe4My.s:6300   .bss.curr_diff_sum.10960:0000000000000000 curr_diff_sum.10960
/var/folders/sv/kgmgr77579zbf78p2zlhkdfr0000gn/T//ccOxe4My.s:6303   .bss.m_motor_current_iterations:0000000000000000 $d
/var/folders/sv/kgmgr77579zbf78p2zlhkdfr0000gn/T//ccOxe4My.s:6307   .bss.m_motor_current_iterations:0000000000000000 m_motor_current_iterations
/var/folders/sv/kgmgr77579zbf78p2zlhkdfr0000gn/T//ccOxe4My.s:6310   .bss.m_last_adc_duration_sample:0000000000000000 $d
/var/folders/sv/kgmgr77579zbf78p2zlhkdfr0000gn/T//ccOxe4My.s:6314   .bss.m_last_adc_duration_sample:0000000000000000 m_last_adc_duration_sample
/var/folders/sv/kgmgr77579zbf78p2zlhkdfr0000gn/T//ccOxe4My.s:6317   .bss.m_motor_iq_iterations:0000000000000000 $d
/var/folders/sv/kgmgr77579zbf78p2zlhkdfr0000gn/T//ccOxe4My.s:6321   .bss.m_motor_iq_iterations:0000000000000000 m_motor_iq_iterations
/var/folders/sv/kgmgr77579zbf78p2zlhkdfr0000gn/T//ccOxe4My.s:6324   .bss.m_amp_seconds_charged:0000000000000000 $d
/var/folders/sv/kgmgr77579zbf78p2zlhkdfr0000gn/T//ccOxe4My.s:6328   .bss.m_amp_seconds_charged:0000000000000000 m_amp_seconds_charged
/var/folders/sv/kgmgr77579zbf78p2zlhkdfr0000gn/T//ccOxe4My.s:6331   .bss.m_input_current_sum:0000000000000000 $d
/var/folders/sv/kgmgr77579zbf78p2zlhkdfr0000gn/T//ccOxe4My.s:6335   .bss.m_input_current_sum:0000000000000000 m_input_current_sum
ARM GAS  /var/folders/sv/kgmgr77579zbf78p2zlhkdfr0000gn/T//ccOxe4My.s 			page 370


/var/folders/sv/kgmgr77579zbf78p2zlhkdfr0000gn/T//ccOxe4My.s:6338   .bss.m_sample_len:0000000000000000 $d
/var/folders/sv/kgmgr77579zbf78p2zlhkdfr0000gn/T//ccOxe4My.s:6342   .bss.m_sample_len:0000000000000000 m_sample_len
/var/folders/sv/kgmgr77579zbf78p2zlhkdfr0000gn/T//ccOxe4My.s:6345   .bss.m_conf:0000000000000000 $d
/var/folders/sv/kgmgr77579zbf78p2zlhkdfr0000gn/T//ccOxe4My.s:6349   .bss.m_conf:0000000000000000 m_conf
/var/folders/sv/kgmgr77579zbf78p2zlhkdfr0000gn/T//ccOxe4My.s:6355   .bss.m_fault_now:0000000000000000 m_fault_now
/var/folders/sv/kgmgr77579zbf78p2zlhkdfr0000gn/T//ccOxe4My.s:6356   .bss.m_fault_now:0000000000000000 $d
/var/folders/sv/kgmgr77579zbf78p2zlhkdfr0000gn/T//ccOxe4My.s:6358   .bss.a.10973:0000000000000000 $d
/var/folders/sv/kgmgr77579zbf78p2zlhkdfr0000gn/T//ccOxe4My.s:6362   .bss.a.10973:0000000000000000 a.10973
/var/folders/sv/kgmgr77579zbf78p2zlhkdfr0000gn/T//ccOxe4My.s:6365   .bss.curr_diff_samples.10961:0000000000000000 $d
/var/folders/sv/kgmgr77579zbf78p2zlhkdfr0000gn/T//ccOxe4My.s:6369   .bss.curr_diff_samples.10961:0000000000000000 curr_diff_samples.10961
/var/folders/sv/kgmgr77579zbf78p2zlhkdfr0000gn/T//ccOxe4My.s:6372   .bss.sample_send_tp:0000000000000000 $d
/var/folders/sv/kgmgr77579zbf78p2zlhkdfr0000gn/T//ccOxe4My.s:6376   .bss.sample_send_tp:0000000000000000 sample_send_tp
/var/folders/sv/kgmgr77579zbf78p2zlhkdfr0000gn/T//ccOxe4My.s:6379   .rodata.str1.4:0000000000000000 $d
/var/folders/sv/kgmgr77579zbf78p2zlhkdfr0000gn/T//ccOxe4My.s:6407   .bss.m_cycles_running:0000000000000000 $d
/var/folders/sv/kgmgr77579zbf78p2zlhkdfr0000gn/T//ccOxe4My.s:6411   .bss.m_cycles_running:0000000000000000 m_cycles_running
/var/folders/sv/kgmgr77579zbf78p2zlhkdfr0000gn/T//ccOxe4My.s:6414   .bss.wrong_voltage_iterations.10954:0000000000000000 $d
/var/folders/sv/kgmgr77579zbf78p2zlhkdfr0000gn/T//ccOxe4My.s:6418   .bss.wrong_voltage_iterations.10954:0000000000000000 wrong_voltage_iterations.10954
/var/folders/sv/kgmgr77579zbf78p2zlhkdfr0000gn/T//ccOxe4My.s:6421   .bss.m_temp_fet:0000000000000000 $d
/var/folders/sv/kgmgr77579zbf78p2zlhkdfr0000gn/T//ccOxe4My.s:6425   .bss.m_temp_fet:0000000000000000 m_temp_fet
/var/folders/sv/kgmgr77579zbf78p2zlhkdfr0000gn/T//ccOxe4My.s:6428   .bss.m_motor_id_iterations:0000000000000000 $d
/var/folders/sv/kgmgr77579zbf78p2zlhkdfr0000gn/T//ccOxe4My.s:6432   .bss.m_motor_id_iterations:0000000000000000 m_motor_id_iterations
/var/folders/sv/kgmgr77579zbf78p2zlhkdfr0000gn/T//ccOxe4My.s:6435   .bss.m_motor_current_sum:0000000000000000 $d
/var/folders/sv/kgmgr77579zbf78p2zlhkdfr0000gn/T//ccOxe4My.s:6439   .bss.m_motor_current_sum:0000000000000000 m_motor_current_sum
/var/folders/sv/kgmgr77579zbf78p2zlhkdfr0000gn/T//ccOxe4My.s:6442   .bss.m_input_current_iterations:0000000000000000 $d
/var/folders/sv/kgmgr77579zbf78p2zlhkdfr0000gn/T//ccOxe4My.s:6446   .bss.m_input_current_iterations:0000000000000000 m_input_current_iterations
/var/folders/sv/kgmgr77579zbf78p2zlhkdfr0000gn/T//ccOxe4My.s:6449   .bss.m_amp_seconds:0000000000000000 $d
/var/folders/sv/kgmgr77579zbf78p2zlhkdfr0000gn/T//ccOxe4My.s:6453   .bss.m_amp_seconds:0000000000000000 m_amp_seconds
/var/folders/sv/kgmgr77579zbf78p2zlhkdfr0000gn/T//ccOxe4My.s:6456   .bss.sample_send_thread_wa:0000000000000000 $d
/var/folders/sv/kgmgr77579zbf78p2zlhkdfr0000gn/T//ccOxe4My.s:6460   .bss.sample_send_thread_wa:0000000000000000 sample_send_thread_wa
/var/folders/sv/kgmgr77579zbf78p2zlhkdfr0000gn/T//ccOxe4My.s:6463   .bss.m_ignore_iterations:0000000000000000 $d
/var/folders/sv/kgmgr77579zbf78p2zlhkdfr0000gn/T//ccOxe4My.s:6467   .bss.m_ignore_iterations:0000000000000000 m_ignore_iterations
/var/folders/sv/kgmgr77579zbf78p2zlhkdfr0000gn/T//ccOxe4My.s:6473   .bss.m_sample_mode_last:0000000000000000 m_sample_mode_last
/var/folders/sv/kgmgr77579zbf78p2zlhkdfr0000gn/T//ccOxe4My.s:6474   .bss.m_sample_mode_last:0000000000000000 $d
/var/folders/sv/kgmgr77579zbf78p2zlhkdfr0000gn/T//ccOxe4My.s:6479   .bss.m_lock_enabled:0000000000000000 m_lock_enabled
/var/folders/sv/kgmgr77579zbf78p2zlhkdfr0000gn/T//ccOxe4My.s:6480   .bss.m_lock_enabled:0000000000000000 $d
/var/folders/sv/kgmgr77579zbf78p2zlhkdfr0000gn/T//ccOxe4My.s:6485   .bss.m_lock_override_once:0000000000000000 m_lock_override_once
/var/folders/sv/kgmgr77579zbf78p2zlhkdfr0000gn/T//ccOxe4My.s:6486   .bss.m_lock_override_once:0000000000000000 $d
/var/folders/sv/kgmgr77579zbf78p2zlhkdfr0000gn/T//ccOxe4My.s:6488   .bss.m_watt_seconds:0000000000000000 $d
/var/folders/sv/kgmgr77579zbf78p2zlhkdfr0000gn/T//ccOxe4My.s:6492   .bss.m_watt_seconds:0000000000000000 m_watt_seconds
/var/folders/sv/kgmgr77579zbf78p2zlhkdfr0000gn/T//ccOxe4My.s:6495   .bss.ADC_curr_norm_value:0000000000000000 $d
/var/folders/sv/kgmgr77579zbf78p2zlhkdfr0000gn/T//ccOxe4My.s:6502   .bss.m_position_set:0000000000000000 $d
/var/folders/sv/kgmgr77579zbf78p2zlhkdfr0000gn/T//ccOxe4My.s:6506   .bss.m_position_set:0000000000000000 m_position_set
/var/folders/sv/kgmgr77579zbf78p2zlhkdfr0000gn/T//ccOxe4My.s:6509   .bss.m_sample_now:0000000000000000 $d
/var/folders/sv/kgmgr77579zbf78p2zlhkdfr0000gn/T//ccOxe4My.s:6513   .bss.m_sample_now:0000000000000000 m_sample_now
/var/folders/sv/kgmgr77579zbf78p2zlhkdfr0000gn/T//ccOxe4My.s:6516   .bss.timer_thread_wa:0000000000000000 $d
/var/folders/sv/kgmgr77579zbf78p2zlhkdfr0000gn/T//ccOxe4My.s:6520   .bss.timer_thread_wa:0000000000000000 timer_thread_wa
/var/folders/sv/kgmgr77579zbf78p2zlhkdfr0000gn/T//ccOxe4My.s:6526   .bss.m_sample_mode:0000000000000000 m_sample_mode
/var/folders/sv/kgmgr77579zbf78p2zlhkdfr0000gn/T//ccOxe4My.s:6527   .bss.m_sample_mode:0000000000000000 $d
/var/folders/sv/kgmgr77579zbf78p2zlhkdfr0000gn/T//ccOxe4My.s:6529   .bss.m_temp_motor:0000000000000000 $d
/var/folders/sv/kgmgr77579zbf78p2zlhkdfr0000gn/T//ccOxe4My.s:6533   .bss.m_temp_motor:0000000000000000 m_temp_motor
                     .debug_frame:0000000000000010 $d

UNDEFINED SYMBOLS
chEvtWaitAny
buffer_append_float32_auto
commands_send_packet
ch
ARM GAS  /var/folders/sv/kgmgr77579zbf78p2zlhkdfr0000gn/T//ccOxe4My.s 			page 371


mcpwm_foc_set_handbrake
mcpwm_atc_set_brake_current
mcpwm_set_brake_current
memcpy
chThdCreateStatic
encoder_init_as5047p_spi
mcpwm_foc_init
mcpwm_atc_init
mcpwm_init
encoder_init_abi
mcpwm_atc_is_dccal_done
mcpwm_foc_is_dccal_done
mcpwm_is_dccal_done
mcpwm_get_state
mcpwm_foc_get_state
mcpwm_foc_get_duty_cycle_set
mcpwm_atc_get_duty_cycle_set
mcpwm_get_duty_cycle_set
mcpwm_foc_get_duty_cycle_now
mcpwm_atc_get_duty_cycle_now
mcpwm_get_duty_cycle_now
mcpwm_foc_get_sampling_frequency_now
mcpwm_atc_get_sampling_frequency_now
mcpwm_get_switching_frequency_now
mcpwm_foc_get_rpm
mcpwm_atc_get_rpm
mcpwm_get_rpm
mcpwm_foc_get_tot_current
mcpwm_atc_get_tot_current
mcpwm_get_tot_current
mcpwm_foc_get_tot_current_filtered
mcpwm_atc_get_tot_current_filtered
mcpwm_get_tot_current_filtered
mcpwm_foc_get_tot_current_directional
mcpwm_atc_get_tot_current_directional
mcpwm_get_tot_current_directional
mcpwm_foc_get_tot_current_directional_filtered
mcpwm_atc_get_tot_current_directional_filtered
mcpwm_get_tot_current_directional_filtered
mcpwm_foc_get_tot_current_in
mcpwm_atc_get_tot_current_in
mcpwm_get_tot_current_in
mcpwm_foc_get_tot_current_in_filtered
mcpwm_atc_get_tot_current_in_filtered
mcpwm_get_tot_current_in_filtered
mcpwm_foc_get_tachometer_value
mcpwm_atc_get_tachometer_value
mcpwm_get_tachometer_value
mcpwm_foc_stop_pwm
mcpwm_atc_stop_pwm
mcpwm_stop_pwm
utils_sys_lock_cnt
utils_sys_unlock_cnt
mcpwm_get_comm_step
logf
terminal_add_fault_data
utils_map
ARM GAS  /var/folders/sv/kgmgr77579zbf78p2zlhkdfr0000gn/T//ccOxe4My.s 			page 372


utils_min_abs
encoder_deinit
mcpwm_deinit
mcpwm_foc_set_configuration
mcpwm_atc_set_configuration
mcpwm_set_configuration
mcpwm_foc_deinit
mcpwm_atc_deinit
encoder_set_counts
chThdSleep
mcpwm_foc_get_tachometer_abs_value
mcpwm_atc_get_tachometer_abs_value
mcpwm_get_tachometer_abs_value
mcpwm_foc_get_last_inj_adc_isr_duration
mcpwm_atc_get_last_inj_adc_isr_duration
mcpwm_get_last_inj_adc_isr_duration
mcpwm_foc_get_pid_pos_now
utils_norm_angle
mcpwm_atc_get_pid_pos_now
encoder_read_deg
chEvtSignal
mcpwm_foc_init_done
mcpwm_atc_init_done
mcpwm_init_done
mcpwm_foc_set_duty
mcpwm_set_duty
mcpwm_atc_set_duty
mcpwm_foc_set_duty_noramp
mcpwm_set_duty_noramp
mcpwm_atc_set_duty_noramp
mcpwm_foc_set_pid_speed
mcpwm_set_pid_speed
mcpwm_atc_set_pid_speed
mcpwm_foc_set_pid_pos
mcpwm_set_pid_pos
mcpwm_atc_set_pid_pos
mcpwm_foc_set_current
mcpwm_set_current
mcpwm_atc_set_current
mcpwm_foc_set_brake_current
ledpwm_update_pwm
mcpwm_foc_get_id
mcpwm_foc_get_iq
mcpwm_read_hall_phase
chEvtSignalI
mcpwm_foc_get_abs_motor_current
mcpwm_foc_get_abs_motor_current_filtered
mcpwm_vzero
mcpwm_foc_get_phase
mcpwm_detect_currents
mcpwm_detect_currents_diff
mcpwm_detect_voltages
mcpwm_adc_inj_int_handler
