ARM GAS  /var/folders/sv/kgmgr77579zbf78p2zlhkdfr0000gn/T//ccOxe4My.s 			page 1


   1              		.syntax unified
   2              		.cpu cortex-m4
   3              		.eabi_attribute 27, 1
   4              		.eabi_attribute 28, 1
   5              		.fpu fpv4-sp-d16
   6              		.eabi_attribute 20, 1
   7              		.eabi_attribute 21, 1
   8              		.eabi_attribute 23, 3
   9              		.eabi_attribute 24, 1
  10              		.eabi_attribute 25, 1
  11              		.eabi_attribute 26, 1
  12              		.eabi_attribute 30, 2
  13              		.eabi_attribute 34, 1
  14              		.eabi_attribute 18, 4
  15              		.thumb
  16              		.syntax unified
  17              		.file	"mc_interface.c"
  18              		.text
  19              	.Ltext0:
  20              		.cfi_sections	.debug_frame
  21              		.section	.text.sample_send_thread,"ax",%progbits
  22              		.align	2
  23              		.p2align 4,,15
  24              		.thumb
  25              		.thumb_func
  26              		.type	sample_send_thread, %function
  27              	sample_send_thread:
  28              	.LFB312:
  29              		.file 1 "mc_interface.c"
  30              		.loc 1 1596 0
  31              		.cfi_startproc
  32              		@ args = 0, pretend = 0, frame = 48
  33              		@ frame_needed = 0, uses_anonymous_args = 0
  34              	.LVL0:
  35 0000 2DE9F04F 		push	{r4, r5, r6, r7, r8, r9, r10, fp, lr}
  36              		.cfi_def_cfa_offset 36
  37              		.cfi_offset 4, -36
  38              		.cfi_offset 5, -32
  39              		.cfi_offset 6, -28
  40              		.cfi_offset 7, -24
  41              		.cfi_offset 8, -20
  42              		.cfi_offset 9, -16
  43              		.cfi_offset 10, -12
  44              		.cfi_offset 11, -8
  45              		.cfi_offset 14, -4
  46              	.LBB111:
  47              	.LBB112:
  48              		.file 2 "ChibiOS_3.0.2/os/rt/include/chregistry.h"
  49              		.loc 2 135 0
  50 0004 7A4B     		ldr	r3, .L20
  51              	.LBE112:
  52              	.LBE111:
  53              		.loc 1 1601 0
  54 0006 7B4A     		ldr	r2, .L20+4
  55              	.LBB115:
  56              	.LBB113:
  57              		.loc 2 135 0
ARM GAS  /var/folders/sv/kgmgr77579zbf78p2zlhkdfr0000gn/T//ccOxe4My.s 			page 2


  58 0008 9B69     		ldr	r3, [r3, #24]
  59 000a 7B49     		ldr	r1, .L20+8
  60 000c 7B4E     		ldr	r6, .L20+12
  61 000e DFF824B2 		ldr	fp, .L20+68
  62 0012 DFF824A2 		ldr	r10, .L20+72
  63              	.LBE113:
  64              	.LBE115:
  65              		.loc 1 1596 0
  66 0016 2DED068B 		vpush.64	{d8, d9, d10}
  67              		.cfi_def_cfa_offset 60
  68              		.cfi_offset 80, -60
  69              		.cfi_offset 81, -56
  70              		.cfi_offset 82, -52
  71              		.cfi_offset 83, -48
  72              		.cfi_offset 84, -44
  73              		.cfi_offset 85, -40
  74              	.LBB116:
  75              	.LBB117:
  76              	.LBB118:
  77              		.loc 1 1641 0
  78 001a DFED799A 		vldr.32	s19, .L20+16
  79              		.loc 1 1643 0
  80 001e 9FED799A 		vldr.32	s18, .L20+20
  81 0022 DFED798A 		vldr.32	s17, .L20+24
  82 0026 9FED798A 		vldr.32	s16, .L20+28
  83              	.LBE118:
  84              	.LBE117:
  85              	.LBE116:
  86              	.LBB126:
  87              	.LBB114:
  88              		.loc 2 135 0
  89 002a 9961     		str	r1, [r3, #24]
  90              	.LVL1:
  91              	.LBE114:
  92              	.LBE126:
  93              		.loc 1 1596 0
  94 002c 8DB0     		sub	sp, sp, #52
  95              		.cfi_def_cfa_offset 112
  96              		.loc 1 1601 0
  97 002e 1360     		str	r3, [r2]
  98              	.LVL2:
  99              	.L7:
 100              	.LBB127:
 101              		.loc 1 1604 0
 102 0030 0120     		movs	r0, #1
 103 0032 FFF7FEFF 		bl	chEvtWaitAny
 104              	.LVL3:
 105              		.loc 1 1609 0
 106 0036 764B     		ldr	r3, .L20+32
 107 0038 1B78     		ldrb	r3, [r3]	@ zero_extendqisi2
 108 003a 013B     		subs	r3, r3, #1
 109 003c 052B     		cmp	r3, #5
 110 003e F7D8     		bhi	.L7
 111 0040 DFE803F0 		tbb	[pc, r3]
 112              	.L4:
 113 0044 CE       		.byte	(.L3-.L4)/2
 114 0045 CE       		.byte	(.L3-.L4)/2
ARM GAS  /var/folders/sv/kgmgr77579zbf78p2zlhkdfr0000gn/T//ccOxe4My.s 			page 3


 115 0046 03       		.byte	(.L5-.L4)/2
 116 0047 03       		.byte	(.L5-.L4)/2
 117 0048 03       		.byte	(.L5-.L4)/2
 118 0049 03       		.byte	(.L5-.L4)/2
 119              		.p2align 1
 120              	.L5:
 121              	.LVL4:
 122              		.loc 1 1620 0
 123 004a 724B     		ldr	r3, .L20+36
 124 004c 724A     		ldr	r2, .L20+40
 125 004e 1B68     		ldr	r3, [r3]
 126 0050 1268     		ldr	r2, [r2]
 127              		.loc 1 1619 0
 128 0052 4FF4FA67 		mov	r7, #2000
 129              		.loc 1 1620 0
 130 0056 9B1A     		subs	r3, r3, r2
 131              	.LVL5:
 132              	.L6:
 133 0058 9846     		mov	r8, r3
 134              	.LBB123:
 135              	.LBB119:
 136              		.loc 1 1632 0
 137 005a B8F5FA6F 		cmp	r8, #2000
 138              		.loc 1 1647 0
 139 005e 9FED6FAA 		vldr.32	s20, .L20+44
 140              	.LBE119:
 141              	.LBE123:
 142              		.loc 1 1619 0
 143 0062 4FF00005 		mov	r5, #0
 144              	.LVL6:
 145              	.LBB124:
 146              	.LBB120:
 147              		.loc 1 1630 0
 148 0066 4446     		mov	r4, r8
 149              	.LVL7:
 150              		.loc 1 1632 0
 151 0068 C0F2B280 		blt	.L8
 152              	.LVL8:
 153              	.L9:
 154              		.loc 1 1633 0
 155 006c A4F5FA64 		sub	r4, r4, #2000
 156              	.LVL9:
 157              		.loc 1 1632 0
 158 0070 B4F5FA6F 		cmp	r4, #2000
 159 0074 FADA     		bge	.L9
 160              	.L10:
 161              		.loc 1 1641 0 discriminator 2
 162 0076 36F81430 		ldrh	r3, [r6, r4, lsl #1]
 163 007a 1BB2     		sxth	r3, r3
 164 007c 07EE903A 		vmov	s15, r3	@ int
 165 0080 B8EEE70A 		vcvt.f32.s32	s0, s15
 166              		.loc 1 1640 0 discriminator 2
 167 0084 0122     		movs	r2, #1
 168              		.loc 1 1642 0 discriminator 2
 169 0086 04FA02F9 		lsl	r9, r4, r2
 170              		.loc 1 1640 0 discriminator 2
 171 008a 1323     		movs	r3, #19
ARM GAS  /var/folders/sv/kgmgr77579zbf78p2zlhkdfr0000gn/T//ccOxe4My.s 			page 4


 172              		.loc 1 1641 0 discriminator 2
 173 008c 20EE290A 		vmul.f32	s0, s0, s19
 174 0090 01A9     		add	r1, sp, #4
 175 0092 02A8     		add	r0, sp, #8
 176              		.loc 1 1640 0 discriminator 2
 177 0094 0192     		str	r2, [sp, #4]
 178 0096 8DF80830 		strb	r3, [sp, #8]
 179              		.loc 1 1641 0 discriminator 2
 180 009a FFF7FEFF 		bl	buffer_append_float32_auto
 181              	.LVL10:
 182              		.loc 1 1642 0 discriminator 2
 183 009e 06EB0903 		add	r3, r6, r9
 184 00a2 01A9     		add	r1, sp, #4
 185 00a4 B3F8A03F 		ldrh	r3, [r3, #4000]
 186 00a8 1BB2     		sxth	r3, r3
 187 00aa 07EE903A 		vmov	s15, r3	@ int
 188 00ae B8EEE70A 		vcvt.f32.s32	s0, s15
 189 00b2 02A8     		add	r0, sp, #8
 190 00b4 20EE290A 		vmul.f32	s0, s0, s19
 191 00b8 FFF7FEFF 		bl	buffer_append_float32_auto
 192              	.LVL11:
 193              		.loc 1 1643 0 discriminator 2
 194 00bc 0BEB0903 		add	r3, fp, r9
 195 00c0 01A9     		add	r1, sp, #4
 196 00c2 B3F8483E 		ldrh	r3, [r3, #3656]
 197 00c6 1BB2     		sxth	r3, r3
 198 00c8 07EE903A 		vmov	s15, r3	@ int
 199 00cc B8EEE70A 		vcvt.f32.s32	s0, s15
 200 00d0 02A8     		add	r0, sp, #8
 201 00d2 20EE090A 		vmul.f32	s0, s0, s18
 202              	.LBE120:
 203              		.loc 1 1627 0 discriminator 2
 204 00d6 0135     		adds	r5, r5, #1
 205              	.LVL12:
 206              	.LBB121:
 207              		.loc 1 1643 0 discriminator 2
 208 00d8 20EE280A 		vmul.f32	s0, s0, s17
 209 00dc 08F10108 		add	r8, r8, #1
 210 00e0 20EE080A 		vmul.f32	s0, s0, s16
 211 00e4 FFF7FEFF 		bl	buffer_append_float32_auto
 212              	.LVL13:
 213              		.loc 1 1644 0 discriminator 2
 214 00e8 0AEB0903 		add	r3, r10, r9
 215 00ec 01A9     		add	r1, sp, #4
 216 00ee B3F8F03C 		ldrh	r3, [r3, #3312]
 217 00f2 1BB2     		sxth	r3, r3
 218 00f4 07EE903A 		vmov	s15, r3	@ int
 219 00f8 B8EEE70A 		vcvt.f32.s32	s0, s15
 220 00fc 02A8     		add	r0, sp, #8
 221 00fe 20EE090A 		vmul.f32	s0, s0, s18
 222 0102 20EE280A 		vmul.f32	s0, s0, s17
 223 0106 20EE080A 		vmul.f32	s0, s0, s16
 224 010a FFF7FEFF 		bl	buffer_append_float32_auto
 225              	.LVL14:
 226              		.loc 1 1645 0 discriminator 2
 227 010e 444B     		ldr	r3, .L20+48
 228 0110 4B44     		add	r3, r3, r9
ARM GAS  /var/folders/sv/kgmgr77579zbf78p2zlhkdfr0000gn/T//ccOxe4My.s 			page 5


 229 0112 01A9     		add	r1, sp, #4
 230 0114 B3F8983B 		ldrh	r3, [r3, #2968]
 231 0118 1BB2     		sxth	r3, r3
 232 011a 07EE903A 		vmov	s15, r3	@ int
 233 011e B8EEE70A 		vcvt.f32.s32	s0, s15
 234 0122 02A8     		add	r0, sp, #8
 235 0124 20EE090A 		vmul.f32	s0, s0, s18
 236 0128 20EE280A 		vmul.f32	s0, s0, s17
 237 012c 20EE080A 		vmul.f32	s0, s0, s16
 238 0130 FFF7FEFF 		bl	buffer_append_float32_auto
 239              	.LVL15:
 240              		.loc 1 1646 0 discriminator 2
 241 0134 3B4B     		ldr	r3, .L20+52
 242 0136 4B44     		add	r3, r3, r9
 243 0138 01A9     		add	r1, sp, #4
 244 013a B3F8403A 		ldrh	r3, [r3, #2624]
 245 013e 1BB2     		sxth	r3, r3
 246 0140 07EE903A 		vmov	s15, r3	@ int
 247 0144 B8EEE70A 		vcvt.f32.s32	s0, s15
 248 0148 02A8     		add	r0, sp, #8
 249 014a 20EE090A 		vmul.f32	s0, s0, s18
 250 014e 20EE280A 		vmul.f32	s0, s0, s17
 251 0152 20EE080A 		vmul.f32	s0, s0, s16
 252 0156 FFF7FEFF 		bl	buffer_append_float32_auto
 253              	.LVL16:
 254              		.loc 1 1647 0 discriminator 2
 255 015a 334B     		ldr	r3, .L20+56
 256 015c 4B44     		add	r3, r3, r9
 257 015e 01A9     		add	r1, sp, #4
 258 0160 B3F8E838 		ldrh	r3, [r3, #2280]
 259 0164 1BB2     		sxth	r3, r3
 260 0166 07EE903A 		vmov	s15, r3	@ int
 261 016a B8EEE70A 		vcvt.f32.s32	s0, s15
 262 016e 02A8     		add	r0, sp, #8
 263 0170 80EE0A0A 		vdiv.f32	s0, s0, s20
 264 0174 FFF7FEFF 		bl	buffer_append_float32_auto
 265              	.LVL17:
 266              		.loc 1 1648 0 discriminator 2
 267 0178 2C4B     		ldr	r3, .L20+60
 268 017a 9944     		add	r9, r9, r3
 269 017c 01A9     		add	r1, sp, #4
 270 017e B9F89037 		ldrh	r3, [r9, #1936]
 271 0182 1BB2     		sxth	r3, r3
 272 0184 02A8     		add	r0, sp, #8
 273 0186 07EE903A 		vmov	s15, r3	@ int
 274 018a F8EEE77A 		vcvt.f32.s32	s15, s15
 275 018e B2EE040A 		vmov.f32	s0, #1.0e+1
 276 0192 27EE800A 		vmul.f32	s0, s15, s0
 277 0196 FFF7FEFF 		bl	buffer_append_float32_auto
 278              	.LVL18:
 279              		.loc 1 1649 0 discriminator 2
 280 019a 254A     		ldr	r2, .L20+64
 281 019c 019B     		ldr	r3, [sp, #4]
 282 019e 1444     		add	r4, r4, r2
 283              	.LVL19:
 284 01a0 0CAA     		add	r2, sp, #48
 285 01a2 1A44     		add	r2, r2, r3
ARM GAS  /var/folders/sv/kgmgr77579zbf78p2zlhkdfr0000gn/T//ccOxe4My.s 			page 6


 286 01a4 94F83816 		ldrb	r1, [r4, #1592]	@ zero_extendqisi2
 287 01a8 02F8281C 		strb	r1, [r2, #-40]
 288              		.loc 1 1650 0 discriminator 2
 289 01ac 0233     		adds	r3, r3, #2
 290 01ae 94F8084E 		ldrb	r4, [r4, #3592]	@ zero_extendqisi2
 291              	.LVL20:
 292 01b2 02F8274C 		strb	r4, [r2, #-39]
 293              		.loc 1 1652 0 discriminator 2
 294 01b6 1946     		mov	r1, r3
 295 01b8 02A8     		add	r0, sp, #8
 296              		.loc 1 1650 0 discriminator 2
 297 01ba 0193     		str	r3, [sp, #4]
 298              		.loc 1 1652 0 discriminator 2
 299 01bc FFF7FEFF 		bl	commands_send_packet
 300              	.LVL21:
 301              	.LBE121:
 302              		.loc 1 1627 0 discriminator 2
 303 01c0 BD42     		cmp	r5, r7
 304 01c2 BFF635AF 		bge	.L7
 305              	.LBB122:
 306              		.loc 1 1632 0
 307 01c6 B8F5FA6F 		cmp	r8, #2000
 308              		.loc 1 1630 0
 309 01ca 4446     		mov	r4, r8
 310              	.LVL22:
 311              		.loc 1 1632 0
 312 01cc BFF64EAF 		bge	.L9
 313              	.L8:
 314              		.loc 1 1636 0
 315 01d0 B8F1000F 		cmp	r8, #0
 316 01d4 BFF64FAF 		bge	.L10
 317              	.L11:
 318              	.LVL23:
 319 01d8 14F5FA64 		adds	r4, r4, #2000
 320              	.LVL24:
 321 01dc FCD4     		bmi	.L11
 322 01de 4AE7     		b	.L10
 323              	.LVL25:
 324              	.L3:
 325              	.LBE122:
 326              	.LBE124:
 327              		.loc 1 1612 0
 328 01e0 0D4B     		ldr	r3, .L20+40
 329 01e2 1F68     		ldr	r7, [r3]
 330              	.LVL26:
 331              	.LBB125:
 332              		.loc 1 1627 0
 333 01e4 002F     		cmp	r7, #0
 334 01e6 C8BF     		it	gt
 335 01e8 0023     		movgt	r3, #0
 336 01ea 3FF735AF 		bgt	.L6
 337 01ee 1FE7     		b	.L7
 338              	.L21:
 339              		.align	2
 340              	.L20:
 341 01f0 00000000 		.word	ch
 342 01f4 00000000 		.word	.LANCHOR0
ARM GAS  /var/folders/sv/kgmgr77579zbf78p2zlhkdfr0000gn/T//ccOxe4My.s 			page 7


 343 01f8 00000000 		.word	.LC0
 344 01fc 00000000 		.word	.LANCHOR4
 345 0200 500AA53D 		.word	1034226256
 346 0204 00008039 		.word	964689920
 347 0208 33335340 		.word	1079194419
 348 020c 74D19541 		.word	1100337524
 349 0210 00000000 		.word	.LANCHOR1
 350 0214 00000000 		.word	.LANCHOR3
 351 0218 00000000 		.word	.LANCHOR2
 352 021c A48BC642 		.word	1120308132
 353 0220 E8320000 		.word	.LANCHOR7
 354 0224 E0430000 		.word	.LANCHOR8
 355 0228 D8540000 		.word	.LANCHOR9
 356 022c D0650000 		.word	.LANCHOR10
 357 0230 C8760000 		.word	.LANCHOR11
 358 0234 F8100000 		.word	.LANCHOR5
 359 0238 F0210000 		.word	.LANCHOR6
 360              	.LBE125:
 361              	.LBE127:
 362              		.cfi_endproc
 363              	.LFE312:
 364              		.size	sample_send_thread, .-sample_send_thread
 365              		.section	.text.mc_interface_set_handbrake.part.3,"ax",%progbits
 366              		.align	2
 367              		.p2align 4,,15
 368              		.thumb
 369              		.thumb_func
 370              		.type	mc_interface_set_handbrake.part.3, %function
 371              	mc_interface_set_handbrake.part.3:
 372              	.LFB316:
 373              		.loc 1 514 0
 374              		.cfi_startproc
 375              		@ args = 0, pretend = 0, frame = 0
 376              		@ frame_needed = 0, uses_anonymous_args = 0
 377              		@ link register save eliminated.
 378              	.LVL27:
 379              		.loc 1 519 0
 380 0000 074B     		ldr	r3, .L28
 381 0002 9B78     		ldrb	r3, [r3, #2]	@ zero_extendqisi2
 382 0004 032B     		cmp	r3, #3
 383 0006 09D8     		bhi	.L22
 384 0008 DFE803F0 		tbb	[pc, r3]
 385              	.L25:
 386 000c 06       		.byte	(.L24-.L25)/2
 387 000d 04       		.byte	(.L26-.L25)/2
 388 000e 06       		.byte	(.L24-.L25)/2
 389 000f 02       		.byte	(.L27-.L25)/2
 390              		.p2align 1
 391              	.L27:
 392              		.loc 1 529 0
 393 0010 FFF7FEBF 		b	mcpwm_foc_set_handbrake
 394              	.LVL28:
 395              	.L26:
 396              		.loc 1 526 0
 397 0014 FFF7FEBF 		b	mcpwm_atc_set_brake_current
 398              	.LVL29:
 399              	.L24:
ARM GAS  /var/folders/sv/kgmgr77579zbf78p2zlhkdfr0000gn/T//ccOxe4My.s 			page 8


 400              		.loc 1 523 0
 401 0018 FFF7FEBF 		b	mcpwm_set_brake_current
 402              	.LVL30:
 403              	.L22:
 404 001c 7047     		bx	lr
 405              	.L29:
 406 001e 00BF     		.align	2
 407              	.L28:
 408 0020 00000000 		.word	.LANCHOR12
 409              		.cfi_endproc
 410              	.LFE316:
 411              		.size	mc_interface_set_handbrake.part.3, .-mc_interface_set_handbrake.part.3
 412              		.section	.text.mc_interface_init,"ax",%progbits
 413              		.align	2
 414              		.p2align 4,,15
 415              		.global	mc_interface_init
 416              		.thumb
 417              		.thumb_func
 418              		.type	mc_interface_init, %function
 419              	mc_interface_init:
 420              	.LFB256:
 421              		.loc 1 100 0
 422              		.cfi_startproc
 423              		@ args = 0, pretend = 0, frame = 0
 424              		@ frame_needed = 0, uses_anonymous_args = 0
 425              	.LVL31:
 426 0000 F0B5     		push	{r4, r5, r6, r7, lr}
 427              		.cfi_def_cfa_offset 20
 428              		.cfi_offset 4, -20
 429              		.cfi_offset 5, -16
 430              		.cfi_offset 6, -12
 431              		.cfi_offset 7, -8
 432              		.cfi_offset 14, -4
 433              		.loc 1 101 0
 434 0002 3F4D     		ldr	r5, .L40
 435              		.loc 1 104 0
 436 0004 3F4E     		ldr	r6, .L40+4
 437              		.loc 1 108 0
 438 0006 404F     		ldr	r7, .L40+8
 439              		.loc 1 100 0
 440 0008 83B0     		sub	sp, sp, #12
 441              		.cfi_def_cfa_offset 32
 442              		.loc 1 101 0
 443 000a 0146     		mov	r1, r0
 444 000c 4FF4BA72 		mov	r2, #372
 445 0010 2846     		mov	r0, r5
 446              	.LVL32:
 447 0012 FFF7FEFF 		bl	memcpy
 448              	.LVL33:
 449              		.loc 1 105 0
 450 0016 3D4A     		ldr	r2, .L40+12
 451              		.loc 1 106 0
 452 0018 3D49     		ldr	r1, .L40+16
 453              		.loc 1 107 0
 454 001a 3E48     		ldr	r0, .L40+20
 455              		.loc 1 124 0
 456 001c DFF85CE1 		ldr	lr, .L40+124
ARM GAS  /var/folders/sv/kgmgr77579zbf78p2zlhkdfr0000gn/T//ccOxe4My.s 			page 9


 457              		.loc 1 107 0
 458 0020 0023     		movs	r3, #0
 459              		.loc 1 102 0
 460 0022 0024     		movs	r4, #0
 461              		.loc 1 132 0
 462 0024 0094     		str	r4, [sp]
 463              		.loc 1 104 0
 464 0026 3460     		str	r4, [r6]
 465              		.loc 1 105 0
 466 0028 1470     		strb	r4, [r2]
 467              		.loc 1 109 0
 468 002a 3B4E     		ldr	r6, .L40+24
 469              		.loc 1 106 0
 470 002c 0C70     		strb	r4, [r1]
 471              		.loc 1 110 0
 472 002e 3B4A     		ldr	r2, .L40+28
 473              		.loc 1 107 0
 474 0030 0360     		str	r3, [r0]	@ float
 475              		.loc 1 111 0
 476 0032 3B49     		ldr	r1, .L40+32
 477              		.loc 1 112 0
 478 0034 3B48     		ldr	r0, .L40+36
 479              		.loc 1 108 0
 480 0036 3B60     		str	r3, [r7]	@ float
 481              		.loc 1 109 0
 482 0038 3360     		str	r3, [r6]	@ float
 483              		.loc 1 113 0
 484 003a 3B4F     		ldr	r7, .L40+40
 485              		.loc 1 110 0
 486 003c 1360     		str	r3, [r2]	@ float
 487              		.loc 1 114 0
 488 003e 3B4E     		ldr	r6, .L40+44
 489              		.loc 1 111 0
 490 0040 0B60     		str	r3, [r1]	@ float
 491              		.loc 1 115 0
 492 0042 3B4A     		ldr	r2, .L40+48
 493              		.loc 1 112 0
 494 0044 0360     		str	r3, [r0]	@ float
 495              		.loc 1 116 0
 496 0046 3B49     		ldr	r1, .L40+52
 497              		.loc 1 117 0
 498 0048 3B48     		ldr	r0, .L40+56
 499              		.loc 1 113 0
 500 004a 3B60     		str	r3, [r7]	@ float
 501              		.loc 1 114 0
 502 004c 3360     		str	r3, [r6]	@ float
 503              		.loc 1 118 0
 504 004e 3B4F     		ldr	r7, .L40+60
 505              		.loc 1 115 0
 506 0050 1360     		str	r3, [r2]	@ float
 507              		.loc 1 119 0
 508 0052 3B4E     		ldr	r6, .L40+64
 509              		.loc 1 116 0
 510 0054 0B60     		str	r3, [r1]	@ float
 511              		.loc 1 120 0
 512 0056 3B4A     		ldr	r2, .L40+68
 513              		.loc 1 117 0
ARM GAS  /var/folders/sv/kgmgr77579zbf78p2zlhkdfr0000gn/T//ccOxe4My.s 			page 10


 514 0058 0360     		str	r3, [r0]	@ float
 515              		.loc 1 121 0
 516 005a 3B49     		ldr	r1, .L40+72
 517              		.loc 1 122 0
 518 005c 3B48     		ldr	r0, .L40+76
 519              		.loc 1 118 0
 520 005e 3B60     		str	r3, [r7]	@ float
 521              		.loc 1 119 0
 522 0060 3360     		str	r3, [r6]	@ float
 523              		.loc 1 120 0
 524 0062 1360     		str	r3, [r2]	@ float
 525              		.loc 1 121 0
 526 0064 0B60     		str	r3, [r1]	@ float
 527              		.loc 1 122 0
 528 0066 0360     		str	r3, [r0]	@ float
 529              		.loc 1 102 0
 530 0068 394B     		ldr	r3, .L40+80
 531              		.loc 1 125 0
 532 006a 3A4E     		ldr	r6, .L40+84
 533              		.loc 1 102 0
 534 006c 1C70     		strb	r4, [r3]
 535              		.loc 1 124 0
 536 006e 4FF47A73 		mov	r3, #1000
 537 0072 CEF80030 		str	r3, [lr]
 538              		.loc 1 125 0
 539 0076 0123     		movs	r3, #1
 540 0078 3360     		str	r3, [r6]
 541              		.loc 1 126 0
 542 007a 374A     		ldr	r2, .L40+88
 543              		.loc 1 127 0
 544 007c 3749     		ldr	r1, .L40+92
 545              		.loc 1 128 0
 546 007e 3848     		ldr	r0, .L40+96
 547              		.loc 1 103 0
 548 0080 384F     		ldr	r7, .L40+100
 549              		.loc 1 129 0
 550 0082 394E     		ldr	r6, .L40+104
 551              		.loc 1 126 0
 552 0084 1460     		str	r4, [r2]
 553              		.loc 1 132 0
 554 0086 394B     		ldr	r3, .L40+108
 555              		.loc 1 127 0
 556 0088 0C60     		str	r4, [r1]
 557              		.loc 1 132 0
 558 008a 4022     		movs	r2, #64
 559              		.loc 1 128 0
 560 008c 0470     		strb	r4, [r0]
 561              		.loc 1 132 0
 562 008e 4FF4B361 		mov	r1, #1432
 563 0092 3748     		ldr	r0, .L40+112
 564              		.loc 1 103 0
 565 0094 3C60     		str	r4, [r7]
 566              		.loc 1 129 0
 567 0096 3470     		strb	r4, [r6]
 568              		.loc 1 132 0
 569 0098 FFF7FEFF 		bl	chThdCreateStatic
 570              	.LVL34:
ARM GAS  /var/folders/sv/kgmgr77579zbf78p2zlhkdfr0000gn/T//ccOxe4My.s 			page 11


 571              		.loc 1 133 0
 572 009c 354B     		ldr	r3, .L40+116
 573 009e 0094     		str	r4, [sp]
 574 00a0 3548     		ldr	r0, .L40+120
 575 00a2 3F22     		movs	r2, #63
 576 00a4 4FF4B361 		mov	r1, #1432
 577 00a8 FFF7FEFF 		bl	chThdCreateStatic
 578              	.LVL35:
 579              		.loc 1 142 0
 580 00ac 95F85C31 		ldrb	r3, [r5, #348]	@ zero_extendqisi2
 581 00b0 DBB2     		uxtb	r3, r3
 582 00b2 012B     		cmp	r3, #1
 583 00b4 1CD0     		beq	.L32
 584 00b6 022B     		cmp	r3, #2
 585 00b8 01D1     		bne	.L31
 586              		.loc 1 148 0
 587 00ba FFF7FEFF 		bl	encoder_init_as5047p_spi
 588              	.LVL36:
 589              	.L31:
 590              		.loc 1 157 0
 591 00be AB78     		ldrb	r3, [r5, #2]	@ zero_extendqisi2
 592 00c0 032B     		cmp	r3, #3
 593 00c2 1AD8     		bhi	.L30
 594 00c4 DFE803F0 		tbb	[pc, r3]
 595              	.L36:
 596 00c8 0E       		.byte	(.L35-.L36)/2
 597 00c9 08       		.byte	(.L37-.L36)/2
 598 00ca 0E       		.byte	(.L35-.L36)/2
 599 00cb 02       		.byte	(.L38-.L36)/2
 600              		.p2align 1
 601              	.L38:
 602              		.loc 1 166 0
 603 00cc 0C48     		ldr	r0, .L40
 604              		.loc 1 172 0
 605 00ce 03B0     		add	sp, sp, #12
 606              		.cfi_remember_state
 607              		.cfi_def_cfa_offset 20
 608              		@ sp needed
 609 00d0 BDE8F040 		pop	{r4, r5, r6, r7, lr}
 610              		.cfi_restore 14
 611              		.cfi_restore 7
 612              		.cfi_restore 6
 613              		.cfi_restore 5
 614              		.cfi_restore 4
 615              		.cfi_def_cfa_offset 0
 616              		.loc 1 166 0
 617 00d4 FFF7FEBF 		b	mcpwm_foc_init
 618              	.LVL37:
 619              	.L37:
 620              		.cfi_restore_state
 621              		.loc 1 163 0
 622 00d8 0948     		ldr	r0, .L40
 623              		.loc 1 172 0
 624 00da 03B0     		add	sp, sp, #12
 625              		.cfi_remember_state
 626              		.cfi_def_cfa_offset 20
 627              		@ sp needed
ARM GAS  /var/folders/sv/kgmgr77579zbf78p2zlhkdfr0000gn/T//ccOxe4My.s 			page 12


 628 00dc BDE8F040 		pop	{r4, r5, r6, r7, lr}
 629              		.cfi_restore 14
 630              		.cfi_restore 7
 631              		.cfi_restore 6
 632              		.cfi_restore 5
 633              		.cfi_restore 4
 634              		.cfi_def_cfa_offset 0
 635              		.loc 1 163 0
 636 00e0 FFF7FEBF 		b	mcpwm_atc_init
 637              	.LVL38:
 638              	.L35:
 639              		.cfi_restore_state
 640              		.loc 1 160 0
 641 00e4 0648     		ldr	r0, .L40
 642              		.loc 1 172 0
 643 00e6 03B0     		add	sp, sp, #12
 644              		.cfi_remember_state
 645              		.cfi_def_cfa_offset 20
 646              		@ sp needed
 647 00e8 BDE8F040 		pop	{r4, r5, r6, r7, lr}
 648              		.cfi_restore 14
 649              		.cfi_restore 7
 650              		.cfi_restore 6
 651              		.cfi_restore 5
 652              		.cfi_restore 4
 653              		.cfi_def_cfa_offset 0
 654              		.loc 1 160 0
 655 00ec FFF7FEBF 		b	mcpwm_init
 656              	.LVL39:
 657              	.L32:
 658              		.cfi_restore_state
 659              		.loc 1 144 0
 660 00f0 D5F85801 		ldr	r0, [r5, #344]
 661 00f4 FFF7FEFF 		bl	encoder_init_abi
 662              	.LVL40:
 663              		.loc 1 145 0
 664 00f8 E1E7     		b	.L31
 665              	.L30:
 666              		.loc 1 172 0
 667 00fa 03B0     		add	sp, sp, #12
 668              		@ sp needed
 669 00fc F0BD     		pop	{r4, r5, r6, r7, pc}
 670              	.L41:
 671 00fe 00BF     		.align	2
 672              	.L40:
 673 0100 00000000 		.word	.LANCHOR12
 674 0104 00000000 		.word	.LANCHOR15
 675 0108 00000000 		.word	.LANCHOR19
 676 010c 00000000 		.word	.LANCHOR16
 677 0110 00000000 		.word	.LANCHOR17
 678 0114 00000000 		.word	.LANCHOR18
 679 0118 00000000 		.word	.LANCHOR20
 680 011c 00000000 		.word	.LANCHOR21
 681 0120 00000000 		.word	.LANCHOR22
 682 0124 00000000 		.word	.LANCHOR23
 683 0128 00000000 		.word	.LANCHOR24
 684 012c 00000000 		.word	.LANCHOR25
ARM GAS  /var/folders/sv/kgmgr77579zbf78p2zlhkdfr0000gn/T//ccOxe4My.s 			page 13


 685 0130 00000000 		.word	.LANCHOR26
 686 0134 00000000 		.word	.LANCHOR27
 687 0138 00000000 		.word	.LANCHOR28
 688 013c 00000000 		.word	.LANCHOR29
 689 0140 00000000 		.word	.LANCHOR30
 690 0144 00000000 		.word	.LANCHOR31
 691 0148 00000000 		.word	.LANCHOR32
 692 014c 00000000 		.word	.LANCHOR33
 693 0150 00000000 		.word	.LANCHOR13
 694 0154 00000000 		.word	.LANCHOR34
 695 0158 00000000 		.word	.LANCHOR35
 696 015c 00000000 		.word	.LANCHOR3
 697 0160 00000000 		.word	.LANCHOR36
 698 0164 00000000 		.word	.LANCHOR14
 699 0168 00000000 		.word	.LANCHOR1
 700 016c 00000000 		.word	timer_thread
 701 0170 00000000 		.word	.LANCHOR37
 702 0174 00000000 		.word	sample_send_thread
 703 0178 00000000 		.word	.LANCHOR38
 704 017c 00000000 		.word	.LANCHOR2
 705              		.cfi_endproc
 706              	.LFE256:
 707              		.size	mc_interface_init, .-mc_interface_init
 708              		.section	.text.mc_interface_get_configuration,"ax",%progbits
 709              		.align	2
 710              		.p2align 4,,15
 711              		.global	mc_interface_get_configuration
 712              		.thumb
 713              		.thumb_func
 714              		.type	mc_interface_get_configuration, %function
 715              	mc_interface_get_configuration:
 716              	.LFB257:
 717              		.loc 1 174 0
 718              		.cfi_startproc
 719              		@ args = 0, pretend = 0, frame = 0
 720              		@ frame_needed = 0, uses_anonymous_args = 0
 721              		@ link register save eliminated.
 722              		.loc 1 176 0
 723 0000 0048     		ldr	r0, .L43
 724 0002 7047     		bx	lr
 725              	.L44:
 726              		.align	2
 727              	.L43:
 728 0004 00000000 		.word	.LANCHOR12
 729              		.cfi_endproc
 730              	.LFE257:
 731              		.size	mc_interface_get_configuration, .-mc_interface_get_configuration
 732              		.section	.text.mc_interface_dccal_done,"ax",%progbits
 733              		.align	2
 734              		.p2align 4,,15
 735              		.global	mc_interface_dccal_done
 736              		.thumb
 737              		.thumb_func
 738              		.type	mc_interface_dccal_done, %function
 739              	mc_interface_dccal_done:
 740              	.LFB259:
 741              		.loc 1 258 0
ARM GAS  /var/folders/sv/kgmgr77579zbf78p2zlhkdfr0000gn/T//ccOxe4My.s 			page 14


 742              		.cfi_startproc
 743              		@ args = 0, pretend = 0, frame = 0
 744              		@ frame_needed = 0, uses_anonymous_args = 0
 745              	.LVL41:
 746 0000 08B5     		push	{r3, lr}
 747              		.cfi_def_cfa_offset 8
 748              		.cfi_offset 3, -8
 749              		.cfi_offset 14, -4
 750              		.loc 1 260 0
 751 0002 0A4B     		ldr	r3, .L52
 752 0004 9B78     		ldrb	r3, [r3, #2]	@ zero_extendqisi2
 753 0006 032B     		cmp	r3, #3
 754 0008 0DD8     		bhi	.L46
 755 000a DFE803F0 		tbb	[pc, r3]
 756              	.L48:
 757 000e 08       		.byte	(.L47-.L48)/2
 758 000f 02       		.byte	(.L49-.L48)/2
 759 0010 08       		.byte	(.L47-.L48)/2
 760 0011 04       		.byte	(.L50-.L48)/2
 761              		.p2align 1
 762              	.L49:
 763              		.loc 1 266 0
 764 0012 FFF7FEFF 		bl	mcpwm_atc_is_dccal_done
 765              	.LVL42:
 766              	.L50:
 767              		.loc 1 276 0
 768 0016 BDE80840 		pop	{r3, lr}
 769              		.cfi_remember_state
 770              		.cfi_restore 14
 771              		.cfi_restore 3
 772              		.cfi_def_cfa_offset 0
 773              		.loc 1 268 0
 774 001a FFF7FEBF 		b	mcpwm_foc_is_dccal_done
 775              	.LVL43:
 776              	.L47:
 777              		.cfi_restore_state
 778              		.loc 1 276 0
 779 001e BDE80840 		pop	{r3, lr}
 780              		.cfi_restore 14
 781              		.cfi_restore 3
 782              		.cfi_def_cfa_offset 0
 783              		.loc 1 263 0
 784 0022 FFF7FEBF 		b	mcpwm_is_dccal_done
 785              	.LVL44:
 786              	.L46:
 787              		.loc 1 276 0
 788 0026 0020     		movs	r0, #0
 789 0028 08BD     		pop	{r3, pc}
 790              	.L53:
 791 002a 00BF     		.align	2
 792              	.L52:
 793 002c 00000000 		.word	.LANCHOR12
 794              		.cfi_endproc
 795              	.LFE259:
 796              		.size	mc_interface_dccal_done, .-mc_interface_dccal_done
 797              		.section	.text.mc_interface_set_pwm_callback,"ax",%progbits
 798              		.align	2
ARM GAS  /var/folders/sv/kgmgr77579zbf78p2zlhkdfr0000gn/T//ccOxe4My.s 			page 15


 799              		.p2align 4,,15
 800              		.global	mc_interface_set_pwm_callback
 801              		.thumb
 802              		.thumb_func
 803              		.type	mc_interface_set_pwm_callback, %function
 804              	mc_interface_set_pwm_callback:
 805              	.LFB260:
 806              		.loc 1 284 0
 807              		.cfi_startproc
 808              		@ args = 0, pretend = 0, frame = 0
 809              		@ frame_needed = 0, uses_anonymous_args = 0
 810              		@ link register save eliminated.
 811              	.LVL45:
 812              		.loc 1 285 0
 813 0000 014B     		ldr	r3, .L55
 814 0002 1860     		str	r0, [r3]
 815 0004 7047     		bx	lr
 816              	.L56:
 817 0006 00BF     		.align	2
 818              	.L55:
 819 0008 00000000 		.word	.LANCHOR39
 820              		.cfi_endproc
 821              	.LFE260:
 822              		.size	mc_interface_set_pwm_callback, .-mc_interface_set_pwm_callback
 823              		.section	.text.mc_interface_lock,"ax",%progbits
 824              		.align	2
 825              		.p2align 4,,15
 826              		.global	mc_interface_lock
 827              		.thumb
 828              		.thumb_func
 829              		.type	mc_interface_lock, %function
 830              	mc_interface_lock:
 831              	.LFB261:
 832              		.loc 1 291 0
 833              		.cfi_startproc
 834              		@ args = 0, pretend = 0, frame = 0
 835              		@ frame_needed = 0, uses_anonymous_args = 0
 836              		@ link register save eliminated.
 837              		.loc 1 292 0
 838 0000 014B     		ldr	r3, .L58
 839 0002 0122     		movs	r2, #1
 840 0004 1A70     		strb	r2, [r3]
 841 0006 7047     		bx	lr
 842              	.L59:
 843              		.align	2
 844              	.L58:
 845 0008 00000000 		.word	.LANCHOR16
 846              		.cfi_endproc
 847              	.LFE261:
 848              		.size	mc_interface_lock, .-mc_interface_lock
 849              		.section	.text.mc_interface_unlock,"ax",%progbits
 850              		.align	2
 851              		.p2align 4,,15
 852              		.global	mc_interface_unlock
 853              		.thumb
 854              		.thumb_func
 855              		.type	mc_interface_unlock, %function
ARM GAS  /var/folders/sv/kgmgr77579zbf78p2zlhkdfr0000gn/T//ccOxe4My.s 			page 16


 856              	mc_interface_unlock:
 857              	.LFB262:
 858              		.loc 1 298 0
 859              		.cfi_startproc
 860              		@ args = 0, pretend = 0, frame = 0
 861              		@ frame_needed = 0, uses_anonymous_args = 0
 862              		@ link register save eliminated.
 863              		.loc 1 299 0
 864 0000 014B     		ldr	r3, .L61
 865 0002 0022     		movs	r2, #0
 866 0004 1A70     		strb	r2, [r3]
 867 0006 7047     		bx	lr
 868              	.L62:
 869              		.align	2
 870              	.L61:
 871 0008 00000000 		.word	.LANCHOR16
 872              		.cfi_endproc
 873              	.LFE262:
 874              		.size	mc_interface_unlock, .-mc_interface_unlock
 875              		.section	.text.mc_interface_lock_override_once,"ax",%progbits
 876              		.align	2
 877              		.p2align 4,,15
 878              		.global	mc_interface_lock_override_once
 879              		.thumb
 880              		.thumb_func
 881              		.type	mc_interface_lock_override_once, %function
 882              	mc_interface_lock_override_once:
 883              	.LFB263:
 884              		.loc 1 305 0
 885              		.cfi_startproc
 886              		@ args = 0, pretend = 0, frame = 0
 887              		@ frame_needed = 0, uses_anonymous_args = 0
 888              		@ link register save eliminated.
 889              		.loc 1 306 0
 890 0000 014B     		ldr	r3, .L64
 891 0002 0122     		movs	r2, #1
 892 0004 1A70     		strb	r2, [r3]
 893 0006 7047     		bx	lr
 894              	.L65:
 895              		.align	2
 896              	.L64:
 897 0008 00000000 		.word	.LANCHOR17
 898              		.cfi_endproc
 899              	.LFE263:
 900              		.size	mc_interface_lock_override_once, .-mc_interface_lock_override_once
 901              		.section	.text.mc_interface_get_fault,"ax",%progbits
 902              		.align	2
 903              		.p2align 4,,15
 904              		.global	mc_interface_get_fault
 905              		.thumb
 906              		.thumb_func
 907              		.type	mc_interface_get_fault, %function
 908              	mc_interface_get_fault:
 909              	.LFB264:
 910              		.loc 1 309 0
 911              		.cfi_startproc
 912              		@ args = 0, pretend = 0, frame = 0
ARM GAS  /var/folders/sv/kgmgr77579zbf78p2zlhkdfr0000gn/T//ccOxe4My.s 			page 17


 913              		@ frame_needed = 0, uses_anonymous_args = 0
 914              		@ link register save eliminated.
 915              		.loc 1 310 0
 916 0000 014B     		ldr	r3, .L67
 917              		.loc 1 311 0
 918 0002 1878     		ldrb	r0, [r3]	@ zero_extendqisi2
 919 0004 7047     		bx	lr
 920              	.L68:
 921 0006 00BF     		.align	2
 922              	.L67:
 923 0008 00000000 		.word	.LANCHOR13
 924              		.cfi_endproc
 925              	.LFE264:
 926              		.size	mc_interface_get_fault, .-mc_interface_get_fault
 927              		.section	.text.mc_interface_fault_to_string,"ax",%progbits
 928              		.align	2
 929              		.p2align 4,,15
 930              		.global	mc_interface_fault_to_string
 931              		.thumb
 932              		.thumb_func
 933              		.type	mc_interface_fault_to_string, %function
 934              	mc_interface_fault_to_string:
 935              	.LFB265:
 936              		.loc 1 313 0
 937              		.cfi_startproc
 938              		@ args = 0, pretend = 0, frame = 0
 939              		@ frame_needed = 0, uses_anonymous_args = 0
 940              		@ link register save eliminated.
 941              	.LVL46:
 942 0000 0628     		cmp	r0, #6
 943 0002 9ABF     		itte	ls
 944 0004 024B     		ldrls	r3, .L72
 945 0006 53F82000 		ldrls	r0, [r3, r0, lsl #2]
 946              	.LVL47:
 947              		.loc 1 313 0
 948 000a 0248     		ldrhi	r0, .L72+4
 949              		.loc 1 324 0
 950 000c 7047     		bx	lr
 951              	.L73:
 952 000e 00BF     		.align	2
 953              	.L72:
 954 0010 00000000 		.word	.LANCHOR40
 955 0014 10000000 		.word	.LC1
 956              		.cfi_endproc
 957              	.LFE265:
 958              		.size	mc_interface_fault_to_string, .-mc_interface_fault_to_string
 959              		.section	.text.mc_interface_get_state,"ax",%progbits
 960              		.align	2
 961              		.p2align 4,,15
 962              		.global	mc_interface_get_state
 963              		.thumb
 964              		.thumb_func
 965              		.type	mc_interface_get_state, %function
 966              	mc_interface_get_state:
 967              	.LFB266:
 968              		.loc 1 326 0
 969              		.cfi_startproc
ARM GAS  /var/folders/sv/kgmgr77579zbf78p2zlhkdfr0000gn/T//ccOxe4My.s 			page 18


 970              		@ args = 0, pretend = 0, frame = 0
 971              		@ frame_needed = 0, uses_anonymous_args = 0
 972              		@ link register save eliminated.
 973              	.LVL48:
 974              		.loc 1 328 0
 975 0000 064B     		ldr	r3, .L80
 976 0002 9B78     		ldrb	r3, [r3, #2]	@ zero_extendqisi2
 977 0004 032B     		cmp	r3, #3
 978 0006 07D8     		bhi	.L75
 979 0008 DFE803F0 		tbb	[pc, r3]
 980              	.L77:
 981 000c 02       		.byte	(.L78-.L77)/2
 982 000d 02       		.byte	(.L78-.L77)/2
 983 000e 02       		.byte	(.L78-.L77)/2
 984 000f 04       		.byte	(.L79-.L77)/2
 985              		.p2align 1
 986              	.L78:
 987              		.loc 1 334 0
 988 0010 FFF7FEBF 		b	mcpwm_get_state
 989              	.LVL49:
 990              	.L79:
 991              		.loc 1 337 0
 992 0014 FFF7FEBF 		b	mcpwm_foc_get_state
 993              	.LVL50:
 994              	.L75:
 995              		.loc 1 345 0
 996 0018 0020     		movs	r0, #0
 997 001a 7047     		bx	lr
 998              	.L81:
 999              		.align	2
 1000              	.L80:
 1001 001c 00000000 		.word	.LANCHOR12
 1002              		.cfi_endproc
 1003              	.LFE266:
 1004              		.size	mc_interface_get_state, .-mc_interface_get_state
 1005              		.section	.text.mc_interface_get_duty_cycle_set,"ax",%progbits
 1006              		.align	2
 1007              		.p2align 4,,15
 1008              		.global	mc_interface_get_duty_cycle_set
 1009              		.thumb
 1010              		.thumb_func
 1011              		.type	mc_interface_get_duty_cycle_set, %function
 1012              	mc_interface_get_duty_cycle_set:
 1013              	.LFB279:
 1014              		.loc 1 561 0
 1015              		.cfi_startproc
 1016              		@ args = 0, pretend = 0, frame = 0
 1017              		@ frame_needed = 0, uses_anonymous_args = 0
 1018              	.LVL51:
 1019 0000 10B5     		push	{r4, lr}
 1020              		.cfi_def_cfa_offset 8
 1021              		.cfi_offset 4, -8
 1022              		.cfi_offset 14, -4
 1023              		.loc 1 564 0
 1024 0002 104C     		ldr	r4, .L92
 1025 0004 A378     		ldrb	r3, [r4, #2]	@ zero_extendqisi2
 1026 0006 032B     		cmp	r3, #3
ARM GAS  /var/folders/sv/kgmgr77579zbf78p2zlhkdfr0000gn/T//ccOxe4My.s 			page 19


 1027 0008 18D8     		bhi	.L89
 1028 000a DFE803F0 		tbb	[pc, r3]
 1029              	.L85:
 1030 000e 14       		.byte	(.L84-.L85)/2
 1031 000f 11       		.byte	(.L86-.L85)/2
 1032 0010 14       		.byte	(.L84-.L85)/2
 1033 0011 02       		.byte	(.L87-.L85)/2
 1034              		.p2align 1
 1035              	.L87:
 1036              		.loc 1 573 0
 1037 0012 FFF7FEFF 		bl	mcpwm_foc_get_duty_cycle_set
 1038              	.LVL52:
 1039              	.L83:
 1040              		.loc 1 580 0
 1041 0016 94F85D31 		ldrb	r3, [r4, #349]	@ zero_extendqisi2
 1042 001a B7EE007A 		vmov.f32	s14, #1.0e+0
 1043 001e 002B     		cmp	r3, #0
 1044 0020 FFEE007A 		vmov.f32	s15, #-1.0e+0
 1045 0024 08BF     		it	eq
 1046 0026 F0EE477A 		vmoveq.f32	s15, s14
 1047              		.loc 1 581 0
 1048 002a 20EE270A 		vmul.f32	s0, s0, s15
 1049              	.LVL53:
 1050 002e 10BD     		pop	{r4, pc}
 1051              	.LVL54:
 1052              	.L86:
 1053              		.loc 1 570 0
 1054 0030 FFF7FEFF 		bl	mcpwm_atc_get_duty_cycle_set
 1055              	.LVL55:
 1056              		.loc 1 571 0
 1057 0034 EFE7     		b	.L83
 1058              	.LVL56:
 1059              	.L84:
 1060              		.loc 1 567 0
 1061 0036 FFF7FEFF 		bl	mcpwm_get_duty_cycle_set
 1062              	.LVL57:
 1063              		.loc 1 568 0
 1064 003a ECE7     		b	.L83
 1065              	.LVL58:
 1066              	.L89:
 1067              		.loc 1 562 0
 1068 003c 9FED020A 		vldr.32	s0, .L92+4
 1069 0040 E9E7     		b	.L83
 1070              	.L93:
 1071 0042 00BF     		.align	2
 1072              	.L92:
 1073 0044 00000000 		.word	.LANCHOR12
 1074 0048 00000000 		.word	0
 1075              		.cfi_endproc
 1076              	.LFE279:
 1077              		.size	mc_interface_get_duty_cycle_set, .-mc_interface_get_duty_cycle_set
 1078              		.section	.text.mc_interface_get_duty_cycle_now,"ax",%progbits
 1079              		.align	2
 1080              		.p2align 4,,15
 1081              		.global	mc_interface_get_duty_cycle_now
 1082              		.thumb
 1083              		.thumb_func
ARM GAS  /var/folders/sv/kgmgr77579zbf78p2zlhkdfr0000gn/T//ccOxe4My.s 			page 20


 1084              		.type	mc_interface_get_duty_cycle_now, %function
 1085              	mc_interface_get_duty_cycle_now:
 1086              	.LFB280:
 1087              		.loc 1 583 0
 1088              		.cfi_startproc
 1089              		@ args = 0, pretend = 0, frame = 0
 1090              		@ frame_needed = 0, uses_anonymous_args = 0
 1091              	.LVL59:
 1092 0000 10B5     		push	{r4, lr}
 1093              		.cfi_def_cfa_offset 8
 1094              		.cfi_offset 4, -8
 1095              		.cfi_offset 14, -4
 1096              		.loc 1 586 0
 1097 0002 104C     		ldr	r4, .L104
 1098 0004 A378     		ldrb	r3, [r4, #2]	@ zero_extendqisi2
 1099 0006 032B     		cmp	r3, #3
 1100 0008 18D8     		bhi	.L101
 1101 000a DFE803F0 		tbb	[pc, r3]
 1102              	.L97:
 1103 000e 14       		.byte	(.L96-.L97)/2
 1104 000f 11       		.byte	(.L98-.L97)/2
 1105 0010 14       		.byte	(.L96-.L97)/2
 1106 0011 02       		.byte	(.L99-.L97)/2
 1107              		.p2align 1
 1108              	.L99:
 1109              		.loc 1 595 0
 1110 0012 FFF7FEFF 		bl	mcpwm_foc_get_duty_cycle_now
 1111              	.LVL60:
 1112              	.L95:
 1113              		.loc 1 602 0
 1114 0016 94F85D31 		ldrb	r3, [r4, #349]	@ zero_extendqisi2
 1115 001a B7EE007A 		vmov.f32	s14, #1.0e+0
 1116 001e 002B     		cmp	r3, #0
 1117 0020 FFEE007A 		vmov.f32	s15, #-1.0e+0
 1118 0024 08BF     		it	eq
 1119 0026 F0EE477A 		vmoveq.f32	s15, s14
 1120              		.loc 1 603 0
 1121 002a 20EE270A 		vmul.f32	s0, s0, s15
 1122              	.LVL61:
 1123 002e 10BD     		pop	{r4, pc}
 1124              	.LVL62:
 1125              	.L98:
 1126              		.loc 1 592 0
 1127 0030 FFF7FEFF 		bl	mcpwm_atc_get_duty_cycle_now
 1128              	.LVL63:
 1129              		.loc 1 593 0
 1130 0034 EFE7     		b	.L95
 1131              	.LVL64:
 1132              	.L96:
 1133              		.loc 1 589 0
 1134 0036 FFF7FEFF 		bl	mcpwm_get_duty_cycle_now
 1135              	.LVL65:
 1136              		.loc 1 590 0
 1137 003a ECE7     		b	.L95
 1138              	.LVL66:
 1139              	.L101:
 1140              		.loc 1 584 0
ARM GAS  /var/folders/sv/kgmgr77579zbf78p2zlhkdfr0000gn/T//ccOxe4My.s 			page 21


 1141 003c 9FED020A 		vldr.32	s0, .L104+4
 1142 0040 E9E7     		b	.L95
 1143              	.L105:
 1144 0042 00BF     		.align	2
 1145              	.L104:
 1146 0044 00000000 		.word	.LANCHOR12
 1147 0048 00000000 		.word	0
 1148              		.cfi_endproc
 1149              	.LFE280:
 1150              		.size	mc_interface_get_duty_cycle_now, .-mc_interface_get_duty_cycle_now
 1151              		.section	.text.mc_interface_get_sampling_frequency_now,"ax",%progbits
 1152              		.align	2
 1153              		.p2align 4,,15
 1154              		.global	mc_interface_get_sampling_frequency_now
 1155              		.thumb
 1156              		.thumb_func
 1157              		.type	mc_interface_get_sampling_frequency_now, %function
 1158              	mc_interface_get_sampling_frequency_now:
 1159              	.LFB281:
 1160              		.loc 1 605 0
 1161              		.cfi_startproc
 1162              		@ args = 0, pretend = 0, frame = 0
 1163              		@ frame_needed = 0, uses_anonymous_args = 0
 1164              		@ link register save eliminated.
 1165              	.LVL67:
 1166              		.loc 1 608 0
 1167 0000 084B     		ldr	r3, .L112
 1168 0002 9B78     		ldrb	r3, [r3, #2]	@ zero_extendqisi2
 1169 0004 032B     		cmp	r3, #3
 1170 0006 09D8     		bhi	.L107
 1171 0008 DFE803F0 		tbb	[pc, r3]
 1172              	.L109:
 1173 000c 06       		.byte	(.L108-.L109)/2
 1174 000d 04       		.byte	(.L110-.L109)/2
 1175 000e 06       		.byte	(.L108-.L109)/2
 1176 000f 02       		.byte	(.L111-.L109)/2
 1177              		.p2align 1
 1178              	.L111:
 1179              		.loc 1 617 0
 1180 0010 FFF7FEBF 		b	mcpwm_foc_get_sampling_frequency_now
 1181              	.LVL68:
 1182              	.L110:
 1183              		.loc 1 614 0
 1184 0014 FFF7FEBF 		b	mcpwm_atc_get_sampling_frequency_now
 1185              	.LVL69:
 1186              	.L108:
 1187              		.loc 1 611 0
 1188 0018 FFF7FEBF 		b	mcpwm_get_switching_frequency_now
 1189              	.LVL70:
 1190              	.L107:
 1191              		.loc 1 625 0
 1192 001c 9FED020A 		vldr.32	s0, .L112+4
 1193 0020 7047     		bx	lr
 1194              	.L113:
 1195 0022 00BF     		.align	2
 1196              	.L112:
 1197 0024 00000000 		.word	.LANCHOR12
ARM GAS  /var/folders/sv/kgmgr77579zbf78p2zlhkdfr0000gn/T//ccOxe4My.s 			page 22


 1198 0028 00000000 		.word	0
 1199              		.cfi_endproc
 1200              	.LFE281:
 1201              		.size	mc_interface_get_sampling_frequency_now, .-mc_interface_get_sampling_frequency_now
 1202              		.section	.text.mc_interface_get_rpm,"ax",%progbits
 1203              		.align	2
 1204              		.p2align 4,,15
 1205              		.global	mc_interface_get_rpm
 1206              		.thumb
 1207              		.thumb_func
 1208              		.type	mc_interface_get_rpm, %function
 1209              	mc_interface_get_rpm:
 1210              	.LFB282:
 1211              		.loc 1 627 0
 1212              		.cfi_startproc
 1213              		@ args = 0, pretend = 0, frame = 0
 1214              		@ frame_needed = 0, uses_anonymous_args = 0
 1215              	.LVL71:
 1216 0000 10B5     		push	{r4, lr}
 1217              		.cfi_def_cfa_offset 8
 1218              		.cfi_offset 4, -8
 1219              		.cfi_offset 14, -4
 1220              		.loc 1 630 0
 1221 0002 104C     		ldr	r4, .L124
 1222 0004 A378     		ldrb	r3, [r4, #2]	@ zero_extendqisi2
 1223 0006 032B     		cmp	r3, #3
 1224 0008 18D8     		bhi	.L121
 1225 000a DFE803F0 		tbb	[pc, r3]
 1226              	.L117:
 1227 000e 14       		.byte	(.L116-.L117)/2
 1228 000f 11       		.byte	(.L118-.L117)/2
 1229 0010 14       		.byte	(.L116-.L117)/2
 1230 0011 02       		.byte	(.L119-.L117)/2
 1231              		.p2align 1
 1232              	.L119:
 1233              		.loc 1 639 0
 1234 0012 FFF7FEFF 		bl	mcpwm_foc_get_rpm
 1235              	.LVL72:
 1236              	.L115:
 1237              		.loc 1 646 0
 1238 0016 94F85D31 		ldrb	r3, [r4, #349]	@ zero_extendqisi2
 1239 001a B7EE007A 		vmov.f32	s14, #1.0e+0
 1240 001e 002B     		cmp	r3, #0
 1241 0020 FFEE007A 		vmov.f32	s15, #-1.0e+0
 1242 0024 08BF     		it	eq
 1243 0026 F0EE477A 		vmoveq.f32	s15, s14
 1244              		.loc 1 647 0
 1245 002a 20EE270A 		vmul.f32	s0, s0, s15
 1246              	.LVL73:
 1247 002e 10BD     		pop	{r4, pc}
 1248              	.LVL74:
 1249              	.L118:
 1250              		.loc 1 636 0
 1251 0030 FFF7FEFF 		bl	mcpwm_atc_get_rpm
 1252              	.LVL75:
 1253              		.loc 1 637 0
 1254 0034 EFE7     		b	.L115
ARM GAS  /var/folders/sv/kgmgr77579zbf78p2zlhkdfr0000gn/T//ccOxe4My.s 			page 23


 1255              	.LVL76:
 1256              	.L116:
 1257              		.loc 1 633 0
 1258 0036 FFF7FEFF 		bl	mcpwm_get_rpm
 1259              	.LVL77:
 1260              		.loc 1 634 0
 1261 003a ECE7     		b	.L115
 1262              	.LVL78:
 1263              	.L121:
 1264              		.loc 1 628 0
 1265 003c 9FED020A 		vldr.32	s0, .L124+4
 1266 0040 E9E7     		b	.L115
 1267              	.L125:
 1268 0042 00BF     		.align	2
 1269              	.L124:
 1270 0044 00000000 		.word	.LANCHOR12
 1271 0048 00000000 		.word	0
 1272              		.cfi_endproc
 1273              	.LFE282:
 1274              		.size	mc_interface_get_rpm, .-mc_interface_get_rpm
 1275              		.section	.text.mc_interface_get_amp_hours,"ax",%progbits
 1276              		.align	2
 1277              		.p2align 4,,15
 1278              		.global	mc_interface_get_amp_hours
 1279              		.thumb
 1280              		.thumb_func
 1281              		.type	mc_interface_get_amp_hours, %function
 1282              	mc_interface_get_amp_hours:
 1283              	.LFB283:
 1284              		.loc 1 658 0
 1285              		.cfi_startproc
 1286              		@ args = 0, pretend = 0, frame = 0
 1287              		@ frame_needed = 0, uses_anonymous_args = 0
 1288              		@ link register save eliminated.
 1289              	.LVL79:
 1290              		.loc 1 659 0
 1291 0000 054B     		ldr	r3, .L131
 1292 0002 DFED067A 		vldr.32	s15, .L131+4
 1293 0006 93ED007A 		vldr.32	s14, [r3]
 1294 000a 87EE270A 		vdiv.f32	s0, s14, s15
 1295              	.LVL80:
 1296              		.loc 1 661 0
 1297 000e 08B1     		cbz	r0, .L127
 1298              		.loc 1 662 0
 1299 0010 0022     		movs	r2, #0
 1300 0012 1A60     		str	r2, [r3]	@ float
 1301              	.L127:
 1302              		.loc 1 666 0
 1303 0014 7047     		bx	lr
 1304              	.L132:
 1305 0016 00BF     		.align	2
 1306              	.L131:
 1307 0018 00000000 		.word	.LANCHOR26
 1308 001c 00006145 		.word	1163984896
 1309              		.cfi_endproc
 1310              	.LFE283:
 1311              		.size	mc_interface_get_amp_hours, .-mc_interface_get_amp_hours
ARM GAS  /var/folders/sv/kgmgr77579zbf78p2zlhkdfr0000gn/T//ccOxe4My.s 			page 24


 1312              		.section	.text.mc_interface_get_amp_hours_charged,"ax",%progbits
 1313              		.align	2
 1314              		.p2align 4,,15
 1315              		.global	mc_interface_get_amp_hours_charged
 1316              		.thumb
 1317              		.thumb_func
 1318              		.type	mc_interface_get_amp_hours_charged, %function
 1319              	mc_interface_get_amp_hours_charged:
 1320              	.LFB284:
 1321              		.loc 1 677 0
 1322              		.cfi_startproc
 1323              		@ args = 0, pretend = 0, frame = 0
 1324              		@ frame_needed = 0, uses_anonymous_args = 0
 1325              		@ link register save eliminated.
 1326              	.LVL81:
 1327              		.loc 1 678 0
 1328 0000 054B     		ldr	r3, .L138
 1329 0002 DFED067A 		vldr.32	s15, .L138+4
 1330 0006 93ED007A 		vldr.32	s14, [r3]
 1331 000a 87EE270A 		vdiv.f32	s0, s14, s15
 1332              	.LVL82:
 1333              		.loc 1 680 0
 1334 000e 08B1     		cbz	r0, .L134
 1335              		.loc 1 681 0
 1336 0010 0022     		movs	r2, #0
 1337 0012 1A60     		str	r2, [r3]	@ float
 1338              	.L134:
 1339              		.loc 1 685 0
 1340 0014 7047     		bx	lr
 1341              	.L139:
 1342 0016 00BF     		.align	2
 1343              	.L138:
 1344 0018 00000000 		.word	.LANCHOR27
 1345 001c 00006145 		.word	1163984896
 1346              		.cfi_endproc
 1347              	.LFE284:
 1348              		.size	mc_interface_get_amp_hours_charged, .-mc_interface_get_amp_hours_charged
 1349              		.section	.text.mc_interface_get_watt_hours,"ax",%progbits
 1350              		.align	2
 1351              		.p2align 4,,15
 1352              		.global	mc_interface_get_watt_hours
 1353              		.thumb
 1354              		.thumb_func
 1355              		.type	mc_interface_get_watt_hours, %function
 1356              	mc_interface_get_watt_hours:
 1357              	.LFB285:
 1358              		.loc 1 696 0
 1359              		.cfi_startproc
 1360              		@ args = 0, pretend = 0, frame = 0
 1361              		@ frame_needed = 0, uses_anonymous_args = 0
 1362              		@ link register save eliminated.
 1363              	.LVL83:
 1364              		.loc 1 697 0
 1365 0000 054B     		ldr	r3, .L145
 1366 0002 DFED067A 		vldr.32	s15, .L145+4
 1367 0006 93ED007A 		vldr.32	s14, [r3]
 1368 000a 87EE270A 		vdiv.f32	s0, s14, s15
ARM GAS  /var/folders/sv/kgmgr77579zbf78p2zlhkdfr0000gn/T//ccOxe4My.s 			page 25


 1369              	.LVL84:
 1370              		.loc 1 699 0
 1371 000e 08B1     		cbz	r0, .L141
 1372              		.loc 1 700 0
 1373 0010 0022     		movs	r2, #0
 1374 0012 1A60     		str	r2, [r3]	@ float
 1375              	.L141:
 1376              		.loc 1 704 0
 1377 0014 7047     		bx	lr
 1378              	.L146:
 1379 0016 00BF     		.align	2
 1380              	.L145:
 1381 0018 00000000 		.word	.LANCHOR28
 1382 001c 00006145 		.word	1163984896
 1383              		.cfi_endproc
 1384              	.LFE285:
 1385              		.size	mc_interface_get_watt_hours, .-mc_interface_get_watt_hours
 1386              		.section	.text.mc_interface_get_watt_hours_charged,"ax",%progbits
 1387              		.align	2
 1388              		.p2align 4,,15
 1389              		.global	mc_interface_get_watt_hours_charged
 1390              		.thumb
 1391              		.thumb_func
 1392              		.type	mc_interface_get_watt_hours_charged, %function
 1393              	mc_interface_get_watt_hours_charged:
 1394              	.LFB286:
 1395              		.loc 1 715 0
 1396              		.cfi_startproc
 1397              		@ args = 0, pretend = 0, frame = 0
 1398              		@ frame_needed = 0, uses_anonymous_args = 0
 1399              		@ link register save eliminated.
 1400              	.LVL85:
 1401              		.loc 1 716 0
 1402 0000 054B     		ldr	r3, .L152
 1403 0002 DFED067A 		vldr.32	s15, .L152+4
 1404 0006 93ED007A 		vldr.32	s14, [r3]
 1405 000a 87EE270A 		vdiv.f32	s0, s14, s15
 1406              	.LVL86:
 1407              		.loc 1 718 0
 1408 000e 08B1     		cbz	r0, .L148
 1409              		.loc 1 719 0
 1410 0010 0022     		movs	r2, #0
 1411 0012 1A60     		str	r2, [r3]	@ float
 1412              	.L148:
 1413              		.loc 1 723 0
 1414 0014 7047     		bx	lr
 1415              	.L153:
 1416 0016 00BF     		.align	2
 1417              	.L152:
 1418 0018 00000000 		.word	.LANCHOR29
 1419 001c 00006145 		.word	1163984896
 1420              		.cfi_endproc
 1421              	.LFE286:
 1422              		.size	mc_interface_get_watt_hours_charged, .-mc_interface_get_watt_hours_charged
 1423              		.section	.text.mc_interface_get_tot_current,"ax",%progbits
 1424              		.align	2
 1425              		.p2align 4,,15
ARM GAS  /var/folders/sv/kgmgr77579zbf78p2zlhkdfr0000gn/T//ccOxe4My.s 			page 26


 1426              		.global	mc_interface_get_tot_current
 1427              		.thumb
 1428              		.thumb_func
 1429              		.type	mc_interface_get_tot_current, %function
 1430              	mc_interface_get_tot_current:
 1431              	.LFB287:
 1432              		.loc 1 725 0
 1433              		.cfi_startproc
 1434              		@ args = 0, pretend = 0, frame = 0
 1435              		@ frame_needed = 0, uses_anonymous_args = 0
 1436              		@ link register save eliminated.
 1437              	.LVL87:
 1438              		.loc 1 728 0
 1439 0000 084B     		ldr	r3, .L160
 1440 0002 9B78     		ldrb	r3, [r3, #2]	@ zero_extendqisi2
 1441 0004 032B     		cmp	r3, #3
 1442 0006 09D8     		bhi	.L155
 1443 0008 DFE803F0 		tbb	[pc, r3]
 1444              	.L157:
 1445 000c 06       		.byte	(.L156-.L157)/2
 1446 000d 04       		.byte	(.L158-.L157)/2
 1447 000e 06       		.byte	(.L156-.L157)/2
 1448 000f 02       		.byte	(.L159-.L157)/2
 1449              		.p2align 1
 1450              	.L159:
 1451              		.loc 1 737 0
 1452 0010 FFF7FEBF 		b	mcpwm_foc_get_tot_current
 1453              	.LVL88:
 1454              	.L158:
 1455              		.loc 1 734 0
 1456 0014 FFF7FEBF 		b	mcpwm_atc_get_tot_current
 1457              	.LVL89:
 1458              	.L156:
 1459              		.loc 1 731 0
 1460 0018 FFF7FEBF 		b	mcpwm_get_tot_current
 1461              	.LVL90:
 1462              	.L155:
 1463              		.loc 1 745 0
 1464 001c 9FED020A 		vldr.32	s0, .L160+4
 1465 0020 7047     		bx	lr
 1466              	.L161:
 1467 0022 00BF     		.align	2
 1468              	.L160:
 1469 0024 00000000 		.word	.LANCHOR12
 1470 0028 00000000 		.word	0
 1471              		.cfi_endproc
 1472              	.LFE287:
 1473              		.size	mc_interface_get_tot_current, .-mc_interface_get_tot_current
 1474              		.section	.text.mc_interface_get_tot_current_filtered,"ax",%progbits
 1475              		.align	2
 1476              		.p2align 4,,15
 1477              		.global	mc_interface_get_tot_current_filtered
 1478              		.thumb
 1479              		.thumb_func
 1480              		.type	mc_interface_get_tot_current_filtered, %function
 1481              	mc_interface_get_tot_current_filtered:
 1482              	.LFB288:
ARM GAS  /var/folders/sv/kgmgr77579zbf78p2zlhkdfr0000gn/T//ccOxe4My.s 			page 27


 1483              		.loc 1 747 0
 1484              		.cfi_startproc
 1485              		@ args = 0, pretend = 0, frame = 0
 1486              		@ frame_needed = 0, uses_anonymous_args = 0
 1487              		@ link register save eliminated.
 1488              	.LVL91:
 1489              		.loc 1 750 0
 1490 0000 084B     		ldr	r3, .L168
 1491 0002 9B78     		ldrb	r3, [r3, #2]	@ zero_extendqisi2
 1492 0004 032B     		cmp	r3, #3
 1493 0006 09D8     		bhi	.L163
 1494 0008 DFE803F0 		tbb	[pc, r3]
 1495              	.L165:
 1496 000c 06       		.byte	(.L164-.L165)/2
 1497 000d 04       		.byte	(.L166-.L165)/2
 1498 000e 06       		.byte	(.L164-.L165)/2
 1499 000f 02       		.byte	(.L167-.L165)/2
 1500              		.p2align 1
 1501              	.L167:
 1502              		.loc 1 759 0
 1503 0010 FFF7FEBF 		b	mcpwm_foc_get_tot_current_filtered
 1504              	.LVL92:
 1505              	.L166:
 1506              		.loc 1 756 0
 1507 0014 FFF7FEBF 		b	mcpwm_atc_get_tot_current_filtered
 1508              	.LVL93:
 1509              	.L164:
 1510              		.loc 1 753 0
 1511 0018 FFF7FEBF 		b	mcpwm_get_tot_current_filtered
 1512              	.LVL94:
 1513              	.L163:
 1514              		.loc 1 767 0
 1515 001c 9FED020A 		vldr.32	s0, .L168+4
 1516 0020 7047     		bx	lr
 1517              	.L169:
 1518 0022 00BF     		.align	2
 1519              	.L168:
 1520 0024 00000000 		.word	.LANCHOR12
 1521 0028 00000000 		.word	0
 1522              		.cfi_endproc
 1523              	.LFE288:
 1524              		.size	mc_interface_get_tot_current_filtered, .-mc_interface_get_tot_current_filtered
 1525              		.section	.text.mc_interface_get_tot_current_directional,"ax",%progbits
 1526              		.align	2
 1527              		.p2align 4,,15
 1528              		.global	mc_interface_get_tot_current_directional
 1529              		.thumb
 1530              		.thumb_func
 1531              		.type	mc_interface_get_tot_current_directional, %function
 1532              	mc_interface_get_tot_current_directional:
 1533              	.LFB289:
 1534              		.loc 1 769 0
 1535              		.cfi_startproc
 1536              		@ args = 0, pretend = 0, frame = 0
 1537              		@ frame_needed = 0, uses_anonymous_args = 0
 1538              	.LVL95:
 1539 0000 10B5     		push	{r4, lr}
ARM GAS  /var/folders/sv/kgmgr77579zbf78p2zlhkdfr0000gn/T//ccOxe4My.s 			page 28


 1540              		.cfi_def_cfa_offset 8
 1541              		.cfi_offset 4, -8
 1542              		.cfi_offset 14, -4
 1543              		.loc 1 772 0
 1544 0002 104C     		ldr	r4, .L180
 1545 0004 A378     		ldrb	r3, [r4, #2]	@ zero_extendqisi2
 1546 0006 032B     		cmp	r3, #3
 1547 0008 18D8     		bhi	.L177
 1548 000a DFE803F0 		tbb	[pc, r3]
 1549              	.L173:
 1550 000e 14       		.byte	(.L172-.L173)/2
 1551 000f 11       		.byte	(.L174-.L173)/2
 1552 0010 14       		.byte	(.L172-.L173)/2
 1553 0011 02       		.byte	(.L175-.L173)/2
 1554              		.p2align 1
 1555              	.L175:
 1556              		.loc 1 781 0
 1557 0012 FFF7FEFF 		bl	mcpwm_foc_get_tot_current_directional
 1558              	.LVL96:
 1559              	.L171:
 1560              		.loc 1 788 0
 1561 0016 94F85D31 		ldrb	r3, [r4, #349]	@ zero_extendqisi2
 1562 001a B7EE007A 		vmov.f32	s14, #1.0e+0
 1563 001e 002B     		cmp	r3, #0
 1564 0020 FFEE007A 		vmov.f32	s15, #-1.0e+0
 1565 0024 08BF     		it	eq
 1566 0026 F0EE477A 		vmoveq.f32	s15, s14
 1567              		.loc 1 789 0
 1568 002a 20EE270A 		vmul.f32	s0, s0, s15
 1569              	.LVL97:
 1570 002e 10BD     		pop	{r4, pc}
 1571              	.LVL98:
 1572              	.L174:
 1573              		.loc 1 778 0
 1574 0030 FFF7FEFF 		bl	mcpwm_atc_get_tot_current_directional
 1575              	.LVL99:
 1576              		.loc 1 779 0
 1577 0034 EFE7     		b	.L171
 1578              	.LVL100:
 1579              	.L172:
 1580              		.loc 1 775 0
 1581 0036 FFF7FEFF 		bl	mcpwm_get_tot_current_directional
 1582              	.LVL101:
 1583              		.loc 1 776 0
 1584 003a ECE7     		b	.L171
 1585              	.LVL102:
 1586              	.L177:
 1587              		.loc 1 770 0
 1588 003c 9FED020A 		vldr.32	s0, .L180+4
 1589 0040 E9E7     		b	.L171
 1590              	.L181:
 1591 0042 00BF     		.align	2
 1592              	.L180:
 1593 0044 00000000 		.word	.LANCHOR12
 1594 0048 00000000 		.word	0
 1595              		.cfi_endproc
 1596              	.LFE289:
ARM GAS  /var/folders/sv/kgmgr77579zbf78p2zlhkdfr0000gn/T//ccOxe4My.s 			page 29


 1597              		.size	mc_interface_get_tot_current_directional, .-mc_interface_get_tot_current_directional
 1598              		.section	.text.mc_interface_get_tot_current_directional_filtered,"ax",%progbits
 1599              		.align	2
 1600              		.p2align 4,,15
 1601              		.global	mc_interface_get_tot_current_directional_filtered
 1602              		.thumb
 1603              		.thumb_func
 1604              		.type	mc_interface_get_tot_current_directional_filtered, %function
 1605              	mc_interface_get_tot_current_directional_filtered:
 1606              	.LFB290:
 1607              		.loc 1 791 0
 1608              		.cfi_startproc
 1609              		@ args = 0, pretend = 0, frame = 0
 1610              		@ frame_needed = 0, uses_anonymous_args = 0
 1611              	.LVL103:
 1612 0000 10B5     		push	{r4, lr}
 1613              		.cfi_def_cfa_offset 8
 1614              		.cfi_offset 4, -8
 1615              		.cfi_offset 14, -4
 1616              		.loc 1 794 0
 1617 0002 104C     		ldr	r4, .L192
 1618 0004 A378     		ldrb	r3, [r4, #2]	@ zero_extendqisi2
 1619 0006 032B     		cmp	r3, #3
 1620 0008 18D8     		bhi	.L189
 1621 000a DFE803F0 		tbb	[pc, r3]
 1622              	.L185:
 1623 000e 14       		.byte	(.L184-.L185)/2
 1624 000f 11       		.byte	(.L186-.L185)/2
 1625 0010 14       		.byte	(.L184-.L185)/2
 1626 0011 02       		.byte	(.L187-.L185)/2
 1627              		.p2align 1
 1628              	.L187:
 1629              		.loc 1 803 0
 1630 0012 FFF7FEFF 		bl	mcpwm_foc_get_tot_current_directional_filtered
 1631              	.LVL104:
 1632              	.L183:
 1633              		.loc 1 810 0
 1634 0016 94F85D31 		ldrb	r3, [r4, #349]	@ zero_extendqisi2
 1635 001a B7EE007A 		vmov.f32	s14, #1.0e+0
 1636 001e 002B     		cmp	r3, #0
 1637 0020 FFEE007A 		vmov.f32	s15, #-1.0e+0
 1638 0024 08BF     		it	eq
 1639 0026 F0EE477A 		vmoveq.f32	s15, s14
 1640              		.loc 1 811 0
 1641 002a 20EE270A 		vmul.f32	s0, s0, s15
 1642              	.LVL105:
 1643 002e 10BD     		pop	{r4, pc}
 1644              	.LVL106:
 1645              	.L186:
 1646              		.loc 1 800 0
 1647 0030 FFF7FEFF 		bl	mcpwm_atc_get_tot_current_directional_filtered
 1648              	.LVL107:
 1649              		.loc 1 801 0
 1650 0034 EFE7     		b	.L183
 1651              	.LVL108:
 1652              	.L184:
 1653              		.loc 1 797 0
ARM GAS  /var/folders/sv/kgmgr77579zbf78p2zlhkdfr0000gn/T//ccOxe4My.s 			page 30


 1654 0036 FFF7FEFF 		bl	mcpwm_get_tot_current_directional_filtered
 1655              	.LVL109:
 1656              		.loc 1 798 0
 1657 003a ECE7     		b	.L183
 1658              	.LVL110:
 1659              	.L189:
 1660              		.loc 1 792 0
 1661 003c 9FED020A 		vldr.32	s0, .L192+4
 1662 0040 E9E7     		b	.L183
 1663              	.L193:
 1664 0042 00BF     		.align	2
 1665              	.L192:
 1666 0044 00000000 		.word	.LANCHOR12
 1667 0048 00000000 		.word	0
 1668              		.cfi_endproc
 1669              	.LFE290:
 1670              		.size	mc_interface_get_tot_current_directional_filtered, .-mc_interface_get_tot_current_directiona
 1671              		.section	.text.mc_interface_get_tot_current_in,"ax",%progbits
 1672              		.align	2
 1673              		.p2align 4,,15
 1674              		.global	mc_interface_get_tot_current_in
 1675              		.thumb
 1676              		.thumb_func
 1677              		.type	mc_interface_get_tot_current_in, %function
 1678              	mc_interface_get_tot_current_in:
 1679              	.LFB291:
 1680              		.loc 1 813 0
 1681              		.cfi_startproc
 1682              		@ args = 0, pretend = 0, frame = 0
 1683              		@ frame_needed = 0, uses_anonymous_args = 0
 1684              		@ link register save eliminated.
 1685              	.LVL111:
 1686              		.loc 1 816 0
 1687 0000 084B     		ldr	r3, .L200
 1688 0002 9B78     		ldrb	r3, [r3, #2]	@ zero_extendqisi2
 1689 0004 032B     		cmp	r3, #3
 1690 0006 09D8     		bhi	.L195
 1691 0008 DFE803F0 		tbb	[pc, r3]
 1692              	.L197:
 1693 000c 06       		.byte	(.L196-.L197)/2
 1694 000d 04       		.byte	(.L198-.L197)/2
 1695 000e 06       		.byte	(.L196-.L197)/2
 1696 000f 02       		.byte	(.L199-.L197)/2
 1697              		.p2align 1
 1698              	.L199:
 1699              		.loc 1 825 0
 1700 0010 FFF7FEBF 		b	mcpwm_foc_get_tot_current_in
 1701              	.LVL112:
 1702              	.L198:
 1703              		.loc 1 822 0
 1704 0014 FFF7FEBF 		b	mcpwm_atc_get_tot_current_in
 1705              	.LVL113:
 1706              	.L196:
 1707              		.loc 1 819 0
 1708 0018 FFF7FEBF 		b	mcpwm_get_tot_current_in
 1709              	.LVL114:
 1710              	.L195:
ARM GAS  /var/folders/sv/kgmgr77579zbf78p2zlhkdfr0000gn/T//ccOxe4My.s 			page 31


 1711              		.loc 1 833 0
 1712 001c 9FED020A 		vldr.32	s0, .L200+4
 1713 0020 7047     		bx	lr
 1714              	.L201:
 1715 0022 00BF     		.align	2
 1716              	.L200:
 1717 0024 00000000 		.word	.LANCHOR12
 1718 0028 00000000 		.word	0
 1719              		.cfi_endproc
 1720              	.LFE291:
 1721              		.size	mc_interface_get_tot_current_in, .-mc_interface_get_tot_current_in
 1722              		.section	.text.mc_interface_get_tot_current_in_filtered,"ax",%progbits
 1723              		.align	2
 1724              		.p2align 4,,15
 1725              		.global	mc_interface_get_tot_current_in_filtered
 1726              		.thumb
 1727              		.thumb_func
 1728              		.type	mc_interface_get_tot_current_in_filtered, %function
 1729              	mc_interface_get_tot_current_in_filtered:
 1730              	.LFB292:
 1731              		.loc 1 835 0
 1732              		.cfi_startproc
 1733              		@ args = 0, pretend = 0, frame = 0
 1734              		@ frame_needed = 0, uses_anonymous_args = 0
 1735              		@ link register save eliminated.
 1736              	.LVL115:
 1737              		.loc 1 838 0
 1738 0000 084B     		ldr	r3, .L208
 1739 0002 9B78     		ldrb	r3, [r3, #2]	@ zero_extendqisi2
 1740 0004 032B     		cmp	r3, #3
 1741 0006 09D8     		bhi	.L203
 1742 0008 DFE803F0 		tbb	[pc, r3]
 1743              	.L205:
 1744 000c 06       		.byte	(.L204-.L205)/2
 1745 000d 04       		.byte	(.L206-.L205)/2
 1746 000e 06       		.byte	(.L204-.L205)/2
 1747 000f 02       		.byte	(.L207-.L205)/2
 1748              		.p2align 1
 1749              	.L207:
 1750              		.loc 1 847 0
 1751 0010 FFF7FEBF 		b	mcpwm_foc_get_tot_current_in_filtered
 1752              	.LVL116:
 1753              	.L206:
 1754              		.loc 1 844 0
 1755 0014 FFF7FEBF 		b	mcpwm_atc_get_tot_current_in_filtered
 1756              	.LVL117:
 1757              	.L204:
 1758              		.loc 1 841 0
 1759 0018 FFF7FEBF 		b	mcpwm_get_tot_current_in_filtered
 1760              	.LVL118:
 1761              	.L203:
 1762              		.loc 1 855 0
 1763 001c 9FED020A 		vldr.32	s0, .L208+4
 1764 0020 7047     		bx	lr
 1765              	.L209:
 1766 0022 00BF     		.align	2
 1767              	.L208:
ARM GAS  /var/folders/sv/kgmgr77579zbf78p2zlhkdfr0000gn/T//ccOxe4My.s 			page 32


 1768 0024 00000000 		.word	.LANCHOR12
 1769 0028 00000000 		.word	0
 1770              		.cfi_endproc
 1771              	.LFE292:
 1772              		.size	mc_interface_get_tot_current_in_filtered, .-mc_interface_get_tot_current_in_filtered
 1773              		.section	.text.mc_interface_get_tachometer_value,"ax",%progbits
 1774              		.align	2
 1775              		.p2align 4,,15
 1776              		.global	mc_interface_get_tachometer_value
 1777              		.thumb
 1778              		.thumb_func
 1779              		.type	mc_interface_get_tachometer_value, %function
 1780              	mc_interface_get_tachometer_value:
 1781              	.LFB293:
 1782              		.loc 1 857 0
 1783              		.cfi_startproc
 1784              		@ args = 0, pretend = 0, frame = 0
 1785              		@ frame_needed = 0, uses_anonymous_args = 0
 1786              	.LVL119:
 1787 0000 10B5     		push	{r4, lr}
 1788              		.cfi_def_cfa_offset 8
 1789              		.cfi_offset 4, -8
 1790              		.cfi_offset 14, -4
 1791              		.loc 1 860 0
 1792 0002 184C     		ldr	r4, .L220
 1793 0004 A378     		ldrb	r3, [r4, #2]	@ zero_extendqisi2
 1794 0006 032B     		cmp	r3, #3
 1795 0008 28D8     		bhi	.L217
 1796 000a DFE803F0 		tbb	[pc, r3]
 1797              	.L213:
 1798 000e 20       		.byte	(.L212-.L213)/2
 1799 000f 19       		.byte	(.L214-.L213)/2
 1800 0010 20       		.byte	(.L212-.L213)/2
 1801 0011 02       		.byte	(.L215-.L213)/2
 1802              		.p2align 1
 1803              	.L215:
 1804              		.loc 1 869 0
 1805 0012 FFF7FEFF 		bl	mcpwm_foc_get_tachometer_value
 1806              	.LVL120:
 1807 0016 07EE900A 		vmov	s15, r0	@ int
 1808 001a F8EEE76A 		vcvt.f32.s32	s13, s15
 1809              	.LVL121:
 1810              	.L211:
 1811              		.loc 1 876 0
 1812 001e 94F85D31 		ldrb	r3, [r4, #349]	@ zero_extendqisi2
 1813 0022 B7EE007A 		vmov.f32	s14, #1.0e+0
 1814 0026 002B     		cmp	r3, #0
 1815 0028 FFEE007A 		vmov.f32	s15, #-1.0e+0
 1816 002c 08BF     		it	eq
 1817 002e F0EE477A 		vmoveq.f32	s15, s14
 1818 0032 67EEA67A 		vmul.f32	s15, s15, s13
 1819              		.loc 1 877 0
 1820 0036 FDEEE77A 		vcvt.s32.f32	s15, s15
 1821 003a 17EE900A 		vmov	r0, s15	@ int
 1822 003e 10BD     		pop	{r4, pc}
 1823              	.LVL122:
 1824              	.L214:
ARM GAS  /var/folders/sv/kgmgr77579zbf78p2zlhkdfr0000gn/T//ccOxe4My.s 			page 33


 1825              		.loc 1 866 0
 1826 0040 FFF7FEFF 		bl	mcpwm_atc_get_tachometer_value
 1827              	.LVL123:
 1828 0044 07EE900A 		vmov	s15, r0	@ int
 1829 0048 F8EEE76A 		vcvt.f32.s32	s13, s15
 1830              		.loc 1 867 0
 1831 004c E7E7     		b	.L211
 1832              	.LVL124:
 1833              	.L212:
 1834              		.loc 1 863 0
 1835 004e FFF7FEFF 		bl	mcpwm_get_tachometer_value
 1836              	.LVL125:
 1837 0052 07EE900A 		vmov	s15, r0	@ int
 1838 0056 F8EEE76A 		vcvt.f32.s32	s13, s15
 1839              		.loc 1 864 0
 1840 005a E0E7     		b	.L211
 1841              	.LVL126:
 1842              	.L217:
 1843              		.loc 1 860 0
 1844 005c DFED026A 		vldr.32	s13, .L220+4
 1845 0060 DDE7     		b	.L211
 1846              	.L221:
 1847 0062 00BF     		.align	2
 1848              	.L220:
 1849 0064 00000000 		.word	.LANCHOR12
 1850 0068 00000000 		.word	0
 1851              		.cfi_endproc
 1852              	.LFE293:
 1853              		.size	mc_interface_get_tachometer_value, .-mc_interface_get_tachometer_value
 1854              		.section	.text.mc_interface_fault_stop.part.4,"ax",%progbits
 1855              		.align	2
 1856              		.p2align 4,,15
 1857              		.thumb
 1858              		.thumb_func
 1859              		.type	mc_interface_fault_stop.part.4, %function
 1860              	mc_interface_fault_stop.part.4:
 1861              	.LFB317:
 1862              		.loc 1 1086 0
 1863              		.cfi_startproc
 1864              		@ args = 0, pretend = 0, frame = 72
 1865              		@ frame_needed = 0, uses_anonymous_args = 0
 1866              	.LVL127:
 1867 0000 F0B5     		push	{r4, r5, r6, r7, lr}
 1868              		.cfi_def_cfa_offset 20
 1869              		.cfi_offset 4, -20
 1870              		.cfi_offset 5, -16
 1871              		.cfi_offset 6, -12
 1872              		.cfi_offset 7, -8
 1873              		.cfi_offset 14, -4
 1874 0002 93B0     		sub	sp, sp, #76
 1875              		.cfi_def_cfa_offset 96
 1876              		.loc 1 1086 0
 1877 0004 0546     		mov	r5, r0
 1878              		.loc 1 1092 0
 1879 0006 FFF7FEFF 		bl	mc_interface_dccal_done
 1880              	.LVL128:
 1881 000a 434C     		ldr	r4, .L234
ARM GAS  /var/folders/sv/kgmgr77579zbf78p2zlhkdfr0000gn/T//ccOxe4My.s 			page 34


 1882 000c 08B1     		cbz	r0, .L223
 1883 000e 2678     		ldrb	r6, [r4]	@ zero_extendqisi2
 1884 0010 D6B1     		cbz	r6, .L233
 1885              	.L223:
 1886              		.loc 1 1123 0
 1887 0012 424B     		ldr	r3, .L234+4
 1888 0014 424A     		ldr	r2, .L234+8
 1889 0016 D3F84C11 		ldr	r1, [r3, #332]
 1890              		.loc 1 1125 0
 1891 001a 9B78     		ldrb	r3, [r3, #2]	@ zero_extendqisi2
 1892              		.loc 1 1123 0
 1893 001c 1160     		str	r1, [r2]
 1894              		.loc 1 1125 0
 1895 001e 032B     		cmp	r3, #3
 1896 0020 05D8     		bhi	.L224
 1897 0022 DFE803F0 		tbb	[pc, r3]
 1898              	.L226:
 1899 0026 0C       		.byte	(.L225-.L226)/2
 1900 0027 07       		.byte	(.L227-.L226)/2
 1901 0028 0C       		.byte	(.L225-.L226)/2
 1902 0029 02       		.byte	(.L228-.L226)/2
 1903              		.p2align 1
 1904              	.L228:
 1905              		.loc 1 1134 0
 1906 002a FFF7FEFF 		bl	mcpwm_foc_stop_pwm
 1907              	.LVL129:
 1908              	.L224:
 1909              		.loc 1 1141 0
 1910 002e 2570     		strb	r5, [r4]
 1911              		.loc 1 1142 0
 1912 0030 13B0     		add	sp, sp, #76
 1913              		.cfi_remember_state
 1914              		.cfi_def_cfa_offset 20
 1915              		@ sp needed
 1916 0032 F0BD     		pop	{r4, r5, r6, r7, pc}
 1917              	.L227:
 1918              		.cfi_restore_state
 1919              		.loc 1 1131 0
 1920 0034 FFF7FEFF 		bl	mcpwm_atc_stop_pwm
 1921              	.LVL130:
 1922              		.loc 1 1141 0
 1923 0038 2570     		strb	r5, [r4]
 1924              		.loc 1 1142 0
 1925 003a 13B0     		add	sp, sp, #76
 1926              		.cfi_remember_state
 1927              		.cfi_def_cfa_offset 20
 1928              		@ sp needed
 1929 003c F0BD     		pop	{r4, r5, r6, r7, pc}
 1930              	.L225:
 1931              		.cfi_restore_state
 1932              		.loc 1 1128 0
 1933 003e FFF7FEFF 		bl	mcpwm_stop_pwm
 1934              	.LVL131:
 1935              		.loc 1 1141 0
 1936 0042 2570     		strb	r5, [r4]
 1937              		.loc 1 1142 0
 1938 0044 13B0     		add	sp, sp, #76
ARM GAS  /var/folders/sv/kgmgr77579zbf78p2zlhkdfr0000gn/T//ccOxe4My.s 			page 35


 1939              		.cfi_remember_state
 1940              		.cfi_def_cfa_offset 20
 1941              		@ sp needed
 1942 0046 F0BD     		pop	{r4, r5, r6, r7, pc}
 1943              	.L233:
 1944              		.cfi_restore_state
 1945              	.LBB128:
 1946              		.loc 1 1095 0
 1947 0048 FFF7FEFF 		bl	utils_sys_lock_cnt
 1948              	.LVL132:
 1949              		.loc 1 1096 0
 1950 004c 354A     		ldr	r2, .L234+12
 1951              		.loc 1 1097 0
 1952 004e 364B     		ldr	r3, .L234+16
 1953              		.loc 1 1096 0
 1954 0050 526B     		ldr	r2, [r2, #52]
 1955 0052 0192     		str	r2, [sp, #4]
 1956              		.loc 1 1097 0
 1957 0054 1A6C     		ldr	r2, [r3, #64]
 1958 0056 0292     		str	r2, [sp, #8]
 1959              		.loc 1 1098 0
 1960 0058 DB6A     		ldr	r3, [r3, #44]
 1961 005a 0393     		str	r3, [sp, #12]
 1962              		.loc 1 1099 0
 1963 005c FFF7FEFF 		bl	utils_sys_unlock_cnt
 1964              	.LVL133:
 1965              		.loc 1 1102 0
 1966 0060 8DF81050 		strb	r5, [sp, #16]
 1967              		.loc 1 1103 0
 1968 0064 FFF7FEFF 		bl	mc_interface_get_tot_current
 1969              	.LVL134:
 1970              		.loc 1 1105 0
 1971 0068 304F     		ldr	r7, .L234+20
 1972              		.loc 1 1103 0
 1973 006a 8DED050A 		vstr.32	s0, [sp, #20]
 1974              		.loc 1 1104 0
 1975 006e FFF7FEFF 		bl	mc_interface_get_tot_current_filtered
 1976              	.LVL135:
 1977              		.loc 1 1105 0
 1978 0072 3B8A     		ldrh	r3, [r7, #16]
 1979 0074 DFED2E6A 		vldr.32	s13, .L234+24
 1980 0078 9FED2E7A 		vldr.32	s14, .L234+28
 1981              		.loc 1 1104 0
 1982 007c 8DED060A 		vstr.32	s0, [sp, #24]
 1983              		.loc 1 1105 0
 1984 0080 9BB2     		uxth	r3, r3
 1985 0082 07EE903A 		vmov	s15, r3	@ int
 1986 0086 F8EE677A 		vcvt.f32.u32	s15, s15
 1987 008a 67EEA67A 		vmul.f32	s15, s15, s13
 1988 008e 67EE877A 		vmul.f32	s15, s15, s14
 1989 0092 CDED077A 		vstr.32	s15, [sp, #28]
 1990              		.loc 1 1106 0
 1991 0096 FFF7FEFF 		bl	mc_interface_get_duty_cycle_now
 1992              	.LVL136:
 1993 009a 8DED080A 		vstr.32	s0, [sp, #32]
 1994              		.loc 1 1107 0
 1995 009e FFF7FEFF 		bl	mc_interface_get_rpm
ARM GAS  /var/folders/sv/kgmgr77579zbf78p2zlhkdfr0000gn/T//ccOxe4My.s 			page 36


 1996              	.LVL137:
 1997              		.loc 1 1108 0
 1998 00a2 3046     		mov	r0, r6
 1999              		.loc 1 1107 0
 2000 00a4 8DED090A 		vstr.32	s0, [sp, #36]
 2001              		.loc 1 1108 0
 2002 00a8 FFF7FEFF 		bl	mc_interface_get_tachometer_value
 2003              	.LVL138:
 2004              		.loc 1 1109 0
 2005 00ac 224B     		ldr	r3, .L234+32
 2006              		.loc 1 1108 0
 2007 00ae 0A90     		str	r0, [sp, #40]
 2008              		.loc 1 1109 0
 2009 00b0 1868     		ldr	r0, [r3]
 2010              		.loc 1 1110 0
 2011 00b2 0199     		ldr	r1, [sp, #4]
 2012              		.loc 1 1111 0
 2013 00b4 029A     		ldr	r2, [sp, #8]
 2014              		.loc 1 1112 0
 2015 00b6 039B     		ldr	r3, [sp, #12]
 2016              		.loc 1 1110 0
 2017 00b8 0C91     		str	r1, [sp, #48]
 2018              		.loc 1 1111 0
 2019 00ba 0D92     		str	r2, [sp, #52]
 2020              		.loc 1 1112 0
 2021 00bc 0E93     		str	r3, [sp, #56]
 2022              		.loc 1 1109 0
 2023 00be 0B90     		str	r0, [sp, #44]
 2024              		.loc 1 1113 0
 2025 00c0 FFF7FEFF 		bl	mcpwm_get_comm_step
 2026              	.LVL139:
 2027              		.loc 1 1114 0
 2028 00c4 7B89     		ldrh	r3, [r7, #10]
 2029 00c6 DFED1D6A 		vldr.32	s13, .L234+36
 2030 00ca 9FED1D0A 		vldr.32	s0, .L234+40
 2031              		.loc 1 1113 0
 2032 00ce 0F90     		str	r0, [sp, #60]
 2033              		.loc 1 1114 0
 2034 00d0 9BB2     		uxth	r3, r3
 2035 00d2 07EE903A 		vmov	s15, r3	@ int
 2036 00d6 F8EEE77A 		vcvt.f32.s32	s15, s15
 2037 00da 86EEA77A 		vdiv.f32	s14, s13, s15
 2038 00de 77EE407A 		vsub.f32	s15, s14, s0
 2039 00e2 87EE800A 		vdiv.f32	s0, s15, s0
 2040 00e6 FFF7FEFF 		bl	logf
 2041              	.LVL140:
 2042              		.loc 1 1120 0
 2043 00ea 04A8     		add	r0, sp, #16
 2044              		.loc 1 1114 0
 2045 00ec DFED156A 		vldr.32	s13, .L234+44
 2046 00f0 DFED157A 		vldr.32	s15, .L234+48
 2047 00f4 9FED157A 		vldr.32	s14, .L234+52
 2048 00f8 80EE260A 		vdiv.f32	s0, s0, s13
 2049 00fc F7EE006A 		vmov.f32	s13, #1.0e+0
 2050 0100 30EE270A 		vadd.f32	s0, s0, s15
 2051 0104 C6EE807A 		vdiv.f32	s15, s13, s0
 2052 0108 77EEC77A 		vsub.f32	s15, s15, s14
ARM GAS  /var/folders/sv/kgmgr77579zbf78p2zlhkdfr0000gn/T//ccOxe4My.s 			page 37


 2053 010c CDED107A 		vstr.32	s15, [sp, #64]
 2054              		.loc 1 1120 0
 2055 0110 FFF7FEFF 		bl	terminal_add_fault_data
 2056              	.LVL141:
 2057 0114 7DE7     		b	.L223
 2058              	.L235:
 2059 0116 00BF     		.align	2
 2060              	.L234:
 2061 0118 00000000 		.word	.LANCHOR13
 2062 011c 00000000 		.word	.LANCHOR12
 2063 0120 00000000 		.word	.LANCHOR14
 2064 0124 00040140 		.word	1073808384
 2065 0128 00000140 		.word	1073807360
 2066 012c 00000000 		.word	.LANCHOR41
 2067 0130 6740533A 		.word	978534503
 2068 0134 74D19541 		.word	1100337524
 2069 0138 00000000 		.word	.LANCHOR15
 2070 013c 3C361C4C 		.word	1276917308
 2071 0140 00401C46 		.word	1176256512
 2072 0144 00A05645 		.word	1163304960
 2073 0148 0FCF5B3B 		.word	995872527
 2074 014c 33938843 		.word	1133024051
 2075              	.LBE128:
 2076              		.cfi_endproc
 2077              	.LFE317:
 2078              		.size	mc_interface_fault_stop.part.4, .-mc_interface_fault_stop.part.4
 2079              		.section	.text.update_override_limits.constprop.5,"ax",%progbits
 2080              		.align	2
 2081              		.p2align 4,,15
 2082              		.thumb
 2083              		.thumb_func
 2084              		.type	update_override_limits.constprop.5, %function
 2085              	update_override_limits.constprop.5:
 2086              	.LFB318:
 2087              		.loc 1 1401 0
 2088              		.cfi_startproc
 2089              		@ args = 0, pretend = 0, frame = 0
 2090              		@ frame_needed = 0, uses_anonymous_args = 0
 2091              	.LVL142:
 2092 0000 F8B5     		push	{r3, r4, r5, r6, r7, lr}
 2093              		.cfi_def_cfa_offset 24
 2094              		.cfi_offset 3, -24
 2095              		.cfi_offset 4, -20
 2096              		.cfi_offset 5, -16
 2097              		.cfi_offset 6, -12
 2098              		.cfi_offset 7, -8
 2099              		.cfi_offset 14, -4
 2100              		.loc 1 1402 0
 2101 0002 E24F     		ldr	r7, .L335
 2102              		.loc 1 1405 0
 2103 0004 E24D     		ldr	r5, .L335+4
 2104              		.loc 1 1402 0
 2105 0006 3B8A     		ldrh	r3, [r7, #16]
 2106 0008 9FEDE27A 		vldr.32	s14, .L335+8
 2107              		.loc 1 1406 0
 2108 000c E24E     		ldr	r6, .L335+12
 2109 000e E34C     		ldr	r4, .L335+16
ARM GAS  /var/folders/sv/kgmgr77579zbf78p2zlhkdfr0000gn/T//ccOxe4My.s 			page 38


 2110              		.loc 1 1402 0
 2111 0010 9BB2     		uxth	r3, r3
 2112 0012 07EE903A 		vmov	s15, r3	@ int
 2113              		.loc 1 1401 0
 2114 0016 2DED0A8B 		vpush.64	{d8, d9, d10, d11, d12}
 2115              		.cfi_def_cfa_offset 64
 2116              		.cfi_offset 80, -64
 2117              		.cfi_offset 81, -60
 2118              		.cfi_offset 82, -56
 2119              		.cfi_offset 83, -52
 2120              		.cfi_offset 84, -48
 2121              		.cfi_offset 85, -44
 2122              		.cfi_offset 86, -40
 2123              		.cfi_offset 87, -36
 2124              		.cfi_offset 88, -32
 2125              		.cfi_offset 89, -28
 2126              		.loc 1 1402 0
 2127 001a F8EE677A 		vcvt.f32.u32	s15, s15
 2128 001e 9FEDE08A 		vldr.32	s16, .L335+20
 2129              		.loc 1 1405 0
 2130 0022 DFEDE08A 		vldr.32	s17, .L335+24
 2131 0026 9FEDE0BA 		vldr.32	s22, .L335+28
 2132 002a DFEDE0AA 		vldr.32	s21, .L335+32
 2133 002e 9FEDE0AA 		vldr.32	s20, .L335+36
 2134              		.loc 1 1402 0
 2135 0032 67EE887A 		vmul.f32	s15, s15, s16
 2136              		.loc 1 1405 0
 2137 0036 F7EE00BA 		vmov.f32	s23, #1.0e+0
 2138              		.loc 1 1402 0
 2139 003a 27EE878A 		vmul.f32	s16, s15, s14
 2140              	.LVL143:
 2141              		.loc 1 1403 0
 2142 003e FFF7FEFF 		bl	mc_interface_get_rpm
 2143              	.LVL144:
 2144              		.loc 1 1405 0
 2145 0042 D5ED009A 		vldr.32	s19, [r5]
 2146 0046 7B89     		ldrh	r3, [r7, #10]
 2147 0048 9FEDDA7A 		vldr.32	s14, .L335+40
 2148 004c 9BB2     		uxth	r3, r3
 2149 004e 07EE903A 		vmov	s15, r3	@ int
 2150 0052 F8EEE77A 		vcvt.f32.s32	s15, s15
 2151              		.loc 1 1403 0
 2152 0056 B0EE409A 		vmov.f32	s18, s0
 2153              	.LVL145:
 2154              		.loc 1 1405 0
 2155 005a 87EE270A 		vdiv.f32	s0, s14, s15
 2156              	.LVL146:
 2157 005e 30EE680A 		vsub.f32	s0, s0, s17
 2158 0062 80EE280A 		vdiv.f32	s0, s0, s17
 2159 0066 FFF7FEFF 		bl	logf
 2160              	.LVL147:
 2161 006a 9FEDD37A 		vldr.32	s14, .L335+44
 2162 006e D5ED007A 		vldr.32	s15, [r5]
 2163              		.loc 1 1406 0
 2164 0072 DFEDD26A 		vldr.32	s13, .L335+48
 2165              		.loc 1 1405 0
 2166 0076 80EE070A 		vdiv.f32	s0, s0, s14
ARM GAS  /var/folders/sv/kgmgr77579zbf78p2zlhkdfr0000gn/T//ccOxe4My.s 			page 39


 2167 007a 30EE0B0A 		vadd.f32	s0, s0, s22
 2168 007e 8BEE807A 		vdiv.f32	s14, s23, s0
 2169 0082 37EE6A7A 		vsub.f32	s14, s14, s21
 2170 0086 79EEC79A 		vsub.f32	s19, s19, s14
 2171 008a E9EECA7A 		vfms.f32	s15, s19, s20
 2172 008e C5ED007A 		vstr.32	s15, [r5]
 2173              		.loc 1 1406 0
 2174 0092 D6ED009A 		vldr.32	s19, [r6]
 2175 0096 FB8A     		ldrh	r3, [r7, #22]
 2176 0098 9BB2     		uxth	r3, r3
 2177 009a 07EE903A 		vmov	s15, r3	@ int
 2178 009e F8EE677A 		vcvt.f32.u32	s15, s15
 2179 00a2 86EEA77A 		vdiv.f32	s14, s13, s15
 2180 00a6 77EE6B7A 		vsub.f32	s15, s14, s23
 2181 00aa 88EEA70A 		vdiv.f32	s0, s17, s15
 2182 00ae 80EE280A 		vdiv.f32	s0, s0, s17
 2183 00b2 FFF7FEFF 		bl	logf
 2184              	.LVL148:
 2185 00b6 94ED5C7A 		vldr.32	s14, [r4, #368]
 2186 00ba D6ED007A 		vldr.32	s15, [r6]
 2187 00be 80EE070A 		vdiv.f32	s0, s0, s14
 2188 00c2 30EE0B0A 		vadd.f32	s0, s0, s22
 2189 00c6 8BEE807A 		vdiv.f32	s14, s23, s0
 2190 00ca 37EE6A7A 		vsub.f32	s14, s14, s21
 2191 00ce 79EEC79A 		vsub.f32	s19, s19, s14
 2192 00d2 E9EECA7A 		vfms.f32	s15, s19, s20
 2193 00d6 C6ED007A 		vstr.32	s15, [r6]
 2194              	.LVL149:
 2195              		.loc 1 1411 0
 2196 00da 94ED107A 		vldr.32	s14, [r4, #64]
 2197 00de D5ED007A 		vldr.32	s15, [r5]
 2198 00e2 B4EEE77A 		vcmpe.f32	s14, s15
 2199 00e6 F1EE10FA 		vmrs	APSR_nzcv, FPSCR
 2200 00ea 40F3FA80 		ble	.L312
 2201              		.loc 1 1412 0
 2202 00ee D4ED028A 		vldr.32	s17, [r4, #8]
 2203              	.LVL150:
 2204              		.loc 1 1413 0
 2205 00f2 94ED01AA 		vldr.32	s20, [r4, #4]
 2206              	.LVL151:
 2207              	.L239:
 2208              		.loc 1 1438 0
 2209 00f6 94ED127A 		vldr.32	s14, [r4, #72]
 2210 00fa D6ED007A 		vldr.32	s15, [r6]
 2211 00fe A74B     		ldr	r3, .L335+16
 2212 0100 A54A     		ldr	r2, .L335+12
 2213 0102 B4EEE77A 		vcmpe.f32	s14, s15
 2214 0106 F1EE10FA 		vmrs	APSR_nzcv, FPSCR
 2215 010a 40F32881 		ble	.L316
 2216              		.loc 1 1439 0
 2217 010e D3ED029A 		vldr.32	s19, [r3, #8]
 2218              	.LVL152:
 2219              		.loc 1 1440 0
 2220 0112 D3ED01AA 		vldr.32	s21, [r3, #4]
 2221              	.LVL153:
 2222              	.L252:
 2223              		.loc 1 1464 0
ARM GAS  /var/folders/sv/kgmgr77579zbf78p2zlhkdfr0000gn/T//ccOxe4My.s 			page 40


 2224 0116 94ED140A 		vldr.32	s0, [r4, #80]
 2225 011a DFEDAA0A 		vldr.32	s1, .L335+56
 2226 011e D4ED101A 		vldr.32	s3, [r4, #64]
 2227 0122 9E4F     		ldr	r7, .L335+16
 2228 0124 B3EE092A 		vmov.f32	s4, #2.5e+1
 2229 0128 B7EE001A 		vmov.f32	s2, #1.0e+0
 2230 012c FFF7FEFF 		bl	utils_map
 2231              	.LVL154:
 2232              		.loc 1 1465 0
 2233 0130 DFEDA40A 		vldr.32	s1, .L335+56
 2234              		.loc 1 1464 0
 2235 0134 F0EE40BA 		vmov.f32	s23, s0
 2236              	.LVL155:
 2237              		.loc 1 1465 0
 2238 0138 B3EE092A 		vmov.f32	s4, #2.5e+1
 2239 013c 94ED140A 		vldr.32	s0, [r4, #80]
 2240              	.LVL156:
 2241 0140 D4ED111A 		vldr.32	s3, [r4, #68]
 2242 0144 B7EE001A 		vmov.f32	s2, #1.0e+0
 2243 0148 FFF7FEFF 		bl	utils_map
 2244              	.LVL157:
 2245              		.loc 1 1466 0
 2246 014c DFED9D0A 		vldr.32	s1, .L335+56
 2247 0150 B3EE092A 		vmov.f32	s4, #2.5e+1
 2248 0154 B7EE001A 		vmov.f32	s2, #1.0e+0
 2249              		.loc 1 1465 0
 2250 0158 F0EE40CA 		vmov.f32	s25, s0
 2251              	.LVL158:
 2252              		.loc 1 1466 0
 2253 015c 94ED140A 		vldr.32	s0, [r4, #80]
 2254              	.LVL159:
 2255 0160 D4ED121A 		vldr.32	s3, [r4, #72]
 2256 0164 FFF7FEFF 		bl	utils_map
 2257              	.LVL160:
 2258              		.loc 1 1467 0
 2259 0168 DFED960A 		vldr.32	s1, .L335+56
 2260              		.loc 1 1466 0
 2261 016c B0EE40BA 		vmov.f32	s22, s0
 2262              	.LVL161:
 2263              		.loc 1 1467 0
 2264 0170 B3EE092A 		vmov.f32	s4, #2.5e+1
 2265 0174 94ED140A 		vldr.32	s0, [r4, #80]
 2266              	.LVL162:
 2267 0178 D4ED131A 		vldr.32	s3, [r4, #76]
 2268 017c B7EE001A 		vmov.f32	s2, #1.0e+0
 2269 0180 FFF7FEFF 		bl	utils_map
 2270              	.LVL163:
 2271              		.loc 1 1470 0
 2272 0184 D5ED007A 		vldr.32	s15, [r5]
 2273 0188 814B     		ldr	r3, .L335+4
 2274 018a F4EEE7BA 		vcmpe.f32	s23, s15
 2275 018e F1EE10FA 		vmrs	APSR_nzcv, FPSCR
 2276              		.loc 1 1467 0
 2277 0192 B0EE40CA 		vmov.f32	s24, s0
 2278              	.LVL164:
 2279              		.loc 1 1470 0
 2280 0196 40F3D780 		ble	.L320
ARM GAS  /var/folders/sv/kgmgr77579zbf78p2zlhkdfr0000gn/T//ccOxe4My.s 			page 41


 2281              		.loc 1 1471 0
 2282 019a D7ED01BA 		vldr.32	s23, [r7, #4]
 2283              	.LVL165:
 2284              	.L265:
 2285              		.loc 1 1480 0
 2286 019e D6ED007A 		vldr.32	s15, [r6]
 2287 01a2 7D4B     		ldr	r3, .L335+12
 2288 01a4 B4EEE7BA 		vcmpe.f32	s22, s15
 2289 01a8 F1EE10FA 		vmrs	APSR_nzcv, FPSCR
 2290 01ac 40F3C180 		ble	.L321
 2291              		.loc 1 1481 0
 2292 01b0 94ED01BA 		vldr.32	s22, [r4, #4]
 2293              	.LVL166:
 2294              	.L268:
 2295              		.loc 1 1491 0
 2296 01b4 D4ED077A 		vldr.32	s15, [r4, #28]
 2297 01b8 D4ED080A 		vldr.32	s1, [r4, #32]
 2298 01bc 774B     		ldr	r3, .L335+16
 2299              		.loc 1 1492 0
 2300 01be 94ED071A 		vldr.32	s2, [r4, #28]
 2301              		.loc 1 1491 0
 2302 01c2 67EEA00A 		vmul.f32	s1, s15, s1
 2303              	.LVL167:
 2304              		.loc 1 1493 0
 2305 01c6 B4EEE09A 		vcmpe.f32	s18, s1
 2306 01ca F1EE10FA 		vmrs	APSR_nzcv, FPSCR
 2307 01ce 40F1A780 		bpl	.L322
 2308              		.loc 1 1494 0
 2309 01d2 93ED01CA 		vldr.32	s24, [r3, #4]
 2310              	.LVL168:
 2311              	.L271:
 2312              		.loc 1 1503 0
 2313 01d6 D4ED067A 		vldr.32	s15, [r4, #24]
 2314 01da D4ED080A 		vldr.32	s1, [r4, #32]
 2315 01de 6F4B     		ldr	r3, .L335+16
 2316              		.loc 1 1504 0
 2317 01e0 94ED061A 		vldr.32	s2, [r4, #24]
 2318              		.loc 1 1503 0
 2319 01e4 67EEA00A 		vmul.f32	s1, s15, s1
 2320              	.LVL169:
 2321              		.loc 1 1505 0
 2322 01e8 B4EEE09A 		vcmpe.f32	s18, s1
 2323 01ec F1EE10FA 		vmrs	APSR_nzcv, FPSCR
 2324 01f0 40F38D80 		ble	.L323
 2325              		.loc 1 1506 0
 2326 01f4 93ED019A 		vldr.32	s18, [r3, #4]
 2327              	.LVL170:
 2328              	.L274:
 2329              		.loc 1 1513 0
 2330 01f8 F0EE6A0A 		vmov.f32	s1, s21
 2331 01fc B0EE4A0A 		vmov.f32	s0, s20
 2332 0200 FFF7FEFF 		bl	utils_min_abs
 2333              	.LVL171:
 2334              		.loc 1 1514 0
 2335 0204 F0EE690A 		vmov.f32	s1, s19
 2336              		.loc 1 1513 0
 2337 0208 B0EE40AA 		vmov.f32	s20, s0
ARM GAS  /var/folders/sv/kgmgr77579zbf78p2zlhkdfr0000gn/T//ccOxe4My.s 			page 42


 2338              	.LVL172:
 2339              		.loc 1 1514 0
 2340 020c B0EE680A 		vmov.f32	s0, s17
 2341              	.LVL173:
 2342 0210 FFF7FEFF 		bl	utils_min_abs
 2343              	.LVL174:
 2344              		.loc 1 1516 0
 2345 0214 F0EE4C0A 		vmov.f32	s1, s24
 2346              		.loc 1 1514 0
 2347 0218 F0EE408A 		vmov.f32	s17, s0
 2348              	.LVL175:
 2349              		.loc 1 1516 0
 2350 021c B0EE4A0A 		vmov.f32	s0, s20
 2351              	.LVL176:
 2352 0220 FFF7FEFF 		bl	utils_min_abs
 2353              	.LVL177:
 2354              		.loc 1 1517 0
 2355 0224 F0EE490A 		vmov.f32	s1, s18
 2356 0228 FFF7FEFF 		bl	utils_min_abs
 2357              	.LVL178:
 2358              		.loc 1 1518 0
 2359 022c F0EE6B0A 		vmov.f32	s1, s23
 2360 0230 FFF7FEFF 		bl	utils_min_abs
 2361              	.LVL179:
 2362              		.loc 1 1519 0
 2363 0234 F0EE4B0A 		vmov.f32	s1, s22
 2364 0238 FFF7FEFF 		bl	utils_min_abs
 2365              	.LVL180:
 2366              		.loc 1 1521 0
 2367 023c D4ED507A 		vldr.32	s15, [r4, #320]
 2368 0240 564B     		ldr	r3, .L335+16
 2369 0242 B4EEE70A 		vcmpe.f32	s0, s15
 2370 0246 F1EE10FA 		vmrs	APSR_nzcv, FPSCR
 2371              		.loc 1 1522 0
 2372 024a 48BF     		it	mi
 2373 024c 93ED500A 		vldrmi.32	s0, [r3, #320]
 2374              	.LVL181:
 2375              		.loc 1 1525 0
 2376 0250 D4ED507A 		vldr.32	s15, [r4, #320]
 2377 0254 514B     		ldr	r3, .L335+16
 2378 0256 F1EE677A 		vneg.f32	s15, s15
 2379 025a F4EEE78A 		vcmpe.f32	s17, s15
 2380 025e F1EE10FA 		vmrs	APSR_nzcv, FPSCR
 2381              		.loc 1 1526 0
 2382 0262 C8BF     		it	gt
 2383 0264 D3ED508A 		vldrgt.32	s17, [r3, #320]
 2384              	.LVL182:
 2385              		.loc 1 1529 0
 2386 0268 84ED190A 		vstr.32	s0, [r4, #100]
 2387              		.loc 1 1526 0
 2388 026c C8BF     		it	gt
 2389 026e F1EE688A 		vneggt.f32	s17, s17
 2390              	.LVL183:
 2391              		.loc 1 1530 0
 2392 0272 C4ED1A8A 		vstr.32	s17, [r4, #104]
 2393              	.LVL184:
 2394              		.loc 1 1534 0
ARM GAS  /var/folders/sv/kgmgr77579zbf78p2zlhkdfr0000gn/T//ccOxe4My.s 			page 43


 2395 0276 D4ED0D7A 		vldr.32	s15, [r4, #52]
 2396              		.loc 1 1529 0
 2397 027a 484B     		ldr	r3, .L335+16
 2398              		.loc 1 1534 0
 2399 027c B4EEE78A 		vcmpe.f32	s16, s15
 2400 0280 F1EE10FA 		vmrs	APSR_nzcv, FPSCR
 2401 0284 00F34281 		bgt	.L326
 2402              		.loc 1 1536 0
 2403 0288 D3ED0E7A 		vldr.32	s15, [r3, #56]
 2404 028c B4EEE78A 		vcmpe.f32	s16, s15
 2405 0290 F1EE10FA 		vmrs	APSR_nzcv, FPSCR
 2406 0294 40F12B81 		bpl	.L327
 2407              		.loc 1 1537 0
 2408 0298 DFED4A0A 		vldr.32	s1, .L335+56
 2409              	.LVL185:
 2410              	.L281:
 2411              		.loc 1 1544 0
 2412 029c 94ED170A 		vldr.32	s0, [r4, #92]
 2413              	.LVL186:
 2414              		.loc 1 1545 0
 2415 02a0 94ED187A 		vldr.32	s14, [r4, #96]
 2416 02a4 C7EE088A 		vdiv.f32	s17, s14, s16
 2417              	.LVL187:
 2418              		.loc 1 1547 0
 2419 02a8 80EE080A 		vdiv.f32	s0, s0, s16
 2420              	.LVL188:
 2421 02ac FFF7FEFF 		bl	utils_min_abs
 2422              	.LVL189:
 2423              		.loc 1 1550 0
 2424 02b0 D4ED037A 		vldr.32	s15, [r4, #12]
 2425 02b4 F0EE400A 		vmov.f32	s1, s0
 2426 02b8 B0EE670A 		vmov.f32	s0, s15
 2427              	.LVL190:
 2428 02bc FFF7FEFF 		bl	utils_min_abs
 2429              	.LVL191:
 2430 02c0 84ED1B0A 		vstr.32	s0, [r4, #108]
 2431              		.loc 1 1551 0
 2432 02c4 F0EE680A 		vmov.f32	s1, s17
 2433 02c8 94ED040A 		vldr.32	s0, [r4, #16]
 2434 02cc FFF7FEFF 		bl	utils_min_abs
 2435              	.LVL192:
 2436              		.loc 1 1573 0
 2437 02d0 BDEC0A8B 		vldm	sp!, {d8-d12}
 2438              		.cfi_remember_state
 2439              		.cfi_restore 88
 2440              		.cfi_restore 89
 2441              		.cfi_restore 86
 2442              		.cfi_restore 87
 2443              		.cfi_restore 84
 2444              		.cfi_restore 85
 2445              		.cfi_restore 82
 2446              		.cfi_restore 83
 2447              		.cfi_restore 80
 2448              		.cfi_restore 81
 2449              		.cfi_def_cfa_offset 24
 2450              	.LVL193:
 2451              		.loc 1 1551 0
ARM GAS  /var/folders/sv/kgmgr77579zbf78p2zlhkdfr0000gn/T//ccOxe4My.s 			page 44


 2452 02d4 84ED1C0A 		vstr.32	s0, [r4, #112]
 2453              		.loc 1 1571 0
 2454 02d8 636E     		ldr	r3, [r4, #100]	@ float
 2455 02da 6367     		str	r3, [r4, #116]	@ float
 2456              		.loc 1 1572 0
 2457 02dc A36E     		ldr	r3, [r4, #104]	@ float
 2458 02de A367     		str	r3, [r4, #120]	@ float
 2459              		.loc 1 1573 0
 2460 02e0 F8BD     		pop	{r3, r4, r5, r6, r7, pc}
 2461              	.LVL194:
 2462              	.L312:
 2463              		.cfi_restore_state
 2464              		.loc 1 1414 0
 2465 02e2 94ED117A 		vldr.32	s14, [r4, #68]
 2466 02e6 D5ED007A 		vldr.32	s15, [r5]
 2467 02ea B4EEE77A 		vcmpe.f32	s14, s15
 2468 02ee F1EE10FA 		vmrs	APSR_nzcv, FPSCR
 2469 02f2 69D5     		bpl	.L313
 2470              	.LVL195:
 2471              	.LBB129:
 2472              	.LBB130:
 2473              		.loc 1 1087 0
 2474 02f4 324B     		ldr	r3, .L335+52
 2475 02f6 1B78     		ldrb	r3, [r3]	@ zero_extendqisi2
 2476 02f8 052B     		cmp	r3, #5
 2477 02fa 00F05A81 		beq	.L328
 2478              	.LBE130:
 2479              	.LBE129:
 2480              		.loc 1 1415 0
 2481 02fe DFED318A 		vldr.32	s17, .L335+56
 2482              	.LBB135:
 2483              	.LBB131:
 2484 0302 0520     		movs	r0, #5
 2485              	.LBE131:
 2486              	.LBE135:
 2487              		.loc 1 1416 0
 2488 0304 B0EE68AA 		vmov.f32	s20, s17
 2489              	.LBB136:
 2490              	.LBB132:
 2491 0308 FFF7FEFF 		bl	mc_interface_fault_stop.part.4
 2492              	.LVL196:
 2493 030c F3E6     		b	.L239
 2494              	.LVL197:
 2495              	.L323:
 2496              	.LBE132:
 2497              	.LBE136:
 2498              		.loc 1 1507 0
 2499 030e B4EEC19A 		vcmpe.f32	s18, s2
 2500 0312 F1EE10FA 		vmrs	APSR_nzcv, FPSCR
 2501 0316 40F1FC80 		bpl	.L329
 2502              		.loc 1 1508 0
 2503 031a 9FED2A9A 		vldr.32	s18, .L335+56
 2504              	.LVL198:
 2505 031e 6BE7     		b	.L274
 2506              	.LVL199:
 2507              	.L322:
 2508              		.loc 1 1495 0
ARM GAS  /var/folders/sv/kgmgr77579zbf78p2zlhkdfr0000gn/T//ccOxe4My.s 			page 45


 2509 0320 B4EEC19A 		vcmpe.f32	s18, s2
 2510 0324 F1EE10FA 		vmrs	APSR_nzcv, FPSCR
 2511 0328 40F3FE80 		ble	.L330
 2512              		.loc 1 1496 0
 2513 032c 9FED25CA 		vldr.32	s24, .L335+56
 2514              	.LVL200:
 2515 0330 51E7     		b	.L271
 2516              	.LVL201:
 2517              	.L321:
 2518              		.loc 1 1482 0
 2519 0332 D3ED007A 		vldr.32	s15, [r3]
 2520 0336 B4EEE7CA 		vcmpe.f32	s24, s15
 2521 033a F1EE10FA 		vmrs	APSR_nzcv, FPSCR
 2522 033e 40F1FE80 		bpl	.L331
 2523              		.loc 1 1483 0
 2524 0342 9FED20BA 		vldr.32	s22, .L335+56
 2525              	.LVL202:
 2526 0346 35E7     		b	.L268
 2527              	.LVL203:
 2528              	.L320:
 2529              		.loc 1 1472 0
 2530 0348 D3ED007A 		vldr.32	s15, [r3]
 2531 034c F4EEE7CA 		vcmpe.f32	s25, s15
 2532 0350 F1EE10FA 		vmrs	APSR_nzcv, FPSCR
 2533 0354 40F10281 		bpl	.L332
 2534              		.loc 1 1473 0
 2535 0358 DFED1ABA 		vldr.32	s23, .L335+56
 2536              	.LVL204:
 2537 035c 1FE7     		b	.L265
 2538              	.LVL205:
 2539              	.L316:
 2540              		.loc 1 1441 0
 2541 035e 93ED137A 		vldr.32	s14, [r3, #76]
 2542 0362 D2ED007A 		vldr.32	s15, [r2]
 2543 0366 B4EEE77A 		vcmpe.f32	s14, s15
 2544 036a F1EE10FA 		vmrs	APSR_nzcv, FPSCR
 2545 036e 7CD5     		bpl	.L317
 2546              	.LVL206:
 2547              	.LBB137:
 2548              	.LBB138:
 2549              		.loc 1 1087 0
 2550 0370 134A     		ldr	r2, .L335+52
 2551 0372 1278     		ldrb	r2, [r2]	@ zero_extendqisi2
 2552 0374 062A     		cmp	r2, #6
 2553 0376 00F01381 		beq	.L333
 2554              	.LBE138:
 2555              	.LBE137:
 2556              		.loc 1 1442 0
 2557 037a DFED129A 		vldr.32	s19, .L335+56
 2558              	.LBB143:
 2559              	.LBB139:
 2560 037e 0620     		movs	r0, #6
 2561              	.LBE139:
 2562              	.LBE143:
 2563              		.loc 1 1443 0
 2564 0380 F0EE69AA 		vmov.f32	s21, s19
 2565              	.LBB144:
ARM GAS  /var/folders/sv/kgmgr77579zbf78p2zlhkdfr0000gn/T//ccOxe4My.s 			page 46


 2566              	.LBB140:
 2567 0384 FFF7FEFF 		bl	mc_interface_fault_stop.part.4
 2568              	.LVL207:
 2569 0388 C5E6     		b	.L252
 2570              	.L336:
 2571 038a 00BF     		.align	2
 2572              	.L335:
 2573 038c 00000000 		.word	.LANCHOR41
 2574 0390 00000000 		.word	.LANCHOR32
 2575 0394 74D19541 		.word	1100337524
 2576 0398 00000000 		.word	.LANCHOR33
 2577 039c 00000000 		.word	.LANCHOR12
 2578 03a0 6740533A 		.word	978534503
 2579 03a4 00401C46 		.word	1176256512
 2580 03a8 0FCF5B3B 		.word	995872527
 2581 03ac 33938843 		.word	1133024051
 2582 03b0 CDCCCC3D 		.word	1036831949
 2583 03b4 3C361C4C 		.word	1276917308
 2584 03b8 00A05645 		.word	1163304960
 2585 03bc 00F07F45 		.word	1166012416
 2586 03c0 00000000 		.word	.LANCHOR13
 2587 03c4 00000000 		.word	0
 2588              	.LVL208:
 2589              	.L313:
 2590              	.LBE140:
 2591              	.LBE144:
 2592              	.LBB145:
 2593              		.loc 1 1419 0
 2594 03c8 D4ED011A 		vldr.32	s3, [r4, #4]
 2595              		.loc 1 1420 0
 2596 03cc D4ED027A 		vldr.32	s15, [r4, #8]
 2597              		.loc 1 1424 0
 2598 03d0 1FED042A 		vldr.32	s4, .L335+56
 2599 03d4 7E4F     		ldr	r7, .L337
 2600              		.loc 1 1419 0
 2601 03d6 F0EEE11A 		vabs.f32	s3, s3
 2602              	.LVL209:
 2603              		.loc 1 1420 0
 2604 03da F0EEE77A 		vabs.f32	s15, s15
 2605 03de F4EEE71A 		vcmpe.f32	s3, s15
 2606 03e2 F1EE10FA 		vmrs	APSR_nzcv, FPSCR
 2607              		.loc 1 1421 0
 2608 03e6 48BF     		it	mi
 2609 03e8 D4ED021A 		vldrmi.32	s3, [r4, #8]
 2610              	.LVL210:
 2611              		.loc 1 1424 0
 2612 03ec 95ED000A 		vldr.32	s0, [r5]
 2613 03f0 D4ED100A 		vldr.32	s1, [r4, #64]
 2614 03f4 94ED111A 		vldr.32	s2, [r4, #68]
 2615              		.loc 1 1421 0
 2616 03f8 48BF     		it	mi
 2617 03fa F0EEE11A 		vabsmi.f32	s3, s3
 2618              	.LVL211:
 2619              		.loc 1 1424 0
 2620 03fe FFF7FEFF 		bl	utils_map
 2621              	.LVL212:
 2622              		.loc 1 1426 0
ARM GAS  /var/folders/sv/kgmgr77579zbf78p2zlhkdfr0000gn/T//ccOxe4My.s 			page 47


 2623 0402 D4ED017A 		vldr.32	s15, [r4, #4]
 2624 0406 F0EEE77A 		vabs.f32	s15, s15
 2625 040a B4EEE70A 		vcmpe.f32	s0, s15
 2626 040e F1EE10FA 		vmrs	APSR_nzcv, FPSCR
 2627 0412 40F1B280 		bpl	.L314
 2628              		.loc 1 1427 0
 2629 0416 D7ED017A 		vldr.32	s15, [r7, #4]
 2630 041a F5EEC07A 		vcmpe.f32	s15, #0
 2631 041e F1EE10FA 		vmrs	APSR_nzcv, FPSCR
 2632 0422 FFEE007A 		vmov.f32	s15, #-1.0e+0
 2633 0426 B7EE00AA 		vmov.f32	s20, #1.0e+0
 2634 042a 48BF     		it	mi
 2635 042c B0EE67AA 		vmovmi.f32	s20, s15
 2636 0430 20EE0AAA 		vmul.f32	s20, s0, s20
 2637              	.LVL213:
 2638              	.L245:
 2639              		.loc 1 1430 0
 2640 0434 D4ED027A 		vldr.32	s15, [r4, #8]
 2641 0438 654B     		ldr	r3, .L337
 2642 043a F0EEE77A 		vabs.f32	s15, s15
 2643 043e B4EEE70A 		vcmpe.f32	s0, s15
 2644 0442 F1EE10FA 		vmrs	APSR_nzcv, FPSCR
 2645 0446 40F1C080 		bpl	.L315
 2646              		.loc 1 1431 0
 2647 044a D3ED027A 		vldr.32	s15, [r3, #8]
 2648 044e F5EEC07A 		vcmpe.f32	s15, #0
 2649 0452 F1EE10FA 		vmrs	APSR_nzcv, FPSCR
 2650 0456 FFEE007A 		vmov.f32	s15, #-1.0e+0
 2651 045a F7EE008A 		vmov.f32	s17, #1.0e+0
 2652 045e 48BF     		it	mi
 2653 0460 F0EE678A 		vmovmi.f32	s17, s15
 2654 0464 60EE288A 		vmul.f32	s17, s0, s17
 2655              	.LVL214:
 2656 0468 45E6     		b	.L239
 2657              	.LVL215:
 2658              	.L317:
 2659              	.LBE145:
 2660              	.LBB146:
 2661              		.loc 1 1446 0
 2662 046a D3ED011A 		vldr.32	s3, [r3, #4]
 2663              		.loc 1 1447 0
 2664 046e D3ED027A 		vldr.32	s15, [r3, #8]
 2665              		.loc 1 1451 0
 2666 0472 9FED582A 		vldr.32	s4, .L337+4
 2667 0476 564F     		ldr	r7, .L337
 2668              		.loc 1 1446 0
 2669 0478 F0EEE11A 		vabs.f32	s3, s3
 2670              	.LVL216:
 2671              		.loc 1 1447 0
 2672 047c F0EEE77A 		vabs.f32	s15, s15
 2673 0480 F4EEE71A 		vcmpe.f32	s3, s15
 2674 0484 F1EE10FA 		vmrs	APSR_nzcv, FPSCR
 2675              		.loc 1 1448 0
 2676 0488 48BF     		it	mi
 2677 048a D3ED021A 		vldrmi.32	s3, [r3, #8]
 2678              	.LVL217:
 2679              		.loc 1 1451 0
ARM GAS  /var/folders/sv/kgmgr77579zbf78p2zlhkdfr0000gn/T//ccOxe4My.s 			page 48


 2680 048e 96ED000A 		vldr.32	s0, [r6]
 2681 0492 D4ED120A 		vldr.32	s1, [r4, #72]
 2682 0496 94ED131A 		vldr.32	s2, [r4, #76]
 2683              		.loc 1 1448 0
 2684 049a 48BF     		it	mi
 2685 049c F0EEE11A 		vabsmi.f32	s3, s3
 2686              	.LVL218:
 2687              		.loc 1 1451 0
 2688 04a0 FFF7FEFF 		bl	utils_map
 2689              	.LVL219:
 2690              		.loc 1 1453 0
 2691 04a4 D4ED017A 		vldr.32	s15, [r4, #4]
 2692 04a8 F0EEE77A 		vabs.f32	s15, s15
 2693 04ac B4EEE70A 		vcmpe.f32	s0, s15
 2694 04b0 F1EE10FA 		vmrs	APSR_nzcv, FPSCR
 2695 04b4 64D4     		bmi	.L334
 2696              	.LBE146:
 2697              		.loc 1 1436 0
 2698 04b6 DFED47AA 		vldr.32	s21, .L337+4
 2699              	.LVL220:
 2700              	.L258:
 2701              	.LBB147:
 2702              		.loc 1 1457 0
 2703 04ba D4ED027A 		vldr.32	s15, [r4, #8]
 2704 04be 444B     		ldr	r3, .L337
 2705 04c0 F0EEE77A 		vabs.f32	s15, s15
 2706 04c4 B4EEE70A 		vcmpe.f32	s0, s15
 2707 04c8 F1EE10FA 		vmrs	APSR_nzcv, FPSCR
 2708 04cc 7AD5     		bpl	.L319
 2709              		.loc 1 1458 0
 2710 04ce D3ED027A 		vldr.32	s15, [r3, #8]
 2711 04d2 F5EEC07A 		vcmpe.f32	s15, #0
 2712 04d6 F1EE10FA 		vmrs	APSR_nzcv, FPSCR
 2713 04da FFEE007A 		vmov.f32	s15, #-1.0e+0
 2714 04de F7EE009A 		vmov.f32	s19, #1.0e+0
 2715 04e2 48BF     		it	mi
 2716 04e4 F0EE679A 		vmovmi.f32	s19, s15
 2717 04e8 60EE299A 		vmul.f32	s19, s0, s19
 2718              	.LVL221:
 2719 04ec 13E6     		b	.L252
 2720              	.LVL222:
 2721              	.L327:
 2722              	.LBE147:
 2723              		.loc 1 1539 0
 2724 04ee D3ED0D0A 		vldr.32	s1, [r3, #52]
 2725 04f2 9FED382A 		vldr.32	s4, .L337+4
 2726 04f6 93ED0E1A 		vldr.32	s2, [r3, #56]
 2727 04fa D3ED031A 		vldr.32	s3, [r3, #12]
 2728 04fe B0EE480A 		vmov.f32	s0, s16
 2729              	.LVL223:
 2730 0502 FFF7FEFF 		bl	utils_map
 2731              	.LVL224:
 2732 0506 F0EE400A 		vmov.f32	s1, s0
 2733              	.LVL225:
 2734 050a C7E6     		b	.L281
 2735              	.LVL226:
 2736              	.L326:
ARM GAS  /var/folders/sv/kgmgr77579zbf78p2zlhkdfr0000gn/T//ccOxe4My.s 			page 49


 2737              		.loc 1 1535 0
 2738 050c D3ED030A 		vldr.32	s1, [r3, #12]
 2739              	.LVL227:
 2740 0510 C4E6     		b	.L281
 2741              	.LVL228:
 2742              	.L329:
 2743              		.loc 1 1510 0
 2744 0512 B0EE490A 		vmov.f32	s0, s18
 2745 0516 D3ED011A 		vldr.32	s3, [r3, #4]
 2746 051a 9FED2E2A 		vldr.32	s4, .L337+4
 2747 051e FFF7FEFF 		bl	utils_map
 2748              	.LVL229:
 2749 0522 B0EE409A 		vmov.f32	s18, s0
 2750              	.LVL230:
 2751 0526 67E6     		b	.L274
 2752              	.LVL231:
 2753              	.L330:
 2754              		.loc 1 1498 0
 2755 0528 D3ED011A 		vldr.32	s3, [r3, #4]
 2756 052c 9FED292A 		vldr.32	s4, .L337+4
 2757 0530 B0EE490A 		vmov.f32	s0, s18
 2758 0534 FFF7FEFF 		bl	utils_map
 2759              	.LVL232:
 2760 0538 B0EE40CA 		vmov.f32	s24, s0
 2761              	.LVL233:
 2762 053c 4BE6     		b	.L271
 2763              	.LVL234:
 2764              	.L331:
 2765              		.loc 1 1485 0
 2766 053e 93ED000A 		vldr.32	s0, [r3]
 2767 0542 9FED242A 		vldr.32	s4, .L337+4
 2768 0546 D4ED011A 		vldr.32	s3, [r4, #4]
 2769 054a F0EE4B0A 		vmov.f32	s1, s22
 2770 054e B0EE4C1A 		vmov.f32	s2, s24
 2771 0552 FFF7FEFF 		bl	utils_map
 2772              	.LVL235:
 2773 0556 B0EE40BA 		vmov.f32	s22, s0
 2774              	.LVL236:
 2775 055a 2BE6     		b	.L268
 2776              	.LVL237:
 2777              	.L332:
 2778              		.loc 1 1475 0
 2779 055c 93ED000A 		vldr.32	s0, [r3]
 2780              	.LVL238:
 2781 0560 9FED1C2A 		vldr.32	s4, .L337+4
 2782 0564 D7ED011A 		vldr.32	s3, [r7, #4]
 2783 0568 F0EE6B0A 		vmov.f32	s1, s23
 2784 056c B0EE6C1A 		vmov.f32	s2, s25
 2785 0570 FFF7FEFF 		bl	utils_map
 2786              	.LVL239:
 2787 0574 F0EE40BA 		vmov.f32	s23, s0
 2788              	.LVL240:
 2789 0578 11E6     		b	.L265
 2790              	.LVL241:
 2791              	.L314:
 2792              		.loc 1 1409 0
 2793 057a 9FED16AA 		vldr.32	s20, .L337+4
ARM GAS  /var/folders/sv/kgmgr77579zbf78p2zlhkdfr0000gn/T//ccOxe4My.s 			page 50


 2794 057e 59E7     		b	.L245
 2795              	.LVL242:
 2796              	.L334:
 2797              	.LBB148:
 2798              		.loc 1 1454 0
 2799 0580 D7ED017A 		vldr.32	s15, [r7, #4]
 2800 0584 F5EEC07A 		vcmpe.f32	s15, #0
 2801 0588 F1EE10FA 		vmrs	APSR_nzcv, FPSCR
 2802 058c FFEE007A 		vmov.f32	s15, #-1.0e+0
 2803 0590 F7EE00AA 		vmov.f32	s21, #1.0e+0
 2804 0594 48BF     		it	mi
 2805 0596 F0EE67AA 		vmovmi.f32	s21, s15
 2806 059a 60EE2AAA 		vmul.f32	s21, s0, s21
 2807              	.LVL243:
 2808 059e 8CE7     		b	.L258
 2809              	.LVL244:
 2810              	.L333:
 2811              	.LBE148:
 2812              	.LBB149:
 2813              	.LBB141:
 2814              		.loc 1 1088 0
 2815 05a0 0D4A     		ldr	r2, .L337+8
 2816              	.LBE141:
 2817              	.LBE149:
 2818              		.loc 1 1442 0
 2819 05a2 DFED0C9A 		vldr.32	s19, .L337+4
 2820              	.LBB150:
 2821              	.LBB142:
 2822              		.loc 1 1088 0
 2823 05a6 D3F84C31 		ldr	r3, [r3, #332]
 2824 05aa 1360     		str	r3, [r2]
 2825              	.LBE142:
 2826              	.LBE150:
 2827              		.loc 1 1443 0
 2828 05ac F0EE69AA 		vmov.f32	s21, s19
 2829 05b0 B1E5     		b	.L252
 2830              	.LVL245:
 2831              	.L328:
 2832              	.LBB151:
 2833              	.LBB133:
 2834              		.loc 1 1088 0
 2835 05b2 094B     		ldr	r3, .L337+8
 2836              	.LBE133:
 2837              	.LBE151:
 2838              		.loc 1 1415 0
 2839 05b4 DFED078A 		vldr.32	s17, .L337+4
 2840              	.LBB152:
 2841              	.LBB134:
 2842              		.loc 1 1088 0
 2843 05b8 D4F84C21 		ldr	r2, [r4, #332]
 2844 05bc 1A60     		str	r2, [r3]
 2845              	.LBE134:
 2846              	.LBE152:
 2847              		.loc 1 1416 0
 2848 05be B0EE68AA 		vmov.f32	s20, s17
 2849 05c2 98E5     		b	.L239
 2850              	.LVL246:
ARM GAS  /var/folders/sv/kgmgr77579zbf78p2zlhkdfr0000gn/T//ccOxe4My.s 			page 51


 2851              	.L319:
 2852              		.loc 1 1437 0
 2853 05c4 DFED039A 		vldr.32	s19, .L337+4
 2854 05c8 A5E5     		b	.L252
 2855              	.LVL247:
 2856              	.L315:
 2857              		.loc 1 1410 0
 2858 05ca DFED028A 		vldr.32	s17, .L337+4
 2859 05ce 92E5     		b	.L239
 2860              	.L338:
 2861              		.align	2
 2862              	.L337:
 2863 05d0 00000000 		.word	.LANCHOR12
 2864 05d4 00000000 		.word	0
 2865 05d8 00000000 		.word	.LANCHOR14
 2866              		.cfi_endproc
 2867              	.LFE318:
 2868              		.size	update_override_limits.constprop.5, .-update_override_limits.constprop.5
 2869              		.section	.text.mc_interface_set_configuration,"ax",%progbits
 2870              		.align	2
 2871              		.p2align 4,,15
 2872              		.global	mc_interface_set_configuration
 2873              		.thumb
 2874              		.thumb_func
 2875              		.type	mc_interface_set_configuration, %function
 2876              	mc_interface_set_configuration:
 2877              	.LFB258:
 2878              		.loc 1 178 0
 2879              		.cfi_startproc
 2880              		@ args = 0, pretend = 0, frame = 0
 2881              		@ frame_needed = 0, uses_anonymous_args = 0
 2882              	.LVL248:
 2883 0000 38B5     		push	{r3, r4, r5, lr}
 2884              		.cfi_def_cfa_offset 16
 2885              		.cfi_offset 3, -16
 2886              		.cfi_offset 4, -12
 2887              		.cfi_offset 5, -8
 2888              		.cfi_offset 14, -4
 2889              		.loc 1 180 0
 2890 0002 324C     		ldr	r4, .L361
 2891 0004 90F85C31 		ldrb	r3, [r0, #348]	@ zero_extendqisi2
 2892 0008 94F85C21 		ldrb	r2, [r4, #348]	@ zero_extendqisi2
 2893 000c 9A42     		cmp	r2, r3
 2894              		.loc 1 178 0
 2895 000e 0546     		mov	r5, r0
 2896              		.loc 1 180 0
 2897 0010 07D0     		beq	.L340
 2898              		.loc 1 181 0
 2899 0012 FFF7FEFF 		bl	encoder_deinit
 2900              	.LVL249:
 2901              		.loc 1 182 0
 2902 0016 95F85C31 		ldrb	r3, [r5, #348]	@ zero_extendqisi2
 2903 001a 012B     		cmp	r3, #1
 2904 001c 4ED0     		beq	.L341
 2905 001e 022B     		cmp	r3, #2
 2906 0020 41D0     		beq	.L342
 2907              	.L340:
ARM GAS  /var/folders/sv/kgmgr77579zbf78p2zlhkdfr0000gn/T//ccOxe4My.s 			page 52


 2908              		.loc 1 196 0
 2909 0022 012B     		cmp	r3, #1
 2910 0024 45D0     		beq	.L360
 2911              	.L343:
 2912              		.loc 1 206 0
 2913 0026 A378     		ldrb	r3, [r4, #2]	@ zero_extendqisi2
 2914 0028 032B     		cmp	r3, #3
 2915 002a 05D8     		bhi	.L344
 2916 002c DFE803F0 		tbb	[pc, r3]
 2917              	.L346:
 2918 0030 02       		.byte	(.L345-.L346)/2
 2919 0031 37       		.byte	(.L347-.L346)/2
 2920 0032 02       		.byte	(.L345-.L346)/2
 2921 0033 34       		.byte	(.L348-.L346)/2
 2922              		.p2align 1
 2923              	.L345:
 2924              		.loc 1 209 0
 2925 0034 FFF7FEFF 		bl	mcpwm_deinit
 2926              	.LVL250:
 2927              	.L344:
 2928              		.loc 1 221 0
 2929 0038 2946     		mov	r1, r5
 2930 003a 4FF4BA72 		mov	r2, #372
 2931 003e 2348     		ldr	r0, .L361
 2932 0040 FFF7FEFF 		bl	memcpy
 2933              	.LVL251:
 2934              		.loc 1 223 0
 2935 0044 A378     		ldrb	r3, [r4, #2]	@ zero_extendqisi2
 2936 0046 032B     		cmp	r3, #3
 2937 0048 06D8     		bhi	.L349
 2938 004a DFE803F0 		tbb	[pc, r3]
 2939              	.L351:
 2940 004e 02       		.byte	(.L350-.L351)/2
 2941 004f 21       		.byte	(.L352-.L351)/2
 2942 0050 02       		.byte	(.L350-.L351)/2
 2943 0051 1D       		.byte	(.L353-.L351)/2
 2944              		.p2align 1
 2945              	.L350:
 2946              		.loc 1 226 0
 2947 0052 1E48     		ldr	r0, .L361
 2948 0054 FFF7FEFF 		bl	mcpwm_init
 2949              	.LVL252:
 2950              	.L349:
 2951              		.loc 1 239 0
 2952 0058 FFF7FEFF 		bl	update_override_limits.constprop.5
 2953              	.LVL253:
 2954              		.loc 1 241 0
 2955 005c A378     		ldrb	r3, [r4, #2]	@ zero_extendqisi2
 2956 005e 032B     		cmp	r3, #3
 2957 0060 20D8     		bhi	.L339
 2958 0062 DFE803F0 		tbb	[pc, r3]
 2959              	.L356:
 2960 0066 0C       		.byte	(.L355-.L356)/2
 2961 0067 07       		.byte	(.L357-.L356)/2
 2962 0068 0C       		.byte	(.L355-.L356)/2
 2963 0069 02       		.byte	(.L358-.L356)/2
 2964              		.p2align 1
ARM GAS  /var/folders/sv/kgmgr77579zbf78p2zlhkdfr0000gn/T//ccOxe4My.s 			page 53


 2965              	.L358:
 2966              		.loc 1 250 0
 2967 006a 1848     		ldr	r0, .L361
 2968              		.loc 1 256 0
 2969 006c BDE83840 		pop	{r3, r4, r5, lr}
 2970              		.cfi_remember_state
 2971              		.cfi_restore 14
 2972              		.cfi_restore 5
 2973              		.cfi_restore 4
 2974              		.cfi_restore 3
 2975              		.cfi_def_cfa_offset 0
 2976              	.LVL254:
 2977              		.loc 1 250 0
 2978 0070 FFF7FEBF 		b	mcpwm_foc_set_configuration
 2979              	.LVL255:
 2980              	.L357:
 2981              		.cfi_restore_state
 2982              		.loc 1 247 0
 2983 0074 1548     		ldr	r0, .L361
 2984              		.loc 1 256 0
 2985 0076 BDE83840 		pop	{r3, r4, r5, lr}
 2986              		.cfi_remember_state
 2987              		.cfi_restore 14
 2988              		.cfi_restore 5
 2989              		.cfi_restore 4
 2990              		.cfi_restore 3
 2991              		.cfi_def_cfa_offset 0
 2992              	.LVL256:
 2993              		.loc 1 247 0
 2994 007a FFF7FEBF 		b	mcpwm_atc_set_configuration
 2995              	.LVL257:
 2996              	.L355:
 2997              		.cfi_restore_state
 2998              		.loc 1 244 0
 2999 007e 1348     		ldr	r0, .L361
 3000              		.loc 1 256 0
 3001 0080 BDE83840 		pop	{r3, r4, r5, lr}
 3002              		.cfi_remember_state
 3003              		.cfi_restore 14
 3004              		.cfi_restore 5
 3005              		.cfi_restore 4
 3006              		.cfi_restore 3
 3007              		.cfi_def_cfa_offset 0
 3008              	.LVL258:
 3009              		.loc 1 244 0
 3010 0084 FFF7FEBF 		b	mcpwm_set_configuration
 3011              	.LVL259:
 3012              	.L353:
 3013              		.cfi_restore_state
 3014              		.loc 1 232 0
 3015 0088 1048     		ldr	r0, .L361
 3016 008a FFF7FEFF 		bl	mcpwm_foc_init
 3017              	.LVL260:
 3018              		.loc 1 233 0
 3019 008e E3E7     		b	.L349
 3020              	.L352:
 3021              		.loc 1 229 0
ARM GAS  /var/folders/sv/kgmgr77579zbf78p2zlhkdfr0000gn/T//ccOxe4My.s 			page 54


 3022 0090 0E48     		ldr	r0, .L361
 3023 0092 FFF7FEFF 		bl	mcpwm_atc_init
 3024              	.LVL261:
 3025              		.loc 1 230 0
 3026 0096 DFE7     		b	.L349
 3027              	.L348:
 3028              		.loc 1 215 0
 3029 0098 FFF7FEFF 		bl	mcpwm_foc_deinit
 3030              	.LVL262:
 3031              		.loc 1 216 0
 3032 009c CCE7     		b	.L344
 3033              	.L347:
 3034              		.loc 1 212 0
 3035 009e FFF7FEFF 		bl	mcpwm_atc_deinit
 3036              	.LVL263:
 3037              		.loc 1 213 0
 3038 00a2 C9E7     		b	.L344
 3039              	.L339:
 3040 00a4 38BD     		pop	{r3, r4, r5, pc}
 3041              	.LVL264:
 3042              	.L342:
 3043              		.loc 1 188 0
 3044 00a6 FFF7FEFF 		bl	encoder_init_as5047p_spi
 3045              	.LVL265:
 3046 00aa 95F85C31 		ldrb	r3, [r5, #348]	@ zero_extendqisi2
 3047              		.loc 1 196 0
 3048 00ae 012B     		cmp	r3, #1
 3049 00b0 B9D1     		bne	.L343
 3050              	.L360:
 3051              		.loc 1 197 0
 3052 00b2 D5F85801 		ldr	r0, [r5, #344]
 3053 00b6 FFF7FEFF 		bl	encoder_set_counts
 3054              	.LVL266:
 3055 00ba B4E7     		b	.L343
 3056              	.L341:
 3057              		.loc 1 184 0
 3058 00bc D5F85801 		ldr	r0, [r5, #344]
 3059 00c0 FFF7FEFF 		bl	encoder_init_abi
 3060              	.LVL267:
 3061 00c4 95F85C31 		ldrb	r3, [r5, #348]	@ zero_extendqisi2
 3062              		.loc 1 185 0
 3063 00c8 ABE7     		b	.L340
 3064              	.L362:
 3065 00ca 00BF     		.align	2
 3066              	.L361:
 3067 00cc 00000000 		.word	.LANCHOR12
 3068              		.cfi_endproc
 3069              	.LFE258:
 3070              		.size	mc_interface_set_configuration, .-mc_interface_set_configuration
 3071              		.section	.text.timer_thread,"ax",%progbits
 3072              		.align	2
 3073              		.p2align 4,,15
 3074              		.thumb
 3075              		.thumb_func
 3076              		.type	timer_thread, %function
 3077              	timer_thread:
 3078              	.LFB311:
ARM GAS  /var/folders/sv/kgmgr77579zbf78p2zlhkdfr0000gn/T//ccOxe4My.s 			page 55


 3079              		.loc 1 1575 0
 3080              		.cfi_startproc
 3081              		@ Volatile: function does not return.
 3082              		@ args = 0, pretend = 0, frame = 0
 3083              		@ frame_needed = 0, uses_anonymous_args = 0
 3084              	.LVL268:
 3085              	.LBB153:
 3086              	.LBB154:
 3087              		.loc 2 135 0
 3088 0000 0E4B     		ldr	r3, .L372
 3089 0002 0F4C     		ldr	r4, .L372+4
 3090 0004 9B69     		ldr	r3, [r3, #24]
 3091 0006 0F4A     		ldr	r2, .L372+8
 3092 0008 DFF84080 		ldr	r8, .L372+16
 3093              	.LBE154:
 3094              	.LBE153:
 3095              		.loc 1 1585 0
 3096 000c 0E4E     		ldr	r6, .L372+12
 3097              		.loc 1 1575 0
 3098 000e 80B5     		push	{r7, lr}
 3099              		.cfi_def_cfa_offset 8
 3100              		.cfi_offset 7, -8
 3101              		.cfi_offset 14, -4
 3102              		.loc 1 1582 0
 3103 0010 2546     		mov	r5, r4
 3104              	.LBB156:
 3105              	.LBB155:
 3106              		.loc 2 135 0
 3107 0012 9A61     		str	r2, [r3, #24]
 3108              	.LBE155:
 3109              	.LBE156:
 3110              		.loc 1 1586 0
 3111 0014 0027     		movs	r7, #0
 3112 0016 05E0     		b	.L366
 3113              	.LVL269:
 3114              	.L371:
 3115              		.loc 1 1583 0
 3116 0018 2B60     		str	r3, [r5]
 3117              	.L365:
 3118              		.loc 1 1590 0
 3119 001a FFF7FEFF 		bl	update_override_limits.constprop.5
 3120              	.LVL270:
 3121              		.loc 1 1592 0
 3122 001e 0A20     		movs	r0, #10
 3123 0020 FFF7FEFF 		bl	chThdSleep
 3124              	.LVL271:
 3125              	.L366:
 3126              		.loc 1 1582 0
 3127 0024 2368     		ldr	r3, [r4]
 3128 0026 002B     		cmp	r3, #0
 3129              		.loc 1 1583 0
 3130 0028 03F1FF33 		add	r3, r3, #-1
 3131              		.loc 1 1582 0
 3132 002c F4DC     		bgt	.L371
 3133              		.loc 1 1585 0
 3134 002e 3369     		ldr	r3, [r6, #16]
 3135 0030 DB04     		lsls	r3, r3, #19
ARM GAS  /var/folders/sv/kgmgr77579zbf78p2zlhkdfr0000gn/T//ccOxe4My.s 			page 56


 3136              		.loc 1 1586 0
 3137 0032 48BF     		it	mi
 3138 0034 88F80070 		strbmi	r7, [r8]
 3139 0038 EFE7     		b	.L365
 3140              	.L373:
 3141 003a 00BF     		.align	2
 3142              	.L372:
 3143 003c 00000000 		.word	ch
 3144 0040 00000000 		.word	.LANCHOR14
 3145 0044 20000000 		.word	.LC2
 3146 0048 00080240 		.word	1073874944
 3147 004c 00000000 		.word	.LANCHOR13
 3148              		.cfi_endproc
 3149              	.LFE311:
 3150              		.size	timer_thread, .-timer_thread
 3151              		.section	.text.mc_interface_get_tachometer_abs_value,"ax",%progbits
 3152              		.align	2
 3153              		.p2align 4,,15
 3154              		.global	mc_interface_get_tachometer_abs_value
 3155              		.thumb
 3156              		.thumb_func
 3157              		.type	mc_interface_get_tachometer_abs_value, %function
 3158              	mc_interface_get_tachometer_abs_value:
 3159              	.LFB294:
 3160              		.loc 1 879 0
 3161              		.cfi_startproc
 3162              		@ args = 0, pretend = 0, frame = 0
 3163              		@ frame_needed = 0, uses_anonymous_args = 0
 3164              		@ link register save eliminated.
 3165              	.LVL272:
 3166              		.loc 1 882 0
 3167 0000 074B     		ldr	r3, .L380
 3168 0002 9B78     		ldrb	r3, [r3, #2]	@ zero_extendqisi2
 3169 0004 032B     		cmp	r3, #3
 3170 0006 09D8     		bhi	.L375
 3171 0008 DFE803F0 		tbb	[pc, r3]
 3172              	.L377:
 3173 000c 06       		.byte	(.L376-.L377)/2
 3174 000d 04       		.byte	(.L378-.L377)/2
 3175 000e 06       		.byte	(.L376-.L377)/2
 3176 000f 02       		.byte	(.L379-.L377)/2
 3177              		.p2align 1
 3178              	.L379:
 3179              		.loc 1 891 0
 3180 0010 FFF7FEBF 		b	mcpwm_foc_get_tachometer_abs_value
 3181              	.LVL273:
 3182              	.L378:
 3183              		.loc 1 888 0
 3184 0014 FFF7FEBF 		b	mcpwm_atc_get_tachometer_abs_value
 3185              	.LVL274:
 3186              	.L376:
 3187              		.loc 1 885 0
 3188 0018 FFF7FEBF 		b	mcpwm_get_tachometer_abs_value
 3189              	.LVL275:
 3190              	.L375:
 3191              		.loc 1 899 0
 3192 001c 0020     		movs	r0, #0
ARM GAS  /var/folders/sv/kgmgr77579zbf78p2zlhkdfr0000gn/T//ccOxe4My.s 			page 57


 3193              	.LVL276:
 3194 001e 7047     		bx	lr
 3195              	.L381:
 3196              		.align	2
 3197              	.L380:
 3198 0020 00000000 		.word	.LANCHOR12
 3199              		.cfi_endproc
 3200              	.LFE294:
 3201              		.size	mc_interface_get_tachometer_abs_value, .-mc_interface_get_tachometer_abs_value
 3202              		.section	.text.mc_interface_get_last_inj_adc_isr_duration,"ax",%progbits
 3203              		.align	2
 3204              		.p2align 4,,15
 3205              		.global	mc_interface_get_last_inj_adc_isr_duration
 3206              		.thumb
 3207              		.thumb_func
 3208              		.type	mc_interface_get_last_inj_adc_isr_duration, %function
 3209              	mc_interface_get_last_inj_adc_isr_duration:
 3210              	.LFB295:
 3211              		.loc 1 901 0
 3212              		.cfi_startproc
 3213              		@ args = 0, pretend = 0, frame = 0
 3214              		@ frame_needed = 0, uses_anonymous_args = 0
 3215              		@ link register save eliminated.
 3216              	.LVL277:
 3217              		.loc 1 904 0
 3218 0000 084B     		ldr	r3, .L388
 3219 0002 9B78     		ldrb	r3, [r3, #2]	@ zero_extendqisi2
 3220 0004 032B     		cmp	r3, #3
 3221 0006 09D8     		bhi	.L383
 3222 0008 DFE803F0 		tbb	[pc, r3]
 3223              	.L385:
 3224 000c 06       		.byte	(.L384-.L385)/2
 3225 000d 04       		.byte	(.L386-.L385)/2
 3226 000e 06       		.byte	(.L384-.L385)/2
 3227 000f 02       		.byte	(.L387-.L385)/2
 3228              		.p2align 1
 3229              	.L387:
 3230              		.loc 1 913 0
 3231 0010 FFF7FEBF 		b	mcpwm_foc_get_last_inj_adc_isr_duration
 3232              	.LVL278:
 3233              	.L386:
 3234              		.loc 1 910 0
 3235 0014 FFF7FEBF 		b	mcpwm_atc_get_last_inj_adc_isr_duration
 3236              	.LVL279:
 3237              	.L384:
 3238              		.loc 1 907 0
 3239 0018 FFF7FEBF 		b	mcpwm_get_last_inj_adc_isr_duration
 3240              	.LVL280:
 3241              	.L383:
 3242              		.loc 1 921 0
 3243 001c 9FED020A 		vldr.32	s0, .L388+4
 3244 0020 7047     		bx	lr
 3245              	.L389:
 3246 0022 00BF     		.align	2
 3247              	.L388:
 3248 0024 00000000 		.word	.LANCHOR12
 3249 0028 00000000 		.word	0
ARM GAS  /var/folders/sv/kgmgr77579zbf78p2zlhkdfr0000gn/T//ccOxe4My.s 			page 58


 3250              		.cfi_endproc
 3251              	.LFE295:
 3252              		.size	mc_interface_get_last_inj_adc_isr_duration, .-mc_interface_get_last_inj_adc_isr_duration
 3253              		.section	.text.mc_interface_read_reset_avg_motor_current,"ax",%progbits
 3254              		.align	2
 3255              		.p2align 4,,15
 3256              		.global	mc_interface_read_reset_avg_motor_current
 3257              		.thumb
 3258              		.thumb_func
 3259              		.type	mc_interface_read_reset_avg_motor_current, %function
 3260              	mc_interface_read_reset_avg_motor_current:
 3261              	.LFB296:
 3262              		.loc 1 923 0
 3263              		.cfi_startproc
 3264              		@ args = 0, pretend = 0, frame = 0
 3265              		@ frame_needed = 0, uses_anonymous_args = 0
 3266              		@ link register save eliminated.
 3267              		.loc 1 924 0
 3268 0000 0549     		ldr	r1, .L391
 3269 0002 064B     		ldr	r3, .L391+4
 3270 0004 91ED000A 		vldr.32	s0, [r1]
 3271 0008 D3ED007A 		vldr.32	s15, [r3]
 3272              	.LVL281:
 3273              		.loc 1 925 0
 3274 000c 0022     		movs	r2, #0
 3275 000e 0A60     		str	r2, [r1]	@ float
 3276              		.loc 1 928 0
 3277 0010 80EE270A 		vdiv.f32	s0, s0, s15
 3278              	.LVL282:
 3279              		.loc 1 926 0
 3280 0014 1A60     		str	r2, [r3]	@ float
 3281              		.loc 1 928 0
 3282 0016 7047     		bx	lr
 3283              	.L392:
 3284              		.align	2
 3285              	.L391:
 3286 0018 00000000 		.word	.LANCHOR18
 3287 001c 00000000 		.word	.LANCHOR20
 3288              		.cfi_endproc
 3289              	.LFE296:
 3290              		.size	mc_interface_read_reset_avg_motor_current, .-mc_interface_read_reset_avg_motor_current
 3291              		.section	.text.mc_interface_read_reset_avg_input_current,"ax",%progbits
 3292              		.align	2
 3293              		.p2align 4,,15
 3294              		.global	mc_interface_read_reset_avg_input_current
 3295              		.thumb
 3296              		.thumb_func
 3297              		.type	mc_interface_read_reset_avg_input_current, %function
 3298              	mc_interface_read_reset_avg_input_current:
 3299              	.LFB297:
 3300              		.loc 1 930 0
 3301              		.cfi_startproc
 3302              		@ args = 0, pretend = 0, frame = 0
 3303              		@ frame_needed = 0, uses_anonymous_args = 0
 3304              		@ link register save eliminated.
 3305              		.loc 1 931 0
 3306 0000 0549     		ldr	r1, .L394
ARM GAS  /var/folders/sv/kgmgr77579zbf78p2zlhkdfr0000gn/T//ccOxe4My.s 			page 59


 3307 0002 064B     		ldr	r3, .L394+4
 3308 0004 91ED000A 		vldr.32	s0, [r1]
 3309 0008 D3ED007A 		vldr.32	s15, [r3]
 3310              	.LVL283:
 3311              		.loc 1 932 0
 3312 000c 0022     		movs	r2, #0
 3313 000e 0A60     		str	r2, [r1]	@ float
 3314              		.loc 1 935 0
 3315 0010 80EE270A 		vdiv.f32	s0, s0, s15
 3316              	.LVL284:
 3317              		.loc 1 933 0
 3318 0014 1A60     		str	r2, [r3]	@ float
 3319              		.loc 1 935 0
 3320 0016 7047     		bx	lr
 3321              	.L395:
 3322              		.align	2
 3323              	.L394:
 3324 0018 00000000 		.word	.LANCHOR19
 3325 001c 00000000 		.word	.LANCHOR21
 3326              		.cfi_endproc
 3327              	.LFE297:
 3328              		.size	mc_interface_read_reset_avg_input_current, .-mc_interface_read_reset_avg_input_current
 3329              		.section	.text.mc_interface_read_reset_avg_id,"ax",%progbits
 3330              		.align	2
 3331              		.p2align 4,,15
 3332              		.global	mc_interface_read_reset_avg_id
 3333              		.thumb
 3334              		.thumb_func
 3335              		.type	mc_interface_read_reset_avg_id, %function
 3336              	mc_interface_read_reset_avg_id:
 3337              	.LFB298:
 3338              		.loc 1 943 0
 3339              		.cfi_startproc
 3340              		@ args = 0, pretend = 0, frame = 0
 3341              		@ frame_needed = 0, uses_anonymous_args = 0
 3342              		@ link register save eliminated.
 3343              		.loc 1 944 0
 3344 0000 0C49     		ldr	r1, .L399
 3345 0002 0D4B     		ldr	r3, .L399+4
 3346 0004 91ED007A 		vldr.32	s14, [r1]
 3347 0008 D3ED007A 		vldr.32	s15, [r3]
 3348              		.loc 1 947 0
 3349 000c 0B48     		ldr	r0, .L399+8
 3350              		.loc 1 944 0
 3351 000e 87EE270A 		vdiv.f32	s0, s14, s15
 3352              	.LVL285:
 3353              		.loc 1 945 0
 3354 0012 0022     		movs	r2, #0
 3355 0014 0A60     		str	r2, [r1]	@ float
 3356              		.loc 1 946 0
 3357 0016 1A60     		str	r2, [r3]	@ float
 3358              		.loc 1 947 0
 3359 0018 90F85D31 		ldrb	r3, [r0, #349]	@ zero_extendqisi2
 3360 001c 002B     		cmp	r3, #0
 3361 001e B7EE007A 		vmov.f32	s14, #1.0e+0
 3362 0022 FFEE007A 		vmov.f32	s15, #-1.0e+0
 3363 0026 08BF     		it	eq
ARM GAS  /var/folders/sv/kgmgr77579zbf78p2zlhkdfr0000gn/T//ccOxe4My.s 			page 60


 3364 0028 F0EE477A 		vmoveq.f32	s15, s14
 3365              		.loc 1 948 0
 3366 002c 27EE800A 		vmul.f32	s0, s15, s0
 3367              	.LVL286:
 3368 0030 7047     		bx	lr
 3369              	.L400:
 3370 0032 00BF     		.align	2
 3371              	.L399:
 3372 0034 00000000 		.word	.LANCHOR22
 3373 0038 00000000 		.word	.LANCHOR24
 3374 003c 00000000 		.word	.LANCHOR12
 3375              		.cfi_endproc
 3376              	.LFE298:
 3377              		.size	mc_interface_read_reset_avg_id, .-mc_interface_read_reset_avg_id
 3378              		.section	.text.mc_interface_read_reset_avg_iq,"ax",%progbits
 3379              		.align	2
 3380              		.p2align 4,,15
 3381              		.global	mc_interface_read_reset_avg_iq
 3382              		.thumb
 3383              		.thumb_func
 3384              		.type	mc_interface_read_reset_avg_iq, %function
 3385              	mc_interface_read_reset_avg_iq:
 3386              	.LFB299:
 3387              		.loc 1 956 0
 3388              		.cfi_startproc
 3389              		@ args = 0, pretend = 0, frame = 0
 3390              		@ frame_needed = 0, uses_anonymous_args = 0
 3391              		@ link register save eliminated.
 3392              		.loc 1 957 0
 3393 0000 0C49     		ldr	r1, .L404
 3394 0002 0D4B     		ldr	r3, .L404+4
 3395 0004 91ED007A 		vldr.32	s14, [r1]
 3396 0008 D3ED007A 		vldr.32	s15, [r3]
 3397              		.loc 1 960 0
 3398 000c 0B48     		ldr	r0, .L404+8
 3399              		.loc 1 957 0
 3400 000e 87EE270A 		vdiv.f32	s0, s14, s15
 3401              	.LVL287:
 3402              		.loc 1 958 0
 3403 0012 0022     		movs	r2, #0
 3404 0014 0A60     		str	r2, [r1]	@ float
 3405              		.loc 1 959 0
 3406 0016 1A60     		str	r2, [r3]	@ float
 3407              		.loc 1 960 0
 3408 0018 90F85D31 		ldrb	r3, [r0, #349]	@ zero_extendqisi2
 3409 001c 002B     		cmp	r3, #0
 3410 001e B7EE007A 		vmov.f32	s14, #1.0e+0
 3411 0022 FFEE007A 		vmov.f32	s15, #-1.0e+0
 3412 0026 08BF     		it	eq
 3413 0028 F0EE477A 		vmoveq.f32	s15, s14
 3414              		.loc 1 961 0
 3415 002c 27EE800A 		vmul.f32	s0, s15, s0
 3416              	.LVL288:
 3417 0030 7047     		bx	lr
 3418              	.L405:
 3419 0032 00BF     		.align	2
 3420              	.L404:
ARM GAS  /var/folders/sv/kgmgr77579zbf78p2zlhkdfr0000gn/T//ccOxe4My.s 			page 61


 3421 0034 00000000 		.word	.LANCHOR23
 3422 0038 00000000 		.word	.LANCHOR25
 3423 003c 00000000 		.word	.LANCHOR12
 3424              		.cfi_endproc
 3425              	.LFE299:
 3426              		.size	mc_interface_read_reset_avg_iq, .-mc_interface_read_reset_avg_iq
 3427              		.section	.text.mc_interface_get_pid_pos_set,"ax",%progbits
 3428              		.align	2
 3429              		.p2align 4,,15
 3430              		.global	mc_interface_get_pid_pos_set
 3431              		.thumb
 3432              		.thumb_func
 3433              		.type	mc_interface_get_pid_pos_set, %function
 3434              	mc_interface_get_pid_pos_set:
 3435              	.LFB300:
 3436              		.loc 1 963 0
 3437              		.cfi_startproc
 3438              		@ args = 0, pretend = 0, frame = 0
 3439              		@ frame_needed = 0, uses_anonymous_args = 0
 3440              		@ link register save eliminated.
 3441              		.loc 1 964 0
 3442 0000 014B     		ldr	r3, .L407
 3443 0002 93ED000A 		vldr.32	s0, [r3]
 3444              		.loc 1 965 0
 3445 0006 7047     		bx	lr
 3446              	.L408:
 3447              		.align	2
 3448              	.L407:
 3449 0008 00000000 		.word	.LANCHOR30
 3450              		.cfi_endproc
 3451              	.LFE300:
 3452              		.size	mc_interface_get_pid_pos_set, .-mc_interface_get_pid_pos_set
 3453              		.section	.text.mc_interface_get_pid_pos_now,"ax",%progbits
 3454              		.align	2
 3455              		.p2align 4,,15
 3456              		.global	mc_interface_get_pid_pos_now
 3457              		.thumb
 3458              		.thumb_func
 3459              		.type	mc_interface_get_pid_pos_now, %function
 3460              	mc_interface_get_pid_pos_now:
 3461              	.LFB301:
 3462              		.loc 1 967 0
 3463              		.cfi_startproc
 3464              		@ args = 0, pretend = 0, frame = 8
 3465              		@ frame_needed = 0, uses_anonymous_args = 0
 3466 0000 10B5     		push	{r4, lr}
 3467              		.cfi_def_cfa_offset 8
 3468              		.cfi_offset 4, -8
 3469              		.cfi_offset 14, -4
 3470              		.loc 1 970 0
 3471 0002 154C     		ldr	r4, .L419
 3472              		.loc 1 967 0
 3473 0004 82B0     		sub	sp, sp, #8
 3474              		.cfi_def_cfa_offset 16
 3475              		.loc 1 970 0
 3476 0006 A378     		ldrb	r3, [r4, #2]	@ zero_extendqisi2
 3477              		.loc 1 968 0
ARM GAS  /var/folders/sv/kgmgr77579zbf78p2zlhkdfr0000gn/T//ccOxe4My.s 			page 62


 3478 0008 0022     		movs	r2, #0
 3479 000a 0192     		str	r2, [sp, #4]	@ float
 3480              		.loc 1 970 0
 3481 000c 032B     		cmp	r3, #3
 3482 000e 20D8     		bhi	.L416
 3483 0010 DFE803F0 		tbb	[pc, r3]
 3484              	.L412:
 3485 0014 1C       		.byte	(.L411-.L412)/2
 3486 0015 19       		.byte	(.L413-.L412)/2
 3487 0016 1C       		.byte	(.L411-.L412)/2
 3488 0017 02       		.byte	(.L414-.L412)/2
 3489              		.p2align 1
 3490              	.L414:
 3491              		.loc 1 979 0
 3492 0018 FFF7FEFF 		bl	mcpwm_foc_get_pid_pos_now
 3493              	.LVL289:
 3494              	.L410:
 3495              		.loc 1 986 0
 3496 001c 94F85D31 		ldrb	r3, [r4, #349]	@ zero_extendqisi2
 3497 0020 BFEE007A 		vmov.f32	s14, #-1.0e+0
 3498 0024 002B     		cmp	r3, #0
 3499 0026 F7EE007A 		vmov.f32	s15, #1.0e+0
 3500 002a 18BF     		it	ne
 3501 002c F0EE477A 		vmovne.f32	s15, s14
 3502 0030 27EE800A 		vmul.f32	s0, s15, s0
 3503 0034 02A8     		add	r0, sp, #8
 3504 0036 20ED010A 		vstmdb.32	r0!, {s0}
 3505              		.loc 1 987 0
 3506 003a FFF7FEFF 		bl	utils_norm_angle
 3507              	.LVL290:
 3508              		.loc 1 990 0
 3509 003e 9DED010A 		vldr.32	s0, [sp, #4]
 3510 0042 02B0     		add	sp, sp, #8
 3511              		.cfi_remember_state
 3512              		.cfi_def_cfa_offset 8
 3513              		@ sp needed
 3514 0044 10BD     		pop	{r4, pc}
 3515              	.L413:
 3516              		.cfi_restore_state
 3517              		.loc 1 976 0
 3518 0046 FFF7FEFF 		bl	mcpwm_atc_get_pid_pos_now
 3519              	.LVL291:
 3520              		.loc 1 977 0
 3521 004a E7E7     		b	.L410
 3522              	.L411:
 3523              		.loc 1 973 0
 3524 004c FFF7FEFF 		bl	encoder_read_deg
 3525              	.LVL292:
 3526              		.loc 1 974 0
 3527 0050 E4E7     		b	.L410
 3528              	.L416:
 3529              		.loc 1 970 0
 3530 0052 9FED020A 		vldr.32	s0, .L419+4
 3531 0056 E1E7     		b	.L410
 3532              	.L420:
 3533              		.align	2
 3534              	.L419:
ARM GAS  /var/folders/sv/kgmgr77579zbf78p2zlhkdfr0000gn/T//ccOxe4My.s 			page 63


 3535 0058 00000000 		.word	.LANCHOR12
 3536 005c 00000000 		.word	0
 3537              		.cfi_endproc
 3538              	.LFE301:
 3539              		.size	mc_interface_get_pid_pos_now, .-mc_interface_get_pid_pos_now
 3540              		.section	.text.mc_interface_get_last_sample_adc_isr_duration,"ax",%progbits
 3541              		.align	2
 3542              		.p2align 4,,15
 3543              		.global	mc_interface_get_last_sample_adc_isr_duration
 3544              		.thumb
 3545              		.thumb_func
 3546              		.type	mc_interface_get_last_sample_adc_isr_duration, %function
 3547              	mc_interface_get_last_sample_adc_isr_duration:
 3548              	.LFB302:
 3549              		.loc 1 992 0
 3550              		.cfi_startproc
 3551              		@ args = 0, pretend = 0, frame = 0
 3552              		@ frame_needed = 0, uses_anonymous_args = 0
 3553              		@ link register save eliminated.
 3554              		.loc 1 993 0
 3555 0000 014B     		ldr	r3, .L422
 3556 0002 93ED000A 		vldr.32	s0, [r3]
 3557              		.loc 1 994 0
 3558 0006 7047     		bx	lr
 3559              	.L423:
 3560              		.align	2
 3561              	.L422:
 3562 0008 00000000 		.word	.LANCHOR31
 3563              		.cfi_endproc
 3564              	.LFE302:
 3565              		.size	mc_interface_get_last_sample_adc_isr_duration, .-mc_interface_get_last_sample_adc_isr_durati
 3566              		.section	.text.mc_interface_sample_print_data,"ax",%progbits
 3567              		.align	2
 3568              		.p2align 4,,15
 3569              		.global	mc_interface_sample_print_data
 3570              		.thumb
 3571              		.thumb_func
 3572              		.type	mc_interface_sample_print_data, %function
 3573              	mc_interface_sample_print_data:
 3574              	.LFB303:
 3575              		.loc 1 996 0
 3576              		.cfi_startproc
 3577              		@ args = 0, pretend = 0, frame = 0
 3578              		@ frame_needed = 0, uses_anonymous_args = 0
 3579              	.LVL293:
 3580 0000 B1F5FA6F 		cmp	r1, #2000
 3581 0004 28BF     		it	cs
 3582 0006 4FF4FA61 		movcs	r1, #2000
 3583              	.LVL294:
 3584              		.loc 1 1001 0
 3585 000a 0728     		cmp	r0, #7
 3586 000c 0FD0     		beq	.L427
 3587              		.loc 1 996 0
 3588 000e F0B5     		push	{r4, r5, r6, r7, lr}
 3589              		.cfi_def_cfa_offset 20
 3590              		.cfi_offset 4, -20
 3591              		.cfi_offset 5, -16
ARM GAS  /var/folders/sv/kgmgr77579zbf78p2zlhkdfr0000gn/T//ccOxe4My.s 			page 64


 3592              		.cfi_offset 6, -12
 3593              		.cfi_offset 7, -8
 3594              		.cfi_offset 14, -4
 3595              		.loc 1 1004 0
 3596 0010 094F     		ldr	r7, .L428
 3597              		.loc 1 1005 0
 3598 0012 0A4E     		ldr	r6, .L428+4
 3599              		.loc 1 1006 0
 3600 0014 0A4D     		ldr	r5, .L428+8
 3601              		.loc 1 1007 0
 3602 0016 0B4C     		ldr	r4, .L428+12
 3603              		.loc 1 1008 0
 3604 0018 0B4B     		ldr	r3, .L428+16
 3605              		.loc 1 1004 0
 3606 001a 4FF0FF3E 		mov	lr, #-1
 3607 001e C7F800E0 		str	lr, [r7]
 3608              		.loc 1 1005 0
 3609 0022 0027     		movs	r7, #0
 3610 0024 3760     		str	r7, [r6]
 3611              		.loc 1 1006 0
 3612 0026 2960     		str	r1, [r5]
 3613              		.loc 1 1007 0
 3614 0028 2260     		str	r2, [r4]
 3615              		.loc 1 1008 0
 3616 002a 1870     		strb	r0, [r3]
 3617 002c F0BD     		pop	{r4, r5, r6, r7, pc}
 3618              	.L427:
 3619              		.cfi_def_cfa_offset 0
 3620              		.cfi_restore 4
 3621              		.cfi_restore 5
 3622              		.cfi_restore 6
 3623              		.cfi_restore 7
 3624              		.cfi_restore 14
 3625              		.loc 1 1002 0
 3626 002e 074B     		ldr	r3, .L428+20
 3627 0030 0121     		movs	r1, #1
 3628              	.LVL295:
 3629 0032 1868     		ldr	r0, [r3]
 3630              	.LVL296:
 3631 0034 FFF7FEBF 		b	chEvtSignal
 3632              	.LVL297:
 3633              	.L429:
 3634              		.align	2
 3635              	.L428:
 3636 0038 00000000 		.word	.LANCHOR3
 3637 003c 00000000 		.word	.LANCHOR35
 3638 0040 00000000 		.word	.LANCHOR2
 3639 0044 00000000 		.word	.LANCHOR34
 3640 0048 00000000 		.word	.LANCHOR36
 3641 004c 00000000 		.word	.LANCHOR0
 3642              		.cfi_endproc
 3643              	.LFE303:
 3644              		.size	mc_interface_sample_print_data, .-mc_interface_sample_print_data
 3645              		.section	.text.mc_interface_temp_fet_filtered,"ax",%progbits
 3646              		.align	2
 3647              		.p2align 4,,15
 3648              		.global	mc_interface_temp_fet_filtered
ARM GAS  /var/folders/sv/kgmgr77579zbf78p2zlhkdfr0000gn/T//ccOxe4My.s 			page 65


 3649              		.thumb
 3650              		.thumb_func
 3651              		.type	mc_interface_temp_fet_filtered, %function
 3652              	mc_interface_temp_fet_filtered:
 3653              	.LFB304:
 3654              		.loc 1 1019 0
 3655              		.cfi_startproc
 3656              		@ args = 0, pretend = 0, frame = 0
 3657              		@ frame_needed = 0, uses_anonymous_args = 0
 3658              		@ link register save eliminated.
 3659              		.loc 1 1020 0
 3660 0000 014B     		ldr	r3, .L431
 3661 0002 93ED000A 		vldr.32	s0, [r3]
 3662              		.loc 1 1021 0
 3663 0006 7047     		bx	lr
 3664              	.L432:
 3665              		.align	2
 3666              	.L431:
 3667 0008 00000000 		.word	.LANCHOR32
 3668              		.cfi_endproc
 3669              	.LFE304:
 3670              		.size	mc_interface_temp_fet_filtered, .-mc_interface_temp_fet_filtered
 3671              		.section	.text.mc_interface_temp_motor_filtered,"ax",%progbits
 3672              		.align	2
 3673              		.p2align 4,,15
 3674              		.global	mc_interface_temp_motor_filtered
 3675              		.thumb
 3676              		.thumb_func
 3677              		.type	mc_interface_temp_motor_filtered, %function
 3678              	mc_interface_temp_motor_filtered:
 3679              	.LFB305:
 3680              		.loc 1 1030 0
 3681              		.cfi_startproc
 3682              		@ args = 0, pretend = 0, frame = 0
 3683              		@ frame_needed = 0, uses_anonymous_args = 0
 3684              		@ link register save eliminated.
 3685              		.loc 1 1031 0
 3686 0000 014B     		ldr	r3, .L434
 3687 0002 93ED000A 		vldr.32	s0, [r3]
 3688              		.loc 1 1032 0
 3689 0006 7047     		bx	lr
 3690              	.L435:
 3691              		.align	2
 3692              	.L434:
 3693 0008 00000000 		.word	.LANCHOR33
 3694              		.cfi_endproc
 3695              	.LFE305:
 3696              		.size	mc_interface_temp_motor_filtered, .-mc_interface_temp_motor_filtered
 3697              		.section	.text.mc_interface_try_input,"ax",%progbits
 3698              		.align	2
 3699              		.p2align 4,,15
 3700              		.global	mc_interface_try_input
 3701              		.thumb
 3702              		.thumb_func
 3703              		.type	mc_interface_try_input, %function
 3704              	mc_interface_try_input:
 3705              	.LFB306:
ARM GAS  /var/folders/sv/kgmgr77579zbf78p2zlhkdfr0000gn/T//ccOxe4My.s 			page 66


 3706              		.loc 1 1044 0
 3707              		.cfi_startproc
 3708              		@ args = 0, pretend = 0, frame = 0
 3709              		@ frame_needed = 0, uses_anonymous_args = 0
 3710 0000 10B5     		push	{r4, lr}
 3711              		.cfi_def_cfa_offset 8
 3712              		.cfi_offset 4, -8
 3713              		.cfi_offset 14, -4
 3714              		.loc 1 1046 0
 3715 0002 FFF7FEFF 		bl	mc_interface_get_state
 3716              	.LVL298:
 3717 0006 0128     		cmp	r0, #1
 3718 0008 25D0     		beq	.L453
 3719              		.loc 1 1051 0
 3720 000a 164B     		ldr	r3, .L455
 3721 000c 1C68     		ldr	r4, [r3]
 3722              	.LVL299:
 3723              		.loc 1 1053 0
 3724 000e 34B9     		cbnz	r4, .L438
 3725              		.loc 1 1053 0 is_stmt 0 discriminator 1
 3726 0010 154B     		ldr	r3, .L455+4
 3727 0012 1B78     		ldrb	r3, [r3]	@ zero_extendqisi2
 3728 0014 1BB1     		cbz	r3, .L438
 3729              		.loc 1 1054 0 is_stmt 1
 3730 0016 154B     		ldr	r3, .L455+8
 3731 0018 1A78     		ldrb	r2, [r3]	@ zero_extendqisi2
 3732 001a D2B9     		cbnz	r2, .L454
 3733              		.loc 1 1055 0
 3734 001c 0124     		movs	r4, #1
 3735              	.LVL300:
 3736              	.L438:
 3737              		.loc 1 1061 0
 3738 001e 144B     		ldr	r3, .L455+12
 3739 0020 9B78     		ldrb	r3, [r3, #2]	@ zero_extendqisi2
 3740 0022 032B     		cmp	r3, #3
 3741 0024 07D8     		bhi	.L439
 3742 0026 DFE803F0 		tbb	[pc, r3]
 3743              	.L441:
 3744 002a 0E       		.byte	(.L440-.L441)/2
 3745 002b 08       		.byte	(.L442-.L441)/2
 3746 002c 0E       		.byte	(.L440-.L441)/2
 3747 002d 02       		.byte	(.L443-.L441)/2
 3748              		.p2align 1
 3749              	.L443:
 3750              		.loc 1 1074 0
 3751 002e FFF7FEFF 		bl	mcpwm_foc_init_done
 3752              	.LVL301:
 3753 0032 00B9     		cbnz	r0, .L439
 3754              	.LVL302:
 3755              		.loc 1 1065 0
 3756 0034 0124     		movs	r4, #1
 3757              	.LVL303:
 3758              	.L439:
 3759              		.loc 1 1084 0
 3760 0036 2046     		mov	r0, r4
 3761 0038 10BD     		pop	{r4, pc}
 3762              	.LVL304:
ARM GAS  /var/folders/sv/kgmgr77579zbf78p2zlhkdfr0000gn/T//ccOxe4My.s 			page 67


 3763              	.L442:
 3764              		.loc 1 1069 0
 3765 003a FFF7FEFF 		bl	mcpwm_atc_init_done
 3766              	.LVL305:
 3767 003e 0028     		cmp	r0, #0
 3768 0040 F9D1     		bne	.L439
 3769              	.LVL306:
 3770              		.loc 1 1065 0
 3771 0042 0124     		movs	r4, #1
 3772 0044 F7E7     		b	.L439
 3773              	.LVL307:
 3774              	.L440:
 3775              		.loc 1 1064 0
 3776 0046 FFF7FEFF 		bl	mcpwm_init_done
 3777              	.LVL308:
 3778 004a 0028     		cmp	r0, #0
 3779 004c F3D1     		bne	.L439
 3780              	.LVL309:
 3781              		.loc 1 1065 0
 3782 004e 0124     		movs	r4, #1
 3783 0050 F1E7     		b	.L439
 3784              	.LVL310:
 3785              	.L454:
 3786              		.loc 1 1057 0
 3787 0052 1C70     		strb	r4, [r3]
 3788 0054 E3E7     		b	.L438
 3789              	.LVL311:
 3790              	.L453:
 3791              		.loc 1 1047 0
 3792 0056 FFF7FEFF 		bl	mcpwm_stop_pwm
 3793              	.LVL312:
 3794              		.loc 1 1048 0
 3795 005a 024B     		ldr	r3, .L455
 3796 005c 4FF4FA74 		mov	r4, #500
 3797 0060 1C60     		str	r4, [r3]
 3798              	.LVL313:
 3799 0062 DCE7     		b	.L438
 3800              	.L456:
 3801              		.align	2
 3802              	.L455:
 3803 0064 00000000 		.word	.LANCHOR14
 3804 0068 00000000 		.word	.LANCHOR16
 3805 006c 00000000 		.word	.LANCHOR17
 3806 0070 00000000 		.word	.LANCHOR12
 3807              		.cfi_endproc
 3808              	.LFE306:
 3809              		.size	mc_interface_try_input, .-mc_interface_try_input
 3810              		.section	.text.mc_interface_set_duty,"ax",%progbits
 3811              		.align	2
 3812              		.p2align 4,,15
 3813              		.global	mc_interface_set_duty
 3814              		.thumb
 3815              		.thumb_func
 3816              		.type	mc_interface_set_duty, %function
 3817              	mc_interface_set_duty:
 3818              	.LFB267:
 3819              		.loc 1 347 0
ARM GAS  /var/folders/sv/kgmgr77579zbf78p2zlhkdfr0000gn/T//ccOxe4My.s 			page 68


 3820              		.cfi_startproc
 3821              		@ args = 0, pretend = 0, frame = 0
 3822              		@ frame_needed = 0, uses_anonymous_args = 0
 3823              	.LVL314:
 3824 0000 08B5     		push	{r3, lr}
 3825              		.cfi_def_cfa_offset 8
 3826              		.cfi_offset 3, -8
 3827              		.cfi_offset 14, -4
 3828 0002 2DED028B 		vpush.64	{d8}
 3829              		.cfi_def_cfa_offset 16
 3830              		.cfi_offset 80, -16
 3831              		.cfi_offset 81, -12
 3832              		.loc 1 347 0
 3833 0006 B0EE408A 		vmov.f32	s16, s0
 3834              		.loc 1 348 0
 3835 000a FFF7FEFF 		bl	mc_interface_try_input
 3836              	.LVL315:
 3837 000e 38B9     		cbnz	r0, .L457
 3838              		.loc 1 352 0
 3839 0010 204A     		ldr	r2, .L470
 3840 0012 9378     		ldrb	r3, [r2, #2]	@ zero_extendqisi2
 3841 0014 032B     		cmp	r3, #3
 3842 0016 03D8     		bhi	.L457
 3843 0018 DFE803F0 		tbb	[pc, r3]
 3844              	.L460:
 3845 001c 17       		.byte	(.L459-.L460)/2
 3846 001d 29       		.byte	(.L461-.L460)/2
 3847 001e 17       		.byte	(.L459-.L460)/2
 3848 001f 05       		.byte	(.L462-.L460)/2
 3849              		.p2align 1
 3850              	.L457:
 3851              		.loc 1 367 0
 3852 0020 BDEC028B 		vldm	sp!, {d8}
 3853              		.cfi_remember_state
 3854              		.cfi_restore 80
 3855              		.cfi_restore 81
 3856              		.cfi_def_cfa_offset 8
 3857              	.LVL316:
 3858 0024 08BD     		pop	{r3, pc}
 3859              	.LVL317:
 3860              	.L462:
 3861              		.cfi_restore_state
 3862              		.loc 1 361 0
 3863 0026 92F85D31 		ldrb	r3, [r2, #349]	@ zero_extendqisi2
 3864 002a FFEE007A 		vmov.f32	s15, #-1.0e+0
 3865 002e 002B     		cmp	r3, #0
 3866 0030 B7EE000A 		vmov.f32	s0, #1.0e+0
 3867 0034 18BF     		it	ne
 3868 0036 B0EE670A 		vmovne.f32	s0, s15
 3869 003a 20EE080A 		vmul.f32	s0, s0, s16
 3870              		.loc 1 367 0
 3871 003e BDEC028B 		vldm	sp!, {d8}
 3872              		.cfi_remember_state
 3873              		.cfi_restore 80
 3874              		.cfi_restore 81
 3875              		.cfi_def_cfa_offset 8
 3876              	.LVL318:
ARM GAS  /var/folders/sv/kgmgr77579zbf78p2zlhkdfr0000gn/T//ccOxe4My.s 			page 69


 3877 0042 BDE80840 		pop	{r3, lr}
 3878              		.cfi_restore 14
 3879              		.cfi_restore 3
 3880              		.cfi_def_cfa_offset 0
 3881              		.loc 1 361 0
 3882 0046 FFF7FEBF 		b	mcpwm_foc_set_duty
 3883              	.LVL319:
 3884              	.L459:
 3885              		.cfi_restore_state
 3886              	.LBB159:
 3887              	.LBB160:
 3888              		.loc 1 355 0
 3889 004a 92F85D31 		ldrb	r3, [r2, #349]	@ zero_extendqisi2
 3890 004e FFEE007A 		vmov.f32	s15, #-1.0e+0
 3891 0052 002B     		cmp	r3, #0
 3892 0054 B7EE000A 		vmov.f32	s0, #1.0e+0
 3893 0058 18BF     		it	ne
 3894 005a B0EE670A 		vmovne.f32	s0, s15
 3895 005e 28EE000A 		vmul.f32	s0, s16, s0
 3896              	.LBE160:
 3897              	.LBE159:
 3898              		.loc 1 367 0
 3899 0062 BDEC028B 		vldm	sp!, {d8}
 3900              		.cfi_remember_state
 3901              		.cfi_restore 80
 3902              		.cfi_restore 81
 3903              		.cfi_def_cfa_offset 8
 3904              	.LVL320:
 3905 0066 BDE80840 		pop	{r3, lr}
 3906              		.cfi_restore 14
 3907              		.cfi_restore 3
 3908              		.cfi_def_cfa_offset 0
 3909              	.LBB162:
 3910              	.LBB161:
 3911              		.loc 1 355 0
 3912 006a FFF7FEBF 		b	mcpwm_set_duty
 3913              	.LVL321:
 3914              	.L461:
 3915              		.cfi_restore_state
 3916              	.LBE161:
 3917              	.LBE162:
 3918              		.loc 1 358 0
 3919 006e 92F85D31 		ldrb	r3, [r2, #349]	@ zero_extendqisi2
 3920 0072 FFEE007A 		vmov.f32	s15, #-1.0e+0
 3921 0076 002B     		cmp	r3, #0
 3922 0078 B7EE000A 		vmov.f32	s0, #1.0e+0
 3923 007c 18BF     		it	ne
 3924 007e B0EE670A 		vmovne.f32	s0, s15
 3925 0082 20EE080A 		vmul.f32	s0, s0, s16
 3926              		.loc 1 367 0
 3927 0086 BDEC028B 		vldm	sp!, {d8}
 3928              		.cfi_restore 80
 3929              		.cfi_restore 81
 3930              		.cfi_def_cfa_offset 8
 3931              	.LVL322:
 3932 008a BDE80840 		pop	{r3, lr}
 3933              		.cfi_restore 14
ARM GAS  /var/folders/sv/kgmgr77579zbf78p2zlhkdfr0000gn/T//ccOxe4My.s 			page 70


 3934              		.cfi_restore 3
 3935              		.cfi_def_cfa_offset 0
 3936              		.loc 1 358 0
 3937 008e FFF7FEBF 		b	mcpwm_atc_set_duty
 3938              	.LVL323:
 3939              	.L471:
 3940 0092 00BF     		.align	2
 3941              	.L470:
 3942 0094 00000000 		.word	.LANCHOR12
 3943              		.cfi_endproc
 3944              	.LFE267:
 3945              		.size	mc_interface_set_duty, .-mc_interface_set_duty
 3946              		.section	.text.mc_interface_brake_now,"ax",%progbits
 3947              		.align	2
 3948              		.p2align 4,,15
 3949              		.global	mc_interface_brake_now
 3950              		.thumb
 3951              		.thumb_func
 3952              		.type	mc_interface_brake_now, %function
 3953              	mc_interface_brake_now:
 3954              	.LFB277:
 3955              		.loc 1 550 0
 3956              		.cfi_startproc
 3957              		@ args = 0, pretend = 0, frame = 0
 3958              		@ frame_needed = 0, uses_anonymous_args = 0
 3959              		@ link register save eliminated.
 3960              		.loc 1 551 0
 3961 0000 9FED010A 		vldr.32	s0, .L473
 3962 0004 FFF7FEBF 		b	mc_interface_set_duty
 3963              	.LVL324:
 3964              	.L474:
 3965              		.align	2
 3966              	.L473:
 3967 0008 00000000 		.word	0
 3968              		.cfi_endproc
 3969              	.LFE277:
 3970              		.size	mc_interface_brake_now, .-mc_interface_brake_now
 3971              		.section	.text.mc_interface_set_duty_noramp,"ax",%progbits
 3972              		.align	2
 3973              		.p2align 4,,15
 3974              		.global	mc_interface_set_duty_noramp
 3975              		.thumb
 3976              		.thumb_func
 3977              		.type	mc_interface_set_duty_noramp, %function
 3978              	mc_interface_set_duty_noramp:
 3979              	.LFB268:
 3980              		.loc 1 369 0
 3981              		.cfi_startproc
 3982              		@ args = 0, pretend = 0, frame = 0
 3983              		@ frame_needed = 0, uses_anonymous_args = 0
 3984              	.LVL325:
 3985 0000 08B5     		push	{r3, lr}
 3986              		.cfi_def_cfa_offset 8
 3987              		.cfi_offset 3, -8
 3988              		.cfi_offset 14, -4
 3989 0002 2DED028B 		vpush.64	{d8}
 3990              		.cfi_def_cfa_offset 16
ARM GAS  /var/folders/sv/kgmgr77579zbf78p2zlhkdfr0000gn/T//ccOxe4My.s 			page 71


 3991              		.cfi_offset 80, -16
 3992              		.cfi_offset 81, -12
 3993              		.loc 1 369 0
 3994 0006 B0EE408A 		vmov.f32	s16, s0
 3995              		.loc 1 370 0
 3996 000a FFF7FEFF 		bl	mc_interface_try_input
 3997              	.LVL326:
 3998 000e 38B9     		cbnz	r0, .L475
 3999              		.loc 1 374 0
 4000 0010 204A     		ldr	r2, .L488
 4001 0012 9378     		ldrb	r3, [r2, #2]	@ zero_extendqisi2
 4002 0014 032B     		cmp	r3, #3
 4003 0016 03D8     		bhi	.L475
 4004 0018 DFE803F0 		tbb	[pc, r3]
 4005              	.L478:
 4006 001c 17       		.byte	(.L477-.L478)/2
 4007 001d 29       		.byte	(.L479-.L478)/2
 4008 001e 17       		.byte	(.L477-.L478)/2
 4009 001f 05       		.byte	(.L480-.L478)/2
 4010              		.p2align 1
 4011              	.L475:
 4012              		.loc 1 389 0
 4013 0020 BDEC028B 		vldm	sp!, {d8}
 4014              		.cfi_remember_state
 4015              		.cfi_restore 80
 4016              		.cfi_restore 81
 4017              		.cfi_def_cfa_offset 8
 4018              	.LVL327:
 4019 0024 08BD     		pop	{r3, pc}
 4020              	.LVL328:
 4021              	.L480:
 4022              		.cfi_restore_state
 4023              		.loc 1 383 0
 4024 0026 92F85D31 		ldrb	r3, [r2, #349]	@ zero_extendqisi2
 4025 002a FFEE007A 		vmov.f32	s15, #-1.0e+0
 4026 002e 002B     		cmp	r3, #0
 4027 0030 B7EE000A 		vmov.f32	s0, #1.0e+0
 4028 0034 18BF     		it	ne
 4029 0036 B0EE670A 		vmovne.f32	s0, s15
 4030 003a 20EE080A 		vmul.f32	s0, s0, s16
 4031              		.loc 1 389 0
 4032 003e BDEC028B 		vldm	sp!, {d8}
 4033              		.cfi_remember_state
 4034              		.cfi_restore 80
 4035              		.cfi_restore 81
 4036              		.cfi_def_cfa_offset 8
 4037              	.LVL329:
 4038 0042 BDE80840 		pop	{r3, lr}
 4039              		.cfi_restore 14
 4040              		.cfi_restore 3
 4041              		.cfi_def_cfa_offset 0
 4042              		.loc 1 383 0
 4043 0046 FFF7FEBF 		b	mcpwm_foc_set_duty_noramp
 4044              	.LVL330:
 4045              	.L477:
 4046              		.cfi_restore_state
 4047              		.loc 1 377 0
ARM GAS  /var/folders/sv/kgmgr77579zbf78p2zlhkdfr0000gn/T//ccOxe4My.s 			page 72


 4048 004a 92F85D31 		ldrb	r3, [r2, #349]	@ zero_extendqisi2
 4049 004e FFEE007A 		vmov.f32	s15, #-1.0e+0
 4050 0052 002B     		cmp	r3, #0
 4051 0054 B7EE000A 		vmov.f32	s0, #1.0e+0
 4052 0058 18BF     		it	ne
 4053 005a B0EE670A 		vmovne.f32	s0, s15
 4054 005e 20EE080A 		vmul.f32	s0, s0, s16
 4055              		.loc 1 389 0
 4056 0062 BDEC028B 		vldm	sp!, {d8}
 4057              		.cfi_remember_state
 4058              		.cfi_restore 80
 4059              		.cfi_restore 81
 4060              		.cfi_def_cfa_offset 8
 4061              	.LVL331:
 4062 0066 BDE80840 		pop	{r3, lr}
 4063              		.cfi_restore 14
 4064              		.cfi_restore 3
 4065              		.cfi_def_cfa_offset 0
 4066              		.loc 1 377 0
 4067 006a FFF7FEBF 		b	mcpwm_set_duty_noramp
 4068              	.LVL332:
 4069              	.L479:
 4070              		.cfi_restore_state
 4071              		.loc 1 380 0
 4072 006e 92F85D31 		ldrb	r3, [r2, #349]	@ zero_extendqisi2
 4073 0072 FFEE007A 		vmov.f32	s15, #-1.0e+0
 4074 0076 002B     		cmp	r3, #0
 4075 0078 B7EE000A 		vmov.f32	s0, #1.0e+0
 4076 007c 18BF     		it	ne
 4077 007e B0EE670A 		vmovne.f32	s0, s15
 4078 0082 20EE080A 		vmul.f32	s0, s0, s16
 4079              		.loc 1 389 0
 4080 0086 BDEC028B 		vldm	sp!, {d8}
 4081              		.cfi_restore 80
 4082              		.cfi_restore 81
 4083              		.cfi_def_cfa_offset 8
 4084              	.LVL333:
 4085 008a BDE80840 		pop	{r3, lr}
 4086              		.cfi_restore 14
 4087              		.cfi_restore 3
 4088              		.cfi_def_cfa_offset 0
 4089              		.loc 1 380 0
 4090 008e FFF7FEBF 		b	mcpwm_atc_set_duty_noramp
 4091              	.LVL334:
 4092              	.L489:
 4093 0092 00BF     		.align	2
 4094              	.L488:
 4095 0094 00000000 		.word	.LANCHOR12
 4096              		.cfi_endproc
 4097              	.LFE268:
 4098              		.size	mc_interface_set_duty_noramp, .-mc_interface_set_duty_noramp
 4099              		.section	.text.mc_interface_set_pid_speed,"ax",%progbits
 4100              		.align	2
 4101              		.p2align 4,,15
 4102              		.global	mc_interface_set_pid_speed
 4103              		.thumb
 4104              		.thumb_func
ARM GAS  /var/folders/sv/kgmgr77579zbf78p2zlhkdfr0000gn/T//ccOxe4My.s 			page 73


 4105              		.type	mc_interface_set_pid_speed, %function
 4106              	mc_interface_set_pid_speed:
 4107              	.LFB269:
 4108              		.loc 1 391 0
 4109              		.cfi_startproc
 4110              		@ args = 0, pretend = 0, frame = 0
 4111              		@ frame_needed = 0, uses_anonymous_args = 0
 4112              	.LVL335:
 4113 0000 08B5     		push	{r3, lr}
 4114              		.cfi_def_cfa_offset 8
 4115              		.cfi_offset 3, -8
 4116              		.cfi_offset 14, -4
 4117 0002 2DED028B 		vpush.64	{d8}
 4118              		.cfi_def_cfa_offset 16
 4119              		.cfi_offset 80, -16
 4120              		.cfi_offset 81, -12
 4121              		.loc 1 391 0
 4122 0006 B0EE408A 		vmov.f32	s16, s0
 4123              		.loc 1 392 0
 4124 000a FFF7FEFF 		bl	mc_interface_try_input
 4125              	.LVL336:
 4126 000e 38B9     		cbnz	r0, .L490
 4127              		.loc 1 396 0
 4128 0010 204A     		ldr	r2, .L503
 4129 0012 9378     		ldrb	r3, [r2, #2]	@ zero_extendqisi2
 4130 0014 032B     		cmp	r3, #3
 4131 0016 03D8     		bhi	.L490
 4132 0018 DFE803F0 		tbb	[pc, r3]
 4133              	.L493:
 4134 001c 17       		.byte	(.L492-.L493)/2
 4135 001d 29       		.byte	(.L494-.L493)/2
 4136 001e 17       		.byte	(.L492-.L493)/2
 4137 001f 05       		.byte	(.L495-.L493)/2
 4138              		.p2align 1
 4139              	.L490:
 4140              		.loc 1 411 0
 4141 0020 BDEC028B 		vldm	sp!, {d8}
 4142              		.cfi_remember_state
 4143              		.cfi_restore 80
 4144              		.cfi_restore 81
 4145              		.cfi_def_cfa_offset 8
 4146              	.LVL337:
 4147 0024 08BD     		pop	{r3, pc}
 4148              	.LVL338:
 4149              	.L495:
 4150              		.cfi_restore_state
 4151              		.loc 1 405 0
 4152 0026 92F85D31 		ldrb	r3, [r2, #349]	@ zero_extendqisi2
 4153 002a FFEE007A 		vmov.f32	s15, #-1.0e+0
 4154 002e 002B     		cmp	r3, #0
 4155 0030 B7EE000A 		vmov.f32	s0, #1.0e+0
 4156 0034 18BF     		it	ne
 4157 0036 B0EE670A 		vmovne.f32	s0, s15
 4158 003a 20EE080A 		vmul.f32	s0, s0, s16
 4159              		.loc 1 411 0
 4160 003e BDEC028B 		vldm	sp!, {d8}
 4161              		.cfi_remember_state
ARM GAS  /var/folders/sv/kgmgr77579zbf78p2zlhkdfr0000gn/T//ccOxe4My.s 			page 74


 4162              		.cfi_restore 80
 4163              		.cfi_restore 81
 4164              		.cfi_def_cfa_offset 8
 4165              	.LVL339:
 4166 0042 BDE80840 		pop	{r3, lr}
 4167              		.cfi_restore 14
 4168              		.cfi_restore 3
 4169              		.cfi_def_cfa_offset 0
 4170              		.loc 1 405 0
 4171 0046 FFF7FEBF 		b	mcpwm_foc_set_pid_speed
 4172              	.LVL340:
 4173              	.L492:
 4174              		.cfi_restore_state
 4175              		.loc 1 399 0
 4176 004a 92F85D31 		ldrb	r3, [r2, #349]	@ zero_extendqisi2
 4177 004e FFEE007A 		vmov.f32	s15, #-1.0e+0
 4178 0052 002B     		cmp	r3, #0
 4179 0054 B7EE000A 		vmov.f32	s0, #1.0e+0
 4180 0058 18BF     		it	ne
 4181 005a B0EE670A 		vmovne.f32	s0, s15
 4182 005e 20EE080A 		vmul.f32	s0, s0, s16
 4183              		.loc 1 411 0
 4184 0062 BDEC028B 		vldm	sp!, {d8}
 4185              		.cfi_remember_state
 4186              		.cfi_restore 80
 4187              		.cfi_restore 81
 4188              		.cfi_def_cfa_offset 8
 4189              	.LVL341:
 4190 0066 BDE80840 		pop	{r3, lr}
 4191              		.cfi_restore 14
 4192              		.cfi_restore 3
 4193              		.cfi_def_cfa_offset 0
 4194              		.loc 1 399 0
 4195 006a FFF7FEBF 		b	mcpwm_set_pid_speed
 4196              	.LVL342:
 4197              	.L494:
 4198              		.cfi_restore_state
 4199              		.loc 1 402 0
 4200 006e 92F85D31 		ldrb	r3, [r2, #349]	@ zero_extendqisi2
 4201 0072 FFEE007A 		vmov.f32	s15, #-1.0e+0
 4202 0076 002B     		cmp	r3, #0
 4203 0078 B7EE000A 		vmov.f32	s0, #1.0e+0
 4204 007c 18BF     		it	ne
 4205 007e B0EE670A 		vmovne.f32	s0, s15
 4206 0082 20EE080A 		vmul.f32	s0, s0, s16
 4207              		.loc 1 411 0
 4208 0086 BDEC028B 		vldm	sp!, {d8}
 4209              		.cfi_restore 80
 4210              		.cfi_restore 81
 4211              		.cfi_def_cfa_offset 8
 4212              	.LVL343:
 4213 008a BDE80840 		pop	{r3, lr}
 4214              		.cfi_restore 14
 4215              		.cfi_restore 3
 4216              		.cfi_def_cfa_offset 0
 4217              		.loc 1 402 0
 4218 008e FFF7FEBF 		b	mcpwm_atc_set_pid_speed
ARM GAS  /var/folders/sv/kgmgr77579zbf78p2zlhkdfr0000gn/T//ccOxe4My.s 			page 75


 4219              	.LVL344:
 4220              	.L504:
 4221 0092 00BF     		.align	2
 4222              	.L503:
 4223 0094 00000000 		.word	.LANCHOR12
 4224              		.cfi_endproc
 4225              	.LFE269:
 4226              		.size	mc_interface_set_pid_speed, .-mc_interface_set_pid_speed
 4227              		.section	.text.mc_interface_set_pid_pos,"ax",%progbits
 4228              		.align	2
 4229              		.p2align 4,,15
 4230              		.global	mc_interface_set_pid_pos
 4231              		.thumb
 4232              		.thumb_func
 4233              		.type	mc_interface_set_pid_pos, %function
 4234              	mc_interface_set_pid_pos:
 4235              	.LFB270:
 4236              		.loc 1 413 0
 4237              		.cfi_startproc
 4238              		@ args = 0, pretend = 0, frame = 8
 4239              		@ frame_needed = 0, uses_anonymous_args = 0
 4240              	.LVL345:
 4241 0000 10B5     		push	{r4, lr}
 4242              		.cfi_def_cfa_offset 8
 4243              		.cfi_offset 4, -8
 4244              		.cfi_offset 14, -4
 4245 0002 82B0     		sub	sp, sp, #8
 4246              		.cfi_def_cfa_offset 16
 4247              		.loc 1 413 0
 4248 0004 8DED010A 		vstr.32	s0, [sp, #4]
 4249              		.loc 1 414 0
 4250 0008 FFF7FEFF 		bl	mc_interface_try_input
 4251              	.LVL346:
 4252 000c 08BB     		cbnz	r0, .L505
 4253              		.loc 1 418 0
 4254 000e DDED016A 		vldr.32	s13, [sp, #4]
 4255 0012 174B     		ldr	r3, .L514
 4256              		.loc 1 420 0
 4257 0014 174C     		ldr	r4, .L514+4
 4258              		.loc 1 418 0
 4259 0016 C3ED006A 		vstr.32	s13, [r3]
 4260              		.loc 1 420 0
 4261 001a 94F85D31 		ldrb	r3, [r4, #349]	@ zero_extendqisi2
 4262 001e BFEE007A 		vmov.f32	s14, #-1.0e+0
 4263 0022 002B     		cmp	r3, #0
 4264 0024 F7EE007A 		vmov.f32	s15, #1.0e+0
 4265 0028 18BF     		it	ne
 4266 002a F0EE477A 		vmovne.f32	s15, s14
 4267 002e 67EEA67A 		vmul.f32	s15, s15, s13
 4268 0032 02A8     		add	r0, sp, #8
 4269 0034 60ED017A 		vstmdb.32	r0!, {s15}
 4270              		.loc 1 421 0
 4271 0038 FFF7FEFF 		bl	utils_norm_angle
 4272              	.LVL347:
 4273              		.loc 1 423 0
 4274 003c A378     		ldrb	r3, [r4, #2]	@ zero_extendqisi2
 4275 003e 032B     		cmp	r3, #3
ARM GAS  /var/folders/sv/kgmgr77579zbf78p2zlhkdfr0000gn/T//ccOxe4My.s 			page 76


 4276 0040 07D8     		bhi	.L505
 4277 0042 DFE803F0 		tbb	[pc, r3]
 4278              	.L509:
 4279 0046 08       		.byte	(.L508-.L509)/2
 4280 0047 0E       		.byte	(.L510-.L509)/2
 4281 0048 08       		.byte	(.L508-.L509)/2
 4282 0049 02       		.byte	(.L511-.L509)/2
 4283              		.p2align 1
 4284              	.L511:
 4285              		.loc 1 432 0
 4286 004a 9DED010A 		vldr.32	s0, [sp, #4]
 4287 004e FFF7FEFF 		bl	mcpwm_foc_set_pid_pos
 4288              	.LVL348:
 4289              	.L505:
 4290              		.loc 1 438 0
 4291 0052 02B0     		add	sp, sp, #8
 4292              		.cfi_remember_state
 4293              		.cfi_def_cfa_offset 8
 4294              		@ sp needed
 4295 0054 10BD     		pop	{r4, pc}
 4296              	.LVL349:
 4297              	.L508:
 4298              		.cfi_restore_state
 4299              		.loc 1 426 0
 4300 0056 9DED010A 		vldr.32	s0, [sp, #4]
 4301 005a FFF7FEFF 		bl	mcpwm_set_pid_pos
 4302              	.LVL350:
 4303              		.loc 1 438 0
 4304 005e 02B0     		add	sp, sp, #8
 4305              		.cfi_remember_state
 4306              		.cfi_def_cfa_offset 8
 4307              		@ sp needed
 4308 0060 10BD     		pop	{r4, pc}
 4309              	.LVL351:
 4310              	.L510:
 4311              		.cfi_restore_state
 4312              		.loc 1 429 0
 4313 0062 9DED010A 		vldr.32	s0, [sp, #4]
 4314 0066 FFF7FEFF 		bl	mcpwm_atc_set_pid_pos
 4315              	.LVL352:
 4316              		.loc 1 438 0
 4317 006a 02B0     		add	sp, sp, #8
 4318              		.cfi_def_cfa_offset 8
 4319              		@ sp needed
 4320 006c 10BD     		pop	{r4, pc}
 4321              	.LVL353:
 4322              	.L515:
 4323 006e 00BF     		.align	2
 4324              	.L514:
 4325 0070 00000000 		.word	.LANCHOR30
 4326 0074 00000000 		.word	.LANCHOR12
 4327              		.cfi_endproc
 4328              	.LFE270:
 4329              		.size	mc_interface_set_pid_pos, .-mc_interface_set_pid_pos
 4330              		.section	.text.mc_interface_set_current,"ax",%progbits
 4331              		.align	2
 4332              		.p2align 4,,15
ARM GAS  /var/folders/sv/kgmgr77579zbf78p2zlhkdfr0000gn/T//ccOxe4My.s 			page 77


 4333              		.global	mc_interface_set_current
 4334              		.thumb
 4335              		.thumb_func
 4336              		.type	mc_interface_set_current, %function
 4337              	mc_interface_set_current:
 4338              	.LFB271:
 4339              		.loc 1 440 0
 4340              		.cfi_startproc
 4341              		@ args = 0, pretend = 0, frame = 0
 4342              		@ frame_needed = 0, uses_anonymous_args = 0
 4343              	.LVL354:
 4344 0000 08B5     		push	{r3, lr}
 4345              		.cfi_def_cfa_offset 8
 4346              		.cfi_offset 3, -8
 4347              		.cfi_offset 14, -4
 4348 0002 2DED028B 		vpush.64	{d8}
 4349              		.cfi_def_cfa_offset 16
 4350              		.cfi_offset 80, -16
 4351              		.cfi_offset 81, -12
 4352              		.loc 1 440 0
 4353 0006 B0EE408A 		vmov.f32	s16, s0
 4354              		.loc 1 441 0
 4355 000a FFF7FEFF 		bl	mc_interface_try_input
 4356              	.LVL355:
 4357 000e 38B9     		cbnz	r0, .L516
 4358              		.loc 1 445 0
 4359 0010 204A     		ldr	r2, .L529
 4360 0012 9378     		ldrb	r3, [r2, #2]	@ zero_extendqisi2
 4361 0014 032B     		cmp	r3, #3
 4362 0016 03D8     		bhi	.L516
 4363 0018 DFE803F0 		tbb	[pc, r3]
 4364              	.L519:
 4365 001c 17       		.byte	(.L518-.L519)/2
 4366 001d 29       		.byte	(.L520-.L519)/2
 4367 001e 17       		.byte	(.L518-.L519)/2
 4368 001f 05       		.byte	(.L521-.L519)/2
 4369              		.p2align 1
 4370              	.L516:
 4371              		.loc 1 460 0
 4372 0020 BDEC028B 		vldm	sp!, {d8}
 4373              		.cfi_remember_state
 4374              		.cfi_restore 80
 4375              		.cfi_restore 81
 4376              		.cfi_def_cfa_offset 8
 4377              	.LVL356:
 4378 0024 08BD     		pop	{r3, pc}
 4379              	.LVL357:
 4380              	.L521:
 4381              		.cfi_restore_state
 4382              		.loc 1 454 0
 4383 0026 92F85D31 		ldrb	r3, [r2, #349]	@ zero_extendqisi2
 4384 002a FFEE007A 		vmov.f32	s15, #-1.0e+0
 4385 002e 002B     		cmp	r3, #0
 4386 0030 B7EE000A 		vmov.f32	s0, #1.0e+0
 4387 0034 18BF     		it	ne
 4388 0036 B0EE670A 		vmovne.f32	s0, s15
 4389 003a 20EE080A 		vmul.f32	s0, s0, s16
ARM GAS  /var/folders/sv/kgmgr77579zbf78p2zlhkdfr0000gn/T//ccOxe4My.s 			page 78


 4390              		.loc 1 460 0
 4391 003e BDEC028B 		vldm	sp!, {d8}
 4392              		.cfi_remember_state
 4393              		.cfi_restore 80
 4394              		.cfi_restore 81
 4395              		.cfi_def_cfa_offset 8
 4396              	.LVL358:
 4397 0042 BDE80840 		pop	{r3, lr}
 4398              		.cfi_restore 14
 4399              		.cfi_restore 3
 4400              		.cfi_def_cfa_offset 0
 4401              		.loc 1 454 0
 4402 0046 FFF7FEBF 		b	mcpwm_foc_set_current
 4403              	.LVL359:
 4404              	.L518:
 4405              		.cfi_restore_state
 4406              	.LBB165:
 4407              	.LBB166:
 4408              		.loc 1 448 0
 4409 004a 92F85D31 		ldrb	r3, [r2, #349]	@ zero_extendqisi2
 4410 004e FFEE007A 		vmov.f32	s15, #-1.0e+0
 4411 0052 002B     		cmp	r3, #0
 4412 0054 B7EE000A 		vmov.f32	s0, #1.0e+0
 4413 0058 18BF     		it	ne
 4414 005a B0EE670A 		vmovne.f32	s0, s15
 4415 005e 28EE000A 		vmul.f32	s0, s16, s0
 4416              	.LBE166:
 4417              	.LBE165:
 4418              		.loc 1 460 0
 4419 0062 BDEC028B 		vldm	sp!, {d8}
 4420              		.cfi_remember_state
 4421              		.cfi_restore 80
 4422              		.cfi_restore 81
 4423              		.cfi_def_cfa_offset 8
 4424              	.LVL360:
 4425 0066 BDE80840 		pop	{r3, lr}
 4426              		.cfi_restore 14
 4427              		.cfi_restore 3
 4428              		.cfi_def_cfa_offset 0
 4429              	.LBB168:
 4430              	.LBB167:
 4431              		.loc 1 448 0
 4432 006a FFF7FEBF 		b	mcpwm_set_current
 4433              	.LVL361:
 4434              	.L520:
 4435              		.cfi_restore_state
 4436              	.LBE167:
 4437              	.LBE168:
 4438              		.loc 1 451 0
 4439 006e 92F85D31 		ldrb	r3, [r2, #349]	@ zero_extendqisi2
 4440 0072 FFEE007A 		vmov.f32	s15, #-1.0e+0
 4441 0076 002B     		cmp	r3, #0
 4442 0078 B7EE000A 		vmov.f32	s0, #1.0e+0
 4443 007c 18BF     		it	ne
 4444 007e B0EE670A 		vmovne.f32	s0, s15
 4445 0082 20EE080A 		vmul.f32	s0, s0, s16
 4446              		.loc 1 460 0
ARM GAS  /var/folders/sv/kgmgr77579zbf78p2zlhkdfr0000gn/T//ccOxe4My.s 			page 79


 4447 0086 BDEC028B 		vldm	sp!, {d8}
 4448              		.cfi_restore 80
 4449              		.cfi_restore 81
 4450              		.cfi_def_cfa_offset 8
 4451              	.LVL362:
 4452 008a BDE80840 		pop	{r3, lr}
 4453              		.cfi_restore 14
 4454              		.cfi_restore 3
 4455              		.cfi_def_cfa_offset 0
 4456              		.loc 1 451 0
 4457 008e FFF7FEBF 		b	mcpwm_atc_set_current
 4458              	.LVL363:
 4459              	.L530:
 4460 0092 00BF     		.align	2
 4461              	.L529:
 4462 0094 00000000 		.word	.LANCHOR12
 4463              		.cfi_endproc
 4464              	.LFE271:
 4465              		.size	mc_interface_set_current, .-mc_interface_set_current
 4466              		.section	.text.mc_interface_set_current_rel,"ax",%progbits
 4467              		.align	2
 4468              		.p2align 4,,15
 4469              		.global	mc_interface_set_current_rel
 4470              		.thumb
 4471              		.thumb_func
 4472              		.type	mc_interface_set_current_rel, %function
 4473              	mc_interface_set_current_rel:
 4474              	.LFB273:
 4475              		.loc 1 490 0
 4476              		.cfi_startproc
 4477              		@ args = 0, pretend = 0, frame = 0
 4478              		@ frame_needed = 0, uses_anonymous_args = 0
 4479              		@ link register save eliminated.
 4480              	.LVL364:
 4481              		.loc 1 491 0
 4482 0000 B5EEC00A 		vcmpe.f32	s0, #0
 4483 0004 F1EE10FA 		vmrs	APSR_nzcv, FPSCR
 4484              		.loc 1 492 0
 4485 0008 074B     		ldr	r3, .L536
 4486              		.loc 1 491 0
 4487 000a 05DD     		ble	.L535
 4488              		.loc 1 492 0
 4489 000c D3ED1D7A 		vldr.32	s15, [r3, #116]
 4490 0010 20EE270A 		vmul.f32	s0, s0, s15
 4491              	.LVL365:
 4492 0014 FFF7FEBF 		b	mc_interface_set_current
 4493              	.LVL366:
 4494              	.L535:
 4495              		.loc 1 494 0
 4496 0018 D3ED1E7A 		vldr.32	s15, [r3, #120]
 4497 001c F0EEE77A 		vabs.f32	s15, s15
 4498 0020 27EE800A 		vmul.f32	s0, s15, s0
 4499              	.LVL367:
 4500 0024 FFF7FEBF 		b	mc_interface_set_current
 4501              	.LVL368:
 4502              	.L537:
 4503              		.align	2
ARM GAS  /var/folders/sv/kgmgr77579zbf78p2zlhkdfr0000gn/T//ccOxe4My.s 			page 80


 4504              	.L536:
 4505 0028 00000000 		.word	.LANCHOR12
 4506              		.cfi_endproc
 4507              	.LFE273:
 4508              		.size	mc_interface_set_current_rel, .-mc_interface_set_current_rel
 4509              		.section	.text.mc_interface_release_motor,"ax",%progbits
 4510              		.align	2
 4511              		.p2align 4,,15
 4512              		.global	mc_interface_release_motor
 4513              		.thumb
 4514              		.thumb_func
 4515              		.type	mc_interface_release_motor, %function
 4516              	mc_interface_release_motor:
 4517              	.LFB278:
 4518              		.loc 1 557 0
 4519              		.cfi_startproc
 4520              		@ args = 0, pretend = 0, frame = 0
 4521              		@ frame_needed = 0, uses_anonymous_args = 0
 4522              		@ link register save eliminated.
 4523              		.loc 1 558 0
 4524 0000 9FED010A 		vldr.32	s0, .L539
 4525 0004 FFF7FEBF 		b	mc_interface_set_current
 4526              	.LVL369:
 4527              	.L540:
 4528              		.align	2
 4529              	.L539:
 4530 0008 00000000 		.word	0
 4531              		.cfi_endproc
 4532              	.LFE278:
 4533              		.size	mc_interface_release_motor, .-mc_interface_release_motor
 4534              		.section	.text.mc_interface_set_brake_current,"ax",%progbits
 4535              		.align	2
 4536              		.p2align 4,,15
 4537              		.global	mc_interface_set_brake_current
 4538              		.thumb
 4539              		.thumb_func
 4540              		.type	mc_interface_set_brake_current, %function
 4541              	mc_interface_set_brake_current:
 4542              	.LFB272:
 4543              		.loc 1 462 0
 4544              		.cfi_startproc
 4545              		@ args = 0, pretend = 0, frame = 0
 4546              		@ frame_needed = 0, uses_anonymous_args = 0
 4547              	.LVL370:
 4548 0000 08B5     		push	{r3, lr}
 4549              		.cfi_def_cfa_offset 8
 4550              		.cfi_offset 3, -8
 4551              		.cfi_offset 14, -4
 4552 0002 2DED028B 		vpush.64	{d8}
 4553              		.cfi_def_cfa_offset 16
 4554              		.cfi_offset 80, -16
 4555              		.cfi_offset 81, -12
 4556              		.loc 1 462 0
 4557 0006 B0EE408A 		vmov.f32	s16, s0
 4558              		.loc 1 463 0
 4559 000a FFF7FEFF 		bl	mc_interface_try_input
 4560              	.LVL371:
ARM GAS  /var/folders/sv/kgmgr77579zbf78p2zlhkdfr0000gn/T//ccOxe4My.s 			page 81


 4561 000e 38B9     		cbnz	r0, .L541
 4562              		.loc 1 467 0
 4563 0010 204A     		ldr	r2, .L554
 4564 0012 9378     		ldrb	r3, [r2, #2]	@ zero_extendqisi2
 4565 0014 032B     		cmp	r3, #3
 4566 0016 03D8     		bhi	.L541
 4567 0018 DFE803F0 		tbb	[pc, r3]
 4568              	.L544:
 4569 001c 17       		.byte	(.L543-.L544)/2
 4570 001d 29       		.byte	(.L545-.L544)/2
 4571 001e 17       		.byte	(.L543-.L544)/2
 4572 001f 05       		.byte	(.L546-.L544)/2
 4573              		.p2align 1
 4574              	.L541:
 4575              		.loc 1 482 0
 4576 0020 BDEC028B 		vldm	sp!, {d8}
 4577              		.cfi_remember_state
 4578              		.cfi_restore 80
 4579              		.cfi_restore 81
 4580              		.cfi_def_cfa_offset 8
 4581              	.LVL372:
 4582 0024 08BD     		pop	{r3, pc}
 4583              	.LVL373:
 4584              	.L546:
 4585              		.cfi_restore_state
 4586              		.loc 1 476 0
 4587 0026 92F85D31 		ldrb	r3, [r2, #349]	@ zero_extendqisi2
 4588 002a FFEE007A 		vmov.f32	s15, #-1.0e+0
 4589 002e 002B     		cmp	r3, #0
 4590 0030 B7EE000A 		vmov.f32	s0, #1.0e+0
 4591 0034 18BF     		it	ne
 4592 0036 B0EE670A 		vmovne.f32	s0, s15
 4593 003a 20EE080A 		vmul.f32	s0, s0, s16
 4594              		.loc 1 482 0
 4595 003e BDEC028B 		vldm	sp!, {d8}
 4596              		.cfi_remember_state
 4597              		.cfi_restore 80
 4598              		.cfi_restore 81
 4599              		.cfi_def_cfa_offset 8
 4600              	.LVL374:
 4601 0042 BDE80840 		pop	{r3, lr}
 4602              		.cfi_restore 14
 4603              		.cfi_restore 3
 4604              		.cfi_def_cfa_offset 0
 4605              		.loc 1 476 0
 4606 0046 FFF7FEBF 		b	mcpwm_foc_set_brake_current
 4607              	.LVL375:
 4608              	.L543:
 4609              		.cfi_restore_state
 4610              	.LBB171:
 4611              	.LBB172:
 4612              		.loc 1 470 0
 4613 004a 92F85D31 		ldrb	r3, [r2, #349]	@ zero_extendqisi2
 4614 004e FFEE007A 		vmov.f32	s15, #-1.0e+0
 4615 0052 002B     		cmp	r3, #0
 4616 0054 B7EE000A 		vmov.f32	s0, #1.0e+0
 4617 0058 18BF     		it	ne
ARM GAS  /var/folders/sv/kgmgr77579zbf78p2zlhkdfr0000gn/T//ccOxe4My.s 			page 82


 4618 005a B0EE670A 		vmovne.f32	s0, s15
 4619 005e 28EE000A 		vmul.f32	s0, s16, s0
 4620              	.LBE172:
 4621              	.LBE171:
 4622              		.loc 1 482 0
 4623 0062 BDEC028B 		vldm	sp!, {d8}
 4624              		.cfi_remember_state
 4625              		.cfi_restore 80
 4626              		.cfi_restore 81
 4627              		.cfi_def_cfa_offset 8
 4628              	.LVL376:
 4629 0066 BDE80840 		pop	{r3, lr}
 4630              		.cfi_restore 14
 4631              		.cfi_restore 3
 4632              		.cfi_def_cfa_offset 0
 4633              	.LBB174:
 4634              	.LBB173:
 4635              		.loc 1 470 0
 4636 006a FFF7FEBF 		b	mcpwm_set_brake_current
 4637              	.LVL377:
 4638              	.L545:
 4639              		.cfi_restore_state
 4640              	.LBE173:
 4641              	.LBE174:
 4642              		.loc 1 473 0
 4643 006e 92F85D31 		ldrb	r3, [r2, #349]	@ zero_extendqisi2
 4644 0072 FFEE007A 		vmov.f32	s15, #-1.0e+0
 4645 0076 002B     		cmp	r3, #0
 4646 0078 B7EE000A 		vmov.f32	s0, #1.0e+0
 4647 007c 18BF     		it	ne
 4648 007e B0EE670A 		vmovne.f32	s0, s15
 4649 0082 20EE080A 		vmul.f32	s0, s0, s16
 4650              		.loc 1 482 0
 4651 0086 BDEC028B 		vldm	sp!, {d8}
 4652              		.cfi_restore 80
 4653              		.cfi_restore 81
 4654              		.cfi_def_cfa_offset 8
 4655              	.LVL378:
 4656 008a BDE80840 		pop	{r3, lr}
 4657              		.cfi_restore 14
 4658              		.cfi_restore 3
 4659              		.cfi_def_cfa_offset 0
 4660              		.loc 1 473 0
 4661 008e FFF7FEBF 		b	mcpwm_atc_set_brake_current
 4662              	.LVL379:
 4663              	.L555:
 4664 0092 00BF     		.align	2
 4665              	.L554:
 4666 0094 00000000 		.word	.LANCHOR12
 4667              		.cfi_endproc
 4668              	.LFE272:
 4669              		.size	mc_interface_set_brake_current, .-mc_interface_set_brake_current
 4670              		.section	.text.mc_interface_set_brake_current_rel,"ax",%progbits
 4671              		.align	2
 4672              		.p2align 4,,15
 4673              		.global	mc_interface_set_brake_current_rel
 4674              		.thumb
ARM GAS  /var/folders/sv/kgmgr77579zbf78p2zlhkdfr0000gn/T//ccOxe4My.s 			page 83


 4675              		.thumb_func
 4676              		.type	mc_interface_set_brake_current_rel, %function
 4677              	mc_interface_set_brake_current_rel:
 4678              	.LFB274:
 4679              		.loc 1 504 0
 4680              		.cfi_startproc
 4681              		@ args = 0, pretend = 0, frame = 0
 4682              		@ frame_needed = 0, uses_anonymous_args = 0
 4683              		@ link register save eliminated.
 4684              	.LVL380:
 4685              		.loc 1 505 0
 4686 0000 034B     		ldr	r3, .L557
 4687 0002 D3ED1D7A 		vldr.32	s15, [r3, #116]
 4688 0006 27EE800A 		vmul.f32	s0, s15, s0
 4689              	.LVL381:
 4690 000a FFF7FEBF 		b	mc_interface_set_brake_current
 4691              	.LVL382:
 4692              	.L558:
 4693 000e 00BF     		.align	2
 4694              	.L557:
 4695 0010 00000000 		.word	.LANCHOR12
 4696              		.cfi_endproc
 4697              	.LFE274:
 4698              		.size	mc_interface_set_brake_current_rel, .-mc_interface_set_brake_current_rel
 4699              		.section	.text.mc_interface_set_handbrake,"ax",%progbits
 4700              		.align	2
 4701              		.p2align 4,,15
 4702              		.global	mc_interface_set_handbrake
 4703              		.thumb
 4704              		.thumb_func
 4705              		.type	mc_interface_set_handbrake, %function
 4706              	mc_interface_set_handbrake:
 4707              	.LFB275:
 4708              		.loc 1 514 0
 4709              		.cfi_startproc
 4710              		@ args = 0, pretend = 0, frame = 0
 4711              		@ frame_needed = 0, uses_anonymous_args = 0
 4712              	.LVL383:
 4713 0000 08B5     		push	{r3, lr}
 4714              		.cfi_def_cfa_offset 8
 4715              		.cfi_offset 3, -8
 4716              		.cfi_offset 14, -4
 4717 0002 2DED028B 		vpush.64	{d8}
 4718              		.cfi_def_cfa_offset 16
 4719              		.cfi_offset 80, -16
 4720              		.cfi_offset 81, -12
 4721              		.loc 1 514 0
 4722 0006 B0EE408A 		vmov.f32	s16, s0
 4723              		.loc 1 515 0
 4724 000a FFF7FEFF 		bl	mc_interface_try_input
 4725              	.LVL384:
 4726 000e 38B9     		cbnz	r0, .L559
 4727 0010 B0EE480A 		vmov.f32	s0, s16
 4728              		.loc 1 535 0
 4729 0014 BDEC028B 		vldm	sp!, {d8}
 4730              		.cfi_remember_state
 4731              		.cfi_restore 80
ARM GAS  /var/folders/sv/kgmgr77579zbf78p2zlhkdfr0000gn/T//ccOxe4My.s 			page 84


 4732              		.cfi_restore 81
 4733              		.cfi_def_cfa_offset 8
 4734              	.LVL385:
 4735 0018 BDE80840 		pop	{r3, lr}
 4736              		.cfi_restore 14
 4737              		.cfi_restore 3
 4738              		.cfi_def_cfa_offset 0
 4739 001c FFF7FEBF 		b	mc_interface_set_handbrake.part.3
 4740              	.LVL386:
 4741              	.L559:
 4742              		.cfi_restore_state
 4743 0020 BDEC028B 		vldm	sp!, {d8}
 4744              		.cfi_restore 80
 4745              		.cfi_restore 81
 4746              		.cfi_def_cfa_offset 8
 4747              	.LVL387:
 4748 0024 08BD     		pop	{r3, pc}
 4749              		.cfi_endproc
 4750              	.LFE275:
 4751              		.size	mc_interface_set_handbrake, .-mc_interface_set_handbrake
 4752 0026 00BF     		.section	.text.mc_interface_set_handbrake_rel,"ax",%progbits
 4753              		.align	2
 4754              		.p2align 4,,15
 4755              		.global	mc_interface_set_handbrake_rel
 4756              		.thumb
 4757              		.thumb_func
 4758              		.type	mc_interface_set_handbrake_rel, %function
 4759              	mc_interface_set_handbrake_rel:
 4760              	.LFB276:
 4761              		.loc 1 543 0
 4762              		.cfi_startproc
 4763              		@ args = 0, pretend = 0, frame = 0
 4764              		@ frame_needed = 0, uses_anonymous_args = 0
 4765              	.LVL388:
 4766 0000 08B5     		push	{r3, lr}
 4767              		.cfi_def_cfa_offset 8
 4768              		.cfi_offset 3, -8
 4769              		.cfi_offset 14, -4
 4770              		.loc 1 544 0
 4771 0002 0B4B     		ldr	r3, .L566
 4772              		.loc 1 543 0
 4773 0004 2DED028B 		vpush.64	{d8}
 4774              		.cfi_def_cfa_offset 16
 4775              		.cfi_offset 80, -16
 4776              		.cfi_offset 81, -12
 4777              		.loc 1 543 0
 4778 0008 F0EE408A 		vmov.f32	s17, s0
 4779              		.loc 1 544 0
 4780 000c 93ED1E8A 		vldr.32	s16, [r3, #120]
 4781              	.LVL389:
 4782              	.LBB175:
 4783              	.LBB176:
 4784              		.loc 1 515 0
 4785 0010 FFF7FEFF 		bl	mc_interface_try_input
 4786              	.LVL390:
 4787 0014 10B1     		cbz	r0, .L565
 4788              	.LBE176:
ARM GAS  /var/folders/sv/kgmgr77579zbf78p2zlhkdfr0000gn/T//ccOxe4My.s 			page 85


 4789              	.LBE175:
 4790              		.loc 1 545 0
 4791 0016 BDEC028B 		vldm	sp!, {d8}
 4792              		.cfi_remember_state
 4793              		.cfi_restore 80
 4794              		.cfi_restore 81
 4795              		.cfi_def_cfa_offset 8
 4796              	.LVL391:
 4797 001a 08BD     		pop	{r3, pc}
 4798              	.LVL392:
 4799              	.L565:
 4800              		.cfi_restore_state
 4801              	.LBB179:
 4802              	.LBB177:
 4803 001c B0EEC80A 		vabs.f32	s0, s16
 4804 0020 20EE280A 		vmul.f32	s0, s0, s17
 4805              	.LBE177:
 4806              	.LBE179:
 4807 0024 BDEC028B 		vldm	sp!, {d8}
 4808              		.cfi_restore 80
 4809              		.cfi_restore 81
 4810              		.cfi_def_cfa_offset 8
 4811              	.LVL393:
 4812 0028 BDE80840 		pop	{r3, lr}
 4813              		.cfi_restore 14
 4814              		.cfi_restore 3
 4815              		.cfi_def_cfa_offset 0
 4816              	.LBB180:
 4817              	.LBB178:
 4818 002c FFF7FEBF 		b	mc_interface_set_handbrake.part.3
 4819              	.LVL394:
 4820              	.L567:
 4821              		.align	2
 4822              	.L566:
 4823 0030 00000000 		.word	.LANCHOR12
 4824              	.LBE178:
 4825              	.LBE180:
 4826              		.cfi_endproc
 4827              	.LFE276:
 4828              		.size	mc_interface_set_handbrake_rel, .-mc_interface_set_handbrake_rel
 4829              		.section	.text.mc_interface_fault_stop,"ax",%progbits
 4830              		.align	2
 4831              		.p2align 4,,15
 4832              		.global	mc_interface_fault_stop
 4833              		.thumb
 4834              		.thumb_func
 4835              		.type	mc_interface_fault_stop, %function
 4836              	mc_interface_fault_stop:
 4837              	.LFB307:
 4838              		.loc 1 1086 0
 4839              		.cfi_startproc
 4840              		@ args = 0, pretend = 0, frame = 0
 4841              		@ frame_needed = 0, uses_anonymous_args = 0
 4842              		@ link register save eliminated.
 4843              	.LVL395:
 4844              		.loc 1 1087 0
 4845 0000 054B     		ldr	r3, .L573
ARM GAS  /var/folders/sv/kgmgr77579zbf78p2zlhkdfr0000gn/T//ccOxe4My.s 			page 86


 4846 0002 1B78     		ldrb	r3, [r3]	@ zero_extendqisi2
 4847 0004 8342     		cmp	r3, r0
 4848 0006 01D0     		beq	.L572
 4849 0008 FFF7FEBF 		b	mc_interface_fault_stop.part.4
 4850              	.LVL396:
 4851              	.L572:
 4852              		.loc 1 1088 0
 4853 000c 034A     		ldr	r2, .L573+4
 4854 000e 044B     		ldr	r3, .L573+8
 4855 0010 D2F84C21 		ldr	r2, [r2, #332]
 4856 0014 1A60     		str	r2, [r3]
 4857              		.loc 1 1089 0
 4858 0016 7047     		bx	lr
 4859              	.L574:
 4860              		.align	2
 4861              	.L573:
 4862 0018 00000000 		.word	.LANCHOR13
 4863 001c 00000000 		.word	.LANCHOR12
 4864 0020 00000000 		.word	.LANCHOR14
 4865              		.cfi_endproc
 4866              	.LFE307:
 4867              		.size	mc_interface_fault_stop, .-mc_interface_fault_stop
 4868              		.section	.text.mc_interface_mc_timer_isr,"ax",%progbits
 4869              		.align	2
 4870              		.p2align 4,,15
 4871              		.global	mc_interface_mc_timer_isr
 4872              		.thumb
 4873              		.thumb_func
 4874              		.type	mc_interface_mc_timer_isr, %function
 4875              	mc_interface_mc_timer_isr:
 4876              	.LFB308:
 4877              		.loc 1 1144 0
 4878              		.cfi_startproc
 4879              		@ args = 0, pretend = 0, frame = 8
 4880              		@ frame_needed = 0, uses_anonymous_args = 0
 4881 0000 2DE9F043 		push	{r4, r5, r6, r7, r8, r9, lr}
 4882              		.cfi_def_cfa_offset 28
 4883              		.cfi_offset 4, -28
 4884              		.cfi_offset 5, -24
 4885              		.cfi_offset 6, -20
 4886              		.cfi_offset 7, -16
 4887              		.cfi_offset 8, -12
 4888              		.cfi_offset 9, -8
 4889              		.cfi_offset 14, -4
 4890 0004 2DED048B 		vpush.64	{d8, d9}
 4891              		.cfi_def_cfa_offset 44
 4892              		.cfi_offset 80, -44
 4893              		.cfi_offset 81, -40
 4894              		.cfi_offset 82, -36
 4895              		.cfi_offset 83, -32
 4896              		.loc 1 1147 0
 4897 0008 794E     		ldr	r6, .L686
 4898 000a 9FED7A8A 		vldr.32	s16, .L686+4
 4899              		.loc 1 1151 0
 4900 000e 7A4D     		ldr	r5, .L686+8
 4901              		.loc 1 1144 0
 4902 0010 83B0     		sub	sp, sp, #12
ARM GAS  /var/folders/sv/kgmgr77579zbf78p2zlhkdfr0000gn/T//ccOxe4My.s 			page 87


 4903              		.cfi_def_cfa_offset 56
 4904              		.loc 1 1145 0
 4905 0012 FFF7FEFF 		bl	ledpwm_update_pwm
 4906              	.LVL397:
 4907              		.loc 1 1147 0
 4908 0016 338A     		ldrh	r3, [r6, #16]
 4909 0018 DFED786A 		vldr.32	s13, .L686+12
 4910              		.loc 1 1151 0
 4911 001c 95ED0B7A 		vldr.32	s14, [r5, #44]
 4912              		.loc 1 1147 0
 4913 0020 9BB2     		uxth	r3, r3
 4914 0022 07EE903A 		vmov	s15, r3	@ int
 4915 0026 F8EE677A 		vcvt.f32.u32	s15, s15
 4916 002a 67EE887A 		vmul.f32	s15, s15, s16
 4917 002e 27EEA68A 		vmul.f32	s16, s15, s13
 4918              	.LVL398:
 4919              		.loc 1 1151 0
 4920 0032 B4EEC78A 		vcmpe.f32	s16, s14
 4921 0036 F1EE10FA 		vmrs	APSR_nzcv, FPSCR
 4922 003a 07D4     		bmi	.L576
 4923              		.loc 1 1152 0 discriminator 1
 4924 003c D5ED0C7A 		vldr.32	s15, [r5, #48]
 4925              		.loc 1 1151 0 discriminator 1
 4926 0040 B4EEE78A 		vcmpe.f32	s16, s15
 4927 0044 F1EE10FA 		vmrs	APSR_nzcv, FPSCR
 4928 0048 40F3D581 		ble	.L658
 4929              	.L576:
 4930              		.loc 1 1153 0
 4931 004c 6C4A     		ldr	r2, .L686+16
 4932 004e 1368     		ldr	r3, [r2]
 4933 0050 0133     		adds	r3, r3, #1
 4934              		.loc 1 1155 0
 4935 0052 072B     		cmp	r3, #7
 4936              		.loc 1 1153 0
 4937 0054 1360     		str	r3, [r2]
 4938              		.loc 1 1155 0
 4939 0056 00F3B581 		bgt	.L671
 4940              	.L579:
 4941              		.loc 1 1163 0
 4942 005a FFF7FEFF 		bl	mc_interface_get_state
 4943              	.LVL399:
 4944 005e 0228     		cmp	r0, #2
 4945 0060 00F0C481 		beq	.L672
 4946              	.L582:
 4947              		.loc 1 1166 0
 4948 0064 674B     		ldr	r3, .L686+20
 4949 0066 0022     		movs	r2, #0
 4950 0068 1A60     		str	r2, [r3]
 4951              	.L583:
 4952              		.loc 1 1169 0
 4953 006a 674B     		ldr	r3, .L686+24
 4954 006c 1B68     		ldr	r3, [r3]
 4955 006e 03B1     		cbz	r3, .L584
 4956              		.loc 1 1170 0
 4957 0070 9847     		blx	r3
 4958              	.LVL400:
 4959              	.L584:
ARM GAS  /var/folders/sv/kgmgr77579zbf78p2zlhkdfr0000gn/T//ccOxe4My.s 			page 88


 4960              		.loc 1 1173 0
 4961 0072 FFF7FEFF 		bl	mc_interface_get_tot_current_filtered
 4962              	.LVL401:
 4963 0076 F0EE408A 		vmov.f32	s17, s0
 4964              	.LVL402:
 4965              		.loc 1 1174 0
 4966 007a FFF7FEFF 		bl	mc_interface_get_tot_current_in_filtered
 4967              	.LVL403:
 4968              		.loc 1 1175 0
 4969 007e 6348     		ldr	r0, .L686+28
 4970              		.loc 1 1176 0
 4971 0080 6349     		ldr	r1, .L686+32
 4972              		.loc 1 1175 0
 4973 0082 D0ED007A 		vldr.32	s15, [r0]
 4974              		.loc 1 1177 0
 4975 0086 634A     		ldr	r2, .L686+36
 4976              		.loc 1 1178 0
 4977 0088 634B     		ldr	r3, .L686+40
 4978              		.loc 1 1175 0
 4979 008a 78EEA77A 		vadd.f32	s15, s17, s15
 4980              		.loc 1 1177 0
 4981 008e B7EE009A 		vmov.f32	s18, #1.0e+0
 4982              		.loc 1 1175 0
 4983 0092 C0ED007A 		vstr.32	s15, [r0]
 4984              		.loc 1 1176 0
 4985 0096 D1ED007A 		vldr.32	s15, [r1]
 4986 009a 70EE277A 		vadd.f32	s15, s0, s15
 4987              		.loc 1 1174 0
 4988 009e F0EE409A 		vmov.f32	s19, s0
 4989              	.LVL404:
 4990              		.loc 1 1176 0
 4991 00a2 C1ED007A 		vstr.32	s15, [r1]
 4992              		.loc 1 1177 0
 4993 00a6 D2ED007A 		vldr.32	s15, [r2]
 4994 00aa 77EE897A 		vadd.f32	s15, s15, s18
 4995 00ae C2ED007A 		vstr.32	s15, [r2]
 4996              		.loc 1 1178 0
 4997 00b2 D3ED007A 		vldr.32	s15, [r3]
 4998 00b6 77EE897A 		vadd.f32	s15, s15, s18
 4999 00ba C3ED007A 		vstr.32	s15, [r3]
 5000              		.loc 1 1180 0
 5001 00be FFF7FEFF 		bl	mcpwm_foc_get_id
 5002              	.LVL405:
 5003 00c2 564B     		ldr	r3, .L686+44
 5004 00c4 D3ED007A 		vldr.32	s15, [r3]
 5005 00c8 30EE270A 		vadd.f32	s0, s0, s15
 5006 00cc 83ED000A 		vstr.32	s0, [r3]
 5007              		.loc 1 1181 0
 5008 00d0 FFF7FEFF 		bl	mcpwm_foc_get_iq
 5009              	.LVL406:
 5010 00d4 5249     		ldr	r1, .L686+48
 5011              		.loc 1 1182 0
 5012 00d6 534A     		ldr	r2, .L686+52
 5013              		.loc 1 1181 0
 5014 00d8 D1ED007A 		vldr.32	s15, [r1]
 5015              		.loc 1 1183 0
 5016 00dc 524B     		ldr	r3, .L686+56
ARM GAS  /var/folders/sv/kgmgr77579zbf78p2zlhkdfr0000gn/T//ccOxe4My.s 			page 89


 5017              		.loc 1 1181 0
 5018 00de 30EE270A 		vadd.f32	s0, s0, s15
 5019 00e2 81ED000A 		vstr.32	s0, [r1]
 5020              		.loc 1 1182 0
 5021 00e6 D2ED007A 		vldr.32	s15, [r2]
 5022 00ea 77EE897A 		vadd.f32	s15, s15, s18
 5023 00ee C2ED007A 		vstr.32	s15, [r2]
 5024              		.loc 1 1183 0
 5025 00f2 D3ED007A 		vldr.32	s15, [r3]
 5026 00f6 37EE899A 		vadd.f32	s18, s15, s18
 5027 00fa 83ED009A 		vstr.32	s18, [r3]
 5028              		.loc 1 1185 0
 5029 00fe FFF7FEFF 		bl	mc_interface_get_tot_current
 5030              	.LVL407:
 5031              		.loc 1 1187 0
 5032 0102 AB78     		ldrb	r3, [r5, #2]	@ zero_extendqisi2
 5033 0104 032B     		cmp	r3, #3
 5034              		.loc 1 1185 0
 5035 0106 B0EE409A 		vmov.f32	s18, s0
 5036              	.LVL408:
 5037              		.loc 1 1187 0
 5038 010a 00F0DD81 		beq	.L673
 5039              		.loc 1 1186 0
 5040 010e B0EE680A 		vmov.f32	s0, s17
 5041              	.LVL409:
 5042              	.L585:
 5043              		.loc 1 1194 0
 5044 0112 95F83C20 		ldrb	r2, [r5, #60]	@ zero_extendqisi2
 5045 0116 384B     		ldr	r3, .L686+8
 5046              		.loc 1 1195 0
 5047 0118 D3ED057A 		vldr.32	s15, [r3, #20]
 5048              		.loc 1 1194 0
 5049 011c 002A     		cmp	r2, #0
 5050 011e 00F04381 		beq	.L586
 5051              		.loc 1 1195 0
 5052 0122 B0EEC00A 		vabs.f32	s0, s0
 5053              	.LVL410:
 5054 0126 B4EEE70A 		vcmpe.f32	s0, s15
 5055 012a F1EE10FA 		vmrs	APSR_nzcv, FPSCR
 5056 012e 07DD     		ble	.L587
 5057              	.LVL411:
 5058              	.LBB181:
 5059              	.LBB182:
 5060              		.loc 1 1087 0
 5061 0130 3E4A     		ldr	r2, .L686+60
 5062 0132 1278     		ldrb	r2, [r2]	@ zero_extendqisi2
 5063 0134 042A     		cmp	r2, #4
 5064 0136 00F0AF81 		beq	.L674
 5065              	.LVL412:
 5066              	.L589:
 5067              	.LBE182:
 5068              	.LBE181:
 5069              	.LBB185:
 5070              	.LBB186:
 5071 013a 0420     		movs	r0, #4
 5072 013c FFF7FEFF 		bl	mc_interface_fault_stop.part.4
 5073              	.LVL413:
ARM GAS  /var/folders/sv/kgmgr77579zbf78p2zlhkdfr0000gn/T//ccOxe4My.s 			page 90


 5074              	.L587:
 5075              	.LBE186:
 5076              	.LBE185:
 5077              		.loc 1 1205 0
 5078 0140 3B4B     		ldr	r3, .L686+64
 5079 0142 1B69     		ldr	r3, [r3, #16]
 5080 0144 DB04     		lsls	r3, r3, #19
 5081 0146 08D4     		bmi	.L593
 5082              	.LVL414:
 5083              	.LBB187:
 5084              	.LBB188:
 5085              		.loc 1 1087 0
 5086 0148 384B     		ldr	r3, .L686+60
 5087 014a 1B78     		ldrb	r3, [r3]	@ zero_extendqisi2
 5088 014c 032B     		cmp	r3, #3
 5089 014e 40F0AC81 		bne	.L594
 5090              		.loc 1 1088 0
 5091 0152 384B     		ldr	r3, .L686+68
 5092 0154 D5F84C21 		ldr	r2, [r5, #332]
 5093 0158 1A60     		str	r2, [r3]
 5094              	.LVL415:
 5095              	.L593:
 5096              	.LBE188:
 5097              	.LBE187:
 5098              		.loc 1 1210 0
 5099 015a FFF7FEFF 		bl	mc_interface_get_sampling_frequency_now
 5100              	.LVL416:
 5101              		.loc 1 1211 0
 5102 015e F0EEE88A 		vabs.f32	s17, s17
 5103              	.LVL417:
 5104 0162 F7EE006A 		vmov.f32	s13, #1.0e+0
 5105 0166 F4EEE68A 		vcmpe.f32	s17, s13
 5106 016a F1EE10FA 		vmrs	APSR_nzcv, FPSCR
 5107              		.loc 1 1210 0
 5108 016e B0EE409A 		vmov.f32	s18, s0
 5109              	.LVL418:
 5110              		.loc 1 1211 0
 5111 0172 2FDD     		ble	.L596
 5112              	.LBB190:
 5113              		.loc 1 1217 0
 5114 0174 86EE807A 		vdiv.f32	s14, s13, s0
 5115 0178 2F4A     		ldr	r2, .L686+72
 5116              		.loc 1 1216 0
 5117 017a 304B     		ldr	r3, .L686+76
 5118 017c C9EE807A 		vdiv.f32	s15, s19, s0
 5119              		.loc 1 1217 0
 5120 0180 92ED006A 		vldr.32	s12, [r2]
 5121              		.loc 1 1216 0
 5122 0184 D3ED005A 		vldr.32	s11, [r3]
 5123              		.loc 1 1219 0
 5124 0188 DFED2D6A 		vldr.32	s13, .L686+80
 5125              		.loc 1 1217 0
 5126 018c 37EE067A 		vadd.f32	s14, s14, s12
 5127              		.loc 1 1216 0
 5128 0190 77EEA57A 		vadd.f32	s15, s15, s11
 5129              		.loc 1 1219 0
 5130 0194 B4EEE67A 		vcmpe.f32	s14, s13
ARM GAS  /var/folders/sv/kgmgr77579zbf78p2zlhkdfr0000gn/T//ccOxe4My.s 			page 91


 5131 0198 F1EE10FA 		vmrs	APSR_nzcv, FPSCR
 5132              		.loc 1 1216 0
 5133 019c C3ED007A 		vstr.32	s15, [r3]
 5134              		.loc 1 1217 0
 5135 01a0 82ED007A 		vstr.32	s14, [r2]
 5136              		.loc 1 1219 0
 5137 01a4 16DB     		blt	.L596
 5138              		.loc 1 1220 0
 5139 01a6 F5EEC07A 		vcmpe.f32	s15, #0
 5140 01aa F1EE10FA 		vmrs	APSR_nzcv, FPSCR
 5141 01ae 40F39281 		ble	.L659
 5142              		.loc 1 1221 0
 5143 01b2 2448     		ldr	r0, .L686+84
 5144              		.loc 1 1222 0
 5145 01b4 2449     		ldr	r1, .L686+88
 5146              		.loc 1 1221 0
 5147 01b6 90ED007A 		vldr.32	s14, [r0]
 5148 01ba 37EE877A 		vadd.f32	s14, s15, s14
 5149 01be 80ED007A 		vstr.32	s14, [r0]
 5150              		.loc 1 1222 0
 5151 01c2 91ED007A 		vldr.32	s14, [r1]
 5152 01c6 A8EE277A 		vfma.f32	s14, s16, s15
 5153 01ca 81ED007A 		vstr.32	s14, [r1]
 5154              	.L601:
 5155              		.loc 1 1228 0
 5156 01ce 0021     		movs	r1, #0
 5157 01d0 1160     		str	r1, [r2]	@ float
 5158              		.loc 1 1229 0
 5159 01d2 1960     		str	r1, [r3]	@ float
 5160              	.L596:
 5161              	.LVL419:
 5162              	.LBE190:
 5163              		.loc 1 1235 0
 5164 01d4 1D4F     		ldr	r7, .L686+92
 5165 01d6 3B78     		ldrb	r3, [r7]	@ zero_extendqisi2
 5166 01d8 013B     		subs	r3, r3, #1
 5167 01da 052B     		cmp	r3, #5
 5168 01dc 00F2DF80 		bhi	.L575
 5169 01e0 DFE813F0 		tbh	[pc, r3, lsl #1]
 5170              	.L604:
 5171 01e4 3201     		.2byte	(.L603-.L604)/2
 5172 01e6 4801     		.2byte	(.L605-.L604)/2
 5173 01e8 3600     		.2byte	(.L606-.L604)/2
 5174 01ea 0D01     		.2byte	(.L607-.L604)/2
 5175 01ec 3600     		.2byte	(.L606-.L604)/2
 5176 01ee 0D01     		.2byte	(.L607-.L604)/2
 5177              		.p2align 1
 5178              	.L687:
 5179              		.align	2
 5180              	.L686:
 5181 01f0 00000000 		.word	.LANCHOR41
 5182 01f4 6740533A 		.word	978534503
 5183 01f8 00000000 		.word	.LANCHOR12
 5184 01fc 74D19541 		.word	1100337524
 5185 0200 00000000 		.word	.LANCHOR42
 5186 0204 00000000 		.word	.LANCHOR15
 5187 0208 00000000 		.word	.LANCHOR39
ARM GAS  /var/folders/sv/kgmgr77579zbf78p2zlhkdfr0000gn/T//ccOxe4My.s 			page 92


 5188 020c 00000000 		.word	.LANCHOR18
 5189 0210 00000000 		.word	.LANCHOR19
 5190 0214 00000000 		.word	.LANCHOR20
 5191 0218 00000000 		.word	.LANCHOR21
 5192 021c 00000000 		.word	.LANCHOR22
 5193 0220 00000000 		.word	.LANCHOR23
 5194 0224 00000000 		.word	.LANCHOR24
 5195 0228 00000000 		.word	.LANCHOR25
 5196 022c 00000000 		.word	.LANCHOR13
 5197 0230 00080240 		.word	1073874944
 5198 0234 00000000 		.word	.LANCHOR14
 5199 0238 00000000 		.word	.LANCHOR44
 5200 023c 00000000 		.word	.LANCHOR43
 5201 0240 0AD7233C 		.word	1008981770
 5202 0244 00000000 		.word	.LANCHOR26
 5203 0248 00000000 		.word	.LANCHOR28
 5204 024c 00000000 		.word	.LANCHOR36
 5205              	.L606:
 5206              	.LVL420:
 5207              	.LBB191:
 5208              		.loc 1 1267 0
 5209 0250 DFF86083 		ldr	r8, .L688+100
 5210 0254 D8F80030 		ldr	r3, [r8]
 5211 0258 002B     		cmp	r3, #0
 5212 025a C0F22F81 		blt	.L638
 5213              		.loc 1 1268 0
 5214 025e BC4A     		ldr	r2, .L688
 5215 0260 D8F80030 		ldr	r3, [r8]
 5216 0264 1268     		ldr	r2, [r2]
 5217              	.LVL421:
 5218              		.loc 1 1269 0
 5219 0266 9B1A     		subs	r3, r3, r2
 5220              	.LVL422:
 5221 0268 00F14982 		bmi	.L675
 5222              	.LVL423:
 5223              	.L614:
 5224              		.loc 1 1274 0
 5225 026c B94C     		ldr	r4, .L688+4
 5226 026e 2268     		ldr	r2, [r4]
 5227 0270 9342     		cmp	r3, r2
 5228 0272 00F05581 		beq	.L676
 5229              		.loc 1 1287 0
 5230 0276 FFF7FEFF 		bl	mc_interface_get_state
 5231              	.LVL424:
 5232 027a 0228     		cmp	r0, #2
 5233 027c 00F0D680 		beq	.L632
 5234              	.LVL425:
 5235              	.L623:
 5236              	.LBE191:
 5237              	.LBB202:
 5238              		.loc 1 1328 0
 5239 0280 B54A     		ldr	r2, .L688+8
 5240              		.loc 1 1330 0
 5241 0282 B649     		ldr	r1, .L688+12
 5242              		.loc 1 1328 0
 5243 0284 1368     		ldr	r3, [r2]
 5244              		.loc 1 1330 0
ARM GAS  /var/folders/sv/kgmgr77579zbf78p2zlhkdfr0000gn/T//ccOxe4My.s 			page 93


 5245 0286 0968     		ldr	r1, [r1]
 5246              		.loc 1 1328 0
 5247 0288 0133     		adds	r3, r3, #1
 5248              		.loc 1 1330 0
 5249 028a 8B42     		cmp	r3, r1
 5250              		.loc 1 1328 0
 5251 028c 1360     		str	r3, [r2]
 5252              		.loc 1 1330 0
 5253 028e C0F28680 		blt	.L575
 5254              	.LBB203:
 5255              		.loc 1 1333 0
 5256 0292 2168     		ldr	r1, [r4]
 5257 0294 AF48     		ldr	r0, .L688+4
 5258              		.loc 1 1331 0
 5259 0296 0023     		movs	r3, #0
 5260              		.loc 1 1333 0
 5261 0298 B1F5FA6F 		cmp	r1, #2000
 5262              		.loc 1 1334 0
 5263 029c A8BF     		it	ge
 5264 029e 0360     		strge	r3, [r0]
 5265              		.loc 1 1331 0
 5266 02a0 1360     		str	r3, [r2]
 5267              		.loc 1 1338 0
 5268 02a2 AB78     		ldrb	r3, [r5, #2]	@ zero_extendqisi2
 5269 02a4 AE4A     		ldr	r2, .L688+16
 5270 02a6 032B     		cmp	r3, #3
 5271 02a8 00F09981 		beq	.L677
 5272              		.loc 1 1344 0
 5273 02ac 9378     		ldrb	r3, [r2, #2]	@ zero_extendqisi2
 5274 02ae 012B     		cmp	r3, #1
 5275 02b0 00F02081 		beq	.L678
 5276              		.loc 1 1348 0
 5277 02b4 AB4B     		ldr	r3, .L688+20
 5278              		.loc 1 1349 0
 5279 02b6 AC4F     		ldr	r7, .L688+24
 5280              		.loc 1 1348 0
 5281 02b8 1D68     		ldr	r5, [r3]
 5282              		.loc 1 1349 0
 5283 02ba 2368     		ldr	r3, [r4]
 5284 02bc 3B44     		add	r3, r3, r7
 5285 02be 0022     		movs	r2, #0
 5286              		.loc 1 1348 0
 5287 02c0 2DB2     		sxth	r5, r5
 5288              	.LVL426:
 5289              		.loc 1 1349 0
 5290 02c2 83F8082E 		strb	r2, [r3, #3592]
 5291              	.L626:
 5292              		.loc 1 1352 0
 5293 02c6 FFF7FEFF 		bl	mc_interface_get_state
 5294              	.LVL427:
 5295 02ca 0128     		cmp	r0, #1
 5296 02cc 00F0AC81 		beq	.L679
 5297              		.loc 1 1360 0
 5298 02d0 A649     		ldr	r1, .L688+28
 5299 02d2 D4F800E0 		ldr	lr, [r4]
 5300 02d6 0A68     		ldr	r2, [r1]
 5301 02d8 A54B     		ldr	r3, .L688+32
ARM GAS  /var/folders/sv/kgmgr77579zbf78p2zlhkdfr0000gn/T//ccOxe4My.s 			page 94


 5302              		.loc 1 1363 0
 5303 02da A648     		ldr	r0, .L688+36
 5304              		.loc 1 1360 0
 5305 02dc 12B2     		sxth	r2, r2
 5306 02de 23F81E20 		strh	r2, [r3, lr, lsl #1]	@ movhi
 5307              		.loc 1 1361 0
 5308 02e2 D4F800C0 		ldr	ip, [r4]
 5309 02e6 4A68     		ldr	r2, [r1, #4]
 5310              		.loc 1 1364 0
 5311 02e8 DFF8CCE2 		ldr	lr, .L688+104
 5312              		.loc 1 1365 0
 5313 02ec A249     		ldr	r1, .L688+40
 5314              		.loc 1 1361 0
 5315 02ee 03EB4C03 		add	r3, r3, ip, lsl #1
 5316 02f2 12B2     		sxth	r2, r2
 5317 02f4 A3F8A02F 		strh	r2, [r3, #4000]	@ movhi
 5318              		.loc 1 1363 0
 5319 02f8 2368     		ldr	r3, [r4]
 5320 02fa B288     		ldrh	r2, [r6, #4]
 5321 02fc 00EB4303 		add	r3, r0, r3, lsl #1
 5322 0300 A8B2     		uxth	r0, r5
 5323 0302 121A     		subs	r2, r2, r0
 5324 0304 12B2     		sxth	r2, r2
 5325 0306 A3F8482E 		strh	r2, [r3, #3656]	@ movhi
 5326              		.loc 1 1364 0
 5327 030a 2368     		ldr	r3, [r4]
 5328 030c 7288     		ldrh	r2, [r6, #2]
 5329 030e 0EEB4303 		add	r3, lr, r3, lsl #1
 5330 0312 121A     		subs	r2, r2, r0
 5331 0314 12B2     		sxth	r2, r2
 5332 0316 A3F8F02C 		strh	r2, [r3, #3312]	@ movhi
 5333              		.loc 1 1365 0
 5334 031a 2268     		ldr	r2, [r4]
 5335 031c 3388     		ldrh	r3, [r6]
 5336 031e 01EB4202 		add	r2, r1, r2, lsl #1
 5337 0322 1B1A     		subs	r3, r3, r0
 5338 0324 1BB2     		sxth	r3, r3
 5339 0326 A2F8983B 		strh	r3, [r2, #2968]	@ movhi
 5340              	.L629:
 5341              		.loc 1 1368 0
 5342 032a 2268     		ldr	r2, [r4]
 5343 032c 934B     		ldr	r3, .L688+44
 5344 032e 03EB4203 		add	r3, r3, r2, lsl #1
 5345 0332 A3F8405A 		strh	r5, [r3, #2624]	@ movhi
 5346              		.loc 1 1369 0
 5347 0336 2568     		ldr	r5, [r4]
 5348              	.LVL428:
 5349 0338 FFF7FEFF 		bl	mc_interface_get_tot_current
 5350              	.LVL429:
 5351              		.loc 1 1370 0
 5352 033c F2EE047A 		vmov.f32	s15, #1.0e+1
 5353 0340 89EE277A 		vdiv.f32	s14, s18, s15
 5354              		.loc 1 1369 0
 5355 0344 8E4A     		ldr	r2, .L688+48
 5356              		.loc 1 1370 0
 5357 0346 8F4B     		ldr	r3, .L688+52
 5358              		.loc 1 1369 0
ARM GAS  /var/folders/sv/kgmgr77579zbf78p2zlhkdfr0000gn/T//ccOxe4My.s 			page 95


 5359 0348 02EB4501 		add	r1, r2, r5, lsl #1
 5360 034c DFED8E7A 		vldr.32	s15, .L688+56
 5361 0350 20EE270A 		vmul.f32	s0, s0, s15
 5362              		.loc 1 1370 0
 5363 0354 FDEEC77A 		vcvt.s32.f32	s15, s14
 5364 0358 CDED017A 		vstr.32	s15, [sp, #4]	@ int
 5365              		.loc 1 1369 0
 5366 035c FDEEC07A 		vcvt.s32.f32	s15, s0
 5367              		.loc 1 1370 0
 5368 0360 BDF90420 		ldrsh	r2, [sp, #4]
 5369              		.loc 1 1369 0
 5370 0364 CDED007A 		vstr.32	s15, [sp]	@ int
 5371 0368 BDF90000 		ldrsh	r0, [sp]
 5372 036c A1F8E808 		strh	r0, [r1, #2280]	@ movhi
 5373              		.loc 1 1370 0
 5374 0370 2168     		ldr	r1, [r4]
 5375 0372 03EB4103 		add	r3, r3, r1, lsl #1
 5376 0376 A3F89027 		strh	r2, [r3, #1936]	@ movhi
 5377              		.loc 1 1371 0
 5378 037a 2668     		ldr	r6, [r4]
 5379 037c FFF7FEFF 		bl	mcpwm_get_comm_step
 5380              	.LVL430:
 5381 0380 0546     		mov	r5, r0
 5382 0382 FFF7FEFF 		bl	mcpwm_read_hall_phase
 5383              	.LVL431:
 5384 0386 3744     		add	r7, r7, r6
 5385 0388 45EAC000 		orr	r0, r5, r0, lsl #3
 5386 038c C0B2     		uxtb	r0, r0
 5387 038e 87F83806 		strb	r0, [r7, #1592]
 5388              		.loc 1 1373 0
 5389 0392 2368     		ldr	r3, [r4]
 5390              	.LBB204:
 5391              	.LBB205:
 5392              		.loc 1 993 0
 5393 0394 7D4A     		ldr	r2, .L688+60
 5394              	.LBE205:
 5395              	.LBE204:
 5396              		.loc 1 1373 0
 5397 0396 0133     		adds	r3, r3, #1
 5398 0398 2360     		str	r3, [r4]
 5399              	.LBB207:
 5400              	.LBB206:
 5401              		.loc 1 993 0
 5402 039a 1368     		ldr	r3, [r2]	@ float
 5403              	.LBE206:
 5404              	.LBE207:
 5405              		.loc 1 1375 0
 5406 039c 1360     		str	r3, [r2]	@ float
 5407              	.L575:
 5408              	.LBE203:
 5409              	.LBE202:
 5410              		.loc 1 1378 0
 5411 039e 03B0     		add	sp, sp, #12
 5412              		.cfi_remember_state
 5413              		.cfi_def_cfa_offset 44
 5414              		@ sp needed
 5415 03a0 BDEC048B 		vldm	sp!, {d8-d9}
ARM GAS  /var/folders/sv/kgmgr77579zbf78p2zlhkdfr0000gn/T//ccOxe4My.s 			page 96


 5416              		.cfi_restore 82
 5417              		.cfi_restore 83
 5418              		.cfi_restore 80
 5419              		.cfi_restore 81
 5420              		.cfi_def_cfa_offset 28
 5421              	.LVL432:
 5422 03a4 BDE8F083 		pop	{r4, r5, r6, r7, r8, r9, pc}
 5423              	.LVL433:
 5424              	.L586:
 5425              		.cfi_restore_state
 5426              		.loc 1 1199 0
 5427 03a8 B0EEC99A 		vabs.f32	s18, s18
 5428              	.LVL434:
 5429 03ac B4EEE79A 		vcmpe.f32	s18, s15
 5430 03b0 F1EE10FA 		vmrs	APSR_nzcv, FPSCR
 5431 03b4 7FF7C4AE 		ble	.L587
 5432              	.LVL435:
 5433              	.LBB210:
 5434              	.LBB183:
 5435              		.loc 1 1087 0
 5436 03b8 754A     		ldr	r2, .L688+64
 5437 03ba 1278     		ldrb	r2, [r2]	@ zero_extendqisi2
 5438 03bc 042A     		cmp	r2, #4
 5439 03be 7FF4BCAE 		bne	.L589
 5440 03c2 69E0     		b	.L674
 5441              	.LVL436:
 5442              	.L671:
 5443              	.LBE183:
 5444              	.LBE210:
 5445              		.loc 1 1156 0
 5446 03c4 D5ED0B7A 		vldr.32	s15, [r5, #44]
 5447              	.LBB211:
 5448              	.LBB212:
 5449              		.loc 1 1087 0
 5450 03c8 714B     		ldr	r3, .L688+64
 5451              	.LBE212:
 5452              	.LBE211:
 5453              		.loc 1 1156 0
 5454 03ca B4EEE78A 		vcmpe.f32	s16, s15
 5455 03ce F1EE10FA 		vmrs	APSR_nzcv, FPSCR
 5456              	.LBB216:
 5457              	.LBB213:
 5458              		.loc 1 1087 0
 5459 03d2 1B78     		ldrb	r3, [r3]	@ zero_extendqisi2
 5460              	.LBE213:
 5461              	.LBE216:
 5462              		.loc 1 1156 0
 5463 03d4 4CBF     		ite	mi
 5464 03d6 0220     		movmi	r0, #2
 5465 03d8 0120     		movpl	r0, #1
 5466              	.LVL437:
 5467              	.LBB217:
 5468              	.LBB214:
 5469              		.loc 1 1087 0
 5470 03da 8342     		cmp	r3, r0
 5471 03dc 69D0     		beq	.L680
 5472 03de FFF7FEFF 		bl	mc_interface_fault_stop.part.4
ARM GAS  /var/folders/sv/kgmgr77579zbf78p2zlhkdfr0000gn/T//ccOxe4My.s 			page 97


 5473              	.LVL438:
 5474              	.LBE214:
 5475              	.LBE217:
 5476              		.loc 1 1163 0
 5477 03e2 FFF7FEFF 		bl	mc_interface_get_state
 5478              	.LVL439:
 5479 03e6 0228     		cmp	r0, #2
 5480 03e8 7FF43CAE 		bne	.L582
 5481              	.L672:
 5482              		.loc 1 1164 0
 5483 03ec 694A     		ldr	r2, .L688+68
 5484 03ee 1368     		ldr	r3, [r2]
 5485 03f0 0133     		adds	r3, r3, #1
 5486 03f2 1360     		str	r3, [r2]
 5487 03f4 39E6     		b	.L583
 5488              	.L658:
 5489              		.loc 1 1160 0
 5490 03f6 684B     		ldr	r3, .L688+72
 5491 03f8 0022     		movs	r2, #0
 5492 03fa 1A60     		str	r2, [r3]
 5493 03fc 2DE6     		b	.L579
 5494              	.LVL440:
 5495              	.L607:
 5496              	.LBB218:
 5497              		.loc 1 1297 0
 5498 03fe DFF8B481 		ldr	r8, .L688+100
 5499 0402 D8F80030 		ldr	r3, [r8]
 5500 0406 002B     		cmp	r3, #0
 5501 0408 5BDB     		blt	.L639
 5502              		.loc 1 1298 0
 5503 040a 514A     		ldr	r2, .L688
 5504 040c D8F80030 		ldr	r3, [r8]
 5505 0410 1268     		ldr	r2, [r2]
 5506              	.LVL441:
 5507              		.loc 1 1299 0
 5508 0412 9B1A     		subs	r3, r3, r2
 5509              	.LVL442:
 5510 0414 00F17681 		bmi	.L681
 5511              	.LVL443:
 5512              	.L619:
 5513              		.loc 1 1304 0
 5514 0418 4E4C     		ldr	r4, .L688+4
 5515 041a 2268     		ldr	r2, [r4]
 5516 041c 9342     		cmp	r3, r2
 5517 041e 00F0CD80 		beq	.L682
 5518              		.loc 1 1317 0
 5519 0422 5B4B     		ldr	r3, .L688+64
 5520              	.LVL444:
 5521 0424 1B78     		ldrb	r3, [r3]	@ zero_extendqisi2
 5522 0426 002B     		cmp	r3, #0
 5523 0428 3FF42AAF 		beq	.L623
 5524              	.LVL445:
 5525              	.L632:
 5526 042c D8F80030 		ldr	r3, [r8]
 5527 0430 002B     		cmp	r3, #0
 5528 0432 BFF625AF 		bge	.L623
 5529              		.loc 1 1294 0
ARM GAS  /var/folders/sv/kgmgr77579zbf78p2zlhkdfr0000gn/T//ccOxe4My.s 			page 98


 5530 0436 4FF00109 		mov	r9, #1
 5531              	.LVL446:
 5532              	.L635:
 5533              		.loc 1 1318 0
 5534 043a 2368     		ldr	r3, [r4]
 5535 043c C8F80030 		str	r3, [r8]
 5536              	.LBE218:
 5537              		.loc 1 1326 0
 5538 0440 B9F1000F 		cmp	r9, #0
 5539 0444 ABD0     		beq	.L575
 5540 0446 1BE7     		b	.L623
 5541              	.LVL447:
 5542              	.L603:
 5543              		.loc 1 1237 0
 5544 0448 424C     		ldr	r4, .L688+4
 5545 044a 414B     		ldr	r3, .L688
 5546 044c 2268     		ldr	r2, [r4]
 5547 044e 1B68     		ldr	r3, [r3]
 5548 0450 9A42     		cmp	r2, r3
 5549 0452 7FF415AF 		bne	.L623
 5550              		.loc 1 1239 0
 5551 0456 514A     		ldr	r2, .L688+76
 5552              		.loc 1 1238 0
 5553 0458 0024     		movs	r4, #0
 5554              		.loc 1 1239 0
 5555 045a 0121     		movs	r1, #1
 5556              		.loc 1 1238 0
 5557 045c 3C70     		strb	r4, [r7]
 5558              	.LBB229:
 5559              	.LBB230:
 5560              	.LBB231:
 5561              	.LBB232:
 5562              	.LBB233:
 5563              		.file 3 "ChibiOS_3.0.2/os/ext/CMSIS/include/core_cmFunc.h"
 5564              		.loc 3 546 0
 5565 045e 2023     		movs	r3, #32
 5566              	.LBE233:
 5567              	.LBE232:
 5568              	.LBE231:
 5569              	.LBE230:
 5570              	.LBE229:
 5571              		.loc 1 1239 0
 5572 0460 1170     		strb	r1, [r2]
 5573              	.LVL448:
 5574              	.LBB238:
 5575              	.LBB237:
 5576              	.LBB236:
 5577              	.LBB235:
 5578              	.LBB234:
 5579              		.loc 3 546 0
 5580              		.syntax unified
 5581              	@ 546 "ChibiOS_3.0.2/os/ext/CMSIS/include/core_cmFunc.h" 1
 5582 0462 83F31188 		MSR basepri, r3
 5583              	@ 0 "" 2
 5584              	.LVL449:
 5585              		.thumb
 5586              		.syntax unified
ARM GAS  /var/folders/sv/kgmgr77579zbf78p2zlhkdfr0000gn/T//ccOxe4My.s 			page 99


 5587              	.LBE234:
 5588              	.LBE235:
 5589              	.LBE236:
 5590              	.LBE237:
 5591              	.LBE238:
 5592              		.loc 1 1241 0
 5593 0466 4E4B     		ldr	r3, .L688+80
 5594 0468 1868     		ldr	r0, [r3]
 5595 046a FFF7FEFF 		bl	chEvtSignalI
 5596              	.LVL450:
 5597              	.LBB239:
 5598              	.LBB240:
 5599              	.LBB241:
 5600              	.LBB242:
 5601              	.LBB243:
 5602              		.loc 3 546 0
 5603              		.syntax unified
 5604              	@ 546 "ChibiOS_3.0.2/os/ext/CMSIS/include/core_cmFunc.h" 1
 5605 046e 84F31188 		MSR basepri, r4
 5606              	@ 0 "" 2
 5607              	.LVL451:
 5608              		.thumb
 5609              		.syntax unified
 5610 0472 94E7     		b	.L575
 5611              	.LVL452:
 5612              	.L605:
 5613              	.LBE243:
 5614              	.LBE242:
 5615              	.LBE241:
 5616              	.LBE240:
 5617              	.LBE239:
 5618              		.loc 1 1249 0
 5619 0474 FFF7FEFF 		bl	mc_interface_get_state
 5620              	.LVL453:
 5621 0478 0228     		cmp	r0, #2
 5622 047a 364C     		ldr	r4, .L688+4
 5623 047c 03D0     		beq	.L611
 5624              		.loc 1 1249 0 is_stmt 0 discriminator 1
 5625 047e 2368     		ldr	r3, [r4]
 5626 0480 002B     		cmp	r3, #0
 5627 0482 40F34281 		ble	.L683
 5628              	.L611:
 5629              	.LVL454:
 5630              		.loc 1 1253 0 is_stmt 1
 5631 0486 324B     		ldr	r3, .L688
 5632 0488 2268     		ldr	r2, [r4]
 5633 048a 1B68     		ldr	r3, [r3]
 5634 048c 9A42     		cmp	r2, r3
 5635 048e 7FF4F7AE 		bne	.L623
 5636 0492 4FF00109 		mov	r9, #1
 5637 0496 40E1     		b	.L630
 5638              	.LVL455:
 5639              	.L674:
 5640              	.LBB244:
 5641              	.LBB184:
 5642              		.loc 1 1088 0
 5643 0498 424A     		ldr	r2, .L688+84
ARM GAS  /var/folders/sv/kgmgr77579zbf78p2zlhkdfr0000gn/T//ccOxe4My.s 			page 100


 5644 049a D3F84C31 		ldr	r3, [r3, #332]
 5645 049e 1360     		str	r3, [r2]
 5646              	.LBE184:
 5647              	.LBE244:
 5648              		.loc 1 1205 0
 5649 04a0 414B     		ldr	r3, .L688+88
 5650 04a2 1B69     		ldr	r3, [r3, #16]
 5651 04a4 DA04     		lsls	r2, r3, #19
 5652 04a6 3FF558AE 		bmi	.L593
 5653              	.LVL456:
 5654              	.L594:
 5655              	.LBB245:
 5656              	.LBB189:
 5657 04aa 0320     		movs	r0, #3
 5658 04ac FFF7FEFF 		bl	mc_interface_fault_stop.part.4
 5659              	.LVL457:
 5660 04b0 53E6     		b	.L593
 5661              	.LVL458:
 5662              	.L680:
 5663              	.LBE189:
 5664              	.LBE245:
 5665              	.LBB246:
 5666              	.LBB215:
 5667              		.loc 1 1088 0
 5668 04b2 3C4B     		ldr	r3, .L688+84
 5669 04b4 D5F84C21 		ldr	r2, [r5, #332]
 5670 04b8 1A60     		str	r2, [r3]
 5671 04ba CEE5     		b	.L579
 5672              	.LVL459:
 5673              	.L638:
 5674              	.LBE215:
 5675              	.LBE246:
 5676              	.LBB247:
 5677              		.loc 1 1266 0
 5678 04bc 4FF0FF33 		mov	r3, #-1
 5679 04c0 D4E6     		b	.L614
 5680              	.LVL460:
 5681              	.L639:
 5682              	.LBE247:
 5683              	.LBB248:
 5684              		.loc 1 1296 0
 5685 04c2 4FF0FF33 		mov	r3, #-1
 5686 04c6 A7E7     		b	.L619
 5687              	.LVL461:
 5688              	.L673:
 5689              	.LBE248:
 5690              		.loc 1 1189 0
 5691 04c8 FFF7FEFF 		bl	mcpwm_foc_get_abs_motor_current
 5692              	.LVL462:
 5693 04cc B0EE409A 		vmov.f32	s18, s0
 5694              	.LVL463:
 5695              		.loc 1 1190 0
 5696 04d0 FFF7FEFF 		bl	mcpwm_foc_get_abs_motor_current_filtered
 5697              	.LVL464:
 5698 04d4 1DE6     		b	.L585
 5699              	.LVL465:
 5700              	.L659:
ARM GAS  /var/folders/sv/kgmgr77579zbf78p2zlhkdfr0000gn/T//ccOxe4My.s 			page 101


 5701              	.LBB249:
 5702              		.loc 1 1224 0
 5703 04d6 3548     		ldr	r0, .L688+92
 5704              		.loc 1 1225 0
 5705 04d8 3549     		ldr	r1, .L688+96
 5706              		.loc 1 1224 0
 5707 04da 90ED007A 		vldr.32	s14, [r0]
 5708 04de 37EE677A 		vsub.f32	s14, s14, s15
 5709 04e2 80ED007A 		vstr.32	s14, [r0]
 5710              		.loc 1 1225 0
 5711 04e6 91ED007A 		vldr.32	s14, [r1]
 5712 04ea A8EE677A 		vfms.f32	s14, s16, s15
 5713 04ee 81ED007A 		vstr.32	s14, [r1]
 5714 04f2 6CE6     		b	.L601
 5715              	.LVL466:
 5716              	.L678:
 5717              	.LBE249:
 5718              	.LBB250:
 5719              	.LBB208:
 5720              		.loc 1 1345 0
 5721 04f4 B088     		ldrh	r0, [r6, #4]
 5722 04f6 7588     		ldrh	r5, [r6, #2]
 5723 04f8 3288     		ldrh	r2, [r6]
 5724              		.loc 1 1346 0
 5725 04fa 1B4F     		ldr	r7, .L688+24
 5726 04fc 2168     		ldr	r1, [r4]
 5727              		.loc 1 1345 0
 5728 04fe ADB2     		uxth	r5, r5
 5729 0500 15FA80F5 		uxtah	r5, r5, r0
 5730 0504 15FA82F5 		uxtah	r5, r5, r2
 5731 0508 03F15533 		add	r3, r3, #1431655765
 5732 050c 83FB0523 		smull	r2, r3, r3, r5
 5733              		.loc 1 1346 0
 5734 0510 7A18     		adds	r2, r7, r1
 5735              		.loc 1 1345 0
 5736 0512 A3EBE575 		sub	r5, r3, r5, asr #31
 5737              		.loc 1 1346 0
 5738 0516 0023     		movs	r3, #0
 5739              		.loc 1 1345 0
 5740 0518 2DB2     		sxth	r5, r5
 5741              	.LVL467:
 5742              		.loc 1 1346 0
 5743 051a 82F8083E 		strb	r3, [r2, #3592]
 5744 051e D2E6     		b	.L626
 5745              	.LVL468:
 5746              	.L676:
 5747              	.LBE208:
 5748              	.LBE250:
 5749              	.LBB251:
 5750              		.loc 1 1275 0
 5751 0520 3B78     		ldrb	r3, [r7]	@ zero_extendqisi2
 5752              	.LVL469:
 5753 0522 1E4A     		ldr	r2, .L688+76
 5754 0524 DBB2     		uxtb	r3, r3
 5755 0526 1370     		strb	r3, [r2]
 5756              	.LVL470:
 5757              		.loc 1 1278 0
ARM GAS  /var/folders/sv/kgmgr77579zbf78p2zlhkdfr0000gn/T//ccOxe4My.s 			page 102


 5758 0528 3B78     		ldrb	r3, [r7]	@ zero_extendqisi2
 5759 052a 032B     		cmp	r3, #3
 5760 052c 00F0DB80 		beq	.L684
 5761              	.LVL471:
 5762              	.L616:
 5763              		.loc 1 1284 0
 5764 0530 4FF00009 		mov	r9, #0
 5765 0534 87F80090 		strb	r9, [r7]
 5766              		.loc 1 1287 0
 5767 0538 FFF7FEFF 		bl	mc_interface_get_state
 5768              	.LVL472:
 5769 053c 0228     		cmp	r0, #2
 5770 053e 7FF42EAF 		bne	.L575
 5771              	.L622:
 5772              	.LBE251:
 5773              	.LBB252:
 5774              		.loc 1 1317 0
 5775 0542 D8F80030 		ldr	r3, [r8]
 5776 0546 002B     		cmp	r3, #0
 5777 0548 BFF629AF 		bge	.L575
 5778 054c 75E7     		b	.L635
 5779              	.L689:
 5780 054e 00BF     		.align	2
 5781              	.L688:
 5782 0550 00000000 		.word	.LANCHOR2
 5783 0554 00000000 		.word	.LANCHOR35
 5784 0558 00000000 		.word	.LANCHOR45
 5785 055c 00000000 		.word	.LANCHOR34
 5786 0560 00000000 		.word	.LANCHOR12
 5787 0564 00000000 		.word	mcpwm_vzero
 5788 0568 C8760000 		.word	.LANCHOR11
 5789 056c 00000000 		.word	.LANCHOR46
 5790 0570 00000000 		.word	.LANCHOR4
 5791 0574 F8100000 		.word	.LANCHOR5
 5792 0578 E8320000 		.word	.LANCHOR7
 5793 057c E0430000 		.word	.LANCHOR8
 5794 0580 D8540000 		.word	.LANCHOR9
 5795 0584 D0650000 		.word	.LANCHOR10
 5796 0588 A48BC642 		.word	1120308132
 5797 058c 00000000 		.word	.LANCHOR31
 5798 0590 00000000 		.word	.LANCHOR13
 5799 0594 00000000 		.word	.LANCHOR15
 5800 0598 00000000 		.word	.LANCHOR42
 5801 059c 00000000 		.word	.LANCHOR1
 5802 05a0 00000000 		.word	.LANCHOR0
 5803 05a4 00000000 		.word	.LANCHOR14
 5804 05a8 00080240 		.word	1073874944
 5805 05ac 00000000 		.word	.LANCHOR27
 5806 05b0 00000000 		.word	.LANCHOR29
 5807 05b4 00000000 		.word	.LANCHOR3
 5808 05b8 F0210000 		.word	.LANCHOR6
 5809              	.LVL473:
 5810              	.L682:
 5811              		.loc 1 1305 0
 5812 05bc 3B78     		ldrb	r3, [r7]	@ zero_extendqisi2
 5813              	.LVL474:
 5814 05be 624A     		ldr	r2, .L690
ARM GAS  /var/folders/sv/kgmgr77579zbf78p2zlhkdfr0000gn/T//ccOxe4My.s 			page 103


 5815 05c0 DBB2     		uxtb	r3, r3
 5816 05c2 1370     		strb	r3, [r2]
 5817              	.LVL475:
 5818              		.loc 1 1308 0
 5819 05c4 3B78     		ldrb	r3, [r7]	@ zero_extendqisi2
 5820 05c6 042B     		cmp	r3, #4
 5821 05c8 00F08180 		beq	.L685
 5822              	.LVL476:
 5823              	.L621:
 5824              		.loc 1 1317 0
 5825 05cc 5F4B     		ldr	r3, .L690+4
 5826 05ce 1B78     		ldrb	r3, [r3]	@ zero_extendqisi2
 5827              		.loc 1 1314 0
 5828 05d0 4FF00009 		mov	r9, #0
 5829 05d4 87F80090 		strb	r9, [r7]
 5830              		.loc 1 1317 0
 5831 05d8 002B     		cmp	r3, #0
 5832 05da B2D1     		bne	.L622
 5833 05dc DFE6     		b	.L575
 5834              	.LVL477:
 5835              	.L677:
 5836              	.LBE252:
 5837              	.LBB253:
 5838              	.LBB209:
 5839              		.loc 1 1339 0
 5840 05de B188     		ldrh	r1, [r6, #4]
 5841 05e0 7588     		ldrh	r5, [r6, #2]
 5842 05e2 3288     		ldrh	r2, [r6]
 5843 05e4 5A4B     		ldr	r3, .L690+8
 5844              		.loc 1 1340 0
 5845 05e6 D4F80080 		ldr	r8, [r4]
 5846 05ea 5A4F     		ldr	r7, .L690+12
 5847              		.loc 1 1339 0
 5848 05ec ADB2     		uxth	r5, r5
 5849 05ee 15FA81F5 		uxtah	r5, r5, r1
 5850 05f2 15FA82F5 		uxtah	r5, r5, r2
 5851 05f6 83FB0523 		smull	r2, r3, r3, r5
 5852 05fa A3EBE575 		sub	r5, r3, r5, asr #31
 5853              		.loc 1 1340 0
 5854 05fe FFF7FEFF 		bl	mcpwm_foc_get_phase
 5855              	.LVL478:
 5856 0602 9FED557A 		vldr.32	s14, .L690+16
 5857 0606 DFED557A 		vldr.32	s15, .L690+20
 5858 060a 80EE070A 		vdiv.f32	s0, s0, s14
 5859 060e B844     		add	r8, r8, r7
 5860              		.loc 1 1339 0
 5861 0610 2DB2     		sxth	r5, r5
 5862              	.LVL479:
 5863              		.loc 1 1340 0
 5864 0612 20EE270A 		vmul.f32	s0, s0, s15
 5865 0616 FCEEC07A 		vcvt.u32.f32	s15, s0
 5866 061a CDED007A 		vstr.32	s15, [sp]	@ int
 5867 061e 9DF90030 		ldrsb	r3, [sp]
 5868 0622 88F8083E 		strb	r3, [r8, #3592]
 5869 0626 4EE6     		b	.L626
 5870              	.L679:
 5871              		.loc 1 1353 0
ARM GAS  /var/folders/sv/kgmgr77579zbf78p2zlhkdfr0000gn/T//ccOxe4My.s 			page 104


 5872 0628 D4F80080 		ldr	r8, [r4]
 5873 062c 4C4E     		ldr	r6, .L690+24
 5874 062e FFF7FEFF 		bl	mcpwm_get_comm_step
 5875              	.LVL480:
 5876 0632 4C4B     		ldr	r3, .L690+28
 5877 0634 0138     		subs	r0, r0, #1
 5878 0636 03EB8003 		add	r3, r3, r0, lsl #2
 5879 063a D3ED007A 		vldr.32	s15, [r3]
 5880 063e FDEEE77A 		vcvt.s32.f32	s15, s15
 5881 0642 CDED007A 		vstr.32	s15, [sp]	@ int
 5882 0646 BDF90030 		ldrsh	r3, [sp]
 5883 064a 26F81830 		strh	r3, [r6, r8, lsl #1]	@ movhi
 5884              		.loc 1 1354 0
 5885 064e D4F80080 		ldr	r8, [r4]
 5886 0652 FFF7FEFF 		bl	mcpwm_get_comm_step
 5887              	.LVL481:
 5888 0656 444B     		ldr	r3, .L690+32
 5889              		.loc 1 1356 0
 5890 0658 444A     		ldr	r2, .L690+36
 5891              		.loc 1 1357 0
 5892 065a 4549     		ldr	r1, .L690+40
 5893              		.loc 1 1354 0
 5894 065c 0138     		subs	r0, r0, #1
 5895 065e 03EB8003 		add	r3, r3, r0, lsl #2
 5896 0662 D3ED007A 		vldr.32	s15, [r3]
 5897              		.loc 1 1356 0
 5898 0666 4348     		ldr	r0, .L690+44
 5899              		.loc 1 1354 0
 5900 0668 FDEEE77A 		vcvt.s32.f32	s15, s15
 5901 066c 06EB4806 		add	r6, r6, r8, lsl #1
 5902 0670 CDED007A 		vstr.32	s15, [sp]	@ int
 5903 0674 BDF90030 		ldrsh	r3, [sp]
 5904 0678 A6F8A03F 		strh	r3, [r6, #4000]	@ movhi
 5905              		.loc 1 1356 0
 5906 067c 2668     		ldr	r6, [r4]
 5907 067e D2ED007A 		vldr.32	s15, [r2]
 5908              		.loc 1 1358 0
 5909 0682 3D4B     		ldr	r3, .L690+48
 5910              		.loc 1 1356 0
 5911 0684 FDEEE77A 		vcvt.s32.f32	s15, s15
 5912 0688 00EB4600 		add	r0, r0, r6, lsl #1
 5913 068c CDED007A 		vstr.32	s15, [sp]	@ int
 5914 0690 BDF90060 		ldrsh	r6, [sp]
 5915 0694 A0F8486E 		strh	r6, [r0, #3656]	@ movhi
 5916              		.loc 1 1357 0
 5917 0698 2068     		ldr	r0, [r4]
 5918 069a D2ED017A 		vldr.32	s15, [r2, #4]
 5919 069e FDEEE77A 		vcvt.s32.f32	s15, s15
 5920 06a2 01EB4001 		add	r1, r1, r0, lsl #1
 5921 06a6 CDED007A 		vstr.32	s15, [sp]	@ int
 5922 06aa BDF90000 		ldrsh	r0, [sp]
 5923 06ae A1F8F00C 		strh	r0, [r1, #3312]	@ movhi
 5924              		.loc 1 1358 0
 5925 06b2 2168     		ldr	r1, [r4]
 5926 06b4 D2ED027A 		vldr.32	s15, [r2, #8]
 5927 06b8 FDEEE77A 		vcvt.s32.f32	s15, s15
 5928 06bc 03EB4103 		add	r3, r3, r1, lsl #1
ARM GAS  /var/folders/sv/kgmgr77579zbf78p2zlhkdfr0000gn/T//ccOxe4My.s 			page 105


 5929 06c0 CDED007A 		vstr.32	s15, [sp]	@ int
 5930 06c4 BDF90020 		ldrsh	r2, [sp]
 5931 06c8 A3F8982B 		strh	r2, [r3, #2968]	@ movhi
 5932 06cc 2DE6     		b	.L629
 5933              	.LVL482:
 5934              	.L685:
 5935              	.LBE209:
 5936              	.LBE253:
 5937              	.LBB254:
 5938              	.LBB219:
 5939              	.LBB220:
 5940              	.LBB221:
 5941              	.LBB222:
 5942              	.LBB223:
 5943              		.loc 3 546 0
 5944 06ce 2023     		movs	r3, #32
 5945              		.syntax unified
 5946              	@ 546 "ChibiOS_3.0.2/os/ext/CMSIS/include/core_cmFunc.h" 1
 5947 06d0 83F31188 		MSR basepri, r3
 5948              	@ 0 "" 2
 5949              	.LVL483:
 5950              		.thumb
 5951              		.syntax unified
 5952              	.LBE223:
 5953              	.LBE222:
 5954              	.LBE221:
 5955              	.LBE220:
 5956              	.LBE219:
 5957              		.loc 1 1310 0
 5958 06d4 294B     		ldr	r3, .L690+52
 5959 06d6 0121     		movs	r1, #1
 5960 06d8 1868     		ldr	r0, [r3]
 5961 06da FFF7FEFF 		bl	chEvtSignalI
 5962              	.LVL484:
 5963              	.LBB224:
 5964              	.LBB225:
 5965              	.LBB226:
 5966              	.LBB227:
 5967              	.LBB228:
 5968              		.loc 3 546 0
 5969 06de 0023     		movs	r3, #0
 5970              		.syntax unified
 5971              	@ 546 "ChibiOS_3.0.2/os/ext/CMSIS/include/core_cmFunc.h" 1
 5972 06e0 83F31188 		MSR basepri, r3
 5973              	@ 0 "" 2
 5974              	.LVL485:
 5975              		.thumb
 5976              		.syntax unified
 5977 06e4 72E7     		b	.L621
 5978              	.LVL486:
 5979              	.L684:
 5980              	.LBE228:
 5981              	.LBE227:
 5982              	.LBE226:
 5983              	.LBE225:
 5984              	.LBE224:
 5985              	.LBE254:
ARM GAS  /var/folders/sv/kgmgr77579zbf78p2zlhkdfr0000gn/T//ccOxe4My.s 			page 106


 5986              	.LBB255:
 5987              	.LBB192:
 5988              	.LBB193:
 5989              	.LBB194:
 5990              	.LBB195:
 5991              	.LBB196:
 5992 06e6 2023     		movs	r3, #32
 5993              		.syntax unified
 5994              	@ 546 "ChibiOS_3.0.2/os/ext/CMSIS/include/core_cmFunc.h" 1
 5995 06e8 83F31188 		MSR basepri, r3
 5996              	@ 0 "" 2
 5997              	.LVL487:
 5998              		.thumb
 5999              		.syntax unified
 6000              	.LBE196:
 6001              	.LBE195:
 6002              	.LBE194:
 6003              	.LBE193:
 6004              	.LBE192:
 6005              		.loc 1 1280 0
 6006 06ec 234B     		ldr	r3, .L690+52
 6007 06ee 0121     		movs	r1, #1
 6008 06f0 1868     		ldr	r0, [r3]
 6009 06f2 FFF7FEFF 		bl	chEvtSignalI
 6010              	.LVL488:
 6011              	.LBB197:
 6012              	.LBB198:
 6013              	.LBB199:
 6014              	.LBB200:
 6015              	.LBB201:
 6016              		.loc 3 546 0
 6017 06f6 0023     		movs	r3, #0
 6018              		.syntax unified
 6019              	@ 546 "ChibiOS_3.0.2/os/ext/CMSIS/include/core_cmFunc.h" 1
 6020 06f8 83F31188 		MSR basepri, r3
 6021              	@ 0 "" 2
 6022              	.LVL489:
 6023              		.thumb
 6024              		.syntax unified
 6025 06fc 18E7     		b	.L616
 6026              	.LVL490:
 6027              	.L675:
 6028              	.LBE201:
 6029              	.LBE200:
 6030              	.LBE199:
 6031              	.LBE198:
 6032              	.LBE197:
 6033              		.loc 1 1270 0
 6034 06fe 03F5FA63 		add	r3, r3, #2000
 6035              	.LVL491:
 6036 0702 B3E5     		b	.L614
 6037              	.LVL492:
 6038              	.L681:
 6039              	.LBE255:
 6040              	.LBB256:
 6041              		.loc 1 1300 0
 6042 0704 03F5FA63 		add	r3, r3, #2000
ARM GAS  /var/folders/sv/kgmgr77579zbf78p2zlhkdfr0000gn/T//ccOxe4My.s 			page 107


 6043              	.LVL493:
 6044 0708 86E6     		b	.L619
 6045              	.LVL494:
 6046              	.L683:
 6047              	.LBE256:
 6048              		.loc 1 1253 0
 6049 070a 1D4A     		ldr	r2, .L690+56
 6050 070c 2368     		ldr	r3, [r4]
 6051 070e 1268     		ldr	r2, [r2]
 6052 0710 9A42     		cmp	r2, r3
 6053 0712 7FF444AE 		bne	.L575
 6054              		.loc 1 1233 0
 6055 0716 4FF00009 		mov	r9, #0
 6056              	.LVL495:
 6057              	.L630:
 6058              		.loc 1 1254 0
 6059 071a 3B78     		ldrb	r3, [r7]	@ zero_extendqisi2
 6060 071c 0A4A     		ldr	r2, .L690
 6061 071e DBB2     		uxtb	r3, r3
 6062              		.loc 1 1255 0
 6063 0720 4FF00008 		mov	r8, #0
 6064              		.loc 1 1254 0
 6065 0724 1370     		strb	r3, [r2]
 6066              	.LBB257:
 6067              	.LBB258:
 6068              	.LBB259:
 6069              	.LBB260:
 6070              	.LBB261:
 6071              		.loc 3 546 0
 6072 0726 2023     		movs	r3, #32
 6073              	.LBE261:
 6074              	.LBE260:
 6075              	.LBE259:
 6076              	.LBE258:
 6077              	.LBE257:
 6078              		.loc 1 1255 0
 6079 0728 87F80080 		strb	r8, [r7]
 6080              	.LVL496:
 6081              	.LBB266:
 6082              	.LBB265:
 6083              	.LBB264:
 6084              	.LBB263:
 6085              	.LBB262:
 6086              		.loc 3 546 0
 6087              		.syntax unified
 6088              	@ 546 "ChibiOS_3.0.2/os/ext/CMSIS/include/core_cmFunc.h" 1
 6089 072c 83F31188 		MSR basepri, r3
 6090              	@ 0 "" 2
 6091              	.LVL497:
 6092              		.thumb
 6093              		.syntax unified
 6094              	.LBE262:
 6095              	.LBE263:
 6096              	.LBE264:
 6097              	.LBE265:
 6098              	.LBE266:
 6099              		.loc 1 1257 0
ARM GAS  /var/folders/sv/kgmgr77579zbf78p2zlhkdfr0000gn/T//ccOxe4My.s 			page 108


 6100 0730 124B     		ldr	r3, .L690+52
 6101 0732 0121     		movs	r1, #1
 6102 0734 1868     		ldr	r0, [r3]
 6103 0736 FFF7FEFF 		bl	chEvtSignalI
 6104              	.LVL498:
 6105              	.LBB267:
 6106              	.LBB268:
 6107              	.LBB269:
 6108              	.LBB270:
 6109              	.LBB271:
 6110              		.loc 3 546 0
 6111              		.syntax unified
 6112              	@ 546 "ChibiOS_3.0.2/os/ext/CMSIS/include/core_cmFunc.h" 1
 6113 073a 88F31188 		MSR basepri, r8
 6114              	@ 0 "" 2
 6115              	.LVL499:
 6116              		.thumb
 6117              		.syntax unified
 6118              	.LBE271:
 6119              	.LBE270:
 6120              	.LBE269:
 6121              	.LBE268:
 6122              	.LBE267:
 6123              		.loc 1 1326 0
 6124 073e B9F1000F 		cmp	r9, #0
 6125 0742 3FF42CAE 		beq	.L575
 6126 0746 9BE5     		b	.L623
 6127              	.L691:
 6128              		.align	2
 6129              	.L690:
 6130 0748 00000000 		.word	.LANCHOR1
 6131 074c 00000000 		.word	.LANCHOR13
 6132 0750 56555555 		.word	1431655766
 6133 0754 C8760000 		.word	.LANCHOR11
 6134 0758 0000B443 		.word	1135869952
 6135 075c 00007A43 		.word	1132068864
 6136 0760 00000000 		.word	.LANCHOR4
 6137 0764 00000000 		.word	mcpwm_detect_currents
 6138 0768 00000000 		.word	mcpwm_detect_currents_diff
 6139 076c 00000000 		.word	mcpwm_detect_voltages
 6140 0770 F0210000 		.word	.LANCHOR6
 6141 0774 F8100000 		.word	.LANCHOR5
 6142 0778 E8320000 		.word	.LANCHOR7
 6143 077c 00000000 		.word	.LANCHOR0
 6144 0780 00000000 		.word	.LANCHOR2
 6145              		.cfi_endproc
 6146              	.LFE308:
 6147              		.size	mc_interface_mc_timer_isr, .-mc_interface_mc_timer_isr
 6148              		.section	.text.mc_interface_adc_inj_int_handler,"ax",%progbits
 6149              		.align	2
 6150              		.p2align 4,,15
 6151              		.global	mc_interface_adc_inj_int_handler
 6152              		.thumb
 6153              		.thumb_func
 6154              		.type	mc_interface_adc_inj_int_handler, %function
 6155              	mc_interface_adc_inj_int_handler:
 6156              	.LFB309:
ARM GAS  /var/folders/sv/kgmgr77579zbf78p2zlhkdfr0000gn/T//ccOxe4My.s 			page 109


 6157              		.loc 1 1380 0
 6158              		.cfi_startproc
 6159              		@ args = 0, pretend = 0, frame = 0
 6160              		@ frame_needed = 0, uses_anonymous_args = 0
 6161              		@ link register save eliminated.
 6162              		.loc 1 1381 0
 6163 0000 044B     		ldr	r3, .L702
 6164 0002 9B78     		ldrb	r3, [r3, #2]	@ zero_extendqisi2
 6165 0004 03F0FF02 		and	r2, r3, #255
 6166 0008 13B1     		cbz	r3, .L694
 6167 000a 022A     		cmp	r2, #2
 6168 000c 00D0     		beq	.L694
 6169 000e 7047     		bx	lr
 6170              	.L694:
 6171              		.loc 1 1384 0
 6172 0010 FFF7FEBF 		b	mcpwm_adc_inj_int_handler
 6173              	.LVL500:
 6174              	.L703:
 6175              		.align	2
 6176              	.L702:
 6177 0014 00000000 		.word	.LANCHOR12
 6178              		.cfi_endproc
 6179              	.LFE309:
 6180              		.size	mc_interface_adc_inj_int_handler, .-mc_interface_adc_inj_int_handler
 6181              		.global	ADC_curr_norm_value
 6182              		.global	ADC_Value
 6183              		.section	.rodata.CSWTCH.203,"a",%progbits
 6184              		.align	2
 6185              		.set	.LANCHOR40,. + 0
 6186              		.type	CSWTCH.203, %object
 6187              		.size	CSWTCH.203, 28
 6188              	CSWTCH.203:
 6189 0000 2C000000 		.word	.LC3
 6190 0004 3C000000 		.word	.LC4
 6191 0008 54000000 		.word	.LC5
 6192 000c 70000000 		.word	.LC6
 6193 0010 80000000 		.word	.LC7
 6194 0014 9C000000 		.word	.LC8
 6195 0018 B8000000 		.word	.LC9
 6196              		.section	.bss.m_sample_trigger,"aw",%nobits
 6197              		.align	2
 6198              		.set	.LANCHOR3,. + 0
 6199              		.type	m_sample_trigger, %object
 6200              		.size	m_sample_trigger, 4
 6201              	m_sample_trigger:
 6202 0000 00000000 		.space	4
 6203              		.section	.bss.m_sample_int,"aw",%nobits
 6204              		.align	2
 6205              		.set	.LANCHOR34,. + 0
 6206              		.type	m_sample_int, %object
 6207              		.size	m_sample_int, 4
 6208              	m_sample_int:
 6209 0000 00000000 		.space	4
 6210              		.section	.bss.m_watt_seconds_charged,"aw",%nobits
 6211              		.align	2
 6212              		.set	.LANCHOR29,. + 0
 6213              		.type	m_watt_seconds_charged, %object
ARM GAS  /var/folders/sv/kgmgr77579zbf78p2zlhkdfr0000gn/T//ccOxe4My.s 			page 110


 6214              		.size	m_watt_seconds_charged, 4
 6215              	m_watt_seconds_charged:
 6216 0000 00000000 		.space	4
 6217              		.section	.ram4,"aw",%progbits
 6218              		.align	2
 6219              		.set	.LANCHOR4,. + 0
 6220              		.set	.LANCHOR5,. + 4344
 6221              		.set	.LANCHOR6,. + 8688
 6222              		.set	.LANCHOR7,. + 13032
 6223              		.set	.LANCHOR8,. + 17376
 6224              		.set	.LANCHOR9,. + 21720
 6225              		.set	.LANCHOR10,. + 26064
 6226              		.set	.LANCHOR11,. + 30408
 6227              		.type	m_curr0_samples, %object
 6228              		.size	m_curr0_samples, 4000
 6229              	m_curr0_samples:
 6230 0000 00000000 		.space	4000
 6230      00000000 
 6230      00000000 
 6230      00000000 
 6230      00000000 
 6231              		.type	m_curr1_samples, %object
 6232              		.size	m_curr1_samples, 4000
 6233              	m_curr1_samples:
 6234 0fa0 00000000 		.space	4000
 6234      00000000 
 6234      00000000 
 6234      00000000 
 6234      00000000 
 6235              		.type	m_ph1_samples, %object
 6236              		.size	m_ph1_samples, 4000
 6237              	m_ph1_samples:
 6238 1f40 00000000 		.space	4000
 6238      00000000 
 6238      00000000 
 6238      00000000 
 6238      00000000 
 6239              		.type	m_ph2_samples, %object
 6240              		.size	m_ph2_samples, 4000
 6241              	m_ph2_samples:
 6242 2ee0 00000000 		.space	4000
 6242      00000000 
 6242      00000000 
 6242      00000000 
 6242      00000000 
 6243              		.type	m_ph3_samples, %object
 6244              		.size	m_ph3_samples, 4000
 6245              	m_ph3_samples:
 6246 3e80 00000000 		.space	4000
 6246      00000000 
 6246      00000000 
 6246      00000000 
 6246      00000000 
 6247              		.type	m_vzero_samples, %object
 6248              		.size	m_vzero_samples, 4000
 6249              	m_vzero_samples:
 6250 4e20 00000000 		.space	4000
ARM GAS  /var/folders/sv/kgmgr77579zbf78p2zlhkdfr0000gn/T//ccOxe4My.s 			page 111


 6250      00000000 
 6250      00000000 
 6250      00000000 
 6250      00000000 
 6251              		.type	m_curr_fir_samples, %object
 6252              		.size	m_curr_fir_samples, 4000
 6253              	m_curr_fir_samples:
 6254 5dc0 00000000 		.space	4000
 6254      00000000 
 6254      00000000 
 6254      00000000 
 6254      00000000 
 6255              		.type	m_f_sw_samples, %object
 6256              		.size	m_f_sw_samples, 4000
 6257              	m_f_sw_samples:
 6258 6d60 00000000 		.space	4000
 6258      00000000 
 6258      00000000 
 6258      00000000 
 6258      00000000 
 6259              		.type	m_status_samples, %object
 6260              		.size	m_status_samples, 2000
 6261              	m_status_samples:
 6262 7d00 00000000 		.space	2000
 6262      00000000 
 6262      00000000 
 6262      00000000 
 6262      00000000 
 6263              		.type	m_phase_samples, %object
 6264              		.size	m_phase_samples, 2000
 6265              	m_phase_samples:
 6266 84d0 00000000 		.space	2000
 6266      00000000 
 6266      00000000 
 6266      00000000 
 6266      00000000 
 6267              		.section	.bss.pwm_done_func,"aw",%nobits
 6268              		.align	2
 6269              		.set	.LANCHOR39,. + 0
 6270              		.type	pwm_done_func, %object
 6271              		.size	pwm_done_func, 4
 6272              	pwm_done_func:
 6273 0000 00000000 		.space	4
 6274              		.section	.bss.m_motor_iq_sum,"aw",%nobits
 6275              		.align	2
 6276              		.set	.LANCHOR23,. + 0
 6277              		.type	m_motor_iq_sum, %object
 6278              		.size	m_motor_iq_sum, 4
 6279              	m_motor_iq_sum:
 6280 0000 00000000 		.space	4
 6281              		.section	.bss.m_motor_id_sum,"aw",%nobits
 6282              		.align	2
 6283              		.set	.LANCHOR22,. + 0
 6284              		.type	m_motor_id_sum, %object
 6285              		.size	m_motor_id_sum, 4
 6286              	m_motor_id_sum:
 6287 0000 00000000 		.space	4
ARM GAS  /var/folders/sv/kgmgr77579zbf78p2zlhkdfr0000gn/T//ccOxe4My.s 			page 112


 6288              		.section	.bss.ADC_Value,"aw",%nobits
 6289              		.align	2
 6290              		.set	.LANCHOR41,. + 0
 6291              		.type	ADC_Value, %object
 6292              		.size	ADC_Value, 24
 6293              	ADC_Value:
 6294 0000 00000000 		.space	24
 6294      00000000 
 6294      00000000 
 6294      00000000 
 6294      00000000 
 6295              		.section	.bss.curr_diff_sum.10960,"aw",%nobits
 6296              		.align	2
 6297              		.set	.LANCHOR43,. + 0
 6298              		.type	curr_diff_sum.10960, %object
 6299              		.size	curr_diff_sum.10960, 4
 6300              	curr_diff_sum.10960:
 6301 0000 00000000 		.space	4
 6302              		.section	.bss.m_motor_current_iterations,"aw",%nobits
 6303              		.align	2
 6304              		.set	.LANCHOR20,. + 0
 6305              		.type	m_motor_current_iterations, %object
 6306              		.size	m_motor_current_iterations, 4
 6307              	m_motor_current_iterations:
 6308 0000 00000000 		.space	4
 6309              		.section	.bss.m_last_adc_duration_sample,"aw",%nobits
 6310              		.align	2
 6311              		.set	.LANCHOR31,. + 0
 6312              		.type	m_last_adc_duration_sample, %object
 6313              		.size	m_last_adc_duration_sample, 4
 6314              	m_last_adc_duration_sample:
