ARM GAS  /var/folders/sv/kgmgr77579zbf78p2zlhkdfr0000gn/T//ccItzhl5.s 			page 1


   1              		.syntax unified
   2              		.cpu cortex-m4
   3              		.eabi_attribute 27, 1
   4              		.eabi_attribute 28, 1
   5              		.fpu fpv4-sp-d16
   6              		.eabi_attribute 20, 1
   7              		.eabi_attribute 21, 1
   8              		.eabi_attribute 23, 3
   9              		.eabi_attribute 24, 1
  10              		.eabi_attribute 25, 1
  11              		.eabi_attribute 26, 1
  12              		.eabi_attribute 30, 2
  13              		.eabi_attribute 34, 1
  14              		.eabi_attribute 18, 4
  15              		.thumb
  16              		.syntax unified
  17              		.file	"mcpwm.c"
  18              		.text
  19              	.Ltext0:
  20              		.cfi_sections	.debug_frame
  21              		.section	.text.update_adc_sample_pos,"ax",%progbits
  22              		.align	2
  23              		.p2align 4,,15
  24              		.thumb
  25              		.thumb_func
  26              		.type	update_adc_sample_pos, %function
  27              	update_adc_sample_pos:
  28              	.LFB313:
  29              		.file 1 "mcpwm.c"
  30              		.loc 1 2272 0
  31              		.cfi_startproc
  32              		@ args = 0, pretend = 0, frame = 24
  33              		@ frame_needed = 0, uses_anonymous_args = 0
  34              	.LVL0:
  35 0000 F0B5     		push	{r4, r5, r6, r7, lr}
  36              		.cfi_def_cfa_offset 20
  37              		.cfi_offset 4, -20
  38              		.cfi_offset 5, -16
  39              		.cfi_offset 6, -12
  40              		.cfi_offset 7, -8
  41              		.cfi_offset 14, -4
  42 0002 87B0     		sub	sp, sp, #28
  43              		.cfi_def_cfa_offset 48
  44              		.loc 1 2273 0
  45 0004 8268     		ldr	r2, [r0, #8]
  46 0006 0192     		str	r2, [sp, #4]
  47              		.loc 1 2274 0
  48 0008 4268     		ldr	r2, [r0, #4]
  49 000a 0292     		str	r2, [sp, #8]
  50              		.loc 1 2275 0
  51 000c C268     		ldr	r2, [r0, #12]
  52 000e 0392     		str	r2, [sp, #12]
  53              		.loc 1 2276 0
  54 0010 0269     		ldr	r2, [r0, #16]
  55 0012 0492     		str	r2, [sp, #16]
  56              		.loc 1 2277 0
  57 0014 4269     		ldr	r2, [r0, #20]
ARM GAS  /var/folders/sv/kgmgr77579zbf78p2zlhkdfr0000gn/T//ccItzhl5.s 			page 2


  58              		.loc 1 2283 0
  59 0016 6B4B     		ldr	r3, .L45
  60              		.loc 1 2277 0
  61 0018 0592     		str	r2, [sp, #20]
  62              		.loc 1 2283 0
  63 001a DDED027A 		vldr.32	s15, [sp, #8]	@ int
  64 001e 1A68     		ldr	r2, [r3]
  65 0020 F8EE677A 		vcvt.f32.u32	s15, s15
  66 0024 92ED167A 		vldr.32	s14, [r2, #88]
  67 0028 019B     		ldr	r3, [sp, #4]
  68 002a 67EE877A 		vmul.f32	s15, s15, s14
  69 002e FCEEE77A 		vcvt.u32.f32	s15, s15
  70 0032 17EE901A 		vmov	r1, s15	@ int
  71 0036 9942     		cmp	r1, r3
  72 0038 0BD2     		bcs	.L2
  73              		.loc 1 2284 0
  74 003a DDED027A 		vldr.32	s15, [sp, #8]	@ int
  75 003e 92ED167A 		vldr.32	s14, [r2, #88]
  76 0042 F8EE677A 		vcvt.f32.u32	s15, s15
  77 0046 67EE877A 		vmul.f32	s15, s15, s14
  78 004a FCEEE77A 		vcvt.u32.f32	s15, s15
  79 004e CDED017A 		vstr.32	s15, [sp, #4]	@ int
  80              	.L2:
  81              		.loc 1 2287 0
  82 0052 5D49     		ldr	r1, .L45+4
  83 0054 0023     		movs	r3, #0
  84 0056 0B60     		str	r3, [r1]
  85              		.loc 1 2289 0
  86 0058 9378     		ldrb	r3, [r2, #2]	@ zero_extendqisi2
  87 005a DBB2     		uxtb	r3, r3
  88 005c 012B     		cmp	r3, #1
  89 005e 39D0     		beq	.L42
  90              		.loc 1 2310 0
  91 0060 5A4B     		ldr	r3, .L45+8
  92 0062 1B78     		ldrb	r3, [r3]	@ zero_extendqisi2
  93 0064 012B     		cmp	r3, #1
  94 0066 72D0     		beq	.L43
  95              		.loc 1 2321 0
  96 0068 1378     		ldrb	r3, [r2]	@ zero_extendqisi2
  97 006a 022B     		cmp	r3, #2
  98 006c 43D0     		beq	.L44
  99              		.loc 1 2406 0
 100 006e 019B     		ldr	r3, [sp, #4]
 101 0070 5B08     		lsrs	r3, r3, #1
 102 0072 0393     		str	r3, [sp, #12]
 103              		.loc 1 2409 0
 104 0074 029B     		ldr	r3, [sp, #8]
 105 0076 019C     		ldr	r4, [sp, #4]
 106 0078 019A     		ldr	r2, [sp, #4]
 107 007a 1B1B     		subs	r3, r3, r4
 108 007c 02EB5303 		add	r3, r2, r3, lsr #1
 109 0080 0493     		str	r3, [sp, #16]
 110              		.loc 1 2410 0
 111 0082 029B     		ldr	r3, [sp, #8]
 112 0084 049A     		ldr	r2, [sp, #16]
 113 0086 463B     		subs	r3, r3, #70
 114 0088 9342     		cmp	r3, r2
ARM GAS  /var/folders/sv/kgmgr77579zbf78p2zlhkdfr0000gn/T//ccItzhl5.s 			page 3


 115 008a 02D2     		bcs	.L21
 116              		.loc 1 2411 0
 117 008c 029B     		ldr	r3, [sp, #8]
 118 008e 463B     		subs	r3, r3, #70
 119 0090 0493     		str	r3, [sp, #16]
 120              	.L21:
 121              		.loc 1 2414 0
 122 0092 049B     		ldr	r3, [sp, #16]
 123 0094 0593     		str	r3, [sp, #20]
 124              		.loc 1 2421 0
 125 0096 029A     		ldr	r2, [sp, #8]
 126 0098 019B     		ldr	r3, [sp, #4]
 127 009a B3EB520F 		cmp	r3, r2, lsr #1
 128 009e 11D9     		bls	.L5
 129              		.loc 1 2466 0
 130 00a0 4B4B     		ldr	r3, .L45+12
 131 00a2 1B68     		ldr	r3, [r3]
 132              		.loc 1 2477 0
 133 00a4 4B4B     		ldr	r3, .L45+16
 134 00a6 1B68     		ldr	r3, [r3]
 135 00a8 013B     		subs	r3, r3, #1
 136 00aa 052B     		cmp	r3, #5
 137 00ac 0AD8     		bhi	.L5
 138 00ae DFE803F0 		tbb	[pc, r3]
 139              	.L31:
 140 00b2 1F       		.byte	(.L36-.L31)/2
 141 00b3 4B       		.byte	(.L33-.L31)/2
 142 00b4 4B       		.byte	(.L33-.L31)/2
 143 00b5 1F       		.byte	(.L36-.L31)/2
 144 00b6 1F       		.byte	(.L36-.L31)/2
 145 00b7 1F       		.byte	(.L36-.L31)/2
 146              	.LVL1:
 147              		.p2align 1
 148              	.L12:
 149              	.LBB72:
 150              		.loc 1 2370 0
 151 00b8 454B     		ldr	r3, .L45+12
 152 00ba 1B68     		ldr	r3, [r3]
 153 00bc 002B     		cmp	r3, #0
 154 00be 7CD0     		beq	.L18
 155              	.L38:
 156              		.loc 1 2371 0
 157 00c0 0497     		str	r7, [sp, #16]
 158              		.loc 1 2372 0
 159 00c2 0592     		str	r2, [sp, #20]
 160              	.LVL2:
 161              	.L5:
 162              	.LBE72:
 163              		.loc 1 2493 0
 164 00c4 039B     		ldr	r3, [sp, #12]
 165 00c6 C360     		str	r3, [r0, #12]
 166              		.loc 1 2494 0
 167 00c8 049B     		ldr	r3, [sp, #16]
 168 00ca 0361     		str	r3, [r0, #16]
 169              		.loc 1 2495 0
 170 00cc 059B     		ldr	r3, [sp, #20]
 171 00ce 4361     		str	r3, [r0, #20]
ARM GAS  /var/folders/sv/kgmgr77579zbf78p2zlhkdfr0000gn/T//ccItzhl5.s 			page 4


 172              		.loc 1 2499 0
 173 00d0 07B0     		add	sp, sp, #28
 174              		.cfi_remember_state
 175              		.cfi_def_cfa_offset 20
 176              		@ sp needed
 177 00d2 F0BD     		pop	{r4, r5, r6, r7, pc}
 178              	.L42:
 179              		.cfi_restore_state
 180              		.loc 1 2290 0
 181 00d4 029A     		ldr	r2, [sp, #8]
 182 00d6 0A3A     		subs	r2, r2, #10
 183 00d8 0492     		str	r2, [sp, #16]
 184              		.loc 1 2291 0
 185 00da 029A     		ldr	r2, [sp, #8]
 186 00dc 0A3A     		subs	r2, r2, #10
 187 00de 0592     		str	r2, [sp, #20]
 188              		.loc 1 2296 0
 189 00e0 019A     		ldr	r2, [sp, #4]
 190 00e2 B2F57A7F 		cmp	r2, #1000
 191 00e6 29D9     		bls	.L4
 192              		.loc 1 2297 0
 193 00e8 019B     		ldr	r3, [sp, #4]
 194 00ea 5B08     		lsrs	r3, r3, #1
 195 00ec 0393     		str	r3, [sp, #12]
 196 00ee E9E7     		b	.L5
 197              	.L36:
 198              		.loc 1 2483 0
 199 00f0 0123     		movs	r3, #1
 200 00f2 0B60     		str	r3, [r1]
 201 00f4 E6E7     		b	.L5
 202              	.L44:
 203              	.LBB73:
 204              		.loc 1 2322 0
 205 00f6 029E     		ldr	r6, [sp, #8]
 206              		.loc 1 2323 0
 207 00f8 029C     		ldr	r4, [sp, #8]
 208 00fa 019A     		ldr	r2, [sp, #4]
 209 00fc 019D     		ldr	r5, [sp, #4]
 210              		.loc 1 2324 0
 211 00fe 029F     		ldr	r7, [sp, #8]
 212              		.loc 1 2327 0
 213 0100 029B     		ldr	r3, [sp, #8]
 214              		.loc 1 2335 0
 215 0102 DFF8D0E0 		ldr	lr, .L45+16
 216              		.loc 1 2327 0
 217 0106 9B08     		lsrs	r3, r3, #2
 218 0108 0393     		str	r3, [sp, #12]
 219              		.loc 1 2335 0
 220 010a DEF80030 		ldr	r3, [lr]
 221              		.loc 1 2323 0
 222 010e A21A     		subs	r2, r4, r2
 223              		.loc 1 2335 0
 224 0110 013B     		subs	r3, r3, #1
 225              		.loc 1 2322 0
 226 0112 023E     		subs	r6, r6, #2
 227              	.LVL3:
 228              		.loc 1 2323 0
ARM GAS  /var/folders/sv/kgmgr77579zbf78p2zlhkdfr0000gn/T//ccItzhl5.s 			page 5


 229 0114 05EB5202 		add	r2, r5, r2, lsr #1
 230              	.LVL4:
 231              		.loc 1 2324 0
 232 0118 023F     		subs	r7, r7, #2
 233              	.LVL5:
 234              		.loc 1 2335 0
 235 011a 052B     		cmp	r3, #5
 236 011c D2D8     		bhi	.L5
 237 011e 01A4     		adr	r4, .L9
 238 0120 54F823F0 		ldr	pc, [r4, r3, lsl #2]
 239              		.p2align 2
 240              	.L9:
 241 0124 B3010000 		.word	.L8+1
 242 0128 A1010000 		.word	.L10+1
 243 012c 95010000 		.word	.L11+1
 244 0130 B9000000 		.word	.L12+1
 245 0134 83010000 		.word	.L13+1
 246 0138 73010000 		.word	.L14+1
 247              	.LVL6:
 248              		.p2align 1
 249              	.L4:
 250              	.LBE73:
 251              		.loc 1 2299 0
 252 013c 019A     		ldr	r2, [sp, #4]
 253 013e 02F54872 		add	r2, r2, #800
 254 0142 0392     		str	r2, [sp, #12]
 255              		.loc 1 2300 0
 256 0144 0B60     		str	r3, [r1]
 257 0146 BDE7     		b	.L5
 258              	.L33:
 259              		.loc 1 2480 0
 260 0148 0223     		movs	r3, #2
 261 014a 0B60     		str	r3, [r1]
 262 014c BAE7     		b	.L5
 263              	.L43:
 264              		.loc 1 2312 0
 265 014e 019B     		ldr	r3, [sp, #4]
 266 0150 5B08     		lsrs	r3, r3, #1
 267 0152 0393     		str	r3, [sp, #12]
 268              		.loc 1 2315 0
 269 0154 029B     		ldr	r3, [sp, #8]
 270 0156 0199     		ldr	r1, [sp, #4]
 271 0158 019A     		ldr	r2, [sp, #4]
 272 015a 5B1A     		subs	r3, r3, r1
 273 015c 02EB5303 		add	r3, r2, r3, lsr #1
 274 0160 0493     		str	r3, [sp, #16]
 275              		.loc 1 2316 0
 276 0162 029B     		ldr	r3, [sp, #8]
 277 0164 0199     		ldr	r1, [sp, #4]
 278 0166 019A     		ldr	r2, [sp, #4]
 279 0168 5B1A     		subs	r3, r3, r1
 280 016a 02EB5303 		add	r3, r2, r3, lsr #1
 281 016e 0593     		str	r3, [sp, #20]
 282 0170 A8E7     		b	.L5
 283              	.LVL7:
 284              	.L14:
 285              	.LBB74:
ARM GAS  /var/folders/sv/kgmgr77579zbf78p2zlhkdfr0000gn/T//ccItzhl5.s 			page 6


 286              		.loc 1 2393 0
 287 0172 174B     		ldr	r3, .L45+12
 288 0174 1B68     		ldr	r3, [r3]
 289 0176 43B1     		cbz	r3, .L20
 290              	.L40:
 291              		.loc 1 2396 0
 292 0178 0123     		movs	r3, #1
 293              		.loc 1 2394 0
 294 017a 0496     		str	r6, [sp, #16]
 295              		.loc 1 2395 0
 296 017c 0597     		str	r7, [sp, #20]
 297              		.loc 1 2396 0
 298 017e 0B60     		str	r3, [r1]
 299 0180 A0E7     		b	.L5
 300              	.L13:
 301              		.loc 1 2381 0
 302 0182 134B     		ldr	r3, .L45+12
 303 0184 1B68     		ldr	r3, [r3]
 304 0186 002B     		cmp	r3, #0
 305 0188 F6D0     		beq	.L40
 306              	.L20:
 307              		.loc 1 2400 0
 308 018a 0123     		movs	r3, #1
 309              		.loc 1 2398 0
 310 018c 0496     		str	r6, [sp, #16]
 311              		.loc 1 2399 0
 312 018e 0592     		str	r2, [sp, #20]
 313              		.loc 1 2400 0
 314 0190 0B60     		str	r3, [r1]
 315 0192 97E7     		b	.L5
 316              	.L11:
 317              		.loc 1 2359 0
 318 0194 0E4B     		ldr	r3, .L45+12
 319 0196 1B68     		ldr	r3, [r3]
 320 0198 33B1     		cbz	r3, .L17
 321              	.L39:
 322              		.loc 1 2360 0
 323 019a 0492     		str	r2, [sp, #16]
 324              		.loc 1 2361 0
 325 019c 0597     		str	r7, [sp, #20]
 326 019e 91E7     		b	.L5
 327              	.L10:
 328              		.loc 1 2348 0
 329 01a0 0B4B     		ldr	r3, .L45+12
 330 01a2 1B68     		ldr	r3, [r3]
 331 01a4 002B     		cmp	r3, #0
 332 01a6 F8D0     		beq	.L39
 333              	.L17:
 334              		.loc 1 2365 0
 335 01a8 0223     		movs	r3, #2
 336              		.loc 1 2363 0
 337 01aa 0492     		str	r2, [sp, #16]
 338              		.loc 1 2364 0
 339 01ac 0596     		str	r6, [sp, #20]
 340              		.loc 1 2365 0
 341 01ae 0B60     		str	r3, [r1]
 342 01b0 88E7     		b	.L5
ARM GAS  /var/folders/sv/kgmgr77579zbf78p2zlhkdfr0000gn/T//ccItzhl5.s 			page 7


 343              	.L8:
 344              		.loc 1 2337 0
 345 01b2 074B     		ldr	r3, .L45+12
 346 01b4 1B68     		ldr	r3, [r3]
 347 01b6 002B     		cmp	r3, #0
 348 01b8 82D0     		beq	.L38
 349              	.L18:
 350              		.loc 1 2376 0
 351 01ba 0223     		movs	r3, #2
 352              		.loc 1 2374 0
 353 01bc 0497     		str	r7, [sp, #16]
 354              		.loc 1 2375 0
 355 01be 0596     		str	r6, [sp, #20]
 356              		.loc 1 2376 0
 357 01c0 0B60     		str	r3, [r1]
 358 01c2 7FE7     		b	.L5
 359              	.L46:
 360              		.align	2
 361              	.L45:
 362 01c4 00000000 		.word	.LANCHOR0
 363 01c8 00000000 		.word	.LANCHOR1
 364 01cc 00000000 		.word	.LANCHOR2
 365 01d0 00000000 		.word	.LANCHOR4
 366 01d4 00000000 		.word	.LANCHOR3
 367              	.LBE74:
 368              		.cfi_endproc
 369              	.LFE313:
 370              		.size	update_adc_sample_pos, .-update_adc_sample_pos
 371              		.section	.text.update_rpm_tacho,"ax",%progbits
 372              		.align	2
 373              		.p2align 4,,15
 374              		.thumb
 375              		.thumb_func
 376              		.type	update_rpm_tacho, %function
 377              	update_rpm_tacho:
 378              	.LFB314:
 379              		.loc 1 2501 0
 380              		.cfi_startproc
 381              		@ args = 0, pretend = 0, frame = 0
 382              		@ frame_needed = 0, uses_anonymous_args = 0
 383              		@ link register save eliminated.
 384              		.loc 1 2502 0
 385 0000 1E4B     		ldr	r3, .L60
 386              		.loc 1 2504 0
 387 0002 1F48     		ldr	r0, .L60+4
 388              		.loc 1 2502 0
 389 0004 1968     		ldr	r1, [r3]
 390              		.loc 1 2504 0
 391 0006 0268     		ldr	r2, [r0]
 392 0008 1E4B     		ldr	r3, .L60+8
 393              		.loc 1 2502 0
 394 000a 0139     		subs	r1, r1, #1
 395              	.LVL8:
 396              		.loc 1 2504 0
 397 000c 8A1A     		subs	r2, r1, r2
 398              		.loc 1 2501 0
 399 000e 30B4     		push	{r4, r5}
ARM GAS  /var/folders/sv/kgmgr77579zbf78p2zlhkdfr0000gn/T//ccItzhl5.s 			page 8


 400              		.cfi_def_cfa_offset 8
 401              		.cfi_offset 4, -8
 402              		.cfi_offset 5, -4
 403              		.loc 1 2504 0
 404 0010 83FB0243 		smull	r4, r3, r3, r2
 405 0014 A3EBE273 		sub	r3, r3, r2, asr #31
 406 0018 03EB4303 		add	r3, r3, r3, lsl #1
 407 001c A2EB4303 		sub	r3, r2, r3, lsl #1
 408              	.LVL9:
 409              		.loc 1 2507 0
 410 0020 032B     		cmp	r3, #3
 411              		.loc 1 2505 0
 412 0022 0160     		str	r1, [r0]
 413              		.loc 1 2507 0
 414 0024 1DDD     		ble	.L48
 415              		.loc 1 2508 0
 416 0026 063B     		subs	r3, r3, #6
 417              	.LVL10:
 418              	.L54:
 419              		.loc 1 2514 0
 420 0028 174A     		ldr	r2, .L60+12
 421 002a 5169     		ldr	r1, [r2, #20]
 422              	.LVL11:
 423              		.loc 1 2515 0
 424 002c 4FF08040 		mov	r0, #1073741824
 425              		.loc 1 2514 0
 426 0030 1944     		add	r1, r1, r3
 427 0032 5161     		str	r1, [r2, #20]
 428              		.loc 1 2515 0
 429 0034 456A     		ldr	r5, [r0, #36]
 430 0036 9169     		ldr	r1, [r2, #24]
 431              		.loc 1 2516 0
 432 0038 0024     		movs	r4, #0
 433              		.loc 1 2515 0
 434 003a 2944     		add	r1, r1, r5
 435 003c 9161     		str	r1, [r2, #24]
 436              		.loc 1 2516 0
 437 003e 4462     		str	r4, [r0, #36]
 438              	.LVL12:
 439              	.L51:
 440              		.loc 1 2520 0
 441 0040 1248     		ldr	r0, .L60+16
 442              		.loc 1 2521 0
 443 0042 1349     		ldr	r1, .L60+20
 444              		.loc 1 2520 0
 445 0044 0268     		ldr	r2, [r0]
 446              		.loc 1 2523 0
 447 0046 134C     		ldr	r4, .L60+24
 448              		.loc 1 2520 0
 449 0048 1A44     		add	r2, r2, r3
 450 004a 0260     		str	r2, [r0]
 451              		.loc 1 2521 0
 452 004c 0A68     		ldr	r2, [r1]
 453 004e 1A44     		add	r2, r2, r3
 454 0050 0A60     		str	r2, [r1]
 455              		.loc 1 2523 0
 456 0052 2268     		ldr	r2, [r4]
ARM GAS  /var/folders/sv/kgmgr77579zbf78p2zlhkdfr0000gn/T//ccItzhl5.s 			page 9


 457              		.loc 1 2524 0
 458 0054 1049     		ldr	r1, .L60+28
 459              		.loc 1 2523 0
 460 0056 5AB9     		cbnz	r2, .L59
 461              		.loc 1 2526 0
 462 0058 0A68     		ldr	r2, [r1]
 463 005a D31A     		subs	r3, r2, r3
 464              	.LVL13:
 465 005c 0B60     		str	r3, [r1]
 466              		.loc 1 2528 0
 467 005e 30BC     		pop	{r4, r5}
 468              		.cfi_remember_state
 469              		.cfi_restore 5
 470              		.cfi_restore 4
 471              		.cfi_def_cfa_offset 0
 472 0060 7047     		bx	lr
 473              	.LVL14:
 474              	.L48:
 475              		.cfi_restore_state
 476              		.loc 1 2509 0
 477 0062 9A1C     		adds	r2, r3, #2
 478 0064 01DA     		bge	.L50
 479              		.loc 1 2510 0
 480 0066 0633     		adds	r3, r3, #6
 481              	.LVL15:
 482 0068 DEE7     		b	.L54
 483              	.L50:
 484              		.loc 1 2513 0
 485 006a 002B     		cmp	r3, #0
 486 006c E8D0     		beq	.L51
 487 006e DBE7     		b	.L54
 488              	.LVL16:
 489              	.L59:
 490              		.loc 1 2524 0
 491 0070 0A68     		ldr	r2, [r1]
 492 0072 1344     		add	r3, r3, r2
 493              	.LVL17:
 494 0074 0B60     		str	r3, [r1]
 495              		.loc 1 2528 0
 496 0076 30BC     		pop	{r4, r5}
 497              		.cfi_restore 4
 498              		.cfi_restore 5
 499              		.cfi_def_cfa_offset 0
 500 0078 7047     		bx	lr
 501              	.L61:
 502 007a 00BF     		.align	2
 503              	.L60:
 504 007c 00000000 		.word	.LANCHOR3
 505 0080 00000000 		.word	.LANCHOR5
 506 0084 ABAAAA2A 		.word	715827883
 507 0088 00000000 		.word	.LANCHOR6
 508 008c 00000000 		.word	.LANCHOR7
 509 0090 00000000 		.word	.LANCHOR8
 510 0094 00000000 		.word	.LANCHOR4
 511 0098 00000000 		.word	.LANCHOR9
 512              		.cfi_endproc
 513              	.LFE314:
ARM GAS  /var/folders/sv/kgmgr77579zbf78p2zlhkdfr0000gn/T//ccItzhl5.s 			page 10


 514              		.size	update_rpm_tacho, .-update_rpm_tacho
 515              		.section	.text.update_sensor_mode,"ax",%progbits
 516              		.align	2
 517              		.p2align 4,,15
 518              		.thumb
 519              		.thumb_func
 520              		.type	update_sensor_mode, %function
 521              	update_sensor_mode:
 522              	.LFB315:
 523              		.loc 1 2530 0
 524              		.cfi_startproc
 525              		@ args = 0, pretend = 0, frame = 0
 526              		@ frame_needed = 0, uses_anonymous_args = 0
 527              		@ link register save eliminated.
 528              		.loc 1 2531 0
 529 0000 114B     		ldr	r3, .L73
 530 0002 1B68     		ldr	r3, [r3]
 531 0004 DA78     		ldrb	r2, [r3, #3]	@ zero_extendqisi2
 532 0006 BAB1     		cbz	r2, .L63
 533              		.loc 1 2532 0 discriminator 1
 534 0008 DA78     		ldrb	r2, [r3, #3]	@ zero_extendqisi2
 535              		.loc 1 2531 0 discriminator 1
 536 000a 022A     		cmp	r2, #2
 537 000c 03D0     		beq	.L72
 538              	.L64:
 539              		.loc 1 2536 0
 540 000e 0F4B     		ldr	r3, .L73+4
 541 0010 0022     		movs	r2, #0
 542 0012 1A70     		strb	r2, [r3]
 543 0014 7047     		bx	lr
 544              	.L72:
 545              	.LBB75:
 546              	.LBB76:
 547              		.loc 1 733 0
 548 0016 0E4A     		ldr	r2, .L73+8
 549 0018 1268     		ldr	r2, [r2]
 550 001a 8AB9     		cbnz	r2, .L65
 551 001c 0D4A     		ldr	r2, .L73+12
 552 001e D2ED007A 		vldr.32	s15, [r2]
 553 0022 F1EE677A 		vneg.f32	s15, s15
 554              	.L66:
 555              	.LBE76:
 556              	.LBE75:
 557              		.loc 1 2533 0
 558 0026 93ED287A 		vldr.32	s14, [r3, #160]
 559              		.loc 1 2532 0
 560 002a F0EEE77A 		vabs.f32	s15, s15
 561 002e F4EEC77A 		vcmpe.f32	s15, s14
 562 0032 F1EE10FA 		vmrs	APSR_nzcv, FPSCR
 563 0036 EADD     		ble	.L64
 564              	.L63:
 565              		.loc 1 2534 0
 566 0038 044B     		ldr	r3, .L73+4
 567 003a 0122     		movs	r2, #1
 568 003c 1A70     		strb	r2, [r3]
 569 003e 7047     		bx	lr
 570              	.L65:
ARM GAS  /var/folders/sv/kgmgr77579zbf78p2zlhkdfr0000gn/T//ccItzhl5.s 			page 11


 571              	.LBB78:
 572              	.LBB77:
 573              		.loc 1 733 0
 574 0040 044A     		ldr	r2, .L73+12
 575 0042 D2ED007A 		vldr.32	s15, [r2]
 576 0046 EEE7     		b	.L66
 577              	.L74:
 578              		.align	2
 579              	.L73:
 580 0048 00000000 		.word	.LANCHOR0
 581 004c 00000000 		.word	.LANCHOR11
 582 0050 00000000 		.word	.LANCHOR4
 583 0054 00000000 		.word	.LANCHOR10
 584              	.LBE77:
 585              	.LBE78:
 586              		.cfi_endproc
 587              	.LFE315:
 588              		.size	update_sensor_mode, .-update_sensor_mode
 589              		.section	.text.update_timer_attempt,"ax",%progbits
 590              		.align	2
 591              		.p2align 4,,15
 592              		.thumb
 593              		.thumb_func
 594              		.type	update_timer_attempt, %function
 595              	update_timer_attempt:
 596              	.LFB318:
 597              		.loc 1 2593 0
 598              		.cfi_startproc
 599              		@ args = 0, pretend = 0, frame = 0
 600              		@ frame_needed = 0, uses_anonymous_args = 0
 601 0000 08B5     		push	{r3, lr}
 602              		.cfi_def_cfa_offset 8
 603              		.cfi_offset 3, -8
 604              		.cfi_offset 14, -4
 605              		.loc 1 2594 0
 606 0002 FFF7FEFF 		bl	utils_sys_lock_cnt
 607              	.LVL18:
 608              		.loc 1 2597 0
 609 0006 194A     		ldr	r2, .L78
 610 0008 1378     		ldrb	r3, [r2]	@ zero_extendqisi2
 611 000a 002B     		cmp	r3, #0
 612 000c 2AD1     		bne	.L76
 613              		.loc 1 2597 0 is_stmt 0 discriminator 1
 614 000e 184B     		ldr	r3, .L78+4
 615 0010 596A     		ldr	r1, [r3, #36]
 616 0012 0A29     		cmp	r1, #10
 617 0014 26D9     		bls	.L76
 618              		.loc 1 2597 0 discriminator 2
 619 0016 586A     		ldr	r0, [r3, #36]
 620 0018 D96A     		ldr	r1, [r3, #44]
 621 001a A1F5FA71 		sub	r1, r1, #500
 622 001e 8842     		cmp	r0, r1
 623 0020 20D2     		bcs	.L76
 624              		.loc 1 2599 0 is_stmt 1
 625 0022 1868     		ldr	r0, [r3]
 626              		.loc 1 2600 0
 627 0024 1349     		ldr	r1, .L78+8
ARM GAS  /var/folders/sv/kgmgr77579zbf78p2zlhkdfr0000gn/T//ccItzhl5.s 			page 12


 628              		.loc 1 2599 0
 629 0026 40F00200 		orr	r0, r0, #2
 630 002a 1860     		str	r0, [r3]
 631              		.loc 1 2600 0
 632 002c 0868     		ldr	r0, [r1]
 633 002e 40F00200 		orr	r0, r0, #2
 634 0032 0860     		str	r0, [r1]
 635              		.loc 1 2603 0
 636 0034 5068     		ldr	r0, [r2, #4]
 637 0036 D862     		str	r0, [r3, #44]
 638              		.loc 1 2604 0
 639 0038 9068     		ldr	r0, [r2, #8]
 640 003a 5863     		str	r0, [r3, #52]
 641              		.loc 1 2605 0
 642 003c 9068     		ldr	r0, [r2, #8]
 643 003e 9863     		str	r0, [r3, #56]
 644              		.loc 1 2606 0
 645 0040 9068     		ldr	r0, [r2, #8]
 646 0042 D863     		str	r0, [r3, #60]
 647              		.loc 1 2607 0
 648 0044 D068     		ldr	r0, [r2, #12]
 649 0046 4863     		str	r0, [r1, #52]
 650              		.loc 1 2608 0
 651 0048 1069     		ldr	r0, [r2, #16]
 652 004a 1864     		str	r0, [r3, #64]
 653              		.loc 1 2609 0
 654 004c 5069     		ldr	r0, [r2, #20]
 655 004e 8863     		str	r0, [r1, #56]
 656              		.loc 1 2615 0
 657 0050 1868     		ldr	r0, [r3]
 658 0052 20F00200 		bic	r0, r0, #2
 659 0056 1860     		str	r0, [r3]
 660              		.loc 1 2616 0
 661 0058 0B68     		ldr	r3, [r1]
 662              		.loc 1 2617 0
 663 005a 0120     		movs	r0, #1
 664              		.loc 1 2616 0
 665 005c 23F00203 		bic	r3, r3, #2
 666 0060 0B60     		str	r3, [r1]
 667              		.loc 1 2617 0
 668 0062 1070     		strb	r0, [r2]
 669              	.L76:
 670              		.loc 1 2621 0
 671 0064 BDE80840 		pop	{r3, lr}
 672              		.cfi_restore 14
 673              		.cfi_restore 3
 674              		.cfi_def_cfa_offset 0
 675              		.loc 1 2620 0
 676 0068 FFF7FEBF 		b	utils_sys_unlock_cnt
 677              	.LVL19:
 678              	.L79:
 679              		.align	2
 680              	.L78:
 681 006c 00000000 		.word	.LANCHOR12
 682 0070 00000140 		.word	1073807360
 683 0074 00040140 		.word	1073808384
 684              		.cfi_endproc
ARM GAS  /var/folders/sv/kgmgr77579zbf78p2zlhkdfr0000gn/T//ccItzhl5.s 			page 13


 685              	.LFE318:
 686              		.size	update_timer_attempt, .-update_timer_attempt
 687              		.section	.text.set_next_timer_settings,"ax",%progbits
 688              		.align	2
 689              		.p2align 4,,15
 690              		.thumb
 691              		.thumb_func
 692              		.type	set_next_timer_settings, %function
 693              	set_next_timer_settings:
 694              	.LFB317:
 695              		.loc 1 2580 0
 696              		.cfi_startproc
 697              		@ args = 0, pretend = 0, frame = 0
 698              		@ frame_needed = 0, uses_anonymous_args = 0
 699              	.LVL20:
 700 0000 70B5     		push	{r4, r5, r6, lr}
 701              		.cfi_def_cfa_offset 16
 702              		.cfi_offset 4, -16
 703              		.cfi_offset 5, -12
 704              		.cfi_offset 6, -8
 705              		.cfi_offset 14, -4
 706              		.loc 1 2580 0
 707 0002 0446     		mov	r4, r0
 708              		.loc 1 2581 0
 709 0004 FFF7FEFF 		bl	utils_sys_lock_cnt
 710              	.LVL21:
 711              		.loc 1 2582 0
 712 0008 0FCC     		ldmia	r4!, {r0, r1, r2, r3}
 713              	.LVL22:
 714 000a 074E     		ldr	r6, .L82
 715 000c 3546     		mov	r5, r6
 716 000e 0FC5     		stmia	r5!, {r0, r1, r2, r3}
 717 0010 94E80300 		ldmia	r4, {r0, r1}
 718              		.loc 1 2583 0
 719 0014 0023     		movs	r3, #0
 720              		.loc 1 2582 0
 721 0016 85E80300 		stmia	r5, {r0, r1}
 722              		.loc 1 2583 0
 723 001a 3370     		strb	r3, [r6]
 724              		.loc 1 2584 0
 725 001c FFF7FEFF 		bl	utils_sys_unlock_cnt
 726              	.LVL23:
 727              		.loc 1 2587 0
 728 0020 BDE87040 		pop	{r4, r5, r6, lr}
 729              		.cfi_restore 14
 730              		.cfi_restore 6
 731              		.cfi_restore 5
 732              		.cfi_restore 4
 733              		.cfi_def_cfa_offset 0
 734              	.LVL24:
 735              		.loc 1 2586 0
 736 0024 FFF7FEBF 		b	update_timer_attempt
 737              	.LVL25:
 738              	.L83:
 739              		.align	2
 740              	.L82:
 741 0028 00000000 		.word	.LANCHOR12
ARM GAS  /var/folders/sv/kgmgr77579zbf78p2zlhkdfr0000gn/T//ccItzhl5.s 			page 14


 742              		.cfi_endproc
 743              	.LFE317:
 744              		.size	set_next_timer_settings, .-set_next_timer_settings
 745              		.section	.text.set_switching_frequency,"ax",%progbits
 746              		.align	2
 747              		.p2align 4,,15
 748              		.thumb
 749              		.thumb_func
 750              		.type	set_switching_frequency, %function
 751              	set_switching_frequency:
 752              	.LFB319:
 753              		.loc 1 2623 0
 754              		.cfi_startproc
 755              		@ args = 0, pretend = 0, frame = 24
 756              		@ frame_needed = 0, uses_anonymous_args = 0
 757              	.LVL26:
 758 0000 70B5     		push	{r4, r5, r6, lr}
 759              		.cfi_def_cfa_offset 16
 760              		.cfi_offset 4, -16
 761              		.cfi_offset 5, -12
 762              		.cfi_offset 6, -8
 763              		.cfi_offset 14, -4
 764              		.loc 1 2624 0
 765 0002 114E     		ldr	r6, .L86
 766              		.loc 1 2628 0
 767 0004 114D     		ldr	r5, .L86+4
 768              		.loc 1 2624 0
 769 0006 86ED000A 		vstr.32	s0, [r6]
 770              		.loc 1 2623 0
 771 000a 86B0     		sub	sp, sp, #24
 772              		.cfi_def_cfa_offset 40
 773              		.loc 1 2627 0
 774 000c FFF7FEFF 		bl	utils_sys_lock_cnt
 775              	.LVL27:
 776              		.loc 1 2628 0
 777 0010 0FCD     		ldmia	r5!, {r0, r1, r2, r3}
 778 0012 6C46     		mov	r4, sp
 779 0014 0FC4     		stmia	r4!, {r0, r1, r2, r3}
 780 0016 95E80300 		ldmia	r5, {r0, r1}
 781 001a 84E80300 		stmia	r4, {r0, r1}
 782              		.loc 1 2629 0
 783 001e FFF7FEFF 		bl	utils_sys_unlock_cnt
 784              	.LVL28:
 785              		.loc 1 2631 0
 786 0022 D6ED007A 		vldr.32	s15, [r6]
 787 0026 0A4A     		ldr	r2, .L86+8
 788 0028 FDEEE77A 		vcvt.s32.f32	s15, s15
 789              		.loc 1 2632 0
 790 002c 6846     		mov	r0, sp
 791              		.loc 1 2631 0
 792 002e 17EE903A 		vmov	r3, s15	@ int
 793 0032 92FBF3F3 		sdiv	r3, r2, r3
 794 0036 0193     		str	r3, [sp, #4]
 795              		.loc 1 2632 0
 796 0038 FFF7FEFF 		bl	update_adc_sample_pos
 797              	.LVL29:
 798              		.loc 1 2633 0
ARM GAS  /var/folders/sv/kgmgr77579zbf78p2zlhkdfr0000gn/T//ccItzhl5.s 			page 15


 799 003c 6846     		mov	r0, sp
 800 003e FFF7FEFF 		bl	set_next_timer_settings
 801              	.LVL30:
 802              		.loc 1 2634 0
 803 0042 06B0     		add	sp, sp, #24
 804              		.cfi_def_cfa_offset 16
 805              		@ sp needed
 806 0044 70BD     		pop	{r4, r5, r6, pc}
 807              	.L87:
 808 0046 00BF     		.align	2
 809              	.L86:
 810 0048 00000000 		.word	.LANCHOR13
 811 004c 00000000 		.word	.LANCHOR12
 812 0050 007A030A 		.word	168000000
 813              		.cfi_endproc
 814              	.LFE319:
 815              		.size	set_switching_frequency, .-set_switching_frequency
 816              		.section	.text.set_duty_cycle_hw,"ax",%progbits
 817              		.align	2
 818              		.p2align 4,,15
 819              		.thumb
 820              		.thumb_func
 821              		.type	set_duty_cycle_hw, %function
 822              	set_duty_cycle_hw:
 823              	.LFB292:
 824              		.loc 1 1087 0
 825              		.cfi_startproc
 826              		@ args = 0, pretend = 0, frame = 32
 827              		@ frame_needed = 0, uses_anonymous_args = 0
 828              	.LVL31:
 829 0000 70B5     		push	{r4, r5, r6, lr}
 830              		.cfi_def_cfa_offset 16
 831              		.cfi_offset 4, -16
 832              		.cfi_offset 5, -12
 833              		.cfi_offset 6, -8
 834              		.cfi_offset 14, -4
 835              		.loc 1 1091 0
 836 0002 424D     		ldr	r5, .L104
 837              		.loc 1 1094 0
 838 0004 424E     		ldr	r6, .L104+4
 839              		.loc 1 1087 0
 840 0006 88B0     		sub	sp, sp, #32
 841              		.cfi_def_cfa_offset 48
 842              		.loc 1 1087 0
 843 0008 8DED010A 		vstr.32	s0, [sp, #4]
 844              		.loc 1 1090 0
 845 000c FFF7FEFF 		bl	utils_sys_lock_cnt
 846              	.LVL32:
 847              		.loc 1 1091 0
 848 0010 0FCD     		ldmia	r5!, {r0, r1, r2, r3}
 849 0012 02AC     		add	r4, sp, #8
 850 0014 0FC4     		stmia	r4!, {r0, r1, r2, r3}
 851 0016 95E80300 		ldmia	r5, {r0, r1}
 852 001a 84E80300 		stmia	r4, {r0, r1}
 853              		.loc 1 1092 0
 854 001e FFF7FEFF 		bl	utils_sys_unlock_cnt
 855              	.LVL33:
ARM GAS  /var/folders/sv/kgmgr77579zbf78p2zlhkdfr0000gn/T//ccItzhl5.s 			page 16


 856              		.loc 1 1094 0
 857 0022 3368     		ldr	r3, [r6]
 858 0024 01A8     		add	r0, sp, #4
 859              	.LVL34:
 860 0026 93ED150A 		vldr.32	s0, [r3, #84]
 861 002a D3ED160A 		vldr.32	s1, [r3, #88]
 862 002e FFF7FEFF 		bl	utils_truncate_number
 863              	.LVL35:
 864              		.loc 1 1096 0
 865 0032 3368     		ldr	r3, [r6]
 866 0034 9A78     		ldrb	r2, [r3, #2]	@ zero_extendqisi2
 867 0036 012A     		cmp	r2, #1
 868 0038 44D0     		beq	.L102
 869              		.loc 1 1099 0
 870 003a 364A     		ldr	r2, .L104+8
 871 003c 1278     		ldrb	r2, [r2]	@ zero_extendqisi2
 872 003e 012A     		cmp	r2, #1
 873 0040 39D0     		beq	.L91
 874              		.loc 1 1099 0 is_stmt 0 discriminator 1
 875 0042 1A78     		ldrb	r2, [r3]	@ zero_extendqisi2
 876 0044 022A     		cmp	r2, #2
 877 0046 36D0     		beq	.L91
 878              		.loc 1 1102 0 is_stmt 1
 879 0048 DDED016A 		vldr.32	s13, [sp, #4]
 880 004c D3ED595A 		vldr.32	s11, [r3, #356]
 881              		.loc 1 1103 0
 882 0050 D3ED5A7A 		vldr.32	s15, [r3, #360]
 883              		.loc 1 1102 0
 884 0054 304A     		ldr	r2, .L104+12
 885 0056 B0EEE66A 		vabs.f32	s12, s13
 886 005a B7EE007A 		vmov.f32	s14, #1.0e+0
 887 005e 66EE277A 		vmul.f32	s15, s12, s15
 888 0062 37EE467A 		vsub.f32	s14, s14, s12
 889 0066 E5EE877A 		vfma.f32	s15, s11, s14
 890 006a C2ED007A 		vstr.32	s15, [r2]
 891              	.L90:
 892              		.loc 1 1107 0
 893 006e 92ED007A 		vldr.32	s14, [r2]
 894 0072 2A49     		ldr	r1, .L104+16
 895 0074 FDEEC77A 		vcvt.s32.f32	s15, s14
 896 0078 17EE902A 		vmov	r2, s15	@ int
 897 007c 91FBF2F2 		sdiv	r2, r1, r2
 898 0080 0392     		str	r2, [sp, #12]
 899              		.loc 1 1109 0
 900 0082 9A78     		ldrb	r2, [r3, #2]	@ zero_extendqisi2
 901 0084 12B9     		cbnz	r2, .L93
 902              		.loc 1 1109 0 is_stmt 0 discriminator 1
 903 0086 1B78     		ldrb	r3, [r3]	@ zero_extendqisi2
 904 0088 022B     		cmp	r3, #2
 905 008a 22D0     		beq	.L103
 906              	.L93:
 907              		.loc 1 1113 0 is_stmt 1
 908 008c DDED037A 		vldr.32	s15, [sp, #12]	@ int
 909 0090 F8EE677A 		vcvt.f32.u32	s15, s15
 910 0094 67EEA67A 		vmul.f32	s15, s15, s13
 911 0098 FCEEE77A 		vcvt.u32.f32	s15, s15
 912 009c CDED007A 		vstr.32	s15, [sp]	@ int
ARM GAS  /var/folders/sv/kgmgr77579zbf78p2zlhkdfr0000gn/T//ccItzhl5.s 			page 17


 913 00a0 BDF80030 		ldrh	r3, [sp]
 914 00a4 0493     		str	r3, [sp, #16]
 915              	.L94:
 916              		.loc 1 1116 0
 917 00a6 02A8     		add	r0, sp, #8
 918 00a8 FFF7FEFF 		bl	update_adc_sample_pos
 919              	.LVL36:
 920              		.loc 1 1117 0
 921 00ac 02A8     		add	r0, sp, #8
 922 00ae FFF7FEFF 		bl	set_next_timer_settings
 923              	.LVL37:
 924              		.loc 1 1118 0
 925 00b2 08B0     		add	sp, sp, #32
 926              		.cfi_remember_state
 927              		.cfi_def_cfa_offset 16
 928              		@ sp needed
 929 00b4 70BD     		pop	{r4, r5, r6, pc}
 930              	.LVL38:
 931              	.L91:
 932              		.cfi_restore_state
 933              		.loc 1 1100 0
 934 00b6 184A     		ldr	r2, .L104+12
 935 00b8 D3F86811 		ldr	r1, [r3, #360]	@ float
 936 00bc DDED016A 		vldr.32	s13, [sp, #4]
 937 00c0 1160     		str	r1, [r2]	@ float
 938 00c2 D4E7     		b	.L90
 939              	.L102:
 940              		.loc 1 1097 0
 941 00c4 144A     		ldr	r2, .L104+12
 942 00c6 D3F86C11 		ldr	r1, [r3, #364]	@ float
 943 00ca DDED016A 		vldr.32	s13, [sp, #4]
 944 00ce 1160     		str	r1, [r2]	@ float
 945 00d0 CDE7     		b	.L90
 946              	.L103:
 947              		.loc 1 1109 0 discriminator 2
 948 00d2 104B     		ldr	r3, .L104+8
 949 00d4 1B78     		ldrb	r3, [r3]	@ zero_extendqisi2
 950 00d6 012B     		cmp	r3, #1
 951 00d8 D8D0     		beq	.L93
 952              		.loc 1 1110 0
 953 00da 9DED037A 		vldr.32	s14, [sp, #12]	@ int
 954              		.loc 1 1111 0
 955 00de DDED037A 		vldr.32	s15, [sp, #12]	@ int
 956              		.loc 1 1110 0
 957 00e2 B8EE477A 		vcvt.f32.u32	s14, s14
 958 00e6 F8EE677A 		vcvt.f32.u32	s15, s15
 959 00ea B6EE006A 		vmov.f32	s12, #5.0e-1
 960 00ee 27EE067A 		vmul.f32	s14, s14, s12
 961 00f2 67EE867A 		vmul.f32	s15, s15, s12
 962 00f6 E7EE267A 		vfma.f32	s15, s14, s13
 963 00fa FCEEE77A 		vcvt.u32.f32	s15, s15
 964 00fe CDED007A 		vstr.32	s15, [sp]	@ int
 965 0102 BDF80030 		ldrh	r3, [sp]
 966 0106 0493     		str	r3, [sp, #16]
 967 0108 CDE7     		b	.L94
 968              	.L105:
 969 010a 00BF     		.align	2
ARM GAS  /var/folders/sv/kgmgr77579zbf78p2zlhkdfr0000gn/T//ccItzhl5.s 			page 18


 970              	.L104:
 971 010c 00000000 		.word	.LANCHOR12
 972 0110 00000000 		.word	.LANCHOR0
 973 0114 00000000 		.word	.LANCHOR2
 974 0118 00000000 		.word	.LANCHOR13
 975 011c 007A030A 		.word	168000000
 976              		.cfi_endproc
 977              	.LFE292:
 978              		.size	set_duty_cycle_hw, .-set_duty_cycle_hw
 979              		.section	.text.set_next_comm_step,"ax",%progbits
 980              		.align	2
 981              		.p2align 4,,15
 982              		.thumb
 983              		.thumb_func
 984              		.type	set_next_comm_step, %function
 985              	set_next_comm_step:
 986              	.LFB320:
 987              		.loc 1 2636 0
 988              		.cfi_startproc
 989              		@ args = 0, pretend = 0, frame = 0
 990              		@ frame_needed = 0, uses_anonymous_args = 0
 991              	.LVL39:
 992 0000 F8B5     		push	{r3, r4, r5, r6, r7, lr}
 993              		.cfi_def_cfa_offset 24
 994              		.cfi_offset 3, -24
 995              		.cfi_offset 4, -20
 996              		.cfi_offset 5, -16
 997              		.cfi_offset 6, -12
 998              		.cfi_offset 7, -8
 999              		.cfi_offset 14, -4
 1000              		.loc 1 2637 0
 1001 0002 CA4B     		ldr	r3, .L141
 1002 0004 1B68     		ldr	r3, [r3]
 1003 0006 9D78     		ldrb	r5, [r3, #2]	@ zero_extendqisi2
 1004 0008 EDB2     		uxtb	r5, r5
 1005 000a 012D     		cmp	r5, #1
 1006 000c 00F00581 		beq	.L135
 1007              	.LVL40:
 1008              		.loc 1 2677 0
 1009 0010 C74A     		ldr	r2, .L141+4
 1010 0012 1278     		ldrb	r2, [r2]	@ zero_extendqisi2
 1011 0014 012A     		cmp	r2, #1
 1012 0016 0446     		mov	r4, r0
 1013 0018 4FD0     		beq	.L124
 1014              		.loc 1 2678 0
 1015 001a 1B78     		ldrb	r3, [r3]	@ zero_extendqisi2
 1016 001c 03F0FF05 		and	r5, r3, #255
 1017 0020 002B     		cmp	r3, #0
 1018 0022 4BD0     		beq	.L127
 1019              		.loc 1 2672 0
 1020 0024 022D     		cmp	r5, #2
 1021 0026 0CBF     		ite	eq
 1022 0028 7026     		moveq	r6, #112
 1023 002a 2026     		movne	r6, #32
 1024              		.loc 1 2692 0
 1025 002c 012C     		cmp	r4, #1
 1026              		.loc 1 2672 0
ARM GAS  /var/folders/sv/kgmgr77579zbf78p2zlhkdfr0000gn/T//ccItzhl5.s 			page 19


 1027 002e 4FF00405 		mov	r5, #4
 1028              	.LVL41:
 1029              		.loc 1 2692 0
 1030 0032 47D0     		beq	.L136
 1031              	.L112:
 1032              		.loc 1 2734 0
 1033 0034 022C     		cmp	r4, #2
 1034 0036 00F0C680 		beq	.L137
 1035              		.loc 1 2776 0
 1036 003a 032C     		cmp	r4, #3
 1037 003c 00F01781 		beq	.L138
 1038              		.loc 1 2818 0
 1039 0040 042C     		cmp	r4, #4
 1040 0042 00F03E81 		beq	.L139
 1041              		.loc 1 2860 0
 1042 0046 052C     		cmp	r4, #5
 1043 0048 00F09C80 		beq	.L140
 1044              		.loc 1 2902 0
 1045 004c 062C     		cmp	r4, #6
 1046 004e 40F09081 		bne	.L122
 1047              		.loc 1 2903 0
 1048 0052 B84B     		ldr	r3, .L141+8
 1049 0054 1C68     		ldr	r4, [r3]
 1050              		.loc 1 2910 0
 1051 0056 2022     		movs	r2, #32
 1052              		.loc 1 2903 0
 1053 0058 002C     		cmp	r4, #0
 1054 005a 00F02182 		beq	.L123
 1055              		.loc 1 2910 0
 1056 005e 0821     		movs	r1, #8
 1057 0060 B548     		ldr	r0, .L141+12
 1058              	.LVL42:
 1059 0062 FFF7FEFF 		bl	TIM_SelectOCxM
 1060              	.LVL43:
 1061              		.loc 1 2911 0
 1062 0066 0122     		movs	r2, #1
 1063 0068 0821     		movs	r1, #8
 1064 006a B348     		ldr	r0, .L141+12
 1065 006c FFF7FEFF 		bl	TIM_CCxCmd
 1066              	.LVL44:
 1067              		.loc 1 2912 0
 1068 0070 0022     		movs	r2, #0
 1069 0072 0821     		movs	r1, #8
 1070 0074 B048     		ldr	r0, .L141+12
 1071 0076 FFF7FEFF 		bl	TIM_CCxNCmd
 1072              	.LVL45:
 1073              		.loc 1 2915 0
 1074 007a 6022     		movs	r2, #96
 1075 007c 0421     		movs	r1, #4
 1076 007e AE48     		ldr	r0, .L141+12
 1077 0080 FFF7FEFF 		bl	TIM_SelectOCxM
 1078              	.LVL46:
 1079              		.loc 1 2916 0
 1080 0084 0122     		movs	r2, #1
 1081 0086 0421     		movs	r1, #4
 1082 0088 AB48     		ldr	r0, .L141+12
 1083 008a FFF7FEFF 		bl	TIM_CCxCmd
ARM GAS  /var/folders/sv/kgmgr77579zbf78p2zlhkdfr0000gn/T//ccItzhl5.s 			page 20


 1084              	.LVL47:
 1085              		.loc 1 2917 0
 1086 008e 2A46     		mov	r2, r5
 1087 0090 0421     		movs	r1, #4
 1088              	.L132:
 1089 0092 A948     		ldr	r0, .L141+12
 1090 0094 FFF7FEFF 		bl	TIM_CCxNCmd
 1091              	.LVL48:
 1092              		.loc 1 2920 0
 1093 0098 3246     		mov	r2, r6
 1094 009a 0021     		movs	r1, #0
 1095 009c A648     		ldr	r0, .L141+12
 1096 009e FFF7FEFF 		bl	TIM_SelectOCxM
 1097              	.LVL49:
 1098              		.loc 1 2921 0
 1099 00a2 0122     		movs	r2, #1
 1100 00a4 0021     		movs	r1, #0
 1101 00a6 A448     		ldr	r0, .L141+12
 1102 00a8 FFF7FEFF 		bl	TIM_CCxCmd
 1103              	.LVL50:
 1104              		.loc 1 2922 0
 1105 00ac 0422     		movs	r2, #4
 1106 00ae 0021     		movs	r1, #0
 1107 00b0 A148     		ldr	r0, .L141+12
 1108              		.loc 1 2963 0
 1109 00b2 BDE8F840 		pop	{r3, r4, r5, r6, r7, lr}
 1110              		.cfi_remember_state
 1111              		.cfi_restore 14
 1112              		.cfi_restore 7
 1113              		.cfi_restore 6
 1114              		.cfi_restore 5
 1115              		.cfi_restore 4
 1116              		.cfi_restore 3
 1117              		.cfi_def_cfa_offset 0
 1118              	.LVL51:
 1119              		.loc 1 2922 0
 1120 00b6 FFF7FEBF 		b	TIM_CCxNCmd
 1121              	.LVL52:
 1122              	.L124:
 1123              		.cfi_restore_state
 1124              		.loc 1 2672 0
 1125 00ba 0425     		movs	r5, #4
 1126              	.L127:
 1127              		.loc 1 2692 0
 1128 00bc 012C     		cmp	r4, #1
 1129              		.loc 1 2669 0
 1130 00be 4FF02006 		mov	r6, #32
 1131              	.LVL53:
 1132              		.loc 1 2692 0
 1133 00c2 B7D1     		bne	.L112
 1134              	.L136:
 1135              		.loc 1 2693 0
 1136 00c4 9B4B     		ldr	r3, .L141+8
 1137 00c6 1F68     		ldr	r7, [r3]
 1138              		.loc 1 2700 0
 1139 00c8 2022     		movs	r2, #32
 1140              		.loc 1 2693 0
ARM GAS  /var/folders/sv/kgmgr77579zbf78p2zlhkdfr0000gn/T//ccItzhl5.s 			page 21


 1141 00ca 6FB3     		cbz	r7, .L113
 1142              		.loc 1 2700 0
 1143 00cc 0021     		movs	r1, #0
 1144 00ce 9A48     		ldr	r0, .L141+12
 1145              	.LVL54:
 1146 00d0 FFF7FEFF 		bl	TIM_SelectOCxM
 1147              	.LVL55:
 1148              		.loc 1 2701 0
 1149 00d4 2246     		mov	r2, r4
 1150 00d6 0021     		movs	r1, #0
 1151 00d8 9748     		ldr	r0, .L141+12
 1152 00da FFF7FEFF 		bl	TIM_CCxCmd
 1153              	.LVL56:
 1154              		.loc 1 2702 0
 1155 00de 0022     		movs	r2, #0
 1156 00e0 1146     		mov	r1, r2
 1157 00e2 9548     		ldr	r0, .L141+12
 1158 00e4 FFF7FEFF 		bl	TIM_CCxNCmd
 1159              	.LVL57:
 1160              		.loc 1 2705 0
 1161 00e8 6022     		movs	r2, #96
 1162 00ea 0421     		movs	r1, #4
 1163 00ec 9248     		ldr	r0, .L141+12
 1164 00ee FFF7FEFF 		bl	TIM_SelectOCxM
 1165              	.LVL58:
 1166              		.loc 1 2706 0
 1167 00f2 2246     		mov	r2, r4
 1168 00f4 0421     		movs	r1, #4
 1169 00f6 9048     		ldr	r0, .L141+12
 1170 00f8 FFF7FEFF 		bl	TIM_CCxCmd
 1171              	.LVL59:
 1172              		.loc 1 2707 0
 1173 00fc 2A46     		mov	r2, r5
 1174 00fe 0421     		movs	r1, #4
 1175 0100 8D48     		ldr	r0, .L141+12
 1176 0102 FFF7FEFF 		bl	TIM_CCxNCmd
 1177              	.LVL60:
 1178              		.loc 1 2710 0
 1179 0106 3246     		mov	r2, r6
 1180 0108 0821     		movs	r1, #8
 1181 010a 8B48     		ldr	r0, .L141+12
 1182 010c FFF7FEFF 		bl	TIM_SelectOCxM
 1183              	.LVL61:
 1184              		.loc 1 2711 0
 1185 0110 2246     		mov	r2, r4
 1186              	.LVL62:
 1187              	.L128:
 1188 0112 0821     		movs	r1, #8
 1189 0114 8848     		ldr	r0, .L141+12
 1190 0116 FFF7FEFF 		bl	TIM_CCxCmd
 1191              	.LVL63:
 1192              		.loc 1 2712 0
 1193 011a 0422     		movs	r2, #4
 1194 011c 0821     		movs	r1, #8
 1195 011e 8648     		ldr	r0, .L141+12
 1196              		.loc 1 2963 0
 1197 0120 BDE8F840 		pop	{r3, r4, r5, r6, r7, lr}
ARM GAS  /var/folders/sv/kgmgr77579zbf78p2zlhkdfr0000gn/T//ccItzhl5.s 			page 22


 1198              		.cfi_remember_state
 1199              		.cfi_restore 14
 1200              		.cfi_restore 7
 1201              		.cfi_restore 6
 1202              		.cfi_restore 5
 1203              		.cfi_restore 4
 1204              		.cfi_restore 3
 1205              		.cfi_def_cfa_offset 0
 1206              		.loc 1 2712 0
 1207 0124 FFF7FEBF 		b	TIM_CCxNCmd
 1208              	.LVL64:
 1209              	.L113:
 1210              		.cfi_restore_state
 1211              		.loc 1 2720 0
 1212 0128 3946     		mov	r1, r7
 1213 012a 8348     		ldr	r0, .L141+12
 1214              	.LVL65:
 1215 012c FFF7FEFF 		bl	TIM_SelectOCxM
 1216              	.LVL66:
 1217              		.loc 1 2721 0
 1218 0130 2246     		mov	r2, r4
 1219 0132 3946     		mov	r1, r7
 1220 0134 8048     		ldr	r0, .L141+12
 1221 0136 FFF7FEFF 		bl	TIM_CCxCmd
 1222              	.LVL67:
 1223              		.loc 1 2722 0
 1224 013a 3A46     		mov	r2, r7
 1225 013c 3946     		mov	r1, r7
 1226 013e 7E48     		ldr	r0, .L141+12
 1227 0140 FFF7FEFF 		bl	TIM_CCxNCmd
 1228              	.LVL68:
 1229              		.loc 1 2725 0
 1230 0144 6022     		movs	r2, #96
 1231 0146 0821     		movs	r1, #8
 1232 0148 7B48     		ldr	r0, .L141+12
 1233 014a FFF7FEFF 		bl	TIM_SelectOCxM
 1234              	.LVL69:
 1235              		.loc 1 2726 0
 1236 014e 2246     		mov	r2, r4
 1237 0150 0821     		movs	r1, #8
 1238 0152 7948     		ldr	r0, .L141+12
 1239 0154 FFF7FEFF 		bl	TIM_CCxCmd
 1240              	.LVL70:
 1241              		.loc 1 2727 0
 1242 0158 2A46     		mov	r2, r5
 1243 015a 0821     		movs	r1, #8
 1244 015c 7648     		ldr	r0, .L141+12
 1245 015e FFF7FEFF 		bl	TIM_CCxNCmd
 1246              	.LVL71:
 1247              		.loc 1 2730 0
 1248 0162 3246     		mov	r2, r6
 1249 0164 0421     		movs	r1, #4
 1250 0166 7448     		ldr	r0, .L141+12
 1251 0168 FFF7FEFF 		bl	TIM_SelectOCxM
 1252              	.LVL72:
 1253              		.loc 1 2731 0
 1254 016c 2246     		mov	r2, r4
ARM GAS  /var/folders/sv/kgmgr77579zbf78p2zlhkdfr0000gn/T//ccItzhl5.s 			page 23


 1255              	.LVL73:
 1256              	.L130:
 1257              		.loc 1 2773 0
 1258 016e 0421     		movs	r1, #4
 1259 0170 7148     		ldr	r0, .L141+12
 1260 0172 FFF7FEFF 		bl	TIM_CCxCmd
 1261              	.LVL74:
 1262              		.loc 1 2774 0
 1263 0176 0422     		movs	r2, #4
 1264 0178 1146     		mov	r1, r2
 1265 017a 6F48     		ldr	r0, .L141+12
 1266              		.loc 1 2963 0
 1267 017c BDE8F840 		pop	{r3, r4, r5, r6, r7, lr}
 1268              		.cfi_remember_state
 1269              		.cfi_restore 14
 1270              		.cfi_restore 7
 1271              		.cfi_restore 6
 1272              		.cfi_restore 5
 1273              		.cfi_restore 4
 1274              		.cfi_restore 3
 1275              		.cfi_def_cfa_offset 0
 1276              	.LVL75:
 1277              		.loc 1 2774 0
 1278 0180 FFF7FEBF 		b	TIM_CCxNCmd
 1279              	.LVL76:
 1280              	.L140:
 1281              		.cfi_restore_state
 1282              		.loc 1 2861 0
 1283 0184 6B4B     		ldr	r3, .L141+8
 1284 0186 1C68     		ldr	r4, [r3]
 1285              		.loc 1 2868 0
 1286 0188 2022     		movs	r2, #32
 1287              		.loc 1 2861 0
 1288 018a 002C     		cmp	r4, #0
 1289 018c 00F0AC81 		beq	.L121
 1290              		.loc 1 2868 0
 1291 0190 0421     		movs	r1, #4
 1292 0192 6948     		ldr	r0, .L141+12
 1293              	.LVL77:
 1294 0194 FFF7FEFF 		bl	TIM_SelectOCxM
 1295              	.LVL78:
 1296              		.loc 1 2869 0
 1297 0198 0122     		movs	r2, #1
 1298 019a 0421     		movs	r1, #4
 1299 019c 6648     		ldr	r0, .L141+12
 1300 019e FFF7FEFF 		bl	TIM_CCxCmd
 1301              	.LVL79:
 1302              		.loc 1 2870 0
 1303 01a2 0022     		movs	r2, #0
 1304 01a4 0421     		movs	r1, #4
 1305 01a6 6448     		ldr	r0, .L141+12
 1306 01a8 FFF7FEFF 		bl	TIM_CCxNCmd
 1307              	.LVL80:
 1308              		.loc 1 2873 0
 1309 01ac 6022     		movs	r2, #96
 1310 01ae 0821     		movs	r1, #8
 1311 01b0 6148     		ldr	r0, .L141+12
ARM GAS  /var/folders/sv/kgmgr77579zbf78p2zlhkdfr0000gn/T//ccItzhl5.s 			page 24


 1312 01b2 FFF7FEFF 		bl	TIM_SelectOCxM
 1313              	.LVL81:
 1314              		.loc 1 2874 0
 1315 01b6 0122     		movs	r2, #1
 1316 01b8 0821     		movs	r1, #8
 1317 01ba 5F48     		ldr	r0, .L141+12
 1318 01bc FFF7FEFF 		bl	TIM_CCxCmd
 1319              	.LVL82:
 1320              		.loc 1 2875 0
 1321 01c0 2A46     		mov	r2, r5
 1322 01c2 0821     		movs	r1, #8
 1323 01c4 65E7     		b	.L132
 1324              	.LVL83:
 1325              	.L137:
 1326              		.loc 1 2735 0
 1327 01c6 5B4B     		ldr	r3, .L141+8
 1328 01c8 1C68     		ldr	r4, [r3]
 1329              		.loc 1 2742 0
 1330 01ca 2022     		movs	r2, #32
 1331              		.loc 1 2735 0
 1332 01cc 002C     		cmp	r4, #0
 1333 01ce 00F0B580 		beq	.L115
 1334              		.loc 1 2742 0
 1335 01d2 0421     		movs	r1, #4
 1336 01d4 5848     		ldr	r0, .L141+12
 1337              	.LVL84:
 1338 01d6 FFF7FEFF 		bl	TIM_SelectOCxM
 1339              	.LVL85:
 1340              		.loc 1 2743 0
 1341 01da 0122     		movs	r2, #1
 1342 01dc 0421     		movs	r1, #4
 1343 01de 5648     		ldr	r0, .L141+12
 1344 01e0 FFF7FEFF 		bl	TIM_CCxCmd
 1345              	.LVL86:
 1346              		.loc 1 2744 0
 1347 01e4 0022     		movs	r2, #0
 1348 01e6 0421     		movs	r1, #4
 1349 01e8 5348     		ldr	r0, .L141+12
 1350 01ea FFF7FEFF 		bl	TIM_CCxNCmd
 1351              	.LVL87:
 1352              		.loc 1 2747 0
 1353 01ee 6022     		movs	r2, #96
 1354 01f0 0021     		movs	r1, #0
 1355 01f2 5148     		ldr	r0, .L141+12
 1356 01f4 FFF7FEFF 		bl	TIM_SelectOCxM
 1357              	.LVL88:
 1358              		.loc 1 2748 0
 1359 01f8 0122     		movs	r2, #1
 1360 01fa 0021     		movs	r1, #0
 1361 01fc 4E48     		ldr	r0, .L141+12
 1362 01fe FFF7FEFF 		bl	TIM_CCxCmd
 1363              	.LVL89:
 1364              		.loc 1 2749 0
 1365 0202 2A46     		mov	r2, r5
 1366 0204 0021     		movs	r1, #0
 1367              	.L134:
 1368              		.loc 1 2811 0
ARM GAS  /var/folders/sv/kgmgr77579zbf78p2zlhkdfr0000gn/T//ccItzhl5.s 			page 25


 1369 0206 4C48     		ldr	r0, .L141+12
 1370 0208 FFF7FEFF 		bl	TIM_CCxNCmd
 1371              	.LVL90:
 1372              		.loc 1 2814 0
 1373 020c 3246     		mov	r2, r6
 1374 020e 0821     		movs	r1, #8
 1375 0210 4948     		ldr	r0, .L141+12
 1376 0212 FFF7FEFF 		bl	TIM_SelectOCxM
 1377              	.LVL91:
 1378              		.loc 1 2815 0
 1379 0216 0122     		movs	r2, #1
 1380 0218 7BE7     		b	.L128
 1381              	.LVL92:
 1382              	.L135:
 1383              		.loc 1 2639 0
 1384 021a 2022     		movs	r2, #32
 1385 021c 0421     		movs	r1, #4
 1386 021e 4648     		ldr	r0, .L141+12
 1387              	.LVL93:
 1388 0220 FFF7FEFF 		bl	TIM_SelectOCxM
 1389              	.LVL94:
 1390              		.loc 1 2640 0
 1391 0224 2A46     		mov	r2, r5
 1392 0226 0421     		movs	r1, #4
 1393 0228 4348     		ldr	r0, .L141+12
 1394 022a FFF7FEFF 		bl	TIM_CCxCmd
 1395              	.LVL95:
 1396              		.loc 1 2641 0
 1397 022e 0022     		movs	r2, #0
 1398 0230 0421     		movs	r1, #4
 1399 0232 4148     		ldr	r0, .L141+12
 1400 0234 FFF7FEFF 		bl	TIM_CCxNCmd
 1401              	.LVL96:
 1402              		.loc 1 2643 0
 1403 0238 3E4B     		ldr	r3, .L141+8
 1404 023a 1C68     		ldr	r4, [r3]
 1405              		.loc 1 2645 0
 1406 023c 6022     		movs	r2, #96
 1407              		.loc 1 2643 0
 1408 023e 002C     		cmp	r4, #0
 1409 0240 00F0C680 		beq	.L108
 1410              		.loc 1 2645 0
 1411 0244 0021     		movs	r1, #0
 1412 0246 3C48     		ldr	r0, .L141+12
 1413 0248 FFF7FEFF 		bl	TIM_SelectOCxM
 1414              	.LVL97:
 1415              		.loc 1 2646 0
 1416 024c 2A46     		mov	r2, r5
 1417 024e 0021     		movs	r1, #0
 1418 0250 3948     		ldr	r0, .L141+12
 1419 0252 FFF7FEFF 		bl	TIM_CCxCmd
 1420              	.LVL98:
 1421              		.loc 1 2647 0
 1422 0256 0422     		movs	r2, #4
 1423 0258 0021     		movs	r1, #0
 1424 025a 3748     		ldr	r0, .L141+12
 1425 025c FFF7FEFF 		bl	TIM_CCxNCmd
ARM GAS  /var/folders/sv/kgmgr77579zbf78p2zlhkdfr0000gn/T//ccItzhl5.s 			page 26


 1426              	.LVL99:
 1427              		.loc 1 2650 0
 1428 0260 2022     		movs	r2, #32
 1429 0262 0821     		movs	r1, #8
 1430 0264 3448     		ldr	r0, .L141+12
 1431 0266 FFF7FEFF 		bl	TIM_SelectOCxM
 1432              	.LVL100:
 1433              		.loc 1 2651 0
 1434 026a 2A46     		mov	r2, r5
 1435 026c 51E7     		b	.L128
 1436              	.LVL101:
 1437              	.L138:
 1438              		.loc 1 2777 0
 1439 026e 314B     		ldr	r3, .L141+8
 1440 0270 1C68     		ldr	r4, [r3]
 1441              		.loc 1 2784 0
 1442 0272 2022     		movs	r2, #32
 1443              		.loc 1 2777 0
 1444 0274 002C     		cmp	r4, #0
 1445 0276 00F0CA80 		beq	.L117
 1446              		.loc 1 2784 0
 1447 027a 0821     		movs	r1, #8
 1448 027c 2E48     		ldr	r0, .L141+12
 1449              	.LVL102:
 1450 027e FFF7FEFF 		bl	TIM_SelectOCxM
 1451              	.LVL103:
 1452              		.loc 1 2785 0
 1453 0282 0122     		movs	r2, #1
 1454 0284 0821     		movs	r1, #8
 1455 0286 2C48     		ldr	r0, .L141+12
 1456 0288 FFF7FEFF 		bl	TIM_CCxCmd
 1457              	.LVL104:
 1458              		.loc 1 2786 0
 1459 028c 0022     		movs	r2, #0
 1460 028e 0821     		movs	r1, #8
 1461 0290 2948     		ldr	r0, .L141+12
 1462 0292 FFF7FEFF 		bl	TIM_CCxNCmd
 1463              	.LVL105:
 1464              		.loc 1 2789 0
 1465 0296 6022     		movs	r2, #96
 1466 0298 0021     		movs	r1, #0
 1467 029a 2748     		ldr	r0, .L141+12
 1468 029c FFF7FEFF 		bl	TIM_SelectOCxM
 1469              	.LVL106:
 1470              		.loc 1 2790 0
 1471 02a0 0122     		movs	r2, #1
 1472 02a2 0021     		movs	r1, #0
 1473 02a4 2448     		ldr	r0, .L141+12
 1474 02a6 FFF7FEFF 		bl	TIM_CCxCmd
 1475              	.LVL107:
 1476              		.loc 1 2791 0
 1477 02aa 2A46     		mov	r2, r5
 1478 02ac 0021     		movs	r1, #0
 1479              	.L133:
 1480              		.loc 1 2769 0
 1481 02ae 2248     		ldr	r0, .L141+12
 1482 02b0 FFF7FEFF 		bl	TIM_CCxNCmd
ARM GAS  /var/folders/sv/kgmgr77579zbf78p2zlhkdfr0000gn/T//ccItzhl5.s 			page 27


 1483              	.LVL108:
 1484              		.loc 1 2772 0
 1485 02b4 3246     		mov	r2, r6
 1486 02b6 0421     		movs	r1, #4
 1487 02b8 1F48     		ldr	r0, .L141+12
 1488 02ba FFF7FEFF 		bl	TIM_SelectOCxM
 1489              	.LVL109:
 1490              		.loc 1 2773 0
 1491 02be 0122     		movs	r2, #1
 1492 02c0 55E7     		b	.L130
 1493              	.LVL110:
 1494              	.L139:
 1495              		.loc 1 2819 0
 1496 02c2 1C4B     		ldr	r3, .L141+8
 1497 02c4 1F68     		ldr	r7, [r3]
 1498              		.loc 1 2826 0
 1499 02c6 2022     		movs	r2, #32
 1500              		.loc 1 2819 0
 1501 02c8 002F     		cmp	r7, #0
 1502 02ca 00F0BB80 		beq	.L119
 1503              		.loc 1 2826 0
 1504 02ce 0021     		movs	r1, #0
 1505 02d0 1948     		ldr	r0, .L141+12
 1506              	.LVL111:
 1507 02d2 FFF7FEFF 		bl	TIM_SelectOCxM
 1508              	.LVL112:
 1509              		.loc 1 2827 0
 1510 02d6 0122     		movs	r2, #1
 1511 02d8 0021     		movs	r1, #0
 1512 02da 1748     		ldr	r0, .L141+12
 1513 02dc FFF7FEFF 		bl	TIM_CCxCmd
 1514              	.LVL113:
 1515              		.loc 1 2828 0
 1516 02e0 0022     		movs	r2, #0
 1517 02e2 1146     		mov	r1, r2
 1518 02e4 1448     		ldr	r0, .L141+12
 1519 02e6 FFF7FEFF 		bl	TIM_CCxNCmd
 1520              	.LVL114:
 1521              		.loc 1 2831 0
 1522 02ea 6022     		movs	r2, #96
 1523 02ec 0821     		movs	r1, #8
 1524 02ee 1248     		ldr	r0, .L141+12
 1525 02f0 FFF7FEFF 		bl	TIM_SelectOCxM
 1526              	.LVL115:
 1527              		.loc 1 2832 0
 1528 02f4 0122     		movs	r2, #1
 1529 02f6 0821     		movs	r1, #8
 1530 02f8 0F48     		ldr	r0, .L141+12
 1531 02fa FFF7FEFF 		bl	TIM_CCxCmd
 1532              	.LVL116:
 1533              		.loc 1 2833 0
 1534 02fe 2A46     		mov	r2, r5
 1535 0300 0821     		movs	r1, #8
 1536 0302 0D48     		ldr	r0, .L141+12
 1537 0304 FFF7FEFF 		bl	TIM_CCxNCmd
 1538              	.LVL117:
 1539              		.loc 1 2836 0
ARM GAS  /var/folders/sv/kgmgr77579zbf78p2zlhkdfr0000gn/T//ccItzhl5.s 			page 28


 1540 0308 3246     		mov	r2, r6
 1541 030a 2146     		mov	r1, r4
 1542 030c 0A48     		ldr	r0, .L141+12
 1543 030e FFF7FEFF 		bl	TIM_SelectOCxM
 1544              	.LVL118:
 1545              		.loc 1 2837 0
 1546 0312 2146     		mov	r1, r4
 1547 0314 0122     		movs	r2, #1
 1548 0316 0848     		ldr	r0, .L141+12
 1549 0318 FFF7FEFF 		bl	TIM_CCxCmd
 1550              	.LVL119:
 1551              		.loc 1 2838 0
 1552 031c 2246     		mov	r2, r4
 1553 031e 2146     		mov	r1, r4
 1554 0320 0548     		ldr	r0, .L141+12
 1555              		.loc 1 2963 0
 1556 0322 BDE8F840 		pop	{r3, r4, r5, r6, r7, lr}
 1557              		.cfi_remember_state
 1558              		.cfi_restore 14
 1559              		.cfi_restore 7
 1560              		.cfi_restore 6
 1561              		.cfi_restore 5
 1562              		.cfi_restore 4
 1563              		.cfi_restore 3
 1564              		.cfi_def_cfa_offset 0
 1565              	.LVL120:
 1566              		.loc 1 2838 0
 1567 0326 FFF7FEBF 		b	TIM_CCxNCmd
 1568              	.LVL121:
 1569              	.L142:
 1570 032a 00BF     		.align	2
 1571              	.L141:
 1572 032c 00000000 		.word	.LANCHOR0
 1573 0330 00000000 		.word	.LANCHOR2
 1574 0334 00000000 		.word	.LANCHOR4
 1575 0338 00000140 		.word	1073807360
 1576              	.LVL122:
 1577              	.L115:
 1578              		.cfi_restore_state
 1579              		.loc 1 2762 0
 1580 033c 0821     		movs	r1, #8
 1581 033e 7848     		ldr	r0, .L143
 1582              	.LVL123:
 1583 0340 FFF7FEFF 		bl	TIM_SelectOCxM
 1584              	.LVL124:
 1585              		.loc 1 2763 0
 1586 0344 0122     		movs	r2, #1
 1587 0346 0821     		movs	r1, #8
 1588 0348 7548     		ldr	r0, .L143
 1589 034a FFF7FEFF 		bl	TIM_CCxCmd
 1590              	.LVL125:
 1591              		.loc 1 2764 0
 1592 034e 2246     		mov	r2, r4
 1593 0350 0821     		movs	r1, #8
 1594 0352 7348     		ldr	r0, .L143
 1595 0354 FFF7FEFF 		bl	TIM_CCxNCmd
 1596              	.LVL126:
ARM GAS  /var/folders/sv/kgmgr77579zbf78p2zlhkdfr0000gn/T//ccItzhl5.s 			page 29


 1597              		.loc 1 2767 0
 1598 0358 6022     		movs	r2, #96
 1599 035a 2146     		mov	r1, r4
 1600 035c 7048     		ldr	r0, .L143
 1601 035e FFF7FEFF 		bl	TIM_SelectOCxM
 1602              	.LVL127:
 1603              		.loc 1 2768 0
 1604 0362 0122     		movs	r2, #1
 1605 0364 2146     		mov	r1, r4
 1606 0366 6E48     		ldr	r0, .L143
 1607 0368 FFF7FEFF 		bl	TIM_CCxCmd
 1608              	.LVL128:
 1609              		.loc 1 2769 0
 1610 036c 2A46     		mov	r2, r5
 1611 036e 2146     		mov	r1, r4
 1612 0370 9DE7     		b	.L133
 1613              	.LVL129:
 1614              	.L122:
 1615              		.loc 1 2951 0
 1616 0372 4022     		movs	r2, #64
 1617 0374 0021     		movs	r1, #0
 1618 0376 6A48     		ldr	r0, .L143
 1619              	.LVL130:
 1620 0378 FFF7FEFF 		bl	TIM_SelectOCxM
 1621              	.LVL131:
 1622              		.loc 1 2952 0
 1623 037c 0122     		movs	r2, #1
 1624 037e 0021     		movs	r1, #0
 1625 0380 6748     		ldr	r0, .L143
 1626 0382 FFF7FEFF 		bl	TIM_CCxCmd
 1627              	.LVL132:
 1628              		.loc 1 2953 0
 1629 0386 0022     		movs	r2, #0
 1630 0388 1146     		mov	r1, r2
 1631 038a 6548     		ldr	r0, .L143
 1632 038c FFF7FEFF 		bl	TIM_CCxNCmd
 1633              	.LVL133:
 1634              		.loc 1 2955 0
 1635 0390 4022     		movs	r2, #64
 1636 0392 0421     		movs	r1, #4
 1637 0394 6248     		ldr	r0, .L143
 1638 0396 FFF7FEFF 		bl	TIM_SelectOCxM
 1639              	.LVL134:
 1640              		.loc 1 2956 0
 1641 039a 0122     		movs	r2, #1
 1642 039c 0421     		movs	r1, #4
 1643 039e 6048     		ldr	r0, .L143
 1644 03a0 FFF7FEFF 		bl	TIM_CCxCmd
 1645              	.LVL135:
 1646              		.loc 1 2957 0
 1647 03a4 0022     		movs	r2, #0
 1648 03a6 0421     		movs	r1, #4
 1649 03a8 5D48     		ldr	r0, .L143
 1650 03aa FFF7FEFF 		bl	TIM_CCxNCmd
 1651              	.LVL136:
 1652              		.loc 1 2959 0
 1653 03ae 4022     		movs	r2, #64
ARM GAS  /var/folders/sv/kgmgr77579zbf78p2zlhkdfr0000gn/T//ccItzhl5.s 			page 30


 1654 03b0 0821     		movs	r1, #8
 1655 03b2 5B48     		ldr	r0, .L143
 1656 03b4 FFF7FEFF 		bl	TIM_SelectOCxM
 1657              	.LVL137:
 1658              		.loc 1 2960 0
 1659 03b8 0122     		movs	r2, #1
 1660 03ba 0821     		movs	r1, #8
 1661 03bc 5848     		ldr	r0, .L143
 1662 03be FFF7FEFF 		bl	TIM_CCxCmd
 1663              	.LVL138:
 1664              		.loc 1 2961 0
 1665 03c2 0022     		movs	r2, #0
 1666 03c4 0821     		movs	r1, #8
 1667 03c6 5648     		ldr	r0, .L143
 1668              		.loc 1 2963 0
 1669 03c8 BDE8F840 		pop	{r3, r4, r5, r6, r7, lr}
 1670              		.cfi_remember_state
 1671              		.cfi_restore 14
 1672              		.cfi_restore 7
 1673              		.cfi_restore 6
 1674              		.cfi_restore 5
 1675              		.cfi_restore 4
 1676              		.cfi_restore 3
 1677              		.cfi_def_cfa_offset 0
 1678              	.LVL139:
 1679              		.loc 1 2961 0
 1680 03cc FFF7FEBF 		b	TIM_CCxNCmd
 1681              	.LVL140:
 1682              	.L108:
 1683              		.cfi_restore_state
 1684              		.loc 1 2655 0
 1685 03d0 0821     		movs	r1, #8
 1686 03d2 5348     		ldr	r0, .L143
 1687 03d4 FFF7FEFF 		bl	TIM_SelectOCxM
 1688              	.LVL141:
 1689              		.loc 1 2656 0
 1690 03d8 2A46     		mov	r2, r5
 1691 03da 0821     		movs	r1, #8
 1692 03dc 5048     		ldr	r0, .L143
 1693 03de FFF7FEFF 		bl	TIM_CCxCmd
 1694              	.LVL142:
 1695              		.loc 1 2657 0
 1696 03e2 0422     		movs	r2, #4
 1697 03e4 0821     		movs	r1, #8
 1698 03e6 4E48     		ldr	r0, .L143
 1699 03e8 FFF7FEFF 		bl	TIM_CCxNCmd
 1700              	.LVL143:
 1701              		.loc 1 2660 0
 1702 03ec 2022     		movs	r2, #32
 1703 03ee 2146     		mov	r1, r4
 1704 03f0 4B48     		ldr	r0, .L143
 1705 03f2 FFF7FEFF 		bl	TIM_SelectOCxM
 1706              	.LVL144:
 1707              		.loc 1 2661 0
 1708 03f6 2A46     		mov	r2, r5
 1709              	.L129:
 1710              		.loc 1 2941 0
ARM GAS  /var/folders/sv/kgmgr77579zbf78p2zlhkdfr0000gn/T//ccItzhl5.s 			page 31


 1711 03f8 2146     		mov	r1, r4
 1712 03fa 4948     		ldr	r0, .L143
 1713 03fc FFF7FEFF 		bl	TIM_CCxCmd
 1714              	.LVL145:
 1715              		.loc 1 2942 0
 1716 0400 2146     		mov	r1, r4
 1717 0402 0422     		movs	r2, #4
 1718 0404 4648     		ldr	r0, .L143
 1719              		.loc 1 2963 0
 1720 0406 BDE8F840 		pop	{r3, r4, r5, r6, r7, lr}
 1721              		.cfi_remember_state
 1722              		.cfi_restore 14
 1723              		.cfi_restore 7
 1724              		.cfi_restore 6
 1725              		.cfi_restore 5
 1726              		.cfi_restore 4
 1727              		.cfi_restore 3
 1728              		.cfi_def_cfa_offset 0
 1729              		.loc 1 2942 0
 1730 040a FFF7FEBF 		b	TIM_CCxNCmd
 1731              	.LVL146:
 1732              	.L117:
 1733              		.cfi_restore_state
 1734              		.loc 1 2804 0
 1735 040e 0421     		movs	r1, #4
 1736 0410 4348     		ldr	r0, .L143
 1737              	.LVL147:
 1738 0412 FFF7FEFF 		bl	TIM_SelectOCxM
 1739              	.LVL148:
 1740              		.loc 1 2805 0
 1741 0416 0122     		movs	r2, #1
 1742 0418 0421     		movs	r1, #4
 1743 041a 4148     		ldr	r0, .L143
 1744 041c FFF7FEFF 		bl	TIM_CCxCmd
 1745              	.LVL149:
 1746              		.loc 1 2806 0
 1747 0420 2246     		mov	r2, r4
 1748 0422 0421     		movs	r1, #4
 1749 0424 3E48     		ldr	r0, .L143
 1750 0426 FFF7FEFF 		bl	TIM_CCxNCmd
 1751              	.LVL150:
 1752              		.loc 1 2809 0
 1753 042a 6022     		movs	r2, #96
 1754 042c 2146     		mov	r1, r4
 1755 042e 3C48     		ldr	r0, .L143
 1756 0430 FFF7FEFF 		bl	TIM_SelectOCxM
 1757              	.LVL151:
 1758              		.loc 1 2810 0
 1759 0434 0122     		movs	r2, #1
 1760 0436 2146     		mov	r1, r4
 1761 0438 3948     		ldr	r0, .L143
 1762 043a FFF7FEFF 		bl	TIM_CCxCmd
 1763              	.LVL152:
 1764              		.loc 1 2811 0
 1765 043e 2A46     		mov	r2, r5
 1766 0440 2146     		mov	r1, r4
 1767 0442 E0E6     		b	.L134
ARM GAS  /var/folders/sv/kgmgr77579zbf78p2zlhkdfr0000gn/T//ccItzhl5.s 			page 32


 1768              	.LVL153:
 1769              	.L119:
 1770              		.loc 1 2846 0
 1771 0444 3946     		mov	r1, r7
 1772 0446 3648     		ldr	r0, .L143
 1773              	.LVL154:
 1774 0448 FFF7FEFF 		bl	TIM_SelectOCxM
 1775              	.LVL155:
 1776              		.loc 1 2847 0
 1777 044c 3946     		mov	r1, r7
 1778 044e 0122     		movs	r2, #1
 1779 0450 3348     		ldr	r0, .L143
 1780 0452 FFF7FEFF 		bl	TIM_CCxCmd
 1781              	.LVL156:
 1782              		.loc 1 2848 0
 1783 0456 3A46     		mov	r2, r7
 1784 0458 3946     		mov	r1, r7
 1785 045a 3148     		ldr	r0, .L143
 1786 045c FFF7FEFF 		bl	TIM_CCxNCmd
 1787              	.LVL157:
 1788              		.loc 1 2851 0
 1789 0460 2146     		mov	r1, r4
 1790 0462 6022     		movs	r2, #96
 1791 0464 2E48     		ldr	r0, .L143
 1792 0466 FFF7FEFF 		bl	TIM_SelectOCxM
 1793              	.LVL158:
 1794              		.loc 1 2852 0
 1795 046a 2146     		mov	r1, r4
 1796 046c 0122     		movs	r2, #1
 1797 046e 2C48     		ldr	r0, .L143
 1798 0470 FFF7FEFF 		bl	TIM_CCxCmd
 1799              	.LVL159:
 1800              		.loc 1 2853 0
 1801 0474 2A46     		mov	r2, r5
 1802 0476 2146     		mov	r1, r4
 1803 0478 2948     		ldr	r0, .L143
 1804 047a FFF7FEFF 		bl	TIM_CCxNCmd
 1805              	.LVL160:
 1806              		.loc 1 2856 0
 1807 047e 3246     		mov	r2, r6
 1808 0480 0821     		movs	r1, #8
 1809 0482 2748     		ldr	r0, .L143
 1810 0484 FFF7FEFF 		bl	TIM_SelectOCxM
 1811              	.LVL161:
 1812              		.loc 1 2857 0
 1813 0488 0122     		movs	r2, #1
 1814 048a 0821     		movs	r1, #8
 1815 048c 2448     		ldr	r0, .L143
 1816 048e FFF7FEFF 		bl	TIM_CCxCmd
 1817              	.LVL162:
 1818              		.loc 1 2858 0
 1819 0492 2246     		mov	r2, r4
 1820 0494 0821     		movs	r1, #8
 1821 0496 2248     		ldr	r0, .L143
 1822              		.loc 1 2963 0
 1823 0498 BDE8F840 		pop	{r3, r4, r5, r6, r7, lr}
 1824              		.cfi_remember_state
ARM GAS  /var/folders/sv/kgmgr77579zbf78p2zlhkdfr0000gn/T//ccItzhl5.s 			page 33


 1825              		.cfi_restore 14
 1826              		.cfi_restore 7
 1827              		.cfi_restore 6
 1828              		.cfi_restore 5
 1829              		.cfi_restore 4
 1830              		.cfi_restore 3
 1831              		.cfi_def_cfa_offset 0
 1832              	.LVL163:
 1833              		.loc 1 2858 0
 1834 049c FFF7FEBF 		b	TIM_CCxNCmd
 1835              	.LVL164:
 1836              	.L123:
 1837              		.cfi_restore_state
 1838              		.loc 1 2930 0
 1839 04a0 0421     		movs	r1, #4
 1840 04a2 1F48     		ldr	r0, .L143
 1841              	.LVL165:
 1842 04a4 FFF7FEFF 		bl	TIM_SelectOCxM
 1843              	.LVL166:
 1844              		.loc 1 2931 0
 1845 04a8 0122     		movs	r2, #1
 1846 04aa 0421     		movs	r1, #4
 1847 04ac 1C48     		ldr	r0, .L143
 1848 04ae FFF7FEFF 		bl	TIM_CCxCmd
 1849              	.LVL167:
 1850              		.loc 1 2932 0
 1851 04b2 2246     		mov	r2, r4
 1852 04b4 0421     		movs	r1, #4
 1853 04b6 1A48     		ldr	r0, .L143
 1854 04b8 FFF7FEFF 		bl	TIM_CCxNCmd
 1855              	.LVL168:
 1856              		.loc 1 2935 0
 1857 04bc 6022     		movs	r2, #96
 1858 04be 0821     		movs	r1, #8
 1859 04c0 1748     		ldr	r0, .L143
 1860 04c2 FFF7FEFF 		bl	TIM_SelectOCxM
 1861              	.LVL169:
 1862              		.loc 1 2936 0
 1863 04c6 0122     		movs	r2, #1
 1864 04c8 0821     		movs	r1, #8
 1865 04ca 1548     		ldr	r0, .L143
 1866 04cc FFF7FEFF 		bl	TIM_CCxCmd
 1867              	.LVL170:
 1868              		.loc 1 2937 0
 1869 04d0 2A46     		mov	r2, r5
 1870 04d2 0821     		movs	r1, #8
 1871              	.L131:
 1872 04d4 1248     		ldr	r0, .L143
 1873 04d6 FFF7FEFF 		bl	TIM_CCxNCmd
 1874              	.LVL171:
 1875              		.loc 1 2940 0
 1876 04da 3246     		mov	r2, r6
 1877 04dc 2146     		mov	r1, r4
 1878 04de 1048     		ldr	r0, .L143
 1879 04e0 FFF7FEFF 		bl	TIM_SelectOCxM
 1880              	.LVL172:
 1881              		.loc 1 2941 0
ARM GAS  /var/folders/sv/kgmgr77579zbf78p2zlhkdfr0000gn/T//ccItzhl5.s 			page 34


 1882 04e4 0122     		movs	r2, #1
 1883 04e6 87E7     		b	.L129
 1884              	.LVL173:
 1885              	.L121:
 1886              		.loc 1 2888 0
 1887 04e8 0821     		movs	r1, #8
 1888 04ea 0D48     		ldr	r0, .L143
 1889              	.LVL174:
 1890 04ec FFF7FEFF 		bl	TIM_SelectOCxM
 1891              	.LVL175:
 1892              		.loc 1 2889 0
 1893 04f0 0122     		movs	r2, #1
 1894 04f2 0821     		movs	r1, #8
 1895 04f4 0A48     		ldr	r0, .L143
 1896 04f6 FFF7FEFF 		bl	TIM_CCxCmd
 1897              	.LVL176:
 1898              		.loc 1 2890 0
 1899 04fa 2246     		mov	r2, r4
 1900 04fc 0821     		movs	r1, #8
 1901 04fe 0848     		ldr	r0, .L143
 1902 0500 FFF7FEFF 		bl	TIM_CCxNCmd
 1903              	.LVL177:
 1904              		.loc 1 2893 0
 1905 0504 6022     		movs	r2, #96
 1906 0506 0421     		movs	r1, #4
 1907 0508 0548     		ldr	r0, .L143
 1908 050a FFF7FEFF 		bl	TIM_SelectOCxM
 1909              	.LVL178:
 1910              		.loc 1 2894 0
 1911 050e 0122     		movs	r2, #1
 1912 0510 0421     		movs	r1, #4
 1913 0512 0348     		ldr	r0, .L143
 1914 0514 FFF7FEFF 		bl	TIM_CCxCmd
 1915              	.LVL179:
 1916              		.loc 1 2895 0
 1917 0518 2A46     		mov	r2, r5
 1918 051a 0421     		movs	r1, #4
 1919 051c DAE7     		b	.L131
 1920              	.L144:
 1921 051e 00BF     		.align	2
 1922              	.L143:
 1923 0520 00000140 		.word	1073807360
 1924              		.cfi_endproc
 1925              	.LFE320:
 1926              		.size	set_next_comm_step, .-set_next_comm_step
 1927              		.section	.text.full_brake_hw,"ax",%progbits
 1928              		.align	2
 1929              		.p2align 4,,15
 1930              		.thumb
 1931              		.thumb_func
 1932              		.type	full_brake_hw, %function
 1933              	full_brake_hw:
 1934              	.LFB289:
 1935              		.loc 1 918 0
 1936              		.cfi_startproc
 1937              		@ args = 0, pretend = 0, frame = 0
 1938              		@ frame_needed = 0, uses_anonymous_args = 0
ARM GAS  /var/folders/sv/kgmgr77579zbf78p2zlhkdfr0000gn/T//ccItzhl5.s 			page 35


 1939 0000 10B5     		push	{r4, lr}
 1940              		.cfi_def_cfa_offset 8
 1941              		.cfi_offset 4, -8
 1942              		.cfi_offset 14, -4
 1943              		.loc 1 923 0
 1944 0002 1D4C     		ldr	r4, .L147
 1945 0004 4022     		movs	r2, #64
 1946 0006 2046     		mov	r0, r4
 1947 0008 0021     		movs	r1, #0
 1948 000a FFF7FEFF 		bl	TIM_SelectOCxM
 1949              	.LVL180:
 1950              		.loc 1 924 0
 1951 000e 2046     		mov	r0, r4
 1952 0010 0122     		movs	r2, #1
 1953 0012 0021     		movs	r1, #0
 1954 0014 FFF7FEFF 		bl	TIM_CCxCmd
 1955              	.LVL181:
 1956              		.loc 1 925 0
 1957 0018 2046     		mov	r0, r4
 1958 001a 0422     		movs	r2, #4
 1959 001c 0021     		movs	r1, #0
 1960 001e FFF7FEFF 		bl	TIM_CCxNCmd
 1961              	.LVL182:
 1962              		.loc 1 927 0
 1963 0022 2046     		mov	r0, r4
 1964 0024 4022     		movs	r2, #64
 1965 0026 0421     		movs	r1, #4
 1966 0028 FFF7FEFF 		bl	TIM_SelectOCxM
 1967              	.LVL183:
 1968              		.loc 1 928 0
 1969 002c 2046     		mov	r0, r4
 1970 002e 0122     		movs	r2, #1
 1971 0030 0421     		movs	r1, #4
 1972 0032 FFF7FEFF 		bl	TIM_CCxCmd
 1973              	.LVL184:
 1974              		.loc 1 929 0
 1975 0036 0422     		movs	r2, #4
 1976 0038 2046     		mov	r0, r4
 1977 003a 1146     		mov	r1, r2
 1978 003c FFF7FEFF 		bl	TIM_CCxNCmd
 1979              	.LVL185:
 1980              		.loc 1 931 0
 1981 0040 2046     		mov	r0, r4
 1982 0042 4022     		movs	r2, #64
 1983 0044 0821     		movs	r1, #8
 1984 0046 FFF7FEFF 		bl	TIM_SelectOCxM
 1985              	.LVL186:
 1986              		.loc 1 932 0
 1987 004a 2046     		mov	r0, r4
 1988 004c 0122     		movs	r2, #1
 1989 004e 0821     		movs	r1, #8
 1990 0050 FFF7FEFF 		bl	TIM_CCxCmd
 1991              	.LVL187:
 1992              		.loc 1 933 0
 1993 0054 2046     		mov	r0, r4
 1994 0056 0422     		movs	r2, #4
 1995 0058 0821     		movs	r1, #8
ARM GAS  /var/folders/sv/kgmgr77579zbf78p2zlhkdfr0000gn/T//ccItzhl5.s 			page 36


 1996 005a FFF7FEFF 		bl	TIM_CCxNCmd
 1997              	.LVL188:
 1998              		.loc 1 935 0
 1999 005e 2046     		mov	r0, r4
 2000 0060 2021     		movs	r1, #32
 2001 0062 FFF7FEFF 		bl	TIM_GenerateEvent
 2002              	.LVL189:
 2003              		.loc 1 937 0
 2004 0066 054B     		ldr	r3, .L147+4
 2005 0068 1B68     		ldr	r3, [r3]
 2006              		.loc 1 938 0
 2007 006a BDE81040 		pop	{r4, lr}
 2008              		.cfi_restore 14
 2009              		.cfi_restore 4
 2010              		.cfi_def_cfa_offset 0
 2011              		.loc 1 937 0
 2012 006e 93ED5A0A 		vldr.32	s0, [r3, #360]
 2013 0072 FFF7FEBF 		b	set_switching_frequency
 2014              	.LVL190:
 2015              	.L148:
 2016 0076 00BF     		.align	2
 2017              	.L147:
 2018 0078 00000140 		.word	1073807360
 2019 007c 00000000 		.word	.LANCHOR0
 2020              		.cfi_endproc
 2021              	.LFE289:
 2022              		.size	full_brake_hw, .-full_brake_hw
 2023              		.section	.text.stop_pwm_hw,"ax",%progbits
 2024              		.align	2
 2025              		.p2align 4,,15
 2026              		.thumb
 2027              		.thumb_func
 2028              		.type	stop_pwm_hw, %function
 2029              	stop_pwm_hw:
 2030              	.LFB287:
 2031              		.loc 1 890 0
 2032              		.cfi_startproc
 2033              		@ args = 0, pretend = 0, frame = 0
 2034              		@ frame_needed = 0, uses_anonymous_args = 0
 2035 0000 10B5     		push	{r4, lr}
 2036              		.cfi_def_cfa_offset 8
 2037              		.cfi_offset 4, -8
 2038              		.cfi_offset 14, -4
 2039              		.loc 1 895 0
 2040 0002 1D4C     		ldr	r4, .L151
 2041 0004 4022     		movs	r2, #64
 2042 0006 2046     		mov	r0, r4
 2043 0008 0021     		movs	r1, #0
 2044 000a FFF7FEFF 		bl	TIM_SelectOCxM
 2045              	.LVL191:
 2046              		.loc 1 896 0
 2047 000e 2046     		mov	r0, r4
 2048 0010 0122     		movs	r2, #1
 2049 0012 0021     		movs	r1, #0
 2050 0014 FFF7FEFF 		bl	TIM_CCxCmd
 2051              	.LVL192:
 2052              		.loc 1 897 0
ARM GAS  /var/folders/sv/kgmgr77579zbf78p2zlhkdfr0000gn/T//ccItzhl5.s 			page 37


 2053 0018 0022     		movs	r2, #0
 2054 001a 2046     		mov	r0, r4
 2055 001c 1146     		mov	r1, r2
 2056 001e FFF7FEFF 		bl	TIM_CCxNCmd
 2057              	.LVL193:
 2058              		.loc 1 899 0
 2059 0022 2046     		mov	r0, r4
 2060 0024 4022     		movs	r2, #64
 2061 0026 0421     		movs	r1, #4
 2062 0028 FFF7FEFF 		bl	TIM_SelectOCxM
 2063              	.LVL194:
 2064              		.loc 1 900 0
 2065 002c 2046     		mov	r0, r4
 2066 002e 0122     		movs	r2, #1
 2067 0030 0421     		movs	r1, #4
 2068 0032 FFF7FEFF 		bl	TIM_CCxCmd
 2069              	.LVL195:
 2070              		.loc 1 901 0
 2071 0036 2046     		mov	r0, r4
 2072 0038 0022     		movs	r2, #0
 2073 003a 0421     		movs	r1, #4
 2074 003c FFF7FEFF 		bl	TIM_CCxNCmd
 2075              	.LVL196:
 2076              		.loc 1 903 0
 2077 0040 2046     		mov	r0, r4
 2078 0042 4022     		movs	r2, #64
 2079 0044 0821     		movs	r1, #8
 2080 0046 FFF7FEFF 		bl	TIM_SelectOCxM
 2081              	.LVL197:
 2082              		.loc 1 904 0
 2083 004a 2046     		mov	r0, r4
 2084 004c 0122     		movs	r2, #1
 2085 004e 0821     		movs	r1, #8
 2086 0050 FFF7FEFF 		bl	TIM_CCxCmd
 2087              	.LVL198:
 2088              		.loc 1 905 0
 2089 0054 2046     		mov	r0, r4
 2090 0056 0022     		movs	r2, #0
 2091 0058 0821     		movs	r1, #8
 2092 005a FFF7FEFF 		bl	TIM_CCxNCmd
 2093              	.LVL199:
 2094              		.loc 1 907 0
 2095 005e 2046     		mov	r0, r4
 2096 0060 2021     		movs	r1, #32
 2097 0062 FFF7FEFF 		bl	TIM_GenerateEvent
 2098              	.LVL200:
 2099              		.loc 1 909 0
 2100 0066 054B     		ldr	r3, .L151+4
 2101 0068 1B68     		ldr	r3, [r3]
 2102              		.loc 1 910 0
 2103 006a BDE81040 		pop	{r4, lr}
 2104              		.cfi_restore 14
 2105              		.cfi_restore 4
 2106              		.cfi_def_cfa_offset 0
 2107              		.loc 1 909 0
 2108 006e 93ED5A0A 		vldr.32	s0, [r3, #360]
 2109 0072 FFF7FEBF 		b	set_switching_frequency
ARM GAS  /var/folders/sv/kgmgr77579zbf78p2zlhkdfr0000gn/T//ccItzhl5.s 			page 38


 2110              	.LVL201:
 2111              	.L152:
 2112 0076 00BF     		.align	2
 2113              	.L151:
 2114 0078 00000140 		.word	1073807360
 2115 007c 00000000 		.word	.LANCHOR0
 2116              		.cfi_endproc
 2117              	.LFE287:
 2118              		.size	stop_pwm_hw, .-stop_pwm_hw
 2119              		.section	.text.commutate,"ax",%progbits
 2120              		.align	2
 2121              		.p2align 4,,15
 2122              		.thumb
 2123              		.thumb_func
 2124              		.type	commutate, %function
 2125              	commutate:
 2126              	.LFB316:
 2127              		.loc 1 2540 0
 2128              		.cfi_startproc
 2129              		@ args = 0, pretend = 0, frame = 24
 2130              		@ frame_needed = 0, uses_anonymous_args = 0
 2131              	.LVL202:
 2132              		.loc 1 2541 0
 2133 0000 2F4B     		ldr	r3, .L177
 2134 0002 304A     		ldr	r2, .L177+4
 2135 0004 1968     		ldr	r1, [r3]	@ float
 2136              		.loc 1 2540 0
 2137 0006 F0B5     		push	{r4, r5, r6, r7, lr}
 2138              		.cfi_def_cfa_offset 20
 2139              		.cfi_offset 4, -20
 2140              		.cfi_offset 5, -16
 2141              		.cfi_offset 6, -12
 2142              		.cfi_offset 7, -8
 2143              		.cfi_offset 14, -4
 2144              		.loc 1 2542 0
 2145 0008 2F4C     		ldr	r4, .L177+8
 2146              		.loc 1 2541 0
 2147 000a 1160     		str	r1, [r2]	@ float
 2148              		.loc 1 2542 0
 2149 000c 2268     		ldr	r2, [r4]
 2150 000e 2F49     		ldr	r1, .L177+12
 2151              		.loc 1 2546 0
 2152 0010 2F4D     		ldr	r5, .L177+16
 2153              		.loc 1 2542 0
 2154 0012 D3F800E0 		ldr	lr, [r3]	@ float
 2155              		.loc 1 2544 0
 2156 0016 2F4E     		ldr	r6, .L177+20
 2157              		.loc 1 2542 0
 2158 0018 013A     		subs	r2, r2, #1
 2159 001a 01EB8202 		add	r2, r1, r2, lsl #2
 2160              		.loc 1 2543 0
 2161 001e 0027     		movs	r7, #0
 2162              		.loc 1 2542 0
 2163 0020 C2F800E0 		str	lr, [r2]	@ float
 2164              		.loc 1 2543 0
 2165 0024 1F60     		str	r7, [r3]	@ float
 2166              		.loc 1 2546 0
ARM GAS  /var/folders/sv/kgmgr77579zbf78p2zlhkdfr0000gn/T//ccItzhl5.s 			page 39


 2167 0026 2A68     		ldr	r2, [r5]
 2168              		.loc 1 2544 0
 2169 0028 0023     		movs	r3, #0
 2170 002a 3360     		str	r3, [r6]
 2171              		.loc 1 2546 0
 2172 002c 9378     		ldrb	r3, [r2, #2]	@ zero_extendqisi2
 2173              		.loc 1 2540 0
 2174 002e 87B0     		sub	sp, sp, #28
 2175              		.cfi_def_cfa_offset 48
 2176              		.loc 1 2546 0
 2177 0030 23BB     		cbnz	r3, .L154
 2178              		.loc 1 2546 0 is_stmt 0 discriminator 1
 2179 0032 294B     		ldr	r3, .L177+24
 2180 0034 1B78     		ldrb	r3, [r3]	@ zero_extendqisi2
 2181 0036 0BB3     		cbz	r3, .L154
 2182              		.loc 1 2547 0 is_stmt 1
 2183 0038 2368     		ldr	r3, [r4]
 2184 003a 1844     		add	r0, r0, r3
 2185              	.LVL203:
 2186 003c 2060     		str	r0, [r4]
 2187              		.loc 1 2548 0
 2188 003e 2368     		ldr	r3, [r4]
 2189 0040 062B     		cmp	r3, #6
 2190 0042 0BDD     		ble	.L172
 2191              	.L165:
 2192              		.loc 1 2549 0
 2193 0044 2368     		ldr	r3, [r4]
 2194 0046 063B     		subs	r3, r3, #6
 2195 0048 2360     		str	r3, [r4]
 2196              		.loc 1 2548 0
 2197 004a 2368     		ldr	r3, [r4]
 2198 004c 062B     		cmp	r3, #6
 2199 004e F9DC     		bgt	.L165
 2200              		.loc 1 2551 0
 2201 0050 2368     		ldr	r3, [r4]
 2202 0052 002B     		cmp	r3, #0
 2203 0054 05DC     		bgt	.L175
 2204              	.L164:
 2205              		.loc 1 2552 0
 2206 0056 2368     		ldr	r3, [r4]
 2207 0058 0633     		adds	r3, r3, #6
 2208 005a 2360     		str	r3, [r4]
 2209              	.L172:
 2210              		.loc 1 2551 0
 2211 005c 2368     		ldr	r3, [r4]
 2212 005e 002B     		cmp	r3, #0
 2213 0060 F9DD     		ble	.L164
 2214              	.L175:
 2215              		.loc 1 2555 0
 2216 0062 FFF7FEFF 		bl	update_rpm_tacho
 2217              	.LVL204:
 2218              		.loc 1 2557 0
 2219 0066 1D4B     		ldr	r3, .L177+28
 2220 0068 1B78     		ldrb	r3, [r3]	@ zero_extendqisi2
 2221 006a 022B     		cmp	r3, #2
 2222 006c 03D0     		beq	.L176
 2223              		.loc 1 2558 0
ARM GAS  /var/folders/sv/kgmgr77579zbf78p2zlhkdfr0000gn/T//ccItzhl5.s 			page 40


 2224 006e FFF7FEFF 		bl	update_sensor_mode
 2225              	.LVL205:
 2226              		.loc 1 2578 0
 2227 0072 07B0     		add	sp, sp, #28
 2228              		.cfi_remember_state
 2229              		.cfi_def_cfa_offset 20
 2230              		@ sp needed
 2231 0074 F0BD     		pop	{r4, r5, r6, r7, pc}
 2232              	.L176:
 2233              		.cfi_restore_state
 2234              		.loc 1 2562 0
 2235 0076 2068     		ldr	r0, [r4]
 2236 0078 FFF7FEFF 		bl	set_next_comm_step
 2237              	.LVL206:
 2238              	.L154:
 2239              		.loc 1 2565 0
 2240 007c 2021     		movs	r1, #32
 2241 007e 1848     		ldr	r0, .L177+32
 2242              		.loc 1 2571 0
 2243 0080 184E     		ldr	r6, .L177+36
 2244              		.loc 1 2565 0
 2245 0082 FFF7FEFF 		bl	TIM_GenerateEvent
 2246              	.LVL207:
 2247              		.loc 1 2566 0
 2248 0086 184B     		ldr	r3, .L177+40
 2249 0088 0122     		movs	r2, #1
 2250 008a 1A60     		str	r2, [r3]
 2251              		.loc 1 2570 0
 2252 008c FFF7FEFF 		bl	utils_sys_lock_cnt
 2253              	.LVL208:
 2254              		.loc 1 2571 0
 2255 0090 0FCE     		ldmia	r6!, {r0, r1, r2, r3}
 2256 0092 6C46     		mov	r4, sp
 2257 0094 0FC4     		stmia	r4!, {r0, r1, r2, r3}
 2258 0096 96E80300 		ldmia	r6, {r0, r1}
 2259 009a 84E80300 		stmia	r4, {r0, r1}
 2260              		.loc 1 2572 0
 2261 009e FFF7FEFF 		bl	utils_sys_unlock_cnt
 2262              	.LVL209:
 2263              		.loc 1 2574 0
 2264 00a2 6846     		mov	r0, sp
 2265 00a4 FFF7FEFF 		bl	update_adc_sample_pos
 2266              	.LVL210:
 2267              		.loc 1 2575 0
 2268 00a8 6846     		mov	r0, sp
 2269 00aa FFF7FEFF 		bl	set_next_timer_settings
 2270              	.LVL211:
 2271              		.loc 1 2576 0
 2272 00ae FFF7FEFF 		bl	update_sensor_mode
 2273              	.LVL212:
 2274              		.loc 1 2577 0
 2275 00b2 0E4B     		ldr	r3, .L177+44
 2276 00b4 2A68     		ldr	r2, [r5]
 2277 00b6 1B78     		ldrb	r3, [r3]	@ zero_extendqisi2
 2278 00b8 DBB2     		uxtb	r3, r3
 2279 00ba 5370     		strb	r3, [r2, #1]
 2280              		.loc 1 2578 0
ARM GAS  /var/folders/sv/kgmgr77579zbf78p2zlhkdfr0000gn/T//ccItzhl5.s 			page 41


 2281 00bc 07B0     		add	sp, sp, #28
 2282              		.cfi_def_cfa_offset 20
 2283              		@ sp needed
 2284 00be F0BD     		pop	{r4, r5, r6, r7, pc}
 2285              	.L178:
 2286              		.align	2
 2287              	.L177:
 2288 00c0 00000000 		.word	.LANCHOR14
 2289 00c4 00000000 		.word	.LANCHOR15
 2290 00c8 00000000 		.word	.LANCHOR3
 2291 00cc 00000000 		.word	.LANCHOR16
 2292 00d0 00000000 		.word	.LANCHOR0
 2293 00d4 00000000 		.word	.LANCHOR17
 2294 00d8 00000000 		.word	.LANCHOR11
 2295 00dc 00000000 		.word	.LANCHOR2
 2296 00e0 00000140 		.word	1073807360
 2297 00e4 00000000 		.word	.LANCHOR12
 2298 00e8 00000000 		.word	.LANCHOR18
 2299 00ec 00000000 		.word	.LANCHOR19
 2300              		.cfi_endproc
 2301              	.LFE316:
 2302              		.size	commutate, .-commutate
 2303              		.section	.text.timer_thread,"ax",%progbits
 2304              		.align	2
 2305              		.p2align 4,,15
 2306              		.thumb
 2307              		.thumb_func
 2308              		.type	timer_thread, %function
 2309              	timer_thread:
 2310              	.LFB296:
 2311              		.loc 1 1317 0
 2312              		.cfi_startproc
 2313              		@ args = 0, pretend = 0, frame = 0
 2314              		@ frame_needed = 0, uses_anonymous_args = 0
 2315              	.LVL213:
 2316 0000 2DE9F843 		push	{r3, r4, r5, r6, r7, r8, r9, lr}
 2317              		.cfi_def_cfa_offset 32
 2318              		.cfi_offset 3, -32
 2319              		.cfi_offset 4, -28
 2320              		.cfi_offset 5, -24
 2321              		.cfi_offset 6, -20
 2322              		.cfi_offset 7, -16
 2323              		.cfi_offset 8, -12
 2324              		.cfi_offset 9, -8
 2325              		.cfi_offset 14, -4
 2326              	.LBB79:
 2327              	.LBB80:
 2328              		.file 2 "ChibiOS_3.0.2/os/rt/include/chregistry.h"
 2329              		.loc 2 135 0
 2330 0004 7B4B     		ldr	r3, .L230
 2331              	.LBE80:
 2332              	.LBE79:
 2333              	.LBB84:
 2334              		.loc 1 1327 0
 2335 0006 7C4D     		ldr	r5, .L230+4
 2336              	.LBE84:
 2337              	.LBB94:
ARM GAS  /var/folders/sv/kgmgr77579zbf78p2zlhkdfr0000gn/T//ccItzhl5.s 			page 42


 2338              	.LBB81:
 2339              		.loc 2 135 0
 2340 0008 9A69     		ldr	r2, [r3, #24]
 2341              	.LBE81:
 2342              	.LBE94:
 2343              	.LBB95:
 2344              		.loc 1 1327 0
 2345 000a 2B78     		ldrb	r3, [r5]	@ zero_extendqisi2
 2346              	.LBE95:
 2347              	.LBB96:
 2348              	.LBB82:
 2349              		.loc 2 135 0
 2350 000c 7B49     		ldr	r1, .L230+8
 2351              	.LBE82:
 2352              	.LBE96:
 2353              		.loc 1 1317 0
 2354 000e 2DED028B 		vpush.64	{d8}
 2355              		.cfi_def_cfa_offset 40
 2356              		.cfi_offset 80, -40
 2357              		.cfi_offset 81, -36
 2358              	.LBB97:
 2359              	.LBB83:
 2360              		.loc 2 135 0
 2361 0012 9161     		str	r1, [r2, #24]
 2362              	.LBE83:
 2363              	.LBE97:
 2364              	.LBB98:
 2365              		.loc 1 1327 0
 2366 0014 002B     		cmp	r3, #0
 2367 0016 54D1     		bne	.L207
 2368              		.loc 1 1404 0
 2369 0018 794E     		ldr	r6, .L230+12
 2370 001a 7A4C     		ldr	r4, .L230+16
 2371 001c 7A4F     		ldr	r7, .L230+20
 2372              		.loc 1 1369 0
 2373 001e DFED7B8A 		vldr.32	s17, .L230+24
 2374              		.loc 1 1417 0
 2375 0022 9FED7B8A 		vldr.32	s16, .L230+28
 2376              		.loc 1 1384 0
 2377 0026 B046     		mov	r8, r6
 2378 0028 06E0     		b	.L180
 2379              	.LVL214:
 2380              	.L226:
 2381              		.loc 1 1409 0
 2382 002a 1360     		str	r3, [r2]
 2383              	.L203:
 2384              		.loc 1 1423 0
 2385 002c 0A20     		movs	r0, #10
 2386 002e FFF7FEFF 		bl	chThdSleep
 2387              	.LVL215:
 2388              		.loc 1 1327 0
 2389 0032 2B78     		ldrb	r3, [r5]	@ zero_extendqisi2
 2390 0034 002B     		cmp	r3, #0
 2391 0036 44D1     		bne	.L207
 2392              	.L180:
 2393              		.loc 1 1332 0
 2394 0038 2378     		ldrb	r3, [r4]	@ zero_extendqisi2
ARM GAS  /var/folders/sv/kgmgr77579zbf78p2zlhkdfr0000gn/T//ccItzhl5.s 			page 43


 2395 003a 03F0FF09 		and	r9, r3, #255
 2396 003e 002B     		cmp	r3, #0
 2397 0040 45D0     		beq	.L225
 2398              		.loc 1 1404 0
 2399 0042 0023     		movs	r3, #0
 2400 0044 3360     		str	r3, [r6]
 2401              	.L201:
 2402              		.loc 1 1409 0
 2403 0046 3B68     		ldr	r3, [r7]
 2404 0048 6F4A     		ldr	r2, .L230+20
 2405 004a 0133     		adds	r3, r3, #1
 2406              		.loc 1 1410 0
 2407 004c 092B     		cmp	r3, #9
 2408 004e ECDD     		ble	.L226
 2409              		.loc 1 1412 0
 2410 0050 2378     		ldrb	r3, [r4]	@ zero_extendqisi2
 2411 0052 6C48     		ldr	r0, .L230+16
 2412              		.loc 1 1411 0
 2413 0054 0021     		movs	r1, #0
 2414              		.loc 1 1412 0
 2415 0056 022B     		cmp	r3, #2
 2416              		.loc 1 1411 0
 2417 0058 1160     		str	r1, [r2]
 2418              		.loc 1 1412 0
 2419 005a 00F0B580 		beq	.L227
 2420              		.loc 1 1415 0
 2421 005e 0378     		ldrb	r3, [r0]	@ zero_extendqisi2
 2422 0060 002B     		cmp	r3, #0
 2423 0062 E3D1     		bne	.L203
 2424              		.loc 1 1416 0
 2425 0064 6B4B     		ldr	r3, .L230+32
 2426 0066 6C4A     		ldr	r2, .L230+36
 2427 0068 1B68     		ldr	r3, [r3]
 2428 006a 93ED157A 		vldr.32	s14, [r3, #84]
 2429 006e D2ED007A 		vldr.32	s15, [r2]
 2430 0072 B4EEE77A 		vcmpe.f32	s14, s15
 2431 0076 F1EE10FA 		vmrs	APSR_nzcv, FPSCR
 2432 007a D7D8     		bhi	.L203
 2433              	.LBB85:
 2434              	.LBB86:
 2435              		.loc 1 749 0
 2436 007c 6749     		ldr	r1, .L230+40
 2437 007e 684B     		ldr	r3, .L230+44
 2438 0080 91ED000A 		vldr.32	s0, [r1]
 2439 0084 1B8A     		ldrh	r3, [r3, #16]
 2440              	.L224:
 2441              	.LBE86:
 2442              	.LBE85:
 2443              		.loc 1 1417 0
 2444 0086 DFED677A 		vldr.32	s15, .L230+48
 2445              	.LBB89:
 2446              	.LBB87:
 2447              		.loc 1 749 0
 2448 008a D2ED006A 		vldr.32	s13, [r2]
 2449              	.LBE87:
 2450              	.LBE89:
 2451              		.loc 1 1417 0
ARM GAS  /var/folders/sv/kgmgr77579zbf78p2zlhkdfr0000gn/T//ccItzhl5.s 			page 44


 2452 008e 6648     		ldr	r0, .L230+52
 2453 0090 664A     		ldr	r2, .L230+56
 2454              	.LBB90:
 2455              	.LBB88:
 2456              		.loc 1 749 0
 2457 0092 9BB2     		uxth	r3, r3
 2458              	.LBE88:
 2459              	.LBE90:
 2460              		.loc 1 1417 0
 2461 0094 07EE103A 		vmov	s14, r3	@ int
 2462 0098 B8EE477A 		vcvt.f32.u32	s14, s14
 2463 009c F0EEE66A 		vabs.f32	s13, s13
 2464 00a0 27EE087A 		vmul.f32	s14, s14, s16
 2465 00a4 0721     		movs	r1, #7
 2466 00a6 67EE277A 		vmul.f32	s15, s14, s15
 2467 00aa 67EEA67A 		vmul.f32	s15, s15, s13
 2468 00ae 80EE270A 		vdiv.f32	s0, s0, s15
 2469 00b2 FFF7FEFF 		bl	filter_add_sample
 2470              	.LVL216:
 2471              		.loc 1 1423 0
 2472 00b6 0A20     		movs	r0, #10
 2473 00b8 FFF7FEFF 		bl	chThdSleep
 2474              	.LVL217:
 2475              		.loc 1 1327 0
 2476 00bc 2B78     		ldrb	r3, [r5]	@ zero_extendqisi2
 2477 00be 002B     		cmp	r3, #0
 2478 00c0 BAD0     		beq	.L180
 2479              	.L207:
 2480              	.LBE98:
 2481              		.loc 1 1425 0
 2482 00c2 BDEC028B 		vldm	sp!, {d8}
 2483              		.cfi_remember_state
 2484              		.cfi_restore 80
 2485              		.cfi_restore 81
 2486              		.cfi_def_cfa_offset 32
 2487              	.LBB99:
 2488              		.loc 1 1328 0
 2489 00c6 0023     		movs	r3, #0
 2490 00c8 2B70     		strb	r3, [r5]
 2491              	.LBE99:
 2492              		.loc 1 1425 0
 2493 00ca BDE8F883 		pop	{r3, r4, r5, r6, r7, r8, r9, pc}
 2494              	.L225:
 2495              		.cfi_restore_state
 2496              	.LBB100:
 2497              		.loc 1 1335 0
 2498 00ce 584B     		ldr	r3, .L230+60
 2499 00d0 5849     		ldr	r1, .L230+64
 2500 00d2 1B68     		ldr	r3, [r3]
 2501 00d4 5848     		ldr	r0, .L230+68
 2502 00d6 0722     		movs	r2, #7
 2503 00d8 FFF7FEFF 		bl	filter_run_fir_iteration
 2504              	.LVL218:
 2505              		.loc 1 1339 0
 2506 00dc 4D4B     		ldr	r3, .L230+32
 2507 00de D3F800E0 		ldr	lr, [r3]
 2508 00e2 9EF80230 		ldrb	r3, [lr, #2]	@ zero_extendqisi2
ARM GAS  /var/folders/sv/kgmgr77579zbf78p2zlhkdfr0000gn/T//ccItzhl5.s 			page 45


 2509 00e6 DBB2     		uxtb	r3, r3
 2510 00e8 012B     		cmp	r3, #1
 2511 00ea 61D0     		beq	.L228
 2512              		.loc 1 1347 0
 2513 00ec 534B     		ldr	r3, .L230+72
 2514 00ee 1B78     		ldrb	r3, [r3]	@ zero_extendqisi2
 2515 00f0 03F0FF01 		and	r1, r3, #255
 2516 00f4 002B     		cmp	r3, #0
 2517 00f6 52D0     		beq	.L186
 2518 00f8 DFED517A 		vldr.32	s15, .L230+76
 2519 00fc 9FED517A 		vldr.32	s14, .L230+80
 2520 0100 5148     		ldr	r0, .L230+84
 2521 0102 4B46     		mov	r3, r9
 2522              	.L191:
 2523              	.LVL219:
 2524              	.LBB91:
 2525              		.loc 1 1352 0
 2526 0104 9A00     		lsls	r2, r3, #2
 2527 0106 8118     		adds	r1, r0, r2
 2528 0108 D1ED006A 		vldr.32	s13, [r1]
 2529 010c F4EEC76A 		vcmpe.f32	s13, s14
 2530 0110 F1EE10FA 		vmrs	APSR_nzcv, FPSCR
 2531              		.loc 1 1353 0
 2532 0114 48BF     		it	mi
 2533 0116 91ED007A 		vldrmi.32	s14, [r1]
 2534              	.LVL220:
 2535              		.loc 1 1356 0
 2536 011a D1ED006A 		vldr.32	s13, [r1]
 2537 011e F4EEE76A 		vcmpe.f32	s13, s15
 2538 0122 F1EE10FA 		vmrs	APSR_nzcv, FPSCR
 2539              		.loc 1 1351 0
 2540 0126 03F10103 		add	r3, r3, #1
 2541              	.LVL221:
 2542              		.loc 1 1357 0
 2543 012a C8BF     		it	gt
 2544 012c D1ED007A 		vldrgt.32	s15, [r1]
 2545              	.LVL222:
 2546              		.loc 1 1351 0
 2547 0130 062B     		cmp	r3, #6
 2548 0132 E7D1     		bne	.L191
 2549              	.LBE91:
 2550              		.loc 1 1369 0
 2551 0134 77EE276A 		vadd.f32	s13, s14, s15
 2552 0138 B6EE006A 		vmov.f32	s12, #5.0e-1
 2553 013c 77EEC77A 		vsub.f32	s15, s15, s14
 2554              	.LVL223:
 2555 0140 26EE867A 		vmul.f32	s14, s13, s12
 2556              	.LVL224:
 2557 0144 C7EE876A 		vdiv.f32	s13, s15, s14
 2558 0148 F4EEE86A 		vcmpe.f32	s13, s17
 2559 014c F1EE10FA 		vmrs	APSR_nzcv, FPSCR
 2560 0150 41DD     		ble	.L219
 2561              		.loc 1 1370 0
 2562 0152 3368     		ldr	r3, [r6]
 2563              	.LVL225:
 2564              		.loc 1 1371 0
 2565 0154 3D4A     		ldr	r2, .L230+88
ARM GAS  /var/folders/sv/kgmgr77579zbf78p2zlhkdfr0000gn/T//ccItzhl5.s 			page 46


 2566              		.loc 1 1370 0
 2567 0156 0C2B     		cmp	r3, #12
 2568 0158 06DD     		ble	.L185
 2569              		.loc 1 1371 0
 2570 015a 1368     		ldr	r3, [r2]
 2571 015c 012B     		cmp	r3, #1
 2572 015e 46D0     		beq	.L229
 2573              	.L197:
 2574              		.loc 1 1388 0
 2575 0160 0123     		movs	r3, #1
 2576 0162 1360     		str	r3, [r2]
 2577              	.L198:
 2578              		.loc 1 1390 0
 2579 0164 0023     		movs	r3, #0
 2580 0166 3360     		str	r3, [r6]
 2581              	.L185:
 2582              		.loc 1 1397 0
 2583 0168 1368     		ldr	r3, [r2]
 2584              		.loc 1 1398 0
 2585 016a 2B4A     		ldr	r2, .L230+36
 2586              		.loc 1 1402 0
 2587 016c 2A48     		ldr	r0, .L230+36
 2588              		.loc 1 1397 0
 2589 016e 012B     		cmp	r3, #1
 2590              		.loc 1 1398 0
 2591 0170 2B4B     		ldr	r3, .L230+44
 2592 0172 1B8A     		ldrh	r3, [r3, #16]
 2593 0174 9BB2     		uxth	r3, r3
 2594 0176 07EE903A 		vmov	s15, r3	@ int
 2595 017a F8EE677A 		vcvt.f32.u32	s15, s15
 2596              		.loc 1 1400 0
 2597 017e 18BF     		it	ne
 2598 0180 B1EE400A 		vnegne.f32	s0, s0
 2599              	.LVL226:
 2600 0184 80EE277A 		vdiv.f32	s14, s0, s15
 2601 0188 82ED007A 		vstr.32	s14, [r2]
 2602              		.loc 1 1402 0
 2603 018c 9EED160A 		vldr.32	s0, [lr, #88]
 2604 0190 DEED160A 		vldr.32	s1, [lr, #88]
 2605 0194 B1EE400A 		vneg.f32	s0, s0
 2606 0198 FFF7FEFF 		bl	utils_truncate_number
 2607              	.LVL227:
 2608 019c 53E7     		b	.L201
 2609              	.LVL228:
 2610              	.L186:
 2611              		.loc 1 1384 0
 2612 019e 3368     		ldr	r3, [r6]
 2613 01a0 0333     		adds	r3, r3, #3
 2614 01a2 1CDA     		bge	.L196
 2615              		.loc 1 1385 0
 2616 01a4 294A     		ldr	r2, .L230+88
 2617 01a6 1368     		ldr	r3, [r2]
 2618 01a8 012B     		cmp	r3, #1
 2619 01aa D9D1     		bne	.L197
 2620              		.loc 1 1386 0
 2621 01ac 1160     		str	r1, [r2]
 2622 01ae D9E7     		b	.L198
ARM GAS  /var/folders/sv/kgmgr77579zbf78p2zlhkdfr0000gn/T//ccItzhl5.s 			page 47


 2623              	.L228:
 2624              		.loc 1 1340 0
 2625 01b0 B5EEC00A 		vcmpe.f32	s0, #0
 2626              		.loc 1 1341 0
 2627 01b4 254A     		ldr	r2, .L230+88
 2628              		.loc 1 1340 0
 2629 01b6 F1EE10FA 		vmrs	APSR_nzcv, FPSCR
 2630              		.loc 1 1341 0
 2631 01ba CEBF     		itee	gt
 2632 01bc C2F80090 		strgt	r9, [r2]
 2633              		.loc 1 1344 0
 2634 01c0 B1EE400A 		vnegle.f32	s0, s0
 2635              	.LVL229:
 2636              		.loc 1 1343 0
 2637 01c4 1360     		strle	r3, [r2]
 2638 01c6 CFE7     		b	.L185
 2639              	.LVL230:
 2640              	.L227:
 2641              	.LBB92:
 2642              	.LBB93:
 2643              		.loc 1 749 0
 2644 01c8 144A     		ldr	r2, .L230+40
 2645 01ca 154B     		ldr	r3, .L230+44
 2646 01cc 92ED000A 		vldr.32	s0, [r2]
 2647 01d0 1B8A     		ldrh	r3, [r3, #16]
 2648 01d2 114A     		ldr	r2, .L230+36
 2649 01d4 57E7     		b	.L224
 2650              	.LVL231:
 2651              	.L219:
 2652              	.LBE93:
 2653              	.LBE92:
 2654              		.loc 1 1379 0
 2655 01d6 0023     		movs	r3, #0
 2656              	.LVL232:
 2657 01d8 3360     		str	r3, [r6]
 2658 01da 1C4A     		ldr	r2, .L230+88
 2659 01dc C4E7     		b	.L185
 2660              	.L196:
 2661              		.loc 1 1391 0
 2662 01de D8F80030 		ldr	r3, [r8]
 2663 01e2 1A4A     		ldr	r2, .L230+88
 2664 01e4 002B     		cmp	r3, #0
 2665              		.loc 1 1392 0
 2666 01e6 C8BF     		it	gt
 2667 01e8 C8F80010 		strgt	r1, [r8]
 2668 01ec BCE7     		b	.L185
 2669              	.L229:
 2670              		.loc 1 1372 0
 2671 01ee 0023     		movs	r3, #0
 2672 01f0 1360     		str	r3, [r2]
 2673 01f2 B7E7     		b	.L198
 2674              	.L231:
 2675              		.align	2
 2676              	.L230:
 2677 01f4 00000000 		.word	ch
 2678 01f8 00000000 		.word	.LANCHOR20
 2679 01fc 00000000 		.word	.LC1
ARM GAS  /var/folders/sv/kgmgr77579zbf78p2zlhkdfr0000gn/T//ccItzhl5.s 			page 48


 2680 0200 00000000 		.word	.LANCHOR7
 2681 0204 00000000 		.word	.LANCHOR2
 2682 0208 00000000 		.word	.LANCHOR25
 2683 020c 9A99993F 		.word	1067030938
 2684 0210 6740533A 		.word	978534503
 2685 0214 00000000 		.word	.LANCHOR0
 2686 0218 00000000 		.word	.LANCHOR24
 2687 021c 00000000 		.word	.LANCHOR10
 2688 0220 00000000 		.word	ADC_Value
 2689 0224 74D19541 		.word	1100337524
 2690 0228 00000000 		.word	.LANCHOR27
 2691 022c 00000000 		.word	.LANCHOR26
 2692 0230 00000000 		.word	.LANCHOR21
 2693 0234 00000000 		.word	.LANCHOR22
 2694 0238 00000000 		.word	.LANCHOR23
 2695 023c 00000000 		.word	.LANCHOR11
 2696 0240 00000000 		.word	0
 2697 0244 E7841155 		.word	1427211495
 2698 0248 00000000 		.word	.LANCHOR16
 2699 024c 00000000 		.word	.LANCHOR4
 2700              	.LBE100:
 2701              		.cfi_endproc
 2702              	.LFE296:
 2703              		.size	timer_thread, .-timer_thread
 2704              		.section	.text.mcpwm_deinit,"ax",%progbits
 2705              		.align	2
 2706              		.p2align 4,,15
 2707              		.global	mcpwm_deinit
 2708              		.thumb
 2709              		.thumb_func
 2710              		.type	mcpwm_deinit, %function
 2711              	mcpwm_deinit:
 2712              	.LFB258:
 2713              		.loc 1 476 0
 2714              		.cfi_startproc
 2715              		@ args = 0, pretend = 0, frame = 0
 2716              		@ frame_needed = 0, uses_anonymous_args = 0
 2717 0000 38B5     		push	{r3, r4, r5, lr}
 2718              		.cfi_def_cfa_offset 16
 2719              		.cfi_offset 3, -16
 2720              		.cfi_offset 4, -12
 2721              		.cfi_offset 5, -8
 2722              		.cfi_offset 14, -4
 2723              		.loc 1 477 0
 2724 0002 174B     		ldr	r3, .L236
 2725              		.loc 1 481 0
 2726 0004 174C     		ldr	r4, .L236+4
 2727              		.loc 1 482 0
 2728 0006 184D     		ldr	r5, .L236+8
 2729              		.loc 1 477 0
 2730 0008 0022     		movs	r2, #0
 2731 000a 1A70     		strb	r2, [r3]
 2732              		.loc 1 479 0
 2733 000c FFF7FEFF 		bl	WWDG_DeInit
 2734              	.LVL233:
 2735              		.loc 1 481 0
 2736 0010 0123     		movs	r3, #1
ARM GAS  /var/folders/sv/kgmgr77579zbf78p2zlhkdfr0000gn/T//ccItzhl5.s 			page 49


 2737 0012 2370     		strb	r3, [r4]
 2738              		.loc 1 482 0
 2739 0014 2B70     		strb	r3, [r5]
 2740              		.loc 1 484 0
 2741 0016 01E0     		b	.L233
 2742              	.L234:
 2743              		.loc 1 485 0
 2744 0018 FFF7FEFF 		bl	chThdSleep
 2745              	.LVL234:
 2746              	.L233:
 2747              		.loc 1 484 0
 2748 001c 2378     		ldrb	r3, [r4]	@ zero_extendqisi2
 2749              		.loc 1 485 0
 2750 001e 0A20     		movs	r0, #10
 2751              		.loc 1 484 0
 2752 0020 002B     		cmp	r3, #0
 2753 0022 F9D1     		bne	.L234
 2754              		.loc 1 484 0 is_stmt 0 discriminator 1
 2755 0024 2B78     		ldrb	r3, [r5]	@ zero_extendqisi2
 2756 0026 002B     		cmp	r3, #0
 2757 0028 F6D1     		bne	.L234
 2758              		.loc 1 488 0 is_stmt 1
 2759 002a 1048     		ldr	r0, .L236+12
 2760 002c FFF7FEFF 		bl	TIM_DeInit
 2761              	.LVL235:
 2762              		.loc 1 489 0
 2763 0030 4FF08040 		mov	r0, #1073741824
 2764 0034 FFF7FEFF 		bl	TIM_DeInit
 2765              	.LVL236:
 2766              		.loc 1 490 0
 2767 0038 0D48     		ldr	r0, .L236+16
 2768 003a FFF7FEFF 		bl	TIM_DeInit
 2769              	.LVL237:
 2770              		.loc 1 491 0
 2771 003e 0D48     		ldr	r0, .L236+20
 2772 0040 FFF7FEFF 		bl	TIM_DeInit
 2773              	.LVL238:
 2774              		.loc 1 492 0
 2775 0044 FFF7FEFF 		bl	ADC_DeInit
 2776              	.LVL239:
 2777              		.loc 1 493 0
 2778 0048 0B48     		ldr	r0, .L236+24
 2779 004a FFF7FEFF 		bl	DMA_DeInit
 2780              	.LVL240:
 2781              		.loc 1 494 0
 2782 004e 1220     		movs	r0, #18
 2783 0050 FFF7FEFF 		bl	nvicDisableVector
 2784              	.LVL241:
 2785              		.loc 1 495 0
 2786 0054 0948     		ldr	r0, .L236+28
 2787              		.loc 1 496 0
 2788 0056 BDE83840 		pop	{r3, r4, r5, lr}
 2789              		.cfi_restore 14
 2790              		.cfi_restore 5
 2791              		.cfi_restore 4
 2792              		.cfi_restore 3
 2793              		.cfi_def_cfa_offset 0
ARM GAS  /var/folders/sv/kgmgr77579zbf78p2zlhkdfr0000gn/T//ccItzhl5.s 			page 50


 2794              		.loc 1 495 0
 2795 005a FFF7FEBF 		b	dmaStreamRelease
 2796              	.LVL242:
 2797              	.L237:
 2798 005e 00BF     		.align	2
 2799              	.L236:
 2800 0060 00000000 		.word	.LANCHOR28
 2801 0064 00000000 		.word	.LANCHOR20
 2802 0068 00000000 		.word	.LANCHOR29
 2803 006c 00000140 		.word	1073807360
 2804 0070 00040140 		.word	1073808384
 2805 0074 00180040 		.word	1073747968
 2806 0078 70640240 		.word	1073898608
 2807 007c 90000000 		.word	_stm32_dma_streams+144
 2808              		.cfi_endproc
 2809              	.LFE258:
 2810              		.size	mcpwm_deinit, .-mcpwm_deinit
 2811              		.section	.text.mcpwm_init_done,"ax",%progbits
 2812              		.align	2
 2813              		.p2align 4,,15
 2814              		.global	mcpwm_init_done
 2815              		.thumb
 2816              		.thumb_func
 2817              		.type	mcpwm_init_done, %function
 2818              	mcpwm_init_done:
 2819              	.LFB259:
 2820              		.loc 1 498 0
 2821              		.cfi_startproc
 2822              		@ args = 0, pretend = 0, frame = 0
 2823              		@ frame_needed = 0, uses_anonymous_args = 0
 2824              		@ link register save eliminated.
 2825              		.loc 1 499 0
 2826 0000 014B     		ldr	r3, .L239
 2827 0002 1878     		ldrb	r0, [r3]	@ zero_extendqisi2
 2828              		.loc 1 500 0
 2829 0004 7047     		bx	lr
 2830              	.L240:
 2831 0006 00BF     		.align	2
 2832              	.L239:
 2833 0008 00000000 		.word	.LANCHOR28
 2834              		.cfi_endproc
 2835              	.LFE259:
 2836              		.size	mcpwm_init_done, .-mcpwm_init_done
 2837              		.section	.text.mcpwm_init_hall_table,"ax",%progbits
 2838              		.align	2
 2839              		.p2align 4,,15
 2840              		.global	mcpwm_init_hall_table
 2841              		.thumb
 2842              		.thumb_func
 2843              		.type	mcpwm_init_hall_table, %function
 2844              	mcpwm_init_hall_table:
 2845              	.LFB261:
 2846              		.loc 1 521 0
 2847              		.cfi_startproc
 2848              		@ args = 0, pretend = 0, frame = 32
 2849              		@ frame_needed = 0, uses_anonymous_args = 0
 2850              		@ link register save eliminated.
ARM GAS  /var/folders/sv/kgmgr77579zbf78p2zlhkdfr0000gn/T//ccItzhl5.s 			page 51


 2851              	.LVL243:
 2852 0000 F0B4     		push	{r4, r5, r6, r7}
 2853              		.cfi_def_cfa_offset 16
 2854              		.cfi_offset 4, -16
 2855              		.cfi_offset 5, -12
 2856              		.cfi_offset 6, -8
 2857              		.cfi_offset 7, -4
 2858              		.loc 1 522 0
 2859 0002 104F     		ldr	r7, .L248
 2860 0004 104C     		ldr	r4, .L248+4
 2861              		.loc 1 521 0
 2862 0006 0546     		mov	r5, r0
 2863              		.loc 1 522 0
 2864 0008 0FCF     		ldmia	r7!, {r0, r1, r2, r3}
 2865              	.LVL244:
 2866              		.loc 1 521 0
 2867 000a 88B0     		sub	sp, sp, #32
 2868              		.cfi_def_cfa_offset 48
 2869              		.loc 1 522 0
 2870 000c 01AE     		add	r6, sp, #4
 2871 000e 0FC6     		stmia	r6!, {r0, r1, r2, r3}
 2872 0010 97E80700 		ldmia	r7, {r0, r1, r2}
 2873 0014 86E80700 		stmia	r6, {r0, r1, r2}
 2874              	.LVL245:
 2875 0018 681E     		subs	r0, r5, #1
 2876 001a 04F12001 		add	r1, r4, #32
 2877              	.LVL246:
 2878              	.L244:
 2879              	.LBB101:
 2880              	.LBB102:
 2881              		.loc 1 525 0
 2882 001e 10F9013F 		ldrsb	r3, [r0, #1]!
 2883              	.LVL247:
 2884 0022 44F8043F 		str	r3, [r4, #4]!
 2885              	.LVL248:
 2886              		.loc 1 533 0
 2887 0026 08AA     		add	r2, sp, #32
 2888 0028 02EB8302 		add	r2, r2, r3, lsl #2
 2889              		.loc 1 528 0
 2890 002c 002B     		cmp	r3, #0
 2891              		.loc 1 533 0
 2892 002e C8BF     		it	gt
 2893 0030 52F81C3C 		ldrgt	r3, [r2, #-28]
 2894              	.LVL249:
 2895 0034 44F8203C 		str	r3, [r4, #-32]
 2896              	.LVL250:
 2897              	.LBE102:
 2898              		.loc 1 524 0
 2899 0038 8C42     		cmp	r4, r1
 2900 003a F0D1     		bne	.L244
 2901              	.LBE101:
 2902              		.loc 1 535 0
 2903 003c 08B0     		add	sp, sp, #32
 2904              		.cfi_def_cfa_offset 16
 2905              		@ sp needed
 2906 003e F0BC     		pop	{r4, r5, r6, r7}
 2907              		.cfi_restore 7
ARM GAS  /var/folders/sv/kgmgr77579zbf78p2zlhkdfr0000gn/T//ccItzhl5.s 			page 52


 2908              		.cfi_restore 6
 2909              		.cfi_restore 5
 2910              		.cfi_restore 4
 2911              		.cfi_def_cfa_offset 0
 2912              	.LVL251:
 2913 0040 7047     		bx	lr
 2914              	.L249:
 2915 0042 00BF     		.align	2
 2916              	.L248:
 2917 0044 00000000 		.word	.LANCHOR30
 2918 0048 1C000000 		.word	.LANCHOR31+28
 2919              		.cfi_endproc
 2920              	.LFE261:
 2921              		.size	mcpwm_init_hall_table, .-mcpwm_init_hall_table
 2922              		.section	.text.mcpwm_init,"ax",%progbits
 2923              		.align	2
 2924              		.p2align 4,,15
 2925              		.global	mcpwm_init
 2926              		.thumb
 2927              		.thumb_func
 2928              		.type	mcpwm_init, %function
 2929              	mcpwm_init:
 2930              	.LFB257:
 2931              		.loc 1 163 0
 2932              		.cfi_startproc
 2933              		@ args = 0, pretend = 0, frame = 176
 2934              		@ frame_needed = 0, uses_anonymous_args = 0
 2935              	.LVL252:
 2936 0000 2DE9F04F 		push	{r4, r5, r6, r7, r8, r9, r10, fp, lr}
 2937              		.cfi_def_cfa_offset 36
 2938              		.cfi_offset 4, -36
 2939              		.cfi_offset 5, -32
 2940              		.cfi_offset 6, -28
 2941              		.cfi_offset 7, -24
 2942              		.cfi_offset 8, -20
 2943              		.cfi_offset 9, -16
 2944              		.cfi_offset 10, -12
 2945              		.cfi_offset 11, -8
 2946              		.cfi_offset 14, -4
 2947              		.loc 1 172 0
 2948 0004 CD4C     		ldr	r4, .L258
 2949              		.loc 1 175 0
 2950 0006 DFF8CCB3 		ldr	fp, .L258+152
 2951              		.loc 1 177 0
 2952 000a DFF8CC93 		ldr	r9, .L258+156
 2953              		.loc 1 178 0
 2954 000e DFF8CC83 		ldr	r8, .L258+160
 2955              		.loc 1 219 0
 2956 0012 CB4E     		ldr	r6, .L258+4
 2957              		.loc 1 220 0
 2958 0014 CB4F     		ldr	r7, .L258+8
 2959              		.loc 1 163 0
 2960 0016 AFB0     		sub	sp, sp, #188
 2961              		.cfi_def_cfa_offset 224
 2962              		.loc 1 163 0
 2963 0018 8246     		mov	r10, r0
 2964              		.loc 1 164 0
ARM GAS  /var/folders/sv/kgmgr77579zbf78p2zlhkdfr0000gn/T//ccItzhl5.s 			page 53


 2965 001a FFF7FEFF 		bl	utils_sys_lock_cnt
 2966              	.LVL253:
 2967              		.loc 1 166 0
 2968 001e CA4B     		ldr	r3, .L258+12
 2969              		.loc 1 172 0
 2970 0020 C4F800A0 		str	r10, [r4]
 2971              		.loc 1 166 0
 2972 0024 0024     		movs	r4, #0
 2973 0026 1C70     		strb	r4, [r3]
 2974              		.loc 1 176 0
 2975 0028 C84B     		ldr	r3, .L258+16
 2976              		.loc 1 178 0
 2977 002a DFEDC97A 		vldr.32	s15, .L258+20
 2978              		.loc 1 179 0
 2979 002e DFF8B0C3 		ldr	ip, .L258+164
 2980              		.loc 1 180 0
 2981 0032 DFF8B0E3 		ldr	lr, .L258+168
 2982              		.loc 1 181 0
 2983 0036 C748     		ldr	r0, .L258+24
 2984              		.loc 1 182 0
 2985 0038 C749     		ldr	r1, .L258+28
 2986              		.loc 1 183 0
 2987 003a C84A     		ldr	r2, .L258+32
 2988              		.loc 1 175 0
 2989 003c 0125     		movs	r5, #1
 2990 003e CBF80050 		str	r5, [fp]
 2991              		.loc 1 176 0
 2992 0042 1C60     		str	r4, [r3]
 2993              		.loc 1 184 0
 2994 0044 C64B     		ldr	r3, .L258+36
 2995              		.loc 1 177 0
 2996 0046 C9F80050 		str	r5, [r9]
 2997              		.loc 1 178 0
 2998 004a C8ED007A 		vstr.32	s15, [r8]
 2999              		.loc 1 179 0
 3000 004e CCED007A 		vstr.32	s15, [ip]
 3001              		.loc 1 180 0
 3002 0052 CEED007A 		vstr.32	s15, [lr]
 3003              		.loc 1 181 0
 3004 0056 C0ED007A 		vstr.32	s15, [r0]
 3005              		.loc 1 182 0
 3006 005a C1ED007A 		vstr.32	s15, [r1]
 3007              		.loc 1 183 0
 3008 005e C2ED007A 		vstr.32	s15, [r2]
 3009              		.loc 1 184 0
 3010 0062 1C60     		str	r4, [r3]
 3011              		.loc 1 185 0
 3012 0064 BF4B     		ldr	r3, .L258+40
 3013              		.loc 1 190 0
 3014 0066 DFF88093 		ldr	r9, .L258+172
 3015              		.loc 1 185 0
 3016 006a 1C60     		str	r4, [r3]
 3017              		.loc 1 186 0
 3018 006c BE4B     		ldr	r3, .L258+44
 3019              		.loc 1 191 0
 3020 006e BF4A     		ldr	r2, .L258+48
 3021              		.loc 1 186 0
ARM GAS  /var/folders/sv/kgmgr77579zbf78p2zlhkdfr0000gn/T//ccItzhl5.s 			page 54


 3022 0070 1C60     		str	r4, [r3]
 3023              		.loc 1 187 0
 3024 0072 BF4B     		ldr	r3, .L258+52
 3025              		.loc 1 192 0
 3026 0074 DFF874E3 		ldr	lr, .L258+176
 3027              		.loc 1 187 0
 3028 0078 1C70     		strb	r4, [r3]
 3029              		.loc 1 188 0
 3030 007a BE4B     		ldr	r3, .L258+56
 3031              		.loc 1 193 0
 3032 007c BE49     		ldr	r1, .L258+60
 3033              		.loc 1 195 0
 3034 007e BF48     		ldr	r0, .L258+64
 3035              		.loc 1 197 0
 3036 0080 DFF86CB3 		ldr	fp, .L258+180
 3037              		.loc 1 188 0
 3038 0084 4FF00708 		mov	r8, #7
 3039 0088 83F80080 		strb	r8, [r3]
 3040              		.loc 1 189 0
 3041 008c BC4B     		ldr	r3, .L258+68
 3042 008e C3ED007A 		vstr.32	s15, [r3]
 3043              		.loc 1 190 0
 3044 0092 C9ED007A 		vstr.32	s15, [r9]
 3045              		.loc 1 191 0
 3046 0096 DAF868C1 		ldr	ip, [r10, #360]	@ float
 3047 009a C2F800C0 		str	ip, [r2]	@ float
 3048              		.loc 1 196 0
 3049 009e B94B     		ldr	r3, .L258+72
 3050              		.loc 1 194 0
 3051 00a0 B94A     		ldr	r2, .L258+76
 3052              		.loc 1 192 0
 3053 00a2 CEF80040 		str	r4, [lr]
 3054              		.loc 1 193 0
 3055 00a6 0C60     		str	r4, [r1]
 3056              		.loc 1 194 0
 3057 00a8 1460     		str	r4, [r2]
 3058              		.loc 1 195 0
 3059 00aa 0460     		str	r4, [r0]
 3060              		.loc 1 196 0
 3061 00ac 1C60     		str	r4, [r3]
 3062 00ae 5C60     		str	r4, [r3, #4]
 3063 00b0 9C60     		str	r4, [r3, #8]
 3064 00b2 DC60     		str	r4, [r3, #12]
 3065 00b4 1C61     		str	r4, [r3, #16]
 3066 00b6 5C61     		str	r4, [r3, #20]
 3067 00b8 9C61     		str	r4, [r3, #24]
 3068              		.loc 1 198 0
 3069 00ba B44B     		ldr	r3, .L258+80
 3070              		.loc 1 197 0
 3071 00bc CBED007A 		vstr.32	s15, [fp]
 3072              		.loc 1 199 0
 3073 00c0 DFF83093 		ldr	r9, .L258+184
 3074              		.loc 1 198 0
 3075 00c4 C3ED007A 		vstr.32	s15, [r3]
 3076              		.loc 1 200 0
 3077 00c8 B14B     		ldr	r3, .L258+84
 3078              		.loc 1 202 0
ARM GAS  /var/folders/sv/kgmgr77579zbf78p2zlhkdfr0000gn/T//ccItzhl5.s 			page 55


 3079 00ca DFF82CE3 		ldr	lr, .L258+188
 3080              		.loc 1 201 0
 3081 00ce DFF82CC3 		ldr	ip, .L258+192
 3082              		.loc 1 199 0
 3083 00d2 C9ED007A 		vstr.32	s15, [r9]
 3084              		.loc 1 200 0
 3085 00d6 1C60     		str	r4, [r3]
 3086              		.loc 1 203 0
 3087 00d8 AE4B     		ldr	r3, .L258+88
 3088              		.loc 1 201 0
 3089 00da CCED007A 		vstr.32	s15, [ip]
 3090              		.loc 1 204 0
 3091 00de 2146     		mov	r1, r4
 3092              		.loc 1 202 0
 3093 00e0 CEF80040 		str	r4, [lr]
 3094              		.loc 1 204 0
 3095 00e4 E022     		movs	r2, #224
 3096              		.loc 1 202 0
 3097 00e6 CEF80440 		str	r4, [lr, #4]
 3098              		.loc 1 204 0
 3099 00ea AB48     		ldr	r0, .L258+92
 3100              		.loc 1 202 0
 3101 00ec CEF80840 		str	r4, [lr, #8]
 3102 00f0 CEF80C40 		str	r4, [lr, #12]
 3103 00f4 CEF81040 		str	r4, [lr, #16]
 3104 00f8 CEF81440 		str	r4, [lr, #20]
 3105              		.loc 1 203 0
 3106 00fc 1C70     		strb	r4, [r3]
 3107              		.loc 1 204 0
 3108 00fe FFF7FEFF 		bl	memset
 3109              	.LVL254:
 3110              		.loc 1 205 0
 3111 0102 FFF7FEFF 		bl	update_sensor_mode
 3112              	.LVL255:
 3113              		.loc 1 206 0
 3114 0106 9AF80130 		ldrb	r3, [r10, #1]	@ zero_extendqisi2
 3115 010a A44A     		ldr	r2, .L258+96
 3116 010c DBB2     		uxtb	r3, r3
 3117              		.loc 1 208 0
 3118 010e 0AF19800 		add	r0, r10, #152
 3119              		.loc 1 206 0
 3120 0112 1370     		strb	r3, [r2]
 3121              		.loc 1 208 0
 3122 0114 FFF7FEFF 		bl	mcpwm_init_hall_table
 3123              	.LVL256:
 3124              		.loc 1 211 0
 3125 0118 2A46     		mov	r2, r5
 3126 011a 4146     		mov	r1, r8
 3127 011c 9FEDA00A 		vldr.32	s0, .L258+100
 3128 0120 A048     		ldr	r0, .L258+104
 3129 0122 FFF7FEFF 		bl	filter_create_fir_lowpass
 3130              	.LVL257:
 3131              		.loc 1 214 0
 3132 0126 2A46     		mov	r2, r5
 3133 0128 4146     		mov	r1, r8
 3134 012a 9FED9D0A 		vldr.32	s0, .L258+100
 3135 012e 9E48     		ldr	r0, .L258+108
ARM GAS  /var/folders/sv/kgmgr77579zbf78p2zlhkdfr0000gn/T//ccItzhl5.s 			page 56


 3136 0130 FFF7FEFF 		bl	filter_create_fir_lowpass
 3137              	.LVL258:
 3138              		.loc 1 217 0
 3139 0134 9FED9D0A 		vldr.32	s0, .L258+112
 3140 0138 9D48     		ldr	r0, .L258+116
 3141 013a 2A46     		mov	r2, r5
 3142 013c 0421     		movs	r1, #4
 3143 013e FFF7FEFF 		bl	filter_create_fir_lowpass
 3144              	.LVL259:
 3145              		.loc 1 219 0
 3146 0142 3046     		mov	r0, r6
 3147 0144 FFF7FEFF 		bl	TIM_DeInit
 3148              	.LVL260:
 3149              		.loc 1 220 0
 3150 0148 3846     		mov	r0, r7
 3151 014a FFF7FEFF 		bl	TIM_DeInit
 3152              	.LVL261:
 3153              		.loc 1 221 0
 3154 014e 7462     		str	r4, [r6, #36]
 3155              		.loc 1 225 0
 3156 0150 2946     		mov	r1, r5
 3157 0152 2846     		mov	r0, r5
 3158              		.loc 1 222 0
 3159 0154 7C62     		str	r4, [r7, #36]
 3160              		.loc 1 225 0
 3161 0156 FFF7FEFF 		bl	RCC_APB2PeriphClockCmd
 3162              	.LVL262:
 3163              		.loc 1 230 0
 3164 015a 844B     		ldr	r3, .L258+48
 3165 015c 954A     		ldr	r2, .L258+120
 3166 015e D3ED007A 		vldr.32	s15, [r3]
 3167              		.loc 1 228 0
 3168 0162 ADF80C40 		strh	r4, [sp, #12]	@ movhi
 3169              		.loc 1 230 0
 3170 0166 FDEEE77A 		vcvt.s32.f32	s15, s15
 3171              		.loc 1 234 0
 3172 016a 3046     		mov	r0, r6
 3173              		.loc 1 230 0
 3174 016c 17EE903A 		vmov	r3, s15	@ int
 3175              		.loc 1 234 0
 3176 0170 03A9     		add	r1, sp, #12
 3177              		.loc 1 230 0
 3178 0172 92FBF3F3 		sdiv	r3, r2, r3
 3179              		.loc 1 229 0
 3180 0176 ADF80E40 		strh	r4, [sp, #14]	@ movhi
 3181              		.loc 1 231 0
 3182 017a ADF81440 		strh	r4, [sp, #20]	@ movhi
 3183              		.loc 1 232 0
 3184 017e 8DF81640 		strb	r4, [sp, #22]
 3185              		.loc 1 230 0
 3186 0182 0493     		str	r3, [sp, #16]
 3187              		.loc 1 234 0
 3188 0184 FFF7FEFF 		bl	TIM_TimeBaseInit
 3189              	.LVL263:
 3190              		.loc 1 240 0
 3191 0188 F36A     		ldr	r3, [r6, #44]
 3192              		.loc 1 238 0
ARM GAS  /var/folders/sv/kgmgr77579zbf78p2zlhkdfr0000gn/T//ccItzhl5.s 			page 57


 3193 018a ADF83A50 		strh	r5, [sp, #58]	@ movhi
 3194              		.loc 1 240 0
 3195 018e EB40     		lsrs	r3, r3, r5
 3196              		.loc 1 239 0
 3197 0190 4FF00408 		mov	r8, #4
 3198              		.loc 1 243 0
 3199 0194 4FF48079 		mov	r9, #256
 3200              		.loc 1 246 0
 3201 0198 3046     		mov	r0, r6
 3202 019a 0EA9     		add	r1, sp, #56
 3203              		.loc 1 244 0
 3204 019c 4FF4007B 		mov	fp, #512
 3205              		.loc 1 240 0
 3206 01a0 1093     		str	r3, [sp, #64]
 3207              		.loc 1 237 0
 3208 01a2 4FF06003 		mov	r3, #96	@ movhi
 3209 01a6 ADF83830 		strh	r3, [sp, #56]	@ movhi
 3210              		.loc 1 241 0
 3211 01aa ADF84440 		strh	r4, [sp, #68]	@ movhi
 3212              		.loc 1 242 0
 3213 01ae ADF84640 		strh	r4, [sp, #70]	@ movhi
 3214              		.loc 1 239 0
 3215 01b2 ADF83C80 		strh	r8, [sp, #60]	@ movhi
 3216              		.loc 1 243 0
 3217 01b6 ADF84890 		strh	r9, [sp, #72]	@ movhi
 3218              		.loc 1 244 0
 3219 01ba ADF84AB0 		strh	fp, [sp, #74]	@ movhi
 3220              		.loc 1 246 0
 3221 01be FFF7FEFF 		bl	TIM_OC1Init
 3222              	.LVL264:
 3223              		.loc 1 247 0
 3224 01c2 0EA9     		add	r1, sp, #56
 3225 01c4 3046     		mov	r0, r6
 3226 01c6 FFF7FEFF 		bl	TIM_OC2Init
 3227              	.LVL265:
 3228              		.loc 1 248 0
 3229 01ca 0EA9     		add	r1, sp, #56
 3230 01cc 3046     		mov	r0, r6
 3231 01ce FFF7FEFF 		bl	TIM_OC3Init
 3232              	.LVL266:
 3233              		.loc 1 249 0
 3234 01d2 0EA9     		add	r1, sp, #56
 3235 01d4 3046     		mov	r0, r6
 3236 01d6 FFF7FEFF 		bl	TIM_OC4Init
 3237              	.LVL267:
 3238              		.loc 1 251 0
 3239 01da 3046     		mov	r0, r6
 3240 01dc 0821     		movs	r1, #8
 3241 01de FFF7FEFF 		bl	TIM_OC1PreloadConfig
 3242              	.LVL268:
 3243              		.loc 1 252 0
 3244 01e2 3046     		mov	r0, r6
 3245 01e4 0821     		movs	r1, #8
 3246 01e6 FFF7FEFF 		bl	TIM_OC2PreloadConfig
 3247              	.LVL269:
 3248              		.loc 1 253 0
 3249 01ea 3046     		mov	r0, r6
ARM GAS  /var/folders/sv/kgmgr77579zbf78p2zlhkdfr0000gn/T//ccItzhl5.s 			page 58


 3250 01ec 0821     		movs	r1, #8
 3251 01ee FFF7FEFF 		bl	TIM_OC3PreloadConfig
 3252              	.LVL270:
 3253              		.loc 1 254 0
 3254 01f2 3046     		mov	r0, r6
 3255 01f4 0821     		movs	r1, #8
 3256 01f6 FFF7FEFF 		bl	TIM_OC4PreloadConfig
 3257              	.LVL271:
 3258              		.loc 1 260 0
 3259 01fa 3C23     		movs	r3, #60
 3260              		.loc 1 257 0
 3261 01fc 4FF40062 		mov	r2, #2048	@ movhi
 3262              		.loc 1 258 0
 3263 0200 4FF4806A 		mov	r10, #1024
 3264              	.LVL272:
 3265              		.loc 1 265 0
 3266 0204 3046     		mov	r0, r6
 3267 0206 06A9     		add	r1, sp, #24
 3268              		.loc 1 260 0
 3269 0208 ADF81E30 		strh	r3, [sp, #30]	@ movhi
 3270              		.loc 1 262 0
 3271 020c 4FF40053 		mov	r3, #8192	@ movhi
 3272              		.loc 1 257 0
 3273 0210 ADF81820 		strh	r2, [sp, #24]	@ movhi
 3274              		.loc 1 262 0
 3275 0214 ADF82230 		strh	r3, [sp, #34]	@ movhi
 3276              		.loc 1 259 0
 3277 0218 ADF81C40 		strh	r4, [sp, #28]	@ movhi
 3278              		.loc 1 261 0
 3279 021c ADF82040 		strh	r4, [sp, #32]	@ movhi
 3280              		.loc 1 263 0
 3281 0220 ADF82440 		strh	r4, [sp, #36]	@ movhi
 3282              		.loc 1 258 0
 3283 0224 ADF81AA0 		strh	r10, [sp, #26]	@ movhi
 3284              		.loc 1 265 0
 3285 0228 FFF7FEFF 		bl	TIM_BDTRConfig
 3286              	.LVL273:
 3287              		.loc 1 266 0
 3288 022c 2946     		mov	r1, r5
 3289 022e 3046     		mov	r0, r6
 3290 0230 FFF7FEFF 		bl	TIM_CCPreloadControl
 3291              	.LVL274:
 3292              		.loc 1 267 0
 3293 0234 2946     		mov	r1, r5
 3294 0236 3046     		mov	r0, r6
 3295 0238 FFF7FEFF 		bl	TIM_ARRPreloadConfig
 3296              	.LVL275:
 3297              		.loc 1 277 0
 3298 023c 2946     		mov	r1, r5
 3299 023e 5E48     		ldr	r0, .L258+124
 3300 0240 FFF7FEFF 		bl	RCC_AHB1PeriphClockCmd
 3301              	.LVL276:
 3302              		.loc 1 278 0
 3303 0244 2946     		mov	r1, r5
 3304 0246 4FF4E060 		mov	r0, #1792
 3305 024a FFF7FEFF 		bl	RCC_APB2PeriphClockCmd
 3306              	.LVL277:
ARM GAS  /var/folders/sv/kgmgr77579zbf78p2zlhkdfr0000gn/T//ccItzhl5.s 			page 59


 3307              		.loc 1 280 0
 3308 024e 2346     		mov	r3, r4
 3309 0250 5A4A     		ldr	r2, .L258+128
 3310 0252 5B48     		ldr	r0, .L258+132
 3311 0254 0321     		movs	r1, #3
 3312 0256 FFF7FEFF 		bl	dmaStreamAllocate
 3313              	.LVL278:
 3314              		.loc 1 293 0
 3315 025a 4FF40063 		mov	r3, #2048
 3316 025e 2693     		str	r3, [sp, #152]
 3317              		.loc 1 294 0
 3318 0260 4FF40053 		mov	r3, #8192
 3319              		.loc 1 287 0
 3320 0264 DFF898C1 		ldr	ip, .L258+196
 3321              		.loc 1 288 0
 3322 0268 DFF898E1 		ldr	lr, .L258+200
 3323              		.loc 1 301 0
 3324 026c 5548     		ldr	r0, .L258+136
 3325              		.loc 1 294 0
 3326 026e 2793     		str	r3, [sp, #156]
 3327              		.loc 1 290 0
 3328 0270 0C22     		movs	r2, #12
 3329              		.loc 1 296 0
 3330 0272 4FF40033 		mov	r3, #131072
 3331              		.loc 1 301 0
 3332 0276 1FA9     		add	r1, sp, #124
 3333              		.loc 1 287 0
 3334 0278 CDF884C0 		str	ip, [sp, #132]
 3335              		.loc 1 288 0
 3336 027c CDF880E0 		str	lr, [sp, #128]
 3337              		.loc 1 296 0
 3338 0280 2993     		str	r3, [sp, #164]
 3339              		.loc 1 290 0
 3340 0282 2392     		str	r2, [sp, #140]
 3341              		.loc 1 286 0
 3342 0284 1F94     		str	r4, [sp, #124]
 3343              		.loc 1 289 0
 3344 0286 2294     		str	r4, [sp, #136]
 3345              		.loc 1 291 0
 3346 0288 2494     		str	r4, [sp, #144]
 3347              		.loc 1 297 0
 3348 028a 2A94     		str	r4, [sp, #168]
 3349              		.loc 1 298 0
 3350 028c 2B94     		str	r4, [sp, #172]
 3351              		.loc 1 299 0
 3352 028e 2C94     		str	r4, [sp, #176]
 3353              		.loc 1 300 0
 3354 0290 2D94     		str	r4, [sp, #180]
 3355              		.loc 1 292 0
 3356 0292 CDF894A0 		str	r10, [sp, #148]
 3357              		.loc 1 295 0
 3358 0296 CDF8A090 		str	r9, [sp, #160]
 3359              		.loc 1 301 0
 3360 029a FFF7FEFF 		bl	DMA_Init
 3361              	.LVL279:
 3362              		.loc 1 304 0
 3363 029e 2946     		mov	r1, r5
ARM GAS  /var/folders/sv/kgmgr77579zbf78p2zlhkdfr0000gn/T//ccItzhl5.s 			page 60


 3364 02a0 4848     		ldr	r0, .L258+136
 3365 02a2 FFF7FEFF 		bl	DMA_Cmd
 3366              	.LVL280:
 3367              		.loc 1 307 0
 3368 02a6 2A46     		mov	r2, r5
 3369 02a8 1021     		movs	r1, #16
 3370 02aa 4648     		ldr	r0, .L258+136
 3371 02ac FFF7FEFF 		bl	DMA_ITConfig
 3372              	.LVL281:
 3373              		.loc 1 312 0
 3374 02b0 1622     		movs	r2, #22
 3375              		.loc 1 314 0
 3376 02b2 4FF48043 		mov	r3, #16384
 3377              		.loc 1 316 0
 3378 02b6 0AA8     		add	r0, sp, #40
 3379              		.loc 1 313 0
 3380 02b8 0B94     		str	r4, [sp, #44]
 3381              		.loc 1 315 0
 3382 02ba 0D94     		str	r4, [sp, #52]
 3383              		.loc 1 312 0
 3384 02bc 0A92     		str	r2, [sp, #40]
 3385              		.loc 1 314 0
 3386 02be 0C93     		str	r3, [sp, #48]
 3387              		.loc 1 316 0
 3388 02c0 FFF7FEFF 		bl	ADC_CommonInit
 3389              	.LVL282:
 3390              		.loc 1 323 0
 3391 02c4 4FF05063 		mov	r3, #218103808
 3392              		.loc 1 322 0
 3393 02c8 4FF00052 		mov	r2, #536870912
 3394              		.loc 1 327 0
 3395 02cc 13A9     		add	r1, sp, #76
 3396 02ce 3E48     		ldr	r0, .L258+140
 3397              		.loc 1 323 0
 3398 02d0 1693     		str	r3, [sp, #88]
 3399              		.loc 1 322 0
 3400 02d2 1592     		str	r2, [sp, #84]
 3401              		.loc 1 319 0
 3402 02d4 1394     		str	r4, [sp, #76]
 3403              		.loc 1 320 0
 3404 02d6 8DF85050 		strb	r5, [sp, #80]
 3405              		.loc 1 321 0
 3406 02da 8DF85140 		strb	r4, [sp, #81]
 3407              		.loc 1 324 0
 3408 02de 1794     		str	r4, [sp, #92]
 3409              		.loc 1 325 0
 3410 02e0 8DF86080 		strb	r8, [sp, #96]
 3411              		.loc 1 327 0
 3412 02e4 FFF7FEFF 		bl	ADC_Init
 3413              	.LVL283:
 3414              		.loc 1 330 0
 3415 02e8 13A9     		add	r1, sp, #76
 3416 02ea 3848     		ldr	r0, .L258+144
 3417              		.loc 1 328 0
 3418 02ec 1594     		str	r4, [sp, #84]
 3419              		.loc 1 329 0
 3420 02ee 1694     		str	r4, [sp, #88]
ARM GAS  /var/folders/sv/kgmgr77579zbf78p2zlhkdfr0000gn/T//ccItzhl5.s 			page 61


 3421              		.loc 1 330 0
 3422 02f0 FFF7FEFF 		bl	ADC_Init
 3423              	.LVL284:
 3424              		.loc 1 331 0
 3425 02f4 13A9     		add	r1, sp, #76
 3426 02f6 3648     		ldr	r0, .L258+148
 3427 02f8 FFF7FEFF 		bl	ADC_Init
 3428              	.LVL285:
 3429              		.loc 1 334 0
 3430 02fc 2846     		mov	r0, r5
 3431 02fe FFF7FEFF 		bl	ADC_TempSensorVrefintCmd
 3432              	.LVL286:
 3433              		.loc 1 337 0
 3434 0302 2846     		mov	r0, r5
 3435 0304 FFF7FEFF 		bl	ADC_MultiModeDMARequestAfterLastTransferCmd
 3436              	.LVL287:
 3437              		.loc 1 340 0
 3438 0308 2146     		mov	r1, r4
 3439 030a 2F48     		ldr	r0, .L258+140
 3440 030c FFF7FEFF 		bl	ADC_ExternalTrigInjectedConvConfig
 3441              	.LVL288:
 3442              		.loc 1 341 0
 3443 0310 4FF44021 		mov	r1, #786432
 3444 0314 2D48     		ldr	r0, .L258+144
 3445 0316 FFF7FEFF 		bl	ADC_ExternalTrigInjectedConvConfig
 3446              	.LVL289:
 3447              		.loc 1 345 0
 3448 031a 4FF40011 		mov	r1, #2097152
 3449 031e 2A48     		ldr	r0, .L258+140
 3450 0320 FFF7FEFF 		bl	ADC_ExternalTrigInjectedConvEdgeConfig
 3451              	.LVL290:
 3452              		.loc 1 346 0
 3453 0324 4FF40011 		mov	r1, #2097152
 3454 0328 2848     		ldr	r0, .L258+144
 3455 032a FFF7FEFF 		bl	ADC_ExternalTrigInjectedConvEdgeConfig
 3456              	.LVL291:
 3457              		.loc 1 350 0
 3458 032e 0221     		movs	r1, #2
 3459 0330 2548     		ldr	r0, .L258+140
 3460 0332 FFF7FEFF 		bl	ADC_InjectedSequencerLengthConfig
 3461              	.LVL292:
 3462              		.loc 1 351 0
 3463 0336 0221     		movs	r1, #2
 3464 0338 66E0     		b	.L259
 3465              	.L260:
 3466 033a 00BF     		.align	2
 3467              	.L258:
 3468 033c 00000000 		.word	.LANCHOR0
 3469 0340 00000140 		.word	1073807360
 3470 0344 00040140 		.word	1073808384
 3471 0348 00000000 		.word	.LANCHOR28
 3472 034c 00000000 		.word	.LANCHOR32
 3473 0350 00000000 		.word	0
 3474 0354 00000000 		.word	.LANCHOR34
 3475 0358 00000000 		.word	.LANCHOR35
 3476 035c 00000000 		.word	.LANCHOR36
 3477 0360 00000000 		.word	.LANCHOR9
ARM GAS  /var/folders/sv/kgmgr77579zbf78p2zlhkdfr0000gn/T//ccItzhl5.s 			page 62


 3478 0364 00000000 		.word	.LANCHOR8
 3479 0368 00000000 		.word	.LANCHOR7
 3480 036c 00000000 		.word	.LANCHOR13
 3481 0370 00000000 		.word	.LANCHOR2
 3482 0374 00000000 		.word	.LANCHOR37
 3483 0378 00000000 		.word	.LANCHOR1
 3484 037c 00000000 		.word	.LANCHOR18
 3485 0380 00000000 		.word	.LANCHOR38
 3486 0384 00000000 		.word	.LANCHOR6
 3487 0388 00000000 		.word	.LANCHOR41
 3488 038c 00000000 		.word	.LANCHOR43
 3489 0390 00000000 		.word	.LANCHOR17
 3490 0394 00000000 		.word	.LANCHOR44
 3491 0398 00000000 		.word	.LANCHOR45
 3492 039c 00000000 		.word	.LANCHOR19
 3493 03a0 0AD7A33C 		.word	1017370378
 3494 03a4 00000000 		.word	.LANCHOR46
 3495 03a8 00000000 		.word	.LANCHOR22
 3496 03ac 9A99193E 		.word	1041865114
 3497 03b0 00000000 		.word	.LANCHOR47
 3498 03b4 007A030A 		.word	168000000
 3499 03b8 05004000 		.word	4194309
 3500 03bc 00000000 		.word	mcpwm_adc_int_handler
 3501 03c0 90000000 		.word	_stm32_dma_streams+144
 3502 03c4 70640240 		.word	1073898608
 3503 03c8 00200140 		.word	1073815552
 3504 03cc 00210140 		.word	1073815808
 3505 03d0 00220140 		.word	1073816064
 3506 03d4 00000000 		.word	.LANCHOR3
 3507 03d8 00000000 		.word	.LANCHOR4
 3508 03dc 00000000 		.word	.LANCHOR10
 3509 03e0 00000000 		.word	.LANCHOR33
 3510 03e4 00000000 		.word	.LANCHOR24
 3511 03e8 00000000 		.word	.LANCHOR39
 3512 03ec 00000000 		.word	.LANCHOR40
 3513 03f0 00000000 		.word	.LANCHOR42
 3514 03f4 00000000 		.word	.LANCHOR14
 3515 03f8 00000000 		.word	.LANCHOR16
 3516 03fc 00000000 		.word	.LANCHOR15
 3517 0400 00000000 		.word	ADC_Value
 3518 0404 08230140 		.word	1073816328
 3519              	.L259:
 3520 0408 8F48     		ldr	r0, .L261
 3521 040a FFF7FEFF 		bl	ADC_InjectedSequencerLengthConfig
 3522              	.LVL293:
 3523              		.loc 1 356 0
 3524 040e FFF7FEFF 		bl	hw_setup_adc_channels
 3525              	.LVL294:
 3526              		.loc 1 359 0
 3527 0412 2A46     		mov	r2, r5
 3528 0414 40F20741 		movw	r1, #1031
 3529 0418 8C48     		ldr	r0, .L261+4
 3530 041a FFF7FEFF 		bl	ADC_ITConfig
 3531              	.LVL295:
 3532              		.loc 1 360 0
 3533 041e 0621     		movs	r1, #6
 3534 0420 1220     		movs	r0, #18
ARM GAS  /var/folders/sv/kgmgr77579zbf78p2zlhkdfr0000gn/T//ccItzhl5.s 			page 63


 3535 0422 FFF7FEFF 		bl	nvicEnableVector
 3536              	.LVL296:
 3537              		.loc 1 363 0
 3538 0426 2946     		mov	r1, r5
 3539 0428 8848     		ldr	r0, .L261+4
 3540 042a FFF7FEFF 		bl	ADC_Cmd
 3541              	.LVL297:
 3542              		.loc 1 366 0
 3543 042e 2946     		mov	r1, r5
 3544 0430 8548     		ldr	r0, .L261
 3545 0432 FFF7FEFF 		bl	ADC_Cmd
 3546              	.LVL298:
 3547              		.loc 1 369 0
 3548 0436 2946     		mov	r1, r5
 3549 0438 8548     		ldr	r0, .L261+8
 3550 043a FFF7FEFF 		bl	ADC_Cmd
 3551              	.LVL299:
 3552              		.loc 1 373 0
 3553 043e 2946     		mov	r1, r5
 3554 0440 0220     		movs	r0, #2
 3555 0442 FFF7FEFF 		bl	RCC_APB2PeriphClockCmd
 3556              	.LVL300:
 3557              		.loc 1 377 0
 3558 0446 4FF6FF73 		movw	r3, #65535
 3559              		.loc 1 380 0
 3560 044a 03A9     		add	r1, sp, #12
 3561 044c 3846     		mov	r0, r7
 3562              		.loc 1 375 0
 3563 044e ADF80C40 		strh	r4, [sp, #12]	@ movhi
 3564              		.loc 1 376 0
 3565 0452 ADF80E40 		strh	r4, [sp, #14]	@ movhi
 3566              		.loc 1 378 0
 3567 0456 ADF81440 		strh	r4, [sp, #20]	@ movhi
 3568              		.loc 1 379 0
 3569 045a 8DF81640 		strb	r4, [sp, #22]
 3570              		.loc 1 377 0
 3571 045e 0493     		str	r3, [sp, #16]
 3572              		.loc 1 380 0
 3573 0460 FFF7FEFF 		bl	TIM_TimeBaseInit
 3574              	.LVL301:
 3575              		.loc 1 384 0
 3576 0464 4FF4FA73 		mov	r3, #500
 3577              		.loc 1 382 0
 3578 0468 4FF06002 		mov	r2, #96	@ movhi
 3579              		.loc 1 389 0
 3580 046c 0EA9     		add	r1, sp, #56
 3581 046e 3846     		mov	r0, r7
 3582              		.loc 1 382 0
 3583 0470 ADF83820 		strh	r2, [sp, #56]	@ movhi
 3584              		.loc 1 384 0
 3585 0474 1093     		str	r3, [sp, #64]
 3586              		.loc 1 383 0
 3587 0476 ADF83A50 		strh	r5, [sp, #58]	@ movhi
 3588              		.loc 1 385 0
 3589 047a ADF84440 		strh	r4, [sp, #68]	@ movhi
 3590              		.loc 1 386 0
 3591 047e ADF84640 		strh	r4, [sp, #70]	@ movhi
ARM GAS  /var/folders/sv/kgmgr77579zbf78p2zlhkdfr0000gn/T//ccItzhl5.s 			page 64


 3592              		.loc 1 387 0
 3593 0482 ADF84890 		strh	r9, [sp, #72]	@ movhi
 3594              		.loc 1 388 0
 3595 0486 ADF84AB0 		strh	fp, [sp, #74]	@ movhi
 3596              		.loc 1 389 0
 3597 048a FFF7FEFF 		bl	TIM_OC1Init
 3598              	.LVL302:
 3599              		.loc 1 390 0
 3600 048e 3846     		mov	r0, r7
 3601 0490 0821     		movs	r1, #8
 3602 0492 FFF7FEFF 		bl	TIM_OC1PreloadConfig
 3603              	.LVL303:
 3604              		.loc 1 391 0
 3605 0496 0EA9     		add	r1, sp, #56
 3606 0498 3846     		mov	r0, r7
 3607 049a FFF7FEFF 		bl	TIM_OC2Init
 3608              	.LVL304:
 3609              		.loc 1 392 0
 3610 049e 3846     		mov	r0, r7
 3611 04a0 0821     		movs	r1, #8
 3612 04a2 FFF7FEFF 		bl	TIM_OC2PreloadConfig
 3613              	.LVL305:
 3614              		.loc 1 393 0
 3615 04a6 0EA9     		add	r1, sp, #56
 3616 04a8 3846     		mov	r0, r7
 3617 04aa FFF7FEFF 		bl	TIM_OC3Init
 3618              	.LVL306:
 3619              		.loc 1 394 0
 3620 04ae 3846     		mov	r0, r7
 3621 04b0 0821     		movs	r1, #8
 3622 04b2 FFF7FEFF 		bl	TIM_OC3PreloadConfig
 3623              	.LVL307:
 3624              		.loc 1 396 0
 3625 04b6 2946     		mov	r1, r5
 3626 04b8 3846     		mov	r0, r7
 3627 04ba FFF7FEFF 		bl	TIM_ARRPreloadConfig
 3628              	.LVL308:
 3629              		.loc 1 397 0
 3630 04be 2946     		mov	r1, r5
 3631 04c0 3846     		mov	r0, r7
 3632 04c2 FFF7FEFF 		bl	TIM_CCPreloadControl
 3633              	.LVL309:
 3634              		.loc 1 400 0
 3635 04c6 2946     		mov	r1, r5
 3636 04c8 3846     		mov	r0, r7
 3637 04ca FFF7FEFF 		bl	TIM_CtrlPWMOutputs
 3638              	.LVL310:
 3639              		.loc 1 403 0
 3640 04ce 3046     		mov	r0, r6
 3641 04d0 2021     		movs	r1, #32
 3642 04d2 FFF7FEFF 		bl	TIM_SelectOutputTrigger
 3643              	.LVL311:
 3644              		.loc 1 404 0
 3645 04d6 3046     		mov	r0, r6
 3646 04d8 8021     		movs	r1, #128
 3647 04da FFF7FEFF 		bl	TIM_SelectMasterSlaveMode
 3648              	.LVL312:
ARM GAS  /var/folders/sv/kgmgr77579zbf78p2zlhkdfr0000gn/T//ccItzhl5.s 			page 65


 3649              		.loc 1 405 0
 3650 04de 2146     		mov	r1, r4
 3651 04e0 3846     		mov	r0, r7
 3652 04e2 FFF7FEFF 		bl	TIM_SelectInputTrigger
 3653              	.LVL313:
 3654              		.loc 1 406 0
 3655 04e6 4146     		mov	r1, r8
 3656 04e8 3846     		mov	r0, r7
 3657 04ea FFF7FEFF 		bl	TIM_SelectSlaveMode
 3658              	.LVL314:
 3659              		.loc 1 409 0
 3660 04ee 2946     		mov	r1, r5
 3661 04f0 3046     		mov	r0, r6
 3662 04f2 FFF7FEFF 		bl	TIM_Cmd
 3663              	.LVL315:
 3664              		.loc 1 410 0
 3665 04f6 2946     		mov	r1, r5
 3666 04f8 3846     		mov	r0, r7
 3667 04fa FFF7FEFF 		bl	TIM_Cmd
 3668              	.LVL316:
 3669              		.loc 1 413 0
 3670 04fe 2946     		mov	r1, r5
 3671 0500 3046     		mov	r0, r6
 3672 0502 FFF7FEFF 		bl	TIM_CtrlPWMOutputs
 3673              	.LVL317:
 3674              		.loc 1 416 0
 3675 0506 2946     		mov	r1, r5
 3676 0508 2846     		mov	r0, r5
 3677 050a FFF7FEFF 		bl	RCC_APB1PeriphClockCmd
 3678              	.LVL318:
 3679              		.loc 1 420 0
 3680 050e 4FF0FF32 		mov	r2, #-1
 3681              		.loc 1 421 0
 3682 0512 5323     		movs	r3, #83
 3683              		.loc 1 424 0
 3684 0514 03A9     		add	r1, sp, #12
 3685 0516 4FF08040 		mov	r0, #1073741824
 3686              		.loc 1 420 0
 3687 051a 0492     		str	r2, [sp, #16]
 3688              		.loc 1 421 0
 3689 051c ADF80C30 		strh	r3, [sp, #12]	@ movhi
 3690              		.loc 1 422 0
 3691 0520 ADF81440 		strh	r4, [sp, #20]	@ movhi
 3692              		.loc 1 423 0
 3693 0524 ADF80E40 		strh	r4, [sp, #14]	@ movhi
 3694              		.loc 1 424 0
 3695 0528 FFF7FEFF 		bl	TIM_TimeBaseInit
 3696              	.LVL319:
 3697              		.loc 1 427 0
 3698 052c 2946     		mov	r1, r5
 3699 052e 4FF08040 		mov	r0, #1073741824
 3700 0532 FFF7FEFF 		bl	TIM_Cmd
 3701              	.LVL320:
 3702              		.loc 1 430 0
 3703 0536 FFF7FEFF 		bl	stop_pwm_hw
 3704              	.LVL321:
 3705              		.loc 1 432 0
ARM GAS  /var/folders/sv/kgmgr77579zbf78p2zlhkdfr0000gn/T//ccItzhl5.s 			page 66


 3706 053a F36A     		ldr	r3, [r6, #44]
 3707 053c 1A93     		str	r3, [sp, #104]
 3708              		.loc 1 433 0
 3709 053e F36A     		ldr	r3, [r6, #44]
 3710              		.loc 1 434 0
 3711 0540 19A8     		add	r0, sp, #100
 3712              		.loc 1 433 0
 3713 0542 EB40     		lsrs	r3, r3, r5
 3714 0544 1B93     		str	r3, [sp, #108]
 3715              		.loc 1 434 0
 3716 0546 FFF7FEFF 		bl	update_adc_sample_pos
 3717              	.LVL322:
 3718              		.loc 1 435 0
 3719 054a 19A8     		add	r0, sp, #100
 3720 054c FFF7FEFF 		bl	set_next_timer_settings
 3721              	.LVL323:
 3722              		.loc 1 440 0
 3723 0550 404D     		ldr	r5, .L261+12
 3724              		.loc 1 437 0
 3725 0552 FFF7FEFF 		bl	utils_sys_unlock_cnt
 3726              	.LVL324:
 3727              		.loc 1 441 0
 3728 0556 404B     		ldr	r3, .L261+16
 3729              		.loc 1 440 0
 3730 0558 A5F818A0 		strh	r10, [r5, #24]	@ movhi
 3731              		.loc 1 441 0
 3732 055c 4FF48052 		mov	r2, #4096
 3733 0560 5A83     		strh	r2, [r3, #26]	@ movhi
 3734              	.LBB105:
 3735              	.LBB106:
 3736              		.loc 1 538 0
 3737 0562 41F28934 		movw	r4, #5001
 3738 0566 1A83     		strh	r2, [r3, #24]	@ movhi
 3739              	.LVL325:
 3740 0568 03E0     		b	.L251
 3741              	.LVL326:
 3742              	.L253:
 3743              		.loc 1 543 0
 3744 056a FFF7FEFF 		bl	chThdSleep
 3745              	.LVL327:
 3746              		.loc 1 545 0
 3747 056e 013C     		subs	r4, r4, #1
 3748              	.LVL328:
 3749 0570 04D0     		beq	.L254
 3750              	.LVL329:
 3751              	.L251:
 3752              		.loc 1 542 0
 3753 0572 2B69     		ldr	r3, [r5, #16]
 3754 0574 DB04     		lsls	r3, r3, #19
 3755              		.loc 1 543 0
 3756 0576 4FF00A00 		mov	r0, #10
 3757              		.loc 1 542 0
 3758 057a F6D5     		bpl	.L253
 3759              	.LVL330:
 3760              	.L254:
 3761              		.loc 1 550 0
 3762 057c 42F21070 		movw	r0, #10000
ARM GAS  /var/folders/sv/kgmgr77579zbf78p2zlhkdfr0000gn/T//ccItzhl5.s 			page 67


 3763 0580 FFF7FEFF 		bl	chThdSleep
 3764              	.LVL331:
 3765              		.loc 1 551 0
 3766 0584 354C     		ldr	r4, .L261+20
 3767              		.loc 1 552 0
 3768 0586 3648     		ldr	r0, .L261+24
 3769              		.loc 1 558 0
 3770 0588 3649     		ldr	r1, .L261+28
 3771              		.loc 1 551 0
 3772 058a 0023     		movs	r3, #0
 3773 058c 2360     		str	r3, [r4]
 3774              		.loc 1 552 0
 3775 058e 0360     		str	r3, [r0]
 3776              		.loc 1 558 0
 3777 0590 0B60     		str	r3, [r1]
 3778              	.L252:
 3779              		.loc 1 559 0
 3780 0592 0B68     		ldr	r3, [r1]
 3781 0594 334A     		ldr	r2, .L261+28
 3782 0596 B3F57A6F 		cmp	r3, #4000
 3783 059a FADB     		blt	.L252
 3784              		.loc 1 560 0
 3785 059c 324D     		ldr	r5, .L261+32
 3786 059e 2368     		ldr	r3, [r4]
 3787 05a0 1168     		ldr	r1, [r2]
 3788 05a2 93FBF1F3 		sdiv	r3, r3, r1
 3789              		.loc 1 561 0
 3790 05a6 3149     		ldr	r1, .L261+36
 3791              		.loc 1 560 0
 3792 05a8 2B60     		str	r3, [r5]
 3793              		.loc 1 567 0
 3794 05aa 2B4C     		ldr	r4, .L261+16
 3795              		.loc 1 561 0
 3796 05ac 0368     		ldr	r3, [r0]
 3797 05ae 1268     		ldr	r2, [r2]
 3798 05b0 93FBF2F3 		sdiv	r3, r3, r2
 3799              		.loc 1 568 0
 3800 05b4 0125     		movs	r5, #1
 3801              		.loc 1 561 0
 3802 05b6 0B60     		str	r3, [r1]
 3803              		.loc 1 567 0
 3804 05b8 4FF48052 		mov	r2, #4096
 3805              		.loc 1 568 0
 3806 05bc 2C4B     		ldr	r3, .L261+40
 3807              		.loc 1 567 0
 3808 05be 6283     		strh	r2, [r4, #26]	@ movhi
 3809              	.LBE106:
 3810              	.LBE105:
 3811              		.loc 1 445 0
 3812 05c0 2946     		mov	r1, r5
 3813 05c2 4020     		movs	r0, #64
 3814              		.loc 1 451 0
 3815 05c4 0024     		movs	r4, #0
 3816              	.LBB108:
 3817              	.LBB107:
 3818              		.loc 1 568 0
 3819 05c6 1D70     		strb	r5, [r3]
ARM GAS  /var/folders/sv/kgmgr77579zbf78p2zlhkdfr0000gn/T//ccItzhl5.s 			page 68


 3820              	.LBE107:
 3821              	.LBE108:
 3822              		.loc 1 445 0
 3823 05c8 FFF7FEFF 		bl	RCC_APB1PeriphClockCmd
 3824              	.LVL332:
 3825              		.loc 1 449 0
 3826 05cc 4FF0FF32 		mov	r2, #-1
 3827              		.loc 1 450 0
 3828 05d0 0723     		movs	r3, #7
 3829              		.loc 1 453 0
 3830 05d2 03A9     		add	r1, sp, #12
 3831 05d4 2748     		ldr	r0, .L261+44
 3832              		.loc 1 449 0
 3833 05d6 0492     		str	r2, [sp, #16]
 3834              		.loc 1 450 0
 3835 05d8 ADF80C30 		strh	r3, [sp, #12]	@ movhi
 3836              		.loc 1 451 0
 3837 05dc ADF81440 		strh	r4, [sp, #20]	@ movhi
 3838              		.loc 1 452 0
 3839 05e0 ADF80E40 		strh	r4, [sp, #14]	@ movhi
 3840              		.loc 1 453 0
 3841 05e4 FFF7FEFF 		bl	TIM_TimeBaseInit
 3842              	.LVL333:
 3843              		.loc 1 455 0
 3844 05e8 2946     		mov	r1, r5
 3845 05ea 2248     		ldr	r0, .L261+44
 3846              		.loc 1 459 0
 3847 05ec 224E     		ldr	r6, .L261+48
 3848              		.loc 1 455 0
 3849 05ee FFF7FEFF 		bl	TIM_Cmd
 3850              	.LVL334:
 3851              		.loc 1 458 0
 3852 05f2 224A     		ldr	r2, .L261+52
 3853              		.loc 1 460 0
 3854 05f4 0094     		str	r4, [sp]
 3855 05f6 224B     		ldr	r3, .L261+56
 3856              		.loc 1 458 0
 3857 05f8 1470     		strb	r4, [r2]
 3858              		.loc 1 460 0
 3859 05fa 40F69811 		movw	r1, #2456
 3860 05fe 4022     		movs	r2, #64
 3861              		.loc 1 459 0
 3862 0600 3470     		strb	r4, [r6]
 3863              		.loc 1 460 0
 3864 0602 2048     		ldr	r0, .L261+60
 3865 0604 FFF7FEFF 		bl	chThdCreateStatic
 3866              	.LVL335:
 3867              		.loc 1 461 0
 3868 0608 1F4B     		ldr	r3, .L261+64
 3869 060a 0094     		str	r4, [sp]
 3870 060c 4022     		movs	r2, #64
 3871 060e 4FF4B361 		mov	r1, #1432
 3872 0612 1E48     		ldr	r0, .L261+68
 3873 0614 FFF7FEFF 		bl	chThdCreateStatic
 3874              	.LVL336:
 3875              		.loc 1 464 0
 3876 0618 2946     		mov	r1, r5
ARM GAS  /var/folders/sv/kgmgr77579zbf78p2zlhkdfr0000gn/T//ccItzhl5.s 			page 69


 3877 061a 4FF40060 		mov	r0, #2048
 3878 061e FFF7FEFF 		bl	RCC_APB1PeriphClockCmd
 3879              	.LVL337:
 3880              		.loc 1 465 0
 3881 0622 2046     		mov	r0, r4
 3882 0624 FFF7FEFF 		bl	WWDG_SetPrescaler
 3883              	.LVL338:
 3884              		.loc 1 466 0
 3885 0628 FF20     		movs	r0, #255
 3886 062a FFF7FEFF 		bl	WWDG_SetWindowValue
 3887              	.LVL339:
 3888              		.loc 1 467 0
 3889 062e 6420     		movs	r0, #100
 3890 0630 FFF7FEFF 		bl	WWDG_Enable
 3891              	.LVL340:
 3892              		.loc 1 470 0
 3893 0634 164B     		ldr	r3, .L261+72
 3894 0636 1C60     		str	r4, [r3]
 3895              		.loc 1 471 0
 3896 0638 164B     		ldr	r3, .L261+76
 3897 063a 1C60     		str	r4, [r3]
 3898              		.loc 1 473 0
 3899 063c 164B     		ldr	r3, .L261+80
 3900 063e 1D70     		strb	r5, [r3]
 3901              		.loc 1 474 0
 3902 0640 2FB0     		add	sp, sp, #188
 3903              		.cfi_def_cfa_offset 36
 3904              		@ sp needed
 3905 0642 BDE8F08F 		pop	{r4, r5, r6, r7, r8, r9, r10, fp, pc}
 3906              	.L262:
 3907 0646 00BF     		.align	2
 3908              	.L261:
 3909 0648 00210140 		.word	1073815808
 3910 064c 00200140 		.word	1073815552
 3911 0650 00220140 		.word	1073816064
 3912 0654 00080240 		.word	1073874944
 3913 0658 00040240 		.word	1073873920
 3914 065c 00000000 		.word	.LANCHOR48
 3915 0660 00000000 		.word	.LANCHOR49
 3916 0664 00000000 		.word	.LANCHOR50
 3917 0668 00000000 		.word	.LANCHOR51
 3918 066c 00000000 		.word	.LANCHOR52
 3919 0670 00000000 		.word	.LANCHOR44
 3920 0674 00180040 		.word	1073747968
 3921 0678 00000000 		.word	.LANCHOR29
 3922 067c 00000000 		.word	.LANCHOR20
 3923 0680 00000000 		.word	timer_thread
 3924 0684 00000000 		.word	.LANCHOR53
 3925 0688 00000000 		.word	rpm_thread
 3926 068c 00000000 		.word	.LANCHOR54
 3927 0690 00000000 		.word	.LANCHOR9
 3928 0694 00000000 		.word	.LANCHOR8
 3929 0698 00000000 		.word	.LANCHOR28
 3930              		.cfi_endproc
 3931              	.LFE257:
 3932              		.size	mcpwm_init, .-mcpwm_init
 3933              		.section	.text.mcpwm_set_configuration,"ax",%progbits
ARM GAS  /var/folders/sv/kgmgr77579zbf78p2zlhkdfr0000gn/T//ccItzhl5.s 			page 70


 3934              		.align	2
 3935              		.p2align 4,,15
 3936              		.global	mcpwm_set_configuration
 3937              		.thumb
 3938              		.thumb_func
 3939              		.type	mcpwm_set_configuration, %function
 3940              	mcpwm_set_configuration:
 3941              	.LFB260:
 3942              		.loc 1 502 0
 3943              		.cfi_startproc
 3944              		@ args = 0, pretend = 0, frame = 0
 3945              		@ frame_needed = 0, uses_anonymous_args = 0
 3946              	.LVL341:
 3947 0000 38B5     		push	{r3, r4, r5, lr}
 3948              		.cfi_def_cfa_offset 16
 3949              		.cfi_offset 3, -16
 3950              		.cfi_offset 4, -12
 3951              		.cfi_offset 5, -8
 3952              		.cfi_offset 14, -4
 3953              	.LBB109:
 3954              	.LBB110:
 3955              		.loc 1 885 0
 3956 0002 0E49     		ldr	r1, .L265
 3957              		.loc 1 886 0
 3958 0004 0E4A     		ldr	r2, .L265+4
 3959              	.LBE110:
 3960              	.LBE109:
 3961              		.loc 1 502 0
 3962 0006 0446     		mov	r4, r0
 3963              		.loc 1 504 0
 3964 0008 0E48     		ldr	r0, .L265+8
 3965              	.LVL342:
 3966              	.LBB113:
 3967              	.LBB111:
 3968              		.loc 1 885 0
 3969 000a 0023     		movs	r3, #0
 3970              	.LBE111:
 3971              	.LBE113:
 3972              		.loc 1 504 0
 3973 000c 0725     		movs	r5, #7
 3974 000e 0570     		strb	r5, [r0]
 3975              	.LBB114:
 3976              	.LBB112:
 3977              		.loc 1 885 0
 3978 0010 0B70     		strb	r3, [r1]
 3979              		.loc 1 886 0
 3980 0012 1360     		str	r3, [r2]
 3981              		.loc 1 887 0
 3982 0014 FFF7FEFF 		bl	stop_pwm_hw
 3983              	.LVL343:
 3984              	.LBE112:
 3985              	.LBE114:
 3986              		.loc 1 507 0
 3987 0018 FFF7FEFF 		bl	utils_sys_lock_cnt
 3988              	.LVL344:
 3989              		.loc 1 509 0
 3990 001c 6378     		ldrb	r3, [r4, #1]	@ zero_extendqisi2
ARM GAS  /var/folders/sv/kgmgr77579zbf78p2zlhkdfr0000gn/T//ccItzhl5.s 			page 71


 3991              		.loc 1 508 0
 3992 001e 0A49     		ldr	r1, .L265+12
 3993              		.loc 1 509 0
 3994 0020 0A4A     		ldr	r2, .L265+16
 3995              		.loc 1 508 0
 3996 0022 0C60     		str	r4, [r1]
 3997              		.loc 1 509 0
 3998 0024 DBB2     		uxtb	r3, r3
 3999              		.loc 1 510 0
 4000 0026 04F19800 		add	r0, r4, #152
 4001              		.loc 1 509 0
 4002 002a 1370     		strb	r3, [r2]
 4003              		.loc 1 510 0
 4004 002c FFF7FEFF 		bl	mcpwm_init_hall_table
 4005              	.LVL345:
 4006              		.loc 1 511 0
 4007 0030 FFF7FEFF 		bl	update_sensor_mode
 4008              	.LVL346:
 4009              		.loc 1 513 0
 4010 0034 BDE83840 		pop	{r3, r4, r5, lr}
 4011              		.cfi_restore 14
 4012              		.cfi_restore 5
 4013              		.cfi_restore 4
 4014              		.cfi_restore 3
 4015              		.cfi_def_cfa_offset 0
 4016              	.LVL347:
 4017              		.loc 1 512 0
 4018 0038 FFF7FEBF 		b	utils_sys_unlock_cnt
 4019              	.LVL348:
 4020              	.L266:
 4021              		.align	2
 4022              	.L265:
 4023 003c 00000000 		.word	.LANCHOR2
 4024 0040 00000000 		.word	.LANCHOR40
 4025 0044 00000000 		.word	.LANCHOR37
 4026 0048 00000000 		.word	.LANCHOR0
 4027 004c 00000000 		.word	.LANCHOR19
 4028              		.cfi_endproc
 4029              	.LFE260:
 4030              		.size	mcpwm_set_configuration, .-mcpwm_set_configuration
 4031              		.section	.text.mcpwm_set_pid_speed,"ax",%progbits
 4032              		.align	2
 4033              		.p2align 4,,15
 4034              		.global	mcpwm_set_pid_speed
 4035              		.thumb
 4036              		.thumb_func
 4037              		.type	mcpwm_set_pid_speed, %function
 4038              	mcpwm_set_pid_speed:
 4039              	.LFB265:
 4040              		.loc 1 612 0
 4041              		.cfi_startproc
 4042              		@ args = 0, pretend = 0, frame = 0
 4043              		@ frame_needed = 0, uses_anonymous_args = 0
 4044              		@ link register save eliminated.
 4045              	.LVL349:
 4046              		.loc 1 613 0
 4047 0000 034A     		ldr	r2, .L268
ARM GAS  /var/folders/sv/kgmgr77579zbf78p2zlhkdfr0000gn/T//ccItzhl5.s 			page 72


 4048              		.loc 1 614 0
 4049 0002 044B     		ldr	r3, .L268+4
 4050              		.loc 1 613 0
 4051 0004 0121     		movs	r1, #1
 4052 0006 1170     		strb	r1, [r2]
 4053              		.loc 1 614 0
 4054 0008 83ED000A 		vstr.32	s0, [r3]
 4055 000c 7047     		bx	lr
 4056              	.L269:
 4057 000e 00BF     		.align	2
 4058              	.L268:
 4059 0010 00000000 		.word	.LANCHOR37
 4060 0014 00000000 		.word	.LANCHOR34
 4061              		.cfi_endproc
 4062              	.LFE265:
 4063              		.size	mcpwm_set_pid_speed, .-mcpwm_set_pid_speed
 4064              		.section	.text.mcpwm_set_brake_current,"ax",%progbits
 4065              		.align	2
 4066              		.p2align 4,,15
 4067              		.global	mcpwm_set_brake_current
 4068              		.thumb
 4069              		.thumb_func
 4070              		.type	mcpwm_set_brake_current, %function
 4071              	mcpwm_set_brake_current:
 4072              	.LFB268:
 4073              		.loc 1 665 0
 4074              		.cfi_startproc
 4075              		@ args = 0, pretend = 0, frame = 8
 4076              		@ frame_needed = 0, uses_anonymous_args = 0
 4077              	.LVL350:
 4078 0000 30B5     		push	{r4, r5, lr}
 4079              		.cfi_def_cfa_offset 12
 4080              		.cfi_offset 4, -12
 4081              		.cfi_offset 5, -8
 4082              		.cfi_offset 14, -4
 4083              		.loc 1 666 0
 4084 0002 2E4C     		ldr	r4, .L295
 4085 0004 2368     		ldr	r3, [r4]
 4086 0006 D3ED507A 		vldr.32	s15, [r3, #320]
 4087 000a B0EEC07A 		vabs.f32	s14, s0
 4088 000e B4EEE77A 		vcmpe.f32	s14, s15
 4089              		.loc 1 665 0
 4090 0012 83B0     		sub	sp, sp, #12
 4091              		.cfi_def_cfa_offset 24
 4092              		.loc 1 666 0
 4093 0014 F1EE10FA 		vmrs	APSR_nzcv, FPSCR
 4094              		.loc 1 665 0
 4095 0018 8DED010A 		vstr.32	s0, [sp, #4]
 4096              		.loc 1 666 0
 4097 001c 2DD4     		bmi	.L293
 4098              		.loc 1 672 0
 4099 001e 93ED020A 		vldr.32	s0, [r3, #8]
 4100              	.LVL351:
 4101 0022 D3ED020A 		vldr.32	s1, [r3, #8]
 4102              		.loc 1 674 0
 4103 0026 264D     		ldr	r5, .L295+4
 4104              		.loc 1 672 0
ARM GAS  /var/folders/sv/kgmgr77579zbf78p2zlhkdfr0000gn/T//ccItzhl5.s 			page 73


 4105 0028 B0EEC00A 		vabs.f32	s0, s0
 4106 002c B1EE400A 		vneg.f32	s0, s0
 4107 0030 F0EEE00A 		vabs.f32	s1, s1
 4108 0034 01A8     		add	r0, sp, #4
 4109              	.LVL352:
 4110 0036 FFF7FEFF 		bl	utils_truncate_number
 4111              	.LVL353:
 4112              		.loc 1 675 0
 4113 003a 2249     		ldr	r1, .L295+8
 4114 003c 0198     		ldr	r0, [sp, #4]	@ float
 4115              		.loc 1 677 0
 4116 003e 224B     		ldr	r3, .L295+12
 4117              		.loc 1 674 0
 4118 0040 0322     		movs	r2, #3
 4119 0042 2A70     		strb	r2, [r5]
 4120              		.loc 1 675 0
 4121 0044 0860     		str	r0, [r1]	@ float
 4122              		.loc 1 677 0
 4123 0046 1978     		ldrb	r1, [r3]	@ zero_extendqisi2
 4124 0048 0229     		cmp	r1, #2
 4125 004a 14D0     		beq	.L270
 4126              		.loc 1 677 0 is_stmt 0 discriminator 1
 4127 004c 1978     		ldrb	r1, [r3]	@ zero_extendqisi2
 4128 004e 9142     		cmp	r1, r2
 4129 0050 11D0     		beq	.L270
 4130              		.loc 1 680 0 is_stmt 1
 4131 0052 2168     		ldr	r1, [r4]
 4132 0054 8878     		ldrb	r0, [r1, #2]	@ zero_extendqisi2
 4133 0056 0128     		cmp	r0, #1
 4134 0058 1BD0     		beq	.L294
 4135              		.loc 1 687 0
 4136 005a 1C48     		ldr	r0, .L295+16
 4137 005c D0ED007A 		vldr.32	s15, [r0]
 4138 0060 91ED097A 		vldr.32	s14, [r1, #36]
 4139 0064 F0EEE77A 		vabs.f32	s15, s15
 4140 0068 F4EEC77A 		vcmpe.f32	s15, s14
 4141 006c F1EE10FA 		vmrs	APSR_nzcv, FPSCR
 4142 0070 1BDD     		ble	.L290
 4143              	.L292:
 4144              		.loc 1 688 0
 4145 0072 0222     		movs	r2, #2
 4146 0074 1A70     		strb	r2, [r3]
 4147              	.L270:
 4148              		.loc 1 694 0
 4149 0076 03B0     		add	sp, sp, #12
 4150              		.cfi_remember_state
 4151              		.cfi_def_cfa_offset 12
 4152              		@ sp needed
 4153 0078 30BD     		pop	{r4, r5, pc}
 4154              	.LVL354:
 4155              	.L293:
 4156              		.cfi_restore_state
 4157              		.loc 1 667 0
 4158 007a 1148     		ldr	r0, .L295+4
 4159              	.LBB115:
 4160              	.LBB116:
 4161              		.loc 1 885 0
ARM GAS  /var/folders/sv/kgmgr77579zbf78p2zlhkdfr0000gn/T//ccItzhl5.s 			page 74


 4162 007c 1249     		ldr	r1, .L295+12
 4163              		.loc 1 886 0
 4164 007e 144A     		ldr	r2, .L295+20
 4165              		.loc 1 885 0
 4166 0080 0023     		movs	r3, #0
 4167              	.LBE116:
 4168              	.LBE115:
 4169              		.loc 1 667 0
 4170 0082 0724     		movs	r4, #7
 4171 0084 0470     		strb	r4, [r0]
 4172              	.LBB118:
 4173              	.LBB117:
 4174              		.loc 1 885 0
 4175 0086 0B70     		strb	r3, [r1]
 4176              		.loc 1 886 0
 4177 0088 1360     		str	r3, [r2]
 4178              		.loc 1 887 0
 4179 008a FFF7FEFF 		bl	stop_pwm_hw
 4180              	.LVL355:
 4181              	.LBE117:
 4182              	.LBE118:
 4183              		.loc 1 694 0
 4184 008e 03B0     		add	sp, sp, #12
 4185              		.cfi_remember_state
 4186              		.cfi_def_cfa_offset 12
 4187              		@ sp needed
 4188 0090 30BD     		pop	{r4, r5, pc}
 4189              	.LVL356:
 4190              	.L294:
 4191              		.cfi_restore_state
 4192              		.loc 1 681 0
 4193 0092 1049     		ldr	r1, .L295+24
 4194 0094 9FED107A 		vldr.32	s14, .L295+28
 4195 0098 D1ED007A 		vldr.32	s15, [r1]
 4196 009c F0EEE77A 		vabs.f32	s15, s15
 4197 00a0 F4EEC77A 		vcmpe.f32	s15, s14
 4198 00a4 F1EE10FA 		vmrs	APSR_nzcv, FPSCR
 4199 00a8 E3DC     		bgt	.L292
 4200              	.L290:
 4201              	.LBB119:
 4202              	.LBB120:
 4203              		.loc 1 914 0
 4204 00aa 0949     		ldr	r1, .L295+20
 4205              		.loc 1 913 0
 4206 00ac 1A70     		strb	r2, [r3]
 4207              		.loc 1 914 0
 4208 00ae 0023     		movs	r3, #0
 4209 00b0 0B60     		str	r3, [r1]
 4210              		.loc 1 915 0
 4211 00b2 FFF7FEFF 		bl	full_brake_hw
 4212              	.LVL357:
 4213              	.LBE120:
 4214              	.LBE119:
 4215              		.loc 1 694 0
 4216 00b6 03B0     		add	sp, sp, #12
 4217              		.cfi_def_cfa_offset 12
 4218              		@ sp needed
ARM GAS  /var/folders/sv/kgmgr77579zbf78p2zlhkdfr0000gn/T//ccItzhl5.s 			page 75


 4219 00b8 30BD     		pop	{r4, r5, pc}
 4220              	.LVL358:
 4221              	.L296:
 4222 00ba 00BF     		.align	2
 4223              	.L295:
 4224 00bc 00000000 		.word	.LANCHOR0
 4225 00c0 00000000 		.word	.LANCHOR37
 4226 00c4 00000000 		.word	.LANCHOR36
 4227 00c8 00000000 		.word	.LANCHOR2
 4228 00cc 00000000 		.word	.LANCHOR10
 4229 00d0 00000000 		.word	.LANCHOR40
 4230 00d4 00000000 		.word	.LANCHOR24
 4231 00d8 CDCCCC3D 		.word	1036831949
 4232              		.cfi_endproc
 4233              	.LFE268:
 4234              		.size	mcpwm_set_brake_current, .-mcpwm_set_brake_current
 4235              		.section	.text.mcpwm_get_comm_step,"ax",%progbits
 4236              		.align	2
 4237              		.p2align 4,,15
 4238              		.global	mcpwm_get_comm_step
 4239              		.thumb
 4240              		.thumb_func
 4241              		.type	mcpwm_get_comm_step, %function
 4242              	mcpwm_get_comm_step:
 4243              	.LFB269:
 4244              		.loc 1 702 0
 4245              		.cfi_startproc
 4246              		@ args = 0, pretend = 0, frame = 0
 4247              		@ frame_needed = 0, uses_anonymous_args = 0
 4248              		@ link register save eliminated.
 4249              		.loc 1 703 0
 4250 0000 014B     		ldr	r3, .L298
 4251 0002 1868     		ldr	r0, [r3]
 4252              		.loc 1 704 0
 4253 0004 7047     		bx	lr
 4254              	.L299:
 4255 0006 00BF     		.align	2
 4256              	.L298:
 4257 0008 00000000 		.word	.LANCHOR3
 4258              		.cfi_endproc
 4259              	.LFE269:
 4260              		.size	mcpwm_get_comm_step, .-mcpwm_get_comm_step
 4261              		.section	.text.mcpwm_get_duty_cycle_set,"ax",%progbits
 4262              		.align	2
 4263              		.p2align 4,,15
 4264              		.global	mcpwm_get_duty_cycle_set
 4265              		.thumb
 4266              		.thumb_func
 4267              		.type	mcpwm_get_duty_cycle_set, %function
 4268              	mcpwm_get_duty_cycle_set:
 4269              	.LFB270:
 4270              		.loc 1 706 0
 4271              		.cfi_startproc
 4272              		@ args = 0, pretend = 0, frame = 0
 4273              		@ frame_needed = 0, uses_anonymous_args = 0
 4274              		@ link register save eliminated.
 4275              		.loc 1 707 0
ARM GAS  /var/folders/sv/kgmgr77579zbf78p2zlhkdfr0000gn/T//ccItzhl5.s 			page 76


 4276 0000 014B     		ldr	r3, .L301
 4277 0002 93ED000A 		vldr.32	s0, [r3]
 4278              		.loc 1 708 0
 4279 0006 7047     		bx	lr
 4280              	.L302:
 4281              		.align	2
 4282              	.L301:
 4283 0008 00000000 		.word	.LANCHOR33
 4284              		.cfi_endproc
 4285              	.LFE270:
 4286              		.size	mcpwm_get_duty_cycle_set, .-mcpwm_get_duty_cycle_set
 4287              		.section	.text.mcpwm_get_duty_cycle_now,"ax",%progbits
 4288              		.align	2
 4289              		.p2align 4,,15
 4290              		.global	mcpwm_get_duty_cycle_now
 4291              		.thumb
 4292              		.thumb_func
 4293              		.type	mcpwm_get_duty_cycle_now, %function
 4294              	mcpwm_get_duty_cycle_now:
 4295              	.LFB271:
 4296              		.loc 1 710 0
 4297              		.cfi_startproc
 4298              		@ args = 0, pretend = 0, frame = 0
 4299              		@ frame_needed = 0, uses_anonymous_args = 0
 4300              		@ link register save eliminated.
 4301              		.loc 1 711 0
 4302 0000 014B     		ldr	r3, .L304
 4303 0002 93ED000A 		vldr.32	s0, [r3]
 4304              		.loc 1 712 0
 4305 0006 7047     		bx	lr
 4306              	.L305:
 4307              		.align	2
 4308              	.L304:
 4309 0008 00000000 		.word	.LANCHOR24
 4310              		.cfi_endproc
 4311              	.LFE271:
 4312              		.size	mcpwm_get_duty_cycle_now, .-mcpwm_get_duty_cycle_now
 4313              		.section	.text.mcpwm_get_switching_frequency_now,"ax",%progbits
 4314              		.align	2
 4315              		.p2align 4,,15
 4316              		.global	mcpwm_get_switching_frequency_now
 4317              		.thumb
 4318              		.thumb_func
 4319              		.type	mcpwm_get_switching_frequency_now, %function
 4320              	mcpwm_get_switching_frequency_now:
 4321              	.LFB272:
 4322              		.loc 1 720 0
 4323              		.cfi_startproc
 4324              		@ args = 0, pretend = 0, frame = 0
 4325              		@ frame_needed = 0, uses_anonymous_args = 0
 4326              		@ link register save eliminated.
 4327              		.loc 1 721 0
 4328 0000 014B     		ldr	r3, .L307
 4329 0002 93ED000A 		vldr.32	s0, [r3]
 4330              		.loc 1 722 0
 4331 0006 7047     		bx	lr
 4332              	.L308:
ARM GAS  /var/folders/sv/kgmgr77579zbf78p2zlhkdfr0000gn/T//ccItzhl5.s 			page 77


 4333              		.align	2
 4334              	.L307:
 4335 0008 00000000 		.word	.LANCHOR13
 4336              		.cfi_endproc
 4337              	.LFE272:
 4338              		.size	mcpwm_get_switching_frequency_now, .-mcpwm_get_switching_frequency_now
 4339              		.section	.text.mcpwm_get_rpm,"ax",%progbits
 4340              		.align	2
 4341              		.p2align 4,,15
 4342              		.global	mcpwm_get_rpm
 4343              		.thumb
 4344              		.thumb_func
 4345              		.type	mcpwm_get_rpm, %function
 4346              	mcpwm_get_rpm:
 4347              	.LFB273:
 4348              		.loc 1 732 0
 4349              		.cfi_startproc
 4350              		@ args = 0, pretend = 0, frame = 0
 4351              		@ frame_needed = 0, uses_anonymous_args = 0
 4352              		@ link register save eliminated.
 4353              		.loc 1 733 0
 4354 0000 064B     		ldr	r3, .L313
 4355 0002 1B68     		ldr	r3, [r3]
 4356 0004 1BB1     		cbz	r3, .L312
 4357              		.loc 1 733 0 is_stmt 0 discriminator 2
 4358 0006 064B     		ldr	r3, .L313+4
 4359 0008 93ED000A 		vldr.32	s0, [r3]
 4360              		.loc 1 734 0 is_stmt 1 discriminator 2
 4361 000c 7047     		bx	lr
 4362              	.L312:
 4363              		.loc 1 733 0 discriminator 1
 4364 000e 044B     		ldr	r3, .L313+4
 4365 0010 93ED000A 		vldr.32	s0, [r3]
 4366 0014 B1EE400A 		vneg.f32	s0, s0
 4367 0018 7047     		bx	lr
 4368              	.L314:
 4369 001a 00BF     		.align	2
 4370              	.L313:
 4371 001c 00000000 		.word	.LANCHOR4
 4372 0020 00000000 		.word	.LANCHOR10
 4373              		.cfi_endproc
 4374              	.LFE273:
 4375              		.size	mcpwm_get_rpm, .-mcpwm_get_rpm
 4376              		.section	.text.mcpwm_get_state,"ax",%progbits
 4377              		.align	2
 4378              		.p2align 4,,15
 4379              		.global	mcpwm_get_state
 4380              		.thumb
 4381              		.thumb_func
 4382              		.type	mcpwm_get_state, %function
 4383              	mcpwm_get_state:
 4384              	.LFB274:
 4385              		.loc 1 736 0
 4386              		.cfi_startproc
 4387              		@ args = 0, pretend = 0, frame = 0
 4388              		@ frame_needed = 0, uses_anonymous_args = 0
 4389              		@ link register save eliminated.
ARM GAS  /var/folders/sv/kgmgr77579zbf78p2zlhkdfr0000gn/T//ccItzhl5.s 			page 78


 4390              		.loc 1 737 0
 4391 0000 014B     		ldr	r3, .L316
 4392 0002 1878     		ldrb	r0, [r3]	@ zero_extendqisi2
 4393              		.loc 1 738 0
 4394 0004 7047     		bx	lr
 4395              	.L317:
 4396 0006 00BF     		.align	2
 4397              	.L316:
 4398 0008 00000000 		.word	.LANCHOR2
 4399              		.cfi_endproc
 4400              	.LFE274:
 4401              		.size	mcpwm_get_state, .-mcpwm_get_state
 4402              		.section	.text.mcpwm_get_kv,"ax",%progbits
 4403              		.align	2
 4404              		.p2align 4,,15
 4405              		.global	mcpwm_get_kv
 4406              		.thumb
 4407              		.thumb_func
 4408              		.type	mcpwm_get_kv, %function
 4409              	mcpwm_get_kv:
 4410              	.LFB275:
 4411              		.loc 1 748 0
 4412              		.cfi_startproc
 4413              		@ args = 0, pretend = 0, frame = 0
 4414              		@ frame_needed = 0, uses_anonymous_args = 0
 4415              		@ link register save eliminated.
 4416              		.loc 1 749 0
 4417 0000 0D4A     		ldr	r2, .L319
 4418 0002 0E4B     		ldr	r3, .L319+4
 4419 0004 92ED000A 		vldr.32	s0, [r2]
 4420 0008 1B8A     		ldrh	r3, [r3, #16]
 4421 000a 9FED0D6A 		vldr.32	s12, .L319+8
 4422 000e 0D4A     		ldr	r2, .L319+12
 4423 0010 DFED0D7A 		vldr.32	s15, .L319+16
 4424 0014 D2ED006A 		vldr.32	s13, [r2]
 4425 0018 9BB2     		uxth	r3, r3
 4426 001a 07EE103A 		vmov	s14, r3	@ int
 4427 001e B8EE477A 		vcvt.f32.u32	s14, s14
 4428 0022 F0EEE66A 		vabs.f32	s13, s13
 4429 0026 27EE067A 		vmul.f32	s14, s14, s12
 4430 002a 67EE277A 		vmul.f32	s15, s14, s15
 4431 002e 67EEA67A 		vmul.f32	s15, s15, s13
 4432              		.loc 1 750 0
 4433 0032 80EE270A 		vdiv.f32	s0, s0, s15
 4434 0036 7047     		bx	lr
 4435              	.L320:
 4436              		.align	2
 4437              	.L319:
 4438 0038 00000000 		.word	.LANCHOR10
 4439 003c 00000000 		.word	ADC_Value
 4440 0040 6740533A 		.word	978534503
 4441 0044 00000000 		.word	.LANCHOR24
 4442 0048 74D19541 		.word	1100337524
 4443              		.cfi_endproc
 4444              	.LFE275:
 4445              		.size	mcpwm_get_kv, .-mcpwm_get_kv
 4446              		.section	.text.mcpwm_get_kv_filtered,"ax",%progbits
ARM GAS  /var/folders/sv/kgmgr77579zbf78p2zlhkdfr0000gn/T//ccItzhl5.s 			page 79


 4447              		.align	2
 4448              		.p2align 4,,15
 4449              		.global	mcpwm_get_kv_filtered
 4450              		.thumb
 4451              		.thumb_func
 4452              		.type	mcpwm_get_kv_filtered, %function
 4453              	mcpwm_get_kv_filtered:
 4454              	.LFB276:
 4455              		.loc 1 760 0
 4456              		.cfi_startproc
 4457              		@ args = 0, pretend = 0, frame = 0
 4458              		@ frame_needed = 0, uses_anonymous_args = 0
 4459              		@ link register save eliminated.
 4460              		.loc 1 761 0
 4461 0000 034B     		ldr	r3, .L322
 4462 0002 0449     		ldr	r1, .L322+4
 4463 0004 1B68     		ldr	r3, [r3]
 4464 0006 0448     		ldr	r0, .L322+8
 4465 0008 0722     		movs	r2, #7
 4466 000a FFF7FEBF 		b	filter_run_fir_iteration
 4467              	.LVL359:
 4468              	.L323:
 4469 000e 00BF     		.align	2
 4470              	.L322:
 4471 0010 00000000 		.word	.LANCHOR26
 4472 0014 00000000 		.word	.LANCHOR46
 4473 0018 00000000 		.word	.LANCHOR27
 4474              		.cfi_endproc
 4475              	.LFE276:
 4476              		.size	mcpwm_get_kv_filtered, .-mcpwm_get_kv_filtered
 4477              		.section	.text.mcpwm_get_tot_current,"ax",%progbits
 4478              		.align	2
 4479              		.p2align 4,,15
 4480              		.global	mcpwm_get_tot_current
 4481              		.thumb
 4482              		.thumb_func
 4483              		.type	mcpwm_get_tot_current, %function
 4484              	mcpwm_get_tot_current:
 4485              	.LFB277:
 4486              		.loc 1 775 0
 4487              		.cfi_startproc
 4488              		@ args = 0, pretend = 0, frame = 0
 4489              		@ frame_needed = 0, uses_anonymous_args = 0
 4490              		@ link register save eliminated.
 4491              		.loc 1 776 0
 4492 0000 014B     		ldr	r3, .L325
 4493 0002 93ED000A 		vldr.32	s0, [r3]
 4494              		.loc 1 777 0
 4495 0006 7047     		bx	lr
 4496              	.L326:
 4497              		.align	2
 4498              	.L325:
 4499 0008 00000000 		.word	.LANCHOR38
 4500              		.cfi_endproc
 4501              	.LFE277:
 4502              		.size	mcpwm_get_tot_current, .-mcpwm_get_tot_current
 4503              		.section	.text.mcpwm_get_tot_current_filtered,"ax",%progbits
ARM GAS  /var/folders/sv/kgmgr77579zbf78p2zlhkdfr0000gn/T//ccItzhl5.s 			page 80


 4504              		.align	2
 4505              		.p2align 4,,15
 4506              		.global	mcpwm_get_tot_current_filtered
 4507              		.thumb
 4508              		.thumb_func
 4509              		.type	mcpwm_get_tot_current_filtered, %function
 4510              	mcpwm_get_tot_current_filtered:
 4511              	.LFB278:
 4512              		.loc 1 787 0
 4513              		.cfi_startproc
 4514              		@ args = 0, pretend = 0, frame = 0
 4515              		@ frame_needed = 0, uses_anonymous_args = 0
 4516              		@ link register save eliminated.
 4517              		.loc 1 788 0
 4518 0000 014B     		ldr	r3, .L328
 4519 0002 93ED000A 		vldr.32	s0, [r3]
 4520              		.loc 1 789 0
 4521 0006 7047     		bx	lr
 4522              	.L329:
 4523              		.align	2
 4524              	.L328:
 4525 0008 00000000 		.word	.LANCHOR39
 4526              		.cfi_endproc
 4527              	.LFE278:
 4528              		.size	mcpwm_get_tot_current_filtered, .-mcpwm_get_tot_current_filtered
 4529              		.section	.text.mcpwm_get_tot_current_directional,"ax",%progbits
 4530              		.align	2
 4531              		.p2align 4,,15
 4532              		.global	mcpwm_get_tot_current_directional
 4533              		.thumb
 4534              		.thumb_func
 4535              		.type	mcpwm_get_tot_current_directional, %function
 4536              	mcpwm_get_tot_current_directional:
 4537              	.LFB279:
 4538              		.loc 1 798 0
 4539              		.cfi_startproc
 4540              		@ args = 0, pretend = 0, frame = 0
 4541              		@ frame_needed = 0, uses_anonymous_args = 0
 4542              		@ link register save eliminated.
 4543              	.LBB121:
 4544              	.LBB122:
 4545              		.loc 1 776 0
 4546 0000 064A     		ldr	r2, .L333
 4547              	.LBE122:
 4548              	.LBE121:
 4549              		.loc 1 800 0
 4550 0002 074B     		ldr	r3, .L333+4
 4551              	.LBB124:
 4552              	.LBB123:
 4553              		.loc 1 776 0
 4554 0004 92ED000A 		vldr.32	s0, [r2]
 4555              	.LBE123:
 4556              	.LBE124:
 4557              		.loc 1 800 0
 4558 0008 D3ED007A 		vldr.32	s15, [r3]
 4559 000c F5EEC07A 		vcmpe.f32	s15, #0
 4560 0010 F1EE10FA 		vmrs	APSR_nzcv, FPSCR
ARM GAS  /var/folders/sv/kgmgr77579zbf78p2zlhkdfr0000gn/T//ccItzhl5.s 			page 81


 4561 0014 D8BF     		it	le
 4562 0016 B1EE400A 		vnegle.f32	s0, s0
 4563              		.loc 1 801 0
 4564 001a 7047     		bx	lr
 4565              	.L334:
 4566              		.align	2
 4567              	.L333:
 4568 001c 00000000 		.word	.LANCHOR38
 4569 0020 00000000 		.word	.LANCHOR24
 4570              		.cfi_endproc
 4571              	.LFE279:
 4572              		.size	mcpwm_get_tot_current_directional, .-mcpwm_get_tot_current_directional
 4573              		.section	.text.mcpwm_get_tot_current_directional_filtered,"ax",%progbits
 4574              		.align	2
 4575              		.p2align 4,,15
 4576              		.global	mcpwm_get_tot_current_directional_filtered
 4577              		.thumb
 4578              		.thumb_func
 4579              		.type	mcpwm_get_tot_current_directional_filtered, %function
 4580              	mcpwm_get_tot_current_directional_filtered:
 4581              	.LFB280:
 4582              		.loc 1 810 0
 4583              		.cfi_startproc
 4584              		@ args = 0, pretend = 0, frame = 0
 4585              		@ frame_needed = 0, uses_anonymous_args = 0
 4586              		@ link register save eliminated.
 4587              	.LBB125:
 4588              	.LBB126:
 4589              		.loc 1 788 0
 4590 0000 064A     		ldr	r2, .L338
 4591              	.LBE126:
 4592              	.LBE125:
 4593              		.loc 1 812 0
 4594 0002 074B     		ldr	r3, .L338+4
 4595              	.LBB128:
 4596              	.LBB127:
 4597              		.loc 1 788 0
 4598 0004 92ED000A 		vldr.32	s0, [r2]
 4599              	.LBE127:
 4600              	.LBE128:
 4601              		.loc 1 812 0
 4602 0008 D3ED007A 		vldr.32	s15, [r3]
 4603 000c F5EEC07A 		vcmpe.f32	s15, #0
 4604 0010 F1EE10FA 		vmrs	APSR_nzcv, FPSCR
 4605 0014 D8BF     		it	le
 4606 0016 B1EE400A 		vnegle.f32	s0, s0
 4607              		.loc 1 813 0
 4608 001a 7047     		bx	lr
 4609              	.L339:
 4610              		.align	2
 4611              	.L338:
 4612 001c 00000000 		.word	.LANCHOR39
 4613 0020 00000000 		.word	.LANCHOR24
 4614              		.cfi_endproc
 4615              	.LFE280:
 4616              		.size	mcpwm_get_tot_current_directional_filtered, .-mcpwm_get_tot_current_directional_filtered
 4617              		.section	.text.mcpwm_get_tot_current_in,"ax",%progbits
ARM GAS  /var/folders/sv/kgmgr77579zbf78p2zlhkdfr0000gn/T//ccItzhl5.s 			page 82


 4618              		.align	2
 4619              		.p2align 4,,15
 4620              		.global	mcpwm_get_tot_current_in
 4621              		.thumb
 4622              		.thumb_func
 4623              		.type	mcpwm_get_tot_current_in, %function
 4624              	mcpwm_get_tot_current_in:
 4625              	.LFB281:
 4626              		.loc 1 821 0
 4627              		.cfi_startproc
 4628              		@ args = 0, pretend = 0, frame = 0
 4629              		@ frame_needed = 0, uses_anonymous_args = 0
 4630              		@ link register save eliminated.
 4631              	.LBB129:
 4632              	.LBB130:
 4633              		.loc 1 776 0
 4634 0000 054A     		ldr	r2, .L341
 4635              	.LBE130:
 4636              	.LBE129:
 4637              		.loc 1 822 0
 4638 0002 064B     		ldr	r3, .L341+4
 4639              	.LBB132:
 4640              	.LBB131:
 4641              		.loc 1 776 0
 4642 0004 92ED000A 		vldr.32	s0, [r2]
 4643              	.LBE131:
 4644              	.LBE132:
 4645              		.loc 1 822 0
 4646 0008 D3ED007A 		vldr.32	s15, [r3]
 4647 000c F0EEE77A 		vabs.f32	s15, s15
 4648              		.loc 1 823 0
 4649 0010 27EE800A 		vmul.f32	s0, s15, s0
 4650 0014 7047     		bx	lr
 4651              	.L342:
 4652 0016 00BF     		.align	2
 4653              	.L341:
 4654 0018 00000000 		.word	.LANCHOR38
 4655 001c 00000000 		.word	.LANCHOR24
 4656              		.cfi_endproc
 4657              	.LFE281:
 4658              		.size	mcpwm_get_tot_current_in, .-mcpwm_get_tot_current_in
 4659              		.section	.text.mcpwm_get_tot_current_in_filtered,"ax",%progbits
 4660              		.align	2
 4661              		.p2align 4,,15
 4662              		.global	mcpwm_get_tot_current_in_filtered
 4663              		.thumb
 4664              		.thumb_func
 4665              		.type	mcpwm_get_tot_current_in_filtered, %function
 4666              	mcpwm_get_tot_current_in_filtered:
 4667              	.LFB282:
 4668              		.loc 1 831 0
 4669              		.cfi_startproc
 4670              		@ args = 0, pretend = 0, frame = 0
 4671              		@ frame_needed = 0, uses_anonymous_args = 0
 4672              		@ link register save eliminated.
 4673              	.LBB133:
 4674              	.LBB134:
ARM GAS  /var/folders/sv/kgmgr77579zbf78p2zlhkdfr0000gn/T//ccItzhl5.s 			page 83


 4675              		.loc 1 788 0
 4676 0000 054A     		ldr	r2, .L344
 4677              	.LBE134:
 4678              	.LBE133:
 4679              		.loc 1 832 0
 4680 0002 064B     		ldr	r3, .L344+4
 4681              	.LBB136:
 4682              	.LBB135:
 4683              		.loc 1 788 0
 4684 0004 92ED000A 		vldr.32	s0, [r2]
 4685              	.LBE135:
 4686              	.LBE136:
 4687              		.loc 1 832 0
 4688 0008 D3ED007A 		vldr.32	s15, [r3]
 4689 000c F0EEE77A 		vabs.f32	s15, s15
 4690              		.loc 1 833 0
 4691 0010 27EE800A 		vmul.f32	s0, s15, s0
 4692 0014 7047     		bx	lr
 4693              	.L345:
 4694 0016 00BF     		.align	2
 4695              	.L344:
 4696 0018 00000000 		.word	.LANCHOR39
 4697 001c 00000000 		.word	.LANCHOR24
 4698              		.cfi_endproc
 4699              	.LFE282:
 4700              		.size	mcpwm_get_tot_current_in_filtered, .-mcpwm_get_tot_current_in_filtered
 4701              		.section	.text.mcpwm_get_tachometer_value,"ax",%progbits
 4702              		.align	2
 4703              		.p2align 4,,15
 4704              		.global	mcpwm_get_tachometer_value
 4705              		.thumb
 4706              		.thumb_func
 4707              		.type	mcpwm_get_tachometer_value, %function
 4708              	mcpwm_get_tachometer_value:
 4709              	.LFB283:
 4710              		.loc 1 846 0
 4711              		.cfi_startproc
 4712              		@ args = 0, pretend = 0, frame = 0
 4713              		@ frame_needed = 0, uses_anonymous_args = 0
 4714              		@ link register save eliminated.
 4715              	.LVL360:
 4716              		.loc 1 847 0
 4717 0000 034B     		ldr	r3, .L351
 4718 0002 1A68     		ldr	r2, [r3]
 4719              	.LVL361:
 4720              		.loc 1 849 0
 4721 0004 08B1     		cbz	r0, .L347
 4722              		.loc 1 850 0
 4723 0006 0021     		movs	r1, #0
 4724 0008 1960     		str	r1, [r3]
 4725              	.L347:
 4726              		.loc 1 854 0
 4727 000a 1046     		mov	r0, r2
 4728              	.LVL362:
 4729 000c 7047     		bx	lr
 4730              	.L352:
 4731 000e 00BF     		.align	2
ARM GAS  /var/folders/sv/kgmgr77579zbf78p2zlhkdfr0000gn/T//ccItzhl5.s 			page 84


 4732              	.L351:
 4733 0010 00000000 		.word	.LANCHOR9
 4734              		.cfi_endproc
 4735              	.LFE283:
 4736              		.size	mcpwm_get_tachometer_value, .-mcpwm_get_tachometer_value
 4737              		.section	.text.mcpwm_get_tachometer_abs_value,"ax",%progbits
 4738              		.align	2
 4739              		.p2align 4,,15
 4740              		.global	mcpwm_get_tachometer_abs_value
 4741              		.thumb
 4742              		.thumb_func
 4743              		.type	mcpwm_get_tachometer_abs_value, %function
 4744              	mcpwm_get_tachometer_abs_value:
 4745              	.LFB284:
 4746              		.loc 1 866 0
 4747              		.cfi_startproc
 4748              		@ args = 0, pretend = 0, frame = 0
 4749              		@ frame_needed = 0, uses_anonymous_args = 0
 4750              		@ link register save eliminated.
 4751              	.LVL363:
 4752              		.loc 1 867 0
 4753 0000 034B     		ldr	r3, .L358
 4754 0002 1A68     		ldr	r2, [r3]
 4755              	.LVL364:
 4756              		.loc 1 869 0
 4757 0004 08B1     		cbz	r0, .L354
 4758              		.loc 1 870 0
 4759 0006 0021     		movs	r1, #0
 4760 0008 1960     		str	r1, [r3]
 4761              	.L354:
 4762              		.loc 1 874 0
 4763 000a 1046     		mov	r0, r2
 4764              	.LVL365:
 4765 000c 7047     		bx	lr
 4766              	.L359:
 4767 000e 00BF     		.align	2
 4768              	.L358:
 4769 0010 00000000 		.word	.LANCHOR8
 4770              		.cfi_endproc
 4771              	.LFE284:
 4772              		.size	mcpwm_get_tachometer_abs_value, .-mcpwm_get_tachometer_abs_value
 4773              		.section	.text.mcpwm_stop_pwm,"ax",%progbits
 4774              		.align	2
 4775              		.p2align 4,,15
 4776              		.global	mcpwm_stop_pwm
 4777              		.thumb
 4778              		.thumb_func
 4779              		.type	mcpwm_stop_pwm, %function
 4780              	mcpwm_stop_pwm:
 4781              	.LFB285:
 4782              		.loc 1 879 0
 4783              		.cfi_startproc
 4784              		@ args = 0, pretend = 0, frame = 0
 4785              		@ frame_needed = 0, uses_anonymous_args = 0
 4786              		@ link register save eliminated.
 4787              		.loc 1 880 0
 4788 0000 0648     		ldr	r0, .L362
ARM GAS  /var/folders/sv/kgmgr77579zbf78p2zlhkdfr0000gn/T//ccItzhl5.s 			page 85


 4789              	.LBB137:
 4790              	.LBB138:
 4791              		.loc 1 885 0
 4792 0002 0749     		ldr	r1, .L362+4
 4793              		.loc 1 886 0
 4794 0004 074A     		ldr	r2, .L362+8
 4795              	.LBE138:
 4796              	.LBE137:
 4797              		.loc 1 879 0
 4798 0006 10B4     		push	{r4}
 4799              		.cfi_def_cfa_offset 4
 4800              		.cfi_offset 4, -4
 4801              		.loc 1 880 0
 4802 0008 0724     		movs	r4, #7
 4803 000a 0470     		strb	r4, [r0]
 4804              	.LBB141:
 4805              	.LBB139:
 4806              		.loc 1 885 0
 4807 000c 0023     		movs	r3, #0
 4808              	.LBE139:
 4809              	.LBE141:
 4810              		.loc 1 882 0
 4811 000e 5DF8044B 		ldr	r4, [sp], #4
 4812              		.cfi_restore 4
 4813              		.cfi_def_cfa_offset 0
 4814              	.LBB142:
 4815              	.LBB140:
 4816              		.loc 1 885 0
 4817 0012 0B70     		strb	r3, [r1]
 4818              		.loc 1 886 0
 4819 0014 1360     		str	r3, [r2]
 4820              		.loc 1 887 0
 4821 0016 FFF7FEBF 		b	stop_pwm_hw
 4822              	.LVL366:
 4823              	.L363:
 4824 001a 00BF     		.align	2
 4825              	.L362:
 4826 001c 00000000 		.word	.LANCHOR37
 4827 0020 00000000 		.word	.LANCHOR2
 4828 0024 00000000 		.word	.LANCHOR40
 4829              	.LBE140:
 4830              	.LBE142:
 4831              		.cfi_endproc
 4832              	.LFE285:
 4833              		.size	mcpwm_stop_pwm, .-mcpwm_stop_pwm
 4834              		.section	.text.mcpwm_adc_inj_int_handler,"ax",%progbits
 4835              		.align	2
 4836              		.p2align 4,,15
 4837              		.global	mcpwm_adc_inj_int_handler
 4838              		.thumb
 4839              		.thumb_func
 4840              		.type	mcpwm_adc_inj_int_handler, %function
 4841              	mcpwm_adc_inj_int_handler:
 4842              	.LFB297:
 4843              		.loc 1 1427 0
 4844              		.cfi_startproc
 4845              		@ args = 0, pretend = 0, frame = 0
ARM GAS  /var/folders/sv/kgmgr77579zbf78p2zlhkdfr0000gn/T//ccItzhl5.s 			page 86


 4846              		@ frame_needed = 0, uses_anonymous_args = 0
 4847 0000 F8B5     		push	{r3, r4, r5, r6, r7, lr}
 4848              		.cfi_def_cfa_offset 24
 4849              		.cfi_offset 3, -24
 4850              		.cfi_offset 4, -20
 4851              		.cfi_offset 5, -16
 4852              		.cfi_offset 6, -12
 4853              		.cfi_offset 7, -8
 4854              		.cfi_offset 14, -4
 4855              		.loc 1 1428 0
 4856 0002 AA4B     		ldr	r3, .L437
 4857              		.loc 1 1430 0
 4858 0004 AA48     		ldr	r0, .L437+4
 4859              		.loc 1 1479 0
 4860 0006 AB4F     		ldr	r7, .L437+8
 4861              		.loc 1 1482 0
 4862 0008 AB4E     		ldr	r6, .L437+12
 4863              		.loc 1 1428 0
 4864 000a 0022     		movs	r2, #0
 4865              		.loc 1 1427 0
 4866 000c 2DED028B 		vpush.64	{d8}
 4867              		.cfi_def_cfa_offset 32
 4868              		.cfi_offset 80, -32
 4869              		.cfi_offset 81, -28
 4870              		.loc 1 1430 0
 4871 0010 1421     		movs	r1, #20
 4872              		.loc 1 1428 0
 4873 0012 5A62     		str	r2, [r3, #36]
 4874              		.loc 1 1430 0
 4875 0014 FFF7FEFF 		bl	ADC_GetInjectedConversionValue
 4876              	.LVL367:
 4877              		.loc 1 1431 0
 4878 0018 1421     		movs	r1, #20
 4879              		.loc 1 1430 0
 4880 001a 0546     		mov	r5, r0
 4881              	.LVL368:
 4882              		.loc 1 1431 0
 4883 001c A748     		ldr	r0, .L437+16
 4884 001e FFF7FEFF 		bl	ADC_GetInjectedConversionValue
 4885              	.LVL369:
 4886              		.loc 1 1433 0
 4887 0022 1821     		movs	r1, #24
 4888              		.loc 1 1431 0
 4889 0024 0446     		mov	r4, r0
 4890              	.LVL370:
 4891              		.loc 1 1433 0
 4892 0026 A548     		ldr	r0, .L437+16
 4893 0028 FFF7FEFF 		bl	ADC_GetInjectedConversionValue
 4894              	.LVL371:
 4895              		.loc 1 1434 0
 4896 002c 1821     		movs	r1, #24
 4897 002e A048     		ldr	r0, .L437+4
 4898 0030 FFF7FEFF 		bl	ADC_GetInjectedConversionValue
 4899              	.LVL372:
 4900              		.loc 1 1446 0
 4901 0034 A24B     		ldr	r3, .L437+20
 4902              		.loc 1 1481 0
ARM GAS  /var/folders/sv/kgmgr77579zbf78p2zlhkdfr0000gn/T//ccItzhl5.s 			page 87


 4903 0036 A349     		ldr	r1, .L437+24
 4904              		.loc 1 1446 0
 4905 0038 1A68     		ldr	r2, [r3]
 4906 003a D207     		lsls	r2, r2, #31
 4907              		.loc 1 1447 0
 4908 003c 44BF     		itt	mi
 4909 003e A24A     		ldrmi	r2, .L437+28
 4910 0040 1089     		ldrhmi	r0, [r2, #8]
 4911              		.loc 1 1450 0
 4912 0042 1B68     		ldr	r3, [r3]
 4913              		.loc 1 1430 0
 4914 0044 54BF     		ite	pl
 4915 0046 2846     		movpl	r0, r5
 4916              		.loc 1 1447 0
 4917 0048 80B2     		uxthmi	r0, r0
 4918              	.LVL373:
 4919              		.loc 1 1450 0
 4920 004a 9B07     		lsls	r3, r3, #30
 4921              		.loc 1 1451 0
 4922 004c 48BF     		it	mi
 4923 004e 9E4B     		ldrmi	r3, .L437+28
 4924              		.loc 1 1474 0
 4925 0050 9E4D     		ldr	r5, .L437+32
 4926              	.LVL374:
 4927              		.loc 1 1451 0
 4928 0052 4CBF     		ite	mi
 4929 0054 DB88     		ldrhmi	r3, [r3, #6]
 4930              		.loc 1 1431 0
 4931 0056 2346     		movpl	r3, r4
 4932              		.loc 1 1473 0
 4933 0058 9D4C     		ldr	r4, .L437+36
 4934              	.LVL375:
 4935 005a 2268     		ldr	r2, [r4]
 4936 005c 0244     		add	r2, r2, r0
 4937 005e 2260     		str	r2, [r4]
 4938              		.loc 1 1474 0
 4939 0060 2A68     		ldr	r2, [r5]
 4940              		.loc 1 1511 0
 4941 0062 9C4C     		ldr	r4, .L437+40
 4942              		.loc 1 1451 0
 4943 0064 48BF     		it	mi
 4944 0066 9BB2     		uxthmi	r3, r3
 4945              	.LVL376:
 4946              		.loc 1 1474 0
 4947 0068 1A44     		add	r2, r2, r3
 4948 006a 2A60     		str	r2, [r5]
 4949              		.loc 1 1479 0
 4950 006c 3A68     		ldr	r2, [r7]
 4951              		.loc 1 1521 0
 4952 006e 9A4D     		ldr	r5, .L437+44
 4953              		.loc 1 1479 0
 4954 0070 0132     		adds	r2, r2, #1
 4955 0072 3A60     		str	r2, [r7]
 4956              		.loc 1 1481 0
 4957 0074 0A68     		ldr	r2, [r1]
 4958              		.loc 1 1482 0
 4959 0076 3268     		ldr	r2, [r6]
ARM GAS  /var/folders/sv/kgmgr77579zbf78p2zlhkdfr0000gn/T//ccItzhl5.s 			page 88


 4960              		.loc 1 1483 0
 4961 0078 0F68     		ldr	r7, [r1]
 4962              		.loc 1 1484 0
 4963 007a 3268     		ldr	r2, [r6]
 4964              		.loc 1 1485 0
 4965 007c D1F800E0 		ldr	lr, [r1]
 4966              		.loc 1 1486 0
 4967 0080 D6F800E0 		ldr	lr, [r6]
 4968              		.loc 1 1484 0
 4969 0084 9B1A     		subs	r3, r3, r2
 4970              	.LVL377:
 4971              		.loc 1 1483 0
 4972 0086 C01B     		subs	r0, r0, r7
 4973              	.LVL378:
 4974              		.loc 1 1511 0
 4975 0088 2060     		str	r0, [r4]
 4976              		.loc 1 1512 0
 4977 008a 6360     		str	r3, [r4, #4]
 4978              		.loc 1 1517 0
 4979 008c 2068     		ldr	r0, [r4]
 4980              	.LVL379:
 4981 008e 6368     		ldr	r3, [r4, #4]
 4982              	.LVL380:
 4983              		.loc 1 1521 0
 4984 0090 2A68     		ldr	r2, [r5]
 4985              		.loc 1 1517 0
 4986 0092 0344     		add	r3, r3, r0
 4987 0094 5B42     		negs	r3, r3
 4988 0096 A360     		str	r3, [r4, #8]
 4989              	.LVL381:
 4990              		.loc 1 1521 0
 4991 0098 9378     		ldrb	r3, [r2, #2]	@ zero_extendqisi2
 4992 009a 012B     		cmp	r3, #1
 4993 009c 23D0     		beq	.L431
 4994              	.LBB143:
 4995              		.loc 1 1554 0
 4996 009e 8F4E     		ldr	r6, .L437+48
 4997 00a0 3378     		ldrb	r3, [r6]	@ zero_extendqisi2
 4998 00a2 032B     		cmp	r3, #3
 4999 00a4 00F09081 		beq	.L432
 5000              	.LBB144:
 5001              		.loc 1 1583 0
 5002 00a8 8D4B     		ldr	r3, .L437+52
 5003 00aa 1B68     		ldr	r3, [r3]
 5004 00ac 6BB1     		cbz	r3, .L375
 5005              		.loc 1 1584 0
 5006 00ae 8D4B     		ldr	r3, .L437+56
 5007 00b0 1A68     		ldr	r2, [r3]
 5008 00b2 013A     		subs	r2, r2, #1
 5009 00b4 052A     		cmp	r2, #5
 5010 00b6 00F2BB81 		bhi	.L410
 5011 00ba DFE812F0 		tbh	[pc, r2, lsl #1]
 5012              	.L378:
 5013 00be 7200     		.2byte	(.L388-.L378)/2
 5014 00c0 7200     		.2byte	(.L388-.L378)/2
 5015 00c2 ED00     		.2byte	(.L386-.L378)/2
 5016 00c4 F200     		.2byte	(.L384-.L378)/2
ARM GAS  /var/folders/sv/kgmgr77579zbf78p2zlhkdfr0000gn/T//ccItzhl5.s 			page 89


 5017 00c6 E600     		.2byte	(.L390-.L378)/2
 5018 00c8 E600     		.2byte	(.L390-.L378)/2
 5019              		.p2align 1
 5020              	.L375:
 5021              		.loc 1 1594 0
 5022 00ca 864B     		ldr	r3, .L437+56
 5023 00cc 1A68     		ldr	r2, [r3]
 5024 00ce 013A     		subs	r2, r2, #1
 5025 00d0 052A     		cmp	r2, #5
 5026 00d2 00F2AD81 		bhi	.L410
 5027 00d6 DFE812F0 		tbh	[pc, r2, lsl #1]
 5028              	.L385:
 5029 00da E400     		.2byte	(.L384-.L385)/2
 5030 00dc DF00     		.2byte	(.L386-.L385)/2
 5031 00de 6400     		.2byte	(.L388-.L385)/2
 5032 00e0 6400     		.2byte	(.L388-.L385)/2
 5033 00e2 D800     		.2byte	(.L390-.L385)/2
 5034 00e4 D800     		.2byte	(.L390-.L385)/2
 5035              		.p2align 1
 5036              	.L431:
 5037              	.LBE144:
 5038              	.LBE143:
 5039              		.loc 1 1522 0
 5040 00e6 7E4B     		ldr	r3, .L437+52
 5041 00e8 1B68     		ldr	r3, [r3]
 5042 00ea 002B     		cmp	r3, #0
 5043 00ec 55D1     		bne	.L433
 5044              		.loc 1 1529 0
 5045 00ee 764B     		ldr	r3, .L437+28
 5046 00f0 1B89     		ldrh	r3, [r3, #8]
 5047 00f2 0968     		ldr	r1, [r1]
 5048              	.L429:
 5049 00f4 9BB2     		uxth	r3, r3
 5050 00f6 5B1A     		subs	r3, r3, r1
 5051 00f8 00EE103A 		vmov	s0, r3	@ int
 5052 00fc B8EEC00A 		vcvt.f32.s32	s0, s0
 5053 0100 B1EE408A 		vneg.f32	s16, s0
 5054              	.LVL382:
 5055              	.L371:
 5056              		.loc 1 1684 0
 5057 0104 9FED780A 		vldr.32	s0, .L437+60
 5058 0108 784B     		ldr	r3, .L437+64
 5059              		.loc 1 1687 0
 5060 010a 9FED796A 		vldr.32	s12, .L437+68
 5061              		.loc 1 1684 0
 5062 010e 28EE000A 		vmul.f32	s0, s16, s0
 5063 0112 83ED000A 		vstr.32	s0, [r3]
 5064              		.loc 1 1687 0
 5065 0116 D3ED006A 		vldr.32	s13, [r3]
 5066 011a 92ED057A 		vldr.32	s14, [r2, #20]
 5067 011e 27EE067A 		vmul.f32	s14, s14, s12
 5068 0122 F0EEE66A 		vabs.f32	s13, s13
 5069 0126 F4EEC76A 		vcmpe.f32	s13, s14
 5070 012a F1EE10FA 		vmrs	APSR_nzcv, FPSCR
 5071 012e 14DD     		ble	.L405
 5072              		.loc 1 1688 0
 5073 0130 93ED007A 		vldr.32	s14, [r3]
ARM GAS  /var/folders/sv/kgmgr77579zbf78p2zlhkdfr0000gn/T//ccItzhl5.s 			page 90


 5074 0134 D2ED057A 		vldr.32	s15, [r2, #20]
 5075 0138 B5EEC07A 		vcmpe.f32	s14, #0
 5076 013c F1EE10FA 		vmrs	APSR_nzcv, FPSCR
 5077 0140 BFEE007A 		vmov.f32	s14, #-1.0e+0
 5078 0144 F7EE006A 		vmov.f32	s13, #1.0e+0
 5079 0148 58BF     		it	pl
 5080 014a B0EE667A 		vmovpl.f32	s14, s13
 5081 014e 67EE277A 		vmul.f32	s15, s14, s15
 5082 0152 67EE867A 		vmul.f32	s15, s15, s12
 5083 0156 C3ED007A 		vstr.32	s15, [r3]
 5084              	.L405:
 5085              		.loc 1 1691 0
 5086 015a 664C     		ldr	r4, .L437+72
 5087 015c 93ED000A 		vldr.32	s0, [r3]
 5088 0160 6548     		ldr	r0, .L437+76
 5089 0162 2246     		mov	r2, r4
 5090 0164 0421     		movs	r1, #4
 5091 0166 FFF7FEFF 		bl	filter_add_sample
 5092              	.LVL383:
 5093              		.loc 1 1693 0
 5094 016a 2368     		ldr	r3, [r4]
 5095 016c 6349     		ldr	r1, .L437+80
 5096 016e 6248     		ldr	r0, .L437+76
 5097 0170 0422     		movs	r2, #4
 5098 0172 FFF7FEFF 		bl	filter_run_fir_iteration
 5099              	.LVL384:
 5100 0176 624A     		ldr	r2, .L437+84
 5101              		.loc 1 1697 0
 5102 0178 4C4B     		ldr	r3, .L437
 5103              		.loc 1 1693 0
 5104 017a 82ED000A 		vstr.32	s0, [r2]
 5105              		.loc 1 1697 0
 5106 017e D3ED097A 		vldr.32	s15, [r3, #36]	@ int
 5107 0182 DFED606A 		vldr.32	s13, .L437+88
 5108 0186 604B     		ldr	r3, .L437+92
 5109 0188 F8EE677A 		vcvt.f32.u32	s15, s15
 5110              		.loc 1 1698 0
 5111 018c BDEC028B 		vldm	sp!, {d8}
 5112              		.cfi_remember_state
 5113              		.cfi_restore 80
 5114              		.cfi_restore 81
 5115              		.cfi_def_cfa_offset 24
 5116              	.LVL385:
 5117              		.loc 1 1697 0
 5118 0190 87EEA67A 		vdiv.f32	s14, s15, s13
 5119 0194 83ED007A 		vstr.32	s14, [r3]
 5120              		.loc 1 1698 0
 5121 0198 F8BD     		pop	{r3, r4, r5, r6, r7, pc}
 5122              	.LVL386:
 5123              	.L433:
 5124              		.cfi_restore_state
 5125              		.loc 1 1526 0
 5126 019a 4B4B     		ldr	r3, .L437+28
 5127 019c DB88     		ldrh	r3, [r3, #6]
 5128 019e 3168     		ldr	r1, [r6]
 5129 01a0 A8E7     		b	.L429
 5130              	.L388:
ARM GAS  /var/folders/sv/kgmgr77579zbf78p2zlhkdfr0000gn/T//ccItzhl5.s 			page 91


 5131              	.LBB152:
 5132              	.LBB145:
 5133              		.loc 1 1598 0
 5134 01a2 D4ED017A 		vldr.32	s15, [r4, #4]	@ int
 5135 01a6 F8EEE77A 		vcvt.f32.s32	s15, s15
 5136 01aa F1EE677A 		vneg.f32	s15, s15
 5137              	.LVL387:
 5138              	.L376:
 5139              		.loc 1 1609 0
 5140 01ae 574A     		ldr	r2, .L437+96
 5141 01b0 1868     		ldr	r0, [r3]
 5142 01b2 1168     		ldr	r1, [r2]
 5143              		.loc 1 1612 0
 5144 01b4 1B68     		ldr	r3, [r3]
 5145 01b6 1360     		str	r3, [r2]
 5146              		.loc 1 1609 0
 5147 01b8 8842     		cmp	r0, r1
 5148              		.loc 1 1610 0
 5149 01ba 16BF     		itet	ne
 5150 01bc 5449     		ldrne	r1, .L437+100
 5151 01be 5449     		ldreq	r1, .L437+100
 5152 01c0 91ED008A 		vldrne.32	s16, [r1]
 5153              	.LVL388:
 5154              		.loc 1 1613 0
 5155 01c4 C1ED007A 		vstr.32	s15, [r1]
 5156 01c8 08BF     		it	eq
 5157 01ca B0EE678A 		vmoveq.f32	s16, s15
 5158              	.LVL389:
 5159              	.L374:
 5160              	.LBE145:
 5161              		.loc 1 1616 0
 5162 01ce 514F     		ldr	r7, .L437+104
 5163 01d0 3B68     		ldr	r3, [r7]
 5164 01d2 042B     		cmp	r3, #4
 5165 01d4 0AD0     		beq	.L434
 5166              	.L392:
 5167              		.loc 1 1663 0
 5168 01d6 002B     		cmp	r3, #0
 5169 01d8 00F0A680 		beq	.L401
 5170              		.loc 1 1667 0
 5171 01dc 3278     		ldrb	r2, [r6]	@ zero_extendqisi2
 5172              		.loc 1 1664 0
 5173 01de 013B     		subs	r3, r3, #1
 5174              		.loc 1 1667 0
 5175 01e0 012A     		cmp	r2, #1
 5176              		.loc 1 1664 0
 5177 01e2 3B60     		str	r3, [r7]
 5178              		.loc 1 1667 0
 5179 01e4 00F0EC80 		beq	.L435
 5180              	.L430:
 5181 01e8 2A68     		ldr	r2, [r5]
 5182 01ea 8BE7     		b	.L371
 5183              	.L434:
 5184              	.LBB146:
 5185              		.loc 1 1617 0
 5186 01ec 94ED007A 		vldr.32	s14, [r4]	@ int
 5187              		.loc 1 1618 0
ARM GAS  /var/folders/sv/kgmgr77579zbf78p2zlhkdfr0000gn/T//ccItzhl5.s 			page 92


 5188 01f0 D4ED017A 		vldr.32	s15, [r4, #4]	@ int
 5189              		.loc 1 1621 0
 5190 01f4 484B     		ldr	r3, .L437+108
 5191 01f6 494A     		ldr	r2, .L437+112
 5192 01f8 1968     		ldr	r1, [r3]
 5193              		.loc 1 1626 0
 5194 01fa 4748     		ldr	r0, .L437+108
 5195              		.loc 1 1617 0
 5196 01fc B8EEC77A 		vcvt.f32.s32	s14, s14
 5197              		.loc 1 1618 0
 5198 0200 F8EEE77A 		vcvt.f32.s32	s15, s15
 5199              		.loc 1 1617 0
 5200 0204 B0EEC77A 		vabs.f32	s14, s14
 5201              	.LVL390:
 5202              		.loc 1 1618 0
 5203 0208 F0EEE77A 		vabs.f32	s15, s15
 5204              	.LVL391:
 5205              		.loc 1 1620 0
 5206 020c B4EEE77A 		vcmpe.f32	s14, s15
 5207 0210 F1EE10FA 		vmrs	APSR_nzcv, FPSCR
 5208              		.loc 1 1621 0
 5209 0214 02EB8101 		add	r1, r2, r1, lsl #2
 5210 0218 CCBF     		ite	gt
 5211 021a 81ED007A 		vstrgt.32	s14, [r1]
 5212              		.loc 1 1623 0
 5213 021e C1ED007A 		vstrle.32	s15, [r1]
 5214              		.loc 1 1626 0
 5215 0222 1968     		ldr	r1, [r3]
 5216 0224 0029     		cmp	r1, #0
 5217 0226 40F3EF80 		ble	.L396
 5218              		.loc 1 1627 0
 5219 022a D0F800E0 		ldr	lr, [r0]
 5220              		.loc 1 1628 0
 5221 022e 0168     		ldr	r1, [r0]
 5222              		.loc 1 1627 0
 5223 0230 3B4C     		ldr	r4, .L437+116
 5224              		.loc 1 1628 0
 5225 0232 0139     		subs	r1, r1, #1
 5226 0234 02EB8101 		add	r1, r2, r1, lsl #2
 5227 0238 D1ED007A 		vldr.32	s15, [r1]
 5228              	.LVL392:
 5229 023c 0068     		ldr	r0, [r0]
 5230 023e 02EB8000 		add	r0, r2, r0, lsl #2
 5231 0242 90ED007A 		vldr.32	s14, [r0]
 5232              	.LVL393:
 5233 0246 77EEC77A 		vsub.f32	s15, s15, s14
 5234              		.loc 1 1627 0
 5235 024a 04EB8E01 		add	r1, r4, lr, lsl #2
 5236 024e C1ED007A 		vstr.32	s15, [r1]
 5237              	.L397:
 5238              		.loc 1 1634 0
 5239 0252 1D4C     		ldr	r4, .L437+28
 5240              		.loc 1 1637 0
 5241 0254 2348     		ldr	r0, .L437+56
 5242              		.loc 1 1634 0
 5243 0256 218A     		ldrh	r1, [r4, #16]
 5244              		.loc 1 1637 0
ARM GAS  /var/folders/sv/kgmgr77579zbf78p2zlhkdfr0000gn/T//ccItzhl5.s 			page 93


 5245 0258 0068     		ldr	r0, [r0]
 5246 025a 0628     		cmp	r0, #6
 5247              		.loc 1 1634 0
 5248 025c 89B2     		uxth	r1, r1
 5249              	.LVL394:
 5250 025e 00F29080 		bhi	.L398
 5251 0262 4FF0010E 		mov	lr, #1
 5252 0266 0EFA00F0 		lsl	r0, lr, r0
 5253 026a 10F0480F 		tst	r0, #72
 5254 026e 21FA0EF1 		lsr	r1, r1, lr
 5255              	.LVL395:
 5256 0272 78D1     		bne	.L399
 5257 0274 10F0240F 		tst	r0, #36
 5258 0278 40F0D680 		bne	.L400
 5259 027c 10F0120F 		tst	r0, #18
 5260 0280 7FD0     		beq	.L398
 5261              		.loc 1 1640 0
 5262 0282 D3F800E0 		ldr	lr, [r3]
 5263 0286 A088     		ldrh	r0, [r4, #4]
 5264 0288 70E0     		b	.L428
 5265              	.LVL396:
 5266              	.L390:
 5267              	.LBE146:
 5268              	.LBB147:
 5269              		.loc 1 1600 0
 5270 028a D4ED007A 		vldr.32	s15, [r4]	@ int
 5271 028e F8EEE77A 		vcvt.f32.s32	s15, s15
 5272 0292 F1EE677A 		vneg.f32	s15, s15
 5273              	.LVL397:
 5274 0296 8AE7     		b	.L376
 5275              	.LVL398:
 5276              	.L386:
 5277              		.loc 1 1596 0
 5278 0298 D4ED007A 		vldr.32	s15, [r4]	@ int
 5279 029c F8EEE77A 		vcvt.f32.s32	s15, s15
 5280              	.LVL399:
 5281 02a0 85E7     		b	.L376
 5282              	.LVL400:
 5283              	.L384:
 5284              		.loc 1 1595 0
 5285 02a2 D4ED017A 		vldr.32	s15, [r4, #4]	@ int
 5286 02a6 F8EEE77A 		vcvt.f32.s32	s15, s15
 5287              	.LVL401:
 5288 02aa 80E7     		b	.L376
 5289              	.L438:
 5290              		.align	2
 5291              	.L437:
 5292 02ac 00180040 		.word	1073747968
 5293 02b0 00200140 		.word	1073815552
 5294 02b4 00000000 		.word	.LANCHOR50
 5295 02b8 00000000 		.word	.LANCHOR52
 5296 02bc 00210140 		.word	1073815808
 5297 02c0 00000000 		.word	.LANCHOR1
 5298 02c4 00000000 		.word	.LANCHOR51
 5299 02c8 00000000 		.word	ADC_Value
 5300 02cc 00000000 		.word	.LANCHOR49
 5301 02d0 00000000 		.word	.LANCHOR48
ARM GAS  /var/folders/sv/kgmgr77579zbf78p2zlhkdfr0000gn/T//ccItzhl5.s 			page 94


 5302 02d4 00000000 		.word	ADC_curr_norm_value
 5303 02d8 00000000 		.word	.LANCHOR0
 5304 02dc 00000000 		.word	.LANCHOR2
 5305 02e0 00000000 		.word	.LANCHOR4
 5306 02e4 00000000 		.word	.LANCHOR3
 5307 02e8 500AA53D 		.word	1034226256
 5308 02ec 00000000 		.word	.LANCHOR38
 5309 02f0 9A99993F 		.word	1067030938
 5310 02f4 00000000 		.word	.LANCHOR63
 5311 02f8 00000000 		.word	.LANCHOR64
 5312 02fc 00000000 		.word	.LANCHOR47
 5313 0300 00000000 		.word	.LANCHOR39
 5314 0304 8096184B 		.word	1259902592
 5315 0308 00000000 		.word	.LANCHOR65
 5316 030c 00000000 		.word	.LANCHOR55
 5317 0310 00000000 		.word	.LANCHOR56
 5318 0314 00000000 		.word	.LANCHOR57
 5319 0318 00000000 		.word	.LANCHOR32
 5320 031c 00000000 		.word	.LANCHOR58
 5321 0320 00000000 		.word	.LANCHOR59
 5322 0324 CDCC4C3E 		.word	1045220557
 5323              	.LVL402:
 5324              	.L401:
 5325              	.LBE147:
 5326              		.loc 1 1667 0
 5327 0328 3378     		ldrb	r3, [r6]	@ zero_extendqisi2
 5328 032a 012B     		cmp	r3, #1
 5329 032c 7FF45CAF 		bne	.L430
 5330              	.L403:
 5331              		.loc 1 1668 0
 5332 0330 0523     		movs	r3, #5
 5333              		.loc 1 1670 0
 5334 0332 1FED040A 		vldr.32	s0, .L437+120
 5335              		.loc 1 1668 0
 5336 0336 3B60     		str	r3, [r7]
 5337              		.loc 1 1670 0
 5338 0338 FFF7FEFF 		bl	set_duty_cycle_hw
 5339              	.LVL403:
 5340              		.loc 1 1672 0
 5341 033c 404B     		ldr	r3, .L439
 5342 033e 1A68     		ldr	r2, [r3]
 5343 0340 0132     		adds	r2, r2, #1
 5344 0342 1A60     		str	r2, [r3]
 5345              		.loc 1 1673 0
 5346 0344 1A68     		ldr	r2, [r3]
 5347 0346 052A     		cmp	r2, #5
 5348              		.loc 1 1674 0
 5349 0348 C4BF     		itt	gt
 5350 034a 0022     		movgt	r2, #0
 5351 034c 1A60     		strgt	r2, [r3]
 5352              		.loc 1 1677 0
 5353 034e 1B68     		ldr	r3, [r3]
 5354 0350 3C4A     		ldr	r2, .L439+4
 5355 0352 0133     		adds	r3, r3, #1
 5356 0354 1360     		str	r3, [r2]
 5357              		.loc 1 1679 0
 5358 0356 1068     		ldr	r0, [r2]
ARM GAS  /var/folders/sv/kgmgr77579zbf78p2zlhkdfr0000gn/T//ccItzhl5.s 			page 95


 5359 0358 FFF7FEFF 		bl	set_next_comm_step
 5360              	.LVL404:
 5361              		.loc 1 1680 0
 5362 035c 2021     		movs	r1, #32
 5363 035e 3A48     		ldr	r0, .L439+8
 5364 0360 FFF7FEFF 		bl	TIM_GenerateEvent
 5365              	.LVL405:
 5366 0364 40E7     		b	.L430
 5367              	.L399:
 5368              	.LBB148:
 5369              		.loc 1 1650 0
 5370 0366 D3F800E0 		ldr	lr, [r3]
 5371 036a 2088     		ldrh	r0, [r4]
 5372              	.L428:
 5373 036c 374C     		ldr	r4, .L439+12
 5374 036e 80B2     		uxth	r0, r0
 5375 0370 411A     		subs	r1, r0, r1
 5376 0372 07EE901A 		vmov	s15, r1	@ int
 5377 0376 F8EEE77A 		vcvt.f32.s32	s15, s15
 5378 037a 04EB8E01 		add	r1, r4, lr, lsl #2
 5379 037e C1ED007A 		vstr.32	s15, [r1]
 5380              	.L398:
 5381              		.loc 1 1657 0
 5382 0382 1C68     		ldr	r4, [r3]
 5383 0384 3248     		ldr	r0, .L439+16
 5384              		.loc 1 1658 0
 5385 0386 3349     		ldr	r1, .L439+20
 5386              		.loc 1 1657 0
 5387 0388 02EB8402 		add	r2, r2, r4, lsl #2
 5388 038c D2ED007A 		vldr.32	s15, [r2]
 5389 0390 1A68     		ldr	r2, [r3]
 5390 0392 00EB8202 		add	r2, r0, r2, lsl #2
 5391 0396 92ED007A 		vldr.32	s14, [r2]
 5392 039a 37EE877A 		vadd.f32	s14, s15, s14
 5393              		.loc 1 1658 0
 5394 039e F7EE006A 		vmov.f32	s13, #1.0e+0
 5395              		.loc 1 1657 0
 5396 03a2 82ED007A 		vstr.32	s14, [r2]
 5397              		.loc 1 1658 0
 5398 03a6 1B68     		ldr	r3, [r3]
 5399 03a8 01EB8303 		add	r3, r1, r3, lsl #2
 5400 03ac D3ED007A 		vldr.32	s15, [r3]
 5401 03b0 77EEA67A 		vadd.f32	s15, s15, s13
 5402 03b4 C3ED007A 		vstr.32	s15, [r3]
 5403              		.loc 1 1660 0
 5404 03b8 FFF7FEFF 		bl	stop_pwm_hw
 5405              	.LVL406:
 5406 03bc 3B68     		ldr	r3, [r7]
 5407 03be 0AE7     		b	.L392
 5408              	.L435:
 5409              	.LBE148:
 5410              		.loc 1 1667 0 discriminator 1
 5411 03c0 002B     		cmp	r3, #0
 5412 03c2 7FF411AF 		bne	.L430
 5413 03c6 B3E7     		b	.L403
 5414              	.LVL407:
 5415              	.L432:
ARM GAS  /var/folders/sv/kgmgr77579zbf78p2zlhkdfr0000gn/T//ccItzhl5.s 			page 96


 5416              	.LBB149:
 5417              		.loc 1 1555 0
 5418 03c8 D4ED006A 		vldr.32	s13, [r4]	@ int
 5419              		.loc 1 1556 0
 5420 03cc D4ED017A 		vldr.32	s15, [r4, #4]	@ int
 5421              		.loc 1 1557 0
 5422 03d0 94ED027A 		vldr.32	s14, [r4, #8]	@ int
 5423              		.loc 1 1556 0
 5424 03d4 F8EEE77A 		vcvt.f32.s32	s15, s15
 5425              		.loc 1 1555 0
 5426 03d8 F8EEE66A 		vcvt.f32.s32	s13, s13
 5427              	.LVL408:
 5428              		.loc 1 1558 0
 5429 03dc 67EEA77A 		vmul.f32	s15, s15, s15
 5430              	.LVL409:
 5431              		.loc 1 1557 0
 5432 03e0 B8EEC77A 		vcvt.f32.s32	s14, s14
 5433              	.LVL410:
 5434              		.loc 1 1558 0
 5435 03e4 E6EEA67A 		vfma.f32	s15, s13, s13
 5436 03e8 F7EE086A 		vmov.f32	s13, #1.5e+0
 5437              	.LVL411:
 5438 03ec E7EE077A 		vfma.f32	s15, s14, s14
 5439 03f0 87EEA67A 		vdiv.f32	s14, s15, s13
 5440              	.LVL412:
 5441 03f4 B1EEC70A 		vsqrt.f32	s0, s14
 5442 03f8 B4EE400A 		vcmp.f32	s0, s0
 5443 03fc F1EE10FA 		vmrs	APSR_nzcv, FPSCR
 5444 0400 19D1     		bne	.L436
 5445              	.L373:
 5446 0402 B0EE408A 		vmov.f32	s16, s0
 5447              	.LVL413:
 5448              	.LBE149:
 5449 0406 E2E6     		b	.L374
 5450              	.LVL414:
 5451              	.L396:
 5452              	.LBB150:
 5453              		.loc 1 1630 0
 5454 0408 0468     		ldr	r4, [r0]
 5455              		.loc 1 1631 0
 5456 040a D2ED057A 		vldr.32	s15, [r2, #20]
 5457              	.LVL415:
 5458 040e 0068     		ldr	r0, [r0]
 5459              		.loc 1 1630 0
 5460 0410 1149     		ldr	r1, .L439+24
 5461              		.loc 1 1631 0
 5462 0412 02EB8000 		add	r0, r2, r0, lsl #2
 5463 0416 90ED007A 		vldr.32	s14, [r0]
 5464              	.LVL416:
 5465 041a 77EEC77A 		vsub.f32	s15, s15, s14
 5466              		.loc 1 1630 0
 5467 041e 01EB8401 		add	r1, r1, r4, lsl #2
 5468 0422 C1ED007A 		vstr.32	s15, [r1]
 5469 0426 14E7     		b	.L397
 5470              	.L400:
 5471              		.loc 1 1645 0
 5472 0428 D3F800E0 		ldr	lr, [r3]
ARM GAS  /var/folders/sv/kgmgr77579zbf78p2zlhkdfr0000gn/T//ccItzhl5.s 			page 97


 5473 042c 6088     		ldrh	r0, [r4, #2]
 5474 042e 9DE7     		b	.L428
 5475              	.LVL417:
 5476              	.L410:
 5477              	.LBE150:
 5478              	.LBE152:
 5479              		.loc 1 1520 0
 5480 0430 DFED0A7A 		vldr.32	s15, .L439+28
 5481 0434 BBE6     		b	.L376
 5482              	.L436:
 5483              	.LBB153:
 5484              	.LBB151:
 5485              		.loc 1 1558 0
 5486 0436 B0EE470A 		vmov.f32	s0, s14
 5487 043a FFF7FEFF 		bl	sqrtf
 5488              	.LVL418:
 5489 043e E0E7     		b	.L373
 5490              	.L440:
 5491              		.align	2
 5492              	.L439:
 5493 0440 00000000 		.word	.LANCHOR32
 5494 0444 00000000 		.word	.LANCHOR3
 5495 0448 00000140 		.word	1073807360
 5496 044c 00000000 		.word	.LANCHOR60
 5497 0450 00000000 		.word	.LANCHOR61
 5498 0454 00000000 		.word	.LANCHOR62
 5499 0458 00000000 		.word	.LANCHOR59
 5500 045c 00000000 		.word	0
 5501              	.LBE151:
 5502              	.LBE153:
 5503              		.cfi_endproc
 5504              	.LFE297:
 5505              		.size	mcpwm_adc_inj_int_handler, .-mcpwm_adc_inj_int_handler
 5506              		.section	.text.mcpwm_set_detect,"ax",%progbits
 5507              		.align	2
 5508              		.p2align 4,,15
 5509              		.global	mcpwm_set_detect
 5510              		.thumb
 5511              		.thumb_func
 5512              		.type	mcpwm_set_detect, %function
 5513              	mcpwm_set_detect:
 5514              	.LFB299:
 5515              		.loc 1 2074 0
 5516              		.cfi_startproc
 5517              		@ args = 0, pretend = 0, frame = 0
 5518              		@ frame_needed = 0, uses_anonymous_args = 0
 5519 0000 F8B5     		push	{r3, r4, r5, r6, r7, lr}
 5520              		.cfi_def_cfa_offset 24
 5521              		.cfi_offset 3, -24
 5522              		.cfi_offset 4, -20
 5523              		.cfi_offset 5, -16
 5524              		.cfi_offset 6, -12
 5525              		.cfi_offset 7, -8
 5526              		.cfi_offset 14, -4
 5527              		.loc 1 2075 0
 5528 0002 FFF7FEFF 		bl	mc_interface_try_input
 5529              	.LVL419:
ARM GAS  /var/folders/sv/kgmgr77579zbf78p2zlhkdfr0000gn/T//ccItzhl5.s 			page 98


 5530 0006 00B1     		cbz	r0, .L446
 5531 0008 F8BD     		pop	{r3, r4, r5, r6, r7, pc}
 5532              	.L446:
 5533              		.loc 1 2079 0
 5534 000a 0F4B     		ldr	r3, .L447
 5535 000c 0F4F     		ldr	r7, .L447+4
 5536 000e 104E     		ldr	r6, .L447+8
 5537 0010 104D     		ldr	r5, .L447+12
 5538 0012 0722     		movs	r2, #7
 5539 0014 1A70     		strb	r2, [r3]
 5540 0016 0446     		mov	r4, r0
 5541              		.loc 1 2080 0
 5542 0018 FFF7FEFF 		bl	stop_pwm_hw
 5543              	.LVL420:
 5544              		.loc 1 2082 0
 5545 001c 0E4B     		ldr	r3, .L447+16
 5546 001e 1B68     		ldr	r3, [r3]
 5547 0020 93ED5A0A 		vldr.32	s0, [r3, #360]
 5548 0024 FFF7FEFF 		bl	set_switching_frequency
 5549              	.LVL421:
 5550              	.LBB154:
 5551              		.loc 1 2085 0
 5552 0028 0022     		movs	r2, #0
 5553              		.loc 1 2084 0
 5554 002a 2046     		mov	r0, r4
 5555              	.LVL422:
 5556              	.L443:
 5557              		.loc 1 2085 0 discriminator 3
 5558 002c 8300     		lsls	r3, r0, #2
 5559 002e FC18     		adds	r4, r7, r3
 5560              		.loc 1 2086 0 discriminator 3
 5561 0030 F118     		adds	r1, r6, r3
 5562              		.loc 1 2084 0 discriminator 3
 5563 0032 0130     		adds	r0, r0, #1
 5564              	.LVL423:
 5565              		.loc 1 2087 0 discriminator 3
 5566 0034 2B44     		add	r3, r3, r5
 5567              		.loc 1 2084 0 discriminator 3
 5568 0036 0628     		cmp	r0, #6
 5569              		.loc 1 2085 0 discriminator 3
 5570 0038 2260     		str	r2, [r4]	@ float
 5571              		.loc 1 2086 0 discriminator 3
 5572 003a 0A60     		str	r2, [r1]	@ float
 5573              		.loc 1 2087 0 discriminator 3
 5574 003c 1A60     		str	r2, [r3]	@ float
 5575              		.loc 1 2084 0 discriminator 3
 5576 003e F5D1     		bne	.L443
 5577              	.LBE154:
 5578              		.loc 1 2090 0
 5579 0040 064B     		ldr	r3, .L447+20
 5580 0042 0122     		movs	r2, #1
 5581 0044 1A70     		strb	r2, [r3]
 5582 0046 F8BD     		pop	{r3, r4, r5, r6, r7, pc}
 5583              	.L448:
 5584              		.align	2
 5585              	.L447:
 5586 0048 00000000 		.word	.LANCHOR37
ARM GAS  /var/folders/sv/kgmgr77579zbf78p2zlhkdfr0000gn/T//ccItzhl5.s 			page 99


 5587 004c 00000000 		.word	.LANCHOR58
 5588 0050 00000000 		.word	.LANCHOR61
 5589 0054 00000000 		.word	.LANCHOR62
 5590 0058 00000000 		.word	.LANCHOR0
 5591 005c 00000000 		.word	.LANCHOR2
 5592              		.cfi_endproc
 5593              	.LFE299:
 5594              		.size	mcpwm_set_detect, .-mcpwm_set_detect
 5595              		.section	.text.mcpwm_get_detect_pos,"ax",%progbits
 5596              		.align	2
 5597              		.p2align 4,,15
 5598              		.global	mcpwm_get_detect_pos
 5599              		.thumb
 5600              		.thumb_func
 5601              		.type	mcpwm_get_detect_pos, %function
 5602              	mcpwm_get_detect_pos:
 5603              	.LFB300:
 5604              		.loc 1 2093 0
 5605              		.cfi_startproc
 5606              		@ args = 0, pretend = 0, frame = 8
 5607              		@ frame_needed = 0, uses_anonymous_args = 0
 5608 0000 30B5     		push	{r4, r5, lr}
 5609              		.cfi_def_cfa_offset 12
 5610              		.cfi_offset 4, -12
 5611              		.cfi_offset 5, -8
 5612              		.cfi_offset 14, -4
 5613              		.loc 1 2095 0
 5614 0002 4148     		ldr	r0, .L457
 5615 0004 414C     		ldr	r4, .L457+4
 5616 0006 D4ED001A 		vldr.32	s3, [r4]
 5617 000a 90ED007A 		vldr.32	s14, [r0]
 5618              		.loc 1 2096 0
 5619 000e 94ED012A 		vldr.32	s4, [r4, #4]
 5620 0012 D0ED017A 		vldr.32	s15, [r0, #4]
 5621              		.loc 1 2097 0
 5622 0016 D4ED022A 		vldr.32	s5, [r4, #8]
 5623 001a 90ED023A 		vldr.32	s6, [r0, #8]
 5624              		.loc 1 2098 0
 5625 001e D4ED033A 		vldr.32	s7, [r4, #12]
 5626 0022 90ED034A 		vldr.32	s8, [r0, #12]
 5627              		.loc 1 2099 0
 5628 0026 D4ED044A 		vldr.32	s9, [r4, #16]
 5629 002a 90ED045A 		vldr.32	s10, [r0, #16]
 5630              		.loc 1 2100 0
 5631 002e D4ED055A 		vldr.32	s11, [r4, #20]
 5632 0032 90ED056A 		vldr.32	s12, [r0, #20]
 5633              		.loc 1 2093 0
 5634 0036 2DED048B 		vpush.64	{d8, d9}
 5635              		.cfi_def_cfa_offset 28
 5636              		.cfi_offset 80, -28
 5637              		.cfi_offset 81, -24
 5638              		.cfi_offset 82, -20
 5639              		.cfi_offset 83, -16
 5640              		.loc 1 2095 0
 5641 003a C1EE876A 		vdiv.f32	s13, s3, s14
 5642              	.LVL424:
 5643              		.loc 1 2093 0
ARM GAS  /var/folders/sv/kgmgr77579zbf78p2zlhkdfr0000gn/T//ccItzhl5.s 			page 100


 5644 003e 83B0     		sub	sp, sp, #12
 5645              		.cfi_def_cfa_offset 40
 5646              	.LBB155:
 5647              		.loc 1 2103 0
 5648 0040 0021     		movs	r1, #0
 5649              		.loc 1 2102 0
 5650 0042 0022     		movs	r2, #0
 5651              	.LBE155:
 5652              		.loc 1 2096 0
 5653 0044 82EE277A 		vdiv.f32	s14, s4, s15
 5654              	.LVL425:
 5655              		.loc 1 2098 0
 5656 0048 83EE849A 		vdiv.f32	s18, s7, s8
 5657              		.loc 1 2097 0
 5658 004c C2EE837A 		vdiv.f32	s15, s5, s6
 5659              	.LVL426:
 5660              		.loc 1 2099 0
 5661 0050 C4EE858A 		vdiv.f32	s17, s9, s10
 5662              	.LVL427:
 5663              		.loc 1 2100 0
 5664 0054 85EE868A 		vdiv.f32	s16, s11, s12
 5665              	.LVL428:
 5666              	.L450:
 5667              	.LBB156:
 5668              		.loc 1 2103 0 discriminator 3
 5669 0058 9300     		lsls	r3, r2, #2
 5670 005a E518     		adds	r5, r4, r3
 5671              		.loc 1 2102 0 discriminator 3
 5672 005c 0132     		adds	r2, r2, #1
 5673              	.LVL429:
 5674              		.loc 1 2104 0 discriminator 3
 5675 005e 0344     		add	r3, r3, r0
 5676              		.loc 1 2102 0 discriminator 3
 5677 0060 062A     		cmp	r2, #6
 5678              		.loc 1 2103 0 discriminator 3
 5679 0062 2960     		str	r1, [r5]	@ float
 5680              		.loc 1 2104 0 discriminator 3
 5681 0064 1960     		str	r1, [r3]	@ float
 5682              		.loc 1 2102 0 discriminator 3
 5683 0066 F7D1     		bne	.L450
 5684              	.LBE156:
 5685              		.loc 1 2107 0
 5686 0068 36EE899A 		vadd.f32	s18, s13, s18
 5687              	.LVL430:
 5688              		.loc 1 2108 0
 5689 006c 77EE288A 		vadd.f32	s17, s14, s17
 5690              	.LVL431:
 5691              		.loc 1 2109 0
 5692 0070 77EE887A 		vadd.f32	s15, s15, s16
 5693              	.LVL432:
 5694              		.loc 1 2111 0
 5695 0074 39EE287A 		vadd.f32	s14, s18, s17
 5696              	.LVL433:
 5697 0078 B0EE086A 		vmov.f32	s12, #3.0e+0
 5698 007c 37EE277A 		vadd.f32	s14, s14, s15
 5699              		.loc 1 2116 0
 5700 0080 F7EE086A 		vmov.f32	s13, #1.5e+0
ARM GAS  /var/folders/sv/kgmgr77579zbf78p2zlhkdfr0000gn/T//ccItzhl5.s 			page 101


 5701              	.LVL434:
 5702              		.loc 1 2111 0
 5703 0084 87EE068A 		vdiv.f32	s16, s14, s12
 5704              	.LVL435:
 5705              		.loc 1 2113 0
 5706 0088 78EEC88A 		vsub.f32	s17, s17, s16
 5707              	.LVL436:
 5708              		.loc 1 2112 0
 5709 008c 39EE489A 		vsub.f32	s18, s18, s16
 5710              	.LVL437:
 5711              		.loc 1 2116 0
 5712 0090 28EEA87A 		vmul.f32	s14, s17, s17
 5713              		.loc 1 2114 0
 5714 0094 37EEC88A 		vsub.f32	s16, s15, s16
 5715              	.LVL438:
 5716              		.loc 1 2116 0
 5717 0098 F0EE477A 		vmov.f32	s15, s14
 5718 009c E9EE097A 		vfma.f32	s15, s18, s18
 5719 00a0 E8EE087A 		vfma.f32	s15, s16, s16
 5720 00a4 87EEA60A 		vdiv.f32	s0, s15, s13
 5721 00a8 F1EEC09A 		vsqrt.f32	s19, s0
 5722 00ac F4EE699A 		vcmp.f32	s19, s19
 5723 00b0 F1EE10FA 		vmrs	APSR_nzcv, FPSCR
 5724 00b4 23D1     		bne	.L456
 5725              	.LVL439:
 5726              	.L451:
 5727              		.loc 1 2122 0
 5728 00b6 89EE290A 		vdiv.f32	s0, s18, s19
 5729              	.LVL440:
 5730 00ba FFF7FEFF 		bl	asinf
 5731              	.LVL441:
 5732              		.loc 1 2129 0
 5733 00be 01A8     		add	r0, sp, #4
 5734              		.loc 1 2122 0
 5735 00c0 DFED137A 		vldr.32	s15, .L457+8
 5736 00c4 DFED135A 		vldr.32	s11, .L457+12
 5737 00c8 20EE270A 		vmul.f32	s0, s0, s15
 5738              		.loc 1 2125 0
 5739 00cc 88EEA96A 		vdiv.f32	s12, s17, s19
 5740              	.LVL442:
 5741 00d0 C8EE296A 		vdiv.f32	s13, s16, s19
 5742              	.LVL443:
 5743              		.loc 1 2122 0
 5744 00d4 80EE257A 		vdiv.f32	s14, s0, s11
 5745              	.LVL444:
 5746              		.loc 1 2125 0
 5747 00d8 B4EEE66A 		vcmpe.f32	s12, s13
 5748 00dc F1EE10FA 		vmrs	APSR_nzcv, FPSCR
 5749              		.loc 1 2126 0
 5750 00e0 4ABF     		itet	mi
 5751 00e2 77EEC77A 		vsubmi.f32	s15, s15, s14
 5752              		.loc 1 2124 0
 5753 00e6 8DED017A 		vstrpl.32	s14, [sp, #4]
 5754              		.loc 1 2126 0
 5755 00ea CDED017A 		vstrmi.32	s15, [sp, #4]
 5756              		.loc 1 2129 0
 5757 00ee FFF7FEFF 		bl	utils_norm_angle
ARM GAS  /var/folders/sv/kgmgr77579zbf78p2zlhkdfr0000gn/T//ccItzhl5.s 			page 102


 5758              	.LVL445:
 5759              		.loc 1 2132 0
 5760 00f2 9DED010A 		vldr.32	s0, [sp, #4]
 5761 00f6 03B0     		add	sp, sp, #12
 5762              		.cfi_remember_state
 5763              		.cfi_def_cfa_offset 28
 5764              		@ sp needed
 5765 00f8 BDEC048B 		vldm	sp!, {d8-d9}
 5766              		.cfi_restore 82
 5767              		.cfi_restore 83
 5768              		.cfi_restore 80
 5769              		.cfi_restore 81
 5770              		.cfi_def_cfa_offset 12
 5771              	.LVL446:
 5772 00fc 30BD     		pop	{r4, r5, pc}
 5773              	.LVL447:
 5774              	.L456:
 5775              		.cfi_restore_state
 5776              		.loc 1 2116 0
 5777 00fe FFF7FEFF 		bl	sqrtf
 5778              	.LVL448:
 5779 0102 F0EE409A 		vmov.f32	s19, s0
 5780 0106 D6E7     		b	.L451
 5781              	.L458:
 5782              		.align	2
 5783              	.L457:
 5784 0108 00000000 		.word	.LANCHOR62
 5785 010c 00000000 		.word	.LANCHOR61
 5786 0110 00003443 		.word	1127481344
 5787 0114 DB0F4940 		.word	1078530011
 5788              		.cfi_endproc
 5789              	.LFE300:
 5790              		.size	mcpwm_get_detect_pos, .-mcpwm_get_detect_pos
 5791              		.section	.text.mcpwm_read_reset_avg_cycle_integrator,"ax",%progbits
 5792              		.align	2
 5793              		.p2align 4,,15
 5794              		.global	mcpwm_read_reset_avg_cycle_integrator
 5795              		.thumb
 5796              		.thumb_func
 5797              		.type	mcpwm_read_reset_avg_cycle_integrator, %function
 5798              	mcpwm_read_reset_avg_cycle_integrator:
 5799              	.LFB301:
 5800              		.loc 1 2134 0
 5801              		.cfi_startproc
 5802              		@ args = 0, pretend = 0, frame = 0
 5803              		@ frame_needed = 0, uses_anonymous_args = 0
 5804              		@ link register save eliminated.
 5805              		.loc 1 2135 0
 5806 0000 0549     		ldr	r1, .L460
 5807 0002 064B     		ldr	r3, .L460+4
 5808 0004 91ED000A 		vldr.32	s0, [r1]
 5809 0008 D3ED007A 		vldr.32	s15, [r3]
 5810              	.LVL449:
 5811              		.loc 1 2136 0
 5812 000c 0022     		movs	r2, #0
 5813 000e 0A60     		str	r2, [r1]	@ float
 5814              		.loc 1 2139 0
ARM GAS  /var/folders/sv/kgmgr77579zbf78p2zlhkdfr0000gn/T//ccItzhl5.s 			page 103


 5815 0010 80EE270A 		vdiv.f32	s0, s0, s15
 5816              	.LVL450:
 5817              		.loc 1 2137 0
 5818 0014 1A60     		str	r2, [r3]	@ float
 5819              		.loc 1 2139 0
 5820 0016 7047     		bx	lr
 5821              	.L461:
 5822              		.align	2
 5823              	.L460:
 5824 0018 00000000 		.word	.LANCHOR42
 5825 001c 00000000 		.word	.LANCHOR43
 5826              		.cfi_endproc
 5827              	.LFE301:
 5828              		.size	mcpwm_read_reset_avg_cycle_integrator, .-mcpwm_read_reset_avg_cycle_integrator
 5829              		.section	.text.mcpwm_set_comm_mode,"ax",%progbits
 5830              		.align	2
 5831              		.p2align 4,,15
 5832              		.global	mcpwm_set_comm_mode
 5833              		.thumb
 5834              		.thumb_func
 5835              		.type	mcpwm_set_comm_mode, %function
 5836              	mcpwm_set_comm_mode:
 5837              	.LFB302:
 5838              		.loc 1 2150 0
 5839              		.cfi_startproc
 5840              		@ args = 0, pretend = 0, frame = 0
 5841              		@ frame_needed = 0, uses_anonymous_args = 0
 5842              		@ link register save eliminated.
 5843              	.LVL451:
 5844              		.loc 1 2151 0
 5845 0000 014B     		ldr	r3, .L463
 5846 0002 1B68     		ldr	r3, [r3]
 5847 0004 5870     		strb	r0, [r3, #1]
 5848 0006 7047     		bx	lr
 5849              	.L464:
 5850              		.align	2
 5851              	.L463:
 5852 0008 00000000 		.word	.LANCHOR0
 5853              		.cfi_endproc
 5854              	.LFE302:
 5855              		.size	mcpwm_set_comm_mode, .-mcpwm_set_comm_mode
 5856              		.section	.text.mcpwm_get_comm_mode,"ax",%progbits
 5857              		.align	2
 5858              		.p2align 4,,15
 5859              		.global	mcpwm_get_comm_mode
 5860              		.thumb
 5861              		.thumb_func
 5862              		.type	mcpwm_get_comm_mode, %function
 5863              	mcpwm_get_comm_mode:
 5864              	.LFB303:
 5865              		.loc 1 2154 0
 5866              		.cfi_startproc
 5867              		@ args = 0, pretend = 0, frame = 0
 5868              		@ frame_needed = 0, uses_anonymous_args = 0
 5869              		@ link register save eliminated.
 5870              		.loc 1 2155 0
 5871 0000 014B     		ldr	r3, .L466
ARM GAS  /var/folders/sv/kgmgr77579zbf78p2zlhkdfr0000gn/T//ccItzhl5.s 			page 104


 5872 0002 1B68     		ldr	r3, [r3]
 5873 0004 5878     		ldrb	r0, [r3, #1]	@ zero_extendqisi2
 5874              		.loc 1 2156 0
 5875 0006 7047     		bx	lr
 5876              	.L467:
 5877              		.align	2
 5878              	.L466:
 5879 0008 00000000 		.word	.LANCHOR0
 5880              		.cfi_endproc
 5881              	.LFE303:
 5882              		.size	mcpwm_get_comm_mode, .-mcpwm_get_comm_mode
 5883              		.section	.text.mcpwm_get_last_adc_isr_duration,"ax",%progbits
 5884              		.align	2
 5885              		.p2align 4,,15
 5886              		.global	mcpwm_get_last_adc_isr_duration
 5887              		.thumb
 5888              		.thumb_func
 5889              		.type	mcpwm_get_last_adc_isr_duration, %function
 5890              	mcpwm_get_last_adc_isr_duration:
 5891              	.LFB304:
 5892              		.loc 1 2158 0
 5893              		.cfi_startproc
 5894              		@ args = 0, pretend = 0, frame = 0
 5895              		@ frame_needed = 0, uses_anonymous_args = 0
 5896              		@ link register save eliminated.
 5897              		.loc 1 2159 0
 5898 0000 014B     		ldr	r3, .L469
 5899 0002 93ED000A 		vldr.32	s0, [r3]
 5900              		.loc 1 2160 0
 5901 0006 7047     		bx	lr
 5902              	.L470:
 5903              		.align	2
 5904              	.L469:
 5905 0008 00000000 		.word	.LANCHOR66
 5906              		.cfi_endproc
 5907              	.LFE304:
 5908              		.size	mcpwm_get_last_adc_isr_duration, .-mcpwm_get_last_adc_isr_duration
 5909              		.section	.text.mcpwm_get_last_inj_adc_isr_duration,"ax",%progbits
 5910              		.align	2
 5911              		.p2align 4,,15
 5912              		.global	mcpwm_get_last_inj_adc_isr_duration
 5913              		.thumb
 5914              		.thumb_func
 5915              		.type	mcpwm_get_last_inj_adc_isr_duration, %function
 5916              	mcpwm_get_last_inj_adc_isr_duration:
 5917              	.LFB305:
 5918              		.loc 1 2162 0
 5919              		.cfi_startproc
 5920              		@ args = 0, pretend = 0, frame = 0
 5921              		@ frame_needed = 0, uses_anonymous_args = 0
 5922              		@ link register save eliminated.
 5923              		.loc 1 2163 0
 5924 0000 014B     		ldr	r3, .L472
 5925 0002 93ED000A 		vldr.32	s0, [r3]
 5926              		.loc 1 2164 0
 5927 0006 7047     		bx	lr
 5928              	.L473:
ARM GAS  /var/folders/sv/kgmgr77579zbf78p2zlhkdfr0000gn/T//ccItzhl5.s 			page 105


 5929              		.align	2
 5930              	.L472:
 5931 0008 00000000 		.word	.LANCHOR65
 5932              		.cfi_endproc
 5933              	.LFE305:
 5934              		.size	mcpwm_get_last_inj_adc_isr_duration, .-mcpwm_get_last_inj_adc_isr_duration
 5935              		.section	.text.mcpwm_get_rpm_dep,"ax",%progbits
 5936              		.align	2
 5937              		.p2align 4,,15
 5938              		.global	mcpwm_get_rpm_dep
 5939              		.thumb
 5940              		.thumb_func
 5941              		.type	mcpwm_get_rpm_dep, %function
 5942              	mcpwm_get_rpm_dep:
 5943              	.LFB306:
 5944              		.loc 1 2166 0
 5945              		.cfi_startproc
 5946              		@ args = 0, pretend = 0, frame = 0
 5947              		@ frame_needed = 0, uses_anonymous_args = 0
 5948              		@ link register save eliminated.
 5949              	.LVL452:
 5950 0000 70B4     		push	{r4, r5, r6}
 5951              		.cfi_def_cfa_offset 12
 5952              		.cfi_offset 4, -12
 5953              		.cfi_offset 5, -8
 5954              		.cfi_offset 6, -4
 5955              		.loc 1 2167 0
 5956 0002 064D     		ldr	r5, .L476
 5957              		.loc 1 2166 0
 5958 0004 0646     		mov	r6, r0
 5959              		.loc 1 2167 0
 5960 0006 0FCD     		ldmia	r5!, {r0, r1, r2, r3}
 5961              	.LVL453:
 5962 0008 3446     		mov	r4, r6
 5963 000a 0FC4     		stmia	r4!, {r0, r1, r2, r3}
 5964 000c 95E80700 		ldmia	r5, {r0, r1, r2}
 5965 0010 84E80700 		stmia	r4, {r0, r1, r2}
 5966              		.loc 1 2168 0
 5967 0014 3046     		mov	r0, r6
 5968 0016 70BC     		pop	{r4, r5, r6}
 5969              		.cfi_restore 6
 5970              		.cfi_restore 5
 5971              		.cfi_restore 4
 5972              		.cfi_def_cfa_offset 0
 5973              	.LVL454:
 5974 0018 7047     		bx	lr
 5975              	.L477:
 5976 001a 00BF     		.align	2
 5977              	.L476:
 5978 001c 00000000 		.word	.LANCHOR6
 5979              		.cfi_endproc
 5980              	.LFE306:
 5981              		.size	mcpwm_get_rpm_dep, .-mcpwm_get_rpm_dep
 5982              		.section	.text.mcpwm_is_dccal_done,"ax",%progbits
 5983              		.align	2
 5984              		.p2align 4,,15
 5985              		.global	mcpwm_is_dccal_done
ARM GAS  /var/folders/sv/kgmgr77579zbf78p2zlhkdfr0000gn/T//ccItzhl5.s 			page 106


 5986              		.thumb
 5987              		.thumb_func
 5988              		.type	mcpwm_is_dccal_done, %function
 5989              	mcpwm_is_dccal_done:
 5990              	.LFB307:
 5991              		.loc 1 2170 0
 5992              		.cfi_startproc
 5993              		@ args = 0, pretend = 0, frame = 0
 5994              		@ frame_needed = 0, uses_anonymous_args = 0
 5995              		@ link register save eliminated.
 5996              		.loc 1 2171 0
 5997 0000 014B     		ldr	r3, .L479
 5998 0002 1878     		ldrb	r0, [r3]	@ zero_extendqisi2
 5999              		.loc 1 2172 0
 6000 0004 7047     		bx	lr
 6001              	.L480:
 6002 0006 00BF     		.align	2
 6003              	.L479:
 6004 0008 00000000 		.word	.LANCHOR44
 6005              		.cfi_endproc
 6006              	.LFE307:
 6007              		.size	mcpwm_is_dccal_done, .-mcpwm_is_dccal_done
 6008              		.section	.text.mcpwm_switch_comm_mode,"ax",%progbits
 6009              		.align	2
 6010              		.p2align 4,,15
 6011              		.global	mcpwm_switch_comm_mode
 6012              		.thumb
 6013              		.thumb_func
 6014              		.type	mcpwm_switch_comm_mode, %function
 6015              	mcpwm_switch_comm_mode:
 6016              	.LFB308:
 6017              		.loc 1 2174 0
 6018              		.cfi_startproc
 6019              		@ args = 0, pretend = 0, frame = 0
 6020              		@ frame_needed = 0, uses_anonymous_args = 0
 6021              		@ link register save eliminated.
 6022              	.LVL455:
 6023              		.loc 1 2175 0
 6024 0000 014B     		ldr	r3, .L482
 6025 0002 1870     		strb	r0, [r3]
 6026 0004 7047     		bx	lr
 6027              	.L483:
 6028 0006 00BF     		.align	2
 6029              	.L482:
 6030 0008 00000000 		.word	.LANCHOR19
 6031              		.cfi_endproc
 6032              	.LFE308:
 6033              		.size	mcpwm_switch_comm_mode, .-mcpwm_switch_comm_mode
 6034              		.section	.text.mcpwm_reset_hall_detect_table,"ax",%progbits
 6035              		.align	2
 6036              		.p2align 4,,15
 6037              		.global	mcpwm_reset_hall_detect_table
 6038              		.thumb
 6039              		.thumb_func
 6040              		.type	mcpwm_reset_hall_detect_table, %function
 6041              	mcpwm_reset_hall_detect_table:
 6042              	.LFB309:
ARM GAS  /var/folders/sv/kgmgr77579zbf78p2zlhkdfr0000gn/T//ccItzhl5.s 			page 107


 6043              		.loc 1 2181 0
 6044              		.cfi_startproc
 6045              		@ args = 0, pretend = 0, frame = 0
 6046              		@ frame_needed = 0, uses_anonymous_args = 0
 6047              		@ link register save eliminated.
 6048              		.loc 1 2182 0
 6049 0000 E022     		movs	r2, #224
 6050 0002 0021     		movs	r1, #0
 6051 0004 0148     		ldr	r0, .L485
 6052 0006 FFF7FEBF 		b	memset
 6053              	.LVL456:
 6054              	.L486:
 6055 000a 00BF     		.align	2
 6056              	.L485:
 6057 000c 00000000 		.word	.LANCHOR45
 6058              		.cfi_endproc
 6059              	.LFE309:
 6060              		.size	mcpwm_reset_hall_detect_table, .-mcpwm_reset_hall_detect_table
 6061              		.section	.text.mcpwm_get_hall_detect_result,"ax",%progbits
 6062              		.align	2
 6063              		.p2align 4,,15
 6064              		.global	mcpwm_get_hall_detect_result
 6065              		.thumb
 6066              		.thumb_func
 6067              		.type	mcpwm_get_hall_detect_result, %function
 6068              	mcpwm_get_hall_detect_result:
 6069              	.LFB310:
 6070              		.loc 1 2197 0
 6071              		.cfi_startproc
 6072              		@ args = 0, pretend = 0, frame = 32
 6073              		@ frame_needed = 0, uses_anonymous_args = 0
 6074              	.LVL457:
 6075              		.loc 1 2200 0
 6076 0000 294B     		ldr	r3, .L506
 6077 0002 1B68     		ldr	r3, [r3]
 6078 0004 93F85C31 		ldrb	r3, [r3, #348]	@ zero_extendqisi2
 6079 0008 002B     		cmp	r3, #0
 6080 000a 49D1     		bne	.L497
 6081              		.loc 1 2197 0
 6082 000c F0B5     		push	{r4, r5, r6, r7, lr}
 6083              		.cfi_def_cfa_offset 20
 6084              		.cfi_offset 4, -20
 6085              		.cfi_offset 5, -16
 6086              		.cfi_offset 6, -12
 6087              		.cfi_offset 7, -8
 6088              		.cfi_offset 14, -4
 6089 000e DFF89CE0 		ldr	lr, .L506+4
 6090 0012 89B0     		sub	sp, sp, #36
 6091              		.cfi_def_cfa_offset 56
 6092 0014 03F0FF06 		and	r6, r3, #255
 6093              	.LBB157:
 6094              	.LBB158:
 6095              	.LBB159:
 6096              		.loc 1 2208 0
 6097 0018 F446     		mov	ip, lr
 6098              	.L492:
 6099              	.LVL458:
ARM GAS  /var/folders/sv/kgmgr77579zbf78p2zlhkdfr0000gn/T//ccItzhl5.s 			page 108


 6100              	.LBE159:
 6101              	.LBE158:
 6102              	.LBE157:
 6103              		.loc 1 2197 0
 6104 001a 0123     		movs	r3, #1
 6105 001c 4FF0FF34 		mov	r4, #-1
 6106 0020 0021     		movs	r1, #0
 6107              	.LBB162:
 6108              	.LBB161:
 6109              	.LBB160:
 6110              		.loc 1 2208 0
 6111 0022 C6EBC607 		rsb	r7, r6, r6, lsl #3
 6112              	.LVL459:
 6113              	.L491:
 6114 0026 FA18     		adds	r2, r7, r3
 6115 0028 5EF82250 		ldr	r5, [lr, r2, lsl #2]
 6116 002c 8D42     		cmp	r5, r1
 6117 002e 04DD     		ble	.L490
 6118              		.loc 1 2209 0
 6119 0030 5CF82210 		ldr	r1, [ip, r2, lsl #2]
 6120              	.LVL460:
 6121 0034 0F29     		cmp	r1, #15
 6122 0036 C8BF     		it	gt
 6123 0038 1C46     		movgt	r4, r3
 6124              	.LVL461:
 6125              	.L490:
 6126              		.loc 1 2207 0 discriminator 2
 6127 003a 0133     		adds	r3, r3, #1
 6128              	.LVL462:
 6129 003c 072B     		cmp	r3, #7
 6130              		.loc 1 2214 0 discriminator 2
 6131 003e 8455     		strb	r4, [r0, r6]
 6132              		.loc 1 2207 0 discriminator 2
 6133 0040 F1D1     		bne	.L491
 6134              	.LBE160:
 6135              	.LBE161:
 6136              		.loc 1 2204 0 discriminator 2
 6137 0042 0136     		adds	r6, r6, #1
 6138              	.LVL463:
 6139 0044 082E     		cmp	r6, #8
 6140 0046 E8D1     		bne	.L492
 6141              	.LVL464:
 6142              	.LBE162:
 6143              		.loc 1 2219 0
 6144 0048 0023     		movs	r3, #0
 6145              	.LVL465:
 6146              		.loc 1 2220 0
 6147 004a 1C46     		mov	r4, r3
 6148              	.LVL466:
 6149              		.loc 1 2219 0
 6150 004c 0193     		str	r3, [sp, #4]
 6151              		.loc 1 2218 0
 6152 004e 1D46     		mov	r5, r3
 6153              		.loc 1 2219 0
 6154 0050 0293     		str	r3, [sp, #8]
 6155 0052 0393     		str	r3, [sp, #12]
 6156 0054 0493     		str	r3, [sp, #16]
ARM GAS  /var/folders/sv/kgmgr77579zbf78p2zlhkdfr0000gn/T//ccItzhl5.s 			page 109


 6157 0056 0593     		str	r3, [sp, #20]
 6158 0058 0693     		str	r3, [sp, #24]
 6159 005a 0793     		str	r3, [sp, #28]
 6160              	.LVL467:
 6161              	.LBB163:
 6162              		.loc 1 2226 0
 6163 005c 0126     		movs	r6, #1
 6164              	.LVL468:
 6165 005e 431E     		subs	r3, r0, #1
 6166 0060 0730     		adds	r0, r0, #7
 6167              	.LVL469:
 6168 0062 07E0     		b	.L496
 6169              	.LVL470:
 6170              	.L494:
 6171              		.loc 1 2225 0
 6172 0064 51F81C2C 		ldr	r2, [r1, #-28]
 6173 0068 12B9     		cbnz	r2, .L495
 6174              		.loc 1 2226 0
 6175 006a 41F81C6C 		str	r6, [r1, #-28]
 6176              		.loc 1 2227 0
 6177 006e 0134     		adds	r4, r4, #1
 6178              	.LVL471:
 6179              	.L495:
 6180              		.loc 1 2221 0 discriminator 2
 6181 0070 9842     		cmp	r0, r3
 6182 0072 0AD0     		beq	.L505
 6183              	.LVL472:
 6184              	.L496:
 6185              		.loc 1 2222 0
 6186 0074 13F9012F 		ldrsb	r2, [r3, #1]!
 6187              	.LVL473:
 6188              		.loc 1 2225 0
 6189 0078 08A9     		add	r1, sp, #32
 6190 007a 01EB8201 		add	r1, r1, r2, lsl #2
 6191              		.loc 1 2222 0
 6192 007e 0132     		adds	r2, r2, #1
 6193 0080 F0D1     		bne	.L494
 6194              		.loc 1 2221 0
 6195 0082 9842     		cmp	r0, r3
 6196              		.loc 1 2223 0
 6197 0084 05F10105 		add	r5, r5, #1
 6198              	.LVL474:
 6199              		.loc 1 2221 0
 6200 0088 F4D1     		bne	.L496
 6201              	.LVL475:
 6202              	.L505:
 6203              	.LBE163:
 6204              		.loc 1 2232 0
 6205 008a 022D     		cmp	r5, #2
 6206 008c 05D1     		bne	.L499
 6207              		.loc 1 2232 0 is_stmt 0 discriminator 1
 6208 008e A01F     		subs	r0, r4, #6
 6209              	.LVL476:
 6210 0090 18BF     		it	ne
 6211 0092 4FF0FF30 		movne	r0, #-1
 6212              	.L488:
 6213              		.loc 1 2237 0 is_stmt 1
ARM GAS  /var/folders/sv/kgmgr77579zbf78p2zlhkdfr0000gn/T//ccItzhl5.s 			page 110


 6214 0096 09B0     		add	sp, sp, #36
 6215              		.cfi_remember_state
 6216              		.cfi_def_cfa_offset 20
 6217              		@ sp needed
 6218 0098 F0BD     		pop	{r4, r5, r6, r7, pc}
 6219              	.LVL477:
 6220              	.L499:
 6221              		.cfi_restore_state
 6222              		.loc 1 2235 0
 6223 009a 4FF0FF30 		mov	r0, #-1
 6224 009e FAE7     		b	.L488
 6225              	.LVL478:
 6226              	.L497:
 6227              		.cfi_def_cfa_offset 0
 6228              		.cfi_restore 4
 6229              		.cfi_restore 5
 6230              		.cfi_restore 6
 6231              		.cfi_restore 7
 6232              		.cfi_restore 14
 6233              		.loc 1 2201 0
 6234 00a0 6FF00200 		mvn	r0, #2
 6235              	.LVL479:
 6236              		.loc 1 2237 0
 6237 00a4 7047     		bx	lr
 6238              	.L507:
 6239 00a6 00BF     		.align	2
 6240              	.L506:
 6241 00a8 00000000 		.word	.LANCHOR0
 6242 00ac 00000000 		.word	.LANCHOR45
 6243              		.cfi_endproc
 6244              	.LFE310:
 6245              		.size	mcpwm_get_hall_detect_result, .-mcpwm_get_hall_detect_result
 6246              		.section	.text.mcpwm_read_hall_phase,"ax",%progbits
 6247              		.align	2
 6248              		.p2align 4,,15
 6249              		.global	mcpwm_read_hall_phase
 6250              		.thumb
 6251              		.thumb_func
 6252              		.type	mcpwm_read_hall_phase, %function
 6253              	mcpwm_read_hall_phase:
 6254              	.LFB311:
 6255              		.loc 1 2244 0
 6256              		.cfi_startproc
 6257              		@ args = 0, pretend = 0, frame = 0
 6258              		@ frame_needed = 0, uses_anonymous_args = 0
 6259              		@ link register save eliminated.
 6260              	.LBB164:
 6261              	.LBB165:
 6262              		.loc 1 2249 0
 6263 0000 0E4B     		ldr	r3, .L512
 6264 0002 0F49     		ldr	r1, .L512+4
 6265 0004 1A69     		ldr	r2, [r3, #16]
 6266              	.LBE165:
 6267              	.LBE164:
 6268              		.loc 1 2245 0
 6269 0006 0F48     		ldr	r0, .L512+8
 6270              	.LBB170:
ARM GAS  /var/folders/sv/kgmgr77579zbf78p2zlhkdfr0000gn/T//ccItzhl5.s 			page 111


 6271              	.LBB166:
 6272              		.loc 1 2249 0
 6273 0008 1B69     		ldr	r3, [r3, #16]
 6274 000a 0969     		ldr	r1, [r1, #16]
 6275              	.LBE166:
 6276              	.LBE170:
 6277              		.loc 1 2245 0
 6278 000c 0068     		ldr	r0, [r0]
 6279              	.LBB171:
 6280              	.LBB167:
 6281              		.loc 1 2249 0
 6282 000e 9B09     		lsrs	r3, r3, #6
 6283 0010 490A     		lsrs	r1, r1, #9
 6284 0012 03F00203 		and	r3, r3, #2
 6285 0016 01F00401 		and	r1, r1, #4
 6286              	.LBE167:
 6287              	.LBE171:
 6288              		.loc 1 2245 0
 6289 001a 0028     		cmp	r0, #0
 6290              	.LBB172:
 6291              	.LBB168:
 6292              		.loc 1 2249 0
 6293 001c C2F38012 		ubfx	r2, r2, #6, #1
 6294 0020 43EA0103 		orr	r3, r3, r1
 6295              	.LBE168:
 6296              	.LBE172:
 6297              		.loc 1 2245 0
 6298 0024 18BF     		it	ne
 6299 0026 0820     		movne	r0, #8
 6300              	.LBB173:
 6301              	.LBB169:
 6302              		.loc 1 2249 0
 6303 0028 1343     		orrs	r3, r3, r2
 6304              	.LBE169:
 6305              	.LBE173:
 6306              		.loc 1 2244 0
 6307 002a 10B4     		push	{r4}
 6308              		.cfi_def_cfa_offset 4
 6309              		.cfi_offset 4, -4
 6310              		.loc 1 2245 0
 6311 002c 0344     		add	r3, r3, r0
 6312 002e 064C     		ldr	r4, .L512+12
 6313              		.loc 1 2246 0
 6314 0030 54F82300 		ldr	r0, [r4, r3, lsl #2]
 6315 0034 5DF8044B 		ldr	r4, [sp], #4
 6316              		.cfi_restore 4
 6317              		.cfi_def_cfa_offset 0
 6318 0038 7047     		bx	lr
 6319              	.L513:
 6320 003a 00BF     		.align	2
 6321              	.L512:
 6322 003c 00040240 		.word	1073873920
 6323 0040 00080240 		.word	1073874944
 6324 0044 00000000 		.word	.LANCHOR4
 6325 0048 00000000 		.word	.LANCHOR31
 6326              		.cfi_endproc
 6327              	.LFE311:
ARM GAS  /var/folders/sv/kgmgr77579zbf78p2zlhkdfr0000gn/T//ccItzhl5.s 			page 112


 6328              		.size	mcpwm_read_hall_phase, .-mcpwm_read_hall_phase
 6329              		.section	.text.set_duty_cycle_ll,"ax",%progbits
 6330              		.align	2
 6331              		.p2align 4,,15
 6332              		.thumb
 6333              		.thumb_func
 6334              		.type	set_duty_cycle_ll, %function
 6335              	set_duty_cycle_ll:
 6336              	.LFB291:
 6337              		.loc 1 1001 0
 6338              		.cfi_startproc
 6339              		@ args = 0, pretend = 0, frame = 0
 6340              		@ frame_needed = 0, uses_anonymous_args = 0
 6341              	.LVL480:
 6342 0000 38B5     		push	{r3, r4, r5, lr}
 6343              		.cfi_def_cfa_offset 16
 6344              		.cfi_offset 3, -16
 6345              		.cfi_offset 4, -12
 6346              		.cfi_offset 5, -8
 6347              		.cfi_offset 14, -4
 6348              		.loc 1 1002 0
 6349 0002 634C     		ldr	r4, .L565
 6350 0004 2368     		ldr	r3, [r4]
 6351 0006 D3ED157A 		vldr.32	s15, [r3, #84]
 6352 000a F4EEC07A 		vcmpe.f32	s15, s0
 6353 000e F1EE10FA 		vmrs	APSR_nzcv, FPSCR
 6354 0012 22D8     		bhi	.L556
 6355              		.loc 1 1003 0
 6356 0014 5F4A     		ldr	r2, .L565+4
 6357 0016 0121     		movs	r1, #1
 6358 0018 1160     		str	r1, [r2]
 6359              	.L517:
 6360              		.loc 1 1009 0
 6361 001a D3ED157A 		vldr.32	s15, [r3, #84]
 6362 001e B4EEE70A 		vcmpe.f32	s0, s15
 6363 0022 F1EE10FA 		vmrs	APSR_nzcv, FPSCR
 6364 0026 2DD5     		bpl	.L557
 6365              	.L563:
 6366              	.LBB174:
 6367              		.loc 1 1012 0
 6368 0028 5B4A     		ldr	r2, .L565+8
 6369 002a 1178     		ldrb	r1, [r2]	@ zero_extendqisi2
 6370 002c 0229     		cmp	r1, #2
 6371 002e 65D0     		beq	.L521
 6372              		.loc 1 1013 0 discriminator 1
 6373 0030 1178     		ldrb	r1, [r2]	@ zero_extendqisi2
 6374              		.loc 1 1012 0 discriminator 1
 6375 0032 0329     		cmp	r1, #3
 6376 0034 62D0     		beq	.L521
 6377              		.loc 1 1014 0
 6378 0036 1278     		ldrb	r2, [r2]	@ zero_extendqisi2
 6379              		.loc 1 1013 0
 6380 0038 012A     		cmp	r2, #1
 6381 003a 5FD0     		beq	.L521
 6382              		.loc 1 1023 0
 6383 003c 574D     		ldr	r5, .L565+12
 6384              		.loc 1 1020 0
ARM GAS  /var/folders/sv/kgmgr77579zbf78p2zlhkdfr0000gn/T//ccItzhl5.s 			page 113


 6385 003e D3ED097A 		vldr.32	s15, [r3, #36]
 6386              	.LVL481:
 6387              		.loc 1 1023 0
 6388 0042 2A78     		ldrb	r2, [r5]	@ zero_extendqisi2
 6389 0044 D2B2     		uxtb	r2, r2
 6390 0046 012A     		cmp	r2, #1
 6391 0048 5FD1     		bne	.L562
 6392              	.L525:
 6393              	.LBB175:
 6394              	.LBB176:
 6395              		.loc 1 886 0
 6396 004a 554A     		ldr	r2, .L565+16
 6397              		.loc 1 885 0
 6398 004c 0023     		movs	r3, #0
 6399 004e 2B70     		strb	r3, [r5]
 6400              		.loc 1 886 0
 6401 0050 1360     		str	r3, [r2]
 6402              	.LBE176:
 6403              	.LBE175:
 6404              	.LBE174:
 6405              		.loc 1 1077 0
 6406 0052 BDE83840 		pop	{r3, r4, r5, lr}
 6407              		.cfi_remember_state
 6408              		.cfi_restore 14
 6409              		.cfi_restore 5
 6410              		.cfi_restore 4
 6411              		.cfi_restore 3
 6412              		.cfi_def_cfa_offset 0
 6413              	.LBB183:
 6414              	.LBB178:
 6415              	.LBB177:
 6416              		.loc 1 887 0
 6417 0056 FFF7FEBF 		b	stop_pwm_hw
 6418              	.LVL482:
 6419              	.L556:
 6420              		.cfi_restore_state
 6421              	.LBE177:
 6422              	.LBE178:
 6423              	.LBE183:
 6424              		.loc 1 1004 0
 6425 005a D3ED157A 		vldr.32	s15, [r3, #84]
 6426 005e F1EE677A 		vneg.f32	s15, s15
 6427 0062 B4EEE70A 		vcmpe.f32	s0, s15
 6428 0066 F1EE10FA 		vmrs	APSR_nzcv, FPSCR
 6429 006a D6D8     		bhi	.L517
 6430              		.loc 1 1006 0
 6431 006c 494A     		ldr	r2, .L565+4
 6432 006e 0021     		movs	r1, #0
 6433 0070 1160     		str	r1, [r2]
 6434              		.loc 1 1009 0
 6435 0072 D3ED157A 		vldr.32	s15, [r3, #84]
 6436              		.loc 1 1005 0
 6437 0076 B1EE400A 		vneg.f32	s0, s0
 6438              	.LVL483:
 6439              		.loc 1 1009 0
 6440 007a B4EEE70A 		vcmpe.f32	s0, s15
 6441 007e F1EE10FA 		vmrs	APSR_nzcv, FPSCR
ARM GAS  /var/folders/sv/kgmgr77579zbf78p2zlhkdfr0000gn/T//ccItzhl5.s 			page 114


 6442 0082 D1D4     		bmi	.L563
 6443              	.L557:
 6444              		.loc 1 1042 0
 6445 0084 D3ED167A 		vldr.32	s15, [r3, #88]
 6446 0088 444D     		ldr	r5, .L565+12
 6447 008a B4EEE70A 		vcmpe.f32	s0, s15
 6448 008e F1EE10FA 		vmrs	APSR_nzcv, FPSCR
 6449              		.loc 1 1043 0
 6450 0092 C8BF     		it	gt
 6451 0094 93ED160A 		vldrgt.32	s0, [r3, #88]
 6452              	.LVL484:
 6453              	.L529:
 6454              		.loc 1 1046 0
 6455 0098 FFF7FEFF 		bl	set_duty_cycle_hw
 6456              	.LVL485:
 6457              		.loc 1 1048 0
 6458 009c 2368     		ldr	r3, [r4]
 6459 009e 9C78     		ldrb	r4, [r3, #2]	@ zero_extendqisi2
 6460 00a0 E4B2     		uxtb	r4, r4
 6461 00a2 012C     		cmp	r4, #1
 6462 00a4 60D0     		beq	.L564
 6463              		.loc 1 1053 0
 6464 00a6 3F4A     		ldr	r2, .L565+20
 6465 00a8 1278     		ldrb	r2, [r2]	@ zero_extendqisi2
 6466 00aa AAB1     		cbz	r2, .L532
 6467              		.loc 1 1054 0
 6468 00ac 2978     		ldrb	r1, [r5]	@ zero_extendqisi2
 6469 00ae 3B4A     		ldr	r2, .L565+12
 6470 00b0 0229     		cmp	r1, #2
 6471 00b2 10D0     		beq	.L514
 6472              		.loc 1 1055 0
 6473 00b4 1178     		ldrb	r1, [r2]	@ zero_extendqisi2
 6474 00b6 0029     		cmp	r1, #0
 6475 00b8 36D1     		bne	.L534
 6476              		.loc 1 1056 0
 6477 00ba 0220     		movs	r0, #2
 6478              		.loc 1 1058 0
 6479 00bc 3A49     		ldr	r1, .L565+24
 6480              		.loc 1 1056 0
 6481 00be 1070     		strb	r0, [r2]
 6482              		.loc 1 1058 0
 6483 00c0 D1ED007A 		vldr.32	s15, [r1]
 6484 00c4 93ED1F7A 		vldr.32	s14, [r3, #124]
 6485 00c8 F0EEE77A 		vabs.f32	s15, s15
 6486 00cc F4EEC77A 		vcmpe.f32	s15, s14
 6487 00d0 F1EE10FA 		vmrs	APSR_nzcv, FPSCR
 6488 00d4 0DD4     		bmi	.L561
 6489              	.L514:
 6490 00d6 38BD     		pop	{r3, r4, r5, pc}
 6491              	.L532:
 6492              		.loc 1 1069 0
 6493 00d8 2B78     		ldrb	r3, [r5]	@ zero_extendqisi2
 6494 00da 304A     		ldr	r2, .L565+12
 6495 00dc 022B     		cmp	r3, #2
 6496 00de FAD0     		beq	.L514
 6497              		.loc 1 1070 0
 6498 00e0 0223     		movs	r3, #2
ARM GAS  /var/folders/sv/kgmgr77579zbf78p2zlhkdfr0000gn/T//ccItzhl5.s 			page 115


 6499 00e2 1370     		strb	r3, [r2]
 6500              		.loc 1 1071 0
 6501 00e4 FFF7FEFF 		bl	mcpwm_read_hall_phase
 6502              	.LVL486:
 6503 00e8 304B     		ldr	r3, .L565+28
 6504 00ea 1860     		str	r0, [r3]
 6505              		.loc 1 1072 0
 6506 00ec 1868     		ldr	r0, [r3]
 6507 00ee FFF7FEFF 		bl	set_next_comm_step
 6508              	.LVL487:
 6509              	.L561:
 6510              		.loc 1 1073 0
 6511 00f2 0120     		movs	r0, #1
 6512              		.loc 1 1077 0
 6513 00f4 BDE83840 		pop	{r3, r4, r5, lr}
 6514              		.cfi_remember_state
 6515              		.cfi_restore 14
 6516              		.cfi_restore 5
 6517              		.cfi_restore 4
 6518              		.cfi_restore 3
 6519              		.cfi_def_cfa_offset 0
 6520              		.loc 1 1073 0
 6521 00f8 FFF7FEBF 		b	commutate
 6522              	.LVL488:
 6523              	.L521:
 6524              		.cfi_restore_state
 6525              	.LBB184:
 6526              		.loc 1 1023 0
 6527 00fc 274D     		ldr	r5, .L565+12
 6528              		.loc 1 1018 0
