ARM GAS  /var/folders/sv/kgmgr77579zbf78p2zlhkdfr0000gn/T//ccXbx0Pt.s 			page 1


   1              		.syntax unified
   2              		.cpu cortex-m4
   3              		.eabi_attribute 27, 1
   4              		.eabi_attribute 28, 1
   5              		.fpu fpv4-sp-d16
   6              		.eabi_attribute 20, 1
   7              		.eabi_attribute 21, 1
   8              		.eabi_attribute 23, 3
   9              		.eabi_attribute 24, 1
  10              		.eabi_attribute 25, 1
  11              		.eabi_attribute 26, 1
  12              		.eabi_attribute 30, 2
  13              		.eabi_attribute 34, 1
  14              		.eabi_attribute 18, 4
  15              		.thumb
  16              		.syntax unified
  17              		.file	"mcpwm_foc.c"
  18              		.text
  19              	.Ltext0:
  20              		.cfi_sections	.debug_frame
  21              		.section	.text.start_pwm_hw,"ax",%progbits
  22              		.align	2
  23              		.p2align 4,,15
  24              		.thumb
  25              		.thumb_func
  26              		.type	start_pwm_hw, %function
  27              	start_pwm_hw:
  28              	.LFB313:
  29              		.file 1 "mcpwm_foc.c"
  30              		.loc 1 2225 0
  31              		.cfi_startproc
  32              		@ args = 0, pretend = 0, frame = 0
  33              		@ frame_needed = 0, uses_anonymous_args = 0
  34 0000 10B5     		push	{r4, lr}
  35              		.cfi_def_cfa_offset 8
  36              		.cfi_offset 4, -8
  37              		.cfi_offset 14, -4
  38              		.loc 1 2226 0
  39 0002 194C     		ldr	r4, .L3
  40 0004 6022     		movs	r2, #96
  41 0006 2046     		mov	r0, r4
  42 0008 0021     		movs	r1, #0
  43 000a FFF7FEFF 		bl	TIM_SelectOCxM
  44              	.LVL0:
  45              		.loc 1 2227 0
  46 000e 2046     		mov	r0, r4
  47 0010 0122     		movs	r2, #1
  48 0012 0021     		movs	r1, #0
  49 0014 FFF7FEFF 		bl	TIM_CCxCmd
  50              	.LVL1:
  51              		.loc 1 2228 0
  52 0018 2046     		mov	r0, r4
  53 001a 0422     		movs	r2, #4
  54 001c 0021     		movs	r1, #0
  55 001e FFF7FEFF 		bl	TIM_CCxNCmd
  56              	.LVL2:
  57              		.loc 1 2230 0
ARM GAS  /var/folders/sv/kgmgr77579zbf78p2zlhkdfr0000gn/T//ccXbx0Pt.s 			page 2


  58 0022 2046     		mov	r0, r4
  59 0024 6022     		movs	r2, #96
  60 0026 0421     		movs	r1, #4
  61 0028 FFF7FEFF 		bl	TIM_SelectOCxM
  62              	.LVL3:
  63              		.loc 1 2231 0
  64 002c 2046     		mov	r0, r4
  65 002e 0122     		movs	r2, #1
  66 0030 0421     		movs	r1, #4
  67 0032 FFF7FEFF 		bl	TIM_CCxCmd
  68              	.LVL4:
  69              		.loc 1 2232 0
  70 0036 0422     		movs	r2, #4
  71 0038 1146     		mov	r1, r2
  72 003a 2046     		mov	r0, r4
  73 003c FFF7FEFF 		bl	TIM_CCxNCmd
  74              	.LVL5:
  75              		.loc 1 2234 0
  76 0040 2046     		mov	r0, r4
  77 0042 6022     		movs	r2, #96
  78 0044 0821     		movs	r1, #8
  79 0046 FFF7FEFF 		bl	TIM_SelectOCxM
  80              	.LVL6:
  81              		.loc 1 2235 0
  82 004a 2046     		mov	r0, r4
  83 004c 0122     		movs	r2, #1
  84 004e 0821     		movs	r1, #8
  85 0050 FFF7FEFF 		bl	TIM_CCxCmd
  86              	.LVL7:
  87              		.loc 1 2236 0
  88 0054 0422     		movs	r2, #4
  89 0056 2046     		mov	r0, r4
  90 0058 0821     		movs	r1, #8
  91 005a FFF7FEFF 		bl	TIM_CCxNCmd
  92              	.LVL8:
  93              		.loc 1 2244 0
  94 005e 034B     		ldr	r3, .L3+4
  95 0060 0122     		movs	r2, #1
  96 0062 1A70     		strb	r2, [r3]
  97 0064 10BD     		pop	{r4, pc}
  98              	.L4:
  99 0066 00BF     		.align	2
 100              	.L3:
 101 0068 00000140 		.word	1073807360
 102 006c 00000000 		.word	.LANCHOR0
 103              		.cfi_endproc
 104              	.LFE313:
 105              		.size	start_pwm_hw, .-start_pwm_hw
 106              		.section	.text.stop_pwm_hw,"ax",%progbits
 107              		.align	2
 108              		.p2align 4,,15
 109              		.thumb
 110              		.thumb_func
 111              		.type	stop_pwm_hw, %function
 112              	stop_pwm_hw:
 113              	.LFB312:
 114              		.loc 1 2204 0
ARM GAS  /var/folders/sv/kgmgr77579zbf78p2zlhkdfr0000gn/T//ccXbx0Pt.s 			page 3


 115              		.cfi_startproc
 116              		@ args = 0, pretend = 0, frame = 0
 117              		@ frame_needed = 0, uses_anonymous_args = 0
 118 0000 10B5     		push	{r4, lr}
 119              		.cfi_def_cfa_offset 8
 120              		.cfi_offset 4, -8
 121              		.cfi_offset 14, -4
 122              		.loc 1 2205 0
 123 0002 1B4C     		ldr	r4, .L7
 124 0004 4022     		movs	r2, #64
 125 0006 2046     		mov	r0, r4
 126 0008 0021     		movs	r1, #0
 127 000a FFF7FEFF 		bl	TIM_SelectOCxM
 128              	.LVL9:
 129              		.loc 1 2206 0
 130 000e 2046     		mov	r0, r4
 131 0010 0122     		movs	r2, #1
 132 0012 0021     		movs	r1, #0
 133 0014 FFF7FEFF 		bl	TIM_CCxCmd
 134              	.LVL10:
 135              		.loc 1 2207 0
 136 0018 0022     		movs	r2, #0
 137 001a 1146     		mov	r1, r2
 138 001c 2046     		mov	r0, r4
 139 001e FFF7FEFF 		bl	TIM_CCxNCmd
 140              	.LVL11:
 141              		.loc 1 2209 0
 142 0022 2046     		mov	r0, r4
 143 0024 4022     		movs	r2, #64
 144 0026 0421     		movs	r1, #4
 145 0028 FFF7FEFF 		bl	TIM_SelectOCxM
 146              	.LVL12:
 147              		.loc 1 2210 0
 148 002c 2046     		mov	r0, r4
 149 002e 0122     		movs	r2, #1
 150 0030 0421     		movs	r1, #4
 151 0032 FFF7FEFF 		bl	TIM_CCxCmd
 152              	.LVL13:
 153              		.loc 1 2211 0
 154 0036 2046     		mov	r0, r4
 155 0038 0022     		movs	r2, #0
 156 003a 0421     		movs	r1, #4
 157 003c FFF7FEFF 		bl	TIM_CCxNCmd
 158              	.LVL14:
 159              		.loc 1 2213 0
 160 0040 2046     		mov	r0, r4
 161 0042 4022     		movs	r2, #64
 162 0044 0821     		movs	r1, #8
 163 0046 FFF7FEFF 		bl	TIM_SelectOCxM
 164              	.LVL15:
 165              		.loc 1 2214 0
 166 004a 2046     		mov	r0, r4
 167 004c 0122     		movs	r2, #1
 168 004e 0821     		movs	r1, #8
 169 0050 FFF7FEFF 		bl	TIM_CCxCmd
 170              	.LVL16:
 171              		.loc 1 2215 0
ARM GAS  /var/folders/sv/kgmgr77579zbf78p2zlhkdfr0000gn/T//ccXbx0Pt.s 			page 4


 172 0054 0022     		movs	r2, #0
 173 0056 2046     		mov	r0, r4
 174 0058 0821     		movs	r1, #8
 175 005a FFF7FEFF 		bl	TIM_CCxNCmd
 176              	.LVL17:
 177              		.loc 1 2217 0
 178 005e 2046     		mov	r0, r4
 179 0060 2021     		movs	r1, #32
 180 0062 FFF7FEFF 		bl	TIM_GenerateEvent
 181              	.LVL18:
 182              		.loc 1 2222 0
 183 0066 034B     		ldr	r3, .L7+4
 184 0068 0022     		movs	r2, #0
 185 006a 1A70     		strb	r2, [r3]
 186 006c 10BD     		pop	{r4, pc}
 187              	.L8:
 188 006e 00BF     		.align	2
 189              	.L7:
 190 0070 00000140 		.word	1073807360
 191 0074 00000000 		.word	.LANCHOR0
 192              		.cfi_endproc
 193              	.LFE312:
 194              		.size	stop_pwm_hw, .-stop_pwm_hw
 195              		.section	.text.timer_thread,"ax",%progbits
 196              		.align	2
 197              		.p2align 4,,15
 198              		.thumb
 199              		.thumb_func
 200              		.type	timer_thread, %function
 201              	timer_thread:
 202              	.LFB305:
 203              		.loc 1 1751 0
 204              		.cfi_startproc
 205              		@ args = 0, pretend = 0, frame = 32
 206              		@ frame_needed = 0, uses_anonymous_args = 0
 207              	.LVL19:
 208 0000 2DE9F04F 		push	{r4, r5, r6, r7, r8, r9, r10, fp, lr}
 209              		.cfi_def_cfa_offset 36
 210              		.cfi_offset 4, -36
 211              		.cfi_offset 5, -32
 212              		.cfi_offset 6, -28
 213              		.cfi_offset 7, -24
 214              		.cfi_offset 8, -20
 215              		.cfi_offset 9, -16
 216              		.cfi_offset 10, -12
 217              		.cfi_offset 11, -8
 218              		.cfi_offset 14, -4
 219              	.LBB71:
 220              	.LBB72:
 221              		.file 2 "ChibiOS_3.0.2/os/rt/include/chregistry.h"
 222              		.loc 2 135 0
 223 0004 8C4B     		ldr	r3, .L43
 224 0006 8D48     		ldr	r0, .L43+4
 225              	.LVL20:
 226 0008 9969     		ldr	r1, [r3, #24]
 227              	.LBE72:
 228              	.LBE71:
ARM GAS  /var/folders/sv/kgmgr77579zbf78p2zlhkdfr0000gn/T//ccXbx0Pt.s 			page 5


 229              		.loc 1 1751 0
 230 000a 2DED0A8B 		vpush.64	{d8, d9, d10, d11, d12}
 231              		.cfi_def_cfa_offset 76
 232              		.cfi_offset 80, -76
 233              		.cfi_offset 81, -72
 234              		.cfi_offset 82, -68
 235              		.cfi_offset 83, -64
 236              		.cfi_offset 84, -60
 237              		.cfi_offset 85, -56
 238              		.cfi_offset 86, -52
 239              		.cfi_offset 87, -48
 240              		.cfi_offset 88, -44
 241              		.cfi_offset 89, -40
 242              	.LBB74:
 243              	.LBB75:
 244              	.LBB76:
 245              	.LBB77:
 246              	.LBB78:
 247              	.LBB79:
 248              		.file 3 "ChibiOS_3.0.2/os/ext/CMSIS/include/core_cmFunc.h"
 249              		.loc 3 546 0
 250 000e 2022     		movs	r2, #32
 251              	.LBE79:
 252              	.LBE78:
 253              	.LBE77:
 254              	.LBE76:
 255              	.LBE75:
 256              	.LBE74:
 257              		.loc 1 1751 0
 258 0010 89B0     		sub	sp, sp, #36
 259              		.cfi_def_cfa_offset 112
 260              	.LBB97:
 261              	.LBB73:
 262              		.loc 2 135 0
 263 0012 8861     		str	r0, [r1, #24]
 264              	.LVL21:
 265              	.LBE73:
 266              	.LBE97:
 267              	.LBB98:
 268              	.LBB96:
 269              	.LBB83:
 270              	.LBB82:
 271              	.LBB81:
 272              	.LBB80:
 273              		.loc 3 546 0
 274              		.syntax unified
 275              	@ 546 "ChibiOS_3.0.2/os/ext/CMSIS/include/core_cmFunc.h" 1
 276 0014 82F31188 		MSR basepri, r2
 277              	@ 0 "" 2
 278              	.LVL22:
 279              		.thumb
 280              		.syntax unified
 281              	.LBE80:
 282              	.LBE81:
 283              	.LBE82:
 284              	.LBE83:
 285              	.LBB84:
ARM GAS  /var/folders/sv/kgmgr77579zbf78p2zlhkdfr0000gn/T//ccXbx0Pt.s 			page 6


 286              	.LBB85:
 287              	.LBB86:
 288              	.LBB87:
 289              	.LBB88:
 290 0018 0022     		movs	r2, #0
 291              	.LBE88:
 292              	.LBE87:
 293              	.LBE86:
 294              	.LBE85:
 295              	.LBE84:
 296              	.LBB93:
 297              	.LBB94:
 298              		.file 4 "ChibiOS_3.0.2/os/rt/include/chvt.h"
 299              		.loc 4 231 0
 300 001a 9C6A     		ldr	r4, [r3, #40]
 301              	.LVL23:
 302              	.LBE94:
 303              	.LBE93:
 304              	.LBB95:
 305              	.LBB92:
 306              	.LBB91:
 307              	.LBB90:
 308              	.LBB89:
 309              		.loc 3 546 0
 310              		.syntax unified
 311              	@ 546 "ChibiOS_3.0.2/os/ext/CMSIS/include/core_cmFunc.h" 1
 312 001c 82F31188 		MSR basepri, r2
 313              	@ 0 "" 2
 314              	.LVL24:
 315              		.thumb
 316              		.syntax unified
 317              	.LBE89:
 318              	.LBE90:
 319              	.LBE91:
 320              	.LBE92:
 321              	.LBE95:
 322              	.LBE96:
 323              	.LBE98:
 324              	.LBB99:
 325              		.loc 1 1763 0
 326 0020 874D     		ldr	r5, .L43+8
 327 0022 2B78     		ldrb	r3, [r5]	@ zero_extendqisi2
 328              	.LVL25:
 329 0024 002B     		cmp	r3, #0
 330 0026 4BD1     		bne	.L25
 331 0028 0A34     		adds	r4, r4, #10
 332              	.LVL26:
 333 002a DFF84492 		ldr	r9, .L43+56
 334 002e DFF84482 		ldr	r8, .L43+60
 335 0032 844E     		ldr	r6, .L43+12
 336 0034 844F     		ldr	r7, .L43+16
 337              	.LBB100:
 338              		.loc 1 1770 0
 339 0036 DFF840A2 		ldr	r10, .L43+64
 340              	.LBE100:
 341              	.LBB101:
 342              	.LBB102:
ARM GAS  /var/folders/sv/kgmgr77579zbf78p2zlhkdfr0000gn/T//ccXbx0Pt.s 			page 7


 343              	.LBB103:
 344              	.LBB104:
 345              		.loc 1 730 0
 346 003a DFED849A 		vldr.32	s19, .L43+20
 347 003e 9FED849A 		vldr.32	s18, .L43+24
 348              	.LBE104:
 349              	.LBE103:
 350              		.loc 1 2177 0
 351 0042 DFED84AA 		vldr.32	s21, .L43+28
 352 0046 9FED84AA 		vldr.32	s20, .L43+32
 353              		.loc 1 2196 0
 354 004a 9FED848A 		vldr.32	s16, .L43+36
 355 004e 09E0     		b	.L26
 356              	.LVL27:
 357              	.L39:
 358              		.loc 1 2160 0
 359 0050 86ED008A 		vstr.32	s16, [r6]
 360              		.loc 1 2161 0
 361 0054 87ED008A 		vstr.32	s16, [r7]
 362              	.L24:
 363              	.LVL28:
 364              	.LBE102:
 365              	.LBE101:
 366              		.loc 1 1781 0
 367 0058 2046     		mov	r0, r4
 368 005a FFF7FEFF 		bl	chThdSleepUntil
 369              	.LVL29:
 370              		.loc 1 1763 0
 371 005e 2B78     		ldrb	r3, [r5]	@ zero_extendqisi2
 372              		.loc 1 1760 0
 373 0060 0A34     		adds	r4, r4, #10
 374              	.LVL30:
 375              		.loc 1 1763 0
 376 0062 6BBB     		cbnz	r3, .L25
 377              	.LVL31:
 378              	.L26:
 379              		.loc 1 1769 0
 380 0064 99F80030 		ldrb	r3, [r9]	@ zero_extendqisi2
 381 0068 022B     		cmp	r3, #2
 382 006a 30D0     		beq	.L38
 383              	.L11:
 384              	.LVL32:
 385              	.LBB116:
 386              	.LBB113:
 387              		.loc 1 2159 0
 388 006c 98F80030 		ldrb	r3, [r8]	@ zero_extendqisi2
 389 0070 012B     		cmp	r3, #1
 390 0072 EDD1     		bne	.L39
 391              	.LBB109:
 392              	.LBB105:
 393              		.loc 1 730 0
 394 0074 7A4B     		ldr	r3, .L43+40
 395              	.LBE105:
 396              	.LBE109:
 397              		.loc 1 2169 0
 398 0076 DFF804B2 		ldr	fp, .L43+68
 399              	.LBB110:
ARM GAS  /var/folders/sv/kgmgr77579zbf78p2zlhkdfr0000gn/T//ccXbx0Pt.s 			page 8


 400              	.LBB106:
 401              		.loc 1 730 0
 402 007a 93ED007A 		vldr.32	s14, [r3]
 403              	.LBE106:
 404              	.LBE110:
 405              		.loc 1 2166 0
 406 007e 794B     		ldr	r3, .L43+44
 407              		.loc 1 2169 0
 408 0080 DBF80020 		ldr	r2, [fp]
 409              		.loc 1 2166 0
 410 0084 D3ED008A 		vldr.32	s17, [r3]
 411              		.loc 1 2169 0
 412 0088 D3ED007A 		vldr.32	s15, [r3]
 413 008c D2ED496A 		vldr.32	s13, [r2, #292]
 414              	.LBB111:
 415              	.LBB107:
 416              		.loc 1 730 0
 417 0090 27EE297A 		vmul.f32	s14, s14, s19
 418              	.LBE107:
 419              	.LBE111:
 420              		.loc 1 2169 0
 421 0094 F0EEE77A 		vabs.f32	s15, s15
 422              	.LBB112:
 423              	.LBB108:
 424              		.loc 1 730 0
 425 0098 87EE09BA 		vdiv.f32	s22, s14, s18
 426              	.LBE108:
 427              	.LBE112:
 428              		.loc 1 2169 0
 429 009c F4EEE67A 		vcmpe.f32	s15, s13
 430 00a0 F1EE10FA 		vmrs	APSR_nzcv, FPSCR
 431              		.loc 1 2166 0
 432 00a4 78EECB8A 		vsub.f32	s17, s17, s22
 433              	.LVL33:
 434              		.loc 1 2169 0
 435 00a8 55D5     		bpl	.L33
 436              	.LBE113:
 437              	.LBE116:
 438              		.loc 1 1781 0
 439 00aa 2046     		mov	r0, r4
 440              	.LBB117:
 441              	.LBB114:
 442              		.loc 1 2170 0
 443 00ac 86ED008A 		vstr.32	s16, [r6]
 444              		.loc 1 2171 0
 445 00b0 C7ED008A 		vstr.32	s17, [r7]
 446              	.LVL34:
 447              	.LBE114:
 448              	.LBE117:
 449              		.loc 1 1781 0
 450 00b4 FFF7FEFF 		bl	chThdSleepUntil
 451              	.LVL35:
 452              		.loc 1 1763 0
 453 00b8 2B78     		ldrb	r3, [r5]	@ zero_extendqisi2
 454              		.loc 1 1760 0
 455 00ba 0A34     		adds	r4, r4, #10
 456              	.LVL36:
ARM GAS  /var/folders/sv/kgmgr77579zbf78p2zlhkdfr0000gn/T//ccXbx0Pt.s 			page 9


 457              		.loc 1 1763 0
 458 00bc 002B     		cmp	r3, #0
 459 00be D1D0     		beq	.L26
 460              	.LVL37:
 461              	.L25:
 462              		.loc 1 1764 0
 463 00c0 0023     		movs	r3, #0
 464 00c2 2B70     		strb	r3, [r5]
 465              	.LBE99:
 466              		.loc 1 1784 0
 467 00c4 09B0     		add	sp, sp, #36
 468              		.cfi_remember_state
 469              		.cfi_def_cfa_offset 76
 470              		@ sp needed
 471 00c6 BDEC0A8B 		vldm	sp!, {d8-d12}
 472              		.cfi_restore 88
 473              		.cfi_restore 89
 474              		.cfi_restore 86
 475              		.cfi_restore 87
 476              		.cfi_restore 84
 477              		.cfi_restore 85
 478              		.cfi_restore 82
 479              		.cfi_restore 83
 480              		.cfi_restore 80
 481              		.cfi_restore 81
 482              		.cfi_def_cfa_offset 36
 483 00ca BDE8F08F 		pop	{r4, r5, r6, r7, r8, r9, r10, fp, pc}
 484              	.LVL38:
 485              	.L38:
 486              		.cfi_restore_state
 487              	.LBB121:
 488              	.LBB118:
 489              		.loc 1 1770 0
 490 00ce DAF84C30 		ldr	r3, [r10, #76]	@ float
 491 00d2 0393     		str	r3, [sp, #12]	@ float
 492              		.loc 1 1771 0
 493 00d4 DAF85030 		ldr	r3, [r10, #80]	@ float
 494 00d8 0493     		str	r3, [sp, #16]	@ float
 495              		.loc 1 1772 0
 496 00da DAF83C30 		ldr	r3, [r10, #60]	@ float
 497 00de 0593     		str	r3, [sp, #20]	@ float
 498              		.loc 1 1773 0
 499 00e0 DAF84030 		ldr	r3, [r10, #64]	@ float
 500 00e4 0693     		str	r3, [sp, #24]	@ float
 501              		.loc 1 1775 0
 502 00e6 DDED056A 		vldr.32	s13, [sp, #20]
 503 00ea 9DED057A 		vldr.32	s14, [sp, #20]
 504 00ee DDED067A 		vldr.32	s15, [sp, #24]
 505 00f2 9DED060A 		vldr.32	s0, [sp, #24]
 506 00f6 27EE800A 		vmul.f32	s0, s15, s0
 507 00fa A6EE870A 		vfma.f32	s0, s13, s14
 508 00fe F1EEC07A 		vsqrt.f32	s15, s0
 509 0102 F4EE677A 		vcmp.f32	s15, s15
 510 0106 F1EE10FA 		vmrs	APSR_nzcv, FPSCR
 511 010a 40F08F80 		bne	.L40
 512              	.L12:
 513 010e 564B     		ldr	r3, .L43+48
ARM GAS  /var/folders/sv/kgmgr77579zbf78p2zlhkdfr0000gn/T//ccXbx0Pt.s 			page 10


 514 0110 93ED010A 		vldr.32	s0, [r3, #4]
 515 0114 77EE807A 		vadd.f32	s15, s15, s0
 516 0118 C3ED017A 		vstr.32	s15, [r3, #4]
 517              		.loc 1 1776 0
 518 011c DDED036A 		vldr.32	s13, [sp, #12]
 519 0120 9DED037A 		vldr.32	s14, [sp, #12]
 520 0124 DDED047A 		vldr.32	s15, [sp, #16]
 521 0128 9DED040A 		vldr.32	s0, [sp, #16]
 522 012c 27EE800A 		vmul.f32	s0, s15, s0
 523 0130 A6EE870A 		vfma.f32	s0, s13, s14
 524 0134 F1EEC07A 		vsqrt.f32	s15, s0
 525 0138 F4EE677A 		vcmp.f32	s15, s15
 526 013c F1EE10FA 		vmrs	APSR_nzcv, FPSCR
 527 0140 6DD1     		bne	.L41
 528              	.L13:
 529 0142 93ED020A 		vldr.32	s0, [r3, #8]
 530 0146 77EE807A 		vadd.f32	s15, s15, s0
 531 014a C3ED027A 		vstr.32	s15, [r3, #8]
 532              		.loc 1 1777 0
 533 014e 1A68     		ldr	r2, [r3]
 534 0150 0132     		adds	r2, r2, #1
 535 0152 1A60     		str	r2, [r3]
 536 0154 8AE7     		b	.L11
 537              	.LVL39:
 538              	.L33:
 539              	.LBE118:
 540              	.LBB119:
 541              	.LBB115:
 542              		.loc 1 2176 0
 543 0156 92ED46CA 		vldr.32	s24, [r2, #280]
 544              		.loc 1 2177 0
 545 015a 92ED477A 		vldr.32	s14, [r2, #284]
 546              		.loc 1 2178 0
 547 015e 92ED486A 		vldr.32	s12, [r2, #288]
 548              		.loc 1 2177 0
 549 0162 D6ED006A 		vldr.32	s13, [r6]
 550              		.loc 1 2178 0
 551 0166 D7ED007A 		vldr.32	s15, [r7]
 552              		.loc 1 2181 0
 553 016a 3648     		ldr	r0, .L43+12
 554              		.loc 1 2178 0
 555 016c C6EE2ABA 		vdiv.f32	s23, s12, s21
 556              		.loc 1 2177 0
 557 0170 27EE2A7A 		vmul.f32	s14, s14, s21
 558              		.loc 1 2178 0
 559 0174 78EEE77A 		vsub.f32	s15, s17, s15
 560              		.loc 1 2177 0
 561 0178 27EE287A 		vmul.f32	s14, s14, s17
 562              		.loc 1 2181 0
 563 017c F7EE000A 		vmov.f32	s1, #1.0e+0
 564              		.loc 1 2177 0
 565 0180 E7EE0A6A 		vfma.f32	s13, s14, s20
 566              		.loc 1 2181 0
 567 0184 BFEE000A 		vmov.f32	s0, #-1.0e+0
 568              		.loc 1 2178 0
 569 0188 67EEABBA 		vmul.f32	s23, s15, s23
 570              		.loc 1 2177 0
ARM GAS  /var/folders/sv/kgmgr77579zbf78p2zlhkdfr0000gn/T//ccXbx0Pt.s 			page 11


 571 018c C6ED006A 		vstr.32	s13, [r6]
 572              		.loc 1 2176 0
 573 0190 28EE8CCA 		vmul.f32	s24, s17, s24
 574              	.LVL40:
 575              		.loc 1 2181 0
 576 0194 FFF7FEFF 		bl	utils_truncate_number
 577              	.LVL41:
 578              		.loc 1 2187 0
 579 0198 D6ED007A 		vldr.32	s15, [r6]
 580              		.loc 1 2184 0
 581 019c C7ED008A 		vstr.32	s17, [r7]
 582              		.loc 1 2187 0
 583 01a0 ECEE0A7A 		vfma.f32	s15, s24, s20
 584 01a4 08A8     		add	r0, sp, #32
 585              		.loc 1 2188 0
 586 01a6 F7EE000A 		vmov.f32	s1, #1.0e+0
 587              		.loc 1 2187 0
 588 01aa EBEE8A7A 		vfma.f32	s15, s23, s20
 589              		.loc 1 2188 0
 590 01ae BFEE000A 		vmov.f32	s0, #-1.0e+0
 591              		.loc 1 2187 0
 592 01b2 60ED017A 		vstmdb.32	r0!, {s15}
 593              		.loc 1 2188 0
 594 01b6 FFF7FEFF 		bl	utils_truncate_number
 595              	.LVL42:
 596              		.loc 1 2191 0
 597 01ba DBF80030 		ldr	r3, [fp]
 598 01be 93F82821 		ldrb	r2, [r3, #296]	@ zero_extendqisi2
 599 01c2 FAB9     		cbnz	r2, .L42
 600              		.loc 1 2192 0
 601 01c4 B5EEC0BA 		vcmpe.f32	s22, #0
 602 01c8 F1EE10FA 		vmrs	APSR_nzcv, FPSCR
 603 01cc DDED077A 		vldr.32	s15, [sp, #28]
 604 01d0 04DD     		ble	.L22
 605 01d2 F5EEC07A 		vcmpe.f32	s15, #0
 606 01d6 F1EE10FA 		vmrs	APSR_nzcv, FPSCR
 607 01da 1DD4     		bmi	.L37
 608              	.L22:
 609              		.loc 1 2196 0
 610 01dc B5EEC0BA 		vcmpe.f32	s22, #0
 611 01e0 F1EE10FA 		vmrs	APSR_nzcv, FPSCR
 612 01e4 06D5     		bpl	.L19
 613 01e6 F5EE407A 		vcmp.f32	s15, #0
 614 01ea F1EE10FA 		vmrs	APSR_nzcv, FPSCR
 615 01ee C8BF     		it	gt
 616 01f0 F0EE487A 		vmovgt.f32	s15, s16
 617              	.L19:
 618              		.loc 1 2201 0
 619 01f4 93ED197A 		vldr.32	s14, [r3, #100]
 620 01f8 1C4B     		ldr	r3, .L43+52
 621 01fa 67EE877A 		vmul.f32	s15, s15, s14
 622 01fe C3ED007A 		vstr.32	s15, [r3]
 623 0202 29E7     		b	.L24
 624              	.L42:
 625 0204 93ED197A 		vldr.32	s14, [r3, #100]
 626 0208 DDED077A 		vldr.32	s15, [sp, #28]
 627 020c 174B     		ldr	r3, .L43+52
ARM GAS  /var/folders/sv/kgmgr77579zbf78p2zlhkdfr0000gn/T//ccXbx0Pt.s 			page 12


 628 020e 67EE877A 		vmul.f32	s15, s15, s14
 629 0212 C3ED007A 		vstr.32	s15, [r3]
 630 0216 1FE7     		b	.L24
 631              	.L37:
 632              		.loc 1 2192 0
 633 0218 DFED107A 		vldr.32	s15, .L43+36
 634 021c EAE7     		b	.L19
 635              	.LVL43:
 636              	.L41:
 637 021e 0193     		str	r3, [sp, #4]
 638              	.LBE115:
 639              	.LBE119:
 640              	.LBB120:
 641              		.loc 1 1776 0
 642 0220 FFF7FEFF 		bl	sqrtf
 643              	.LVL44:
 644 0224 019B     		ldr	r3, [sp, #4]
 645 0226 F0EE407A 		vmov.f32	s15, s0
 646 022a 8AE7     		b	.L13
 647              	.L40:
 648              		.loc 1 1775 0
 649 022c FFF7FEFF 		bl	sqrtf
 650              	.LVL45:
 651 0230 F0EE407A 		vmov.f32	s15, s0
 652 0234 6BE7     		b	.L12
 653              	.L44:
 654 0236 00BF     		.align	2
 655              	.L43:
 656 0238 00000000 		.word	ch
 657 023c 00000000 		.word	.LC0
 658 0240 00000000 		.word	.LANCHOR1
 659 0244 00000000 		.word	.LANCHOR6
 660 0248 00000000 		.word	.LANCHOR7
 661 024c 00003443 		.word	1127481344
 662 0250 DB0F4940 		.word	1078530011
 663 0254 6F12833A 		.word	981668463
 664 0258 CDCC4C3D 		.word	1028443341
 665 025c 00000000 		.word	0
 666 0260 00000000 		.word	.LANCHOR8
 667 0264 00000000 		.word	.LANCHOR9
 668 0268 00000000 		.word	.LANCHOR4
 669 026c 00000000 		.word	.LANCHOR11
 670 0270 00000000 		.word	.LANCHOR2
 671 0274 00000000 		.word	.LANCHOR5
 672 0278 00000000 		.word	.LANCHOR3
 673 027c 00000000 		.word	.LANCHOR10
 674              	.LBE120:
 675              	.LBE121:
 676              		.cfi_endproc
 677              	.LFE305:
 678              		.size	timer_thread, .-timer_thread
 679              		.section	.text.mcpwm_foc_adc_int_handler,"ax",%progbits
 680              		.align	2
 681              		.p2align 4,,15
 682              		.global	mcpwm_foc_adc_int_handler
 683              		.thumb
 684              		.thumb_func
ARM GAS  /var/folders/sv/kgmgr77579zbf78p2zlhkdfr0000gn/T//ccXbx0Pt.s 			page 13


 685              		.type	mcpwm_foc_adc_int_handler, %function
 686              	mcpwm_foc_adc_int_handler:
 687              	.LFB304:
 688              		.loc 1 1391 0
 689              		.cfi_startproc
 690              		@ args = 0, pretend = 0, frame = 32
 691              		@ frame_needed = 0, uses_anonymous_args = 0
 692              	.LVL46:
 693 0000 2DE9F04F 		push	{r4, r5, r6, r7, r8, r9, r10, fp, lr}
 694              		.cfi_def_cfa_offset 36
 695              		.cfi_offset 4, -36
 696              		.cfi_offset 5, -32
 697              		.cfi_offset 6, -28
 698              		.cfi_offset 7, -24
 699              		.cfi_offset 8, -20
 700              		.cfi_offset 9, -16
 701              		.cfi_offset 10, -12
 702              		.cfi_offset 11, -8
 703              		.cfi_offset 14, -4
 704              		.loc 1 1395 0
 705 0004 394A     		ldr	r2, .L243
 706              		.loc 1 1397 0
 707 0006 3A4B     		ldr	r3, .L243+4
 708              		.loc 1 1399 0
 709 0008 3A4E     		ldr	r6, .L243+8
 710              		.loc 1 1395 0
 711 000a 0021     		movs	r1, #0
 712              	.LVL47:
 713              		.loc 1 1391 0
 714 000c 2DED048B 		vpush.64	{d8, d9}
 715              		.cfi_def_cfa_offset 52
 716              		.cfi_offset 80, -52
 717              		.cfi_offset 81, -48
 718              		.cfi_offset 82, -44
 719              		.cfi_offset 83, -40
 720              		.loc 1 1395 0
 721 0010 5162     		str	r1, [r2, #36]
 722              		.loc 1 1397 0
 723 0012 1C68     		ldr	r4, [r3]
 724              		.loc 1 1399 0
 725 0014 337B     		ldrb	r3, [r6, #12]	@ zero_extendqisi2
 726              		.loc 1 1391 0
 727 0016 89B0     		sub	sp, sp, #36
 728              		.cfi_def_cfa_offset 88
 729              		.loc 1 1397 0
 730 0018 04F01004 		and	r4, r4, #16
 731              	.LVL48:
 732              		.loc 1 1399 0
 733 001c 0BB9     		cbnz	r3, .L46
 734              		.loc 1 1405 0
 735 001e 002C     		cmp	r4, #0
 736 0020 5ED0     		beq	.L45
 737              	.L46:
 738              		.loc 1 1414 0
 739 0022 354D     		ldr	r5, .L243+12
 740              		.loc 1 1421 0
 741 0024 354F     		ldr	r7, .L243+16
ARM GAS  /var/folders/sv/kgmgr77579zbf78p2zlhkdfr0000gn/T//ccXbx0Pt.s 			page 14


 742              		.loc 1 1428 0
 743 0026 DFF8E080 		ldr	r8, .L243+28
 744              		.loc 1 1412 0
 745 002a 6420     		movs	r0, #100
 746              	.LVL49:
 747 002c FFF7FEFF 		bl	WWDG_SetCounter
 748              	.LVL50:
 749              		.loc 1 1414 0
 750 0030 2889     		ldrh	r0, [r5, #8]
 751              		.loc 1 1415 0
 752 0032 EA88     		ldrh	r2, [r5, #6]
 753              		.loc 1 1421 0
 754 0034 3B68     		ldr	r3, [r7]
 755              		.loc 1 1422 0
 756 0036 3249     		ldr	r1, .L243+20
 757              		.loc 1 1433 0
 758 0038 DFF8D0E0 		ldr	lr, .L243+32
 759              		.loc 1 1427 0
 760 003c DFF8D0C0 		ldr	ip, .L243+36
 761              		.loc 1 1414 0
 762 0040 80B2     		uxth	r0, r0
 763              	.LVL51:
 764              		.loc 1 1421 0
 765 0042 0344     		add	r3, r3, r0
 766 0044 3B60     		str	r3, [r7]
 767              		.loc 1 1422 0
 768 0046 0B68     		ldr	r3, [r1]
 769              		.loc 1 1415 0
 770 0048 92B2     		uxth	r2, r2
 771              	.LVL52:
 772              		.loc 1 1422 0
 773 004a 1344     		add	r3, r3, r2
 774 004c 0B60     		str	r3, [r1]
 775              		.loc 1 1427 0
 776 004e DCF800C0 		ldr	ip, [ip]
 777              		.loc 1 1428 0
 778 0052 D8F80010 		ldr	r1, [r8]
 779              		.loc 1 1433 0
 780 0056 DEF80070 		ldr	r7, [lr]
 781              		.loc 1 1435 0
 782 005a 2A4B     		ldr	r3, .L243+24
 783              		.loc 1 1428 0
 784 005c 511A     		subs	r1, r2, r1
 785              		.loc 1 1427 0
 786 005e CCEB0000 		rsb	r0, ip, r0
 787              	.LVL53:
 788              		.loc 1 1433 0
 789 0062 7A1C     		adds	r2, r7, #1
 790 0064 CEF80020 		str	r2, [lr]
 791              		.loc 1 1435 0
 792 0068 1860     		str	r0, [r3]
 793              		.loc 1 1436 0
 794 006a 5960     		str	r1, [r3, #4]
 795              		.loc 1 1440 0
 796 006c D3F800E0 		ldr	lr, [r3]
 797 0070 5A68     		ldr	r2, [r3, #4]
 798              		.loc 1 1448 0
ARM GAS  /var/folders/sv/kgmgr77579zbf78p2zlhkdfr0000gn/T//ccXbx0Pt.s 			page 15


 799 0072 204F     		ldr	r7, .L243+8
 800              		.loc 1 1440 0
 801 0074 7244     		add	r2, r2, lr
 802 0076 5242     		negs	r2, r2
 803 0078 9A60     		str	r2, [r3, #8]
 804              		.loc 1 1444 0
 805 007a D3F80090 		ldr	r9, [r3]
 806              	.LVL54:
 807              		.loc 1 1445 0
 808 007e D3F80480 		ldr	r8, [r3, #4]
 809              	.LVL55:
 810              		.loc 1 1448 0
 811 0082 337B     		ldrb	r3, [r6, #12]	@ zero_extendqisi2
 812 0084 002B     		cmp	r3, #0
 813 0086 47D0     		beq	.L48
 814              	.LBB147:
 815              		.loc 1 1449 0
 816 0088 54BB     		cbnz	r4, .L45
 817              		.loc 1 1454 0
 818 008a 194A     		ldr	r2, .L243+4
 819              		.loc 1 1457 0
 820 008c DFF88480 		ldr	r8, .L243+40
 821              	.LVL56:
 822              		.loc 1 1454 0
 823 0090 D2ED0B7A 		vldr.32	s15, [r2, #44]	@ int
 824 0094 97ED047A 		vldr.32	s14, [r7, #16]
 825              		.loc 1 1457 0
 826 0098 D8F80030 		ldr	r3, [r8]
 827              		.loc 1 1454 0
 828 009c F8EE677A 		vcvt.f32.u32	s15, s15
 829 00a0 67EE877A 		vmul.f32	s15, s15, s14
 830 00a4 FCEEE77A 		vcvt.u32.f32	s15, s15
 831              	.LVL57:
 832              		.loc 1 1457 0
 833 00a8 002B     		cmp	r3, #0
 834 00aa 00F05682 		beq	.L223
 835              		.loc 1 1460 0
 836 00ae 022B     		cmp	r3, #2
 837 00b0 00F0CD81 		beq	.L224
 838              		.loc 1 1462 0
 839 00b4 032B     		cmp	r3, #3
 840 00b6 00F0A285 		beq	.L225
 841              		.loc 1 1467 0
 842 00ba 052B     		cmp	r3, #5
 843 00bc 00F0CC85 		beq	.L226
 844              		.loc 1 1469 0
 845 00c0 062B     		cmp	r3, #6
 846 00c2 00F02286 		beq	.L227
 847              		.loc 1 1474 0
 848 00c6 082B     		cmp	r3, #8
 849 00c8 00F03485 		beq	.L228
 850              		.loc 1 1480 0
 851 00cc 092B     		cmp	r3, #9
 852 00ce 00F0E087 		beq	.L229
 853              		.loc 1 1490 0
 854 00d2 0A2B     		cmp	r3, #10
 855 00d4 40F0C881 		bne	.L51
ARM GAS  /var/folders/sv/kgmgr77579zbf78p2zlhkdfr0000gn/T//ccXbx0Pt.s 			page 16


 856              		.loc 1 1491 0
 857 00d8 0023     		movs	r3, #0
 858 00da C8F80030 		str	r3, [r8]
 859              		.loc 1 1492 0
 860 00de 3373     		strb	r3, [r6, #12]
 861              	.LVL58:
 862              	.L45:
 863              	.LBE147:
 864              		.loc 1 1747 0
 865 00e0 09B0     		add	sp, sp, #36
 866              		.cfi_remember_state
 867              		.cfi_def_cfa_offset 52
 868              		@ sp needed
 869 00e2 BDEC048B 		vldm	sp!, {d8-d9}
 870              		.cfi_restore 82
 871              		.cfi_restore 83
 872              		.cfi_restore 80
 873              		.cfi_restore 81
 874              		.cfi_def_cfa_offset 36
 875 00e6 BDE8F08F 		pop	{r4, r5, r6, r7, r8, r9, r10, fp, pc}
 876              	.LVL59:
 877              	.L244:
 878 00ea 00BF     		.align	2
 879              	.L243:
 880 00ec 00180040 		.word	1073747968
 881 00f0 00000140 		.word	1073807360
 882 00f4 00000000 		.word	.LANCHOR4
 883 00f8 00000000 		.word	ADC_Value
 884 00fc 00000000 		.word	.LANCHOR12
 885 0100 00000000 		.word	.LANCHOR13
 886 0104 00000000 		.word	ADC_curr_norm_value
 887 0108 00000000 		.word	.LANCHOR15
 888 010c 00000000 		.word	.LANCHOR16
 889 0110 00000000 		.word	.LANCHOR14
 890 0114 00000000 		.word	.LANCHOR17
 891              	.LVL60:
 892              	.L48:
 893              		.cfi_restore_state
 894              		.loc 1 1508 0
 895 0118 D74F     		ldr	r7, .L245
 896              		.loc 1 1511 0
 897 011a D84C     		ldr	r4, .L245+4
 898              	.LVL61:
 899              		.loc 1 1508 0
 900 011c 3B68     		ldr	r3, [r7]
 901              		.loc 1 1511 0
 902 011e DFEDD85A 		vldr.32	s11, .L245+8
 903              		.loc 1 1508 0
 904 0122 D3ED2B6A 		vldr.32	s13, [r3, #172]
 905              		.loc 1 1511 0
 906 0126 94ED0A6A 		vldr.32	s12, [r4, #40]
 907 012a 2B8A     		ldrh	r3, [r5, #16]
 908 012c DFEDD54A 		vldr.32	s9, .L245+12
 909 0130 94ED0A7A 		vldr.32	s14, [r4, #40]
 910 0134 9FEDD45A 		vldr.32	s10, .L245+16
 911 0138 9BB2     		uxth	r3, r3
 912 013a 07EE903A 		vmov	s15, r3	@ int
ARM GAS  /var/folders/sv/kgmgr77579zbf78p2zlhkdfr0000gn/T//ccXbx0Pt.s 			page 17


 913 013e F8EE677A 		vcvt.f32.u32	s15, s15
 914              		.loc 1 1508 0
 915 0142 B6EE004A 		vmov.f32	s8, #5.0e-1
 916              		.loc 1 1511 0
 917 0146 65EEE77A 		vnmul.f32	s15, s11, s15
 918              		.loc 1 1508 0
 919 014a 66EE846A 		vmul.f32	s13, s13, s8
 920              		.loc 1 1511 0
 921 014e A7EEA46A 		vfma.f32	s12, s15, s9
 922 0152 F0EE467A 		vmov.f32	s15, s12
 923 0156 A7EEC57A 		vfms.f32	s14, s15, s10
 924              		.loc 1 1508 0
 925 015a B7EE006A 		vmov.f32	s12, #1.0e+0
 926 015e C6EE268A 		vdiv.f32	s17, s12, s13
 927              	.LVL62:
 928              		.loc 1 1511 0
 929 0162 84ED0A7A 		vstr.32	s14, [r4, #40]
 930              		.loc 1 1514 0
 931 0166 FFF7FEFF 		bl	encoder_is_configured
 932              	.LVL63:
 933 016a 0028     		cmp	r0, #0
 934 016c 40F0B481 		bne	.L200
 935 0170 0DF11C0A 		add	r10, sp, #28
 936              	.L58:
 937              		.loc 1 1532 0
 938 0174 C54B     		ldr	r3, .L245+20
 939              		.loc 1 1535 0
 940 0176 DFF858B3 		ldr	fp, .L245+88
 941              		.loc 1 1532 0
 942 017a D3ED000A 		vldr.32	s1, [r3]
 943 017e 94ED040A 		vldr.32	s0, [r4, #16]
 944 0182 0193     		str	r3, [sp, #4]
 945 0184 FFF7FEFF 		bl	utils_angle_difference_rad
 946              	.LVL64:
 947              		.loc 1 1533 0
 948 0188 2169     		ldr	r1, [r4, #16]	@ float
 949              		.loc 1 1535 0
 950 018a 9BF80020 		ldrb	r2, [fp]	@ zero_extendqisi2
 951              		.loc 1 1533 0
 952 018e 019B     		ldr	r3, [sp, #4]
 953              		.loc 1 1532 0
 954 0190 BA4E     		ldr	r6, .L245+4
 955              		.loc 1 1533 0
 956 0192 1960     		str	r1, [r3]	@ float
 957              		.loc 1 1535 0
 958 0194 022A     		cmp	r2, #2
 959              		.loc 1 1532 0
 960 0196 B0EE408A 		vmov.f32	s16, s0
 961              	.LVL65:
 962              		.loc 1 1535 0
 963 019a 00F01182 		beq	.L230
 964              	.LBB148:
 965              		.loc 1 1670 0
 966 019e AA88     		ldrh	r2, [r5, #4]
 967              		.loc 1 1671 0
 968 01a0 2988     		ldrh	r1, [r5]
 969 01a2 DFEDBB4A 		vldr.32	s9, .L245+24
ARM GAS  /var/folders/sv/kgmgr77579zbf78p2zlhkdfr0000gn/T//ccXbx0Pt.s 			page 18


 970              		.loc 1 1672 0
 971 01a6 6B88     		ldrh	r3, [r5, #2]
 972              		.loc 1 1671 0
 973 01a8 9FEDBA7A 		vldr.32	s14, .L245+28
 974 01ac 9FEDB55A 		vldr.32	s10, .L245+12
 975              		.loc 1 1676 0
 976 01b0 DFEDB93A 		vldr.32	s7, .L245+32
 977 01b4 9FEDB93A 		vldr.32	s6, .L245+36
 978              		.loc 1 1677 0
 979 01b8 9FEDB94A 		vldr.32	s8, .L245+40
 980 01bc DFF81483 		ldr	r8, .L245+92
 981              	.LVL66:
 982              		.loc 1 1671 0
 983 01c0 89B2     		uxth	r1, r1
 984 01c2 07EE901A 		vmov	s15, r1	@ int
 985 01c6 F8EE676A 		vcvt.f32.u32	s13, s15
 986              		.loc 1 1670 0
 987 01ca 92B2     		uxth	r2, r2
 988              	.LVL67:
 989              		.loc 1 1671 0
 990 01cc C6EEA47A 		vdiv.f32	s15, s13, s9
 991              		.loc 1 1672 0
 992 01d0 9BB2     		uxth	r3, r3
 993              		.loc 1 1680 0
 994 01d2 06AD     		add	r5, sp, #24
 995 01d4 2946     		mov	r1, r5
 996 01d6 5046     		mov	r0, r10
 997              		.loc 1 1676 0
 998 01d8 06EE902A 		vmov	s13, r2	@ int
 999              		.loc 1 1672 0
 1000 01dc 06EE103A 		vmov	s12, r3	@ int
 1001              		.loc 1 1676 0
 1002 01e0 F8EE666A 		vcvt.f32.u32	s13, s13
 1003              		.loc 1 1672 0
 1004 01e4 B8EE466A 		vcvt.f32.u32	s12, s12
 1005              		.loc 1 1676 0
 1006 01e8 C6EEA45A 		vdiv.f32	s11, s13, s9
 1007              		.loc 1 1672 0
 1008 01ec C6EE246A 		vdiv.f32	s13, s12, s9
 1009              		.loc 1 1671 0
 1010 01f0 67EE877A 		vmul.f32	s15, s15, s14
 1011              		.loc 1 1676 0
 1012 01f4 65EE875A 		vmul.f32	s11, s11, s14
 1013              		.loc 1 1671 0
 1014 01f8 67EE857A 		vmul.f32	s15, s15, s10
 1015              	.LVL68:
 1016              		.loc 1 1676 0
 1017 01fc 65EE855A 		vmul.f32	s11, s11, s10
 1018 0200 23EEE76A 		vnmul.f32	s12, s7, s15
 1019              		.loc 1 1672 0
 1020 0204 26EE877A 		vmul.f32	s14, s13, s14
 1021              		.loc 1 1676 0
 1022 0208 F0EE466A 		vmov.f32	s13, s12
 1023              		.loc 1 1672 0
 1024 020c 27EE057A 		vmul.f32	s14, s14, s10
 1025              	.LVL69:
 1026              		.loc 1 1676 0
ARM GAS  /var/folders/sv/kgmgr77579zbf78p2zlhkdfr0000gn/T//ccXbx0Pt.s 			page 19


 1027 0210 E5EE836A 		vfma.f32	s13, s11, s6
 1028              		.loc 1 1677 0
 1029 0214 24EE476A 		vnmul.f32	s12, s8, s14
 1030              		.loc 1 1676 0
 1031 0218 E7EE636A 		vfms.f32	s13, s14, s7
 1032              		.loc 1 1677 0
 1033 021c A7EE846A 		vfma.f32	s12, s15, s8
 1034              		.loc 1 1676 0
 1035 0220 C6ED0B6A 		vstr.32	s13, [r6, #44]
 1036              		.loc 1 1677 0
 1037 0224 86ED0C6A 		vstr.32	s12, [r6, #48]
 1038              		.loc 1 1680 0
 1039 0228 96ED040A 		vldr.32	s0, [r6, #16]
 1040              	.LVL70:
 1041 022c FFF7FEFF 		bl	utils_fast_sincos_better
 1042              	.LVL71:
 1043              		.loc 1 1683 0
 1044 0230 96ED0B4A 		vldr.32	s8, [r6, #44]
 1045 0234 96ED0C7A 		vldr.32	s14, [r6, #48]
 1046              		.loc 1 1684 0
 1047 0238 D6ED0C4A 		vldr.32	s9, [r6, #48]
 1048 023c D6ED0B7A 		vldr.32	s15, [r6, #44]
 1049              		.loc 1 1686 0
 1050 0240 96ED135A 		vldr.32	s10, [r6, #76]
 1051 0244 D6ED135A 		vldr.32	s11, [r6, #76]
 1052              		.loc 1 1683 0
 1053 0248 9DED076A 		vldr.32	s12, [sp, #28]
 1054 024c DDED066A 		vldr.32	s13, [sp, #24]
 1055              		.loc 1 1710 0
 1056 0250 944A     		ldr	r2, .L245+44
 1057              		.loc 1 1686 0
 1058 0252 B4EE655A 		vcmp.f32	s10, s11
 1059 0256 F1EE10FA 		vmrs	APSR_nzcv, FPSCR
 1060 025a 08BF     		it	eq
 1061 025c F36C     		ldreq	r3, [r6, #76]	@ float
 1062              		.loc 1 1689 0
 1063 025e 9FED925A 		vldr.32	s10, .L245+48
 1064              		.loc 1 1696 0
 1065 0262 DFED8E5A 		vldr.32	s11, .L245+36
 1066              		.loc 1 1686 0
 1067 0266 18BF     		it	ne
 1068 0268 0023     		movne	r3, #0
 1069              		.loc 1 1683 0
 1070 026a 27EE067A 		vmul.f32	s14, s14, s12
 1071              		.loc 1 1684 0
 1072 026e 67EEC67A 		vnmul.f32	s15, s15, s12
 1073              		.loc 1 1686 0
 1074 0272 E364     		str	r3, [r4, #76]	@ float
 1075              		.loc 1 1687 0
 1076 0274 94ED146A 		vldr.32	s12, [r4, #80]
 1077              		.loc 1 1686 0
 1078 0278 804B     		ldr	r3, .L245+4
 1079              		.loc 1 1683 0
 1080 027a A4EE267A 		vfma.f32	s14, s8, s13
 1081              	.LVL72:
 1082              		.loc 1 1684 0
 1083 027e E6EEA47A 		vfma.f32	s15, s13, s9
ARM GAS  /var/folders/sv/kgmgr77579zbf78p2zlhkdfr0000gn/T//ccXbx0Pt.s 			page 20


 1084              	.LVL73:
 1085              		.loc 1 1687 0
 1086 0282 D4ED146A 		vldr.32	s13, [r4, #80]
 1087 0286 B4EE666A 		vcmp.f32	s12, s13
 1088 028a F1EE10FA 		vmrs	APSR_nzcv, FPSCR
 1089 028e 0CBF     		ite	eq
 1090 0290 1B6D     		ldreq	r3, [r3, #80]	@ float
 1091 0292 0023     		movne	r3, #0
 1092 0294 2365     		str	r3, [r4, #80]	@ float
 1093              		.loc 1 1689 0
 1094 0296 94ED136A 		vldr.32	s12, [r4, #76]
 1095 029a D4ED136A 		vldr.32	s13, [r4, #76]
 1096 029e 36EE477A 		vsub.f32	s14, s12, s14
 1097              	.LVL74:
 1098              		.loc 1 1700 0
 1099 02a2 0023     		movs	r3, #0
 1100              		.loc 1 1689 0
 1101 02a4 E7EE456A 		vfms.f32	s13, s14, s10
 1102 02a8 C4ED136A 		vstr.32	s13, [r4, #76]
 1103              		.loc 1 1690 0
 1104 02ac D4ED146A 		vldr.32	s13, [r4, #80]
 1105 02b0 94ED147A 		vldr.32	s14, [r4, #80]
 1106 02b4 76EEE77A 		vsub.f32	s15, s13, s15
 1107              	.LVL75:
 1108 02b8 A7EEC57A 		vfms.f32	s14, s15, s10
 1109 02bc 84ED147A 		vstr.32	s14, [r4, #80]
 1110              		.loc 1 1692 0
 1111 02c0 E16C     		ldr	r1, [r4, #76]	@ float
 1112 02c2 6165     		str	r1, [r4, #84]	@ float
 1113              		.loc 1 1693 0
 1114 02c4 216D     		ldr	r1, [r4, #80]	@ float
 1115 02c6 A165     		str	r1, [r4, #88]	@ float
 1116              		.loc 1 1696 0
 1117 02c8 D4ED136A 		vldr.32	s13, [r4, #76]
 1118 02cc 94ED0A7A 		vldr.32	s14, [r4, #40]
 1119 02d0 27EE257A 		vmul.f32	s14, s14, s11
 1120 02d4 C6EE877A 		vdiv.f32	s15, s13, s14
 1121 02d8 C4ED0D7A 		vstr.32	s15, [r4, #52]
 1122              		.loc 1 1697 0
 1123 02dc D4ED146A 		vldr.32	s13, [r4, #80]
 1124 02e0 D4ED0A7A 		vldr.32	s15, [r4, #40]
 1125 02e4 67EEA57A 		vmul.f32	s15, s15, s11
 1126 02e8 86EEA77A 		vdiv.f32	s14, s13, s15
 1127 02ec 84ED0E7A 		vstr.32	s14, [r4, #56]
 1128              		.loc 1 1700 0
 1129 02f0 6361     		str	r3, [r4, #20]	@ float
 1130              		.loc 1 1701 0
 1131 02f2 A361     		str	r3, [r4, #24]	@ float
 1132              		.loc 1 1702 0
 1133 02f4 E363     		str	r3, [r4, #60]	@ float
 1134              		.loc 1 1703 0
 1135 02f6 2364     		str	r3, [r4, #64]	@ float
 1136              		.loc 1 1704 0
 1137 02f8 6364     		str	r3, [r4, #68]	@ float
 1138              		.loc 1 1705 0
 1139 02fa A364     		str	r3, [r4, #72]	@ float
 1140              		.loc 1 1706 0
ARM GAS  /var/folders/sv/kgmgr77579zbf78p2zlhkdfr0000gn/T//ccXbx0Pt.s 			page 21


 1141 02fc 6362     		str	r3, [r4, #36]	@ float
 1142              		.loc 1 1707 0
 1143 02fe E361     		str	r3, [r4, #28]	@ float
 1144              		.loc 1 1708 0
 1145 0300 2362     		str	r3, [r4, #32]	@ float
 1146              		.loc 1 1710 0
 1147 0302 1368     		ldr	r3, [r2]	@ float
 1148 0304 2361     		str	r3, [r4, #16]	@ float
 1149              	.LVL76:
 1150              	.L120:
 1151              	.LBE148:
 1152              		.loc 1 1714 0
 1153 0306 94ED146A 		vldr.32	s12, [r4, #80]
 1154              		.loc 1 1715 0
 1155 030a D4ED0D6A 		vldr.32	s13, [r4, #52]
 1156 030e 94ED0D7A 		vldr.32	s14, [r4, #52]
 1157              		.loc 1 1716 0
 1158 0312 D4ED0E7A 		vldr.32	s15, [r4, #56]
 1159 0316 94ED0E0A 		vldr.32	s0, [r4, #56]
 1160              		.loc 1 1715 0
 1161 031a 27EE800A 		vmul.f32	s0, s15, s0
 1162              		.loc 1 1714 0
 1163 031e B5EEC06A 		vcmpe.f32	s12, #0
 1164              		.loc 1 1715 0
 1165 0322 A6EE870A 		vfma.f32	s0, s13, s14
 1166              		.loc 1 1714 0
 1167 0326 F1EE10FA 		vmrs	APSR_nzcv, FPSCR
 1168              		.loc 1 1715 0
 1169 032a B1EEC07A 		vsqrt.f32	s14, s0
 1170              		.loc 1 1714 0
 1171 032e FFEE007A 		vmov.f32	s15, #-1.0e+0
 1172 0332 B7EE008A 		vmov.f32	s16, #1.0e+0
 1173              		.loc 1 1715 0
 1174 0336 B4EE477A 		vcmp.f32	s14, s14
 1175              		.loc 1 1714 0
 1176 033a 48BF     		it	mi
 1177 033c B0EE678A 		vmovmi.f32	s16, s15
 1178              		.loc 1 1715 0
 1179 0340 F1EE10FA 		vmrs	APSR_nzcv, FPSCR
 1180 0344 40F0DC87 		bne	.L231
 1181              	.L125:
 1182              		.loc 1 1716 0
 1183 0348 28EE078A 		vmul.f32	s16, s16, s14
 1184 034c 9FED577A 		vldr.32	s14, .L245+52
 1185              	.LBB149:
 1186              	.LBB150:
 1187              		.loc 1 1818 0
 1188 0350 574E     		ldr	r6, .L245+56
 1189              	.LBE150:
 1190              	.LBE149:
 1191              		.loc 1 1716 0
 1192 0352 C8EE077A 		vdiv.f32	s15, s16, s14
 1193              	.LBB153:
 1194              	.LBB151:
 1195              		.loc 1 1820 0
 1196 0356 5046     		mov	r0, r10
 1197              	.LBE151:
ARM GAS  /var/folders/sv/kgmgr77579zbf78p2zlhkdfr0000gn/T//ccXbx0Pt.s 			page 22


 1198              	.LBE153:
 1199              		.loc 1 1714 0
 1200 0358 C4ED037A 		vstr.32	s15, [r4, #12]
 1201              		.loc 1 1719 0
 1202 035c D4ED047A 		vldr.32	s15, [r4, #16]
 1203              	.LVL77:
 1204              	.LBB154:
 1205              	.LBB152:
 1206              		.loc 1 1818 0
 1207 0360 D6ED006A 		vldr.32	s13, [r6]
 1208 0364 96ED007A 		vldr.32	s14, [r6]
 1209              		.loc 1 1821 0
 1210 0368 524C     		ldr	r4, .L245+60
 1211              		.loc 1 1818 0
 1212 036a F4EE476A 		vcmp.f32	s13, s14
 1213 036e F1EE10FA 		vmrs	APSR_nzcv, FPSCR
 1214 0372 0CBF     		ite	eq
 1215 0374 3368     		ldreq	r3, [r6]	@ float
 1216 0376 0023     		movne	r3, #0
 1217 0378 3360     		str	r3, [r6]	@ float
 1218              		.loc 1 1819 0
 1219 037a 96ED007A 		vldr.32	s14, [r6]
 1220 037e 77EEC77A 		vsub.f32	s15, s15, s14
 1221              	.LVL78:
 1222 0382 CDED077A 		vstr.32	s15, [sp, #28]
 1223              		.loc 1 1820 0
 1224 0386 FFF7FEFF 		bl	utils_norm_angle_rad
 1225              	.LVL79:
 1226              		.loc 1 1821 0
 1227 038a 94ED007A 		vldr.32	s14, [r4]
 1228 038e D4ED007A 		vldr.32	s15, [r4]
 1229              		.loc 1 1822 0
 1230 0392 3B68     		ldr	r3, [r7]
 1231 0394 DDED076A 		vldr.32	s13, [sp, #28]
 1232              		.loc 1 1823 0
 1233 0398 4548     		ldr	r0, .L245+56
 1234              		.loc 1 1821 0
 1235 039a B4EE677A 		vcmp.f32	s14, s15
 1236 039e F1EE10FA 		vmrs	APSR_nzcv, FPSCR
 1237 03a2 0CBF     		ite	eq
 1238 03a4 2268     		ldreq	r2, [r4]	@ float
 1239 03a6 0022     		movne	r2, #0
 1240 03a8 2260     		str	r2, [r4]	@ float
 1241              		.loc 1 1822 0
 1242 03aa 94ED007A 		vldr.32	s14, [r4]
 1243 03ae 93ED356A 		vldr.32	s12, [r3, #212]
 1244 03b2 D6ED007A 		vldr.32	s15, [r6]
 1245 03b6 A6EE267A 		vfma.f32	s14, s12, s13
 1246 03ba E8EE877A 		vfma.f32	s15, s17, s14
 1247 03be C6ED007A 		vstr.32	s15, [r6]
 1248              		.loc 1 1823 0
 1249 03c2 FFF7FEFF 		bl	utils_norm_angle_rad
 1250              	.LVL80:
 1251              		.loc 1 1824 0
 1252 03c6 3B68     		ldr	r3, [r7]
 1253 03c8 DDED076A 		vldr.32	s13, [sp, #28]
 1254 03cc 93ED367A 		vldr.32	s14, [r3, #216]
ARM GAS  /var/folders/sv/kgmgr77579zbf78p2zlhkdfr0000gn/T//ccXbx0Pt.s 			page 23


 1255 03d0 D4ED007A 		vldr.32	s15, [r4]
 1256 03d4 27EE267A 		vmul.f32	s14, s14, s13
 1257 03d8 E8EE877A 		vfma.f32	s15, s17, s14
 1258 03dc C4ED007A 		vstr.32	s15, [r4]
 1259              	.LVL81:
 1260              	.LBE152:
 1261              	.LBE154:
 1262              		.loc 1 1723 0
 1263 03e0 FFF7FEFF 		bl	encoder_is_configured
 1264              	.LVL82:
 1265 03e4 0028     		cmp	r0, #0
 1266 03e6 00F0B580 		beq	.L159
 1267              		.loc 1 1724 0
 1268 03ea 334B     		ldr	r3, .L245+64
 1269 03ec 93ED008A 		vldr.32	s16, [r3]
 1270              	.LVL83:
 1271              	.L128:
 1272              		.loc 1 1727 0
 1273 03f0 3B68     		ldr	r3, [r7]
 1274 03f2 DFED327A 		vldr.32	s15, .L245+68
 1275 03f6 93ED4E7A 		vldr.32	s14, [r3, #312]
 1276 03fa B4EEE77A 		vcmpe.f32	s14, s15
 1277 03fe F1EE10FA 		vmrs	APSR_nzcv, FPSCR
 1278 0402 40F38F80 		ble	.L129
 1279              		.loc 1 1727 0 is_stmt 0 discriminator 1
 1280 0406 93ED4E7A 		vldr.32	s14, [r3, #312]
 1281 040a DFED2D7A 		vldr.32	s15, .L245+72
 1282 040e B4EEE77A 		vcmpe.f32	s14, s15
 1283 0412 F1EE10FA 		vmrs	APSR_nzcv, FPSCR
 1284 0416 40F18580 		bpl	.L129
 1285              		.loc 1 1728 0 is_stmt 1
 1286 041a 88ED008A 		vstr.32	s16, [r8]
 1287              	.L132:
 1288              		.loc 1 1738 0
 1289 041e 9BF80030 		ldrb	r3, [fp]	@ zero_extendqisi2
 1290 0422 022B     		cmp	r3, #2
 1291 0424 00F05284 		beq	.L232
 1292              	.LVL84:
 1293              	.L133:
 1294              		.loc 1 1744 0
 1295 0428 FFF7FEFF 		bl	mc_interface_mc_timer_isr
 1296              	.LVL85:
 1297              		.loc 1 1746 0
 1298 042c 254B     		ldr	r3, .L245+76
 1299 042e DFED266A 		vldr.32	s13, .L245+80
 1300 0432 D3ED097A 		vldr.32	s15, [r3, #36]	@ int
 1301 0436 254B     		ldr	r3, .L245+84
 1302 0438 F8EE677A 		vcvt.f32.u32	s15, s15
 1303 043c 87EEA67A 		vdiv.f32	s14, s15, s13
 1304 0440 83ED007A 		vstr.32	s14, [r3]
 1305              		.loc 1 1747 0
 1306 0444 09B0     		add	sp, sp, #36
 1307              		.cfi_remember_state
 1308              		.cfi_def_cfa_offset 52
 1309              		@ sp needed
 1310 0446 BDEC048B 		vldm	sp!, {d8-d9}
 1311              		.cfi_restore 80
ARM GAS  /var/folders/sv/kgmgr77579zbf78p2zlhkdfr0000gn/T//ccXbx0Pt.s 			page 24


 1312              		.cfi_restore 81
 1313              		.cfi_restore 82
 1314              		.cfi_restore 83
 1315              		.cfi_def_cfa_offset 36
 1316 044a BDE8F08F 		pop	{r4, r5, r6, r7, r8, r9, r10, fp, pc}
 1317              	.LVL86:
 1318              	.L224:
 1319              		.cfi_restore_state
 1320              	.LBB155:
 1321              		.loc 1 1461 0
 1322 044e 1168     		ldr	r1, [r2]
 1323              	.LVL87:
 1324 0450 41F00201 		orr	r1, r1, #2
 1325 0454 1160     		str	r1, [r2]
 1326 0456 C2ED0D7A 		vstr.32	s15, [r2, #52]	@ int
 1327              	.L216:
 1328              		.loc 1 1478 0
 1329 045a C2ED0E7A 		vstr.32	s15, [r2, #56]	@ int
 1330 045e D463     		str	r4, [r2, #60]
 1331 0460 1168     		ldr	r1, [r2]
 1332 0462 21F00201 		bic	r1, r1, #2
 1333 0466 1160     		str	r1, [r2]
 1334              	.LVL88:
 1335              	.L51:
 1336              		.loc 1 1496 0
 1337 0468 0133     		adds	r3, r3, #1
 1338 046a C8F80030 		str	r3, [r8]
 1339              	.LBE155:
 1340              		.loc 1 1747 0
 1341 046e 09B0     		add	sp, sp, #36
 1342              		.cfi_remember_state
 1343              		.cfi_def_cfa_offset 52
 1344              		@ sp needed
 1345 0470 BDEC048B 		vldm	sp!, {d8-d9}
 1346              		.cfi_restore 80
 1347              		.cfi_restore 81
 1348              		.cfi_restore 82
 1349              		.cfi_restore 83
 1350              		.cfi_def_cfa_offset 36
 1351 0474 BDE8F08F 		pop	{r4, r5, r6, r7, r8, r9, r10, fp, pc}
 1352              	.LVL89:
 1353              	.L246:
 1354              		.align	2
 1355              	.L245:
 1356 0478 00000000 		.word	.LANCHOR10
 1357 047c 00000000 		.word	.LANCHOR3
 1358 0480 6740533A 		.word	978534503
 1359 0484 74D19541 		.word	1100337524
 1360 0488 CDCCCC3D 		.word	1036831949
 1361 048c 00000000 		.word	.LANCHOR20
 1362 0490 00F07F45 		.word	1166012416
 1363 0494 33335340 		.word	1079194419
 1364 0498 ABAAAA3E 		.word	1051372203
 1365 049c ABAA2A3F 		.word	1059760811
 1366 04a0 3ACD133F 		.word	1058262330
 1367 04a4 00000000 		.word	.LANCHOR19
 1368 04a8 CDCC4C3E 		.word	1045220557
ARM GAS  /var/folders/sv/kgmgr77579zbf78p2zlhkdfr0000gn/T//ccXbx0Pt.s 			page 25


 1369 04ac D7B35D3F 		.word	1063105495
 1370 04b0 00000000 		.word	.LANCHOR33
 1371 04b4 00000000 		.word	.LANCHOR8
 1372 04b8 00000000 		.word	.LANCHOR18
 1373 04bc 48E17A3F 		.word	1065017672
 1374 04c0 5C8F823F 		.word	1065520988
 1375 04c4 00180040 		.word	1073747968
 1376 04c8 8096184B 		.word	1259902592
 1377 04cc 00000000 		.word	.LANCHOR44
 1378 04d0 00000000 		.word	.LANCHOR2
 1379 04d4 00000000 		.word	.LANCHOR31
 1380              	.LVL90:
 1381              	.L200:
 1382              		.cfi_restore_state
 1383              	.LBB156:
 1384              		.loc 1 1520 0
 1385 04d8 FFF7FEFF 		bl	encoder_read_deg
 1386              	.LVL91:
 1387              		.loc 1 1522 0
 1388 04dc 3B68     		ldr	r3, [r7]
 1389              		.loc 1 1520 0
 1390 04de 2D49     		ldr	r1, .L247
 1391              		.loc 1 1522 0
 1392 04e0 93F8B820 		ldrb	r2, [r3, #184]	@ zero_extendqisi2
 1393              		.loc 1 1520 0
 1394 04e4 81ED000A 		vstr.32	s0, [r1]
 1395              		.loc 1 1521 0
 1396 04e8 8DED070A 		vstr.32	s0, [sp, #28]
 1397              		.loc 1 1522 0
 1398 04ec 1AB1     		cbz	r2, .L59
 1399              		.loc 1 1523 0
 1400 04ee DFED2A7A 		vldr.32	s15, .L247+4
 1401 04f2 37EEC00A 		vsub.f32	s0, s15, s0
 1402              	.L59:
 1403              		.loc 1 1525 0
 1404 04f6 93ED2F7A 		vldr.32	s14, [r3, #188]
 1405              		.loc 1 1526 0
 1406 04fa D3ED2D7A 		vldr.32	s15, [r3, #180]
 1407 04fe D7EE007A 		vfnms.f32	s15, s14, s0
 1408 0502 0DF1200A 		add	r10, sp, #32
 1409 0506 6AED017A 		vstmdb.32	r10!, {s15}
 1410              		.loc 1 1527 0
 1411 050a 5046     		mov	r0, r10
 1412 050c FFF7FEFF 		bl	utils_norm_angle
 1413              	.LVL92:
 1414              		.loc 1 1528 0
 1415 0510 DDED077A 		vldr.32	s15, [sp, #28]
 1416 0514 9FED217A 		vldr.32	s14, .L247+8
 1417 0518 214B     		ldr	r3, .L247+12
 1418 051a 67EE877A 		vmul.f32	s15, s15, s14
 1419 051e C3ED007A 		vstr.32	s15, [r3]
 1420 0522 27E6     		b	.L58
 1421              	.LVL93:
 1422              	.L129:
 1423              	.LBE156:
 1424              	.LBB157:
 1425              		.loc 1 1731 0
ARM GAS  /var/folders/sv/kgmgr77579zbf78p2zlhkdfr0000gn/T//ccXbx0Pt.s 			page 26


 1426 0524 1F4C     		ldr	r4, .L247+16
 1427 0526 B0EE480A 		vmov.f32	s0, s16
 1428 052a D4ED000A 		vldr.32	s1, [r4]
 1429 052e FFF7FEFF 		bl	utils_angle_difference
 1430              	.LVL94:
 1431              		.loc 1 1733 0
 1432 0532 3B68     		ldr	r3, [r7]
 1433              		.loc 1 1734 0
 1434 0534 1C48     		ldr	r0, .L247+20
 1435              		.loc 1 1733 0
 1436 0536 93ED4E7A 		vldr.32	s14, [r3, #312]
 1437 053a D8ED007A 		vldr.32	s15, [r8]
 1438              		.loc 1 1732 0
 1439 053e 84ED008A 		vstr.32	s16, [r4]
 1440              		.loc 1 1733 0
 1441 0542 80EE070A 		vdiv.f32	s0, s0, s14
 1442              	.LVL95:
 1443 0546 30EE270A 		vadd.f32	s0, s0, s15
 1444 054a 88ED000A 		vstr.32	s0, [r8]
 1445              		.loc 1 1734 0
 1446 054e FFF7FEFF 		bl	utils_norm_angle
 1447              	.LVL96:
 1448 0552 64E7     		b	.L132
 1449              	.LVL97:
 1450              	.L159:
 1451              	.LBE157:
 1452              		.loc 1 1722 0
 1453 0554 9FED158A 		vldr.32	s16, .L247+24
 1454 0558 4AE7     		b	.L128
 1455              	.LVL98:
 1456              	.L223:
 1457              	.LBB158:
 1458              		.loc 1 1458 0
 1459 055a 1368     		ldr	r3, [r2]
 1460 055c 1449     		ldr	r1, .L247+28
 1461              	.LVL99:
 1462 055e 43F00203 		orr	r3, r3, #2
 1463 0562 1360     		str	r3, [r2]
 1464 0564 0868     		ldr	r0, [r1]
 1465              	.LVL100:
 1466              		.loc 1 1455 0
 1467 0566 17EE903A 		vmov	r3, s15	@ int
 1468              		.loc 1 1458 0
 1469 056a 40F00200 		orr	r0, r0, #2
 1470              		.loc 1 1455 0
 1471 056e 0A3B     		subs	r3, r3, #10
 1472              		.loc 1 1458 0
 1473 0570 0860     		str	r0, [r1]
 1474 0572 5463     		str	r4, [r2, #52]
 1475 0574 9463     		str	r4, [r2, #56]
 1476 0576 D463     		str	r4, [r2, #60]
 1477 0578 4B63     		str	r3, [r1, #52]
 1478 057a 1368     		ldr	r3, [r2]
 1479 057c 23F00203 		bic	r3, r3, #2
 1480 0580 1360     		str	r3, [r2]
 1481 0582 0B68     		ldr	r3, [r1]
 1482 0584 23F00203 		bic	r3, r3, #2
ARM GAS  /var/folders/sv/kgmgr77579zbf78p2zlhkdfr0000gn/T//ccXbx0Pt.s 			page 27


 1483 0588 0B60     		str	r3, [r1]
 1484              		.loc 1 1459 0
 1485 058a FFF7FEFF 		bl	start_pwm_hw
 1486              	.LVL101:
 1487 058e D8F80030 		ldr	r3, [r8]
 1488 0592 69E7     		b	.L51
 1489              	.L248:
 1490              		.align	2
 1491              	.L247:
 1492 0594 00000000 		.word	.LANCHOR18
 1493 0598 0000B443 		.word	1135869952
 1494 059c 35FA8E3C 		.word	1016003125
 1495 05a0 00000000 		.word	.LANCHOR19
 1496 05a4 00000000 		.word	.LANCHOR34
 1497 05a8 00000000 		.word	.LANCHOR31
 1498 05ac 00000000 		.word	0
 1499 05b0 00040140 		.word	1073808384
 1500 05b4 500AA53D 		.word	1034226256
 1501 05b8 3ACD933F 		.word	1066650938
 1502 05bc 3ACD133F 		.word	1058262330
 1503              	.LVL102:
 1504              	.L230:
 1505              	.LBE158:
 1506              	.LBB159:
 1507              		.loc 1 1538 0
 1508 05c0 07EE908A 		vmov	s15, r8	@ int
 1509              	.LBE159:
 1510              		.loc 1 1444 0
 1511 05c4 5FED056A 		vldr.32	s13, .L247+32
 1512              	.LBB215:
 1513              		.loc 1 1538 0
 1514 05c8 1FED055A 		vldr.32	s10, .L247+36
 1515 05cc 5FED055A 		vldr.32	s11, .L247+40
 1516              		.loc 1 1547 0
 1517 05d0 3A68     		ldr	r2, [r7]
 1518              		.loc 1 1545 0
 1519 05d2 DE48     		ldr	r0, .L249
 1520              		.loc 1 1546 0
 1521 05d4 DE49     		ldr	r1, .L249+4
 1522              		.loc 1 1550 0
 1523 05d6 DF4B     		ldr	r3, .L249+8
 1524 05d8 9FEDDF6A 		vldr.32	s12, .L249+12
 1525              		.loc 1 1554 0
 1526 05dc DFF88883 		ldr	r8, .L249+28
 1527              	.LVL103:
 1528              		.loc 1 1550 0
 1529 05e0 0193     		str	r3, [sp, #4]
 1530              	.LBE215:
 1531              		.loc 1 1444 0
 1532 05e2 07EE109A 		vmov	s14, r9	@ int
 1533              	.LBB216:
 1534              		.loc 1 1538 0
 1535 05e6 F8EEE77A 		vcvt.f32.s32	s15, s15
 1536              	.LVL104:
 1537              	.LBE216:
 1538              		.loc 1 1444 0
 1539 05ea B8EEC77A 		vcvt.f32.s32	s14, s14
ARM GAS  /var/folders/sv/kgmgr77579zbf78p2zlhkdfr0000gn/T//ccXbx0Pt.s 			page 28


 1540              	.LBB217:
 1541              		.loc 1 1538 0
 1542 05ee 67EEA67A 		vmul.f32	s15, s15, s13
 1543              	.LBE217:
 1544              		.loc 1 1444 0
 1545 05f2 27EE267A 		vmul.f32	s14, s14, s13
 1546              	.LBB218:
 1547              		.loc 1 1538 0
 1548 05f6 67EE857A 		vmul.f32	s15, s15, s10
 1549              		.loc 1 1537 0
 1550 05fa 86ED057A 		vstr.32	s14, [r6, #20]
 1551              		.loc 1 1538 0
 1552 05fe E7EE257A 		vfma.f32	s15, s14, s11
 1553              		.loc 1 1553 0
 1554 0602 DFF8A093 		ldr	r9, .L249+88
 1555              	.LVL105:
 1556              		.loc 1 1550 0
 1557 0606 93ED007A 		vldr.32	s14, [r3]
 1558              		.loc 1 1538 0
 1559 060a C6ED067A 		vstr.32	s15, [r6, #24]
 1560              		.loc 1 1544 0
 1561 060e 96ED039A 		vldr.32	s18, [r6, #12]
 1562              	.LVL106:
 1563              		.loc 1 1545 0
 1564 0612 0068     		ldr	r0, [r0]	@ float
 1565              		.loc 1 1546 0
 1566 0614 0968     		ldr	r1, [r1]	@ float
 1567              		.loc 1 1547 0
 1568 0616 926D     		ldr	r2, [r2, #88]	@ float
 1569 0618 B260     		str	r2, [r6, #8]	@ float
 1570              		.loc 1 1550 0
 1571 061a D6ED037A 		vldr.32	s15, [r6, #12]
 1572              		.loc 1 1545 0
 1573 061e 0390     		str	r0, [sp, #12]	@ float
 1574              		.loc 1 1550 0
 1575 0620 77EE677A 		vsub.f32	s15, s14, s15
 1576              		.loc 1 1551 0
 1577 0624 1846     		mov	r0, r3
 1578              		.loc 1 1550 0
 1579 0626 A7EEC67A 		vfms.f32	s14, s15, s12
 1580              		.loc 1 1546 0
 1581 062a 0491     		str	r1, [sp, #16]	@ float
 1582              		.loc 1 1547 0
 1583 062c CB4E     		ldr	r6, .L249+16
 1584              		.loc 1 1551 0
 1585 062e F7EE000A 		vmov.f32	s1, #1.0e+0
 1586 0632 BFEE000A 		vmov.f32	s0, #-1.0e+0
 1587              	.LVL107:
 1588              		.loc 1 1550 0
 1589 0636 83ED007A 		vstr.32	s14, [r3]
 1590              		.loc 1 1551 0
 1591 063a FFF7FEFF 		bl	utils_truncate_number
 1592              	.LVL108:
 1593              		.loc 1 1553 0
 1594 063e D9ED007A 		vldr.32	s15, [r9]
 1595              	.LVL109:
 1596              		.loc 1 1554 0
ARM GAS  /var/folders/sv/kgmgr77579zbf78p2zlhkdfr0000gn/T//ccXbx0Pt.s 			page 29


 1597 0642 98F80020 		ldrb	r2, [r8]	@ zero_extendqisi2
 1598              		.loc 1 1559 0
 1599 0646 98F80010 		ldrb	r1, [r8]	@ zero_extendqisi2
 1600 064a 019B     		ldr	r3, [sp, #4]
 1601              		.loc 1 1554 0
 1602 064c B2FA82F2 		clz	r2, r2
 1603              		.loc 1 1559 0
 1604 0650 0329     		cmp	r1, #3
 1605              		.loc 1 1554 0
 1606 0652 4FEA5212 		lsr	r2, r2, #5
 1607              	.LVL110:
 1608              		.loc 1 1559 0
 1609 0656 00F07382 		beq	.L233
 1610              	.L61:
 1611              		.loc 1 1567 0
 1612 065a 98F80030 		ldrb	r3, [r8]	@ zero_extendqisi2
 1613 065e 012B     		cmp	r3, #1
 1614 0660 00F0BA82 		beq	.L145
 1615              	.LVL111:
 1616              	.L63:
 1617              		.loc 1 1573 0
 1618 0664 002A     		cmp	r2, #0
 1619 0666 40F05084 		bne	.L234
 1620              		.loc 1 1608 0
 1621 066a 98F80030 		ldrb	r3, [r8]	@ zero_extendqisi2
 1622 066e 032B     		cmp	r3, #3
 1623 0670 00F0FD84 		beq	.L235
 1624              	.LVL112:
 1625              	.L71:
 1626              		.loc 1 1620 0
 1627 0674 FFF7FEFF 		bl	encoder_index_found
 1628              	.LVL113:
 1629 0678 10B1     		cbz	r0, .L79
 1630              		.loc 1 1621 0
 1631 067a B94B     		ldr	r3, .L249+20
 1632 067c 1B68     		ldr	r3, [r3]	@ float
 1633 067e 2361     		str	r3, [r4, #16]	@ float
 1634              	.L79:
 1635              		.loc 1 1623 0
 1636 0680 B84D     		ldr	r5, .L249+24
 1637 0682 2B78     		ldrb	r3, [r5]	@ zero_extendqisi2
 1638 0684 0BB9     		cbnz	r3, .L80
 1639              		.loc 1 1624 0
 1640 0686 0023     		movs	r3, #0
 1641 0688 0393     		str	r3, [sp, #12]	@ float
 1642              	.L80:
 1643              		.loc 1 1628 0
 1644 068a 98F80030 		ldrb	r3, [r8]	@ zero_extendqisi2
 1645 068e B64A     		ldr	r2, .L249+28
 1646 0690 052B     		cmp	r3, #5
 1647 0692 00F0EE83 		beq	.L236
 1648              		.loc 1 1630 0
 1649 0696 1378     		ldrb	r3, [r2]	@ zero_extendqisi2
 1650 0698 062B     		cmp	r3, #6
 1651 069a 00F02C85 		beq	.L237
 1652              	.L82:
 1653              		.loc 1 1637 0
ARM GAS  /var/folders/sv/kgmgr77579zbf78p2zlhkdfr0000gn/T//ccXbx0Pt.s 			page 30


 1654 069e 2B78     		ldrb	r3, [r5]	@ zero_extendqisi2
 1655 06a0 13B1     		cbz	r3, .L83
 1656              		.loc 1 1638 0
 1657 06a2 B24B     		ldr	r3, .L249+32
 1658 06a4 1B68     		ldr	r3, [r3]	@ float
 1659 06a6 2361     		str	r3, [r4, #16]	@ float
 1660              	.L83:
 1661              		.loc 1 1643 0
 1662 06a8 94ED0E8A 		vldr.32	s16, [r4, #56]
 1663              	.LVL114:
 1664              		.loc 1 1644 0
 1665 06ac DFEDB07A 		vldr.32	s15, .L249+36
 1666 06b0 B4EEE78A 		vcmpe.f32	s16, s15
 1667 06b4 F1EE10FA 		vmrs	APSR_nzcv, FPSCR
 1668 06b8 00F3CD83 		bgt	.L238
 1669              		.loc 1 1646 0
 1670 06bc DFEDAD7A 		vldr.32	s15, .L249+40
 1671 06c0 B4EEE78A 		vcmpe.f32	s16, s15
 1672 06c4 F1EE10FA 		vmrs	APSR_nzcv, FPSCR
 1673 06c8 00F12384 		bmi	.L166
 1674 06cc 04AD     		add	r5, sp, #16
 1675              	.L86:
 1676              		.loc 1 1650 0
 1677 06ce B5EEC08A 		vcmpe.f32	s16, #0
 1678 06d2 F1EE10FA 		vmrs	APSR_nzcv, FPSCR
 1679              		.loc 1 1651 0
 1680 06d6 3B68     		ldr	r3, [r7]
 1681              		.loc 1 1650 0
 1682 06d8 40F3FB83 		ble	.L205
 1683              		.loc 1 1651 0
 1684 06dc 93ED1A0A 		vldr.32	s0, [r3, #104]
 1685 06e0 D3ED190A 		vldr.32	s1, [r3, #100]
 1686 06e4 2846     		mov	r0, r5
 1687 06e6 FFF7FEFF 		bl	utils_truncate_number
 1688              	.LVL115:
 1689              	.L90:
 1690              		.loc 1 1657 0
 1691 06ea 3B68     		ldr	r3, [r7]
 1692              	.LBB160:
 1693              	.LBB161:
 1694              		.loc 1 1868 0
 1695 06ec 9FEDA28A 		vldr.32	s16, .L249+44
 1696              	.LVL116:
 1697              	.LBE161:
 1698              	.LBE160:
 1699              		.loc 1 1656 0
 1700 06f0 93ED190A 		vldr.32	s0, [r3, #100]
 1701 06f4 D3ED1A0A 		vldr.32	s1, [r3, #104]
 1702              		.loc 1 1659 0
 1703 06f8 A04E     		ldr	r6, .L249+48
 1704              		.loc 1 1656 0
 1705 06fa FFF7FEFF 		bl	utils_max_abs
 1706              	.LVL117:
 1707 06fe 2946     		mov	r1, r5
 1708 0700 03A8     		add	r0, sp, #12
 1709 0702 FFF7FEFF 		bl	utils_saturate_vector_2d
 1710              	.LVL118:
ARM GAS  /var/folders/sv/kgmgr77579zbf78p2zlhkdfr0000gn/T//ccXbx0Pt.s 			page 31


 1711              		.loc 1 1659 0
 1712 0706 0399     		ldr	r1, [sp, #12]	@ float
 1713              		.loc 1 1660 0
 1714 0708 049A     		ldr	r2, [sp, #16]	@ float
 1715              		.loc 1 1659 0
 1716 070a 2160     		str	r1, [r4]	@ float
 1717              	.LBB200:
 1718              	.LBB190:
 1719              		.loc 1 1865 0
 1720 070c 06AD     		add	r5, sp, #24
 1721              	.LBE190:
 1722              	.LBE200:
 1723              		.loc 1 1660 0
 1724 070e 6260     		str	r2, [r4, #4]	@ float
 1725              	.LVL119:
 1726              	.LBB201:
 1727              	.LBB191:
 1728              		.loc 1 1865 0
 1729 0710 94ED040A 		vldr.32	s0, [r4, #16]
 1730 0714 2846     		mov	r0, r5
 1731 0716 05A9     		add	r1, sp, #20
 1732 0718 FFF7FEFF 		bl	utils_fast_sincos_better
 1733              	.LVL120:
 1734              		.loc 1 1867 0
 1735 071c D4ED027A 		vldr.32	s15, [r4, #8]
 1736              		.loc 1 1868 0
 1737 0720 3A68     		ldr	r2, [r7]
 1738              		.loc 1 1867 0
 1739 0722 F0EEE77A 		vabs.f32	s15, s15
 1740 0726 CDED077A 		vstr.32	s15, [sp, #28]
 1741              		.loc 1 1868 0
 1742 072a D2ED160A 		vldr.32	s1, [r2, #88]
 1743 072e B0EE480A 		vmov.f32	s0, s16
 1744 0732 5046     		mov	r0, r10
 1745 0734 FFF7FEFF 		bl	utils_truncate_number
 1746              	.LVL121:
 1747              		.loc 1 1870 0
 1748 0738 D4ED057A 		vldr.32	s15, [r4, #20]
 1749 073c DDED065A 		vldr.32	s11, [sp, #24]
 1750 0740 94ED067A 		vldr.32	s14, [r4, #24]
 1751 0744 9DED056A 		vldr.32	s12, [sp, #20]
 1752              		.loc 1 1872 0
 1753 0748 DFED836A 		vldr.32	s13, .L249+12
 1754              		.loc 1 1878 0
 1755 074c 8C4A     		ldr	r2, .L249+52
 1756              		.loc 1 1870 0
 1757 074e 27EE257A 		vmul.f32	s14, s14, s11
 1758 0752 A7EE867A 		vfma.f32	s14, s15, s12
 1759 0756 84ED0F7A 		vstr.32	s14, [r4, #60]
 1760              		.loc 1 1871 0
 1761 075a 94ED067A 		vldr.32	s14, [r4, #24]
 1762 075e D4ED057A 		vldr.32	s15, [r4, #20]
 1763 0762 67EEE57A 		vnmul.f32	s15, s15, s11
 1764 0766 E6EE077A 		vfma.f32	s15, s12, s14
 1765 076a C4ED107A 		vstr.32	s15, [r4, #64]
 1766              		.loc 1 1872 0
 1767 076e 94ED117A 		vldr.32	s14, [r4, #68]
ARM GAS  /var/folders/sv/kgmgr77579zbf78p2zlhkdfr0000gn/T//ccXbx0Pt.s 			page 32


 1768 0772 94ED0F6A 		vldr.32	s12, [r4, #60]
 1769 0776 D4ED117A 		vldr.32	s15, [r4, #68]
 1770 077a 37EE467A 		vsub.f32	s14, s14, s12
 1771 077e E7EE667A 		vfms.f32	s15, s14, s13
 1772 0782 C4ED117A 		vstr.32	s15, [r4, #68]
 1773              		.loc 1 1873 0
 1774 0786 94ED127A 		vldr.32	s14, [r4, #72]
 1775 078a 94ED106A 		vldr.32	s12, [r4, #64]
 1776 078e D4ED127A 		vldr.32	s15, [r4, #72]
 1777 0792 37EE467A 		vsub.f32	s14, s14, s12
 1778 0796 E7EE667A 		vfms.f32	s15, s14, s13
 1779 079a C4ED127A 		vstr.32	s15, [r4, #72]
 1780              		.loc 1 1875 0
 1781 079e 94ED007A 		vldr.32	s14, [r4]
 1782 07a2 D4ED115A 		vldr.32	s11, [r4, #68]
 1783              	.LVL122:
 1784              		.loc 1 1876 0
 1785 07a6 D4ED017A 		vldr.32	s15, [r4, #4]
 1786 07aa 94ED126A 		vldr.32	s12, [r4, #72]
 1787              	.LVL123:
 1788              		.loc 1 1878 0
 1789 07ae 1278     		ldrb	r2, [r2]	@ zero_extendqisi2
 1790 07b0 002A     		cmp	r2, #0
 1791 07b2 00F06082 		beq	.L91
 1792              		.loc 1 1880 0
 1793 07b6 734A     		ldr	r2, .L249+56
 1794              		.loc 1 1879 0
 1795 07b8 86ED138A 		vstr.32	s16, [r6, #76]
 1796              		.loc 1 1880 0
 1797 07bc 1268     		ldr	r2, [r2]	@ float
 1798 07be 3265     		str	r2, [r6, #80]	@ float
 1799              	.LVL124:
 1800              	.L92:
 1801              		.loc 1 1889 0
 1802 07c0 9FED7E8A 		vldr.32	s16, .L249+112
 1803 07c4 DDED077A 		vldr.32	s15, [sp, #28]
 1804 07c8 9FED6F7A 		vldr.32	s14, .L249+60
 1805              		.loc 1 1890 0
 1806 07cc 94ED0A0A 		vldr.32	s0, [r4, #40]
 1807 07d0 6A4E     		ldr	r6, .L249+48
 1808              		.loc 1 1889 0
 1809 07d2 67EE887A 		vmul.f32	s15, s15, s16
 1810 07d6 06F15001 		add	r1, r6, #80
 1811 07da 67EE877A 		vmul.f32	s15, s15, s14
 1812 07de 06F14C00 		add	r0, r6, #76
 1813 07e2 27EE800A 		vmul.f32	s0, s15, s0
 1814 07e6 FFF7FEFF 		bl	utils_saturate_vector_2d
 1815              	.LVL125:
 1816              		.loc 1 1892 0
 1817 07ea D4ED136A 		vldr.32	s13, [r4, #76]
 1818 07ee D4ED0A7A 		vldr.32	s15, [r4, #40]
 1819 07f2 67EE887A 		vmul.f32	s15, s15, s16
 1820 07f6 86EEA77A 		vdiv.f32	s14, s13, s15
 1821 07fa 84ED0D7A 		vstr.32	s14, [r4, #52]
 1822              		.loc 1 1893 0
 1823 07fe D4ED146A 		vldr.32	s13, [r4, #80]
 1824 0802 D4ED0A7A 		vldr.32	s15, [r4, #40]
ARM GAS  /var/folders/sv/kgmgr77579zbf78p2zlhkdfr0000gn/T//ccXbx0Pt.s 			page 33


 1825 0806 67EE887A 		vmul.f32	s15, s15, s16
 1826 080a 86EEA77A 		vdiv.f32	s14, s13, s15
 1827 080e 84ED0E7A 		vstr.32	s14, [r4, #56]
 1828              		.loc 1 1895 0
 1829 0812 98F80030 		ldrb	r3, [r8]	@ zero_extendqisi2
 1830 0816 23B9     		cbnz	r3, .L93
 1831              		.loc 1 1896 0
 1832 0818 0023     		movs	r3, #0
 1833 081a 7363     		str	r3, [r6, #52]	@ float
 1834              		.loc 1 1897 0
 1835 081c D9F80030 		ldr	r3, [r9]	@ float
 1836 0820 B363     		str	r3, [r6, #56]	@ float
 1837              	.L93:
 1838              		.loc 1 1901 0
 1839 0822 3B68     		ldr	r3, [r7]
 1840              	.LBB162:
 1841              		.loc 1 1902 0
 1842 0824 DFF88081 		ldr	r8, .L249+92
 1843              	.LBE162:
 1844              		.loc 1 1901 0
 1845 0828 93F81031 		ldrb	r3, [r3, #272]	@ zero_extendqisi2
 1846 082c C3B1     		cbz	r3, .L94
 1847              	.LBB163:
 1848              		.loc 1 1902 0
 1849 082e D8ED005A 		vldr.32	s11, [r8]
 1850 0832 9FED566A 		vldr.32	s12, .L249+64
 1851 0836 DFED566A 		vldr.32	s13, .L249+68
 1852              		.loc 1 1903 0
 1853 083a 564B     		ldr	r3, .L249+72
 1854 083c 94ED0E7A 		vldr.32	s14, [r4, #56]
 1855              		.loc 1 1902 0
 1856 0840 C5EE867A 		vdiv.f32	s15, s11, s12
 1857 0844 67EEA67A 		vmul.f32	s15, s15, s13
 1858 0848 FDEEE77A 		vcvt.s32.f32	s15, s15
 1859              	.LVL126:
 1860              		.loc 1 1903 0
 1861 084c 17EE902A 		vmov	r2, s15	@ int
 1862 0850 03EB8203 		add	r3, r3, r2, lsl #2
 1863 0854 D3ED007A 		vldr.32	s15, [r3]
 1864              	.LVL127:
 1865 0858 77EE277A 		vadd.f32	s15, s14, s15
 1866 085c C4ED0E7A 		vstr.32	s15, [r4, #56]
 1867              	.LVL128:
 1868              	.L94:
 1869              	.LBE163:
 1870              		.loc 1 1909 0
 1871 0860 9DED077A 		vldr.32	s14, [sp, #28]
 1872 0864 9FED559A 		vldr.32	s18, .L249+112
 1873 0868 9FED478A 		vldr.32	s16, .L249+60
 1874 086c 94ED0A0A 		vldr.32	s0, [r4, #40]
 1875 0870 4948     		ldr	r0, .L249+76
 1876 0872 27EE097A 		vmul.f32	s14, s14, s18
 1877 0876 27EE087A 		vmul.f32	s14, s14, s16
 1878 087a 27EE000A 		vmul.f32	s0, s14, s0
 1879 087e FFF7FEFF 		bl	utils_truncate_number_abs
 1880              	.LVL129:
 1881              		.loc 1 1910 0
ARM GAS  /var/folders/sv/kgmgr77579zbf78p2zlhkdfr0000gn/T//ccXbx0Pt.s 			page 34


 1882 0882 9DED077A 		vldr.32	s14, [sp, #28]
 1883 0886 94ED0A0A 		vldr.32	s0, [r4, #40]
 1884 088a 4448     		ldr	r0, .L249+80
 1885 088c 67EE097A 		vmul.f32	s15, s14, s18
 1886 0890 67EE887A 		vmul.f32	s15, s15, s16
 1887 0894 27EE800A 		vmul.f32	s0, s15, s0
 1888 0898 FFF7FEFF 		bl	utils_truncate_number_abs
 1889              	.LVL130:
 1890              		.loc 1 1913 0
 1891 089c D4ED0D6A 		vldr.32	s13, [r4, #52]
 1892 08a0 94ED0F7A 		vldr.32	s14, [r4, #60]
 1893 08a4 D4ED0E7A 		vldr.32	s15, [r4, #56]
 1894 08a8 94ED106A 		vldr.32	s12, [r4, #64]
 1895 08ac 67EE867A 		vmul.f32	s15, s15, s12
 1896 08b0 E6EE877A 		vfma.f32	s15, s13, s14
 1897 08b4 C4ED097A 		vstr.32	s15, [r4, #36]
 1898              		.loc 1 1914 0
 1899 08b8 D4ED0F6A 		vldr.32	s13, [r4, #60]
 1900 08bc 94ED0F7A 		vldr.32	s14, [r4, #60]
 1901 08c0 D4ED107A 		vldr.32	s15, [r4, #64]
 1902 08c4 94ED100A 		vldr.32	s0, [r4, #64]
 1903 08c8 27EE800A 		vmul.f32	s0, s15, s0
 1904 08cc A6EE870A 		vfma.f32	s0, s13, s14
 1905 08d0 F1EEC07A 		vsqrt.f32	s15, s0
 1906 08d4 F4EE677A 		vcmp.f32	s15, s15
 1907 08d8 F1EE10FA 		vmrs	APSR_nzcv, FPSCR
 1908 08dc 40F02085 		bne	.L239
 1909              	.L95:
 1910 08e0 C4ED077A 		vstr.32	s15, [r4, #28]
 1911              		.loc 1 1915 0
 1912 08e4 D4ED116A 		vldr.32	s13, [r4, #68]
 1913 08e8 94ED117A 		vldr.32	s14, [r4, #68]
 1914 08ec D4ED127A 		vldr.32	s15, [r4, #72]
 1915 08f0 94ED120A 		vldr.32	s0, [r4, #72]
 1916 08f4 27EE800A 		vmul.f32	s0, s15, s0
 1917 08f8 A6EE870A 		vfma.f32	s0, s13, s14
 1918 08fc F1EEC07A 		vsqrt.f32	s15, s0
 1919 0900 F4EE677A 		vcmp.f32	s15, s15
 1920 0904 F1EE10FA 		vmrs	APSR_nzcv, FPSCR
 1921 0908 40F00485 		bne	.L240
 1922              	.L96:
 1923 090c C4ED087A 		vstr.32	s15, [r4, #32]
 1924              		.loc 1 1917 0
 1925 0910 D4ED0D2A 		vldr.32	s5, [r4, #52]
 1926 0914 9DED066A 		vldr.32	s12, [sp, #24]
 1927 0918 D4ED0E5A 		vldr.32	s11, [r4, #56]
 1928              		.loc 1 1918 0
 1929 091c 94ED0E3A 		vldr.32	s6, [r4, #56]
 1930 0920 94ED0D2A 		vldr.32	s4, [r4, #52]
 1931              		.loc 1 1921 0
 1932 0924 94ED004A 		vldr.32	s8, [r4]
 1933 0928 94ED017A 		vldr.32	s14, [r4, #4]
 1934              		.loc 1 1922 0
 1935 092c D4ED011A 		vldr.32	s3, [r4, #4]
 1936 0930 D4ED007A 		vldr.32	s15, [r4]
 1937              		.loc 1 1917 0
 1938 0934 9DED055A 		vldr.32	s10, [sp, #20]
ARM GAS  /var/folders/sv/kgmgr77579zbf78p2zlhkdfr0000gn/T//ccXbx0Pt.s 			page 35


 1939              		.loc 1 1924 0
 1940 0938 DFED134A 		vldr.32	s9, .L249+60
 1941              		.loc 1 1926 0
 1942 093c DFED186A 		vldr.32	s13, .L249+84
 1943 0940 DFED1E3A 		vldr.32	s7, .L249+112
 1944              		.loc 1 1924 0
 1945 0944 66EE277A 		vmul.f32	s15, s12, s15
 1946 0948 3AE0     		b	.L250
 1947              	.L251:
 1948 094a 00BF     		.align	2
 1949              	.L249:
 1950 094c 00000000 		.word	.LANCHOR21
 1951 0950 00000000 		.word	.LANCHOR11
 1952 0954 00000000 		.word	.LANCHOR22
 1953 0958 CDCCCC3D 		.word	1036831949
 1954 095c 00000000 		.word	.LANCHOR10
 1955 0960 00000000 		.word	.LANCHOR19
 1956 0964 00000000 		.word	.LANCHOR25
 1957 0968 00000000 		.word	.LANCHOR5
 1958 096c 00000000 		.word	.LANCHOR28
 1959 0970 6F12833A 		.word	981668463
 1960 0974 6F1283BA 		.word	3129152111
 1961 0978 00000000 		.word	0
 1962 097c 00000000 		.word	.LANCHOR3
 1963 0980 00000000 		.word	.LANCHOR29
 1964 0984 00000000 		.word	.LANCHOR30
 1965 0988 D7B35D3F 		.word	1063105495
 1966 098c 0000B443 		.word	1135869952
 1967 0990 00409C45 		.word	1167867904
 1968 0994 00000000 		.word	.LANCHOR32
 1969 0998 54000000 		.word	.LANCHOR3+84
 1970 099c 58000000 		.word	.LANCHOR3+88
 1971 09a0 ABAA2ABF 		.word	3207244459
 1972 09a4 00000000 		.word	.LANCHOR23
 1973 09a8 00000000 		.word	.LANCHOR31
 1974 09ac 3ACD13BF 		.word	3205745978
 1975 09b0 3ACD133F 		.word	1058262330
 1976 09b4 ABAAAA3E 		.word	1051372203
 1977 09b8 BD378635 		.word	897988541
 1978 09bc ABAA2A3F 		.word	1059760811
 1979              	.L250:
 1980              		.loc 1 1921 0
 1981 09c0 27EE467A 		vnmul.f32	s14, s14, s12
 1982              		.loc 1 1924 0
 1983 09c4 E5EE217A 		vfma.f32	s15, s10, s3
 1984              		.loc 1 1921 0
 1985 09c8 A5EE047A 		vfma.f32	s14, s10, s8
 1986              		.loc 1 1924 0
 1987 09cc 67EEA47A 		vmul.f32	s15, s15, s9
 1988 09d0 FEEE004A 		vmov.f32	s9, #-5.0e-1
 1989 09d4 B0EE674A 		vmov.f32	s8, s15
 1990 09d8 A7EE244A 		vfma.f32	s8, s14, s9
 1991              		.loc 1 1926 0
 1992 09dc B5EEC07A 		vcmpe.f32	s14, #0
 1993 09e0 F1EE10FA 		vmrs	APSR_nzcv, FPSCR
 1994              		.loc 1 1917 0
 1995 09e4 66EE655A 		vnmul.f32	s11, s12, s11
ARM GAS  /var/folders/sv/kgmgr77579zbf78p2zlhkdfr0000gn/T//ccXbx0Pt.s 			page 36


 1996              		.loc 1 1926 0
 1997 09e8 B5EEC04A 		vcmpe.f32	s8, #0
 1998              		.loc 1 1918 0
 1999 09ec 26EE026A 		vmul.f32	s12, s12, s4
 2000              		.loc 1 1926 0
 2001 09f0 58BF     		it	pl
 2002 09f2 F0EE636A 		vmovpl.f32	s13, s7
 2003 09f6 F1EE10FA 		vmrs	APSR_nzcv, FPSCR
 2004              		.loc 1 1925 0
 2005 09fa D7EE247A 		vfnms.f32	s15, s14, s9
 2006              		.loc 1 1917 0
 2007 09fe E2EE855A 		vfma.f32	s11, s5, s10
 2008              	.LVL131:
 2009              		.loc 1 1918 0
 2010 0a02 A5EE036A 		vfma.f32	s12, s10, s6
 2011              	.LVL132:
 2012              		.loc 1 1926 0
 2013 0a06 1FED157A 		vldr.32	s14, .L249+104
 2014              	.LVL133:
 2015 0a0a 00F16F82 		bmi	.L99
 2016 0a0e F5EEC07A 		vcmpe.f32	s15, #0
 2017 0a12 F1EE10FA 		vmrs	APSR_nzcv, FPSCR
 2018 0a16 76EEC76A 		vsub.f32	s13, s13, s14
 2019 0a1a 00F18082 		bmi	.L100
 2020              	.L149:
 2021              		.loc 1 1927 0
 2022 0a1e B5EEC04A 		vcmpe.f32	s8, #0
 2023 0a22 1FED1E7A 		vldr.32	s14, .L249+96
 2024 0a26 1FED1E5A 		vldr.32	s10, .L249+100
 2025              		.loc 1 1926 0
 2026 0a2a 5FED1E4A 		vldr.32	s9, .L249+104
 2027              		.loc 1 1927 0
 2028 0a2e F1EE10FA 		vmrs	APSR_nzcv, FPSCR
 2029 0a32 F5EEC07A 		vcmpe.f32	s15, #0
 2030 0a36 58BF     		it	pl
 2031 0a38 B0EE457A 		vmovpl.f32	s14, s10
 2032 0a3c F1EE10FA 		vmrs	APSR_nzcv, FPSCR
 2033              		.loc 1 1926 0
 2034 0a40 76EEE46A 		vsub.f32	s13, s13, s9
 2035              	.LVL134:
 2036              		.loc 1 1927 0
 2037 0a44 00F17782 		bmi	.L147
 2038 0a48 37EE455A 		vsub.f32	s10, s14, s10
 2039              	.LVL135:
 2040              	.L105:
 2041              		.loc 1 1928 0
 2042 0a4c 3B68     		ldr	r3, [r7]
 2043 0a4e 1FED267A 		vldr.32	s14, .L249+108
 2044 0a52 D3ED2C7A 		vldr.32	s15, [r3, #176]
 2045 0a56 93ED2B3A 		vldr.32	s6, [r3, #172]
 2046              		.loc 1 1933 0
 2047 0a5a 1FED284A 		vldr.32	s8, .L249+112
 2048              	.LVL136:
 2049 0a5e D4ED0A3A 		vldr.32	s7, [r4, #40]
 2050              		.loc 1 1938 0
 2051 0a62 C44B     		ldr	r3, .L252
 2052              		.loc 1 1928 0
ARM GAS  /var/folders/sv/kgmgr77579zbf78p2zlhkdfr0000gn/T//ccXbx0Pt.s 			page 37


 2053 0a64 67EE877A 		vmul.f32	s15, s15, s14
 2054              		.loc 1 1939 0
 2055 0a68 F1EE464A 		vneg.f32	s9, s12
 2056              		.loc 1 1928 0
 2057 0a6c 27EE837A 		vmul.f32	s14, s15, s6
 2058              	.LVL137:
 2059              		.loc 1 1933 0
 2060 0a70 B0EE653A 		vmov.f32	s6, s11
 2061 0a74 A7EE663A 		vfms.f32	s6, s14, s13
 2062              		.loc 1 1934 0
 2063 0a78 A5EE476A 		vfms.f32	s12, s10, s14
 2064              	.LVL138:
 2065              		.loc 1 1933 0
 2066 0a7c 63EE046A 		vmul.f32	s13, s6, s8
 2067              	.LVL139:
 2068              		.loc 1 1934 0
 2069 0a80 26EE046A 		vmul.f32	s12, s12, s8
 2070              		.loc 1 1933 0
 2071 0a84 26EEA37A 		vmul.f32	s14, s13, s7
 2072              	.LVL140:
 2073              	.LBB164:
 2074              	.LBB165:
 2075              		.loc 1 1961 0
 2076 0a88 F5EEC04A 		vcmpe.f32	s9, #0
 2077              	.LBE165:
 2078              	.LBE164:
 2079              		.loc 1 1933 0
 2080 0a8c 84ED0B7A 		vstr.32	s14, [r4, #44]
 2081              		.loc 1 1934 0
 2082 0a90 94ED0A7A 		vldr.32	s14, [r4, #40]
 2083 0a94 26EE077A 		vmul.f32	s14, s12, s14
 2084              		.loc 1 1939 0
 2085 0a98 F1EE657A 		vneg.f32	s15, s11
 2086              		.loc 1 1934 0
 2087 0a9c 84ED0C7A 		vstr.32	s14, [r4, #48]
 2088              	.LBB183:
 2089              	.LBB176:
 2090              		.loc 1 1961 0
 2091 0aa0 F1EE10FA 		vmrs	APSR_nzcv, FPSCR
 2092              	.LBE176:
 2093              	.LBE183:
 2094              		.loc 1 1938 0
 2095 0aa4 D96A     		ldr	r1, [r3, #44]
 2096              	.LVL141:
 2097              	.LBB184:
 2098              	.LBB177:
 2099              		.loc 1 1962 0
 2100 0aa6 F5EEC07A 		vcmpe.f32	s15, #0
 2101              		.loc 1 1961 0
 2102 0aaa C0F2E581 		blt	.L208
 2103              		.loc 1 1962 0
 2104 0aae F1EE10FA 		vmrs	APSR_nzcv, FPSCR
 2105 0ab2 C0F23581 		blt	.L209
 2106              		.loc 1 1964 0
 2107 0ab6 9FEDB07A 		vldr.32	s14, .L252+4
 2108 0aba 24EE877A 		vmul.f32	s14, s9, s14
 2109 0abe B4EEE77A 		vcmpe.f32	s14, s15
ARM GAS  /var/folders/sv/kgmgr77579zbf78p2zlhkdfr0000gn/T//ccXbx0Pt.s 			page 38


 2110 0ac2 F1EE10FA 		vmrs	APSR_nzcv, FPSCR
 2111 0ac6 00F33981 		bgt	.L110
 2112              	.LVL142:
 2113              	.LBB166:
 2114              		.loc 1 2003 0
 2115 0aca 77EEC77A 		vsub.f32	s15, s15, s14
 2116              	.LVL143:
 2117 0ace 07EE101A 		vmov	s14, r1	@ int
 2118              		.loc 1 2004 0
 2119 0ad2 DFEDAA6A 		vldr.32	s13, .L252+8
 2120              		.loc 1 2003 0
 2121 0ad6 B8EE477A 		vcvt.f32.u32	s14, s14
 2122              		.loc 1 2004 0
 2123 0ada 64EEA64A 		vmul.f32	s9, s9, s13
 2124              	.LVL144:
 2125              		.loc 1 2003 0
 2126 0ade 67EE877A 		vmul.f32	s15, s15, s14
 2127              		.loc 1 2004 0
 2128 0ae2 24EE877A 		vmul.f32	s14, s9, s14
 2129              		.loc 1 2003 0
 2130 0ae6 FCEEE77A 		vcvt.u32.f32	s15, s15
 2131              	.LBE166:
 2132              		.loc 1 1967 0
 2133 0aea 0126     		movs	r6, #1
 2134              	.LBB167:
 2135              		.loc 1 2003 0
 2136 0aec 17EE903A 		vmov	r3, s15	@ int
 2137              	.LVL145:
 2138              		.loc 1 2004 0
 2139 0af0 FCEEC77A 		vcvt.u32.f32	s15, s14
 2140              		.loc 1 2007 0
 2141 0af4 C91A     		subs	r1, r1, r3
 2142              	.LVL146:
 2143              		.loc 1 2004 0
 2144 0af6 17EE902A 		vmov	r2, s15	@ int
 2145              	.LVL147:
 2146              		.loc 1 2007 0
 2147 0afa 891A     		subs	r1, r1, r2
 2148 0afc 4908     		lsrs	r1, r1, #1
 2149              	.LVL148:
 2150              		.loc 1 2008 0
 2151 0afe 0B44     		add	r3, r3, r1
 2152              	.LVL149:
 2153              		.loc 1 2009 0
 2154 0b00 1A44     		add	r2, r2, r3
 2155              	.LVL150:
 2156              	.L146:
 2157              	.LBE167:
 2158              	.LBE177:
 2159              	.LBE184:
 2160              		.loc 1 1940 0
 2161 0b02 9C48     		ldr	r0, .L252
 2162              		.loc 1 1942 0
 2163 0b04 DFF8B8E2 		ldr	lr, .L252+76
 2164              		.loc 1 1940 0
 2165 0b08 D0F800C0 		ldr	ip, [r0]
 2166              	.LBB185:
ARM GAS  /var/folders/sv/kgmgr77579zbf78p2zlhkdfr0000gn/T//ccXbx0Pt.s 			page 39


 2167              	.LBB178:
 2168              		.loc 1 2088 0
 2169 0b0c E665     		str	r6, [r4, #92]
 2170              	.LVL151:
 2171              	.LBE178:
 2172              	.LBE185:
 2173              		.loc 1 1940 0
 2174 0b0e 4CF00206 		orr	r6, ip, #2
 2175 0b12 0660     		str	r6, [r0]
 2176 0b14 4163     		str	r1, [r0, #52]
 2177 0b16 8263     		str	r2, [r0, #56]
 2178 0b18 C363     		str	r3, [r0, #60]
 2179 0b1a 0368     		ldr	r3, [r0]
 2180              	.LVL152:
 2181 0b1c 23F00203 		bic	r3, r3, #2
 2182 0b20 0360     		str	r3, [r0]
 2183              	.LVL153:
 2184              		.loc 1 1942 0
 2185 0b22 9EF80030 		ldrb	r3, [lr]	@ zero_extendqisi2
 2186 0b26 002B     		cmp	r3, #0
 2187 0b28 7FF4EDAB 		bne	.L120
 2188              		.loc 1 1943 0
 2189 0b2c FFF7FEFF 		bl	start_pwm_hw
 2190              	.LVL154:
 2191 0b30 FFF7E9BB 		b	.L120
 2192              	.LVL155:
 2193              	.L228:
 2194              	.LBE191:
 2195              	.LBE201:
 2196              	.LBE218:
 2197              	.LBB219:
 2198              		.loc 1 1478 0
 2199 0b34 1168     		ldr	r1, [r2]
 2200              	.LVL156:
 2201 0b36 41F00201 		orr	r1, r1, #2
 2202 0b3a 1160     		str	r1, [r2]
 2203 0b3c 5463     		str	r4, [r2, #52]
 2204 0b3e 8CE4     		b	.L216
 2205              	.LVL157:
 2206              	.L233:
 2207              	.LBE219:
 2208              	.LBB220:
 2209              		.loc 1 1561 0
 2210 0b40 93ED007A 		vldr.32	s14, [r3]
 2211 0b44 DFED8E6A 		vldr.32	s13, .L252+12
 2212 0b48 B0EEC77A 		vabs.f32	s14, s14
 2213 0b4c B4EEE67A 		vcmpe.f32	s14, s13
 2214 0b50 F1EE10FA 		vmrs	APSR_nzcv, FPSCR
 2215 0b54 7FF581AD 		bpl	.L61
 2216              	.LVL158:
 2217              		.loc 1 1567 0
 2218 0b58 98F80020 		ldrb	r2, [r8]	@ zero_extendqisi2
 2219 0b5c D2B2     		uxtb	r2, r2
 2220 0b5e 012A     		cmp	r2, #1
 2221 0b60 38D0     		beq	.L160
 2222 0b62 9FED887A 		vldr.32	s14, .L252+16
 2223 0b66 3168     		ldr	r1, [r6]
ARM GAS  /var/folders/sv/kgmgr77579zbf78p2zlhkdfr0000gn/T//ccXbx0Pt.s 			page 40


 2224              		.loc 1 1563 0
 2225 0b68 F0EE477A 		vmov.f32	s15, s14
 2226              	.LVL159:
 2227              	.L64:
 2228              	.LBB202:
 2229              		.loc 1 1576 0
 2230 0b6c DFED866A 		vldr.32	s13, .L252+20
 2231 0b70 B0EEC99A 		vabs.f32	s18, s18
 2232              	.LVL160:
 2233 0b74 39EE669A 		vsub.f32	s18, s18, s13
 2234 0b78 B4EEC79A 		vcmpe.f32	s18, s14
 2235 0b7c F1EE10FA 		vmrs	APSR_nzcv, FPSCR
 2236 0b80 00F32481 		bgt	.L66
 2237              		.loc 1 1577 0
 2238 0b84 94ED147A 		vldr.32	s14, [r4, #80]
 2239 0b88 D4ED105A 		vldr.32	s11, [r4, #64]
 2240 0b8c 91ED1A6A 		vldr.32	s12, [r1, #104]
 2241 0b90 7E4B     		ldr	r3, .L252+24
 2242 0b92 B5EEC07A 		vcmpe.f32	s14, #0
 2243 0b96 F1EE10FA 		vmrs	APSR_nzcv, FPSCR
 2244 0b9a FFEE006A 		vmov.f32	s13, #-1.0e+0
 2245 0b9e B7EE007A 		vmov.f32	s14, #1.0e+0
 2246 0ba2 48BF     		it	mi
 2247 0ba4 B0EE667A 		vmovmi.f32	s14, s13
 2248              		.loc 1 1576 0
 2249 0ba8 27EE257A 		vmul.f32	s14, s14, s11
 2250 0bac B4EEC67A 		vcmpe.f32	s14, s12
 2251 0bb0 F1EE10FA 		vmrs	APSR_nzcv, FPSCR
 2252 0bb4 00F10A81 		bmi	.L66
 2253              		.loc 1 1600 0
 2254 0bb8 754A     		ldr	r2, .L252+28
 2255              		.loc 1 1601 0
 2256 0bba C3ED027A 		vstr.32	s15, [r3, #8]
 2257              		.loc 1 1602 0
 2258 0bbe F5EEC07A 		vcmpe.f32	s15, #0
 2259              		.loc 1 1600 0
 2260 0bc2 0020     		movs	r0, #0
 2261              		.loc 1 1602 0
 2262 0bc4 F1EE10FA 		vmrs	APSR_nzcv, FPSCR
 2263              		.loc 1 1600 0
 2264 0bc8 1060     		str	r0, [r2]	@ float
 2265              		.loc 1 1602 0
 2266 0bca 40F37783 		ble	.L202
 2267              		.loc 1 1603 0
 2268 0bce 4B6E     		ldr	r3, [r1, #100]	@ float
 2269 0bd0 0493     		str	r3, [sp, #16]	@ float
 2270 0bd2 4FE5     		b	.L71
 2271              	.LVL161:
 2272              	.L160:
 2273              	.LBE202:
 2274              		.loc 1 1563 0
 2275 0bd4 DFED6B7A 		vldr.32	s15, .L252+16
 2276              	.LVL162:
 2277              	.L145:
 2278              		.loc 1 1568 0 discriminator 1
 2279 0bd8 6E4B     		ldr	r3, .L252+32
 2280 0bda 3968     		ldr	r1, [r7]
ARM GAS  /var/folders/sv/kgmgr77579zbf78p2zlhkdfr0000gn/T//ccXbx0Pt.s 			page 41


 2281 0bdc 93ED007A 		vldr.32	s14, [r3]
 2282 0be0 D1ED496A 		vldr.32	s13, [r1, #292]
 2283              		.loc 1 1567 0 discriminator 1
 2284 0be4 B0EEC77A 		vabs.f32	s14, s14
 2285 0be8 B4EEE67A 		vcmpe.f32	s14, s13
 2286 0bec F1EE10FA 		vmrs	APSR_nzcv, FPSCR
 2287 0bf0 7FF538AD 		bpl	.L63
 2288 0bf4 DFED637A 		vldr.32	s15, .L252+16
 2289              		.loc 1 1570 0
 2290 0bf8 B0EE677A 		vmov.f32	s14, s15
 2291 0bfc B6E7     		b	.L64
 2292              	.LVL163:
 2293              	.L225:
 2294              	.LBE220:
 2295              	.LBB221:
 2296              		.loc 1 1463 0
 2297 0bfe 97ED017A 		vldr.32	s14, [r7, #4]
 2298 0c02 DFED657A 		vldr.32	s15, .L252+36
 2299              	.LVL164:
 2300              		.loc 1 1464 0
 2301 0c06 9FED6F6A 		vldr.32	s12, .L252+80
 2302 0c0a DFED6F6A 		vldr.32	s13, .L252+84
 2303              		.loc 1 1463 0
 2304 0c0e 05EE901A 		vmov	s11, r1	@ int
 2305              	.L217:
 2306              		.loc 1 1470 0
 2307 0c12 F8EEE55A 		vcvt.f32.s32	s11, s11
 2308 0c16 A5EEE77A 		vfms.f32	s14, s11, s15
 2309 0c1a 87ED017A 		vstr.32	s14, [r7, #4]
 2310              		.loc 1 1471 0
 2311 0c1e 298A     		ldrh	r1, [r5, #16]
 2312              	.LVL165:
 2313 0c20 97ED027A 		vldr.32	s14, [r7, #8]
 2314 0c24 89B2     		uxth	r1, r1
 2315 0c26 07EE901A 		vmov	s15, r1	@ int
 2316 0c2a F8EE677A 		vcvt.f32.u32	s15, s15
 2317 0c2e 67EE867A 		vmul.f32	s15, s15, s12
 2318 0c32 A7EEA67A 		vfma.f32	s14, s15, s13
 2319 0c36 87ED027A 		vstr.32	s14, [r7, #8]
 2320              		.loc 1 1472 0
 2321 0c3a 3968     		ldr	r1, [r7]
 2322 0c3c 0131     		adds	r1, r1, #1
 2323 0c3e 3960     		str	r1, [r7]
 2324              		.loc 1 1473 0
 2325 0c40 1168     		ldr	r1, [r2]
 2326 0c42 41F00201 		orr	r1, r1, #2
 2327 0c46 1160     		str	r1, [r2]
 2328 0c48 5463     		str	r4, [r2, #52]
 2329 0c4a 9463     		str	r4, [r2, #56]
 2330 0c4c D463     		str	r4, [r2, #60]
 2331 0c4e 1168     		ldr	r1, [r2]
 2332 0c50 21F00201 		bic	r1, r1, #2
 2333 0c54 1160     		str	r1, [r2]
 2334 0c56 07E4     		b	.L51
 2335              	.LVL166:
 2336              	.L226:
 2337              		.loc 1 1468 0
ARM GAS  /var/folders/sv/kgmgr77579zbf78p2zlhkdfr0000gn/T//ccXbx0Pt.s 			page 42


 2338 0c58 1168     		ldr	r1, [r2]
 2339              	.LVL167:
 2340 0c5a 41F00201 		orr	r1, r1, #2
 2341 0c5e 1160     		str	r1, [r2]
 2342 0c60 5463     		str	r4, [r2, #52]
 2343 0c62 C2ED0E7A 		vstr.32	s15, [r2, #56]	@ int
 2344 0c66 C2ED0F7A 		vstr.32	s15, [r2, #60]	@ int
 2345 0c6a 1168     		ldr	r1, [r2]
 2346 0c6c 21F00201 		bic	r1, r1, #2
 2347 0c70 1160     		str	r1, [r2]
 2348 0c72 FFF7F9BB 		b	.L51
 2349              	.LVL168:
 2350              	.L91:
 2351              	.LBE221:
 2352              	.LBB222:
 2353              	.LBB204:
 2354              	.LBB192:
 2355              		.loc 1 1882 0
 2356 0c76 494B     		ldr	r3, .L252+40
 2357 0c78 D6ED156A 		vldr.32	s13, [r6, #84]
 2358 0c7c 1A68     		ldr	r2, [r3]
 2359              		.loc 1 1875 0
 2360 0c7e 37EE657A 		vsub.f32	s14, s14, s11
 2361              	.LVL169:
 2362              		.loc 1 1882 0
 2363 0c82 92ED295A 		vldr.32	s10, [r2, #164]
 2364 0c86 E7EE056A 		vfma.f32	s13, s14, s10
 2365              		.loc 1 1876 0
 2366 0c8a 77EEC67A 		vsub.f32	s15, s15, s12
 2367              	.LVL170:
 2368              		.loc 1 1882 0
 2369 0c8e C6ED136A 		vstr.32	s13, [r6, #76]
 2370              		.loc 1 1883 0
 2371 0c92 D6ED166A 		vldr.32	s13, [r6, #88]
 2372 0c96 92ED296A 		vldr.32	s12, [r2, #164]
 2373 0c9a E7EE866A 		vfma.f32	s13, s15, s12
 2374 0c9e C6ED146A 		vstr.32	s13, [r6, #80]
 2375              		.loc 1 1884 0
 2376 0ca2 92ED2A6A 		vldr.32	s12, [r2, #168]
 2377 0ca6 D6ED156A 		vldr.32	s13, [r6, #84]
 2378 0caa 28EE866A 		vmul.f32	s12, s17, s12
 2379 0cae E7EE066A 		vfma.f32	s13, s14, s12
 2380 0cb2 C6ED156A 		vstr.32	s13, [r6, #84]
 2381              		.loc 1 1885 0
 2382 0cb6 D2ED2A6A 		vldr.32	s13, [r2, #168]
 2383 0cba 96ED167A 		vldr.32	s14, [r6, #88]
 2384 0cbe 68EEA66A 		vmul.f32	s13, s17, s13
 2385 0cc2 A7EEA67A 		vfma.f32	s14, s15, s13
 2386 0cc6 86ED167A 		vstr.32	s14, [r6, #88]
 2387 0cca 79E5     		b	.L92
 2388              	.LVL171:
 2389              	.L232:
 2390              	.LBE192:
 2391              	.LBE204:
 2392              	.LBE222:
 2393              		.loc 1 1739 0
 2394 0ccc 344C     		ldr	r4, .L252+44
ARM GAS  /var/folders/sv/kgmgr77579zbf78p2zlhkdfr0000gn/T//ccXbx0Pt.s 			page 43


 2395              	.LBB223:
 2396              	.LBB224:
 2397              		.loc 1 2098 0
 2398 0cce 354B     		ldr	r3, .L252+48
 2399              	.LBE224:
 2400              	.LBE223:
 2401              		.loc 1 1739 0
 2402 0cd0 D8ED000A 		vldr.32	s1, [r8]
 2403 0cd4 94ED000A 		vldr.32	s0, [r4]
 2404              	.LVL172:
 2405              	.LBB229:
 2406              	.LBB225:
 2407              		.loc 1 2098 0
 2408 0cd8 1B78     		ldrb	r3, [r3]	@ zero_extendqisi2
 2409 0cda 042B     		cmp	r3, #4
 2410 0cdc 00F04682 		beq	.L134
 2411              		.loc 1 2099 0
 2412 0ce0 3149     		ldr	r1, .L252+52
 2413              		.loc 1 2100 0
 2414 0ce2 324A     		ldr	r2, .L252+56
 2415              		.loc 1 2099 0
 2416 0ce4 0023     		movs	r3, #0
 2417 0ce6 0B60     		str	r3, [r1]	@ float
 2418              		.loc 1 2100 0
 2419 0ce8 1360     		str	r3, [r2]	@ float
 2420              	.LVL173:
 2421              	.L135:
 2422              	.LBE225:
 2423              	.LBE229:
 2424              	.LBB230:
 2425              	.LBB231:
 2426              		.loc 1 2368 0
 2427 0cea 314B     		ldr	r3, .L252+60
 2428              	.LBE231:
 2429              	.LBE230:
 2430              		.loc 1 1740 0
 2431 0cec D8ED000A 		vldr.32	s1, [r8]
 2432 0cf0 94ED000A 		vldr.32	s0, [r4]
 2433              	.LVL174:
 2434              	.LBB235:
 2435              	.LBB232:
 2436              		.loc 1 2368 0
 2437 0cf4 1B78     		ldrb	r3, [r3]	@ zero_extendqisi2
 2438 0cf6 002B     		cmp	r3, #0
 2439 0cf8 40F02281 		bne	.L142
 2440              		.loc 1 2369 0
 2441 0cfc 2D49     		ldr	r1, .L252+64
 2442              		.loc 1 2370 0
 2443 0cfe 2E4A     		ldr	r2, .L252+68
 2444              		.loc 1 2369 0
 2445 0d00 0023     		movs	r3, #0
 2446 0d02 0B60     		str	r3, [r1]	@ float
 2447              		.loc 1 2370 0
 2448 0d04 1360     		str	r3, [r2]	@ float
 2449 0d06 FFF78FBB 		b	.L133
 2450              	.LVL175:
 2451              	.L227:
ARM GAS  /var/folders/sv/kgmgr77579zbf78p2zlhkdfr0000gn/T//ccXbx0Pt.s 			page 44


 2452              	.LBE232:
 2453              	.LBE235:
 2454              	.LBB236:
 2455              		.loc 1 1470 0
 2456 0d0a 97ED017A 		vldr.32	s14, [r7, #4]
 2457 0d0e DFED227A 		vldr.32	s15, .L252+36
 2458              	.LVL176:
 2459              		.loc 1 1471 0
 2460 0d12 9FED2C6A 		vldr.32	s12, .L252+80
 2461 0d16 DFED2C6A 		vldr.32	s13, .L252+84
 2462              		.loc 1 1470 0
 2463 0d1a 05EE900A 		vmov	s11, r0	@ int
 2464 0d1e 78E7     		b	.L217
 2465              	.LVL177:
 2466              	.L209:
 2467              	.LBE236:
 2468              	.LBB237:
 2469              	.LBB205:
 2470              	.LBB193:
 2471              	.LBB186:
 2472              	.LBB179:
 2473              		.loc 1 1971 0
 2474 0d20 9FED267A 		vldr.32	s14, .L252+72
 2475 0d24 24EE877A 		vmul.f32	s14, s9, s14
 2476 0d28 F4EEC77A 		vcmpe.f32	s15, s14
 2477 0d2c F1EE10FA 		vmrs	APSR_nzcv, FPSCR
 2478 0d30 00F17E81 		bmi	.L112
 2479 0d34 DFED107A 		vldr.32	s15, .L252+4
 2480              	.LVL178:
 2481 0d38 24EEA77A 		vmul.f32	s14, s9, s15
 2482              	.L110:
 2483              	.LVL179:
 2484              	.LBB168:
 2485              		.loc 1 2017 0
 2486 0d3c 07EE901A 		vmov	s15, r1	@ int
 2487 0d40 77EE656A 		vsub.f32	s13, s14, s11
 2488 0d44 B8EE676A 		vcvt.f32.u32	s12, s15
 2489              		.loc 1 2018 0
 2490 0d48 75EE877A 		vadd.f32	s15, s11, s14
 2491              		.loc 1 2017 0
 2492 0d4c 66EE866A 		vmul.f32	s13, s13, s12
 2493              		.loc 1 2018 0
 2494 0d50 27EE867A 		vmul.f32	s14, s15, s12
 2495              		.loc 1 2017 0
 2496 0d54 FCEEE67A 		vcvt.u32.f32	s15, s13
 2497              		.loc 1 2023 0
 2498 0d58 0226     		movs	r6, #2
 2499              		.loc 1 2017 0
 2500 0d5a 17EE902A 		vmov	r2, s15	@ int
 2501              	.LVL180:
 2502              		.loc 1 2018 0
 2503 0d5e FCEEC77A 		vcvt.u32.f32	s15, s14
 2504              		.loc 1 2021 0
 2505 0d62 8B1A     		subs	r3, r1, r2
 2506              		.loc 1 2018 0
 2507 0d64 17EE900A 		vmov	r0, s15	@ int
 2508              	.LVL181:
ARM GAS  /var/folders/sv/kgmgr77579zbf78p2zlhkdfr0000gn/T//ccXbx0Pt.s 			page 45


 2509              		.loc 1 2021 0
 2510 0d68 1B1A     		subs	r3, r3, r0
 2511 0d6a 5B08     		lsrs	r3, r3, #1
 2512              	.LVL182:
 2513              		.loc 1 2022 0
 2514 0d6c C118     		adds	r1, r0, r3
 2515              	.LVL183:
 2516              		.loc 1 2023 0
 2517 0d6e 0A44     		add	r2, r2, r1
 2518              	.LVL184:
 2519 0d70 C7E6     		b	.L146
 2520              	.L253:
 2521 0d72 00BF     		.align	2
 2522              	.L252:
 2523 0d74 00000140 		.word	1073807360
 2524 0d78 3ACD133F 		.word	1058262330
 2525 0d7c 3ACD933F 		.word	1066650938
 2526 0d80 8FC2F53C 		.word	1022739087
 2527 0d84 00000000 		.word	0
 2528 0d88 CDCC4C3D 		.word	1028443341
 2529 0d8c 00000000 		.word	.LANCHOR3
 2530 0d90 00000000 		.word	.LANCHOR24
 2531 0d94 00000000 		.word	.LANCHOR9
 2532 0d98 500AA53D 		.word	1034226256
 2533 0d9c 00000000 		.word	.LANCHOR10
 2534 0da0 00000000 		.word	.LANCHOR35
 2535 0da4 00000000 		.word	.LANCHOR5
 2536 0da8 00000000 		.word	.LANCHOR36
 2537 0dac 00000000 		.word	.LANCHOR37
 2538 0db0 00000000 		.word	.LANCHOR29
 2539 0db4 00000000 		.word	.LANCHOR40
 2540 0db8 00000000 		.word	.LANCHOR41
 2541 0dbc 3ACD13BF 		.word	3205745978
 2542 0dc0 00000000 		.word	.LANCHOR0
 2543 0dc4 6740533A 		.word	978534503
 2544 0dc8 74D19541 		.word	1100337524
 2545              	.LVL185:
 2546              	.L66:
 2547              	.LBE168:
 2548              	.LBE179:
 2549              	.LBE186:
 2550              	.LBE193:
 2551              	.LBE205:
 2552              	.LBB206:
 2553              	.LBB203:
 2554              		.loc 1 1581 0
 2555 0dcc 2B8A     		ldrh	r3, [r5, #16]
 2556 0dce 1FED037A 		vldr.32	s14, .L252+80
 2557 0dd2 5FED035A 		vldr.32	s11, .L252+84
 2558              		.loc 1 1584 0
 2559 0dd6 94ED035A 		vldr.32	s10, [r4, #12]
 2560              		.loc 1 1587 0
 2561 0dda 91ED378A 		vldr.32	s16, [r1, #220]
 2562              	.LVL186:
 2563              		.loc 1 1588 0
 2564 0dde 91ED386A 		vldr.32	s12, [r1, #224]
 2565 0de2 CD4D     		ldr	r5, .L254
ARM GAS  /var/folders/sv/kgmgr77579zbf78p2zlhkdfr0000gn/T//ccXbx0Pt.s 			page 46


 2566              		.loc 1 1581 0
 2567 0de4 9BB2     		uxth	r3, r3
 2568 0de6 06EE903A 		vmov	s13, r3	@ int
 2569 0dea F8EE666A 		vcvt.f32.u32	s13, s13
 2570 0dee B7EE009A 		vmov.f32	s18, #1.0e+0
 2571 0df2 26EE877A 		vmul.f32	s14, s13, s14
 2572              		.loc 1 1584 0
 2573 0df6 77EEC57A 		vsub.f32	s15, s15, s10
 2574              	.LVL187:
 2575              		.loc 1 1581 0
 2576 0dfa 27EE257A 		vmul.f32	s14, s14, s11
 2577              		.loc 1 1588 0
 2578 0dfe 68EE866A 		vmul.f32	s13, s17, s12
 2579              		.loc 1 1581 0
 2580 0e02 C9EE079A 		vdiv.f32	s19, s18, s14
 2581              	.LVL188:
 2582              		.loc 1 1591 0
 2583 0e06 2846     		mov	r0, r5
 2584              		.loc 1 1588 0
 2585 0e08 26EEA77A 		vmul.f32	s14, s13, s15
 2586 0e0c D5ED006A 		vldr.32	s13, [r5]
 2587 0e10 E9EE876A 		vfma.f32	s13, s19, s14
 2588              		.loc 1 1591 0
 2589 0e14 F0EE490A 		vmov.f32	s1, s18
 2590 0e18 BFEE000A 		vmov.f32	s0, #-1.0e+0
 2591              		.loc 1 1587 0
 2592 0e1c 27EE888A 		vmul.f32	s16, s15, s16
 2593              	.LVL189:
 2594              		.loc 1 1588 0
 2595 0e20 C5ED006A 		vstr.32	s13, [r5]
 2596              		.loc 1 1591 0
 2597 0e24 FFF7FEFF 		bl	utils_truncate_number
 2598              	.LVL190:
 2599              		.loc 1 1594 0
 2600 0e28 D5ED007A 		vldr.32	s15, [r5]
 2601 0e2c E9EE887A 		vfma.f32	s15, s19, s16
 2602              		.loc 1 1595 0
 2603 0e30 5046     		mov	r0, r10
 2604 0e32 F0EE490A 		vmov.f32	s1, s18
 2605 0e36 BFEE000A 		vmov.f32	s0, #-1.0e+0
 2606              		.loc 1 1594 0
 2607 0e3a CDED077A 		vstr.32	s15, [sp, #28]
 2608              		.loc 1 1595 0
 2609 0e3e FFF7FEFF 		bl	utils_truncate_number
 2610              	.LVL191:
 2611              		.loc 1 1596 0
 2612 0e42 3B68     		ldr	r3, [r7]
 2613 0e44 DDED077A 		vldr.32	s15, [sp, #28]
 2614 0e48 93ED197A 		vldr.32	s14, [r3, #100]
 2615 0e4c 67EE877A 		vmul.f32	s15, s15, s14
 2616 0e50 CDED047A 		vstr.32	s15, [sp, #16]
 2617              	.LBE203:
 2618              		.loc 1 1577 0
 2619 0e54 0EE4     		b	.L71
 2620              	.LVL192:
 2621              	.L238:
 2622              	.LBE206:
ARM GAS  /var/folders/sv/kgmgr77579zbf78p2zlhkdfr0000gn/T//ccXbx0Pt.s 			page 47


 2623              		.loc 1 1645 0
 2624 0e56 3B68     		ldr	r3, [r7]
 2625 0e58 93ED1C0A 		vldr.32	s0, [r3, #112]
 2626 0e5c D3ED1B0A 		vldr.32	s1, [r3, #108]
 2627              	.L218:
 2628              		.loc 1 1647 0
 2629 0e60 04AD     		add	r5, sp, #16
 2630 0e62 80EE080A 		vdiv.f32	s0, s0, s16
 2631 0e66 2846     		mov	r0, r5
 2632 0e68 C0EE880A 		vdiv.f32	s1, s1, s16
 2633 0e6c FFF7FEFF 		bl	utils_truncate_number
 2634              	.LVL193:
 2635 0e70 2DE4     		b	.L86
 2636              	.LVL194:
 2637              	.L236:
 2638              		.loc 1 1629 0
 2639 0e72 0023     		movs	r3, #0
 2640 0e74 2361     		str	r3, [r4, #16]	@ float
 2641 0e76 12E4     		b	.L82
 2642              	.LVL195:
 2643              	.L208:
 2644              	.LBB207:
 2645              	.LBB194:
 2646              	.LBB187:
 2647              	.LBB180:
 2648              		.loc 1 1978 0
 2649 0e78 F1EE10FA 		vmrs	APSR_nzcv, FPSCR
 2650 0e7c C0F2E881 		blt	.L211
 2651              		.loc 1 1980 0
 2652 0e80 9FEDA67A 		vldr.32	s14, .L254+4
 2653 0e84 24EE877A 		vmul.f32	s14, s9, s14
 2654 0e88 F4EEC77A 		vcmpe.f32	s15, s14
 2655 0e8c F1EE10FA 		vmrs	APSR_nzcv, FPSCR
 2656 0e90 40F1AF80 		bpl	.L241
 2657 0e94 9FEDA27A 		vldr.32	s14, .L254+8
 2658 0e98 24EE877A 		vmul.f32	s14, s9, s14
 2659              	.L118:
 2660              	.LVL196:
 2661              	.LBB169:
 2662              		.loc 1 2059 0
 2663 0e9c 06EE901A 		vmov	s13, r1	@ int
 2664 0ea0 75EEC75A 		vsub.f32	s11, s11, s14
 2665              	.LVL197:
 2666 0ea4 F8EE666A 		vcvt.f32.u32	s13, s13
 2667              		.loc 1 2060 0
 2668 0ea8 77EEC77A 		vsub.f32	s15, s15, s14
 2669              	.LVL198:
 2670              		.loc 1 2059 0
 2671 0eac 25EEA67A 		vmul.f32	s14, s11, s13
 2672              		.loc 1 2060 0
 2673 0eb0 67EEA67A 		vmul.f32	s15, s15, s13
 2674              		.loc 1 2059 0
 2675 0eb4 BCEEC77A 		vcvt.u32.f32	s14, s14
 2676              		.loc 1 2060 0
 2677 0eb8 FCEEE77A 		vcvt.u32.f32	s15, s15
 2678              		.loc 1 2059 0
 2679 0ebc 17EE100A 		vmov	r0, s14	@ int
ARM GAS  /var/folders/sv/kgmgr77579zbf78p2zlhkdfr0000gn/T//ccXbx0Pt.s 			page 48


 2680              	.LVL199:
 2681              		.loc 1 2060 0
 2682 0ec0 17EE903A 		vmov	r3, s15	@ int
 2683              	.LVL200:
 2684              		.loc 1 2063 0
 2685 0ec4 0A1A     		subs	r2, r1, r0
 2686 0ec6 D21A     		subs	r2, r2, r3
 2687 0ec8 5208     		lsrs	r2, r2, #1
 2688              	.LVL201:
 2689              		.loc 1 2064 0
 2690 0eca 8118     		adds	r1, r0, r2
 2691              	.LVL202:
 2692              		.loc 1 2065 0
 2693 0ecc 0B44     		add	r3, r3, r1
 2694              	.LVL203:
 2695 0ece 0526     		movs	r6, #5
 2696 0ed0 17E6     		b	.L146
 2697              	.LVL204:
 2698              	.L205:
 2699              	.LBE169:
 2700              	.LBE180:
 2701              	.LBE187:
 2702              	.LBE194:
 2703              	.LBE207:
 2704              		.loc 1 1653 0
 2705 0ed2 93ED190A 		vldr.32	s0, [r3, #100]
 2706 0ed6 D3ED1A0A 		vldr.32	s1, [r3, #104]
 2707 0eda B1EE400A 		vneg.f32	s0, s0
 2708 0ede F1EE600A 		vneg.f32	s1, s1
 2709 0ee2 2846     		mov	r0, r5
 2710 0ee4 FFF7FEFF 		bl	utils_truncate_number
 2711              	.LVL205:
 2712 0ee8 FFF7FFBB 		b	.L90
 2713              	.LVL206:
 2714              	.L99:
 2715              	.LBB208:
 2716              	.LBB195:
 2717              		.loc 1 1926 0
 2718 0eec F5EEC07A 		vcmpe.f32	s15, #0
 2719 0ef0 F1EE10FA 		vmrs	APSR_nzcv, FPSCR
 2720 0ef4 76EE876A 		vadd.f32	s13, s13, s14
 2721 0ef8 7FF591AD 		bpl	.L149
 2722 0efc DFED897A 		vldr.32	s15, .L254+12
 2723              	.LVL207:
 2724 0f00 9FED895A 		vldr.32	s10, .L254+16
 2725 0f04 76EEE76A 		vsub.f32	s13, s13, s15
 2726              	.LVL208:
 2727 0f08 A0E5     		b	.L105
 2728              	.LVL209:
 2729              	.L234:
 2730 0f0a 3968     		ldr	r1, [r7]
 2731 0f0c B0EEE77A 		vabs.f32	s14, s15
 2732 0f10 2CE6     		b	.L64
 2733              	.LVL210:
 2734              	.L166:
 2735              	.LBE195:
 2736              	.LBE208:
ARM GAS  /var/folders/sv/kgmgr77579zbf78p2zlhkdfr0000gn/T//ccXbx0Pt.s 			page 49


 2737              		.loc 1 1647 0
 2738 0f12 3B68     		ldr	r3, [r7]
 2739 0f14 93ED1B0A 		vldr.32	s0, [r3, #108]
 2740 0f18 D3ED1C0A 		vldr.32	s1, [r3, #112]
 2741 0f1c A0E7     		b	.L218
 2742              	.LVL211:
 2743              	.L100:
 2744              	.LBB209:
 2745              	.LBB196:
 2746              		.loc 1 1926 0
 2747 0f1e DFED817A 		vldr.32	s15, .L254+12
 2748              	.LVL212:
 2749              		.loc 1 1927 0
 2750 0f22 B5EEC04A 		vcmpe.f32	s8, #0
 2751 0f26 F1EE10FA 		vmrs	APSR_nzcv, FPSCR
 2752              		.loc 1 1926 0
 2753 0f2a 76EEE76A 		vsub.f32	s13, s13, s15
 2754              	.LVL213:
 2755              		.loc 1 1927 0
 2756 0f2e 00F1ED81 		bmi	.L161
 2757 0f32 9FED7B7A 		vldr.32	s14, .L254+8
 2758              	.L147:
 2759 0f36 9FED7A5A 		vldr.32	s10, .L254+8
 2760 0f3a 37EE055A 		vadd.f32	s10, s14, s10
 2761 0f3e 85E5     		b	.L105
 2762              	.LVL214:
 2763              	.L142:
 2764              	.LBE196:
 2765              	.LBE209:
 2766              	.LBE237:
 2767              	.LBB238:
 2768              	.LBB233:
 2769              		.loc 1 2375 0
 2770 0f40 FFF7FEFF 		bl	utils_angle_difference
 2771              	.LVL215:
 2772 0f44 B0EE408A 		vmov.f32	s16, s0
 2773              	.LVL216:
 2774              		.loc 1 2377 0
 2775 0f48 FFF7FEFF 		bl	encoder_is_configured
 2776              	.LVL217:
 2777 0f4c 28B1     		cbz	r0, .L143
 2778              		.loc 1 2378 0
 2779 0f4e 3B68     		ldr	r3, [r7]
 2780 0f50 93F8B830 		ldrb	r3, [r3, #184]	@ zero_extendqisi2
 2781 0f54 0BB1     		cbz	r3, .L143
 2782              		.loc 1 2379 0
 2783 0f56 B1EE488A 		vneg.f32	s16, s16
 2784              	.LVL218:
 2785              	.L143:
 2786              		.loc 1 2384 0
 2787 0f5a 744C     		ldr	r4, .L254+20
 2788 0f5c DFED725A 		vldr.32	s11, .L254+16
 2789 0f60 94ED006A 		vldr.32	s12, [r4]
 2790              		.loc 1 2390 0
 2791 0f64 724B     		ldr	r3, .L254+24
 2792              		.loc 1 2391 0
 2793 0f66 734E     		ldr	r6, .L254+28
ARM GAS  /var/folders/sv/kgmgr77579zbf78p2zlhkdfr0000gn/T//ccXbx0Pt.s 			page 50


 2794              		.loc 1 2390 0
 2795 0f68 D3ED007A 		vldr.32	s15, [r3]
 2796              		.loc 1 2383 0
 2797 0f6c DFED726A 		vldr.32	s13, .L254+32
 2798              		.loc 1 2384 0
 2799 0f70 28EE257A 		vmul.f32	s14, s16, s11
 2800              		.loc 1 2390 0
 2801 0f74 78EEA77A 		vadd.f32	s15, s17, s15
 2802              		.loc 1 2384 0
 2803 0f78 A8EE876A 		vfma.f32	s12, s17, s14
 2804              		.loc 1 2391 0
 2805 0f7c 96ED007A 		vldr.32	s14, [r6]
 2806              		.loc 1 2384 0
 2807 0f80 84ED006A 		vstr.32	s12, [r4]
 2808              		.loc 1 2383 0
 2809 0f84 68EE266A 		vmul.f32	s13, s16, s13
 2810              		.loc 1 2391 0
 2811 0f88 B4EE478A 		vcmp.f32	s16, s14
 2812 0f8c F1EE10FA 		vmrs	APSR_nzcv, FPSCR
 2813              		.loc 1 2390 0
 2814 0f90 C3ED007A 		vstr.32	s15, [r3]
 2815              		.loc 1 2383 0
 2816 0f94 CDED066A 		vstr.32	s13, [sp, #24]
 2817              		.loc 1 2391 0
 2818 0f98 40F04C81 		bne	.L214
 2819 0f9c 674F     		ldr	r7, .L254+36
 2820              	.L144:
 2821              		.loc 1 2399 0
 2822 0f9e DFED688A 		vldr.32	s17, .L254+40
 2823              	.LVL219:
 2824 0fa2 2846     		mov	r0, r5
 2825 0fa4 B0EE680A 		vmov.f32	s0, s17
 2826 0fa8 FFF7FEFF 		bl	utils_truncate_number_abs
 2827              	.LVL220:
 2828              		.loc 1 2400 0
 2829 0fac 9DED060A 		vldr.32	s0, [sp, #24]
 2830 0fb0 5E48     		ldr	r0, .L254+20
 2831 0fb2 B0EEC00A 		vabs.f32	s0, s0
 2832 0fb6 38EEC00A 		vsub.f32	s0, s17, s0
 2833 0fba FFF7FEFF 		bl	utils_truncate_number_abs
 2834              	.LVL221:
 2835              		.loc 1 2406 0
 2836 0fbe 9DED067A 		vldr.32	s14, [sp, #24]
 2837 0fc2 D4ED007A 		vldr.32	s15, [r4]
 2838 0fc6 D7ED006A 		vldr.32	s13, [r7]
 2839              		.loc 1 2407 0
 2840 0fca 9FED5E0A 		vldr.32	s0, .L254+44
 2841              		.loc 1 2403 0
 2842 0fce 86ED008A 		vstr.32	s16, [r6]
 2843              		.loc 1 2406 0
 2844 0fd2 77EE277A 		vadd.f32	s15, s14, s15
 2845              		.loc 1 2407 0
 2846 0fd6 F0EE680A 		vmov.f32	s1, s17
 2847              		.loc 1 2406 0
 2848 0fda 77EEA67A 		vadd.f32	s15, s15, s13
 2849              		.loc 1 2407 0
 2850 0fde 5046     		mov	r0, r10
ARM GAS  /var/folders/sv/kgmgr77579zbf78p2zlhkdfr0000gn/T//ccXbx0Pt.s 			page 51


 2851              		.loc 1 2406 0
 2852 0fe0 CDED077A 		vstr.32	s15, [sp, #28]
 2853              		.loc 1 2407 0
 2854 0fe4 FFF7FEFF 		bl	utils_truncate_number
 2855              	.LVL222:
 2856              		.loc 1 2409 0
 2857 0fe8 574B     		ldr	r3, .L254+48
 2858 0fea 079A     		ldr	r2, [sp, #28]	@ float
 2859 0fec 1A60     		str	r2, [r3]	@ float
 2860 0fee FFF71BBA 		b	.L133
 2861              	.LVL223:
 2862              	.L241:
 2863              	.LBE233:
 2864              	.LBE238:
 2865              	.LBB239:
 2866              	.LBB210:
 2867              	.LBB197:
 2868              	.LBB188:
 2869              	.LBB181:
 2870              	.LBB170:
 2871              		.loc 1 2074 0
 2872 0ff2 DFED4B6A 		vldr.32	s13, .L254+8
 2873              		.loc 1 2073 0
 2874 0ff6 9FED557A 		vldr.32	s14, .L254+52
 2875              		.loc 1 2074 0
 2876 0ffa E4EEA67A 		vfma.f32	s15, s9, s13
 2877              	.LVL224:
 2878              	.LBE170:
 2879              		.loc 1 1983 0
 2880 0ffe 0626     		movs	r6, #6
 2881              	.LBB171:
 2882              		.loc 1 2073 0
 2883 1000 06EE901A 		vmov	s13, r1	@ int
 2884 1004 24EE877A 		vmul.f32	s14, s9, s14
 2885 1008 F8EE666A 		vcvt.f32.u32	s13, s13
 2886 100c 27EE267A 		vmul.f32	s14, s14, s13
 2887              		.loc 1 2074 0
 2888 1010 67EEA67A 		vmul.f32	s15, s15, s13
 2889              		.loc 1 2073 0
 2890 1014 BCEEC77A 		vcvt.u32.f32	s14, s14
 2891              		.loc 1 2074 0
 2892 1018 FCEEE77A 		vcvt.u32.f32	s15, s15
 2893              		.loc 1 2073 0
 2894 101c 17EE103A 		vmov	r3, s14	@ int
 2895              	.LVL225:
 2896              		.loc 1 2074 0
 2897 1020 17EE902A 		vmov	r2, s15	@ int
 2898              	.LVL226:
 2899              		.loc 1 2077 0
 2900 1024 C91A     		subs	r1, r1, r3
 2901              	.LVL227:
 2902 1026 891A     		subs	r1, r1, r2
 2903 1028 4908     		lsrs	r1, r1, #1
 2904              	.LVL228:
 2905              		.loc 1 2078 0
 2906 102a 0A44     		add	r2, r2, r1
 2907              	.LVL229:
ARM GAS  /var/folders/sv/kgmgr77579zbf78p2zlhkdfr0000gn/T//ccXbx0Pt.s 			page 52


 2908              		.loc 1 2079 0
 2909 102c 1344     		add	r3, r3, r2
 2910              	.LVL230:
 2911 102e 68E5     		b	.L146
 2912              	.LVL231:
 2913              	.L112:
 2914              	.LBE171:
 2915              	.LBB172:
 2916              		.loc 1 2032 0
 2917 1030 9FED3B7A 		vldr.32	s14, .L254+8
 2918              		.loc 1 2031 0
 2919 1034 DFED467A 		vldr.32	s15, .L254+56
 2920              	.LVL232:
 2921              		.loc 1 2032 0
 2922 1038 E4EEC75A 		vfms.f32	s11, s9, s14
 2923              	.LVL233:
 2924              	.LBE172:
 2925              		.loc 1 1972 0
 2926 103c 0326     		movs	r6, #3
 2927              	.LBB173:
 2928              		.loc 1 2031 0
 2929 103e 07EE101A 		vmov	s14, r1	@ int
 2930 1042 64EEA77A 		vmul.f32	s15, s9, s15
 2931 1046 B8EE477A 		vcvt.f32.u32	s14, s14
 2932 104a 67EE877A 		vmul.f32	s15, s15, s14
 2933              		.loc 1 2032 0
 2934 104e 25EE877A 		vmul.f32	s14, s11, s14
 2935              		.loc 1 2031 0
 2936 1052 FCEEE77A 		vcvt.u32.f32	s15, s15
 2937 1056 17EE902A 		vmov	r2, s15	@ int
 2938              	.LVL234:
 2939              		.loc 1 2032 0
 2940 105a FCEEC77A 		vcvt.u32.f32	s15, s14
 2941              		.loc 1 2035 0
 2942 105e 8B1A     		subs	r3, r1, r2
 2943              		.loc 1 2032 0
 2944 1060 17EE900A 		vmov	r0, s15	@ int
 2945              	.LVL235:
 2946              		.loc 1 2035 0
 2947 1064 1B1A     		subs	r3, r3, r0
 2948 1066 5B08     		lsrs	r3, r3, #1
 2949              	.LVL236:
 2950              		.loc 1 2036 0
 2951 1068 1A44     		add	r2, r2, r3
 2952              	.LVL237:
 2953              		.loc 1 2037 0
 2954 106a 8118     		adds	r1, r0, r2
 2955              	.LVL238:
 2956 106c 49E5     		b	.L146
 2957              	.LVL239:
 2958              	.L235:
 2959              	.LBE173:
 2960              	.LBE181:
 2961              	.LBE188:
 2962              	.LBE197:
 2963              	.LBE210:
 2964              		.loc 1 1612 0
ARM GAS  /var/folders/sv/kgmgr77579zbf78p2zlhkdfr0000gn/T//ccXbx0Pt.s 			page 53


 2965 106e 9FED2E7A 		vldr.32	s14, .L254+16
 2966              		.loc 1 1610 0
 2967 1072 DDED047A 		vldr.32	s15, [sp, #16]
 2968              	.LVL240:
 2969              		.loc 1 1612 0
 2970 1076 B4EEC78A 		vcmpe.f32	s16, s14
 2971 107a F1EE10FA 		vmrs	APSR_nzcv, FPSCR
 2972              		.loc 1 1610 0
 2973 107e F0EEE77A 		vabs.f32	s15, s15
 2974              		.loc 1 1612 0
 2975 1082 40F32381 		ble	.L203
 2976              		.loc 1 1613 0
 2977 1086 F1EE677A 		vneg.f32	s15, s15
 2978 108a CDED047A 		vstr.32	s15, [sp, #16]
 2979 108e FFF7F1BA 		b	.L71
 2980              	.LVL241:
 2981              	.L229:
 2982              	.LBE239:
 2983              	.LBB240:
 2984              		.loc 1 1484 0
 2985 1092 07EE901A 		vmov	s15, r1	@ int
 2986              	.LVL242:
 2987 1096 9FED2F6A 		vldr.32	s12, .L254+60
 2988 109a D7ED016A 		vldr.32	s13, [r7, #4]
 2989              		.loc 1 1486 0
 2990 109e 9FED2E5A 		vldr.32	s10, .L254+64
 2991 10a2 DFED2E5A 		vldr.32	s11, .L254+68
 2992              		.loc 1 1484 0
 2993 10a6 07EE100A 		vmov	s14, r0	@ int
 2994 10aa F8EEE77A 		vcvt.f32.s32	s15, s15
 2995 10ae B8EEC77A 		vcvt.f32.s32	s14, s14
 2996 10b2 67EE867A 		vmul.f32	s15, s15, s12
 2997 10b6 E7EE067A 		vfma.f32	s15, s14, s12
 2998 10ba 76EEE77A 		vsub.f32	s15, s13, s15
 2999 10be C7ED017A 		vstr.32	s15, [r7, #4]
 3000              		.loc 1 1486 0
 3001 10c2 2B8A     		ldrh	r3, [r5, #16]
 3002 10c4 97ED027A 		vldr.32	s14, [r7, #8]
 3003 10c8 9BB2     		uxth	r3, r3
 3004 10ca 07EE903A 		vmov	s15, r3	@ int
 3005 10ce F8EE677A 		vcvt.f32.u32	s15, s15
 3006 10d2 67EE857A 		vmul.f32	s15, s15, s10
 3007 10d6 A7EEA57A 		vfma.f32	s14, s15, s11
 3008 10da 87ED027A 		vstr.32	s14, [r7, #8]
 3009              		.loc 1 1487 0
 3010 10de 3B68     		ldr	r3, [r7]
 3011 10e0 0133     		adds	r3, r3, #1
 3012 10e2 3B60     		str	r3, [r7]
 3013              		.loc 1 1488 0
 3014 10e4 FFF7FEFF 		bl	stop_pwm_hw
 3015              	.LVL243:
 3016              		.loc 1 1489 0
 3017 10e8 1D4B     		ldr	r3, .L254+72
 3018 10ea 0222     		movs	r2, #2
 3019 10ec 5A63     		str	r2, [r3, #52]
 3020 10ee D8F80030 		ldr	r3, [r8]
 3021 10f2 FFF7B9B9 		b	.L51
ARM GAS  /var/folders/sv/kgmgr77579zbf78p2zlhkdfr0000gn/T//ccXbx0Pt.s 			page 54


 3022              	.LVL244:
 3023              	.L237:
 3024              	.LBE240:
 3025              	.LBB241:
 3026              	.LBB211:
 3027              		.loc 1 1632 0
 3028 10f6 1B4E     		ldr	r6, .L254+76
 3029 10f8 1B4B     		ldr	r3, .L254+80
 3030 10fa D6ED007A 		vldr.32	s15, [r6]
 3031 10fe 93ED007A 		vldr.32	s14, [r3]
 3032 1102 E8EE877A 		vfma.f32	s15, s17, s14
 3033              		.loc 1 1633 0
 3034 1106 3046     		mov	r0, r6
 3035              		.loc 1 1632 0
 3036 1108 C6ED007A 		vstr.32	s15, [r6]
 3037              		.loc 1 1633 0
 3038 110c FFF7FEFF 		bl	utils_norm_angle_rad
 3039              	.LVL245:
 3040              		.loc 1 1634 0
 3041 1110 3368     		ldr	r3, [r6]	@ float
 3042 1112 2361     		str	r3, [r4, #16]	@ float
 3043 1114 FFF7C3BA 		b	.L82
 3044              	.L255:
 3045              		.align	2
 3046              	.L254:
 3047 1118 00000000 		.word	.LANCHOR24
 3048 111c 3ACD13BF 		.word	3205745978
 3049 1120 3ACD133F 		.word	1058262330
 3050 1124 ABAAAABE 		.word	3198855851
 3051 1128 00000000 		.word	0
 3052 112c 00000000 		.word	.LANCHOR40
 3053 1130 00000000 		.word	.LANCHOR42
 3054 1134 00000000 		.word	.LANCHOR41
 3055 1138 CDCCCC3D 		.word	1036831949
 3056 113c 00000000 		.word	.LANCHOR43
 3057 1140 9A99193E 		.word	1041865114
 3058 1144 9A9919BE 		.word	3189348762
 3059 1148 00000000 		.word	.LANCHOR30
 3060 114c 3ACD93BF 		.word	3214134586
 3061 1150 3ACD933F 		.word	1066650938
 3062 1154 500AA53D 		.word	1034226256
 3063 1158 6740533A 		.word	978534503
 3064 115c 74D19541 		.word	1100337524
 3065 1160 00040140 		.word	1073808384
 3066 1164 00000000 		.word	.LANCHOR27
 3067 1168 00000000 		.word	.LANCHOR26
 3068              	.LVL246:
 3069              	.L134:
 3070              	.LBE211:
 3071              	.LBE241:
 3072              	.LBB242:
 3073              	.LBB226:
 3074              		.loc 1 2105 0
 3075 116c FFF7FEFF 		bl	utils_angle_difference
 3076              	.LVL247:
 3077 1170 B0EE408A 		vmov.f32	s16, s0
 3078              	.LVL248:
ARM GAS  /var/folders/sv/kgmgr77579zbf78p2zlhkdfr0000gn/T//ccXbx0Pt.s 			page 55


 3079              		.loc 1 2107 0
 3080 1174 FFF7FEFF 		bl	encoder_is_configured
 3081              	.LVL249:
 3082              		.loc 1 2108 0
 3083 1178 3B68     		ldr	r3, [r7]
 3084              		.loc 1 2107 0
 3085 117a 20B1     		cbz	r0, .L137
 3086              		.loc 1 2108 0
 3087 117c 93F8B820 		ldrb	r2, [r3, #184]	@ zero_extendqisi2
 3088 1180 0AB1     		cbz	r2, .L137
 3089              		.loc 1 2109 0
 3090 1182 B1EE488A 		vneg.f32	s16, s16
 3091              	.LVL250:
 3092              	.L137:
 3093              		.loc 1 2113 0
 3094 1186 93ED4B7A 		vldr.32	s14, [r3, #300]
 3095              		.loc 1 2114 0
 3096 118a 684E     		ldr	r6, .L256
 3097              		.loc 1 2121 0
 3098 118c 684A     		ldr	r2, .L256+4
 3099              		.loc 1 2114 0
 3100 118e D6ED006A 		vldr.32	s13, [r6]
 3101              		.loc 1 2122 0
 3102 1192 DFF8BC91 		ldr	r9, .L256+36
 3103              		.loc 1 2121 0
 3104 1196 D2ED007A 		vldr.32	s15, [r2]
 3105              		.loc 1 2113 0
 3106 119a 27EE087A 		vmul.f32	s14, s14, s16
 3107              		.loc 1 2121 0
 3108 119e 78EEA77A 		vadd.f32	s15, s17, s15
 3109              		.loc 1 2113 0
 3110 11a2 8DED067A 		vstr.32	s14, [sp, #24]
 3111              		.loc 1 2114 0
 3112 11a6 93ED4C6A 		vldr.32	s12, [r3, #304]
 3113              		.loc 1 2122 0
 3114 11aa 99ED007A 		vldr.32	s14, [r9]
 3115              		.loc 1 2121 0
 3116 11ae C2ED007A 		vstr.32	s15, [r2]
 3117              		.loc 1 2114 0
 3118 11b2 28EE866A 		vmul.f32	s12, s17, s12
 3119              		.loc 1 2122 0
 3120 11b6 B4EE478A 		vcmp.f32	s16, s14
 3121              		.loc 1 2114 0
 3122 11ba E8EE066A 		vfma.f32	s13, s16, s12
 3123              		.loc 1 2122 0
 3124 11be F1EE10FA 		vmrs	APSR_nzcv, FPSCR
 3125              		.loc 1 2114 0
 3126 11c2 C6ED006A 		vstr.32	s13, [r6]
 3127              		.loc 1 2122 0
 3128 11c6 6AD1     		bne	.L213
 3129 11c8 DFF888B1 		ldr	fp, .L256+40
 3130              	.L138:
 3131              		.loc 1 2130 0
 3132 11cc B7EE000A 		vmov.f32	s0, #1.0e+0
 3133 11d0 2846     		mov	r0, r5
 3134 11d2 FFF7FEFF 		bl	utils_truncate_number_abs
 3135              	.LVL251:
ARM GAS  /var/folders/sv/kgmgr77579zbf78p2zlhkdfr0000gn/T//ccXbx0Pt.s 			page 56


 3136              		.loc 1 2131 0
 3137 11d6 9DED060A 		vldr.32	s0, [sp, #24]
 3138 11da 5448     		ldr	r0, .L256
 3139 11dc B7EE009A 		vmov.f32	s18, #1.0e+0
 3140 11e0 B0EEC00A 		vabs.f32	s0, s0
 3141 11e4 39EE400A 		vsub.f32	s0, s18, s0
 3142 11e8 FFF7FEFF 		bl	utils_truncate_number_abs
 3143              	.LVL252:
 3144              		.loc 1 2137 0
 3145 11ec 9DED067A 		vldr.32	s14, [sp, #24]
 3146 11f0 D6ED007A 		vldr.32	s15, [r6]
 3147 11f4 DBED006A 		vldr.32	s13, [fp]
 3148              		.loc 1 2134 0
 3149 11f8 89ED008A 		vstr.32	s16, [r9]
 3150              		.loc 1 2137 0
 3151 11fc 77EE277A 		vadd.f32	s15, s14, s15
 3152              		.loc 1 2138 0
 3153 1200 F0EE490A 		vmov.f32	s1, s18
 3154              		.loc 1 2137 0
 3155 1204 77EEA67A 		vadd.f32	s15, s15, s13
 3156              		.loc 1 2138 0
 3157 1208 BFEE000A 		vmov.f32	s0, #-1.0e+0
 3158 120c 5046     		mov	r0, r10
 3159              		.loc 1 2137 0
 3160 120e CDED077A 		vstr.32	s15, [sp, #28]
 3161              		.loc 1 2138 0
 3162 1212 FFF7FEFF 		bl	utils_truncate_number
 3163              	.LVL253:
 3164              		.loc 1 2140 0
 3165 1216 FFF7FEFF 		bl	encoder_is_configured
 3166              	.LVL254:
 3167 121a 0028     		cmp	r0, #0
 3168 121c 61D1     		bne	.L242
 3169              		.loc 1 2148 0
 3170 121e 3B68     		ldr	r3, [r7]
 3171              	.L219:
 3172 1220 D3ED197A 		vldr.32	s15, [r3, #100]
 3173 1224 9DED077A 		vldr.32	s14, [sp, #28]
 3174 1228 424B     		ldr	r3, .L256+8
 3175 122a 67EE877A 		vmul.f32	s15, s15, s14
 3176 122e C3ED007A 		vstr.32	s15, [r3]
 3177 1232 5AE5     		b	.L135
 3178              	.LVL255:
 3179              	.L214:
 3180              	.LBE226:
 3181              	.LBE242:
 3182              	.LBB243:
 3183              	.LBB234:
 3184              		.loc 1 2394 0
 3185 1234 9FED406A 		vldr.32	s12, .L256+12
 3186 1238 404F     		ldr	r7, .L256+16
 3187              		.loc 1 2395 0
 3188 123a C3ED005A 		vstr.32	s11, [r3]
 3189              		.loc 1 2394 0
 3190 123e C6EE276A 		vdiv.f32	s13, s12, s15
 3191 1242 38EE477A 		vsub.f32	s14, s16, s14
 3192 1246 67EE267A 		vmul.f32	s15, s14, s13
ARM GAS  /var/folders/sv/kgmgr77579zbf78p2zlhkdfr0000gn/T//ccXbx0Pt.s 			page 57


 3193 124a C7ED007A 		vstr.32	s15, [r7]
 3194 124e A6E6     		b	.L144
 3195              	.LVL256:
 3196              	.L211:
 3197              	.LBE234:
 3198              	.LBE243:
 3199              	.LBB244:
 3200              	.LBB212:
 3201              	.LBB198:
 3202              	.LBB189:
 3203              	.LBB182:
 3204              		.loc 1 1987 0
 3205 1250 9FED3B7A 		vldr.32	s14, .L256+20
 3206 1254 24EE877A 		vmul.f32	s14, s9, s14
 3207 1258 F4EEC77A 		vcmpe.f32	s15, s14
 3208 125c F1EE10FA 		vmrs	APSR_nzcv, FPSCR
 3209 1260 7FF51CAE 		bpl	.L118
 3210              	.LVL257:
 3211              	.LBB174:
 3212              		.loc 1 2045 0
 3213 1264 75EE877A 		vadd.f32	s15, s11, s14
 3214              	.LVL258:
 3215 1268 07EE101A 		vmov	s14, r1	@ int
 3216              		.loc 1 2046 0
 3217 126c DFED356A 		vldr.32	s13, .L256+24
 3218              		.loc 1 2045 0
 3219 1270 B8EE477A 		vcvt.f32.u32	s14, s14
 3220              		.loc 1 2046 0
 3221 1274 64EEA64A 		vmul.f32	s9, s9, s13
 3222              	.LVL259:
 3223              		.loc 1 2045 0
 3224 1278 67EE877A 		vmul.f32	s15, s15, s14
 3225              		.loc 1 2046 0
 3226 127c 24EE877A 		vmul.f32	s14, s9, s14
 3227              		.loc 1 2045 0
 3228 1280 FCEEE77A 		vcvt.u32.f32	s15, s15
 3229              	.LBE174:
 3230              		.loc 1 1988 0
 3231 1284 0426     		movs	r6, #4
 3232              	.LBB175:
 3233              		.loc 1 2045 0
 3234 1286 17EE900A 		vmov	r0, s15	@ int
 3235              	.LVL260:
 3236              		.loc 1 2046 0
 3237 128a FCEEC77A 		vcvt.u32.f32	s15, s14
 3238              		.loc 1 2049 0
 3239 128e 0A1A     		subs	r2, r1, r0
 3240              		.loc 1 2046 0
 3241 1290 17EE903A 		vmov	r3, s15	@ int
 3242              	.LVL261:
 3243              		.loc 1 2049 0
 3244 1294 D21A     		subs	r2, r2, r3
 3245 1296 5208     		lsrs	r2, r2, #1
 3246              	.LVL262:
 3247              		.loc 1 2050 0
 3248 1298 1344     		add	r3, r3, r2
 3249              	.LVL263:
ARM GAS  /var/folders/sv/kgmgr77579zbf78p2zlhkdfr0000gn/T//ccXbx0Pt.s 			page 58


 3250              		.loc 1 2051 0
 3251 129a C118     		adds	r1, r0, r3
 3252              	.LVL264:
 3253 129c 31E4     		b	.L146
 3254              	.LVL265:
 3255              	.L213:
 3256              	.LBE175:
 3257              	.LBE182:
 3258              	.LBE189:
 3259              	.LBE198:
 3260              	.LBE212:
 3261              	.LBE244:
 3262              	.LBB245:
 3263              	.LBB227:
 3264              		.loc 1 2125 0
 3265 129e 93ED4D6A 		vldr.32	s12, [r3, #308]
 3266 12a2 DFF8B0B0 		ldr	fp, .L256+40
 3267 12a6 C6EE276A 		vdiv.f32	s13, s12, s15
 3268              		.loc 1 2126 0
 3269 12aa 0023     		movs	r3, #0
 3270 12ac 1360     		str	r3, [r2]	@ float
 3271              		.loc 1 2125 0
 3272 12ae 38EE477A 		vsub.f32	s14, s16, s14
 3273 12b2 67EE267A 		vmul.f32	s15, s14, s13
 3274 12b6 CBED007A 		vstr.32	s15, [fp]
 3275 12ba 87E7     		b	.L138
 3276              	.LVL266:
 3277              	.L202:
 3278              	.LBE227:
 3279              	.LBE245:
 3280              	.LBB246:
 3281              	.LBB213:
 3282              		.loc 1 1605 0
 3283 12bc D1ED197A 		vldr.32	s15, [r1, #100]
 3284              	.LVL267:
 3285 12c0 F1EE677A 		vneg.f32	s15, s15
 3286 12c4 CDED047A 		vstr.32	s15, [sp, #16]
 3287 12c8 FFF7D4B9 		b	.L71
 3288              	.LVL268:
 3289              	.L203:
 3290              	.LBE213:
 3291              		.loc 1 1610 0
 3292 12cc B5EE408A 		vcmp.f32	s16, #0
 3293 12d0 F1EE10FA 		vmrs	APSR_nzcv, FPSCR
 3294 12d4 08BF     		it	eq
 3295 12d6 F0EE477A 		vmoveq.f32	s15, s14
 3296 12da CDED047A 		vstr.32	s15, [sp, #16]
 3297 12de FFF7C9B9 		b	.L71
 3298              	.LVL269:
 3299              	.L242:
 3300              	.LBE246:
 3301              	.LBB247:
 3302              	.LBB228:
 3303              		.loc 1 2141 0
 3304 12e2 FFF7FEFF 		bl	encoder_index_found
 3305              	.LVL270:
 3306              		.loc 1 2142 0
ARM GAS  /var/folders/sv/kgmgr77579zbf78p2zlhkdfr0000gn/T//ccXbx0Pt.s 			page 59


 3307 12e6 3B68     		ldr	r3, [r7]
 3308              		.loc 1 2141 0
 3309 12e8 0028     		cmp	r0, #0
 3310 12ea 99D1     		bne	.L219
 3311              		.loc 1 2145 0
 3312 12ec D3ED197A 		vldr.32	s15, [r3, #100]
 3313 12f0 9FED157A 		vldr.32	s14, .L256+28
 3314 12f4 0F4B     		ldr	r3, .L256+8
 3315 12f6 67EE877A 		vmul.f32	s15, s15, s14
 3316 12fa C3ED007A 		vstr.32	s15, [r3]
 3317 12fe F4E4     		b	.L135
 3318              	.LVL271:
 3319              	.L231:
 3320              	.LBE228:
 3321              	.LBE247:
 3322              		.loc 1 1715 0
 3323 1300 FFF7FEFF 		bl	sqrtf
 3324              	.LVL272:
 3325 1304 B0EE407A 		vmov.f32	s14, s0
 3326 1308 FFF71EB8 		b	.L125
 3327              	.LVL273:
 3328              	.L161:
 3329              	.LBB248:
 3330              	.LBB214:
 3331              	.LBB199:
 3332              		.loc 1 1927 0
 3333 130c 9FED0F5A 		vldr.32	s10, .L256+32
 3334 1310 FFF79CBB 		b	.L105
 3335              	.LVL274:
 3336              	.L240:
 3337              		.loc 1 1915 0
 3338 1314 FFF7FEFF 		bl	sqrtf
 3339              	.LVL275:
 3340 1318 F0EE407A 		vmov.f32	s15, s0
 3341 131c FFF7F6BA 		b	.L96
 3342              	.L239:
 3343              		.loc 1 1914 0
 3344 1320 FFF7FEFF 		bl	sqrtf
 3345              	.LVL276:
 3346 1324 F0EE407A 		vmov.f32	s15, s0
 3347 1328 FFF7DABA 		b	.L95
 3348              	.L257:
 3349              		.align	2
 3350              	.L256:
 3351 132c 00000000 		.word	.LANCHOR36
 3352 1330 00000000 		.word	.LANCHOR38
 3353 1334 00000000 		.word	.LANCHOR11
 3354 1338 17B7D138 		.word	953267991
 3355 133c 00000000 		.word	.LANCHOR43
 3356 1340 3ACD133F 		.word	1058262330
 3357 1344 3ACD93BF 		.word	3214134586
 3358 1348 CDCCCC3E 		.word	1053609165
 3359 134c 00000000 		.word	0
 3360 1350 00000000 		.word	.LANCHOR37
 3361 1354 00000000 		.word	.LANCHOR39
 3362              	.LBE199:
 3363              	.LBE214:
ARM GAS  /var/folders/sv/kgmgr77579zbf78p2zlhkdfr0000gn/T//ccXbx0Pt.s 			page 60


 3364              	.LBE248:
 3365              		.cfi_endproc
 3366              	.LFE304:
 3367              		.size	mcpwm_foc_adc_int_handler, .-mcpwm_foc_adc_int_handler
 3368              		.section	.text.mcpwm_foc_init,"ax",%progbits
 3369              		.align	2
 3370              		.p2align 4,,15
 3371              		.global	mcpwm_foc_init
 3372              		.thumb
 3373              		.thumb_func
 3374              		.type	mcpwm_foc_init, %function
 3375              	mcpwm_foc_init:
 3376              	.LFB256:
 3377              		.loc 1 195 0
 3378              		.cfi_startproc
 3379              		@ args = 0, pretend = 0, frame = 152
 3380              		@ frame_needed = 0, uses_anonymous_args = 0
 3381              	.LVL277:
 3382 0000 2DE9F04F 		push	{r4, r5, r6, r7, r8, r9, r10, fp, lr}
 3383              		.cfi_def_cfa_offset 36
 3384              		.cfi_offset 4, -36
 3385              		.cfi_offset 5, -32
 3386              		.cfi_offset 6, -28
 3387              		.cfi_offset 7, -24
 3388              		.cfi_offset 8, -20
 3389              		.cfi_offset 9, -16
 3390              		.cfi_offset 10, -12
 3391              		.cfi_offset 11, -8
 3392              		.cfi_offset 14, -4
 3393 0004 A9B0     		sub	sp, sp, #164
 3394              		.cfi_def_cfa_offset 200
 3395              		.loc 1 195 0
 3396 0006 8146     		mov	r9, r0
 3397              		.loc 1 196 0
 3398 0008 FFF7FEFF 		bl	utils_sys_lock_cnt
 3399              	.LVL278:
 3400              		.loc 1 204 0
 3401 000c D04B     		ldr	r3, .L266
 3402              		.loc 1 208 0
 3403 000e DFF8D0A3 		ldr	r10, .L266+144
 3404              		.loc 1 204 0
 3405 0012 C3F80090 		str	r9, [r3]
 3406              		.loc 1 198 0
 3407 0016 CF4B     		ldr	r3, .L266+4
 3408              		.loc 1 209 0
 3409 0018 CF48     		ldr	r0, .L266+8
 3410              		.loc 1 212 0
 3411 001a DFF8C8B3 		ldr	fp, .L266+148
 3412              		.loc 1 215 0
 3413 001e DFEDCF7A 		vldr.32	s15, .L266+12
 3414              		.loc 1 214 0
 3415 0022 DFF8C483 		ldr	r8, .L266+152
 3416              		.loc 1 215 0
 3417 0026 DFF8C4C3 		ldr	ip, .L266+156
 3418              		.loc 1 216 0
 3419 002a DFF8C4E3 		ldr	lr, .L266+160
 3420              		.loc 1 217 0
ARM GAS  /var/folders/sv/kgmgr77579zbf78p2zlhkdfr0000gn/T//ccXbx0Pt.s 			page 61


 3421 002e CC4F     		ldr	r7, .L266+16
 3422              		.loc 1 218 0
 3423 0030 CC49     		ldr	r1, .L266+20
 3424              		.loc 1 219 0
 3425 0032 CD4A     		ldr	r2, .L266+24
 3426              		.loc 1 249 0
 3427 0034 CD4D     		ldr	r5, .L266+28
 3428              		.loc 1 250 0
 3429 0036 CE4E     		ldr	r6, .L266+32
 3430              		.loc 1 198 0
 3431 0038 0024     		movs	r4, #0
 3432 003a 1C70     		strb	r4, [r3]
 3433              		.loc 1 210 0
 3434 003c CD4B     		ldr	r3, .L266+36
 3435              		.loc 1 208 0
 3436 003e 8AF80040 		strb	r4, [r10]
 3437              		.loc 1 209 0
 3438 0042 4FF00709 		mov	r9, #7
 3439              	.LVL279:
 3440 0046 80F80090 		strb	r9, [r0]
 3441              		.loc 1 210 0
 3442 004a 1C60     		str	r4, [r3]
 3443              		.loc 1 211 0
 3444 004c CA4B     		ldr	r3, .L266+40
 3445              		.loc 1 227 0
 3446 004e CB48     		ldr	r0, .L266+44
 3447              		.loc 1 211 0
 3448 0050 1C60     		str	r4, [r3]
 3449              		.loc 1 213 0
 3450 0052 CB4B     		ldr	r3, .L266+48
 3451              		.loc 1 212 0
 3452 0054 CBF80040 		str	r4, [fp]
 3453              		.loc 1 213 0
 3454 0058 1C70     		strb	r4, [r3]
 3455              		.loc 1 220 0
 3456 005a CA4B     		ldr	r3, .L266+52
 3457              		.loc 1 214 0
 3458 005c 88F80040 		strb	r4, [r8]
 3459              		.loc 1 215 0
 3460 0060 CCED007A 		vstr.32	s15, [ip]
 3461              		.loc 1 216 0
 3462 0064 CEED007A 		vstr.32	s15, [lr]
 3463              		.loc 1 217 0
 3464 0068 C7ED007A 		vstr.32	s15, [r7]
 3465              		.loc 1 218 0
 3466 006c C1ED007A 		vstr.32	s15, [r1]
 3467              		.loc 1 219 0
 3468 0070 C2ED007A 		vstr.32	s15, [r2]
 3469              		.loc 1 220 0
 3470 0074 1C70     		strb	r4, [r3]
 3471              		.loc 1 221 0
 3472 0076 C44B     		ldr	r3, .L266+56
 3473              		.loc 1 225 0
 3474 0078 C44A     		ldr	r2, .L266+60
 3475              		.loc 1 221 0
 3476 007a C3ED007A 		vstr.32	s15, [r3]
 3477              		.loc 1 222 0
ARM GAS  /var/folders/sv/kgmgr77579zbf78p2zlhkdfr0000gn/T//ccXbx0Pt.s 			page 62


 3478 007e C44B     		ldr	r3, .L266+64
 3479              		.loc 1 235 0
 3480 0080 DFF870C3 		ldr	ip, .L266+164
 3481              		.loc 1 222 0
 3482 0084 C3ED007A 		vstr.32	s15, [r3]
 3483              		.loc 1 223 0
 3484 0088 C24B     		ldr	r3, .L266+68
 3485              		.loc 1 236 0
 3486 008a DFF86CE3 		ldr	lr, .L266+168
 3487              		.loc 1 223 0
 3488 008e C3ED007A 		vstr.32	s15, [r3]
 3489              		.loc 1 224 0
 3490 0092 C14B     		ldr	r3, .L266+72
 3491              		.loc 1 232 0
 3492 0094 DFF864A3 		ldr	r10, .L266+172
 3493              		.loc 1 224 0
 3494 0098 C3ED007A 		vstr.32	s15, [r3]
 3495              		.loc 1 225 0
 3496 009c 1470     		strb	r4, [r2]
 3497              		.loc 1 226 0
 3498 009e BF4A     		ldr	r2, .L266+76
 3499              		.loc 1 229 0
 3500 00a0 BF4B     		ldr	r3, .L266+80
 3501              		.loc 1 226 0
 3502 00a2 C2ED007A 		vstr.32	s15, [r2]
 3503              		.loc 1 227 0
 3504 00a6 C0ED007A 		vstr.32	s15, [r0]
 3505              		.loc 1 228 0
 3506 00aa BE48     		ldr	r0, .L266+84
 3507              		.loc 1 233 0
 3508 00ac DFF85093 		ldr	r9, .L266+176
 3509              		.loc 1 228 0
 3510 00b0 C0ED007A 		vstr.32	s15, [r0]
 3511              		.loc 1 229 0
 3512 00b4 C3ED007A 		vstr.32	s15, [r3]
 3513              		.loc 1 230 0
 3514 00b8 BB4B     		ldr	r3, .L266+88
 3515              		.loc 1 234 0
 3516 00ba DFF84883 		ldr	r8, .L266+180
 3517              		.loc 1 230 0
 3518 00be C3ED007A 		vstr.32	s15, [r3]
 3519              		.loc 1 231 0
 3520 00c2 BA4B     		ldr	r3, .L266+92
 3521              		.loc 1 237 0
 3522 00c4 BA4F     		ldr	r7, .L266+96
 3523              		.loc 1 231 0
 3524 00c6 C3ED007A 		vstr.32	s15, [r3]
 3525              		.loc 1 238 0
 3526 00ca BA4B     		ldr	r3, .L266+100
 3527              		.loc 1 239 0
 3528 00cc BA48     		ldr	r0, .L266+104
 3529              		.loc 1 232 0
 3530 00ce CAF80040 		str	r4, [r10]
 3531              		.loc 1 239 0
 3532 00d2 2146     		mov	r1, r4
 3533 00d4 6022     		movs	r2, #96
 3534              		.loc 1 233 0
ARM GAS  /var/folders/sv/kgmgr77579zbf78p2zlhkdfr0000gn/T//ccXbx0Pt.s 			page 63


 3535 00d6 C9F80040 		str	r4, [r9]
 3536              		.loc 1 234 0
 3537 00da C8ED007A 		vstr.32	s15, [r8]
 3538              		.loc 1 235 0
 3539 00de CCED007A 		vstr.32	s15, [ip]
 3540              		.loc 1 236 0
 3541 00e2 CEED007A 		vstr.32	s15, [lr]
 3542              		.loc 1 237 0
 3543 00e6 3C70     		strb	r4, [r7]
 3544              		.loc 1 238 0
 3545 00e8 C3ED007A 		vstr.32	s15, [r3]
 3546              		.loc 1 239 0
 3547 00ec FFF7FEFF 		bl	memset
 3548              	.LVL280:
 3549              		.loc 1 240 0
 3550 00f0 B24B     		ldr	r3, .L266+108
 3551              		.loc 1 249 0
 3552 00f2 2846     		mov	r0, r5
 3553              		.loc 1 240 0
 3554 00f4 1C60     		str	r4, [r3]
 3555 00f6 5C60     		str	r4, [r3, #4]
 3556 00f8 9C60     		str	r4, [r3, #8]
 3557 00fa DC60     		str	r4, [r3, #12]
 3558 00fc 1C61     		str	r4, [r3, #16]
 3559              		.loc 1 249 0
 3560 00fe FFF7FEFF 		bl	TIM_DeInit
 3561              	.LVL281:
 3562              		.loc 1 250 0
 3563 0102 3046     		mov	r0, r6
 3564 0104 FFF7FEFF 		bl	TIM_DeInit
 3565              	.LVL282:
 3566              		.loc 1 255 0
 3567 0108 0121     		movs	r1, #1
 3568              		.loc 1 251 0
 3569 010a 6C62     		str	r4, [r5, #36]
 3570              		.loc 1 255 0
 3571 010c 0846     		mov	r0, r1
 3572              		.loc 1 252 0
 3573 010e 7462     		str	r4, [r6, #36]
 3574              		.loc 1 255 0
 3575 0110 FFF7FEFF 		bl	RCC_APB2PeriphClockCmd
 3576              	.LVL283:
 3577              		.loc 1 260 0
 3578 0114 8E4B     		ldr	r3, .L266
 3579 0116 AA4A     		ldr	r2, .L266+112
 3580 0118 1B68     		ldr	r3, [r3]
 3581              		.loc 1 258 0
 3582 011a ADF80C40 		strh	r4, [sp, #12]	@ movhi
 3583              		.loc 1 260 0
 3584 011e D3ED2B7A 		vldr.32	s15, [r3, #172]
 3585              		.loc 1 261 0
 3586 0122 ADF81440 		strh	r4, [sp, #20]	@ movhi
 3587              		.loc 1 260 0
 3588 0126 FDEEE77A 		vcvt.s32.f32	s15, s15
 3589              		.loc 1 264 0
 3590 012a 2846     		mov	r0, r5
 3591              		.loc 1 260 0
ARM GAS  /var/folders/sv/kgmgr77579zbf78p2zlhkdfr0000gn/T//ccXbx0Pt.s 			page 64


 3592 012c 17EE903A 		vmov	r3, s15	@ int
 3593              		.loc 1 264 0
 3594 0130 03A9     		add	r1, sp, #12
 3595              		.loc 1 259 0
 3596 0132 4FF02007 		mov	r7, #32	@ movhi
 3597              		.loc 1 260 0
 3598 0136 92FBF3F3 		sdiv	r3, r2, r3
 3599              		.loc 1 262 0
 3600 013a 8DF81640 		strb	r4, [sp, #22]
 3601              		.loc 1 259 0
 3602 013e ADF80E70 		strh	r7, [sp, #14]	@ movhi
 3603              		.loc 1 260 0
 3604 0142 0493     		str	r3, [sp, #16]
 3605              		.loc 1 264 0
 3606 0144 FFF7FEFF 		bl	TIM_TimeBaseInit
 3607              	.LVL284:
 3608              		.loc 1 270 0
 3609 0148 EB6A     		ldr	r3, [r5, #44]
 3610              		.loc 1 271 0
 3611 014a ADF84440 		strh	r4, [sp, #68]	@ movhi
 3612              		.loc 1 270 0
 3613 014e 5B08     		lsrs	r3, r3, #1
 3614              		.loc 1 268 0
 3615 0150 0127     		movs	r7, #1
 3616              		.loc 1 267 0
 3617 0152 4FF06002 		mov	r2, #96	@ movhi
 3618              		.loc 1 276 0
 3619 0156 2846     		mov	r0, r5
 3620              		.loc 1 269 0
 3621 0158 4FF00409 		mov	r9, #4
 3622              		.loc 1 273 0
 3623 015c 4FF4807A 		mov	r10, #256
 3624              		.loc 1 276 0
 3625 0160 0EA9     		add	r1, sp, #56
 3626              		.loc 1 270 0
 3627 0162 1093     		str	r3, [sp, #64]
 3628              		.loc 1 274 0
 3629 0164 4FF40073 		mov	r3, #512	@ movhi
 3630              		.loc 1 267 0
 3631 0168 ADF83820 		strh	r2, [sp, #56]	@ movhi
 3632              		.loc 1 274 0
 3633 016c ADF84A30 		strh	r3, [sp, #74]	@ movhi
 3634              		.loc 1 272 0
 3635 0170 ADF84640 		strh	r4, [sp, #70]	@ movhi
 3636              		.loc 1 268 0
 3637 0174 ADF83A70 		strh	r7, [sp, #58]	@ movhi
 3638              		.loc 1 269 0
 3639 0178 ADF83C90 		strh	r9, [sp, #60]	@ movhi
 3640              		.loc 1 273 0
 3641 017c ADF848A0 		strh	r10, [sp, #72]	@ movhi
 3642              		.loc 1 276 0
 3643 0180 FFF7FEFF 		bl	TIM_OC1Init
 3644              	.LVL285:
 3645              		.loc 1 277 0
 3646 0184 2846     		mov	r0, r5
 3647 0186 0EA9     		add	r1, sp, #56
 3648 0188 FFF7FEFF 		bl	TIM_OC2Init
ARM GAS  /var/folders/sv/kgmgr77579zbf78p2zlhkdfr0000gn/T//ccXbx0Pt.s 			page 65


 3649              	.LVL286:
 3650              		.loc 1 278 0
 3651 018c 2846     		mov	r0, r5
 3652 018e 0EA9     		add	r1, sp, #56
 3653 0190 FFF7FEFF 		bl	TIM_OC3Init
 3654              	.LVL287:
 3655              		.loc 1 279 0
 3656 0194 2846     		mov	r0, r5
 3657 0196 0EA9     		add	r1, sp, #56
 3658 0198 FFF7FEFF 		bl	TIM_OC4Init
 3659              	.LVL288:
 3660              		.loc 1 281 0
 3661 019c 2846     		mov	r0, r5
 3662 019e 0821     		movs	r1, #8
 3663 01a0 FFF7FEFF 		bl	TIM_OC1PreloadConfig
 3664              	.LVL289:
 3665              		.loc 1 282 0
 3666 01a4 2846     		mov	r0, r5
 3667 01a6 0821     		movs	r1, #8
 3668 01a8 FFF7FEFF 		bl	TIM_OC2PreloadConfig
 3669              	.LVL290:
 3670              		.loc 1 283 0
 3671 01ac 2846     		mov	r0, r5
 3672 01ae 0821     		movs	r1, #8
 3673 01b0 FFF7FEFF 		bl	TIM_OC3PreloadConfig
 3674              	.LVL291:
 3675              		.loc 1 284 0
 3676 01b4 2846     		mov	r0, r5
 3677 01b6 0821     		movs	r1, #8
 3678 01b8 FFF7FEFF 		bl	TIM_OC4PreloadConfig
 3679              	.LVL292:
 3680              		.loc 1 290 0
 3681 01bc 3C23     		movs	r3, #60
 3682              		.loc 1 287 0
 3683 01be 4FF40062 		mov	r2, #2048	@ movhi
 3684              		.loc 1 295 0
 3685 01c2 2846     		mov	r0, r5
 3686              		.loc 1 288 0
 3687 01c4 4FF48068 		mov	r8, #1024
 3688              		.loc 1 295 0
 3689 01c8 06A9     		add	r1, sp, #24
 3690              		.loc 1 290 0
 3691 01ca ADF81E30 		strh	r3, [sp, #30]	@ movhi
 3692              		.loc 1 292 0
 3693 01ce 4FF40053 		mov	r3, #8192	@ movhi
 3694              		.loc 1 287 0
 3695 01d2 ADF81820 		strh	r2, [sp, #24]	@ movhi
 3696              		.loc 1 292 0
 3697 01d6 ADF82230 		strh	r3, [sp, #34]	@ movhi
 3698              		.loc 1 289 0
 3699 01da ADF81C40 		strh	r4, [sp, #28]	@ movhi
 3700              		.loc 1 291 0
 3701 01de ADF82040 		strh	r4, [sp, #32]	@ movhi
 3702              		.loc 1 293 0
 3703 01e2 ADF82440 		strh	r4, [sp, #36]	@ movhi
 3704              		.loc 1 288 0
 3705 01e6 ADF81A80 		strh	r8, [sp, #26]	@ movhi
ARM GAS  /var/folders/sv/kgmgr77579zbf78p2zlhkdfr0000gn/T//ccXbx0Pt.s 			page 66


 3706              		.loc 1 295 0
 3707 01ea FFF7FEFF 		bl	TIM_BDTRConfig
 3708              	.LVL293:
 3709              		.loc 1 296 0
 3710 01ee 2846     		mov	r0, r5
 3711 01f0 3946     		mov	r1, r7
 3712 01f2 FFF7FEFF 		bl	TIM_CCPreloadControl
 3713              	.LVL294:
 3714              		.loc 1 297 0
 3715 01f6 2846     		mov	r0, r5
 3716 01f8 3946     		mov	r1, r7
 3717 01fa FFF7FEFF 		bl	TIM_ARRPreloadConfig
 3718              	.LVL295:
 3719              		.loc 1 307 0
 3720 01fe 3946     		mov	r1, r7
 3721 0200 7048     		ldr	r0, .L266+116
 3722 0202 FFF7FEFF 		bl	RCC_AHB1PeriphClockCmd
 3723              	.LVL296:
 3724              		.loc 1 308 0
 3725 0206 3946     		mov	r1, r7
 3726 0208 4FF4E060 		mov	r0, #1792
 3727 020c FFF7FEFF 		bl	RCC_APB2PeriphClockCmd
 3728              	.LVL297:
 3729              		.loc 1 310 0
 3730 0210 2346     		mov	r3, r4
 3731 0212 6D4A     		ldr	r2, .L266+120
 3732 0214 6D48     		ldr	r0, .L266+124
 3733 0216 0321     		movs	r1, #3
 3734 0218 FFF7FEFF 		bl	dmaStreamAllocate
 3735              	.LVL298:
 3736              		.loc 1 323 0
 3737 021c 4FF40063 		mov	r3, #2048
 3738 0220 2093     		str	r3, [sp, #128]
 3739              		.loc 1 324 0
 3740 0222 4FF40053 		mov	r3, #8192
 3741              		.loc 1 317 0
 3742 0226 DFF8E0C1 		ldr	ip, .L266+184
 3743              		.loc 1 318 0
 3744 022a DFF8E0E1 		ldr	lr, .L266+188
 3745              		.loc 1 331 0
 3746 022e 6848     		ldr	r0, .L266+128
 3747              		.loc 1 324 0
 3748 0230 2193     		str	r3, [sp, #132]
 3749              		.loc 1 320 0
 3750 0232 0C22     		movs	r2, #12
 3751              		.loc 1 326 0
 3752 0234 4FF40033 		mov	r3, #131072
 3753              		.loc 1 331 0
 3754 0238 19A9     		add	r1, sp, #100
 3755              		.loc 1 317 0
 3756 023a CDF86CC0 		str	ip, [sp, #108]
 3757              		.loc 1 318 0
 3758 023e CDF868E0 		str	lr, [sp, #104]
 3759              		.loc 1 326 0
 3760 0242 2393     		str	r3, [sp, #140]
 3761              		.loc 1 320 0
 3762 0244 1D92     		str	r2, [sp, #116]
ARM GAS  /var/folders/sv/kgmgr77579zbf78p2zlhkdfr0000gn/T//ccXbx0Pt.s 			page 67


 3763              		.loc 1 316 0
 3764 0246 1994     		str	r4, [sp, #100]
 3765              		.loc 1 319 0
 3766 0248 1C94     		str	r4, [sp, #112]
 3767              		.loc 1 321 0
 3768 024a 1E94     		str	r4, [sp, #120]
 3769              		.loc 1 327 0
 3770 024c 2494     		str	r4, [sp, #144]
 3771              		.loc 1 328 0
 3772 024e 2594     		str	r4, [sp, #148]
 3773              		.loc 1 329 0
 3774 0250 2694     		str	r4, [sp, #152]
 3775              		.loc 1 330 0
 3776 0252 2794     		str	r4, [sp, #156]
 3777              		.loc 1 322 0
 3778 0254 CDF87C80 		str	r8, [sp, #124]
 3779              		.loc 1 325 0
 3780 0258 CDF888A0 		str	r10, [sp, #136]
 3781              		.loc 1 331 0
 3782 025c FFF7FEFF 		bl	DMA_Init
 3783              	.LVL299:
 3784              		.loc 1 334 0
 3785 0260 3946     		mov	r1, r7
 3786 0262 5B48     		ldr	r0, .L266+128
 3787 0264 FFF7FEFF 		bl	DMA_Cmd
 3788              	.LVL300:
 3789              		.loc 1 337 0
 3790 0268 1021     		movs	r1, #16
 3791 026a 3A46     		mov	r2, r7
 3792 026c 5848     		ldr	r0, .L266+128
 3793 026e FFF7FEFF 		bl	DMA_ITConfig
 3794              	.LVL301:
 3795              		.loc 1 342 0
 3796 0272 1622     		movs	r2, #22
 3797              		.loc 1 344 0
 3798 0274 4FF48043 		mov	r3, #16384
 3799              		.loc 1 346 0
 3800 0278 0AA8     		add	r0, sp, #40
 3801              		.loc 1 343 0
 3802 027a 0B94     		str	r4, [sp, #44]
 3803              		.loc 1 345 0
 3804 027c 0D94     		str	r4, [sp, #52]
 3805              		.loc 1 342 0
 3806 027e 0A92     		str	r2, [sp, #40]
 3807              		.loc 1 344 0
 3808 0280 0C93     		str	r3, [sp, #48]
 3809              		.loc 1 346 0
 3810 0282 FFF7FEFF 		bl	ADC_CommonInit
 3811              	.LVL302:
 3812              		.loc 1 352 0
 3813 0286 4FF00052 		mov	r2, #536870912
 3814              		.loc 1 353 0
 3815 028a 4FF05063 		mov	r3, #218103808
 3816              		.loc 1 357 0
 3817 028e 13A9     		add	r1, sp, #76
 3818 0290 5048     		ldr	r0, .L266+132
 3819              		.loc 1 352 0
ARM GAS  /var/folders/sv/kgmgr77579zbf78p2zlhkdfr0000gn/T//ccXbx0Pt.s 			page 68


 3820 0292 1592     		str	r2, [sp, #84]
 3821              		.loc 1 353 0
 3822 0294 1693     		str	r3, [sp, #88]
 3823              		.loc 1 349 0
 3824 0296 1394     		str	r4, [sp, #76]
 3825              		.loc 1 351 0
 3826 0298 8DF85140 		strb	r4, [sp, #81]
 3827              		.loc 1 354 0
 3828 029c 1794     		str	r4, [sp, #92]
 3829              		.loc 1 350 0
 3830 029e 8DF85070 		strb	r7, [sp, #80]
 3831              		.loc 1 355 0
 3832 02a2 8DF86090 		strb	r9, [sp, #96]
 3833              		.loc 1 357 0
 3834 02a6 FFF7FEFF 		bl	ADC_Init
 3835              	.LVL303:
 3836              		.loc 1 360 0
 3837 02aa 13A9     		add	r1, sp, #76
 3838 02ac 4A48     		ldr	r0, .L266+136
 3839              		.loc 1 358 0
 3840 02ae 1594     		str	r4, [sp, #84]
 3841              		.loc 1 359 0
 3842 02b0 1694     		str	r4, [sp, #88]
 3843              		.loc 1 360 0
 3844 02b2 FFF7FEFF 		bl	ADC_Init
 3845              	.LVL304:
 3846              		.loc 1 361 0
 3847 02b6 13A9     		add	r1, sp, #76
 3848 02b8 4848     		ldr	r0, .L266+140
 3849 02ba FFF7FEFF 		bl	ADC_Init
 3850              	.LVL305:
 3851              		.loc 1 364 0
 3852 02be 3846     		mov	r0, r7
 3853 02c0 FFF7FEFF 		bl	ADC_TempSensorVrefintCmd
 3854              	.LVL306:
 3855              		.loc 1 367 0
 3856 02c4 3846     		mov	r0, r7
 3857 02c6 FFF7FEFF 		bl	ADC_MultiModeDMARequestAfterLastTransferCmd
 3858              	.LVL307:
 3859              		.loc 1 369 0
 3860 02ca FFF7FEFF 		bl	hw_setup_adc_channels
 3861              	.LVL308:
 3862              		.loc 1 372 0
 3863 02ce 3946     		mov	r1, r7
 3864 02d0 4048     		ldr	r0, .L266+132
 3865 02d2 FFF7FEFF 		bl	ADC_Cmd
 3866              	.LVL309:
 3867              		.loc 1 375 0
 3868 02d6 3946     		mov	r1, r7
 3869 02d8 3F48     		ldr	r0, .L266+136
 3870 02da FFF7FEFF 		bl	ADC_Cmd
 3871              	.LVL310:
 3872              		.loc 1 378 0
 3873 02de 3946     		mov	r1, r7
 3874 02e0 3E48     		ldr	r0, .L266+140
 3875 02e2 FFF7FEFF 		bl	ADC_Cmd
 3876              	.LVL311:
ARM GAS  /var/folders/sv/kgmgr77579zbf78p2zlhkdfr0000gn/T//ccXbx0Pt.s 			page 69


 3877              		.loc 1 382 0
 3878 02e6 3946     		mov	r1, r7
 3879 02e8 0220     		movs	r0, #2
 3880 02ea FFF7FEFF 		bl	RCC_APB2PeriphClockCmd
 3881              	.LVL312:
 3882              		.loc 1 386 0
 3883 02ee 4FF6FF73 		movw	r3, #65535
 3884              		.loc 1 389 0
 3885 02f2 03A9     		add	r1, sp, #12
 3886 02f4 3046     		mov	r0, r6
 3887              		.loc 1 384 0
 3888 02f6 ADF80C40 		strh	r4, [sp, #12]	@ movhi
 3889              		.loc 1 385 0
 3890 02fa ADF80E40 		strh	r4, [sp, #14]	@ movhi
 3891              		.loc 1 387 0
 3892 02fe ADF81440 		strh	r4, [sp, #20]	@ movhi
 3893              		.loc 1 388 0
 3894 0302 8DF81640 		strb	r4, [sp, #22]
 3895              		.loc 1 386 0
 3896 0306 0493     		str	r3, [sp, #16]
 3897              		.loc 1 389 0
 3898 0308 FFF7FEFF 		bl	TIM_TimeBaseInit
 3899              	.LVL313:
 3900              		.loc 1 391 0
 3901 030c 4FF06002 		mov	r2, #96	@ movhi
 3902              		.loc 1 393 0
 3903 0310 4FF4FA73 		mov	r3, #500
 3904              		.loc 1 398 0
 3905 0314 0EA9     		add	r1, sp, #56
 3906 0316 3046     		mov	r0, r6
 3907              		.loc 1 391 0
 3908 0318 ADF83820 		strh	r2, [sp, #56]	@ movhi
 3909              		.loc 1 397 0
 3910 031c 4FF40072 		mov	r2, #512	@ movhi
 3911              		.loc 1 393 0
 3912 0320 1093     		str	r3, [sp, #64]
 3913              		.loc 1 397 0
 3914 0322 ADF84A20 		strh	r2, [sp, #74]	@ movhi
 3915              		.loc 1 394 0
 3916 0326 ADF84440 		strh	r4, [sp, #68]	@ movhi
 3917              		.loc 1 395 0
 3918 032a ADF84640 		strh	r4, [sp, #70]	@ movhi
 3919              		.loc 1 392 0
 3920 032e ADF83A70 		strh	r7, [sp, #58]	@ movhi
 3921              		.loc 1 396 0
 3922 0332 ADF848A0 		strh	r10, [sp, #72]	@ movhi
 3923              		.loc 1 398 0
 3924 0336 FFF7FEFF 		bl	TIM_OC1Init
 3925              	.LVL314:
 3926              		.loc 1 399 0
 3927 033a 3046     		mov	r0, r6
 3928 033c 0821     		movs	r1, #8
 3929 033e FFF7FEFF 		bl	TIM_OC1PreloadConfig
 3930              	.LVL315:
 3931              		.loc 1 400 0
 3932 0342 0EA9     		add	r1, sp, #56
 3933 0344 3046     		mov	r0, r6
ARM GAS  /var/folders/sv/kgmgr77579zbf78p2zlhkdfr0000gn/T//ccXbx0Pt.s 			page 70


 3934 0346 FFF7FEFF 		bl	TIM_OC2Init
 3935              	.LVL316:
 3936              		.loc 1 401 0
 3937 034a 3046     		mov	r0, r6
 3938 034c 0821     		movs	r1, #8
 3939 034e 5FE0     		b	.L267
 3940              	.L268:
 3941              		.align	2
 3942              	.L266:
 3943 0350 00000000 		.word	.LANCHOR10
 3944 0354 00000000 		.word	.LANCHOR45
 3945 0358 00000000 		.word	.LANCHOR5
 3946 035c 00000000 		.word	0
 3947 0360 00000000 		.word	.LANCHOR21
 3948 0364 00000000 		.word	.LANCHOR11
 3949 0368 00000000 		.word	.LANCHOR26
 3950 036c 00000140 		.word	1073807360
 3951 0370 00040140 		.word	1073808384
 3952 0374 00000000 		.word	.LANCHOR12
 3953 0378 00000000 		.word	.LANCHOR13
 3954 037c 00000000 		.word	.LANCHOR50
 3955 0380 00000000 		.word	.LANCHOR46
 3956 0384 00000000 		.word	.LANCHOR0
 3957 0388 00000000 		.word	.LANCHOR35
 3958 038c 00000000 		.word	.LANCHOR49
 3959 0390 00000000 		.word	.LANCHOR9
 3960 0394 00000000 		.word	.LANCHOR47
 3961 0398 00000000 		.word	.LANCHOR48
 3962 039c 00000000 		.word	.LANCHOR19
 3963 03a0 00000000 		.word	.LANCHOR52
 3964 03a4 00000000 		.word	.LANCHOR51
 3965 03a8 00000000 		.word	.LANCHOR33
 3966 03ac 00000000 		.word	.LANCHOR8
 3967 03b0 00000000 		.word	.LANCHOR29
 3968 03b4 00000000 		.word	.LANCHOR30
 3969 03b8 00000000 		.word	.LANCHOR3
 3970 03bc 00000000 		.word	.LANCHOR4
 3971 03c0 007A030A 		.word	168000000
 3972 03c4 05004000 		.word	4194309
 3973 03c8 00000000 		.word	mcpwm_foc_adc_int_handler
 3974 03cc 90000000 		.word	_stm32_dma_streams+144
 3975 03d0 70640240 		.word	1073898608
 3976 03d4 00200140 		.word	1073815552
 3977 03d8 00210140 		.word	1073815808
 3978 03dc 00220140 		.word	1073816064
 3979 03e0 00000000 		.word	.LANCHOR2
 3980 03e4 00000000 		.word	.LANCHOR16
 3981 03e8 00000000 		.word	.LANCHOR25
 3982 03ec 00000000 		.word	.LANCHOR28
 3983 03f0 00000000 		.word	.LANCHOR23
 3984 03f4 00000000 		.word	.LANCHOR31
 3985 03f8 00000000 		.word	.LANCHOR55
 3986 03fc 00000000 		.word	.LANCHOR53
 3987 0400 00000000 		.word	.LANCHOR54
 3988 0404 00000000 		.word	.LANCHOR44
 3989 0408 00000000 		.word	ADC_Value
 3990 040c 08230140 		.word	1073816328
ARM GAS  /var/folders/sv/kgmgr77579zbf78p2zlhkdfr0000gn/T//ccXbx0Pt.s 			page 71


 3991              	.L267:
 3992 0410 FFF7FEFF 		bl	TIM_OC2PreloadConfig
 3993              	.LVL317:
 3994              		.loc 1 402 0
 3995 0414 0EA9     		add	r1, sp, #56
 3996 0416 3046     		mov	r0, r6
 3997 0418 FFF7FEFF 		bl	TIM_OC3Init
 3998              	.LVL318:
 3999              		.loc 1 403 0
 4000 041c 3046     		mov	r0, r6
 4001 041e 0821     		movs	r1, #8
 4002 0420 FFF7FEFF 		bl	TIM_OC3PreloadConfig
 4003              	.LVL319:
 4004              		.loc 1 405 0
 4005 0424 3946     		mov	r1, r7
 4006 0426 3046     		mov	r0, r6
 4007 0428 FFF7FEFF 		bl	TIM_ARRPreloadConfig
 4008              	.LVL320:
 4009              		.loc 1 406 0
 4010 042c 3946     		mov	r1, r7
 4011 042e 3046     		mov	r0, r6
 4012 0430 FFF7FEFF 		bl	TIM_CCPreloadControl
 4013              	.LVL321:
 4014              		.loc 1 409 0
 4015 0434 3946     		mov	r1, r7
 4016 0436 3046     		mov	r0, r6
 4017 0438 FFF7FEFF 		bl	TIM_CtrlPWMOutputs
 4018              	.LVL322:
 4019              		.loc 1 412 0
 4020 043c 2846     		mov	r0, r5
 4021 043e 2021     		movs	r1, #32
 4022 0440 FFF7FEFF 		bl	TIM_SelectOutputTrigger
 4023              	.LVL323:
 4024              		.loc 1 413 0
 4025 0444 2846     		mov	r0, r5
 4026 0446 8021     		movs	r1, #128
 4027 0448 FFF7FEFF 		bl	TIM_SelectMasterSlaveMode
 4028              	.LVL324:
 4029              		.loc 1 414 0
 4030 044c 2146     		mov	r1, r4
 4031 044e 3046     		mov	r0, r6
 4032 0450 FFF7FEFF 		bl	TIM_SelectInputTrigger
 4033              	.LVL325:
 4034              		.loc 1 415 0
 4035 0454 4946     		mov	r1, r9
 4036 0456 3046     		mov	r0, r6
 4037 0458 FFF7FEFF 		bl	TIM_SelectSlaveMode
 4038              	.LVL326:
 4039              		.loc 1 418 0
 4040 045c 2846     		mov	r0, r5
 4041 045e 3946     		mov	r1, r7
 4042 0460 FFF7FEFF 		bl	TIM_Cmd
 4043              	.LVL327:
 4044              		.loc 1 419 0
 4045 0464 3946     		mov	r1, r7
 4046 0466 3046     		mov	r0, r6
 4047 0468 FFF7FEFF 		bl	TIM_Cmd
ARM GAS  /var/folders/sv/kgmgr77579zbf78p2zlhkdfr0000gn/T//ccXbx0Pt.s 			page 72


 4048              	.LVL328:
 4049              		.loc 1 422 0
 4050 046c 2846     		mov	r0, r5
 4051 046e 3946     		mov	r1, r7
 4052 0470 FFF7FEFF 		bl	TIM_CtrlPWMOutputs
 4053              	.LVL329:
 4054              		.loc 1 425 0
 4055 0474 FFF7FEFF 		bl	stop_pwm_hw
 4056              	.LVL330:
 4057              		.loc 1 429 0
 4058 0478 0221     		movs	r1, #2
 4059              		.loc 1 432 0
 4060 047a 3A46     		mov	r2, r7
 4061              		.loc 1 429 0
 4062 047c 7163     		str	r1, [r6, #52]
 4063              		.loc 1 432 0
 4064 047e 3046     		mov	r0, r6
 4065 0480 FFF7FEFF 		bl	TIM_ITConfig
 4066              	.LVL331:
 4067              		.loc 1 433 0
 4068 0484 0621     		movs	r1, #6
 4069 0486 2E20     		movs	r0, #46
 4070 0488 FFF7FEFF 		bl	nvicEnableVector
 4071              	.LVL332:
 4072              		.loc 1 438 0
 4073 048c 05F58435 		add	r5, r5, #67584
 4074              		.loc 1 435 0
 4075 0490 FFF7FEFF 		bl	utils_sys_unlock_cnt
 4076              	.LVL333:
 4077              		.loc 1 439 0
 4078 0494 364B     		ldr	r3, .L269
 4079              		.loc 1 438 0
 4080 0496 A5F81880 		strh	r8, [r5, #24]	@ movhi
 4081              		.loc 1 439 0
 4082 049a 4FF48052 		mov	r2, #4096
 4083 049e 5A83     		strh	r2, [r3, #26]	@ movhi
 4084              	.LBB251:
 4085              	.LBB252:
 4086              		.loc 1 1787 0
 4087 04a0 41F28934 		movw	r4, #5001
 4088 04a4 1A83     		strh	r2, [r3, #24]	@ movhi
 4089              	.LVL334:
 4090 04a6 03E0     		b	.L259
 4091              	.LVL335:
 4092              	.L261:
 4093              		.loc 1 1792 0
 4094 04a8 FFF7FEFF 		bl	chThdSleep
 4095              	.LVL336:
 4096              		.loc 1 1794 0
 4097 04ac 013C     		subs	r4, r4, #1
 4098              	.LVL337:
 4099 04ae 04D0     		beq	.L262
 4100              	.LVL338:
 4101              	.L259:
 4102              		.loc 1 1791 0
 4103 04b0 2B69     		ldr	r3, [r5, #16]
 4104 04b2 DB04     		lsls	r3, r3, #19
ARM GAS  /var/folders/sv/kgmgr77579zbf78p2zlhkdfr0000gn/T//ccXbx0Pt.s 			page 73


 4105              		.loc 1 1792 0
 4106 04b4 4FF00A00 		mov	r0, #10
 4107              		.loc 1 1791 0
 4108 04b8 F6D5     		bpl	.L261
 4109              	.LVL339:
 4110              	.L262:
 4111              		.loc 1 1799 0
 4112 04ba 42F21070 		movw	r0, #10000
 4113 04be FFF7FEFF 		bl	chThdSleep
 4114              	.LVL340:
 4115              		.loc 1 1800 0
 4116 04c2 2C4A     		ldr	r2, .L269+4
 4117 04c4 0023     		movs	r3, #0
 4118 04c6 1360     		str	r3, [r2]
 4119              		.loc 1 1801 0
 4120 04c8 2B4A     		ldr	r2, .L269+8
 4121 04ca 1360     		str	r3, [r2]
 4122              		.loc 1 1805 0
 4123 04cc CBF80030 		str	r3, [fp]
 4124              	.L260:
 4125              		.loc 1 1806 0
 4126 04d0 DBF80030 		ldr	r3, [fp]
 4127 04d4 294A     		ldr	r2, .L269+12
 4128 04d6 B3F57A6F 		cmp	r3, #4000
 4129 04da F9DB     		blt	.L260
 4130              		.loc 1 1807 0
 4131 04dc 2848     		ldr	r0, .L269+16
 4132 04de 254B     		ldr	r3, .L269+4
 4133 04e0 1B68     		ldr	r3, [r3]
 4134 04e2 1168     		ldr	r1, [r2]
 4135 04e4 93FBF1F3 		sdiv	r3, r3, r1
 4136              		.loc 1 1808 0
 4137 04e8 2649     		ldr	r1, .L269+20
 4138              		.loc 1 1807 0
 4139 04ea 0360     		str	r3, [r0]
 4140              		.loc 1 1808 0
 4141 04ec 224B     		ldr	r3, .L269+8
 4142              		.loc 1 1812 0
 4143 04ee 2048     		ldr	r0, .L269
 4144              		.loc 1 1808 0
 4145 04f0 1B68     		ldr	r3, [r3]
 4146 04f2 1268     		ldr	r2, [r2]
 4147 04f4 93FBF2F3 		sdiv	r3, r3, r2
 4148              		.loc 1 1813 0
 4149 04f8 0124     		movs	r4, #1
 4150              		.loc 1 1808 0
 4151 04fa 0B60     		str	r3, [r1]
 4152              		.loc 1 1812 0
 4153 04fc 4FF48052 		mov	r2, #4096
 4154              		.loc 1 1813 0
 4155 0500 214B     		ldr	r3, .L269+24
 4156              		.loc 1 1812 0
 4157 0502 4283     		strh	r2, [r0, #26]	@ movhi
 4158              	.LBE252:
 4159              	.LBE251:
 4160              		.loc 1 443 0
 4161 0504 2146     		mov	r1, r4
ARM GAS  /var/folders/sv/kgmgr77579zbf78p2zlhkdfr0000gn/T//ccXbx0Pt.s 			page 74


 4162 0506 4020     		movs	r0, #64
 4163              		.loc 1 448 0
 4164 0508 0025     		movs	r5, #0
 4165              	.LBB254:
 4166              	.LBB253:
 4167              		.loc 1 1813 0
 4168 050a 1C70     		strb	r4, [r3]
 4169              	.LBE253:
 4170              	.LBE254:
 4171              		.loc 1 443 0
 4172 050c FFF7FEFF 		bl	RCC_APB1PeriphClockCmd
 4173              	.LVL341:
 4174              		.loc 1 446 0
 4175 0510 4FF0FF32 		mov	r2, #-1
 4176              		.loc 1 447 0
 4177 0514 0723     		movs	r3, #7
 4178              		.loc 1 450 0
 4179 0516 03A9     		add	r1, sp, #12
 4180 0518 1C48     		ldr	r0, .L269+28
 4181              		.loc 1 446 0
 4182 051a 0492     		str	r2, [sp, #16]
 4183              		.loc 1 447 0
 4184 051c ADF80C30 		strh	r3, [sp, #12]	@ movhi
 4185              		.loc 1 448 0
 4186 0520 ADF81450 		strh	r5, [sp, #20]	@ movhi
 4187              		.loc 1 449 0
 4188 0524 ADF80E50 		strh	r5, [sp, #14]	@ movhi
 4189              		.loc 1 450 0
 4190 0528 FFF7FEFF 		bl	TIM_TimeBaseInit
 4191              	.LVL342:
 4192              		.loc 1 452 0
 4193 052c 2146     		mov	r1, r4
 4194 052e 1748     		ldr	r0, .L269+28
 4195 0530 FFF7FEFF 		bl	TIM_Cmd
 4196              	.LVL343:
 4197              		.loc 1 455 0
 4198 0534 164A     		ldr	r2, .L269+32
 4199              		.loc 1 456 0
 4200 0536 174B     		ldr	r3, .L269+36
 4201 0538 0095     		str	r5, [sp]
 4202 053a 40F69811 		movw	r1, #2456
 4203              		.loc 1 455 0
 4204 053e 1570     		strb	r5, [r2]
 4205              		.loc 1 456 0
 4206 0540 1548     		ldr	r0, .L269+40
 4207 0542 4022     		movs	r2, #64
 4208 0544 FFF7FEFF 		bl	chThdCreateStatic
 4209              	.LVL344:
 4210              		.loc 1 459 0
 4211 0548 2146     		mov	r1, r4
 4212 054a 4FF40060 		mov	r0, #2048
 4213 054e FFF7FEFF 		bl	RCC_APB1PeriphClockCmd
 4214              	.LVL345:
 4215              		.loc 1 460 0
 4216 0552 2846     		mov	r0, r5
 4217 0554 FFF7FEFF 		bl	WWDG_SetPrescaler
 4218              	.LVL346:
ARM GAS  /var/folders/sv/kgmgr77579zbf78p2zlhkdfr0000gn/T//ccXbx0Pt.s 			page 75


 4219              		.loc 1 461 0
 4220 0558 FF20     		movs	r0, #255
 4221 055a FFF7FEFF 		bl	WWDG_SetWindowValue
 4222              	.LVL347:
 4223              		.loc 1 462 0
 4224 055e 6420     		movs	r0, #100
 4225 0560 FFF7FEFF 		bl	WWDG_Enable
 4226              	.LVL348:
 4227              		.loc 1 464 0
 4228 0564 0D4B     		ldr	r3, .L269+44
 4229 0566 1C70     		strb	r4, [r3]
 4230              		.loc 1 465 0
 4231 0568 29B0     		add	sp, sp, #164
 4232              		.cfi_def_cfa_offset 36
 4233              		@ sp needed
 4234 056a BDE8F08F 		pop	{r4, r5, r6, r7, r8, r9, r10, fp, pc}
 4235              	.L270:
 4236 056e 00BF     		.align	2
 4237              	.L269:
 4238 0570 00040240 		.word	1073873920
 4239 0574 00000000 		.word	.LANCHOR12
 4240 0578 00000000 		.word	.LANCHOR13
 4241 057c 00000000 		.word	.LANCHOR16
 4242 0580 00000000 		.word	.LANCHOR14
 4243 0584 00000000 		.word	.LANCHOR15
 4244 0588 00000000 		.word	.LANCHOR46
 4245 058c 00180040 		.word	1073747968
 4246 0590 00000000 		.word	.LANCHOR1
 4247 0594 00000000 		.word	timer_thread
 4248 0598 00000000 		.word	.LANCHOR56
 4249 059c 00000000 		.word	.LANCHOR45
 4250              		.cfi_endproc
 4251              	.LFE256:
 4252              		.size	mcpwm_foc_init, .-mcpwm_foc_init
 4253              		.section	.text.mcpwm_foc_deinit,"ax",%progbits
 4254              		.align	2
 4255              		.p2align 4,,15
 4256              		.global	mcpwm_foc_deinit
 4257              		.thumb
 4258              		.thumb_func
 4259              		.type	mcpwm_foc_deinit, %function
 4260              	mcpwm_foc_deinit:
 4261              	.LFB257:
 4262              		.loc 1 467 0
 4263              		.cfi_startproc
 4264              		@ args = 0, pretend = 0, frame = 0
 4265              		@ frame_needed = 0, uses_anonymous_args = 0
 4266              		.loc 1 468 0
 4267 0000 134B     		ldr	r3, .L277
 4268              		.loc 1 467 0
 4269 0002 10B5     		push	{r4, lr}
 4270              		.cfi_def_cfa_offset 8
 4271              		.cfi_offset 4, -8
 4272              		.cfi_offset 14, -4
 4273              		.loc 1 468 0
 4274 0004 0022     		movs	r2, #0
 4275              		.loc 1 472 0
ARM GAS  /var/folders/sv/kgmgr77579zbf78p2zlhkdfr0000gn/T//ccXbx0Pt.s 			page 76


 4276 0006 134C     		ldr	r4, .L277+4
 4277              		.loc 1 468 0
 4278 0008 1A70     		strb	r2, [r3]
 4279              		.loc 1 470 0
 4280 000a FFF7FEFF 		bl	WWDG_DeInit
 4281              	.LVL349:
 4282              		.loc 1 472 0
 4283 000e 0123     		movs	r3, #1
 4284 0010 2370     		strb	r3, [r4]
 4285              		.loc 1 474 0
 4286 0012 2378     		ldrb	r3, [r4]	@ zero_extendqisi2
 4287 0014 2BB1     		cbz	r3, .L273
 4288              	.L274:
 4289              		.loc 1 475 0
 4290 0016 0A20     		movs	r0, #10
 4291 0018 FFF7FEFF 		bl	chThdSleep
 4292              	.LVL350:
 4293              		.loc 1 474 0
 4294 001c 2378     		ldrb	r3, [r4]	@ zero_extendqisi2
 4295 001e 002B     		cmp	r3, #0
 4296 0020 F9D1     		bne	.L274
 4297              	.L273:
 4298              		.loc 1 478 0
 4299 0022 0D48     		ldr	r0, .L277+8
 4300 0024 FFF7FEFF 		bl	TIM_DeInit
 4301              	.LVL351:
 4302              		.loc 1 479 0
 4303 0028 0C48     		ldr	r0, .L277+12
 4304 002a FFF7FEFF 		bl	TIM_DeInit
 4305              	.LVL352:
 4306              		.loc 1 480 0
 4307 002e 0C48     		ldr	r0, .L277+16
 4308 0030 FFF7FEFF 		bl	TIM_DeInit
 4309              	.LVL353:
 4310              		.loc 1 481 0
 4311 0034 FFF7FEFF 		bl	ADC_DeInit
 4312              	.LVL354:
 4313              		.loc 1 482 0
 4314 0038 0A48     		ldr	r0, .L277+20
 4315 003a FFF7FEFF 		bl	DMA_DeInit
 4316              	.LVL355:
 4317              		.loc 1 483 0
 4318 003e 1220     		movs	r0, #18
 4319 0040 FFF7FEFF 		bl	nvicDisableVector
 4320              	.LVL356:
 4321              		.loc 1 484 0
 4322 0044 0848     		ldr	r0, .L277+24
 4323              		.loc 1 485 0
 4324 0046 BDE81040 		pop	{r4, lr}
 4325              		.cfi_restore 14
 4326              		.cfi_restore 4
 4327              		.cfi_def_cfa_offset 0
 4328              		.loc 1 484 0
 4329 004a FFF7FEBF 		b	dmaStreamRelease
 4330              	.LVL357:
 4331              	.L278:
 4332 004e 00BF     		.align	2
ARM GAS  /var/folders/sv/kgmgr77579zbf78p2zlhkdfr0000gn/T//ccXbx0Pt.s 			page 77


 4333              	.L277:
 4334 0050 00000000 		.word	.LANCHOR45
 4335 0054 00000000 		.word	.LANCHOR1
 4336 0058 00000140 		.word	1073807360
 4337 005c 00040140 		.word	1073808384
 4338 0060 00180040 		.word	1073747968
 4339 0064 70640240 		.word	1073898608
 4340 0068 90000000 		.word	_stm32_dma_streams+144
 4341              		.cfi_endproc
 4342              	.LFE257:
 4343              		.size	mcpwm_foc_deinit, .-mcpwm_foc_deinit
 4344              		.section	.text.mcpwm_foc_init_done,"ax",%progbits
 4345              		.align	2
 4346              		.p2align 4,,15
 4347              		.global	mcpwm_foc_init_done
 4348              		.thumb
 4349              		.thumb_func
 4350              		.type	mcpwm_foc_init_done, %function
 4351              	mcpwm_foc_init_done:
 4352              	.LFB258:
 4353              		.loc 1 487 0
 4354              		.cfi_startproc
 4355              		@ args = 0, pretend = 0, frame = 0
 4356              		@ frame_needed = 0, uses_anonymous_args = 0
 4357              		@ link register save eliminated.
 4358              		.loc 1 488 0
 4359 0000 014B     		ldr	r3, .L280
 4360 0002 1878     		ldrb	r0, [r3]	@ zero_extendqisi2
 4361              		.loc 1 489 0
 4362 0004 7047     		bx	lr
 4363              	.L281:
 4364 0006 00BF     		.align	2
 4365              	.L280:
 4366 0008 00000000 		.word	.LANCHOR45
 4367              		.cfi_endproc
 4368              	.LFE258:
 4369              		.size	mcpwm_foc_init_done, .-mcpwm_foc_init_done
 4370              		.section	.text.mcpwm_foc_set_configuration,"ax",%progbits
 4371              		.align	2
 4372              		.p2align 4,,15
 4373              		.global	mcpwm_foc_set_configuration
 4374              		.thumb
 4375              		.thumb_func
 4376              		.type	mcpwm_foc_set_configuration, %function
 4377              	mcpwm_foc_set_configuration:
 4378              	.LFB259:
 4379              		.loc 1 491 0
 4380              		.cfi_startproc
 4381              		@ args = 0, pretend = 0, frame = 0
 4382              		@ frame_needed = 0, uses_anonymous_args = 0
 4383              	.LVL358:
 4384 0000 10B5     		push	{r4, lr}
 4385              		.cfi_def_cfa_offset 8
 4386              		.cfi_offset 4, -8
 4387              		.cfi_offset 14, -4
 4388              		.loc 1 492 0
 4389 0002 144C     		ldr	r4, .L284
ARM GAS  /var/folders/sv/kgmgr77579zbf78p2zlhkdfr0000gn/T//ccXbx0Pt.s 			page 78


 4390              		.loc 1 494 0
 4391 0004 1449     		ldr	r1, .L284+4
 4392              		.loc 1 495 0
 4393 0006 154B     		ldr	r3, .L284+8
 4394              		.loc 1 492 0
 4395 0008 2060     		str	r0, [r4]
 4396              		.loc 1 495 0
 4397 000a 0022     		movs	r2, #0
 4398              		.loc 1 494 0
 4399 000c 0720     		movs	r0, #7
 4400              	.LVL359:
 4401 000e 0870     		strb	r0, [r1]
 4402              		.loc 1 495 0
 4403 0010 1A70     		strb	r2, [r3]
 4404              		.loc 1 496 0
 4405 0012 FFF7FEFF 		bl	stop_pwm_hw
 4406              	.LVL360:
 4407              		.loc 1 497 0
 4408 0016 2368     		ldr	r3, [r4]
 4409              		.loc 1 498 0
 4410 0018 114A     		ldr	r2, .L284+12
 4411              		.loc 1 497 0
 4412 001a D3ED2B7A 		vldr.32	s15, [r3, #172]
 4413              		.loc 1 498 0
 4414 001e 1168     		ldr	r1, [r2]
 4415 0020 104B     		ldr	r3, .L284+16
 4416              		.loc 1 497 0
 4417 0022 1148     		ldr	r0, .L284+20
 4418              		.loc 1 498 0
 4419 0024 41F00201 		orr	r1, r1, #2
 4420 0028 1160     		str	r1, [r2]
 4421 002a 1968     		ldr	r1, [r3]
 4422 002c 0224     		movs	r4, #2
 4423              		.loc 1 497 0
 4424 002e FDEEE77A 		vcvt.s32.f32	s15, s15
 4425              		.loc 1 498 0
 4426 0032 2143     		orrs	r1, r1, r4
 4427 0034 1960     		str	r1, [r3]
 4428              		.loc 1 497 0
 4429 0036 17EE901A 		vmov	r1, s15	@ int
 4430 003a 90FBF1F1 		sdiv	r1, r0, r1
 4431              	.LVL361:
 4432              		.loc 1 498 0
 4433 003e D162     		str	r1, [r2, #44]
 4434 0040 5C63     		str	r4, [r3, #52]
 4435 0042 1168     		ldr	r1, [r2]
 4436              	.LVL362:
 4437 0044 21F00201 		bic	r1, r1, #2
 4438 0048 1160     		str	r1, [r2]
 4439 004a 1A68     		ldr	r2, [r3]
 4440 004c 22F00202 		bic	r2, r2, #2
 4441 0050 1A60     		str	r2, [r3]
 4442 0052 10BD     		pop	{r4, pc}
 4443              	.L285:
 4444              		.align	2
 4445              	.L284:
 4446 0054 00000000 		.word	.LANCHOR10
ARM GAS  /var/folders/sv/kgmgr77579zbf78p2zlhkdfr0000gn/T//ccXbx0Pt.s 			page 79


 4447 0058 00000000 		.word	.LANCHOR5
 4448 005c 00000000 		.word	.LANCHOR2
 4449 0060 00000140 		.word	1073807360
 4450 0064 00040140 		.word	1073808384
 4451 0068 007A030A 		.word	168000000
 4452              		.cfi_endproc
 4453              	.LFE259:
 4454              		.size	mcpwm_foc_set_configuration, .-mcpwm_foc_set_configuration
 4455              		.section	.text.mcpwm_foc_get_state,"ax",%progbits
 4456              		.align	2
 4457              		.p2align 4,,15
 4458              		.global	mcpwm_foc_get_state
 4459              		.thumb
 4460              		.thumb_func
 4461              		.type	mcpwm_foc_get_state, %function
 4462              	mcpwm_foc_get_state:
 4463              	.LFB260:
 4464              		.loc 1 501 0
 4465              		.cfi_startproc
 4466              		@ args = 0, pretend = 0, frame = 0
 4467              		@ frame_needed = 0, uses_anonymous_args = 0
 4468              		@ link register save eliminated.
 4469              		.loc 1 502 0
 4470 0000 014B     		ldr	r3, .L287
 4471 0002 1878     		ldrb	r0, [r3]	@ zero_extendqisi2
 4472              		.loc 1 503 0
 4473 0004 7047     		bx	lr
 4474              	.L288:
 4475 0006 00BF     		.align	2
 4476              	.L287:
 4477 0008 00000000 		.word	.LANCHOR2
 4478              		.cfi_endproc
 4479              	.LFE260:
 4480              		.size	mcpwm_foc_get_state, .-mcpwm_foc_get_state
 4481              		.section	.text.mcpwm_foc_is_dccal_done,"ax",%progbits
 4482              		.align	2
 4483              		.p2align 4,,15
 4484              		.global	mcpwm_foc_is_dccal_done
 4485              		.thumb
 4486              		.thumb_func
 4487              		.type	mcpwm_foc_is_dccal_done, %function
 4488              	mcpwm_foc_is_dccal_done:
 4489              	.LFB261:
 4490              		.loc 1 505 0
 4491              		.cfi_startproc
 4492              		@ args = 0, pretend = 0, frame = 0
 4493              		@ frame_needed = 0, uses_anonymous_args = 0
 4494              		@ link register save eliminated.
 4495              		.loc 1 506 0
 4496 0000 014B     		ldr	r3, .L290
 4497 0002 1878     		ldrb	r0, [r3]	@ zero_extendqisi2
 4498              		.loc 1 507 0
 4499 0004 7047     		bx	lr
 4500              	.L291:
 4501 0006 00BF     		.align	2
 4502              	.L290:
 4503 0008 00000000 		.word	.LANCHOR46
ARM GAS  /var/folders/sv/kgmgr77579zbf78p2zlhkdfr0000gn/T//ccXbx0Pt.s 			page 80


 4504              		.cfi_endproc
 4505              	.LFE261:
 4506              		.size	mcpwm_foc_is_dccal_done, .-mcpwm_foc_is_dccal_done
 4507              		.section	.text.mcpwm_foc_set_duty,"ax",%progbits
 4508              		.align	2
 4509              		.p2align 4,,15
 4510              		.global	mcpwm_foc_set_duty
 4511              		.thumb
 4512              		.thumb_func
 4513              		.type	mcpwm_foc_set_duty, %function
 4514              	mcpwm_foc_set_duty:
 4515              	.LFB263:
 4516              		.loc 1 523 0
 4517              		.cfi_startproc
 4518              		@ args = 0, pretend = 0, frame = 0
 4519              		@ frame_needed = 0, uses_anonymous_args = 0
 4520              		@ link register save eliminated.
 4521              	.LVL363:
 4522              		.loc 1 525 0
 4523 0000 064A     		ldr	r2, .L297
 4524              		.loc 1 524 0
 4525 0002 0749     		ldr	r1, .L297+4
 4526              		.loc 1 527 0
 4527 0004 074B     		ldr	r3, .L297+8
 4528              		.loc 1 524 0
 4529 0006 0020     		movs	r0, #0
 4530 0008 0870     		strb	r0, [r1]
 4531              		.loc 1 525 0
 4532 000a 82ED000A 		vstr.32	s0, [r2]
 4533              		.loc 1 527 0
 4534 000e 1A78     		ldrb	r2, [r3]	@ zero_extendqisi2
 4535 0010 022A     		cmp	r2, #2
 4536              		.loc 1 528 0
 4537 0012 1CBF     		itt	ne
 4538 0014 0222     		movne	r2, #2
 4539 0016 1A70     		strbne	r2, [r3]
 4540 0018 7047     		bx	lr
 4541              	.L298:
 4542 001a 00BF     		.align	2
 4543              	.L297:
 4544 001c 00000000 		.word	.LANCHOR23
 4545 0020 00000000 		.word	.LANCHOR5
 4546 0024 00000000 		.word	.LANCHOR2
 4547              		.cfi_endproc
 4548              	.LFE263:
 4549              		.size	mcpwm_foc_set_duty, .-mcpwm_foc_set_duty
 4550              		.section	.text.mcpwm_foc_set_duty_noramp,"ax",%progbits
 4551              		.align	2
 4552              		.p2align 4,,15
 4553              		.global	mcpwm_foc_set_duty_noramp
 4554              		.thumb
 4555              		.thumb_func
 4556              		.type	mcpwm_foc_set_duty_noramp, %function
 4557              	mcpwm_foc_set_duty_noramp:
 4558              	.LFB264:
 4559              		.loc 1 542 0
 4560              		.cfi_startproc
ARM GAS  /var/folders/sv/kgmgr77579zbf78p2zlhkdfr0000gn/T//ccXbx0Pt.s 			page 81


 4561              		@ args = 0, pretend = 0, frame = 0
 4562              		@ frame_needed = 0, uses_anonymous_args = 0
 4563              		@ link register save eliminated.
 4564              	.LVL364:
 4565              	.LBB255:
 4566              	.LBB256:
 4567              		.loc 1 525 0
 4568 0000 064A     		ldr	r2, .L304
 4569              		.loc 1 524 0
 4570 0002 0749     		ldr	r1, .L304+4
 4571              		.loc 1 527 0
 4572 0004 074B     		ldr	r3, .L304+8
 4573              		.loc 1 524 0
 4574 0006 0020     		movs	r0, #0
 4575 0008 0870     		strb	r0, [r1]
 4576              		.loc 1 525 0
 4577 000a 82ED000A 		vstr.32	s0, [r2]
 4578              		.loc 1 527 0
 4579 000e 1A78     		ldrb	r2, [r3]	@ zero_extendqisi2
 4580 0010 022A     		cmp	r2, #2
 4581              		.loc 1 528 0
 4582 0012 1CBF     		itt	ne
 4583 0014 0222     		movne	r2, #2
 4584 0016 1A70     		strbne	r2, [r3]
 4585              	.LVL365:
 4586 0018 7047     		bx	lr
 4587              	.L305:
 4588 001a 00BF     		.align	2
 4589              	.L304:
 4590 001c 00000000 		.word	.LANCHOR23
 4591 0020 00000000 		.word	.LANCHOR5
 4592 0024 00000000 		.word	.LANCHOR2
 4593              	.LBE256:
 4594              	.LBE255:
 4595              		.cfi_endproc
 4596              	.LFE264:
 4597              		.size	mcpwm_foc_set_duty_noramp, .-mcpwm_foc_set_duty_noramp
 4598              		.section	.text.mcpwm_foc_set_pid_speed,"ax",%progbits
 4599              		.align	2
 4600              		.p2align 4,,15
 4601              		.global	mcpwm_foc_set_pid_speed
 4602              		.thumb
 4603              		.thumb_func
 4604              		.type	mcpwm_foc_set_pid_speed, %function
 4605              	mcpwm_foc_set_pid_speed:
 4606              	.LFB265:
 4607              		.loc 1 554 0
 4608              		.cfi_startproc
 4609              		@ args = 0, pretend = 0, frame = 0
 4610              		@ frame_needed = 0, uses_anonymous_args = 0
 4611              		@ link register save eliminated.
 4612              	.LVL366:
 4613              		.loc 1 556 0
 4614 0000 064A     		ldr	r2, .L311
 4615              		.loc 1 555 0
 4616 0002 0749     		ldr	r1, .L311+4
 4617              		.loc 1 558 0
ARM GAS  /var/folders/sv/kgmgr77579zbf78p2zlhkdfr0000gn/T//ccXbx0Pt.s 			page 82


 4618 0004 074B     		ldr	r3, .L311+8
 4619              		.loc 1 555 0
 4620 0006 0120     		movs	r0, #1
 4621 0008 0870     		strb	r0, [r1]
 4622              		.loc 1 556 0
 4623 000a 82ED000A 		vstr.32	s0, [r2]
 4624              		.loc 1 558 0
 4625 000e 1A78     		ldrb	r2, [r3]	@ zero_extendqisi2
 4626 0010 022A     		cmp	r2, #2
 4627              		.loc 1 559 0
 4628 0012 1CBF     		itt	ne
 4629 0014 0222     		movne	r2, #2
 4630 0016 1A70     		strbne	r2, [r3]
 4631 0018 7047     		bx	lr
 4632              	.L312:
 4633 001a 00BF     		.align	2
 4634              	.L311:
 4635 001c 00000000 		.word	.LANCHOR9
 4636 0020 00000000 		.word	.LANCHOR5
 4637 0024 00000000 		.word	.LANCHOR2
 4638              		.cfi_endproc
 4639              	.LFE265:
 4640              		.size	mcpwm_foc_set_pid_speed, .-mcpwm_foc_set_pid_speed
 4641              		.section	.text.mcpwm_foc_set_pid_pos,"ax",%progbits
 4642              		.align	2
 4643              		.p2align 4,,15
 4644              		.global	mcpwm_foc_set_pid_pos
 4645              		.thumb
 4646              		.thumb_func
 4647              		.type	mcpwm_foc_set_pid_pos, %function
 4648              	mcpwm_foc_set_pid_pos:
 4649              	.LFB266:
 4650              		.loc 1 570 0
 4651              		.cfi_startproc
 4652              		@ args = 0, pretend = 0, frame = 0
 4653              		@ frame_needed = 0, uses_anonymous_args = 0
 4654              		@ link register save eliminated.
 4655              	.LVL367:
 4656              		.loc 1 572 0
 4657 0000 064A     		ldr	r2, .L318
 4658              		.loc 1 571 0
 4659 0002 0749     		ldr	r1, .L318+4
 4660              		.loc 1 574 0
 4661 0004 074B     		ldr	r3, .L318+8
 4662              		.loc 1 571 0
 4663 0006 0420     		movs	r0, #4
 4664 0008 0870     		strb	r0, [r1]
 4665              		.loc 1 572 0
 4666 000a 82ED000A 		vstr.32	s0, [r2]
 4667              		.loc 1 574 0
 4668 000e 1A78     		ldrb	r2, [r3]	@ zero_extendqisi2
 4669 0010 022A     		cmp	r2, #2
 4670              		.loc 1 575 0
 4671 0012 1CBF     		itt	ne
 4672 0014 0222     		movne	r2, #2
 4673 0016 1A70     		strbne	r2, [r3]
 4674 0018 7047     		bx	lr
ARM GAS  /var/folders/sv/kgmgr77579zbf78p2zlhkdfr0000gn/T//ccXbx0Pt.s 			page 83


 4675              	.L319:
 4676 001a 00BF     		.align	2
 4677              	.L318:
 4678 001c 00000000 		.word	.LANCHOR35
 4679 0020 00000000 		.word	.LANCHOR5
 4680 0024 00000000 		.word	.LANCHOR2
 4681              		.cfi_endproc
 4682              	.LFE266:
 4683              		.size	mcpwm_foc_set_pid_pos, .-mcpwm_foc_set_pid_pos
 4684              		.section	.text.mcpwm_foc_set_current,"ax",%progbits
 4685              		.align	2
 4686              		.p2align 4,,15
 4687              		.global	mcpwm_foc_set_current
 4688              		.thumb
 4689              		.thumb_func
 4690              		.type	mcpwm_foc_set_current, %function
 4691              	mcpwm_foc_set_current:
 4692              	.LFB267:
 4693              		.loc 1 587 0
 4694              		.cfi_startproc
 4695              		@ args = 0, pretend = 0, frame = 0
 4696              		@ frame_needed = 0, uses_anonymous_args = 0
 4697              		@ link register save eliminated.
 4698              	.LVL368:
 4699              		.loc 1 588 0
 4700 0000 0F4B     		ldr	r3, .L330
 4701 0002 1B68     		ldr	r3, [r3]
 4702 0004 D3ED507A 		vldr.32	s15, [r3, #320]
 4703 0008 B0EEC07A 		vabs.f32	s14, s0
 4704 000c B4EEE77A 		vcmpe.f32	s14, s15
 4705 0010 F1EE10FA 		vmrs	APSR_nzcv, FPSCR
 4706 0014 0BD4     		bmi	.L329
 4707              		.loc 1 596 0
 4708 0016 0B49     		ldr	r1, .L330+4
 4709              		.loc 1 595 0
 4710 0018 0B48     		ldr	r0, .L330+8
 4711              		.loc 1 598 0
 4712 001a 0C4B     		ldr	r3, .L330+12
 4713              		.loc 1 595 0
 4714 001c 0222     		movs	r2, #2
 4715 001e 0270     		strb	r2, [r0]
 4716              		.loc 1 596 0
 4717 0020 81ED000A 		vstr.32	s0, [r1]
 4718              		.loc 1 598 0
 4719 0024 1978     		ldrb	r1, [r3]	@ zero_extendqisi2
 4720 0026 9142     		cmp	r1, r2
 4721              		.loc 1 599 0
 4722 0028 18BF     		it	ne
 4723 002a 1A70     		strbne	r2, [r3]
 4724 002c 7047     		bx	lr
 4725              	.L329:
 4726              	.LVL369:
 4727              	.LBB259:
 4728              	.LBB260:
 4729              		.loc 1 589 0
 4730 002e 0649     		ldr	r1, .L330+8
 4731              		.loc 1 590 0
ARM GAS  /var/folders/sv/kgmgr77579zbf78p2zlhkdfr0000gn/T//ccXbx0Pt.s 			page 84


 4732 0030 064B     		ldr	r3, .L330+12
 4733              		.loc 1 589 0
 4734 0032 0720     		movs	r0, #7
 4735              		.loc 1 590 0
 4736 0034 0022     		movs	r2, #0
 4737              		.loc 1 589 0
 4738 0036 0870     		strb	r0, [r1]
 4739              		.loc 1 590 0
 4740 0038 1A70     		strb	r2, [r3]
 4741              		.loc 1 591 0
 4742 003a FFF7FEBF 		b	stop_pwm_hw
 4743              	.LVL370:
 4744              	.L331:
 4745 003e 00BF     		.align	2
 4746              	.L330:
 4747 0040 00000000 		.word	.LANCHOR10
 4748 0044 00000000 		.word	.LANCHOR11
 4749 0048 00000000 		.word	.LANCHOR5
 4750 004c 00000000 		.word	.LANCHOR2
 4751              	.LBE260:
 4752              	.LBE259:
 4753              		.cfi_endproc
 4754              	.LFE267:
 4755              		.size	mcpwm_foc_set_current, .-mcpwm_foc_set_current
 4756              		.section	.text.mcpwm_foc_stop_pwm,"ax",%progbits
 4757              		.align	2
 4758              		.p2align 4,,15
 4759              		.global	mcpwm_foc_stop_pwm
 4760              		.thumb
 4761              		.thumb_func
 4762              		.type	mcpwm_foc_stop_pwm, %function
 4763              	mcpwm_foc_stop_pwm:
 4764              	.LFB262:
 4765              		.loc 1 512 0
 4766              		.cfi_startproc
 4767              		@ args = 0, pretend = 0, frame = 0
 4768              		@ frame_needed = 0, uses_anonymous_args = 0
 4769              		@ link register save eliminated.
 4770              		.loc 1 513 0
 4771 0000 9FED010A 		vldr.32	s0, .L333
 4772 0004 FFF7FEBF 		b	mcpwm_foc_set_current
 4773              	.LVL371:
 4774              	.L334:
 4775              		.align	2
 4776              	.L333:
 4777 0008 00000000 		.word	0
 4778              		.cfi_endproc
 4779              	.LFE262:
 4780              		.size	mcpwm_foc_stop_pwm, .-mcpwm_foc_stop_pwm
 4781              		.section	.text.mcpwm_foc_set_brake_current,"ax",%progbits
 4782              		.align	2
 4783              		.p2align 4,,15
 4784              		.global	mcpwm_foc_set_brake_current
 4785              		.thumb
 4786              		.thumb_func
 4787              		.type	mcpwm_foc_set_brake_current, %function
 4788              	mcpwm_foc_set_brake_current:
ARM GAS  /var/folders/sv/kgmgr77579zbf78p2zlhkdfr0000gn/T//ccXbx0Pt.s 			page 85


 4789              	.LFB268:
 4790              		.loc 1 610 0
 4791              		.cfi_startproc
 4792              		@ args = 0, pretend = 0, frame = 0
 4793              		@ frame_needed = 0, uses_anonymous_args = 0
 4794              		@ link register save eliminated.
 4795              	.LVL372:
 4796              		.loc 1 611 0
 4797 0000 0F4B     		ldr	r3, .L345
 4798              		.loc 1 612 0
 4799 0002 1049     		ldr	r1, .L345+4
 4800              		.loc 1 611 0
 4801 0004 1B68     		ldr	r3, [r3]
 4802 0006 D3ED507A 		vldr.32	s15, [r3, #320]
 4803 000a B0EEC07A 		vabs.f32	s14, s0
 4804 000e B4EEE77A 		vcmpe.f32	s14, s15
 4805 0012 F1EE10FA 		vmrs	APSR_nzcv, FPSCR
 4806 0016 0BD4     		bmi	.L344
 4807              		.loc 1 619 0
 4808 0018 0B4A     		ldr	r2, .L345+8
 4809              		.loc 1 621 0
 4810 001a 0C4B     		ldr	r3, .L345+12
 4811              		.loc 1 618 0
 4812 001c 0320     		movs	r0, #3
 4813 001e 0870     		strb	r0, [r1]
 4814              		.loc 1 619 0
 4815 0020 82ED000A 		vstr.32	s0, [r2]
 4816              		.loc 1 621 0
 4817 0024 1A78     		ldrb	r2, [r3]	@ zero_extendqisi2
 4818 0026 022A     		cmp	r2, #2
 4819              		.loc 1 622 0
 4820 0028 1CBF     		itt	ne
 4821 002a 0222     		movne	r2, #2
 4822 002c 1A70     		strbne	r2, [r3]
 4823 002e 7047     		bx	lr
 4824              	.L344:
 4825              		.loc 1 613 0
 4826 0030 064B     		ldr	r3, .L345+12
 4827              		.loc 1 612 0
 4828 0032 0720     		movs	r0, #7
 4829              		.loc 1 613 0
 4830 0034 0022     		movs	r2, #0
 4831              		.loc 1 612 0
 4832 0036 0870     		strb	r0, [r1]
 4833              		.loc 1 613 0
 4834 0038 1A70     		strb	r2, [r3]
 4835              		.loc 1 614 0
 4836 003a FFF7FEBF 		b	stop_pwm_hw
 4837              	.LVL373:
 4838              	.L346:
 4839 003e 00BF     		.align	2
 4840              	.L345:
 4841 0040 00000000 		.word	.LANCHOR10
 4842 0044 00000000 		.word	.LANCHOR5
 4843 0048 00000000 		.word	.LANCHOR11
 4844 004c 00000000 		.word	.LANCHOR2
 4845              		.cfi_endproc
ARM GAS  /var/folders/sv/kgmgr77579zbf78p2zlhkdfr0000gn/T//ccXbx0Pt.s 			page 86


 4846              	.LFE268:
 4847              		.size	mcpwm_foc_set_brake_current, .-mcpwm_foc_set_brake_current
 4848              		.section	.text.mcpwm_foc_set_handbrake,"ax",%progbits
 4849              		.align	2
 4850              		.p2align 4,,15
 4851              		.global	mcpwm_foc_set_handbrake
 4852              		.thumb
 4853              		.thumb_func
 4854              		.type	mcpwm_foc_set_handbrake, %function
 4855              	mcpwm_foc_set_handbrake:
 4856              	.LFB269:
 4857              		.loc 1 633 0
 4858              		.cfi_startproc
 4859              		@ args = 0, pretend = 0, frame = 0
 4860              		@ frame_needed = 0, uses_anonymous_args = 0
 4861              		@ link register save eliminated.
 4862              	.LVL374:
 4863              		.loc 1 634 0
 4864 0000 0F4B     		ldr	r3, .L357
 4865              		.loc 1 635 0
 4866 0002 1049     		ldr	r1, .L357+4
 4867              		.loc 1 634 0
 4868 0004 1B68     		ldr	r3, [r3]
 4869 0006 D3ED507A 		vldr.32	s15, [r3, #320]
 4870 000a B0EEC07A 		vabs.f32	s14, s0
 4871 000e B4EEE77A 		vcmpe.f32	s14, s15
 4872 0012 F1EE10FA 		vmrs	APSR_nzcv, FPSCR
 4873 0016 0BD4     		bmi	.L356
 4874              		.loc 1 642 0
 4875 0018 0B4A     		ldr	r2, .L357+8
 4876              		.loc 1 644 0
 4877 001a 0C4B     		ldr	r3, .L357+12
 4878              		.loc 1 641 0
 4879 001c 0520     		movs	r0, #5
 4880 001e 0870     		strb	r0, [r1]
 4881              		.loc 1 642 0
 4882 0020 82ED000A 		vstr.32	s0, [r2]
 4883              		.loc 1 644 0
 4884 0024 1A78     		ldrb	r2, [r3]	@ zero_extendqisi2
 4885 0026 022A     		cmp	r2, #2
 4886              		.loc 1 645 0
 4887 0028 1CBF     		itt	ne
 4888 002a 0222     		movne	r2, #2
 4889 002c 1A70     		strbne	r2, [r3]
 4890 002e 7047     		bx	lr
 4891              	.L356:
 4892              		.loc 1 636 0
 4893 0030 064B     		ldr	r3, .L357+12
 4894              		.loc 1 635 0
 4895 0032 0720     		movs	r0, #7
 4896              		.loc 1 636 0
 4897 0034 0022     		movs	r2, #0
 4898              		.loc 1 635 0
 4899 0036 0870     		strb	r0, [r1]
 4900              		.loc 1 636 0
 4901 0038 1A70     		strb	r2, [r3]
 4902              		.loc 1 637 0
ARM GAS  /var/folders/sv/kgmgr77579zbf78p2zlhkdfr0000gn/T//ccXbx0Pt.s 			page 87


 4903 003a FFF7FEBF 		b	stop_pwm_hw
 4904              	.LVL375:
 4905              	.L358:
 4906 003e 00BF     		.align	2
 4907              	.L357:
 4908 0040 00000000 		.word	.LANCHOR10
 4909 0044 00000000 		.word	.LANCHOR5
 4910 0048 00000000 		.word	.LANCHOR11
 4911 004c 00000000 		.word	.LANCHOR2
 4912              		.cfi_endproc
 4913              	.LFE269:
 4914              		.size	mcpwm_foc_set_handbrake, .-mcpwm_foc_set_handbrake
 4915              		.section	.text.mcpwm_foc_set_openloop,"ax",%progbits
 4916              		.align	2
 4917              		.p2align 4,,15
 4918              		.global	mcpwm_foc_set_openloop
 4919              		.thumb
 4920              		.thumb_func
 4921              		.type	mcpwm_foc_set_openloop, %function
 4922              	mcpwm_foc_set_openloop:
 4923              	.LFB270:
 4924              		.loc 1 658 0
 4925              		.cfi_startproc
 4926              		@ args = 0, pretend = 0, frame = 8
 4927              		@ frame_needed = 0, uses_anonymous_args = 0
 4928              	.LVL376:
 4929 0000 30B5     		push	{r4, r5, lr}
 4930              		.cfi_def_cfa_offset 12
 4931              		.cfi_offset 4, -12
 4932              		.cfi_offset 5, -8
 4933              		.cfi_offset 14, -4
 4934              		.loc 1 659 0
 4935 0002 1F4B     		ldr	r3, .L370
 4936 0004 1B68     		ldr	r3, [r3]
 4937              		.loc 1 658 0
 4938 0006 2DED028B 		vpush.64	{d8}
 4939              		.cfi_def_cfa_offset 20
 4940              		.cfi_offset 80, -20
 4941              		.cfi_offset 81, -16
 4942              		.loc 1 659 0
 4943 000a D3ED507A 		vldr.32	s15, [r3, #320]
 4944 000e B0EEC07A 		vabs.f32	s14, s0
 4945 0012 B4EEE77A 		vcmpe.f32	s14, s15
 4946              		.loc 1 658 0
 4947 0016 83B0     		sub	sp, sp, #12
 4948              		.cfi_def_cfa_offset 32
 4949              		.loc 1 659 0
 4950 0018 F1EE10FA 		vmrs	APSR_nzcv, FPSCR
 4951              		.loc 1 658 0
 4952 001c 8DED010A 		vstr.32	s0, [sp, #4]
 4953              		.loc 1 659 0
 4954 0020 21D4     		bmi	.L369
 4955              		.loc 1 666 0
 4956 0022 93ED010A 		vldr.32	s0, [r3, #4]
 4957              	.LVL377:
 4958              		.loc 1 668 0
 4959 0026 174C     		ldr	r4, .L370+4
ARM GAS  /var/folders/sv/kgmgr77579zbf78p2zlhkdfr0000gn/T//ccXbx0Pt.s 			page 88


 4960 0028 B0EE608A 		vmov.f32	s16, s1
 4961              		.loc 1 666 0
 4962 002c B1EE400A 		vneg.f32	s0, s0
 4963 0030 D3ED010A 		vldr.32	s1, [r3, #4]
 4964              	.LVL378:
 4965 0034 01A8     		add	r0, sp, #4
 4966              	.LVL379:
 4967 0036 FFF7FEFF 		bl	utils_truncate_number
 4968              	.LVL380:
 4969              		.loc 1 670 0
 4970 003a DFED137A 		vldr.32	s15, .L370+8
 4971              		.loc 1 669 0
 4972 003e 1349     		ldr	r1, .L370+12
 4973              		.loc 1 670 0
 4974 0040 134A     		ldr	r2, .L370+16
 4975              		.loc 1 672 0
 4976 0042 144B     		ldr	r3, .L370+20
 4977              		.loc 1 669 0
 4978 0044 0198     		ldr	r0, [sp, #4]	@ float
 4979              		.loc 1 670 0
 4980 0046 28EE278A 		vmul.f32	s16, s16, s15
 4981              	.LVL381:
 4982              		.loc 1 668 0
 4983 004a 0625     		movs	r5, #6
 4984 004c 2570     		strb	r5, [r4]
 4985              		.loc 1 669 0
 4986 004e 0860     		str	r0, [r1]	@ float
 4987              		.loc 1 670 0
 4988 0050 82ED008A 		vstr.32	s16, [r2]
 4989              		.loc 1 672 0
 4990 0054 1A78     		ldrb	r2, [r3]	@ zero_extendqisi2
 4991 0056 022A     		cmp	r2, #2
 4992              		.loc 1 673 0
 4993 0058 1CBF     		itt	ne
 4994 005a 0222     		movne	r2, #2
 4995 005c 1A70     		strbne	r2, [r3]
 4996              		.loc 1 675 0
 4997 005e 03B0     		add	sp, sp, #12
 4998              		.cfi_remember_state
 4999              		.cfi_def_cfa_offset 20
 5000              		@ sp needed
 5001 0060 BDEC028B 		vldm	sp!, {d8}
 5002              		.cfi_restore 80
 5003              		.cfi_restore 81
 5004              		.cfi_def_cfa_offset 12
 5005 0064 30BD     		pop	{r4, r5, pc}
 5006              	.LVL382:
 5007              	.L369:
 5008              		.cfi_restore_state
 5009              		.loc 1 660 0
 5010 0066 0749     		ldr	r1, .L370+4
 5011              		.loc 1 661 0
 5012 0068 0A4B     		ldr	r3, .L370+20
 5013              		.loc 1 660 0
 5014 006a 0720     		movs	r0, #7
 5015              		.loc 1 661 0
 5016 006c 0022     		movs	r2, #0
ARM GAS  /var/folders/sv/kgmgr77579zbf78p2zlhkdfr0000gn/T//ccXbx0Pt.s 			page 89


 5017              		.loc 1 660 0
 5018 006e 0870     		strb	r0, [r1]
 5019              		.loc 1 661 0
 5020 0070 1A70     		strb	r2, [r3]
 5021              		.loc 1 662 0
 5022 0072 FFF7FEFF 		bl	stop_pwm_hw
 5023              	.LVL383:
 5024              		.loc 1 675 0
 5025 0076 03B0     		add	sp, sp, #12
 5026              		.cfi_def_cfa_offset 20
 5027              		@ sp needed
 5028 0078 BDEC028B 		vldm	sp!, {d8}
 5029              		.cfi_restore 80
 5030              		.cfi_restore 81
 5031              		.cfi_def_cfa_offset 12
 5032 007c 30BD     		pop	{r4, r5, pc}
 5033              	.LVL384:
 5034              	.L371:
 5035 007e 00BF     		.align	2
 5036              	.L370:
 5037 0080 00000000 		.word	.LANCHOR10
 5038 0084 00000000 		.word	.LANCHOR5
 5039 0088 5077D63D 		.word	1037465424
 5040 008c 00000000 		.word	.LANCHOR11
 5041 0090 00000000 		.word	.LANCHOR26
 5042 0094 00000000 		.word	.LANCHOR2
 5043              		.cfi_endproc
 5044              	.LFE270:
 5045              		.size	mcpwm_foc_set_openloop, .-mcpwm_foc_set_openloop
 5046              		.section	.text.mcpwm_foc_get_duty_cycle_set,"ax",%progbits
 5047              		.align	2
 5048              		.p2align 4,,15
 5049              		.global	mcpwm_foc_get_duty_cycle_set
 5050              		.thumb
 5051              		.thumb_func
 5052              		.type	mcpwm_foc_get_duty_cycle_set, %function
 5053              	mcpwm_foc_get_duty_cycle_set:
 5054              	.LFB271:
 5055              		.loc 1 677 0
 5056              		.cfi_startproc
 5057              		@ args = 0, pretend = 0, frame = 0
 5058              		@ frame_needed = 0, uses_anonymous_args = 0
 5059              		@ link register save eliminated.
 5060              		.loc 1 678 0
 5061 0000 014B     		ldr	r3, .L373
 5062 0002 93ED000A 		vldr.32	s0, [r3]
 5063              		.loc 1 679 0
 5064 0006 7047     		bx	lr
 5065              	.L374:
 5066              		.align	2
 5067              	.L373:
 5068 0008 00000000 		.word	.LANCHOR23
 5069              		.cfi_endproc
 5070              	.LFE271:
 5071              		.size	mcpwm_foc_get_duty_cycle_set, .-mcpwm_foc_get_duty_cycle_set
 5072              		.section	.text.mcpwm_foc_get_duty_cycle_now,"ax",%progbits
 5073              		.align	2
ARM GAS  /var/folders/sv/kgmgr77579zbf78p2zlhkdfr0000gn/T//ccXbx0Pt.s 			page 90


 5074              		.p2align 4,,15
 5075              		.global	mcpwm_foc_get_duty_cycle_now
 5076              		.thumb
 5077              		.thumb_func
 5078              		.type	mcpwm_foc_get_duty_cycle_now, %function
 5079              	mcpwm_foc_get_duty_cycle_now:
 5080              	.LFB272:
 5081              		.loc 1 681 0
 5082              		.cfi_startproc
 5083              		@ args = 0, pretend = 0, frame = 0
 5084              		@ frame_needed = 0, uses_anonymous_args = 0
 5085              		@ link register save eliminated.
 5086              		.loc 1 682 0
 5087 0000 014B     		ldr	r3, .L376
 5088 0002 93ED030A 		vldr.32	s0, [r3, #12]
 5089              		.loc 1 683 0
 5090 0006 7047     		bx	lr
 5091              	.L377:
 5092              		.align	2
 5093              	.L376:
 5094 0008 00000000 		.word	.LANCHOR3
 5095              		.cfi_endproc
 5096              	.LFE272:
 5097              		.size	mcpwm_foc_get_duty_cycle_now, .-mcpwm_foc_get_duty_cycle_now
 5098              		.section	.text.mcpwm_foc_get_pid_pos_set,"ax",%progbits
 5099              		.align	2
 5100              		.p2align 4,,15
 5101              		.global	mcpwm_foc_get_pid_pos_set
 5102              		.thumb
 5103              		.thumb_func
 5104              		.type	mcpwm_foc_get_pid_pos_set, %function
 5105              	mcpwm_foc_get_pid_pos_set:
 5106              	.LFB273:
 5107              		.loc 1 685 0
 5108              		.cfi_startproc
 5109              		@ args = 0, pretend = 0, frame = 0
 5110              		@ frame_needed = 0, uses_anonymous_args = 0
 5111              		@ link register save eliminated.
 5112              		.loc 1 686 0
 5113 0000 014B     		ldr	r3, .L379
 5114 0002 93ED000A 		vldr.32	s0, [r3]
 5115              		.loc 1 687 0
 5116 0006 7047     		bx	lr
 5117              	.L380:
 5118              		.align	2
 5119              	.L379:
 5120 0008 00000000 		.word	.LANCHOR35
 5121              		.cfi_endproc
 5122              	.LFE273:
 5123              		.size	mcpwm_foc_get_pid_pos_set, .-mcpwm_foc_get_pid_pos_set
 5124              		.section	.text.mcpwm_foc_get_pid_pos_now,"ax",%progbits
 5125              		.align	2
 5126              		.p2align 4,,15
 5127              		.global	mcpwm_foc_get_pid_pos_now
 5128              		.thumb
 5129              		.thumb_func
 5130              		.type	mcpwm_foc_get_pid_pos_now, %function
ARM GAS  /var/folders/sv/kgmgr77579zbf78p2zlhkdfr0000gn/T//ccXbx0Pt.s 			page 91


 5131              	mcpwm_foc_get_pid_pos_now:
 5132              	.LFB274:
 5133              		.loc 1 689 0
 5134              		.cfi_startproc
 5135              		@ args = 0, pretend = 0, frame = 0
 5136              		@ frame_needed = 0, uses_anonymous_args = 0
 5137              		@ link register save eliminated.
 5138              		.loc 1 690 0
 5139 0000 014B     		ldr	r3, .L382
 5140 0002 93ED000A 		vldr.32	s0, [r3]
 5141              		.loc 1 691 0
 5142 0006 7047     		bx	lr
 5143              	.L383:
 5144              		.align	2
 5145              	.L382:
 5146 0008 00000000 		.word	.LANCHOR31
 5147              		.cfi_endproc
 5148              	.LFE274:
 5149              		.size	mcpwm_foc_get_pid_pos_now, .-mcpwm_foc_get_pid_pos_now
 5150              		.section	.text.mcpwm_foc_get_switching_frequency_now,"ax",%progbits
 5151              		.align	2
 5152              		.p2align 4,,15
 5153              		.global	mcpwm_foc_get_switching_frequency_now
 5154              		.thumb
 5155              		.thumb_func
 5156              		.type	mcpwm_foc_get_switching_frequency_now, %function
 5157              	mcpwm_foc_get_switching_frequency_now:
 5158              	.LFB275:
 5159              		.loc 1 699 0
 5160              		.cfi_startproc
 5161              		@ args = 0, pretend = 0, frame = 0
 5162              		@ frame_needed = 0, uses_anonymous_args = 0
 5163              		@ link register save eliminated.
 5164              		.loc 1 700 0
 5165 0000 024B     		ldr	r3, .L385
 5166 0002 1B68     		ldr	r3, [r3]
 5167 0004 93ED2B0A 		vldr.32	s0, [r3, #172]
 5168              		.loc 1 701 0
 5169 0008 7047     		bx	lr
 5170              	.L386:
 5171 000a 00BF     		.align	2
 5172              	.L385:
 5173 000c 00000000 		.word	.LANCHOR10
 5174              		.cfi_endproc
 5175              	.LFE275:
 5176              		.size	mcpwm_foc_get_switching_frequency_now, .-mcpwm_foc_get_switching_frequency_now
 5177              		.section	.text.mcpwm_foc_get_sampling_frequency_now,"ax",%progbits
 5178              		.align	2
 5179              		.p2align 4,,15
 5180              		.global	mcpwm_foc_get_sampling_frequency_now
 5181              		.thumb
 5182              		.thumb_func
 5183              		.type	mcpwm_foc_get_sampling_frequency_now, %function
 5184              	mcpwm_foc_get_sampling_frequency_now:
 5185              	.LFB276:
 5186              		.loc 1 709 0
 5187              		.cfi_startproc
ARM GAS  /var/folders/sv/kgmgr77579zbf78p2zlhkdfr0000gn/T//ccXbx0Pt.s 			page 92


 5188              		@ args = 0, pretend = 0, frame = 0
 5189              		@ frame_needed = 0, uses_anonymous_args = 0
 5190              		@ link register save eliminated.
 5191              		.loc 1 717 0
 5192 0000 044B     		ldr	r3, .L388
 5193 0002 1B68     		ldr	r3, [r3]
 5194 0004 93ED2B0A 		vldr.32	s0, [r3, #172]
 5195 0008 F6EE007A 		vmov.f32	s15, #5.0e-1
 5196              		.loc 1 719 0
 5197 000c 20EE270A 		vmul.f32	s0, s0, s15
 5198 0010 7047     		bx	lr
 5199              	.L389:
 5200 0012 00BF     		.align	2
 5201              	.L388:
 5202 0014 00000000 		.word	.LANCHOR10
 5203              		.cfi_endproc
 5204              	.LFE276:
 5205              		.size	mcpwm_foc_get_sampling_frequency_now, .-mcpwm_foc_get_sampling_frequency_now
 5206              		.section	.text.mcpwm_foc_get_rpm,"ax",%progbits
 5207              		.align	2
 5208              		.p2align 4,,15
 5209              		.global	mcpwm_foc_get_rpm
 5210              		.thumb
 5211              		.thumb_func
 5212              		.type	mcpwm_foc_get_rpm, %function
 5213              	mcpwm_foc_get_rpm:
 5214              	.LFB277:
 5215              		.loc 1 729 0
 5216              		.cfi_startproc
 5217              		@ args = 0, pretend = 0, frame = 0
 5218              		@ frame_needed = 0, uses_anonymous_args = 0
 5219              		@ link register save eliminated.
 5220              		.loc 1 730 0
 5221 0000 054B     		ldr	r3, .L391
 5222 0002 9FED067A 		vldr.32	s14, .L391+4
 5223 0006 D3ED007A 		vldr.32	s15, [r3]
 5224 000a 9FED050A 		vldr.32	s0, .L391+8
 5225 000e 67EE877A 		vmul.f32	s15, s15, s14
 5226              		.loc 1 731 0
 5227 0012 87EE800A 		vdiv.f32	s0, s15, s0
 5228 0016 7047     		bx	lr
 5229              	.L392:
 5230              		.align	2
 5231              	.L391:
 5232 0018 00000000 		.word	.LANCHOR8
 5233 001c 00003443 		.word	1127481344
 5234 0020 DB0F4940 		.word	1078530011
 5235              		.cfi_endproc
 5236              	.LFE277:
 5237              		.size	mcpwm_foc_get_rpm, .-mcpwm_foc_get_rpm
 5238              		.section	.text.mcpwm_foc_get_tot_current,"ax",%progbits
 5239              		.align	2
 5240              		.p2align 4,,15
 5241              		.global	mcpwm_foc_get_tot_current
 5242              		.thumb
 5243              		.thumb_func
 5244              		.type	mcpwm_foc_get_tot_current, %function
ARM GAS  /var/folders/sv/kgmgr77579zbf78p2zlhkdfr0000gn/T//ccXbx0Pt.s 			page 93


 5245              	mcpwm_foc_get_tot_current:
 5246              	.LFB278:
 5247              		.loc 1 741 0
 5248              		.cfi_startproc
 5249              		@ args = 0, pretend = 0, frame = 0
 5250              		@ frame_needed = 0, uses_anonymous_args = 0
 5251              		@ link register save eliminated.
 5252              		.loc 1 742 0
 5253 0000 094B     		ldr	r3, .L396
 5254 0002 D3ED147A 		vldr.32	s15, [r3, #80]
 5255 0006 93ED100A 		vldr.32	s0, [r3, #64]
 5256 000a F5EEC07A 		vcmpe.f32	s15, #0
 5257 000e F1EE10FA 		vmrs	APSR_nzcv, FPSCR
 5258 0012 B7EE007A 		vmov.f32	s14, #1.0e+0
 5259 0016 FFEE007A 		vmov.f32	s15, #-1.0e+0
 5260 001a 58BF     		it	pl
 5261 001c F0EE477A 		vmovpl.f32	s15, s14
 5262              		.loc 1 743 0
 5263 0020 27EE800A 		vmul.f32	s0, s15, s0
 5264 0024 7047     		bx	lr
 5265              	.L397:
 5266 0026 00BF     		.align	2
 5267              	.L396:
 5268 0028 00000000 		.word	.LANCHOR3
 5269              		.cfi_endproc
 5270              	.LFE278:
 5271              		.size	mcpwm_foc_get_tot_current, .-mcpwm_foc_get_tot_current
 5272              		.section	.text.mcpwm_foc_get_tot_current_filtered,"ax",%progbits
 5273              		.align	2
 5274              		.p2align 4,,15
 5275              		.global	mcpwm_foc_get_tot_current_filtered
 5276              		.thumb
 5277              		.thumb_func
 5278              		.type	mcpwm_foc_get_tot_current_filtered, %function
 5279              	mcpwm_foc_get_tot_current_filtered:
 5280              	.LFB279:
 5281              		.loc 1 753 0
 5282              		.cfi_startproc
 5283              		@ args = 0, pretend = 0, frame = 0
 5284              		@ frame_needed = 0, uses_anonymous_args = 0
 5285              		@ link register save eliminated.
 5286              		.loc 1 754 0
 5287 0000 094B     		ldr	r3, .L401
 5288 0002 D3ED147A 		vldr.32	s15, [r3, #80]
 5289 0006 93ED120A 		vldr.32	s0, [r3, #72]
 5290 000a F5EEC07A 		vcmpe.f32	s15, #0
 5291 000e F1EE10FA 		vmrs	APSR_nzcv, FPSCR
 5292 0012 B7EE007A 		vmov.f32	s14, #1.0e+0
 5293 0016 FFEE007A 		vmov.f32	s15, #-1.0e+0
 5294 001a 58BF     		it	pl
 5295 001c F0EE477A 		vmovpl.f32	s15, s14
 5296              		.loc 1 755 0
 5297 0020 27EE800A 		vmul.f32	s0, s15, s0
 5298 0024 7047     		bx	lr
 5299              	.L402:
 5300 0026 00BF     		.align	2
 5301              	.L401:
ARM GAS  /var/folders/sv/kgmgr77579zbf78p2zlhkdfr0000gn/T//ccXbx0Pt.s 			page 94


 5302 0028 00000000 		.word	.LANCHOR3
 5303              		.cfi_endproc
 5304              	.LFE279:
 5305              		.size	mcpwm_foc_get_tot_current_filtered, .-mcpwm_foc_get_tot_current_filtered
 5306              		.section	.text.mcpwm_foc_get_abs_motor_current,"ax",%progbits
 5307              		.align	2
 5308              		.p2align 4,,15
 5309              		.global	mcpwm_foc_get_abs_motor_current
 5310              		.thumb
 5311              		.thumb_func
 5312              		.type	mcpwm_foc_get_abs_motor_current, %function
 5313              	mcpwm_foc_get_abs_motor_current:
 5314              	.LFB280:
 5315              		.loc 1 764 0
 5316              		.cfi_startproc
 5317              		@ args = 0, pretend = 0, frame = 0
 5318              		@ frame_needed = 0, uses_anonymous_args = 0
 5319              		@ link register save eliminated.
 5320              		.loc 1 765 0
 5321 0000 014B     		ldr	r3, .L404
 5322 0002 93ED070A 		vldr.32	s0, [r3, #28]
 5323              		.loc 1 766 0
 5324 0006 7047     		bx	lr
 5325              	.L405:
 5326              		.align	2
 5327              	.L404:
 5328 0008 00000000 		.word	.LANCHOR3
 5329              		.cfi_endproc
 5330              	.LFE280:
 5331              		.size	mcpwm_foc_get_abs_motor_current, .-mcpwm_foc_get_abs_motor_current
 5332              		.section	.text.mcpwm_foc_get_abs_motor_voltage,"ax",%progbits
 5333              		.align	2
 5334              		.p2align 4,,15
 5335              		.global	mcpwm_foc_get_abs_motor_voltage
 5336              		.thumb
 5337              		.thumb_func
 5338              		.type	mcpwm_foc_get_abs_motor_voltage, %function
 5339              	mcpwm_foc_get_abs_motor_voltage:
 5340              	.LFB281:
 5341              		.loc 1 774 0
 5342              		.cfi_startproc
 5343              		@ args = 0, pretend = 0, frame = 0
 5344              		@ frame_needed = 0, uses_anonymous_args = 0
 5345 0000 08B5     		push	{r3, lr}
 5346              		.cfi_def_cfa_offset 8
 5347              		.cfi_offset 3, -8
 5348              		.cfi_offset 14, -4
 5349              		.loc 1 775 0
 5350 0002 0B4B     		ldr	r3, .L410
 5351 0004 93ED137A 		vldr.32	s14, [r3, #76]
 5352              	.LVL385:
 5353              		.loc 1 776 0
 5354 0008 93ED140A 		vldr.32	s0, [r3, #80]
 5355              	.LVL386:
 5356              		.loc 1 777 0
 5357 000c 60EE007A 		vmul.f32	s15, s0, s0
 5358 0010 E7EE077A 		vfma.f32	s15, s14, s14
ARM GAS  /var/folders/sv/kgmgr77579zbf78p2zlhkdfr0000gn/T//ccXbx0Pt.s 			page 95


 5359 0014 B1EEE70A 		vsqrt.f32	s0, s15
 5360              	.LVL387:
 5361 0018 B4EE400A 		vcmp.f32	s0, s0
 5362 001c F1EE10FA 		vmrs	APSR_nzcv, FPSCR
 5363 0020 00D1     		bne	.L409
 5364              	.LVL388:
 5365              	.L407:
 5366              		.loc 1 778 0
 5367 0022 08BD     		pop	{r3, pc}
 5368              	.LVL389:
 5369              	.L409:
 5370              		.loc 1 777 0
 5371 0024 B0EE670A 		vmov.f32	s0, s15
 5372 0028 FFF7FEFF 		bl	sqrtf
 5373              	.LVL390:
 5374 002c F9E7     		b	.L407
 5375              	.L411:
 5376 002e 00BF     		.align	2
 5377              	.L410:
 5378 0030 00000000 		.word	.LANCHOR3
 5379              		.cfi_endproc
 5380              	.LFE281:
 5381              		.size	mcpwm_foc_get_abs_motor_voltage, .-mcpwm_foc_get_abs_motor_voltage
 5382              		.section	.text.mcpwm_foc_get_abs_motor_current_filtered,"ax",%progbits
 5383              		.align	2
 5384              		.p2align 4,,15
 5385              		.global	mcpwm_foc_get_abs_motor_current_filtered
 5386              		.thumb
 5387              		.thumb_func
 5388              		.type	mcpwm_foc_get_abs_motor_current_filtered, %function
 5389              	mcpwm_foc_get_abs_motor_current_filtered:
 5390              	.LFB282:
 5391              		.loc 1 787 0
 5392              		.cfi_startproc
 5393              		@ args = 0, pretend = 0, frame = 0
 5394              		@ frame_needed = 0, uses_anonymous_args = 0
 5395              		@ link register save eliminated.
 5396              		.loc 1 788 0
 5397 0000 014B     		ldr	r3, .L413
 5398 0002 93ED080A 		vldr.32	s0, [r3, #32]
 5399              		.loc 1 789 0
 5400 0006 7047     		bx	lr
 5401              	.L414:
 5402              		.align	2
 5403              	.L413:
 5404 0008 00000000 		.word	.LANCHOR3
 5405              		.cfi_endproc
 5406              	.LFE282:
 5407              		.size	mcpwm_foc_get_abs_motor_current_filtered, .-mcpwm_foc_get_abs_motor_current_filtered
 5408              		.section	.text.mcpwm_foc_get_tot_current_directional,"ax",%progbits
 5409              		.align	2
 5410              		.p2align 4,,15
 5411              		.global	mcpwm_foc_get_tot_current_directional
 5412              		.thumb
 5413              		.thumb_func
 5414              		.type	mcpwm_foc_get_tot_current_directional, %function
 5415              	mcpwm_foc_get_tot_current_directional:
ARM GAS  /var/folders/sv/kgmgr77579zbf78p2zlhkdfr0000gn/T//ccXbx0Pt.s 			page 96


 5416              	.LFB320:
 5417              		.cfi_startproc
 5418              		@ args = 0, pretend = 0, frame = 0
 5419              		@ frame_needed = 0, uses_anonymous_args = 0
 5420              		@ link register save eliminated.
 5421 0000 014B     		ldr	r3, .L416
 5422 0002 93ED100A 		vldr.32	s0, [r3, #64]
 5423 0006 7047     		bx	lr
 5424              	.L417:
 5425              		.align	2
 5426              	.L416:
 5427 0008 00000000 		.word	.LANCHOR3
 5428              		.cfi_endproc
 5429              	.LFE320:
 5430              		.size	mcpwm_foc_get_tot_current_directional, .-mcpwm_foc_get_tot_current_directional
 5431              		.section	.text.mcpwm_foc_get_tot_current_directional_filtered,"ax",%progbits
 5432              		.align	2
 5433              		.p2align 4,,15
 5434              		.global	mcpwm_foc_get_tot_current_directional_filtered
 5435              		.thumb
 5436              		.thumb_func
 5437              		.type	mcpwm_foc_get_tot_current_directional_filtered, %function
 5438              	mcpwm_foc_get_tot_current_directional_filtered:
 5439              	.LFB284:
 5440              		.loc 1 809 0
 5441              		.cfi_startproc
 5442              		@ args = 0, pretend = 0, frame = 0
 5443              		@ frame_needed = 0, uses_anonymous_args = 0
 5444              		@ link register save eliminated.
 5445              		.loc 1 810 0
 5446 0000 014B     		ldr	r3, .L419
 5447 0002 93ED120A 		vldr.32	s0, [r3, #72]
 5448              		.loc 1 811 0
 5449 0006 7047     		bx	lr
 5450              	.L420:
 5451              		.align	2
 5452              	.L419:
 5453 0008 00000000 		.word	.LANCHOR3
 5454              		.cfi_endproc
 5455              	.LFE284:
 5456              		.size	mcpwm_foc_get_tot_current_directional_filtered, .-mcpwm_foc_get_tot_current_directional_filt
 5457              		.section	.text.mcpwm_foc_get_id,"ax",%progbits
 5458              		.align	2
 5459              		.p2align 4,,15
 5460              		.global	mcpwm_foc_get_id
 5461              		.thumb
 5462              		.thumb_func
 5463              		.type	mcpwm_foc_get_id, %function
 5464              	mcpwm_foc_get_id:
 5465              	.LFB285:
 5466              		.loc 1 819 0
 5467              		.cfi_startproc
 5468              		@ args = 0, pretend = 0, frame = 0
 5469              		@ frame_needed = 0, uses_anonymous_args = 0
 5470              		@ link register save eliminated.
 5471              		.loc 1 820 0
 5472 0000 014B     		ldr	r3, .L422
ARM GAS  /var/folders/sv/kgmgr77579zbf78p2zlhkdfr0000gn/T//ccXbx0Pt.s 			page 97


 5473 0002 93ED0F0A 		vldr.32	s0, [r3, #60]
 5474              		.loc 1 821 0
 5475 0006 7047     		bx	lr
 5476              	.L423:
 5477              		.align	2
 5478              	.L422:
 5479 0008 00000000 		.word	.LANCHOR3
 5480              		.cfi_endproc
 5481              	.LFE285:
 5482              		.size	mcpwm_foc_get_id, .-mcpwm_foc_get_id
 5483              		.section	.text.mcpwm_foc_get_iq,"ax",%progbits
 5484              		.align	2
 5485              		.p2align 4,,15
 5486              		.global	mcpwm_foc_get_iq
 5487              		.thumb
 5488              		.thumb_func
 5489              		.type	mcpwm_foc_get_iq, %function
 5490              	mcpwm_foc_get_iq:
 5491              	.LFB286:
 5492              		.loc 1 829 0
 5493              		.cfi_startproc
 5494              		@ args = 0, pretend = 0, frame = 0
 5495              		@ frame_needed = 0, uses_anonymous_args = 0
 5496              		@ link register save eliminated.
 5497              		.loc 1 830 0
 5498 0000 014B     		ldr	r3, .L425
 5499 0002 93ED100A 		vldr.32	s0, [r3, #64]
 5500              		.loc 1 831 0
 5501 0006 7047     		bx	lr
 5502              	.L426:
 5503              		.align	2
 5504              	.L425:
 5505 0008 00000000 		.word	.LANCHOR3
 5506              		.cfi_endproc
 5507              	.LFE286:
 5508              		.size	mcpwm_foc_get_iq, .-mcpwm_foc_get_iq
 5509              		.section	.text.mcpwm_foc_get_tot_current_in,"ax",%progbits
 5510              		.align	2
 5511              		.p2align 4,,15
 5512              		.global	mcpwm_foc_get_tot_current_in
 5513              		.thumb
 5514              		.thumb_func
 5515              		.type	mcpwm_foc_get_tot_current_in, %function
 5516              	mcpwm_foc_get_tot_current_in:
 5517              	.LFB318:
 5518              		.cfi_startproc
 5519              		@ args = 0, pretend = 0, frame = 0
 5520              		@ frame_needed = 0, uses_anonymous_args = 0
 5521              		@ link register save eliminated.
 5522 0000 014B     		ldr	r3, .L428
 5523 0002 93ED090A 		vldr.32	s0, [r3, #36]
 5524 0006 7047     		bx	lr
 5525              	.L429:
 5526              		.align	2
 5527              	.L428:
 5528 0008 00000000 		.word	.LANCHOR3
 5529              		.cfi_endproc
ARM GAS  /var/folders/sv/kgmgr77579zbf78p2zlhkdfr0000gn/T//ccXbx0Pt.s 			page 98


 5530              	.LFE318:
 5531              		.size	mcpwm_foc_get_tot_current_in, .-mcpwm_foc_get_tot_current_in
 5532              		.section	.text.mcpwm_foc_get_tot_current_in_filtered,"ax",%progbits
 5533              		.align	2
 5534              		.p2align 4,,15
 5535              		.global	mcpwm_foc_get_tot_current_in_filtered
 5536              		.thumb
 5537              		.thumb_func
 5538              		.type	mcpwm_foc_get_tot_current_in_filtered, %function
 5539              	mcpwm_foc_get_tot_current_in_filtered:
 5540              	.LFB288:
 5541              		.loc 1 849 0
 5542              		.cfi_startproc
 5543              		@ args = 0, pretend = 0, frame = 0
 5544              		@ frame_needed = 0, uses_anonymous_args = 0
 5545              		@ link register save eliminated.
 5546              		.loc 1 850 0
 5547 0000 014B     		ldr	r3, .L431
 5548 0002 93ED090A 		vldr.32	s0, [r3, #36]
 5549              		.loc 1 851 0
 5550 0006 7047     		bx	lr
 5551              	.L432:
 5552              		.align	2
 5553              	.L431:
 5554 0008 00000000 		.word	.LANCHOR3
 5555              		.cfi_endproc
 5556              	.LFE288:
 5557              		.size	mcpwm_foc_get_tot_current_in_filtered, .-mcpwm_foc_get_tot_current_in_filtered
 5558              		.section	.text.mcpwm_foc_get_tachometer_value,"ax",%progbits
 5559              		.align	2
 5560              		.p2align 4,,15
 5561              		.global	mcpwm_foc_get_tachometer_value
 5562              		.thumb
 5563              		.thumb_func
 5564              		.type	mcpwm_foc_get_tachometer_value, %function
 5565              	mcpwm_foc_get_tachometer_value:
 5566              	.LFB289:
 5567              		.loc 1 864 0
 5568              		.cfi_startproc
 5569              		@ args = 0, pretend = 0, frame = 0
 5570              		@ frame_needed = 0, uses_anonymous_args = 0
 5571              		@ link register save eliminated.
 5572              	.LVL391:
 5573              		.loc 1 865 0
 5574 0000 034B     		ldr	r3, .L438
 5575 0002 1A68     		ldr	r2, [r3]
 5576              	.LVL392:
 5577              		.loc 1 867 0
 5578 0004 08B1     		cbz	r0, .L434
 5579              		.loc 1 868 0
 5580 0006 0021     		movs	r1, #0
 5581 0008 1960     		str	r1, [r3]
 5582              	.L434:
 5583              		.loc 1 872 0
 5584 000a 1046     		mov	r0, r2
 5585              	.LVL393:
 5586 000c 7047     		bx	lr
ARM GAS  /var/folders/sv/kgmgr77579zbf78p2zlhkdfr0000gn/T//ccXbx0Pt.s 			page 99


 5587              	.L439:
 5588 000e 00BF     		.align	2
 5589              	.L438:
 5590 0010 00000000 		.word	.LANCHOR53
 5591              		.cfi_endproc
 5592              	.LFE289:
 5593              		.size	mcpwm_foc_get_tachometer_value, .-mcpwm_foc_get_tachometer_value
 5594              		.section	.text.mcpwm_foc_get_tachometer_abs_value,"ax",%progbits
 5595              		.align	2
 5596              		.p2align 4,,15
 5597              		.global	mcpwm_foc_get_tachometer_abs_value
 5598              		.thumb
 5599              		.thumb_func
 5600              		.type	mcpwm_foc_get_tachometer_abs_value, %function
 5601              	mcpwm_foc_get_tachometer_abs_value:
 5602              	.LFB290:
 5603              		.loc 1 884 0
 5604              		.cfi_startproc
 5605              		@ args = 0, pretend = 0, frame = 0
 5606              		@ frame_needed = 0, uses_anonymous_args = 0
 5607              		@ link register save eliminated.
 5608              	.LVL394:
 5609              		.loc 1 885 0
 5610 0000 034B     		ldr	r3, .L445
 5611 0002 1A68     		ldr	r2, [r3]
 5612              	.LVL395:
 5613              		.loc 1 887 0
 5614 0004 08B1     		cbz	r0, .L441
 5615              		.loc 1 888 0
 5616 0006 0021     		movs	r1, #0
 5617 0008 1960     		str	r1, [r3]
 5618              	.L441:
 5619              		.loc 1 892 0
 5620 000a 1046     		mov	r0, r2
 5621              	.LVL396:
 5622 000c 7047     		bx	lr
 5623              	.L446:
 5624 000e 00BF     		.align	2
 5625              	.L445:
 5626 0010 00000000 		.word	.LANCHOR54
 5627              		.cfi_endproc
 5628              	.LFE290:
 5629              		.size	mcpwm_foc_get_tachometer_abs_value, .-mcpwm_foc_get_tachometer_abs_value
 5630              		.section	.text.mcpwm_foc_get_phase,"ax",%progbits
 5631              		.align	2
 5632              		.p2align 4,,15
 5633              		.global	mcpwm_foc_get_phase
 5634              		.thumb
 5635              		.thumb_func
 5636              		.type	mcpwm_foc_get_phase, %function
 5637              	mcpwm_foc_get_phase:
 5638              	.LFB291:
 5639              		.loc 1 900 0
 5640              		.cfi_startproc
 5641              		@ args = 0, pretend = 0, frame = 8
 5642              		@ frame_needed = 0, uses_anonymous_args = 0
 5643 0000 00B5     		push	{lr}
ARM GAS  /var/folders/sv/kgmgr77579zbf78p2zlhkdfr0000gn/T//ccXbx0Pt.s 			page 100


 5644              		.cfi_def_cfa_offset 4
 5645              		.cfi_offset 14, -4
 5646              		.loc 1 901 0
 5647 0002 094B     		ldr	r3, .L449
 5648 0004 9FED097A 		vldr.32	s14, .L449+4
 5649 0008 D3ED047A 		vldr.32	s15, [r3, #16]
 5650              		.loc 1 900 0
 5651 000c 83B0     		sub	sp, sp, #12
 5652              		.cfi_def_cfa_offset 16
 5653              		.loc 1 901 0
 5654 000e 67EE877A 		vmul.f32	s15, s15, s14
 5655 0012 02A8     		add	r0, sp, #8
 5656 0014 60ED017A 		vstmdb.32	r0!, {s15}
 5657              		.loc 1 902 0
 5658 0018 FFF7FEFF 		bl	utils_norm_angle
 5659              	.LVL397:
 5660              		.loc 1 904 0
 5661 001c 9DED010A 		vldr.32	s0, [sp, #4]
 5662 0020 03B0     		add	sp, sp, #12
 5663              		.cfi_def_cfa_offset 4
 5664              		@ sp needed
 5665 0022 5DF804FB 		ldr	pc, [sp], #4
 5666              	.L450:
 5667 0026 00BF     		.align	2
 5668              	.L449:
 5669 0028 00000000 		.word	.LANCHOR3
 5670 002c E02E6542 		.word	1113927392
 5671              		.cfi_endproc
 5672              	.LFE291:
 5673              		.size	mcpwm_foc_get_phase, .-mcpwm_foc_get_phase
 5674              		.section	.text.mcpwm_foc_get_phase_observer,"ax",%progbits
 5675              		.align	2
 5676              		.p2align 4,,15
 5677              		.global	mcpwm_foc_get_phase_observer
 5678              		.thumb
 5679              		.thumb_func
 5680              		.type	mcpwm_foc_get_phase_observer, %function
 5681              	mcpwm_foc_get_phase_observer:
 5682              	.LFB292:
 5683              		.loc 1 912 0
 5684              		.cfi_startproc
 5685              		@ args = 0, pretend = 0, frame = 8
 5686              		@ frame_needed = 0, uses_anonymous_args = 0
 5687 0000 00B5     		push	{lr}
 5688              		.cfi_def_cfa_offset 4
 5689              		.cfi_offset 14, -4
 5690              		.loc 1 913 0
 5691 0002 094B     		ldr	r3, .L453
 5692 0004 9FED097A 		vldr.32	s14, .L453+4
 5693 0008 D3ED007A 		vldr.32	s15, [r3]
 5694              		.loc 1 912 0
 5695 000c 83B0     		sub	sp, sp, #12
 5696              		.cfi_def_cfa_offset 16
 5697              		.loc 1 913 0
 5698 000e 67EE877A 		vmul.f32	s15, s15, s14
 5699 0012 02A8     		add	r0, sp, #8
 5700 0014 60ED017A 		vstmdb.32	r0!, {s15}
ARM GAS  /var/folders/sv/kgmgr77579zbf78p2zlhkdfr0000gn/T//ccXbx0Pt.s 			page 101


 5701              		.loc 1 914 0
 5702 0018 FFF7FEFF 		bl	utils_norm_angle
 5703              	.LVL398:
 5704              		.loc 1 916 0
 5705 001c 9DED010A 		vldr.32	s0, [sp, #4]
 5706 0020 03B0     		add	sp, sp, #12
 5707              		.cfi_def_cfa_offset 4
 5708              		@ sp needed
 5709 0022 5DF804FB 		ldr	pc, [sp], #4
 5710              	.L454:
 5711 0026 00BF     		.align	2
 5712              	.L453:
 5713 0028 00000000 		.word	.LANCHOR47
 5714 002c E02E6542 		.word	1113927392
 5715              		.cfi_endproc
 5716              	.LFE292:
 5717              		.size	mcpwm_foc_get_phase_observer, .-mcpwm_foc_get_phase_observer
 5718              		.section	.text.mcpwm_foc_get_phase_encoder,"ax",%progbits
 5719              		.align	2
 5720              		.p2align 4,,15
 5721              		.global	mcpwm_foc_get_phase_encoder
 5722              		.thumb
 5723              		.thumb_func
 5724              		.type	mcpwm_foc_get_phase_encoder, %function
 5725              	mcpwm_foc_get_phase_encoder:
 5726              	.LFB293:
 5727              		.loc 1 924 0
 5728              		.cfi_startproc
 5729              		@ args = 0, pretend = 0, frame = 8
 5730              		@ frame_needed = 0, uses_anonymous_args = 0
 5731 0000 00B5     		push	{lr}
 5732              		.cfi_def_cfa_offset 4
 5733              		.cfi_offset 14, -4
 5734              		.loc 1 925 0
 5735 0002 094B     		ldr	r3, .L457
 5736 0004 9FED097A 		vldr.32	s14, .L457+4
 5737 0008 D3ED007A 		vldr.32	s15, [r3]
 5738              		.loc 1 924 0
 5739 000c 83B0     		sub	sp, sp, #12
 5740              		.cfi_def_cfa_offset 16
 5741              		.loc 1 925 0
 5742 000e 67EE877A 		vmul.f32	s15, s15, s14
 5743 0012 02A8     		add	r0, sp, #8
 5744 0014 60ED017A 		vstmdb.32	r0!, {s15}
 5745              		.loc 1 926 0
 5746 0018 FFF7FEFF 		bl	utils_norm_angle
 5747              	.LVL399:
 5748              		.loc 1 928 0
 5749 001c 9DED010A 		vldr.32	s0, [sp, #4]
 5750 0020 03B0     		add	sp, sp, #12
 5751              		.cfi_def_cfa_offset 4
 5752              		@ sp needed
 5753 0022 5DF804FB 		ldr	pc, [sp], #4
 5754              	.L458:
 5755 0026 00BF     		.align	2
 5756              	.L457:
 5757 0028 00000000 		.word	.LANCHOR19
ARM GAS  /var/folders/sv/kgmgr77579zbf78p2zlhkdfr0000gn/T//ccXbx0Pt.s 			page 102


 5758 002c E02E6542 		.word	1113927392
 5759              		.cfi_endproc
 5760              	.LFE293:
 5761              		.size	mcpwm_foc_get_phase_encoder, .-mcpwm_foc_get_phase_encoder
 5762              		.section	.text.mcpwm_foc_get_vd,"ax",%progbits
 5763              		.align	2
 5764              		.p2align 4,,15
 5765              		.global	mcpwm_foc_get_vd
 5766              		.thumb
 5767              		.thumb_func
 5768              		.type	mcpwm_foc_get_vd, %function
 5769              	mcpwm_foc_get_vd:
 5770              	.LFB294:
 5771              		.loc 1 930 0
 5772              		.cfi_startproc
 5773              		@ args = 0, pretend = 0, frame = 0
 5774              		@ frame_needed = 0, uses_anonymous_args = 0
 5775              		@ link register save eliminated.
 5776              		.loc 1 931 0
 5777 0000 014B     		ldr	r3, .L460
 5778 0002 93ED130A 		vldr.32	s0, [r3, #76]
 5779              		.loc 1 932 0
 5780 0006 7047     		bx	lr
 5781              	.L461:
 5782              		.align	2
 5783              	.L460:
 5784 0008 00000000 		.word	.LANCHOR3
 5785              		.cfi_endproc
 5786              	.LFE294:
 5787              		.size	mcpwm_foc_get_vd, .-mcpwm_foc_get_vd
 5788              		.section	.text.mcpwm_foc_get_vq,"ax",%progbits
 5789              		.align	2
 5790              		.p2align 4,,15
 5791              		.global	mcpwm_foc_get_vq
 5792              		.thumb
 5793              		.thumb_func
 5794              		.type	mcpwm_foc_get_vq, %function
 5795              	mcpwm_foc_get_vq:
 5796              	.LFB295:
 5797              		.loc 1 934 0
 5798              		.cfi_startproc
 5799              		@ args = 0, pretend = 0, frame = 0
 5800              		@ frame_needed = 0, uses_anonymous_args = 0
 5801              		@ link register save eliminated.
 5802              		.loc 1 935 0
 5803 0000 014B     		ldr	r3, .L463
 5804 0002 93ED140A 		vldr.32	s0, [r3, #80]
 5805              		.loc 1 936 0
 5806 0006 7047     		bx	lr
 5807              	.L464:
 5808              		.align	2
 5809              	.L463:
 5810 0008 00000000 		.word	.LANCHOR3
 5811              		.cfi_endproc
 5812              	.LFE295:
 5813              		.size	mcpwm_foc_get_vq, .-mcpwm_foc_get_vq
 5814              		.global	__aeabi_f2d
ARM GAS  /var/folders/sv/kgmgr77579zbf78p2zlhkdfr0000gn/T//ccXbx0Pt.s 			page 103


 5815              		.section	.text.mcpwm_foc_encoder_detect,"ax",%progbits
 5816              		.align	2
 5817              		.p2align 4,,15
 5818              		.global	mcpwm_foc_encoder_detect
 5819              		.thumb
 5820              		.thumb_func
 5821              		.type	mcpwm_foc_encoder_detect, %function
 5822              	mcpwm_foc_encoder_detect:
 5823              	.LFB296:
 5824              		.loc 1 953 0
 5825              		.cfi_startproc
 5826              		@ args = 0, pretend = 0, frame = 16
 5827              		@ frame_needed = 0, uses_anonymous_args = 0
 5828              	.LVL400:
 5829 0000 2DE9F04F 		push	{r4, r5, r6, r7, r8, r9, r10, fp, lr}
 5830              		.cfi_def_cfa_offset 36
 5831              		.cfi_offset 4, -36
 5832              		.cfi_offset 5, -32
 5833              		.cfi_offset 6, -28
 5834              		.cfi_offset 7, -24
 5835              		.cfi_offset 8, -20
 5836              		.cfi_offset 9, -16
 5837              		.cfi_offset 10, -12
 5838              		.cfi_offset 11, -8
 5839              		.cfi_offset 14, -4
 5840 0004 2DED0E8B 		vpush.64	{d8, d9, d10, d11, d12, d13, d14}
 5841              		.cfi_def_cfa_offset 92
 5842              		.cfi_offset 80, -92
 5843              		.cfi_offset 81, -88
 5844              		.cfi_offset 82, -84
 5845              		.cfi_offset 83, -80
 5846              		.cfi_offset 84, -76
 5847              		.cfi_offset 85, -72
 5848              		.cfi_offset 86, -68
 5849              		.cfi_offset 87, -64
 5850              		.cfi_offset 88, -60
 5851              		.cfi_offset 89, -56
 5852              		.cfi_offset 90, -52
 5853              		.cfi_offset 91, -48
 5854              		.cfi_offset 92, -44
 5855              		.cfi_offset 93, -40
 5856 0008 85B0     		sub	sp, sp, #20
 5857              		.cfi_def_cfa_offset 112
 5858              		.loc 1 953 0
 5859 000a B0EE409A 		vmov.f32	s18, s0
 5860 000e 0746     		mov	r7, r0
 5861 0010 8A46     		mov	r10, r1
 5862 0012 0192     		str	r2, [sp, #4]
 5863 0014 9846     		mov	r8, r3
 5864              		.loc 1 954 0
 5865 0016 FFF7FEFF 		bl	mc_interface_lock
 5866              	.LVL401:
 5867              		.loc 1 956 0
 5868 001a E249     		ldr	r1, .L548
 5869              		.loc 1 958 0
 5870 001c 9FEDE28A 		vldr.32	s16, .L548+4
 5871 0020 DFF8BCB3 		ldr	fp, .L548+60
ARM GAS  /var/folders/sv/kgmgr77579zbf78p2zlhkdfr0000gn/T//ccXbx0Pt.s 			page 104


 5872              		.loc 1 969 0
 5873 0024 DFF8BC93 		ldr	r9, .L548+64
 5874              	.LBB261:
 5875              		.loc 1 980 0
 5876 0028 DFEDE08A 		vldr.32	s17, .L548+8
 5877 002c E04C     		ldr	r4, .L548+12
 5878              	.LBE261:
 5879              		.loc 1 956 0
 5880 002e 0122     		movs	r2, #1
 5881 0030 0A70     		strb	r2, [r1]
 5882              		.loc 1 957 0
 5883 0032 E04A     		ldr	r2, .L548+16
 5884 0034 82ED009A 		vstr.32	s18, [r2]
 5885              		.loc 1 959 0
 5886 0038 DF4A     		ldr	r2, .L548+20
 5887              		.loc 1 958 0
 5888 003a 8BED008A 		vstr.32	s16, [fp]
 5889              		.loc 1 959 0
 5890 003e 0223     		movs	r3, #2
 5891 0040 1370     		strb	r3, [r2]
 5892              		.loc 1 960 0
 5893 0042 DE4A     		ldr	r2, .L548+24
 5894 0044 1370     		strb	r3, [r2]
 5895              		.loc 1 963 0
 5896 0046 FFF7FEFF 		bl	timeout_get_timeout_msec
 5897              	.LVL402:
 5898 004a 0090     		str	r0, [sp]
 5899              	.LVL403:
 5900              		.loc 1 964 0
 5901 004c FFF7FEFF 		bl	timeout_get_brake_current
 5902              	.LVL404:
 5903 0050 B0EE40AA 		vmov.f32	s20, s0
 5904              	.LVL405:
 5905              		.loc 1 965 0
 5906 0054 FFF7FEFF 		bl	timeout_reset
 5907              	.LVL406:
 5908              		.loc 1 966 0
 5909 0058 B0EE480A 		vmov.f32	s0, s16
 5910 005c D848     		ldr	r0, .L548+28
 5911 005e FFF7FEFF 		bl	timeout_configure
 5912              	.LVL407:
 5913              		.loc 1 969 0
 5914 0062 D9F80030 		ldr	r3, [r9]
 5915 0066 D3ED2DAA 		vldr.32	s21, [r3, #180]
 5916              	.LVL408:
 5917              		.loc 1 970 0
 5918 006a 93F8B820 		ldrb	r2, [r3, #184]	@ zero_extendqisi2
 5919              		.loc 1 971 0
 5920 006e 93ED2FBA 		vldr.32	s22, [r3, #188]
 5921              		.loc 1 973 0
 5922 0072 83ED2D8A 		vstr.32	s16, [r3, #180]
 5923              		.loc 1 970 0
 5924 0076 09EE902A 		vmov	s19, r2	@ int
 5925              		.loc 1 974 0
 5926 007a 0022     		movs	r2, #0
 5927 007c 83F8B820 		strb	r2, [r3, #184]
 5928              		.loc 1 970 0
ARM GAS  /var/folders/sv/kgmgr77579zbf78p2zlhkdfr0000gn/T//ccXbx0Pt.s 			page 105


 5929 0080 F8EE699A 		vcvt.f32.u32	s19, s19
 5930              	.LVL409:
 5931              		.loc 1 975 0
 5932 0084 4FF07E52 		mov	r2, #1065353216
 5933 0088 C3F8BC20 		str	r2, [r3, #188]	@ float
 5934              		.loc 1 979 0
 5935 008c 1F25     		movs	r5, #31
 5936              	.LVL410:
 5937              	.L466:
 5938 008e FFF7FEFF 		bl	encoder_index_found
 5939              	.LVL411:
 5940 0092 70B9     		cbnz	r0, .L470
 5941 0094 9FEDC48A 		vldr.32	s16, .L548+4
 5942 0098 4FF4FA76 		mov	r6, #500
 5943              	.L467:
 5944              	.LVL412:
 5945              	.LBB262:
 5946              		.loc 1 982 0 discriminator 3
 5947 009c 0A20     		movs	r0, #10
 5948              		.loc 1 981 0 discriminator 3
 5949 009e 84ED008A 		vstr.32	s16, [r4]
 5950              		.loc 1 982 0 discriminator 3
 5951 00a2 FFF7FEFF 		bl	chThdSleep
 5952              	.LVL413:
 5953              		.loc 1 980 0 discriminator 3
 5954 00a6 013E     		subs	r6, r6, #1
 5955 00a8 38EE288A 		vadd.f32	s16, s16, s17
 5956              	.LVL414:
 5957 00ac F6D1     		bne	.L467
 5958              	.LVL415:
 5959              	.LBE262:
 5960              		.loc 1 986 0
 5961 00ae 013D     		subs	r5, r5, #1
 5962              	.LVL416:
 5963 00b0 EDD1     		bne	.L466
 5964              	.LVL417:
 5965              	.L470:
 5966              		.loc 1 992 0
 5967 00b2 002F     		cmp	r7, #0
 5968 00b4 40F07382 		bne	.L539
 5969              	.L469:
 5970              	.LVL418:
 5971              		.loc 1 979 0 discriminator 1
 5972 00b8 9FEDBB8A 		vldr.32	s16, .L548+4
 5973              	.LBB263:
 5974              		.loc 1 997 0 discriminator 1
 5975 00bc DFEDBB8A 		vldr.32	s17, .L548+8
 5976              	.LBE263:
 5977              		.loc 1 979 0 discriminator 1
 5978 00c0 4FF4FA75 		mov	r5, #500
 5979              	.LVL419:
 5980              	.L472:
 5981              	.LBB264:
 5982              		.loc 1 999 0 discriminator 3
 5983 00c4 0A20     		movs	r0, #10
 5984              		.loc 1 998 0 discriminator 3
 5985 00c6 84ED008A 		vstr.32	s16, [r4]
ARM GAS  /var/folders/sv/kgmgr77579zbf78p2zlhkdfr0000gn/T//ccXbx0Pt.s 			page 106


 5986              		.loc 1 999 0 discriminator 3
 5987 00ca FFF7FEFF 		bl	chThdSleep
 5988              	.LVL420:
 5989              		.loc 1 997 0 discriminator 3
 5990 00ce 013D     		subs	r5, r5, #1
 5991 00d0 38EE288A 		vadd.f32	s16, s16, s17
 5992              	.LVL421:
 5993 00d4 F6D1     		bne	.L472
 5994              	.LBE264:
 5995              		.loc 1 1002 0
 5996 00d6 002F     		cmp	r7, #0
 5997 00d8 40F05D82 		bne	.L540
 5998              	.L473:
 5999              		.loc 1 1012 0
 6000 00dc B94D     		ldr	r5, .L548+32
 6001              		.loc 1 1011 0
 6002 00de DFEDB2BA 		vldr.32	s23, .L548+4
 6003              	.LBB265:
 6004              	.LBB266:
 6005              	.LBB267:
 6006              		.loc 1 1017 0
 6007 00e2 DFEDB9CA 		vldr.32	s25, .L548+36
 6008              		.loc 1 1018 0
 6009 00e6 9FEDB19A 		vldr.32	s18, .L548+8
 6010              	.LVL422:
 6011              	.LBE267:
 6012              		.loc 1 1032 0
 6013 00ea 9FEDB8EA 		vldr.32	s28, .L548+40
 6014 00ee DFEDB8DA 		vldr.32	s27, .L548+44
 6015              	.LBE266:
 6016              	.LBE265:
 6017              		.loc 1 1007 0
 6018 00f2 42F21070 		movw	r0, #10000
 6019 00f6 FFF7FEFF 		bl	chThdSleep
 6020              	.LVL423:
 6021              		.loc 1 1012 0
 6022 00fa 95ED00DA 		vldr.32	s26, [r5]
 6023              	.LVL424:
 6024              		.loc 1 1010 0
 6025 00fe B0EE6BCA 		vmov.f32	s24, s23
 6026              	.LBB271:
 6027              		.loc 1 1014 0
 6028 0102 0026     		movs	r6, #0
 6029              	.LVL425:
 6030              	.L480:
 6031              	.LBB269:
 6032              		.loc 1 1015 0
 6033 0104 D5ED00EA 		vldr.32	s29, [r5]
 6034              	.LVL426:
 6035              		.loc 1 1016 0
 6036 0108 94ED008A 		vldr.32	s16, [r4]
 6037              	.LVL427:
 6038              	.LBB268:
 6039              		.loc 1 1017 0
 6040 010c 78EE2C8A 		vadd.f32	s17, s16, s25
 6041 0110 F4EEC88A 		vcmpe.f32	s17, s16
 6042 0114 F1EE10FA 		vmrs	APSR_nzcv, FPSCR
ARM GAS  /var/folders/sv/kgmgr77579zbf78p2zlhkdfr0000gn/T//ccXbx0Pt.s 			page 107


 6043 0118 0BDD     		ble	.L478
 6044              	.LVL428:
 6045              	.L477:
 6046              		.loc 1 1020 0
 6047 011a 0A20     		movs	r0, #10
 6048              		.loc 1 1019 0
 6049 011c 84ED008A 		vstr.32	s16, [r4]
 6050              		.loc 1 1020 0
 6051 0120 FFF7FEFF 		bl	chThdSleep
 6052              	.LVL429:
 6053              		.loc 1 1018 0
 6054 0124 38EE098A 		vadd.f32	s16, s16, s18
 6055              	.LVL430:
 6056              		.loc 1 1017 0
 6057 0128 F4EEC88A 		vcmpe.f32	s17, s16
 6058 012c F1EE10FA 		vmrs	APSR_nzcv, FPSCR
 6059 0130 F3DC     		bgt	.L477
 6060              	.L478:
 6061              	.LBE268:
 6062              		.loc 1 1022 0
 6063 0132 9F48     		ldr	r0, .L548+12
 6064 0134 FFF7FEFF 		bl	utils_norm_angle_rad
 6065              	.LVL431:
 6066              		.loc 1 1023 0
 6067 0138 40F6B830 		movw	r0, #3000
 6068 013c FFF7FEFF 		bl	chThdSleep
 6069              	.LVL432:
 6070              		.loc 1 1024 0
 6071 0140 F0EE6E0A 		vmov.f32	s1, s29
 6072 0144 95ED000A 		vldr.32	s0, [r5]
 6073 0148 FFF7FEFF 		bl	utils_angle_difference_rad
 6074              	.LVL433:
 6075              		.loc 1 1027 0
 6076 014c 03A9     		add	r1, sp, #12
 6077 014e 02A8     		add	r0, sp, #8
 6078              		.loc 1 1024 0
 6079 0150 B0EE408A 		vmov.f32	s16, s0
 6080              	.LVL434:
 6081              		.loc 1 1027 0
 6082 0154 FFF7FEFF 		bl	sincosf
 6083              	.LVL435:
 6084              		.loc 1 1028 0
 6085 0158 9DED027A 		vldr.32	s14, [sp, #8]
 6086              		.loc 1 1029 0
 6087 015c DDED037A 		vldr.32	s15, [sp, #12]
 6088              		.loc 1 1028 0
 6089 0160 3CEE07CA 		vadd.f32	s24, s24, s14
 6090              	.LVL436:
 6091              		.loc 1 1029 0
 6092 0164 7BEEA7BA 		vadd.f32	s23, s23, s15
 6093              	.LVL437:
 6094              		.loc 1 1031 0
 6095 0168 002F     		cmp	r7, #0
 6096 016a 40F0B981 		bne	.L541
 6097              	.L476:
 6098              		.loc 1 1035 0
 6099 016e 032E     		cmp	r6, #3
ARM GAS  /var/folders/sv/kgmgr77579zbf78p2zlhkdfr0000gn/T//ccXbx0Pt.s 			page 108


 6100 0170 12DD     		ble	.L482
 6101              		.loc 1 1035 0 is_stmt 0 discriminator 1
 6102 0172 95ED000A 		vldr.32	s0, [r5]
 6103 0176 F0EE4D0A 		vmov.f32	s1, s26
 6104 017a FFF7FEFF 		bl	utils_angle_difference_rad
 6105              	.LVL438:
 6106 017e F6EE007A 		vmov.f32	s15, #5.0e-1
 6107 0182 28EE278A 		vmul.f32	s16, s16, s15
 6108              	.LVL439:
 6109 0186 B0EEC00A 		vabs.f32	s0, s0
 6110 018a B0EEC88A 		vabs.f32	s16, s16
 6111 018e B4EEC80A 		vcmpe.f32	s0, s16
 6112 0192 F1EE10FA 		vmrs	APSR_nzcv, FPSCR
 6113 0196 02D4     		bmi	.L481
 6114              	.L482:
 6115              	.LBE269:
 6116              		.loc 1 1014 0 is_stmt 1
 6117 0198 0136     		adds	r6, r6, #1
 6118              	.LVL440:
 6119 019a 142E     		cmp	r6, #20
 6120 019c B2D1     		bne	.L480
 6121              	.L481:
 6122              	.LBE271:
 6123              		.loc 1 1040 0
 6124 019e 95ED00DA 		vldr.32	s26, [r5]
 6125              	.LVL441:
 6126              	.LBB272:
 6127              	.LBB273:
 6128              	.LBB274:
 6129              		.loc 1 1045 0
 6130 01a2 DFED89CA 		vldr.32	s25, .L548+36
 6131              		.loc 1 1046 0
 6132 01a6 9FED819A 		vldr.32	s18, .L548+8
 6133              	.LBE274:
 6134              		.loc 1 1060 0
 6135 01aa 9FED88EA 		vldr.32	s28, .L548+40
 6136 01ae DFED88DA 		vldr.32	s27, .L548+44
 6137              	.LBE273:
 6138              		.loc 1 1042 0
 6139 01b2 0026     		movs	r6, #0
 6140              	.LVL442:
 6141              	.L490:
 6142              	.LBB276:
 6143              		.loc 1 1043 0
 6144 01b4 D5ED00EA 		vldr.32	s29, [r5]
 6145              	.LVL443:
 6146              		.loc 1 1044 0
 6147 01b8 94ED008A 		vldr.32	s16, [r4]
 6148              	.LVL444:
 6149              	.LBB275:
 6150              		.loc 1 1045 0
 6151 01bc 78EE6C8A 		vsub.f32	s17, s16, s25
 6152 01c0 B4EEE88A 		vcmpe.f32	s16, s17
 6153 01c4 F1EE10FA 		vmrs	APSR_nzcv, FPSCR
 6154 01c8 0BDD     		ble	.L488
 6155              	.LVL445:
 6156              	.L487:
ARM GAS  /var/folders/sv/kgmgr77579zbf78p2zlhkdfr0000gn/T//ccXbx0Pt.s 			page 109


 6157              		.loc 1 1048 0
 6158 01ca 0A20     		movs	r0, #10
 6159              		.loc 1 1047 0
 6160 01cc 84ED008A 		vstr.32	s16, [r4]
 6161              		.loc 1 1048 0
 6162 01d0 FFF7FEFF 		bl	chThdSleep
 6163              	.LVL446:
 6164              		.loc 1 1046 0
 6165 01d4 38EE498A 		vsub.f32	s16, s16, s18
 6166              	.LVL447:
 6167              		.loc 1 1045 0
 6168 01d8 B4EEE88A 		vcmpe.f32	s16, s17
 6169 01dc F1EE10FA 		vmrs	APSR_nzcv, FPSCR
 6170 01e0 F3DC     		bgt	.L487
 6171              	.L488:
 6172              	.LBE275:
 6173              		.loc 1 1050 0
 6174 01e2 7348     		ldr	r0, .L548+12
 6175 01e4 FFF7FEFF 		bl	utils_norm_angle_rad
 6176              	.LVL448:
 6177              		.loc 1 1051 0
 6178 01e8 40F6B830 		movw	r0, #3000
 6179 01ec FFF7FEFF 		bl	chThdSleep
 6180              	.LVL449:
 6181              		.loc 1 1052 0
 6182 01f0 D5ED000A 		vldr.32	s1, [r5]
 6183 01f4 B0EE6E0A 		vmov.f32	s0, s29
 6184 01f8 FFF7FEFF 		bl	utils_angle_difference_rad
 6185              	.LVL450:
 6186              		.loc 1 1055 0
 6187 01fc 03A9     		add	r1, sp, #12
 6188 01fe 02A8     		add	r0, sp, #8
 6189              		.loc 1 1052 0
 6190 0200 B0EE408A 		vmov.f32	s16, s0
 6191              	.LVL451:
 6192              		.loc 1 1055 0
 6193 0204 FFF7FEFF 		bl	sincosf
 6194              	.LVL452:
 6195              		.loc 1 1056 0
 6196 0208 9DED027A 		vldr.32	s14, [sp, #8]
 6197              		.loc 1 1057 0
 6198 020c DDED037A 		vldr.32	s15, [sp, #12]
 6199              		.loc 1 1056 0
 6200 0210 3CEE07CA 		vadd.f32	s24, s24, s14
 6201              	.LVL453:
 6202              		.loc 1 1057 0
 6203 0214 7BEEA7BA 		vadd.f32	s23, s23, s15
 6204              	.LVL454:
 6205              		.loc 1 1059 0
 6206 0218 002F     		cmp	r7, #0
 6207 021a 40F06F81 		bne	.L542
 6208              	.L486:
 6209              		.loc 1 1063 0
 6210 021e 032E     		cmp	r6, #3
 6211 0220 12DD     		ble	.L492
 6212              		.loc 1 1063 0 is_stmt 0 discriminator 1
 6213 0222 95ED000A 		vldr.32	s0, [r5]
ARM GAS  /var/folders/sv/kgmgr77579zbf78p2zlhkdfr0000gn/T//ccXbx0Pt.s 			page 110


 6214 0226 F0EE4D0A 		vmov.f32	s1, s26
 6215 022a FFF7FEFF 		bl	utils_angle_difference_rad
 6216              	.LVL455:
 6217 022e F6EE007A 		vmov.f32	s15, #5.0e-1
 6218 0232 28EE278A 		vmul.f32	s16, s16, s15
 6219              	.LVL456:
 6220 0236 B0EEC00A 		vabs.f32	s0, s0
 6221 023a B0EEC88A 		vabs.f32	s16, s16
 6222 023e B4EEC80A 		vcmpe.f32	s0, s16
 6223 0242 F1EE10FA 		vmrs	APSR_nzcv, FPSCR
 6224 0246 02D4     		bmi	.L491
 6225              	.L492:
 6226              	.LBE276:
 6227              		.loc 1 1042 0 is_stmt 1
 6228 0248 0136     		adds	r6, r6, #1
 6229              	.LVL457:
 6230 024a 142E     		cmp	r6, #20
 6231 024c B2D1     		bne	.L490
 6232              	.L491:
 6233              	.LBE272:
 6234              		.loc 1 1068 0
 6235 024e F0EE6B0A 		vmov.f32	s1, s23
 6236 0252 B0EE4C0A 		vmov.f32	s0, s24
 6237 0256 FFF7FEFF 		bl	atan2f
 6238              	.LVL458:
 6239 025a DFED5C7A 		vldr.32	s15, .L548+40
 6240 025e DFED5C6A 		vldr.32	s13, .L548+44
 6241              		.loc 1 1070 0
 6242 0262 9FED5C7A 		vldr.32	s14, .L548+48
 6243              		.loc 1 1068 0
 6244 0266 20EE270A 		vmul.f32	s0, s0, s15
 6245 026a C0EE267A 		vdiv.f32	s15, s0, s13
 6246              	.LVL459:
 6247              		.loc 1 1069 0
 6248 026e F5EEC07A 		vcmpe.f32	s15, #0
 6249 0272 F1EE10FA 		vmrs	APSR_nzcv, FPSCR
 6250 0276 4CBF     		ite	mi
 6251 0278 0126     		movmi	r6, #1
 6252              	.LVL460:
 6253 027a 0026     		movpl	r6, #0
 6254              		.loc 1 1070 0
 6255 027c B0EEE70A 		vabs.f32	s0, s15
 6256 0280 87EE000A 		vdiv.f32	s0, s14, s0
 6257              		.loc 1 1069 0
 6258 0284 88F80060 		strb	r6, [r8]
 6259              		.loc 1 1070 0
 6260 0288 FFF7FEFF 		bl	roundf
 6261              	.LVL461:
 6262              		.loc 1 1073 0
 6263 028c D9F80030 		ldr	r3, [r9]
 6264              		.loc 1 1070 0
 6265 0290 019A     		ldr	r2, [sp, #4]
 6266 0292 82ED000A 		vstr.32	s0, [r2]
 6267              		.loc 1 1073 0
 6268 0296 83F8B860 		strb	r6, [r3, #184]
 6269              		.loc 1 1074 0
 6270 029a 83ED2F0A 		vstr.32	s0, [r3, #188]
ARM GAS  /var/folders/sv/kgmgr77579zbf78p2zlhkdfr0000gn/T//ccXbx0Pt.s 			page 111


 6271              		.loc 1 1076 0
 6272 029e 002F     		cmp	r7, #0
 6273 02a0 40F04A81 		bne	.L543
 6274              	.LBB278:
 6275              		.loc 1 1081 0
 6276 02a4 94ED008A 		vldr.32	s16, [r4]
 6277              	.LVL462:
 6278 02a8 DFED4B7A 		vldr.32	s15, .L548+52
 6279 02ac B4EEE78A 		vcmpe.f32	s16, s15
 6280 02b0 F1EE10FA 		vmrs	APSR_nzcv, FPSCR
 6281 02b4 14D5     		bpl	.L500
 6282              	.L495:
 6283              		.loc 1 1081 0 is_stmt 0 discriminator 3
 6284 02b6 9FED3D9A 		vldr.32	s18, .L548+8
 6285 02ba DFED478A 		vldr.32	s17, .L548+52
 6286              	.L498:
 6287              		.loc 1 1082 0 is_stmt 1 discriminator 3
 6288 02be 84ED008A 		vstr.32	s16, [r4]
 6289              		.loc 1 1083 0 discriminator 3
 6290 02c2 1420     		movs	r0, #20
 6291 02c4 FFF7FEFF 		bl	chThdSleep
 6292              	.LVL463:
 6293              		.loc 1 1081 0 discriminator 3
 6294 02c8 38EE098A 		vadd.f32	s16, s16, s18
 6295              	.LVL464:
 6296 02cc B4EEE88A 		vcmpe.f32	s16, s17
 6297 02d0 F1EE10FA 		vmrs	APSR_nzcv, FPSCR
 6298 02d4 F3D4     		bmi	.L498
 6299              	.LBE278:
 6300              		.loc 1 1086 0
 6301 02d6 002F     		cmp	r7, #0
 6302 02d8 40F03B81 		bne	.L499
 6303 02dc D9F80030 		ldr	r3, [r9]
 6304              	.L500:
 6305              		.loc 1 1091 0
 6306 02e0 D3ED2F7A 		vldr.32	s15, [r3, #188]
 6307 02e4 B0EE087A 		vmov.f32	s14, #3.0e+0
 6308 02e8 67EE877A 		vmul.f32	s15, s15, s14
 6309 02ec FDEEE77A 		vcvt.s32.f32	s15, s15
 6310 02f0 17EE906A 		vmov	r6, s15	@ int
 6311              	.LVL465:
 6312              	.LBB279:
 6313              		.loc 1 1095 0
 6314 02f4 002E     		cmp	r6, #0
 6315 02f6 40F35681 		ble	.L544
 6316              	.L496:
 6317 02fa 07EE906A 		vmov	s15, r6	@ int
 6318              	.LBE279:
 6319              	.LBB283:
 6320              		.loc 1 1042 0
 6321 02fe DFED2A8A 		vldr.32	s17, .L548+4
 6322              	.LBE283:
 6323              	.LBB284:
 6324              	.LBB280:
 6325              		.loc 1 1096 0
 6326 0302 9FED33CA 		vldr.32	s24, .L548+44
 6327              		.loc 1 1106 0
ARM GAS  /var/folders/sv/kgmgr77579zbf78p2zlhkdfr0000gn/T//ccXbx0Pt.s 			page 112


 6328 0306 DFED31CA 		vldr.32	s25, .L548+40
 6329 030a B8EEE78A 		vcvt.f32.s32	s16, s15
 6330              	.LVL466:
 6331              	.LBE280:
 6332              	.LBE284:
 6333              	.LBB285:
 6334              		.loc 1 1042 0
 6335 030e B0EE689A 		vmov.f32	s18, s17
 6336 0312 F0EE48BA 		vmov.f32	s23, s16
 6337 0316 4FF00008 		mov	r8, #0
 6338              	.LVL467:
 6339 031a 03E0     		b	.L503
 6340              	.LVL468:
 6341              	.L501:
 6342              	.LBE285:
 6343              	.LBB286:
 6344              		.loc 1 1095 0 discriminator 2
 6345 031c B045     		cmp	r8, r6
 6346 031e 3CD0     		beq	.L502
 6347              	.LVL469:
 6348              	.L545:
 6349 0320 D9F80030 		ldr	r3, [r9]
 6350              	.LVL470:
 6351              	.L503:
 6352              	.LBB281:
 6353              		.loc 1 1096 0
 6354 0324 93ED2F7A 		vldr.32	s14, [r3, #188]
 6355 0328 07EE908A 		vmov	s15, r8	@ int
 6356 032c F8EEE77A 		vcvt.f32.s32	s15, s15
 6357              		.loc 1 1097 0
 6358 0330 41F28830 		movw	r0, #5000
 6359              		.loc 1 1096 0
 6360 0334 77EEA77A 		vadd.f32	s15, s15, s15
 6361              	.LBE281:
 6362              		.loc 1 1095 0
 6363 0338 08F10108 		add	r8, r8, #1
 6364              	.LVL471:
 6365              	.LBB282:
 6366              		.loc 1 1096 0
 6367 033c 67EE8C7A 		vmul.f32	s15, s15, s24
 6368 0340 67EE877A 		vmul.f32	s15, s15, s14
 6369 0344 87EE887A 		vdiv.f32	s14, s15, s16
 6370 0348 84ED007A 		vstr.32	s14, [r4]
 6371              		.loc 1 1097 0
 6372 034c FFF7FEFF 		bl	chThdSleep
 6373              	.LVL472:
 6374              		.loc 1 1099 0
 6375 0350 95ED000A 		vldr.32	s0, [r5]
 6376 0354 D4ED000A 		vldr.32	s1, [r4]
 6377 0358 FFF7FEFF 		bl	utils_angle_difference_rad
 6378              	.LVL473:
 6379              		.loc 1 1101 0
 6380 035c 03A9     		add	r1, sp, #12
 6381 035e 02A8     		add	r0, sp, #8
 6382              		.loc 1 1099 0
 6383 0360 B0EE40DA 		vmov.f32	s26, s0
 6384              	.LVL474:
ARM GAS  /var/folders/sv/kgmgr77579zbf78p2zlhkdfr0000gn/T//ccXbx0Pt.s 			page 113


 6385              		.loc 1 1101 0
 6386 0364 FFF7FEFF 		bl	sincosf
 6387              	.LVL475:
 6388              		.loc 1 1102 0
 6389 0368 9DED027A 		vldr.32	s14, [sp, #8]
 6390              		.loc 1 1103 0
 6391 036c DDED037A 		vldr.32	s15, [sp, #12]
 6392              		.loc 1 1102 0
 6393 0370 39EE079A 		vadd.f32	s18, s18, s14
 6394              	.LVL476:
 6395              		.loc 1 1103 0
 6396 0374 78EEA78A 		vadd.f32	s17, s17, s15
 6397              	.LVL477:
 6398              		.loc 1 1105 0
 6399 0378 002F     		cmp	r7, #0
 6400 037a CFD0     		beq	.L501
 6401              		.loc 1 1106 0
 6402 037c 2DEE2CDA 		vmul.f32	s26, s26, s25
 6403              	.LVL478:
 6404 0380 CDEE0C7A 		vdiv.f32	s15, s26, s24
 6405 0384 17EE900A 		vmov	r0, s15
 6406 0388 FFF7FEFF 		bl	__aeabi_f2d
 6407              	.LVL479:
 6408 038c 0246     		mov	r2, r0
 6409 038e 0B46     		mov	r3, r1
 6410 0390 1248     		ldr	r0, .L548+56
 6411 0392 FFF7FEFF 		bl	commands_printf
 6412              	.LVL480:
 6413              	.LBE282:
 6414              		.loc 1 1095 0
 6415 0396 B045     		cmp	r8, r6
 6416 0398 C2D1     		bne	.L545
 6417              	.L502:
 6418              	.LBE286:
 6419              	.LBB287:
 6420              	.LBB288:
 6421              		.loc 1 1111 0
 6422 039a 9FED0DCA 		vldr.32	s24, .L548+44
 6423              		.loc 1 1121 0
 6424 039e DFED0BCA 		vldr.32	s25, .L548+40
 6425 03a2 27E0     		b	.L505
 6426              	.L549:
 6427              		.align	2
 6428              	.L548:
 6429 03a4 00000000 		.word	.LANCHOR25
 6430 03a8 00000000 		.word	0
 6431 03ac 2EE34D3C 		.word	1011737390
 6432 03b0 00000000 		.word	.LANCHOR28
 6433 03b4 00000000 		.word	.LANCHOR21
 6434 03b8 00000000 		.word	.LANCHOR5
 6435 03bc 00000000 		.word	.LANCHOR2
 6436 03c0 C0270900 		.word	600000
 6437 03c4 00000000 		.word	.LANCHOR19
 6438 03c8 920A0640 		.word	1074137746
 6439 03cc 00003443 		.word	1127481344
 6440 03d0 DB0F4940 		.word	1078530011
 6441 03d4 0000F042 		.word	1123024896
ARM GAS  /var/folders/sv/kgmgr77579zbf78p2zlhkdfr0000gn/T//ccXbx0Pt.s 			page 114


 6442 03d8 DB0FC940 		.word	1086918619
 6443 03dc 30000000 		.word	.LC3
