ARM GAS  /var/folders/sv/kgmgr77579zbf78p2zlhkdfr0000gn/T//ccTDgly2.s 			page 1


   1              		.syntax unified
   2              		.cpu cortex-m4
   3              		.eabi_attribute 27, 1
   4              		.eabi_attribute 28, 1
   5              		.fpu fpv4-sp-d16
   6              		.eabi_attribute 20, 1
   7              		.eabi_attribute 21, 1
   8              		.eabi_attribute 23, 3
   9              		.eabi_attribute 24, 1
  10              		.eabi_attribute 25, 1
  11              		.eabi_attribute 26, 1
  12              		.eabi_attribute 30, 2
  13              		.eabi_attribute 34, 1
  14              		.eabi_attribute 18, 4
  15              		.thumb
  16              		.syntax unified
  17              		.file	"nrf_driver.c"
  18              		.text
  19              	.Ltext0:
  20              		.cfi_sections	.debug_frame
  21              		.section	.text.tx_thread,"ax",%progbits
  22              		.align	2
  23              		.p2align 4,,15
  24              		.thumb
  25              		.thumb_func
  26              		.type	tx_thread, %function
  27              	tx_thread:
  28              	.LFB223:
  29              		.file 1 "nrf/nrf_driver.c"
  30              		.loc 1 144 0
  31              		.cfi_startproc
  32              		@ args = 0, pretend = 0, frame = 8
  33              		@ frame_needed = 0, uses_anonymous_args = 0
  34              	.LVL0:
  35              	.LBB37:
  36              	.LBB38:
  37              		.file 2 "ChibiOS_3.0.2/os/rt/include/chregistry.h"
  38              		.loc 2 135 0
  39 0000 1C4B     		ldr	r3, .L10
  40 0002 1D49     		ldr	r1, .L10+4
  41 0004 9A69     		ldr	r2, [r3, #24]
  42              	.LBE38:
  43              	.LBE37:
  44              		.loc 1 144 0
  45 0006 2DE9F043 		push	{r4, r5, r6, r7, r8, r9, lr}
  46              		.cfi_def_cfa_offset 28
  47              		.cfi_offset 4, -28
  48              		.cfi_offset 5, -24
  49              		.cfi_offset 6, -20
  50              		.cfi_offset 7, -16
  51              		.cfi_offset 8, -12
  52              		.cfi_offset 9, -8
  53              		.cfi_offset 14, -4
  54              		.loc 1 148 0
  55 000a 1C4F     		ldr	r7, .L10+8
  56              		.loc 1 151 0
  57 000c 1C4D     		ldr	r5, .L10+12
ARM GAS  /var/folders/sv/kgmgr77579zbf78p2zlhkdfr0000gn/T//ccTDgly2.s 			page 2


  58              	.LBB40:
  59              	.LBB39:
  60              		.loc 2 135 0
  61 000e 9161     		str	r1, [r2, #24]
  62              	.LVL1:
  63              	.LBE39:
  64              	.LBE40:
  65              		.loc 1 148 0
  66 0010 0123     		movs	r3, #1
  67 0012 3B70     		strb	r3, [r7]
  68              		.loc 1 151 0
  69 0014 2B78     		ldrb	r3, [r5]	@ zero_extendqisi2
  70              		.loc 1 144 0
  71 0016 83B0     		sub	sp, sp, #12
  72              		.cfi_def_cfa_offset 40
  73              		.loc 1 151 0
  74 0018 33BB     		cbnz	r3, .L5
  75 001a 1A4C     		ldr	r4, .L10+16
  76              		.loc 1 158 0
  77 001c 1A4E     		ldr	r6, .L10+20
  78              	.LBB41:
  79              	.LBB42:
  80              	.LBB43:
  81              		.loc 1 138 0
  82 001e DFF86C90 		ldr	r9, .L10+24
  83              	.LBE43:
  84              	.LBE42:
  85              		.loc 1 161 0
  86 0022 4FF00208 		mov	r8, #2
  87 0026 04E0     		b	.L2
  88              	.LVL2:
  89              	.L3:
  90              	.LBE41:
  91              		.loc 1 166 0
  92 0028 0A20     		movs	r0, #10
  93 002a FFF7FEFF 		bl	chThdSleep
  94              	.LVL3:
  95              		.loc 1 151 0
  96 002e 2B78     		ldrb	r3, [r5]	@ zero_extendqisi2
  97 0030 D3B9     		cbnz	r3, .L5
  98              	.L2:
  99              		.loc 1 156 0
 100 0032 2368     		ldr	r3, [r4]
 101 0034 0133     		adds	r3, r3, #1
 102              		.loc 1 158 0
 103 0036 312B     		cmp	r3, #49
 104              		.loc 1 156 0
 105 0038 2360     		str	r3, [r4]
 106              		.loc 1 158 0
 107 003a F5DD     		ble	.L3
 108              		.loc 1 158 0 is_stmt 0 discriminator 1
 109 003c 3378     		ldrb	r3, [r6]	@ zero_extendqisi2
 110 003e 002B     		cmp	r3, #0
 111 0040 F2D1     		bne	.L3
 112              	.LVL4:
 113              	.LBB48:
 114              		.loc 1 161 0 is_stmt 1
ARM GAS  /var/folders/sv/kgmgr77579zbf78p2zlhkdfr0000gn/T//ccTDgly2.s 			page 3


 115 0042 02A8     		add	r0, sp, #8
 116              	.LBB46:
 117              	.LBB44:
 118              		.loc 1 135 0
 119 0044 0121     		movs	r1, #1
 120              	.LBE44:
 121              	.LBE46:
 122              		.loc 1 161 0
 123 0046 00F8048D 		strb	r8, [r0, #-4]!
 124              	.LVL5:
 125              	.LBB47:
 126              	.LBB45:
 127              		.loc 1 135 0
 128 004a FFF7FEFF 		bl	rfhelp_send_data_crc
 129              	.LVL6:
 130              		.loc 1 137 0
 131 004e 18B9     		cbnz	r0, .L4
 132              		.loc 1 138 0
 133 0050 4FF4FA73 		mov	r3, #500
 134 0054 C9F80030 		str	r3, [r9]
 135              	.L4:
 136              	.LBE45:
 137              	.LBE47:
 138              		.loc 1 163 0
 139 0058 0023     		movs	r3, #0
 140              	.LBE48:
 141              		.loc 1 166 0
 142 005a 0A20     		movs	r0, #10
 143              	.LBB49:
 144              		.loc 1 163 0
 145 005c 2360     		str	r3, [r4]
 146              	.LBE49:
 147              		.loc 1 166 0
 148 005e FFF7FEFF 		bl	chThdSleep
 149              	.LVL7:
 150              		.loc 1 151 0
 151 0062 2B78     		ldrb	r3, [r5]	@ zero_extendqisi2
 152 0064 002B     		cmp	r3, #0
 153 0066 E4D0     		beq	.L2
 154              	.LVL8:
 155              	.L5:
 156              		.loc 1 152 0
 157 0068 0023     		movs	r3, #0
 158 006a 3B70     		strb	r3, [r7]
 159              		.loc 1 169 0
 160 006c 03B0     		add	sp, sp, #12
 161              		.cfi_def_cfa_offset 28
 162              		@ sp needed
 163 006e BDE8F083 		pop	{r4, r5, r6, r7, r8, r9, pc}
 164              	.L11:
 165 0072 00BF     		.align	2
 166              	.L10:
 167 0074 00000000 		.word	ch
 168 0078 00000000 		.word	.LC0
 169 007c 00000000 		.word	.LANCHOR0
 170 0080 00000000 		.word	.LANCHOR1
 171 0084 00000000 		.word	.LANCHOR2
ARM GAS  /var/folders/sv/kgmgr77579zbf78p2zlhkdfr0000gn/T//ccTDgly2.s 			page 4


 172 0088 00000000 		.word	.LANCHOR3
 173 008c 00000000 		.word	.LANCHOR4
 174              		.cfi_endproc
 175              	.LFE223:
 176              		.size	tx_thread, .-tx_thread
 177              		.section	.text.nrf_driver_send_buffer,"ax",%progbits
 178              		.align	2
 179              		.p2align 4,,15
 180              		.global	nrf_driver_send_buffer
 181              		.thumb
 182              		.thumb_func
 183              		.type	nrf_driver_send_buffer, %function
 184              	nrf_driver_send_buffer:
 185              	.LFB225:
 186              		.loc 1 344 0
 187              		.cfi_startproc
 188              		@ args = 0, pretend = 0, frame = 40
 189              		@ frame_needed = 0, uses_anonymous_args = 0
 190              	.LVL9:
 191 0000 2DE9F04F 		push	{r4, r5, r6, r7, r8, r9, r10, fp, lr}
 192              		.cfi_def_cfa_offset 36
 193              		.cfi_offset 4, -36
 194              		.cfi_offset 5, -32
 195              		.cfi_offset 6, -28
 196              		.cfi_offset 7, -24
 197              		.cfi_offset 8, -20
 198              		.cfi_offset 9, -16
 199              		.cfi_offset 10, -12
 200              		.cfi_offset 11, -8
 201              		.cfi_offset 14, -4
 202              		.loc 1 347 0
 203 0004 1829     		cmp	r1, #24
 204              		.loc 1 344 0
 205 0006 8BB0     		sub	sp, sp, #44
 206              		.cfi_def_cfa_offset 80
 207              		.loc 1 344 0
 208 0008 8946     		mov	r9, r1
 209 000a 8346     		mov	fp, r0
 210              		.loc 1 347 0
 211 000c 40F2AC80 		bls	.L36
 212              	.LVL10:
 213              	.LBB50:
 214              		.loc 1 356 0
 215 0010 0027     		movs	r7, #0
 216 0012 DFF8A081 		ldr	r8, .L38+4
 217              		.loc 1 355 0
 218 0016 3C46     		mov	r4, r7
 219              		.loc 1 356 0
 220 0018 A1F11406 		sub	r6, r1, #20
 221              	.LVL11:
 222 001c 0546     		mov	r5, r0
 223              	.LBB51:
 224              	.LBB52:
 225              		.loc 1 366 0
 226 001e 4FF0030A 		mov	r10, #3
 227              	.LVL12:
 228              	.L16:
ARM GAS  /var/folders/sv/kgmgr77579zbf78p2zlhkdfr0000gn/T//ccTDgly2.s 			page 5


 229              		.loc 1 363 0
 230 0022 1734     		adds	r4, r4, #23
 231              	.LVL13:
 232              		.loc 1 367 0
 233 0024 FBB2     		uxtb	r3, r7
 234              		.loc 1 369 0
 235 0026 A642     		cmp	r6, r4
 236              		.loc 1 366 0
 237 0028 8DF80CA0 		strb	r10, [sp, #12]
 238              		.loc 1 367 0
 239 002c 8DF80D30 		strb	r3, [sp, #13]
 240              		.loc 1 369 0
 241 0030 C0F0B280 		bcc	.L18
 242              		.loc 1 370 0
 243 0034 2B68     		ldr	r3, [r5]	@ unaligned
 244 0036 6A68     		ldr	r2, [r5, #4]	@ unaligned
 245 0038 CDF80E30 		str	r3, [sp, #14]	@ unaligned
 246 003c AB68     		ldr	r3, [r5, #8]	@ unaligned
 247 003e CDF81220 		str	r2, [sp, #18]	@ unaligned
 248 0042 CDF81630 		str	r3, [sp, #22]	@ unaligned
 249 0046 EA68     		ldr	r2, [r5, #12]	@ unaligned
 250 0048 2B69     		ldr	r3, [r5, #16]	@ unaligned
 251 004a CDF81A20 		str	r2, [sp, #26]	@ unaligned
 252 004e CDF81E30 		str	r3, [sp, #30]	@ unaligned
 253 0052 AA8A     		ldrh	r2, [r5, #20]	@ unaligned
 254 0054 AB7D     		ldrb	r3, [r5, #22]	@ zero_extendqisi2
 255 0056 ADF82220 		strh	r2, [sp, #34]	@ unaligned
 256 005a 8DF82430 		strb	r3, [sp, #36]
 257 005e 1921     		movs	r1, #25
 258              	.LVL14:
 259              	.L19:
 260              	.LBB53:
 261              	.LBB54:
 262              		.loc 1 135 0 discriminator 2
 263 0060 03A8     		add	r0, sp, #12
 264              	.LVL15:
 265 0062 FFF7FEFF 		bl	rfhelp_send_data_crc
 266              	.LVL16:
 267 0066 1737     		adds	r7, r7, #23
 268              	.LBE54:
 269              	.LBE53:
 270              		.loc 1 377 0 discriminator 2
 271 0068 0023     		movs	r3, #0
 272 006a 1735     		adds	r5, r5, #23
 273              	.LBB56:
 274              	.LBB55:
 275              		.loc 1 137 0 discriminator 2
 276 006c 18B9     		cbnz	r0, .L20
 277              		.loc 1 138 0
 278 006e 5049     		ldr	r1, .L38
 279 0070 4FF4FA72 		mov	r2, #500
 280 0074 0A60     		str	r2, [r1]
 281              	.L20:
 282              	.LBE55:
 283              	.LBE56:
 284              	.LBE52:
 285              		.loc 1 358 0
ARM GAS  /var/folders/sv/kgmgr77579zbf78p2zlhkdfr0000gn/T//ccTDgly2.s 			page 6


 286 0076 A642     		cmp	r6, r4
 287              	.LBB57:
 288              		.loc 1 377 0
 289 0078 C8F80030 		str	r3, [r8]
 290              	.LBE57:
 291              		.loc 1 358 0
 292 007c 42D9     		bls	.L27
 293              	.LBB58:
 294              		.loc 1 359 0
 295 007e B4F58A7F 		cmp	r4, #276
 296 0082 CED1     		bne	.L16
 297 0084 A6F11403 		sub	r3, r6, #20
 298 0088 5FFA83FA 		uxtb	r10, r3
 299 008c 0BF58A75 		add	r5, fp, #276
 300              	.LBE58:
 301              	.LBE51:
 302              	.LBB60:
 303              	.LBB61:
 304              		.loc 1 382 0
 305 0090 0427     		movs	r7, #4
 306 0092 24E0     		b	.L26
 307              	.LVL17:
 308              	.L37:
 309              		.loc 1 387 0
 310 0094 2B68     		ldr	r3, [r5]	@ unaligned
 311 0096 6A68     		ldr	r2, [r5, #4]	@ unaligned
 312 0098 CDF80F30 		str	r3, [sp, #15]	@ unaligned
 313 009c CDF81320 		str	r2, [sp, #19]	@ unaligned
 314 00a0 AB68     		ldr	r3, [r5, #8]	@ unaligned
 315 00a2 EA68     		ldr	r2, [r5, #12]	@ unaligned
 316 00a4 CDF81730 		str	r3, [sp, #23]	@ unaligned
 317 00a8 CDF81B20 		str	r2, [sp, #27]	@ unaligned
 318 00ac 2B69     		ldr	r3, [r5, #16]	@ unaligned
 319 00ae AA8A     		ldrh	r2, [r5, #20]	@ unaligned
 320 00b0 CDF81F30 		str	r3, [sp, #31]	@ unaligned
 321 00b4 ADF82320 		strh	r2, [sp, #35]	@ unaligned
 322 00b8 1921     		movs	r1, #25
 323              	.L24:
 324              	.LVL18:
 325              	.LBB62:
 326              	.LBB63:
 327              		.loc 1 135 0 discriminator 2
 328 00ba 03A8     		add	r0, sp, #12
 329              	.LVL19:
 330 00bc FFF7FEFF 		bl	rfhelp_send_data_crc
 331              	.LVL20:
 332 00c0 AAF1160A 		sub	r10, r10, #22
 333              	.LBE63:
 334              	.LBE62:
 335              		.loc 1 394 0 discriminator 2
 336 00c4 0023     		movs	r3, #0
 337 00c6 1635     		adds	r5, r5, #22
 338 00c8 5FFA8AFA 		uxtb	r10, r10
 339              	.LBB65:
 340              	.LBB64:
 341              		.loc 1 137 0 discriminator 2
 342 00cc 18B9     		cbnz	r0, .L25
ARM GAS  /var/folders/sv/kgmgr77579zbf78p2zlhkdfr0000gn/T//ccTDgly2.s 			page 7


 343              		.loc 1 138 0
 344 00ce 3849     		ldr	r1, .L38
 345 00d0 4FF4FA72 		mov	r2, #500
 346 00d4 0A60     		str	r2, [r1]
 347              	.L25:
 348              	.LBE64:
 349              	.LBE65:
 350              	.LBE61:
 351              		.loc 1 380 0
 352 00d6 A642     		cmp	r6, r4
 353              	.LBB66:
 354              		.loc 1 394 0
 355 00d8 C8F80030 		str	r3, [r8]
 356              	.LVL21:
 357              	.LBE66:
 358              		.loc 1 380 0
 359 00dc 12D9     		bls	.L27
 360              	.LVL22:
 361              	.L26:
 362              	.LBB67:
 363              		.loc 1 383 0
 364 00de 230A     		lsrs	r3, r4, #8
 365              		.loc 1 384 0
 366 00e0 8DF80E40 		strb	r4, [sp, #14]
 367              		.loc 1 386 0
 368 00e4 1634     		adds	r4, r4, #22
 369              	.LVL23:
 370 00e6 A642     		cmp	r6, r4
 371              		.loc 1 382 0
 372 00e8 8DF80C70 		strb	r7, [sp, #12]
 373              		.loc 1 383 0
 374 00ec 8DF80D30 		strb	r3, [sp, #13]
 375              		.loc 1 386 0
 376 00f0 D0D2     		bcs	.L37
 377              		.loc 1 390 0
 378 00f2 2946     		mov	r1, r5
 379 00f4 5246     		mov	r2, r10
 380 00f6 0DF10F00 		add	r0, sp, #15
 381 00fa FFF7FEFF 		bl	memcpy
 382              	.LVL24:
 383 00fe 0AF10301 		add	r1, r10, #3
 384 0102 DAE7     		b	.L24
 385              	.LVL25:
 386              	.L27:
 387              	.LBE67:
 388              	.LBE60:
 389              		.loc 1 398 0
 390 0104 0522     		movs	r2, #5
 391              		.loc 1 399 0
 392 0106 4FEA1923 		lsr	r3, r9, #8
 393              		.loc 1 401 0
 394 010a 4946     		mov	r1, r9
 395 010c 5846     		mov	r0, fp
 396              		.loc 1 398 0
 397 010e 8DF80C20 		strb	r2, [sp, #12]
 398              	.LVL26:
 399              		.loc 1 399 0
ARM GAS  /var/folders/sv/kgmgr77579zbf78p2zlhkdfr0000gn/T//ccTDgly2.s 			page 8


 400 0112 8DF80D30 		strb	r3, [sp, #13]
 401              	.LVL27:
 402              		.loc 1 400 0
 403 0116 8DF80E90 		strb	r9, [sp, #14]
 404              		.loc 1 401 0
 405 011a FFF7FEFF 		bl	crc16
 406              	.LVL28:
 407              		.loc 1 404 0
 408 011e 5E44     		add	r6, r6, fp
 409              	.LVL29:
 410              		.loc 1 401 0
 411 0120 0246     		mov	r2, r0
 412              	.LVL30:
 413              		.loc 1 402 0
 414 0122 010A     		lsrs	r1, r0, #8
 415              		.loc 1 404 0
 416 0124 3368     		ldr	r3, [r6]	@ unaligned
 417 0126 CDF81130 		str	r3, [sp, #17]	@ unaligned
 418 012a 7568     		ldr	r5, [r6, #4]	@ unaligned
 419 012c B468     		ldr	r4, [r6, #8]	@ unaligned
 420              		.loc 1 403 0
 421 012e 8DF81020 		strb	r2, [sp, #16]
 422              		.loc 1 404 0
 423 0132 3369     		ldr	r3, [r6, #16]	@ unaligned
 424 0134 F268     		ldr	r2, [r6, #12]	@ unaligned
 425              		.loc 1 402 0
 426 0136 8DF80F10 		strb	r1, [sp, #15]
 427              	.LVL31:
 428              	.LBB68:
 429              	.LBB69:
 430              		.loc 1 135 0
 431 013a 03A8     		add	r0, sp, #12
 432              	.LVL32:
 433 013c 1921     		movs	r1, #25
 434              	.LBE69:
 435              	.LBE68:
 436              		.loc 1 404 0
 437 013e CDF81550 		str	r5, [sp, #21]	@ unaligned
 438 0142 CDF81940 		str	r4, [sp, #25]	@ unaligned
 439 0146 CDF81D20 		str	r2, [sp, #29]	@ unaligned
 440 014a CDF82130 		str	r3, [sp, #33]	@ unaligned
 441              	.LVL33:
 442              	.LBB71:
 443              	.LBB70:
 444              		.loc 1 135 0
 445 014e FFF7FEFF 		bl	rfhelp_send_data_crc
 446              	.LVL34:
 447              		.loc 1 137 0
 448 0152 18B9     		cbnz	r0, .L15
 449              	.LBE70:
 450              	.LBE71:
 451              	.LBE50:
 452              	.LBB73:
 453              	.LBB74:
 454              	.LBB75:
 455              		.loc 1 138 0
 456 0154 164B     		ldr	r3, .L38
ARM GAS  /var/folders/sv/kgmgr77579zbf78p2zlhkdfr0000gn/T//ccTDgly2.s 			page 9


 457 0156 4FF4FA72 		mov	r2, #500
 458 015a 1A60     		str	r2, [r3]
 459              	.LVL35:
 460              	.L15:
 461              	.LBE75:
 462              	.LBE74:
 463              		.loc 1 353 0
 464 015c 0023     		movs	r3, #0
 465 015e C8F80030 		str	r3, [r8]
 466              	.LBE73:
 467              		.loc 1 410 0
 468 0162 0BB0     		add	sp, sp, #44
 469              		.cfi_remember_state
 470              		.cfi_def_cfa_offset 36
 471              		@ sp needed
 472 0164 BDE8F08F 		pop	{r4, r5, r6, r7, r8, r9, r10, fp, pc}
 473              	.LVL36:
 474              	.L36:
 475              		.cfi_restore_state
 476              	.LBB78:
 477              		.loc 1 349 0
 478 0168 0AAC     		add	r4, sp, #40
 479 016a 0623     		movs	r3, #6
 480 016c 04F81C3D 		strb	r3, [r4, #-28]!
 481              		.loc 1 350 0
 482 0170 0146     		mov	r1, r0
 483              	.LVL37:
 484 0172 4A46     		mov	r2, r9
 485 0174 0DF10D00 		add	r0, sp, #13
 486              	.LVL38:
 487 0178 FFF7FEFF 		bl	memcpy
 488              	.LVL39:
 489              	.LBB77:
 490              	.LBB76:
 491              		.loc 1 135 0
 492 017c 2046     		mov	r0, r4
 493 017e 09F10101 		add	r1, r9, #1
 494              	.LVL40:
 495 0182 FFF7FEFF 		bl	rfhelp_send_data_crc
 496              	.LVL41:
 497 0186 DFF82C80 		ldr	r8, .L38+4
 498              		.loc 1 137 0
 499 018a 0028     		cmp	r0, #0
 500 018c E6D1     		bne	.L15
 501              		.loc 1 138 0
 502 018e 084B     		ldr	r3, .L38
 503 0190 4FF4FA72 		mov	r2, #500
 504 0194 1A60     		str	r2, [r3]
 505 0196 E1E7     		b	.L15
 506              	.LVL42:
 507              	.L18:
 508 0198 F31A     		subs	r3, r6, r3
 509 019a DBB2     		uxtb	r3, r3
 510              	.LVL43:
 511              	.LBE76:
 512              	.LBE77:
 513              	.LBE78:
ARM GAS  /var/folders/sv/kgmgr77579zbf78p2zlhkdfr0000gn/T//ccTDgly2.s 			page 10


 514              	.LBB79:
 515              	.LBB72:
 516              	.LBB59:
 517              		.loc 1 373 0
 518 019c 1A46     		mov	r2, r3
 519 019e 2946     		mov	r1, r5
 520 01a0 0DF10E00 		add	r0, sp, #14
 521 01a4 0193     		str	r3, [sp, #4]
 522 01a6 FFF7FEFF 		bl	memcpy
 523              	.LVL44:
 524 01aa 019B     		ldr	r3, [sp, #4]
 525 01ac 991C     		adds	r1, r3, #2
 526 01ae 57E7     		b	.L19
 527              	.L39:
 528              		.align	2
 529              	.L38:
 530 01b0 00000000 		.word	.LANCHOR4
 531 01b4 00000000 		.word	.LANCHOR2
 532              	.LBE59:
 533              	.LBE72:
 534              	.LBE79:
 535              		.cfi_endproc
 536              	.LFE225:
 537              		.size	nrf_driver_send_buffer, .-nrf_driver_send_buffer
 538              		.section	.text.rx_thread,"ax",%progbits
 539              		.align	2
 540              		.p2align 4,,15
 541              		.thumb
 542              		.thumb_func
 543              		.type	rx_thread, %function
 544              	rx_thread:
 545              	.LFB224:
 546              		.loc 1 171 0
 547              		.cfi_startproc
 548              		@ args = 0, pretend = 0, frame = 256
 549              		@ frame_needed = 0, uses_anonymous_args = 0
 550              	.LVL45:
 551 0000 2DE9F04F 		push	{r4, r5, r6, r7, r8, r9, r10, fp, lr}
 552              		.cfi_def_cfa_offset 36
 553              		.cfi_offset 4, -36
 554              		.cfi_offset 5, -32
 555              		.cfi_offset 6, -28
 556              		.cfi_offset 7, -24
 557              		.cfi_offset 8, -20
 558              		.cfi_offset 9, -16
 559              		.cfi_offset 10, -12
 560              		.cfi_offset 11, -8
 561              		.cfi_offset 14, -4
 562              		.loc 1 175 0
 563 0004 AB48     		ldr	r0, .L67
 564              	.LVL46:
 565              	.LBB80:
 566              	.LBB81:
 567              		.loc 2 135 0
 568 0006 DFF8D482 		ldr	r8, .L67+40
 569 000a AB49     		ldr	r1, .L67+4
 570 000c D8F81820 		ldr	r2, [r8, #24]
ARM GAS  /var/folders/sv/kgmgr77579zbf78p2zlhkdfr0000gn/T//ccTDgly2.s 			page 11


 571              	.LBE81:
 572              	.LBE80:
 573              		.loc 1 175 0
 574 0010 0123     		movs	r3, #1
 575              		.loc 1 171 0
 576 0012 2DED028B 		vpush.64	{d8}
 577              		.cfi_def_cfa_offset 44
 578              		.cfi_offset 80, -44
 579              		.cfi_offset 81, -40
 580              		.loc 1 175 0
 581 0016 0370     		strb	r3, [r0]
 582              	.LBB83:
 583              		.loc 1 178 0
 584 0018 A84B     		ldr	r3, .L67+8
 585              	.LBE83:
 586              	.LBB96:
 587              	.LBB82:
 588              		.loc 2 135 0
 589 001a 9161     		str	r1, [r2, #24]
 590              	.LVL47:
 591              	.LBE82:
 592              	.LBE96:
 593              	.LBB97:
 594              		.loc 1 178 0
 595 001c 1B78     		ldrb	r3, [r3]	@ zero_extendqisi2
 596              	.LBE97:
 597              		.loc 1 171 0
 598 001e C1B0     		sub	sp, sp, #260
 599              		.cfi_def_cfa_offset 304
 600              	.LBB98:
 601              		.loc 1 178 0
 602 0020 002B     		cmp	r3, #0
 603 0022 40F01D81 		bne	.L41
 604 0026 A64D     		ldr	r5, .L67+12
 605 0028 DFF8B492 		ldr	r9, .L67+44
 606              	.LBB84:
 607              	.LBB85:
 608              	.LBB86:
 609              		.loc 1 289 0
 610 002c DFF8B4B2 		ldr	fp, .L67+48
 611              		.loc 1 291 0
 612 0030 A44F     		ldr	r7, .L67+16
 613              	.LBE86:
 614              		.loc 1 213 0
 615 0032 9FEDA58A 		vldr.32	s16, .L67+20
 616              	.L42:
 617              	.LBE85:
 618              		.loc 1 188 0
 619 0036 04AA     		add	r2, sp, #16
 620 0038 03A9     		add	r1, sp, #12
 621 003a 06A8     		add	r0, sp, #24
 622 003c FFF7FEFF 		bl	rfhelp_read_rx_data_crc
 623              	.LVL48:
 624              		.loc 1 191 0
 625 0040 0023     		movs	r3, #0
 626              		.loc 1 195 0
 627 0042 041E     		subs	r4, r0, #0
ARM GAS  /var/folders/sv/kgmgr77579zbf78p2zlhkdfr0000gn/T//ccTDgly2.s 			page 12


 628              		.loc 1 191 0
 629 0044 0593     		str	r3, [sp, #20]
 630              		.loc 1 195 0
 631 0046 C0F2ED80 		blt	.L43
 632              	.LBB90:
 633              		.loc 1 196 0
 634 004a 9DF81830 		ldrb	r3, [sp, #24]	@ zero_extendqisi2
 635              	.LVL49:
 636              		.loc 1 198 0
 637 004e 4FF4FA72 		mov	r2, #500
 638              		.loc 1 200 0
 639 0052 013B     		subs	r3, r3, #1
 640              	.LVL50:
 641              		.loc 1 198 0
 642 0054 2A60     		str	r2, [r5]
 643              		.loc 1 200 0
 644 0056 062B     		cmp	r3, #6
 645 0058 3BD8     		bhi	.L44
 646 005a DFE803F0 		tbb	[pc, r3]
 647              	.L46:
 648 005e 6F       		.byte	(.L45-.L46)/2
 649 005f 3A       		.byte	(.L44-.L46)/2
 650 0060 64       		.byte	(.L47-.L46)/2
 651 0061 52       		.byte	(.L48-.L46)/2
 652 0062 04       		.byte	(.L49-.L46)/2
 653 0063 41       		.byte	(.L50-.L46)/2
 654 0064 9F       		.byte	(.L51-.L46)/2
 655 0065 00       		.p2align 1
 656              	.L49:
 657              	.LBB87:
 658              		.loc 1 239 0
 659 0066 9DF81A30 		ldrb	r3, [sp, #26]	@ zero_extendqisi2
 660              	.LVL51:
 661              		.loc 1 238 0
 662 006a 9DF81960 		ldrb	r6, [sp, #25]	@ zero_extendqisi2
 663              	.LVL52:
 664              		.loc 1 239 0
 665 006e 43EA0626 		orr	r6, r3, r6, lsl #8
 666              	.LVL53:
 667              		.loc 1 241 0
 668 0072 B6F5806F 		cmp	r6, #1024
 669              		.loc 1 239 0
 670 0076 4FF00303 		mov	r3, #3
 671 007a 0593     		str	r3, [sp, #20]
 672              		.loc 1 241 0
 673 007c 29D8     		bhi	.L44
 674              	.LVL54:
 675              		.loc 1 248 0
 676 007e 039A     		ldr	r2, [sp, #12]
 677 0080 DFF84CA2 		ldr	r10, .L67+28
 678              		.loc 1 245 0
 679 0084 9DF81B30 		ldrb	r3, [sp, #27]	@ zero_extendqisi2
 680              		.loc 1 246 0
 681 0088 9DF81C10 		ldrb	r1, [sp, #28]	@ zero_extendqisi2
 682              		.loc 1 245 0
 683 008c 0093     		str	r3, [sp]
 684              	.LVL55:
ARM GAS  /var/folders/sv/kgmgr77579zbf78p2zlhkdfr0000gn/T//ccTDgly2.s 			page 13


 685              		.loc 1 248 0
 686 008e 053A     		subs	r2, r2, #5
 687 0090 B01A     		subs	r0, r6, r2
 688              	.LVL56:
 689              		.loc 1 246 0
 690 0092 0523     		movs	r3, #5
 691 0094 0191     		str	r1, [sp, #4]
 692              	.LVL57:
 693              		.loc 1 248 0
 694 0096 5044     		add	r0, r0, r10
 695 0098 0DF11D01 		add	r1, sp, #29
 696              		.loc 1 246 0
 697 009c 0593     		str	r3, [sp, #20]
 698              		.loc 1 248 0
 699 009e FFF7FEFF 		bl	memcpy
 700              	.LVL58:
 701              		.loc 1 250 0
 702 00a2 3146     		mov	r1, r6
 703 00a4 5046     		mov	r0, r10
 704 00a6 FFF7FEFF 		bl	crc16
 705              	.LVL59:
 706 00aa 0199     		ldr	r1, [sp, #4]
 707 00ac 009B     		ldr	r3, [sp]
 708 00ae 41EA0323 		orr	r3, r1, r3, lsl #8
 709 00b2 9842     		cmp	r0, r3
 710 00b4 0DD1     		bne	.L44
 711              		.loc 1 255 0
 712 00b6 1420     		movs	r0, #20
 713 00b8 FFF7FEFF 		bl	chThdSleep
 714              	.LVL60:
 715              		.loc 1 257 0
 716 00bc 8348     		ldr	r0, .L67+24
 717 00be FFF7FEFF 		bl	commands_set_send_func
 718              	.LVL61:
 719              		.loc 1 258 0
 720 00c2 0123     		movs	r3, #1
 721              		.loc 1 259 0
 722 00c4 3146     		mov	r1, r6
 723 00c6 5046     		mov	r0, r10
 724              		.loc 1 258 0
 725 00c8 3B70     		strb	r3, [r7]
 726              		.loc 1 259 0
 727 00ca FFF7FEFF 		bl	commands_process_packet
 728              	.LVL62:
 729              		.loc 1 260 0
 730 00ce 0023     		movs	r3, #0
 731 00d0 3B70     		strb	r3, [r7]
 732              	.LVL63:
 733              	.L44:
 734              	.LBE87:
 735              	.LBE90:
 736              		.loc 1 310 0
 737 00d2 002C     		cmp	r4, #0
 738 00d4 00F0A680 		beq	.L43
 739              		.loc 1 314 0
 740 00d8 0A20     		movs	r0, #10
 741 00da FFF7FEFF 		bl	chThdSleep
ARM GAS  /var/folders/sv/kgmgr77579zbf78p2zlhkdfr0000gn/T//ccTDgly2.s 			page 14


 742              	.LVL64:
 743              	.LBE84:
 744              		.loc 1 316 0
 745 00de AAE7     		b	.L42
 746              	.LVL65:
 747              	.L50:
 748              	.LBB92:
 749              	.LBB91:
 750              		.loc 1 267 0
 751 00e0 1420     		movs	r0, #20
 752              	.LVL66:
 753 00e2 FFF7FEFF 		bl	chThdSleep
 754              	.LVL67:
 755              		.loc 1 269 0
 756 00e6 7948     		ldr	r0, .L67+24
 757 00e8 FFF7FEFF 		bl	commands_set_send_func
 758              	.LVL68:
 759              		.loc 1 271 0
 760 00ec 0399     		ldr	r1, [sp, #12]
 761              		.loc 1 270 0
 762 00ee 0123     		movs	r3, #1
 763              		.loc 1 271 0
 764 00f0 0139     		subs	r1, r1, #1
 765 00f2 0DF11900 		add	r0, sp, #25
 766              		.loc 1 270 0
 767 00f6 3B70     		strb	r3, [r7]
 768              		.loc 1 271 0
 769 00f8 FFF7FEFF 		bl	commands_process_packet
 770              	.LVL69:
 771              		.loc 1 272 0
 772 00fc 0023     		movs	r3, #0
 773 00fe 3B70     		strb	r3, [r7]
 774              		.loc 1 273 0
 775 0100 E7E7     		b	.L44
 776              	.LVL70:
 777              	.L48:
 778              	.LBB88:
 779              		.loc 1 228 0
 780 0102 9DF81900 		ldrb	r0, [sp, #25]	@ zero_extendqisi2
 781              	.LVL71:
 782              		.loc 1 229 0
 783 0106 9DF81A30 		ldrb	r3, [sp, #26]	@ zero_extendqisi2
 784              	.LVL72:
 785 010a 43EA0023 		orr	r3, r3, r0, lsl #8
 786              	.LVL73:
 787              		.loc 1 230 0
 788 010e B3F5806F 		cmp	r3, #1024
 789 0112 DEDA     		bge	.L44
 790              		.loc 1 231 0
 791 0114 039A     		ldr	r2, [sp, #12]
 792 0116 6E48     		ldr	r0, .L67+28
 793 0118 033A     		subs	r2, r2, #3
 794 011a 1844     		add	r0, r0, r3
 795 011c 0DF11B01 		add	r1, sp, #27
 796 0120 FFF7FEFF 		bl	memcpy
 797              	.LVL74:
 798 0124 D5E7     		b	.L44
ARM GAS  /var/folders/sv/kgmgr77579zbf78p2zlhkdfr0000gn/T//ccTDgly2.s 			page 15


 799              	.LVL75:
 800              	.L47:
 801              	.LBE88:
 802              		.loc 1 224 0
 803 0126 9DF81930 		ldrb	r3, [sp, #25]	@ zero_extendqisi2
 804              	.LVL76:
 805 012a 039A     		ldr	r2, [sp, #12]
 806 012c 6848     		ldr	r0, .L67+28
 807              	.LVL77:
 808 012e 023A     		subs	r2, r2, #2
 809 0130 1844     		add	r0, r0, r3
 810 0132 0DF11A01 		add	r1, sp, #26
 811 0136 FFF7FEFF 		bl	memcpy
 812              	.LVL78:
 813              		.loc 1 225 0
 814 013a CAE7     		b	.L44
 815              	.LVL79:
 816              	.L45:
 817              		.loc 1 209 0
 818 013c 9DF81B30 		ldrb	r3, [sp, #27]	@ zero_extendqisi2
 819              	.LVL80:
 820              		.loc 1 207 0
 821 0140 644E     		ldr	r6, .L67+32
 822 0142 9DF81920 		ldrb	r2, [sp, #25]	@ zero_extendqisi2
 823 0146 3270     		strb	r2, [r6]
 824              		.loc 1 210 0
 825 0148 03F00101 		and	r1, r3, #1
 826              		.loc 1 208 0
 827 014c 9DF81A20 		ldrb	r2, [sp, #26]	@ zero_extendqisi2
 828              		.loc 1 210 0
 829 0150 B170     		strb	r1, [r6, #2]
 830              		.loc 1 211 0
 831 0152 C3F34001 		ubfx	r1, r3, #1, #1
 832              		.loc 1 208 0
 833 0156 7270     		strb	r2, [r6, #1]
 834              		.loc 1 212 0
 835 0158 C3F38003 		ubfx	r3, r3, #2, #1
 836              	.LVL81:
 837              		.loc 1 209 0
 838 015c 0422     		movs	r2, #4
 839              		.loc 1 211 0
 840 015e F170     		strb	r1, [r6, #3]
 841              		.loc 1 213 0
 842 0160 06A8     		add	r0, sp, #24
 843              	.LVL82:
 844 0162 05A9     		add	r1, sp, #20
 845              		.loc 1 212 0
 846 0164 3371     		strb	r3, [r6, #4]
 847              		.loc 1 209 0
 848 0166 0592     		str	r2, [sp, #20]
 849              		.loc 1 213 0
 850 0168 FFF7FEFF 		bl	buffer_get_int16
 851              	.LVL83:
 852 016c 07EE900A 		vmov	s15, r0	@ int
 853 0170 B8EEE77A 		vcvt.f32.s32	s14, s15
 854              		.loc 1 215 0
 855 0174 3378     		ldrb	r3, [r6]	@ zero_extendqisi2
ARM GAS  /var/folders/sv/kgmgr77579zbf78p2zlhkdfr0000gn/T//ccTDgly2.s 			page 16


 856              		.loc 1 216 0
 857 0176 7278     		ldrb	r2, [r6, #1]	@ zero_extendqisi2
 858 0178 0F92     		str	r2, [sp, #60]
 859              		.loc 1 213 0
 860 017a C7EE087A 		vdiv.f32	s15, s14, s16
 861              		.loc 1 215 0
 862 017e C3F1FF03 		rsb	r3, r3, #255
 863              		.loc 1 217 0
 864 0182 B178     		ldrb	r1, [r6, #2]	@ zero_extendqisi2
 865              		.loc 1 218 0
 866 0184 F278     		ldrb	r2, [r6, #3]	@ zero_extendqisi2
 867              		.loc 1 215 0
 868 0186 0E93     		str	r3, [sp, #56]
 869              		.loc 1 220 0
 870 0188 0EA8     		add	r0, sp, #56
 871              		.loc 1 217 0
 872 018a 8DF84C10 		strb	r1, [sp, #76]
 873              		.loc 1 218 0
 874 018e 8DF84D20 		strb	r2, [sp, #77]
 875              		.loc 1 213 0
 876 0192 C6ED027A 		vstr.32	s15, [r6, #8]
 877              		.loc 1 220 0
 878 0196 FFF7FEFF 		bl	app_nunchuk_update_output
 879              	.LVL84:
 880              		.loc 1 221 0
 881 019a 9AE7     		b	.L44
 882              	.LVL85:
 883              	.L51:
 884              	.LBB89:
 885              		.loc 1 276 0
 886 019c 0126     		movs	r6, #1
 887 019e 0596     		str	r6, [sp, #20]
 888              		.loc 1 278 0
 889 01a0 FFF7FEFF 		bl	app_get_configuration
 890              	.LVL86:
 891 01a4 C822     		movs	r2, #200
 892 01a6 0146     		mov	r1, r0
 893 01a8 0EA8     		add	r0, sp, #56
 894 01aa FFF7FEFF 		bl	memcpy
 895              	.LVL87:
 896              		.loc 1 279 0
 897 01ae 059A     		ldr	r2, [sp, #20]
 898              		.loc 1 283 0
 899 01b0 8DF8F660 		strb	r6, [sp, #246]
 900              		.loc 1 279 0
 901 01b4 40AB     		add	r3, sp, #256
 902 01b6 1344     		add	r3, r3, r2
 903              		.loc 1 282 0
 904 01b8 0432     		adds	r2, r2, #4
 905              		.loc 1 279 0
 906 01ba 13F8E80C 		ldrb	r0, [r3, #-232]	@ zero_extendqisi2
 907              		.loc 1 280 0
 908 01be 13F8E7EC 		ldrb	lr, [r3, #-231]	@ zero_extendqisi2
 909              		.loc 1 281 0
 910 01c2 13F8E61C 		ldrb	r1, [r3, #-230]	@ zero_extendqisi2
 911              		.loc 1 282 0
 912 01c6 0592     		str	r2, [sp, #20]
ARM GAS  /var/folders/sv/kgmgr77579zbf78p2zlhkdfr0000gn/T//ccTDgly2.s 			page 17


 913              		.loc 1 287 0
 914 01c8 4FF0000A 		mov	r10, #0
 915              		.loc 1 282 0
 916 01cc 13F8E52C 		ldrb	r2, [r3, #-229]	@ zero_extendqisi2
 917              		.loc 1 279 0
 918 01d0 8DF8FA00 		strb	r0, [sp, #250]
 919              		.loc 1 284 0
 920 01d4 0323     		movs	r3, #3
 921              		.loc 1 292 0
 922 01d6 0EA8     		add	r0, sp, #56
 923              		.loc 1 280 0
 924 01d8 8DF8FBE0 		strb	lr, [sp, #251]
 925              		.loc 1 282 0
 926 01dc 8DF8F920 		strb	r2, [sp, #249]
 927              		.loc 1 284 0
 928 01e0 8DF8F830 		strb	r3, [sp, #248]
 929              		.loc 1 285 0
 930 01e4 8DF8F730 		strb	r3, [sp, #247]
 931              		.loc 1 281 0
 932 01e8 8DF8FC10 		strb	r1, [sp, #252]
 933              		.loc 1 286 0
 934 01ec 8DF8FD60 		strb	r6, [sp, #253]
 935              		.loc 1 291 0
 936 01f0 3E70     		strb	r6, [r7]
 937              		.loc 1 287 0
 938 01f2 8DF8F4A0 		strb	r10, [sp, #244]
 939              		.loc 1 289 0
 940 01f6 8BF800A0 		strb	r10, [fp]
 941              		.loc 1 292 0
 942 01fa FFF7FEFF 		bl	conf_general_store_app_configuration
 943              	.LVL88:
 944              		.loc 1 293 0
 945 01fe 0EA8     		add	r0, sp, #56
 946 0200 FFF7FEFF 		bl	app_set_configuration
 947              	.LVL89:
 948              		.loc 1 294 0
 949 0204 0EA9     		add	r1, sp, #56
 950 0206 1120     		movs	r0, #17
 951 0208 FFF7FEFF 		bl	commands_send_appconf
 952              	.LVL90:
 953              		.loc 1 297 0
 954 020c 2523     		movs	r3, #37
 955              		.loc 1 299 0
 956 020e 0221     		movs	r1, #2
 957 0210 02A8     		add	r0, sp, #8
 958              		.loc 1 298 0
 959 0212 8DF80960 		strb	r6, [sp, #9]
 960              		.loc 1 297 0
 961 0216 8DF80830 		strb	r3, [sp, #8]
 962              		.loc 1 299 0
 963 021a FFF7FEFF 		bl	commands_send_packet
 964              	.LVL91:
 965              		.loc 1 301 0
 966 021e 87F800A0 		strb	r10, [r7]
 967              	.LBE89:
 968              		.loc 1 302 0
 969 0222 56E7     		b	.L44
ARM GAS  /var/folders/sv/kgmgr77579zbf78p2zlhkdfr0000gn/T//ccTDgly2.s 			page 18


 970              	.L43:
 971              	.LBE91:
 972              	.LBE92:
 973              	.LBB93:
 974              	.LBB94:
 975              		.file 3 "ChibiOS_3.0.2/os/rt/include/chvt.h"
 976              		.loc 3 231 0
 977 0224 D8F82820 		ldr	r2, [r8, #40]
 978              	.LBE94:
 979              	.LBE93:
 980              		.loc 1 318 0
 981 0228 D9F80030 		ldr	r3, [r9]
 982 022c 9A42     		cmp	r2, r3
 983 022e 02D9     		bls	.L54
 984              		.loc 1 318 0 is_stmt 0 discriminator 1
 985 0230 9BF80030 		ldrb	r3, [fp]	@ zero_extendqisi2
 986 0234 33BB     		cbnz	r3, .L66
 987              	.L54:
 988              		.loc 1 329 0 is_stmt 1
 989 0236 3220     		movs	r0, #50
 990 0238 FFF7FEFF 		bl	chThdSleep
 991              	.LVL92:
 992              		.loc 1 332 0
 993 023c 2B68     		ldr	r3, [r5]
 994 023e 2049     		ldr	r1, .L67+12
 995 0240 002B     		cmp	r3, #0
 996 0242 15DD     		ble	.L55
 997              		.loc 1 332 0 is_stmt 0 discriminator 1
 998 0244 244A     		ldr	r2, .L67+36
 999 0246 2448     		ldr	r0, .L67+36
 1000 0248 1268     		ldr	r2, [r2]
 1001 024a 002A     		cmp	r2, #0
 1002 024c 10DD     		ble	.L55
 1003              		.loc 1 333 0 is_stmt 1
 1004 024e 053B     		subs	r3, r3, #5
 1005              		.loc 1 334 0
 1006 0250 053A     		subs	r2, r2, #5
 1007              		.loc 1 333 0
 1008 0252 0B60     		str	r3, [r1]
 1009              		.loc 1 334 0
 1010 0254 0260     		str	r2, [r0]
 1011              	.L56:
 1012              		.loc 1 178 0
 1013 0256 194B     		ldr	r3, .L67+8
 1014 0258 1B78     		ldrb	r3, [r3]	@ zero_extendqisi2
 1015 025a 002B     		cmp	r3, #0
 1016 025c 3FF4EBAE 		beq	.L42
 1017              	.LVL93:
 1018              	.L41:
 1019              		.loc 1 179 0
 1020 0260 144A     		ldr	r2, .L67
 1021 0262 0023     		movs	r3, #0
 1022 0264 1370     		strb	r3, [r2]
 1023              	.LBE98:
 1024              		.loc 1 342 0
 1025 0266 41B0     		add	sp, sp, #260
 1026              		.cfi_remember_state
ARM GAS  /var/folders/sv/kgmgr77579zbf78p2zlhkdfr0000gn/T//ccTDgly2.s 			page 19


 1027              		.cfi_def_cfa_offset 44
 1028              		@ sp needed
 1029 0268 BDEC028B 		vldm	sp!, {d8}
 1030              		.cfi_restore 80
 1031              		.cfi_restore 81
 1032              		.cfi_def_cfa_offset 36
 1033 026c BDE8F08F 		pop	{r4, r5, r6, r7, r8, r9, r10, fp, pc}
 1034              	.LVL94:
 1035              	.L55:
 1036              		.cfi_restore_state
 1037              	.LBB99:
 1038              		.loc 1 336 0
 1039 0270 FFF7FEFF 		bl	rfhelp_power_up
 1040              	.LVL95:
 1041              		.loc 1 337 0
 1042 0274 FFF7FEFF 		bl	rfhelp_restart
 1043              	.LVL96:
 1044              		.loc 1 339 0
 1045 0278 174A     		ldr	r2, .L67+36
 1046              		.loc 1 338 0
 1047 027a 4FF4FA73 		mov	r3, #500
 1048 027e 2B60     		str	r3, [r5]
 1049              		.loc 1 339 0
 1050 0280 1360     		str	r3, [r2]
 1051 0282 E8E7     		b	.L56
 1052              	.L66:
 1053              	.LBB95:
 1054              		.loc 1 319 0
 1055 0284 0023     		movs	r3, #0
 1056 0286 8BF80030 		strb	r3, [fp]
 1057              		.loc 1 320 0
 1058 028a FFF7FEFF 		bl	app_get_configuration
 1059              	.LVL97:
 1060 028e BC30     		adds	r0, r0, #188
 1061 0290 07C8     		ldmia	r0, {r0, r1, r2}
 1062 0292 0EAB     		add	r3, sp, #56
 1063 0294 03C3     		stmia	r3!, {r0, r1}
 1064              		.loc 1 321 0
 1065 0296 0EA8     		add	r0, sp, #56
 1066              		.loc 1 320 0
 1067 0298 1A80     		strh	r2, [r3]	@ movhi
 1068              		.loc 1 321 0
 1069 029a FFF7FEFF 		bl	rfhelp_update_conf
 1070              	.LVL98:
 1071              		.loc 1 325 0
 1072 029e 0223     		movs	r3, #2
 1073              		.loc 1 324 0
 1074 02a0 2522     		movs	r2, #37
 1075              		.loc 1 326 0
 1076 02a2 1946     		mov	r1, r3
 1077 02a4 05A8     		add	r0, sp, #20
 1078              		.loc 1 325 0
 1079 02a6 8DF81530 		strb	r3, [sp, #21]
 1080              		.loc 1 324 0
 1081 02aa 8DF81420 		strb	r2, [sp, #20]
 1082              		.loc 1 326 0
 1083 02ae FFF7FEFF 		bl	commands_send_packet
ARM GAS  /var/folders/sv/kgmgr77579zbf78p2zlhkdfr0000gn/T//ccTDgly2.s 			page 20


 1084              	.LVL99:
 1085 02b2 C0E7     		b	.L54
 1086              	.L68:
 1087              		.align	2
 1088              	.L67:
 1089 02b4 00000000 		.word	.LANCHOR5
 1090 02b8 08000000 		.word	.LC1
 1091 02bc 00000000 		.word	.LANCHOR6
 1092 02c0 00000000 		.word	.LANCHOR7
 1093 02c4 00000000 		.word	.LANCHOR10
 1094 02c8 00007A44 		.word	1148846080
 1095 02cc 00000000 		.word	nrf_driver_send_buffer
 1096 02d0 00000000 		.word	.LANCHOR9
 1097 02d4 00000000 		.word	.LANCHOR8
 1098 02d8 00000000 		.word	.LANCHOR4
 1099 02dc 00000000 		.word	ch
 1100 02e0 00000000 		.word	.LANCHOR11
 1101 02e4 00000000 		.word	.LANCHOR3
 1102              	.LBE95:
 1103              	.LBE99:
 1104              		.cfi_endproc
 1105              	.LFE224:
 1106              		.size	rx_thread, .-rx_thread
 1107              		.section	.text.nrf_driver_stop.part.0,"ax",%progbits
 1108              		.align	2
 1109              		.p2align 4,,15
 1110              		.thumb
 1111              		.thumb_func
 1112              		.type	nrf_driver_stop.part.0, %function
 1113              	nrf_driver_stop.part.0:
 1114              	.LFB226:
 1115              		.loc 1 92 0
 1116              		.cfi_startproc
 1117              		@ args = 0, pretend = 0, frame = 0
 1118              		@ frame_needed = 0, uses_anonymous_args = 0
 1119              		.loc 1 97 0
 1120 0000 0D49     		ldr	r1, .L81
 1121              		.loc 1 98 0
 1122 0002 0E4A     		ldr	r2, .L81+4
 1123              		.loc 1 92 0
 1124 0004 38B5     		push	{r3, r4, r5, lr}
 1125              		.cfi_def_cfa_offset 16
 1126              		.cfi_offset 3, -16
 1127              		.cfi_offset 4, -12
 1128              		.cfi_offset 5, -8
 1129              		.cfi_offset 14, -4
 1130              		.loc 1 97 0
 1131 0006 0123     		movs	r3, #1
 1132              		.loc 1 100 0
 1133 0008 0D4C     		ldr	r4, .L81+8
 1134              		.loc 1 97 0
 1135 000a 0B70     		strb	r3, [r1]
 1136              		.loc 1 98 0
 1137 000c 1370     		strb	r3, [r2]
 1138              		.loc 1 100 0
 1139 000e 2378     		ldrb	r3, [r4]	@ zero_extendqisi2
 1140 0010 0C4D     		ldr	r5, .L81+12
ARM GAS  /var/folders/sv/kgmgr77579zbf78p2zlhkdfr0000gn/T//ccTDgly2.s 			page 21


 1141 0012 0BB9     		cbnz	r3, .L70
 1142 0014 2B78     		ldrb	r3, [r5]	@ zero_extendqisi2
 1143 0016 33B1     		cbz	r3, .L72
 1144              	.L70:
 1145              		.loc 1 101 0
 1146 0018 FFF7FEFF 		bl	rfhelp_stop
 1147              	.LVL100:
 1148              		.loc 1 104 0
 1149 001c 2378     		ldrb	r3, [r4]	@ zero_extendqisi2
 1150              		.loc 1 105 0
 1151 001e 0A20     		movs	r0, #10
 1152              		.loc 1 104 0
 1153 0020 2BB1     		cbz	r3, .L80
 1154              	.L73:
 1155              		.loc 1 105 0
 1156 0022 FFF7FEFF 		bl	chThdSleep
 1157              	.LVL101:
 1158              	.L72:
 1159              		.loc 1 104 0
 1160 0026 2378     		ldrb	r3, [r4]	@ zero_extendqisi2
 1161              		.loc 1 105 0
 1162 0028 0A20     		movs	r0, #10
 1163              		.loc 1 104 0
 1164 002a 002B     		cmp	r3, #0
 1165 002c F9D1     		bne	.L73
 1166              	.L80:
 1167 002e 2B78     		ldrb	r3, [r5]	@ zero_extendqisi2
 1168 0030 002B     		cmp	r3, #0
 1169 0032 F6D1     		bne	.L73
 1170              		.loc 1 107 0
 1171 0034 38BD     		pop	{r3, r4, r5, pc}
 1172              	.L82:
 1173 0036 00BF     		.align	2
 1174              	.L81:
 1175 0038 00000000 		.word	.LANCHOR1
 1176 003c 00000000 		.word	.LANCHOR6
 1177 0040 00000000 		.word	.LANCHOR5
 1178 0044 00000000 		.word	.LANCHOR0
 1179              		.cfi_endproc
 1180              	.LFE226:
 1181              		.size	nrf_driver_stop.part.0, .-nrf_driver_stop.part.0
 1182              		.section	.text.nrf_driver_init,"ax",%progbits
 1183              		.align	2
 1184              		.p2align 4,,15
 1185              		.global	nrf_driver_init
 1186              		.thumb
 1187              		.thumb_func
 1188              		.type	nrf_driver_init, %function
 1189              	nrf_driver_init:
 1190              	.LFB219:
 1191              		.loc 1 64 0
 1192              		.cfi_startproc
 1193              		@ args = 0, pretend = 0, frame = 0
 1194              		@ frame_needed = 0, uses_anonymous_args = 0
 1195 0000 F0B5     		push	{r4, r5, r6, r7, lr}
 1196              		.cfi_def_cfa_offset 20
 1197              		.cfi_offset 4, -20
ARM GAS  /var/folders/sv/kgmgr77579zbf78p2zlhkdfr0000gn/T//ccTDgly2.s 			page 22


 1198              		.cfi_offset 5, -16
 1199              		.cfi_offset 6, -12
 1200              		.cfi_offset 7, -8
 1201              		.cfi_offset 14, -4
 1202              		.loc 1 65 0
 1203 0002 1F4A     		ldr	r2, .L92
 1204 0004 1378     		ldrb	r3, [r2]	@ zero_extendqisi2
 1205              		.loc 1 64 0
 1206 0006 83B0     		sub	sp, sp, #12
 1207              		.cfi_def_cfa_offset 32
 1208              		.loc 1 65 0
 1209 0008 03F0FF04 		and	r4, r3, #255
 1210 000c 33B9     		cbnz	r3, .L84
 1211              	.LBB100:
 1212              	.LBB101:
 1213              		.loc 1 93 0
 1214 000e 1378     		ldrb	r3, [r2]	@ zero_extendqisi2
 1215 0010 002B     		cmp	r3, #0
 1216 0012 2DD0     		beq	.L90
 1217              	.LBE101:
 1218              	.LBE100:
 1219              		.loc 1 71 0
 1220 0014 FFF7FEFF 		bl	rfhelp_init
 1221              	.LVL102:
 1222 0018 0446     		mov	r4, r0
 1223 001a 10B9     		cbnz	r0, .L91
 1224              	.L84:
 1225              		.loc 1 90 0
 1226 001c 2046     		mov	r0, r4
 1227 001e 03B0     		add	sp, sp, #12
 1228              		.cfi_remember_state
 1229              		.cfi_def_cfa_offset 20
 1230              		@ sp needed
 1231 0020 F0BD     		pop	{r4, r5, r6, r7, pc}
 1232              	.L91:
 1233              		.cfi_restore_state
 1234              		.loc 1 82 0
 1235 0022 184E     		ldr	r6, .L92+4
 1236              		.loc 1 75 0
 1237 0024 184B     		ldr	r3, .L92+8
 1238              		.loc 1 76 0
 1239 0026 194A     		ldr	r2, .L92+12
 1240              		.loc 1 77 0
 1241 0028 1949     		ldr	r1, .L92+16
 1242              		.loc 1 79 0
 1243 002a 1A48     		ldr	r0, .L92+20
 1244              		.loc 1 80 0
 1245 002c 1A4F     		ldr	r7, .L92+24
 1246              		.loc 1 75 0
 1247 002e 0025     		movs	r5, #0
 1248              		.loc 1 84 0
 1249 0030 0095     		str	r5, [sp]
 1250              		.loc 1 82 0
 1251 0032 3570     		strb	r5, [r6]
 1252              		.loc 1 83 0
 1253 0034 194E     		ldr	r6, .L92+28
 1254              		.loc 1 75 0
ARM GAS  /var/folders/sv/kgmgr77579zbf78p2zlhkdfr0000gn/T//ccTDgly2.s 			page 23


 1255 0036 1D60     		str	r5, [r3]
 1256              		.loc 1 76 0
 1257 0038 1560     		str	r5, [r2]
 1258              		.loc 1 77 0
 1259 003a 0D60     		str	r5, [r1]
 1260              		.loc 1 79 0
 1261 003c 0560     		str	r5, [r0]
 1262              		.loc 1 84 0
 1263 003e 184B     		ldr	r3, .L92+32
 1264              		.loc 1 80 0
 1265 0040 3D70     		strb	r5, [r7]
 1266              		.loc 1 84 0
 1267 0042 3F22     		movs	r2, #63
 1268 0044 40F69811 		movw	r1, #2456
 1269              		.loc 1 83 0
 1270 0048 3570     		strb	r5, [r6]
 1271              		.loc 1 84 0
 1272 004a 1648     		ldr	r0, .L92+36
 1273 004c FFF7FEFF 		bl	chThdCreateStatic
 1274              	.LVL103:
 1275              		.loc 1 85 0
 1276 0050 0095     		str	r5, [sp]
 1277 0052 154B     		ldr	r3, .L92+40
 1278 0054 1548     		ldr	r0, .L92+44
 1279 0056 3F22     		movs	r2, #63
 1280 0058 4FF46671 		mov	r1, #920
 1281 005c FFF7FEFF 		bl	chThdCreateStatic
 1282              	.LVL104:
 1283              		.loc 1 86 0
 1284 0060 1349     		ldr	r1, .L92+48
 1285              		.loc 1 87 0
 1286 0062 144A     		ldr	r2, .L92+52
 1287              		.loc 1 86 0
 1288 0064 0123     		movs	r3, #1
 1289              		.loc 1 90 0
 1290 0066 2046     		mov	r0, r4
 1291              		.loc 1 86 0
 1292 0068 0B70     		strb	r3, [r1]
 1293              		.loc 1 87 0
 1294 006a 1370     		strb	r3, [r2]
 1295              		.loc 1 90 0
 1296 006c 03B0     		add	sp, sp, #12
 1297              		.cfi_remember_state
 1298              		.cfi_def_cfa_offset 20
 1299              		@ sp needed
 1300 006e F0BD     		pop	{r4, r5, r6, r7, pc}
 1301              	.L90:
 1302              		.cfi_restore_state
 1303              	.LBB103:
 1304              	.LBB102:
 1305 0070 FFF7FEFF 		bl	nrf_driver_stop.part.0
 1306              	.LVL105:
 1307              	.LBE102:
 1308              	.LBE103:
 1309              		.loc 1 71 0
 1310 0074 FFF7FEFF 		bl	rfhelp_init
 1311              	.LVL106:
ARM GAS  /var/folders/sv/kgmgr77579zbf78p2zlhkdfr0000gn/T//ccTDgly2.s 			page 24


 1312 0078 0446     		mov	r4, r0
 1313 007a 0028     		cmp	r0, #0
 1314 007c CED0     		beq	.L84
 1315 007e D0E7     		b	.L91
 1316              	.L93:
 1317              		.align	2
 1318              	.L92:
 1319 0080 00000000 		.word	.LANCHOR10
 1320 0084 00000000 		.word	.LANCHOR6
 1321 0088 00000000 		.word	.LANCHOR2
 1322 008c 00000000 		.word	.LANCHOR7
 1323 0090 00000000 		.word	.LANCHOR4
 1324 0094 00000000 		.word	.LANCHOR11
 1325 0098 00000000 		.word	.LANCHOR3
 1326 009c 00000000 		.word	.LANCHOR1
 1327 00a0 00000000 		.word	rx_thread
 1328 00a4 00000000 		.word	.LANCHOR12
 1329 00a8 00000000 		.word	tx_thread
 1330 00ac 00000000 		.word	.LANCHOR13
 1331 00b0 00000000 		.word	.LANCHOR5
 1332 00b4 00000000 		.word	.LANCHOR0
 1333              		.cfi_endproc
 1334              	.LFE219:
 1335              		.size	nrf_driver_init, .-nrf_driver_init
 1336              		.section	.text.nrf_driver_stop,"ax",%progbits
 1337              		.align	2
 1338              		.p2align 4,,15
 1339              		.global	nrf_driver_stop
 1340              		.thumb
 1341              		.thumb_func
 1342              		.type	nrf_driver_stop, %function
 1343              	nrf_driver_stop:
 1344              	.LFB220:
 1345              		.loc 1 92 0
 1346              		.cfi_startproc
 1347              		@ args = 0, pretend = 0, frame = 0
 1348              		@ frame_needed = 0, uses_anonymous_args = 0
 1349              		@ link register save eliminated.
 1350              		.loc 1 93 0
 1351 0000 024B     		ldr	r3, .L96
 1352 0002 1B78     		ldrb	r3, [r3]	@ zero_extendqisi2
 1353 0004 0BB9     		cbnz	r3, .L94
 1354 0006 FFF7FEBF 		b	nrf_driver_stop.part.0
 1355              	.LVL107:
 1356              	.L94:
 1357 000a 7047     		bx	lr
 1358              	.L97:
 1359              		.align	2
 1360              	.L96:
 1361 000c 00000000 		.word	.LANCHOR10
 1362              		.cfi_endproc
 1363              	.LFE220:
 1364              		.size	nrf_driver_stop, .-nrf_driver_stop
 1365              		.section	.text.nrf_driver_start_pairing,"ax",%progbits
 1366              		.align	2
 1367              		.p2align 4,,15
 1368              		.global	nrf_driver_start_pairing
ARM GAS  /var/folders/sv/kgmgr77579zbf78p2zlhkdfr0000gn/T//ccTDgly2.s 			page 25


 1369              		.thumb
 1370              		.thumb_func
 1371              		.type	nrf_driver_start_pairing, %function
 1372              	nrf_driver_start_pairing:
 1373              	.LFB221:
 1374              		.loc 1 109 0
 1375              		.cfi_startproc
 1376              		@ args = 0, pretend = 0, frame = 16
 1377              		@ frame_needed = 0, uses_anonymous_args = 0
 1378              	.LVL108:
 1379              		.loc 1 110 0
 1380 0000 1F4B     		ldr	r3, .L105
 1381 0002 1A78     		ldrb	r2, [r3]	@ zero_extendqisi2
 1382 0004 002A     		cmp	r2, #0
 1383 0006 39D0     		beq	.L103
 1384              		.loc 1 109 0
 1385 0008 70B5     		push	{r4, r5, r6, lr}
 1386              		.cfi_def_cfa_offset 16
 1387              		.cfi_offset 4, -16
 1388              		.cfi_offset 5, -12
 1389              		.cfi_offset 6, -8
 1390              		.cfi_offset 14, -4
 1391              		.loc 1 114 0
 1392 000a 42F21073 		movw	r3, #10000
 1393              	.LBB104:
 1394              	.LBB105:
 1395              		.loc 3 231 0
 1396 000e 1D4A     		ldr	r2, .L105+4
 1397              	.LBE105:
 1398              	.LBE104:
 1399              		.loc 1 114 0
 1400 0010 1D4E     		ldr	r6, .L105+8
 1401              		.loc 1 116 0
 1402 0012 1E49     		ldr	r1, .L105+12
 1403              	.LBB107:
 1404              	.LBB106:
 1405              		.loc 3 231 0
 1406 0014 926A     		ldr	r2, [r2, #40]
 1407              	.LBE106:
 1408              	.LBE107:
 1409              		.loc 1 114 0
 1410 0016 1E4D     		ldr	r5, .L105+16
 1411              		.loc 1 116 0
 1412 0018 0C78     		ldrb	r4, [r1]	@ zero_extendqisi2
 1413              		.loc 1 114 0
 1414 001a 03FB00F3 		mul	r3, r3, r0
 1415 001e 03F2E733 		addw	r3, r3, #999
 1416 0022 A6FB0330 		umull	r3, r0, r6, r3
 1417              	.LVL109:
 1418 0026 02EB9010 		add	r0, r2, r0, lsr #6
 1419              		.loc 1 109 0
 1420 002a 84B0     		sub	sp, sp, #16
 1421              		.cfi_def_cfa_offset 32
 1422              		.loc 1 114 0
 1423 002c 2860     		str	r0, [r5]
 1424              		.loc 1 116 0
 1425 002e 0CB1     		cbz	r4, .L104
ARM GAS  /var/folders/sv/kgmgr77579zbf78p2zlhkdfr0000gn/T//ccTDgly2.s 			page 26


 1426              		.loc 1 132 0
 1427 0030 04B0     		add	sp, sp, #16
 1428              		.cfi_remember_state
 1429              		.cfi_def_cfa_offset 16
 1430              		@ sp needed
 1431 0032 70BD     		pop	{r4, r5, r6, pc}
 1432              	.L104:
 1433              		.cfi_restore_state
 1434              	.LBB108:
 1435              		.loc 1 117 0 discriminator 2
 1436 0034 0125     		movs	r5, #1
 1437 0036 0D70     		strb	r5, [r1]
 1438              		.loc 1 119 0 discriminator 2
 1439 0038 FFF7FEFF 		bl	app_get_configuration
 1440              	.LVL110:
 1441 003c BC30     		adds	r0, r0, #188
 1442 003e 07C8     		ldmia	r0, {r0, r1, r2}
 1443              		.loc 1 128 0 discriminator 2
 1444 0040 04AA     		add	r2, sp, #16
 1445              		.loc 1 119 0 discriminator 2
 1446 0042 01AB     		add	r3, sp, #4
 1447 0044 03C3     		stmia	r3!, {r0, r1}
 1448              		.loc 1 128 0 discriminator 2
 1449 0046 02F80C4D 		strb	r4, [r2, #-12]!
 1450              		.loc 1 125 0 discriminator 2
 1451 004a 0323     		movs	r3, #3
 1452              		.loc 1 130 0 discriminator 2
 1453 004c 1046     		mov	r0, r2
 1454              		.loc 1 121 0 discriminator 2
 1455 004e C521     		movs	r1, #197
 1456              		.loc 1 123 0 discriminator 2
 1457 0050 7C22     		movs	r2, #124
 1458              		.loc 1 120 0 discriminator 2
 1459 0052 C626     		movs	r6, #198
 1460              		.loc 1 127 0 discriminator 2
 1461 0054 8DF80D50 		strb	r5, [sp, #13]
 1462              		.loc 1 122 0 discriminator 2
 1463 0058 8DF80C40 		strb	r4, [sp, #12]
 1464              		.loc 1 124 0 discriminator 2
 1465 005c 8DF80650 		strb	r5, [sp, #6]
 1466              		.loc 1 120 0 discriminator 2
 1467 0060 8DF80A60 		strb	r6, [sp, #10]
 1468              		.loc 1 121 0 discriminator 2
 1469 0064 8DF80B10 		strb	r1, [sp, #11]
 1470              		.loc 1 123 0 discriminator 2
 1471 0068 8DF80920 		strb	r2, [sp, #9]
 1472              		.loc 1 125 0 discriminator 2
 1473 006c 8DF80830 		strb	r3, [sp, #8]
 1474              		.loc 1 126 0 discriminator 2
 1475 0070 8DF80730 		strb	r3, [sp, #7]
 1476              		.loc 1 130 0 discriminator 2
 1477 0074 FFF7FEFF 		bl	rfhelp_update_conf
 1478              	.LVL111:
 1479              	.LBE108:
 1480              		.loc 1 132 0 discriminator 2
 1481 0078 04B0     		add	sp, sp, #16
 1482              		.cfi_def_cfa_offset 16
ARM GAS  /var/folders/sv/kgmgr77579zbf78p2zlhkdfr0000gn/T//ccTDgly2.s 			page 27


 1483              		@ sp needed
 1484 007a 70BD     		pop	{r4, r5, r6, pc}
 1485              	.LVL112:
 1486              	.L103:
 1487              		.cfi_def_cfa_offset 0
 1488              		.cfi_restore 4
 1489              		.cfi_restore 5
 1490              		.cfi_restore 6
 1491              		.cfi_restore 14
 1492 007c 7047     		bx	lr
 1493              	.L106:
 1494 007e 00BF     		.align	2
 1495              	.L105:
 1496 0080 00000000 		.word	.LANCHOR5
 1497 0084 00000000 		.word	ch
 1498 0088 D34D6210 		.word	274877907
 1499 008c 00000000 		.word	.LANCHOR3
 1500 0090 00000000 		.word	.LANCHOR11
 1501              		.cfi_endproc
 1502              	.LFE221:
 1503              		.size	nrf_driver_start_pairing, .-nrf_driver_start_pairing
 1504              		.section	.data.rx_stop,"aw",%progbits
 1505              		.set	.LANCHOR6,. + 0
 1506              		.type	rx_stop, %object
 1507              		.size	rx_stop, 1
 1508              	rx_stop:
 1509 0000 01       		.byte	1
 1510              		.section	.bss.nosend_cnt,"aw",%nobits
 1511              		.align	2
 1512              		.set	.LANCHOR2,. + 0
 1513              		.type	nosend_cnt, %object
 1514              		.size	nosend_cnt, 4
 1515              	nosend_cnt:
 1516 0000 00000000 		.space	4
 1517              		.section	.bss.tx_running,"aw",%nobits
 1518              		.set	.LANCHOR0,. + 0
 1519              		.type	tx_running, %object
 1520              		.size	tx_running, 1
 1521              	tx_running:
 1522 0000 00       		.space	1
 1523              		.section	.bss.nrf_restart_tx_time,"aw",%nobits
 1524              		.align	2
 1525              		.set	.LANCHOR4,. + 0
 1526              		.type	nrf_restart_tx_time, %object
 1527              		.size	nrf_restart_tx_time, 4
 1528              	nrf_restart_tx_time:
 1529 0000 00000000 		.space	4
 1530              		.section	.bss.pairing_time_end,"aw",%nobits
 1531              		.align	2
 1532              		.set	.LANCHOR11,. + 0
 1533              		.type	pairing_time_end, %object
 1534              		.size	pairing_time_end, 4
 1535              	pairing_time_end:
 1536 0000 00000000 		.space	4
 1537              		.section	.rodata.str1.4,"aMS",%progbits,1
 1538              		.align	2
 1539              	.LC0:
ARM GAS  /var/folders/sv/kgmgr77579zbf78p2zlhkdfr0000gn/T//ccTDgly2.s 			page 28


 1540 0000 4E726620 		.ascii	"Nrf TX\000"
 1540      545800
 1541 0007 00       		.space	1
 1542              	.LC1:
 1543 0008 4E726620 		.ascii	"Nrf RX\000"
 1543      525800
 1544              		.section	.bss.rx_running,"aw",%nobits
 1545              		.set	.LANCHOR5,. + 0
 1546              		.type	rx_running, %object
 1547              		.size	rx_running, 1
 1548              	rx_running:
 1549 0000 00       		.space	1
 1550              		.section	.bss.from_nrf,"aw",%nobits
 1551              		.set	.LANCHOR10,. + 0
 1552              		.type	from_nrf, %object
 1553              		.size	from_nrf, 1
 1554              	from_nrf:
 1555 0000 00       		.space	1
 1556              		.section	.bss.rx_thread_wa,"aw",%nobits
 1557              		.align	3
 1558              		.set	.LANCHOR12,. + 0
 1559              		.type	rx_thread_wa, %object
 1560              		.size	rx_thread_wa, 2456
 1561              	rx_thread_wa:
 1562 0000 00000000 		.space	2456
 1562      00000000 
 1562      00000000 
 1562      00000000 
 1562      00000000 
 1563              		.section	.bss.nrf_restart_rx_time,"aw",%nobits
 1564              		.align	2
 1565              		.set	.LANCHOR7,. + 0
 1566              		.type	nrf_restart_rx_time, %object
 1567              		.size	nrf_restart_rx_time, 4
 1568              	nrf_restart_rx_time:
 1569 0000 00000000 		.space	4
 1570              		.section	.data.tx_stop,"aw",%progbits
 1571              		.set	.LANCHOR1,. + 0
 1572              		.type	tx_stop, %object
 1573              		.size	tx_stop, 1
 1574              	tx_stop:
 1575 0000 01       		.byte	1
 1576              		.section	.bss.rx_buffer,"aw",%nobits
 1577              		.align	2
 1578              		.set	.LANCHOR9,. + 0
 1579              		.type	rx_buffer, %object
 1580              		.size	rx_buffer, 1024
 1581              	rx_buffer:
 1582 0000 00000000 		.space	1024
 1582      00000000 
 1582      00000000 
 1582      00000000 
 1582      00000000 
 1583              		.section	.bss.pairing_active,"aw",%nobits
 1584              		.set	.LANCHOR3,. + 0
 1585              		.type	pairing_active, %object
 1586              		.size	pairing_active, 1
ARM GAS  /var/folders/sv/kgmgr77579zbf78p2zlhkdfr0000gn/T//ccTDgly2.s 			page 29


 1587              	pairing_active:
 1588 0000 00       		.space	1
 1589              		.section	.bss.mstate,"aw",%nobits
 1590              		.align	2
 1591              		.set	.LANCHOR8,. + 0
 1592              		.type	mstate, %object
 1593              		.size	mstate, 12
 1594              	mstate:
 1595 0000 00000000 		.space	12
 1595      00000000 
 1595      00000000 
 1596              		.section	.bss.tx_thread_wa,"aw",%nobits
 1597              		.align	3
 1598              		.set	.LANCHOR13,. + 0
 1599              		.type	tx_thread_wa, %object
 1600              		.size	tx_thread_wa, 920
 1601              	tx_thread_wa:
 1602 0000 00000000 		.space	920
 1602      00000000 
 1602      00000000 
 1602      00000000 
 1602      00000000 
 1603              		.text
 1604              	.Letext0:
 1605              		.file 4 "/usr/local/Cellar/gcc-arm-none-eabi/20160928/lib/gcc/arm-none-eabi/5.4.1/include/stddef.h
 1606              		.file 5 "/usr/local/Cellar/gcc-arm-none-eabi/20160928/arm-none-eabi/include/machine/_default_types
 1607              		.file 6 "/usr/local/Cellar/gcc-arm-none-eabi/20160928/arm-none-eabi/include/sys/_stdint.h"
 1608              		.file 7 "ChibiOS_3.0.2/os/rt/ports/ARMCMx/compilers/GCC/chtypes.h"
 1609              		.file 8 "ChibiOS_3.0.2/os/rt/include/chsystypes.h"
 1610              		.file 9 "ChibiOS_3.0.2/os/rt/include/chschd.h"
 1611              		.file 10 "ChibiOS_3.0.2/os/rt/ports/ARMCMx/chcore.h"
 1612              		.file 11 "ChibiOS_3.0.2/os/rt/ports/ARMCMx/chcore_v7m.h"
 1613              		.file 12 "ChibiOS_3.0.2/os/rt/include/chtm.h"
 1614              		.file 13 "ChibiOS_3.0.2/os/rt/include/chsem.h"
 1615              		.file 14 "ChibiOS_3.0.2/os/rt/include/chmtx.h"
 1616              		.file 15 "./datatypes.h"
 1617              		.file 16 "nrf/rfhelp.h"
 1618              		.file 17 "ChibiOS_3.0.2/os/rt/include/chthreads.h"
 1619              		.file 18 "./crc.h"
 1620              		.file 19 "applications/app.h"
 1621              		.file 20 "./conf_general.h"
 1622              		.file 21 "./commands.h"
 1623              		.file 22 "./buffer.h"
 1624              		.file 23 "ChibiOS_3.0.2/os/ext/CMSIS/include/core_cm4.h"