ARM GAS  /var/folders/sv/kgmgr77579zbf78p2zlhkdfr0000gn/T//ccfXf5Do.s 			page 1


   1              		.syntax unified
   2              		.cpu cortex-m4
   3              		.eabi_attribute 27, 1
   4              		.eabi_attribute 28, 1
   5              		.fpu fpv4-sp-d16
   6              		.eabi_attribute 20, 1
   7              		.eabi_attribute 21, 1
   8              		.eabi_attribute 23, 3
   9              		.eabi_attribute 24, 1
  10              		.eabi_attribute 25, 1
  11              		.eabi_attribute 26, 1
  12              		.eabi_attribute 30, 2
  13              		.eabi_attribute 34, 1
  14              		.eabi_attribute 18, 4
  15              		.thumb
  16              		.syntax unified
  17              		.file	"packet.c"
  18              		.text
  19              	.Ltext0:
  20              		.cfi_sections	.debug_frame
  21              		.section	.text.packet_init,"ax",%progbits
  22              		.align	2
  23              		.p2align 4,,15
  24              		.global	packet_init
  25              		.thumb
  26              		.thumb_func
  27              		.type	packet_init, %function
  28              	packet_init:
  29              	.LFB0:
  30              		.file 1 "packet.c"
  31              		.loc 1 40 0
  32              		.cfi_startproc
  33              		@ args = 0, pretend = 0, frame = 0
  34              		@ frame_needed = 0, uses_anonymous_args = 0
  35              		@ link register save eliminated.
  36              	.LVL0:
  37              		.loc 1 41 0
  38 0000 034B     		ldr	r3, .L2
  39 0002 02EB8212 		add	r2, r2, r2, lsl #6
  40              	.LVL1:
  41 0006 03EB4212 		add	r2, r3, r2, lsl #5
  42 000a 5060     		str	r0, [r2, #4]
  43              		.loc 1 42 0
  44 000c 9160     		str	r1, [r2, #8]
  45 000e 7047     		bx	lr
  46              	.L3:
  47              		.align	2
  48              	.L2:
  49 0010 00000000 		.word	.LANCHOR0
  50              		.cfi_endproc
  51              	.LFE0:
  52              		.size	packet_init, .-packet_init
  53              		.section	.text.packet_send_packet,"ax",%progbits
  54              		.align	2
  55              		.p2align 4,,15
  56              		.global	packet_send_packet
  57              		.thumb
ARM GAS  /var/folders/sv/kgmgr77579zbf78p2zlhkdfr0000gn/T//ccfXf5Do.s 			page 2


  58              		.thumb_func
  59              		.type	packet_send_packet, %function
  60              	packet_send_packet:
  61              	.LFB1:
  62              		.loc 1 45 0
  63              		.cfi_startproc
  64              		@ args = 0, pretend = 0, frame = 0
  65              		@ frame_needed = 0, uses_anonymous_args = 0
  66              	.LVL2:
  67              		.loc 1 46 0
  68 0000 B1F5806F 		cmp	r1, #1024
  69 0004 3BD8     		bhi	.L14
  70              	.LVL3:
  71              		.loc 1 45 0
  72 0006 2DE9F047 		push	{r4, r5, r6, r7, r8, r9, r10, lr}
  73              		.cfi_def_cfa_offset 32
  74              		.cfi_offset 4, -32
  75              		.cfi_offset 5, -28
  76              		.cfi_offset 6, -24
  77              		.cfi_offset 7, -20
  78              		.cfi_offset 8, -16
  79              		.cfi_offset 9, -12
  80              		.cfi_offset 10, -8
  81              		.cfi_offset 14, -4
  82              		.loc 1 53 0
  83 000a 9401     		lsls	r4, r2, #6
  84 000c DFF87480 		ldr	r8, .L17
  85 0010 A318     		adds	r3, r4, r2
  86              		.loc 1 52 0
  87 0012 B1F5807F 		cmp	r1, #256
  88              		.loc 1 53 0
  89 0016 08EB4313 		add	r3, r8, r3, lsl #5
  90              		.loc 1 52 0
  91 001a 2AD9     		bls	.L16
  92              	.LVL4:
  93              		.loc 1 57 0
  94 001c 0E0A     		lsrs	r6, r1, #8
  95              		.loc 1 56 0
  96 001e 0325     		movs	r5, #3
  97              		.loc 1 58 0
  98 0020 83F81214 		strb	r1, [r3, #1042]
  99              		.loc 1 57 0
 100 0024 83F81164 		strb	r6, [r3, #1041]
 101              		.loc 1 56 0
 102 0028 83F81054 		strb	r5, [r3, #1040]
 103              	.LVL5:
 104              	.L8:
 105              		.loc 1 61 0
 106 002c 2244     		add	r2, r2, r4
 107              	.LVL6:
 108 002e 5401     		lsls	r4, r2, #5
 109 0030 04F58269 		add	r9, r4, #1040
 110 0034 0746     		mov	r7, r0
 111 0036 C144     		add	r9, r9, r8
 112 0038 0A46     		mov	r2, r1
 113 003a 0E46     		mov	r6, r1
 114 003c 09EB0500 		add	r0, r9, r5
ARM GAS  /var/folders/sv/kgmgr77579zbf78p2zlhkdfr0000gn/T//ccfXf5Do.s 			page 3


 115              	.LVL7:
 116 0040 3946     		mov	r1, r7
 117              	.LVL8:
 118 0042 FFF7FEFF 		bl	memcpy
 119              	.LVL9:
 120              		.loc 1 64 0
 121 0046 3146     		mov	r1, r6
 122 0048 3846     		mov	r0, r7
 123 004a FFF7FEFF 		bl	crc16
 124              	.LVL10:
 125              		.loc 1 65 0
 126 004e 4444     		add	r4, r4, r8
 127              		.loc 1 62 0
 128 0050 3544     		add	r5, r5, r6
 129              	.LVL11:
 130              		.loc 1 65 0
 131 0052 6319     		adds	r3, r4, r5
 132              		.loc 1 69 0
 133 0054 6268     		ldr	r2, [r4, #4]
 134              		.loc 1 66 0
 135 0056 83F81104 		strb	r0, [r3, #1041]
 136              		.loc 1 67 0
 137 005a 0324     		movs	r4, #3
 138              		.loc 1 65 0
 139 005c 000A     		lsrs	r0, r0, #8
 140              	.LVL12:
 141 005e 83F81004 		strb	r0, [r3, #1040]
 142              	.LVL13:
 143              		.loc 1 67 0
 144 0062 2919     		adds	r1, r5, r4
 145              	.LVL14:
 146 0064 83F81244 		strb	r4, [r3, #1042]
 147              		.loc 1 69 0
 148 0068 52B1     		cbz	r2, .L4
 149              		.loc 1 70 0
 150 006a 4846     		mov	r0, r9
 151              		.loc 1 72 0
 152 006c BDE8F047 		pop	{r4, r5, r6, r7, r8, r9, r10, lr}
 153              		.cfi_remember_state
 154              		.cfi_restore 14
 155              		.cfi_restore 10
 156              		.cfi_restore 9
 157              		.cfi_restore 8
 158              		.cfi_restore 7
 159              		.cfi_restore 6
 160              		.cfi_restore 5
 161              		.cfi_restore 4
 162              		.cfi_def_cfa_offset 0
 163              	.LVL15:
 164              		.loc 1 70 0
 165 0070 1047     		bx	r2	@ indirect register sibling call
 166              	.LVL16:
 167              	.L16:
 168              		.cfi_restore_state
 169              		.loc 1 53 0
 170 0072 0225     		movs	r5, #2
 171              		.loc 1 54 0
ARM GAS  /var/folders/sv/kgmgr77579zbf78p2zlhkdfr0000gn/T//ccfXf5Do.s 			page 4


 172 0074 83F81114 		strb	r1, [r3, #1041]
 173              		.loc 1 53 0
 174 0078 83F81054 		strb	r5, [r3, #1040]
 175              	.LVL17:
 176 007c D6E7     		b	.L8
 177              	.LVL18:
 178              	.L14:
 179              		.cfi_def_cfa_offset 0
 180              		.cfi_restore 4
 181              		.cfi_restore 5
 182              		.cfi_restore 6
 183              		.cfi_restore 7
 184              		.cfi_restore 8
 185              		.cfi_restore 9
 186              		.cfi_restore 10
 187              		.cfi_restore 14
 188 007e 7047     		bx	lr
 189              	.LVL19:
 190              	.L4:
 191              		.cfi_def_cfa_offset 32
 192              		.cfi_offset 4, -32
 193              		.cfi_offset 5, -28
 194              		.cfi_offset 6, -24
 195              		.cfi_offset 7, -20
 196              		.cfi_offset 8, -16
 197              		.cfi_offset 9, -12
 198              		.cfi_offset 10, -8
 199              		.cfi_offset 14, -4
 200 0080 BDE8F087 		pop	{r4, r5, r6, r7, r8, r9, r10, pc}
 201              	.LVL20:
 202              	.L18:
 203              		.align	2
 204              	.L17:
 205 0084 00000000 		.word	.LANCHOR0
 206              		.cfi_endproc
 207              	.LFE1:
 208              		.size	packet_send_packet, .-packet_send_packet
 209              		.section	.text.packet_timerfunc,"ax",%progbits
 210              		.align	2
 211              		.p2align 4,,15
 212              		.global	packet_timerfunc
 213              		.thumb
 214              		.thumb_func
 215              		.type	packet_timerfunc, %function
 216              	packet_timerfunc:
 217              	.LFB2:
 218              		.loc 1 77 0
 219              		.cfi_startproc
 220              		@ args = 0, pretend = 0, frame = 0
 221              		@ frame_needed = 0, uses_anonymous_args = 0
 222              		@ link register save eliminated.
 223              	.LVL21:
 224              	.LBB2:
 225              		.loc 1 79 0
 226 0000 0F4A     		ldr	r2, .L25
 227 0002 5388     		ldrh	r3, [r2, #2]
 228 0004 9BB2     		uxth	r3, r3
ARM GAS  /var/folders/sv/kgmgr77579zbf78p2zlhkdfr0000gn/T//ccfXf5Do.s 			page 5


 229 0006 7BB9     		cbnz	r3, .L20
 230              	.LVL22:
 231              		.loc 1 82 0
 232 0008 1370     		strb	r3, [r2]
 233              		.loc 1 79 0
 234 000a B2F82238 		ldrh	r3, [r2, #2082]
 235 000e 0C4A     		ldr	r2, .L25
 236 0010 9BB2     		uxth	r3, r3
 237 0012 33B1     		cbz	r3, .L24
 238              	.L22:
 239              		.loc 1 80 0
 240 0014 B2F82238 		ldrh	r3, [r2, #2082]
 241 0018 013B     		subs	r3, r3, #1
 242 001a 9BB2     		uxth	r3, r3
 243 001c A2F82238 		strh	r3, [r2, #2082]	@ movhi
 244              	.LVL23:
 245 0020 7047     		bx	lr
 246              	.LVL24:
 247              	.L24:
 248              		.loc 1 82 0
 249 0022 82F82038 		strb	r3, [r2, #2080]
 250 0026 7047     		bx	lr
 251              	.LVL25:
 252              	.L20:
 253              		.loc 1 80 0
 254 0028 5388     		ldrh	r3, [r2, #2]
 255 002a 013B     		subs	r3, r3, #1
 256 002c 9BB2     		uxth	r3, r3
 257 002e 5380     		strh	r3, [r2, #2]	@ movhi
 258              	.LVL26:
 259              		.loc 1 79 0
 260 0030 B2F82238 		ldrh	r3, [r2, #2082]
 261 0034 024A     		ldr	r2, .L25
 262 0036 9BB2     		uxth	r3, r3
 263 0038 002B     		cmp	r3, #0
 264 003a EBD1     		bne	.L22
 265 003c F1E7     		b	.L24
 266              	.L26:
 267 003e 00BF     		.align	2
 268              	.L25:
 269 0040 00000000 		.word	.LANCHOR0
 270              	.LBE2:
 271              		.cfi_endproc
 272              	.LFE2:
 273              		.size	packet_timerfunc, .-packet_timerfunc
 274              		.section	.text.packet_process_byte,"ax",%progbits
 275              		.align	2
 276              		.p2align 4,,15
 277              		.global	packet_process_byte
 278              		.thumb
 279              		.thumb_func
 280              		.type	packet_process_byte, %function
 281              	packet_process_byte:
 282              	.LFB3:
 283              		.loc 1 87 0
 284              		.cfi_startproc
 285              		@ args = 0, pretend = 0, frame = 0
ARM GAS  /var/folders/sv/kgmgr77579zbf78p2zlhkdfr0000gn/T//ccfXf5Do.s 			page 6


 286              		@ frame_needed = 0, uses_anonymous_args = 0
 287              	.LVL27:
 288 0000 2DE9F843 		push	{r3, r4, r5, r6, r7, r8, r9, lr}
 289              		.cfi_def_cfa_offset 32
 290              		.cfi_offset 3, -32
 291              		.cfi_offset 4, -28
 292              		.cfi_offset 5, -24
 293              		.cfi_offset 6, -20
 294              		.cfi_offset 7, -16
 295              		.cfi_offset 8, -12
 296              		.cfi_offset 9, -8
 297              		.cfi_offset 14, -4
 298              		.loc 1 88 0
 299 0004 8E01     		lsls	r6, r1, #6
 300 0006 7318     		adds	r3, r6, r1
 301 0008 5B01     		lsls	r3, r3, #5
 302 000a 564D     		ldr	r5, .L55
 303 000c EB5C     		ldrb	r3, [r5, r3]	@ zero_extendqisi2
 304 000e 062B     		cmp	r3, #6
 305 0010 70D8     		bhi	.L28
 306 0012 DFE803F0 		tbb	[pc, r3]
 307              	.L30:
 308 0016 0E       		.byte	(.L29-.L30)/2
 309 0017 19       		.byte	(.L31-.L30)/2
 310 0018 27       		.byte	(.L32-.L30)/2
 311 0019 3B       		.byte	(.L33-.L30)/2
 312 001a 5A       		.byte	(.L34-.L30)/2
 313 001b 68       		.byte	(.L35-.L30)/2
 314 001c 04       		.byte	(.L36-.L30)/2
 315 001d 00       		.p2align 1
 316              	.L36:
 317              		.loc 1 145 0
 318 001e 0328     		cmp	r0, #3
 319 0020 0C46     		mov	r4, r1
 320 0022 00F08380 		beq	.L52
 321              	.LVL28:
 322              	.L43:
 323              		.loc 1 156 0
 324 0026 3444     		add	r4, r4, r6
 325              	.LVL29:
 326 0028 6401     		lsls	r4, r4, #5
 327 002a 0023     		movs	r3, #0
 328 002c 2B55     		strb	r3, [r5, r4]
 329              		.loc 1 157 0
 330 002e BDE8F883 		pop	{r3, r4, r5, r6, r7, r8, r9, pc}
 331              	.LVL30:
 332              	.L29:
 333              		.loc 1 92 0
 334 0032 3144     		add	r1, r1, r6
 335              	.LVL31:
 336              		.loc 1 90 0
 337 0034 0228     		cmp	r0, #2
 338              		.loc 1 92 0
 339 0036 4FEA4111 		lsl	r1, r1, #5
 340              		.loc 1 90 0
 341 003a 73D0     		beq	.L53
 342              		.loc 1 96 0
ARM GAS  /var/folders/sv/kgmgr77579zbf78p2zlhkdfr0000gn/T//ccfXf5Do.s 			page 7


 343 003c 0328     		cmp	r0, #3
 344 003e 63D0     		beq	.L54
 345              		.loc 1 160 0
 346 0040 0023     		movs	r3, #0
 347 0042 6B54     		strb	r3, [r5, r1]
 348 0044 BDE8F883 		pop	{r3, r4, r5, r6, r7, r8, r9, pc}
 349              	.LVL32:
 350              	.L31:
 351              		.loc 1 108 0
 352 0048 3144     		add	r1, r1, r6
 353              	.LVL33:
 354 004a 4901     		lsls	r1, r1, #5
 355 004c 6A18     		adds	r2, r5, r1
 356              		.loc 1 109 0
 357 004e 6B5C     		ldrb	r3, [r5, r1]	@ zero_extendqisi2
 358 0050 0133     		adds	r3, r3, #1
 359 0052 DBB2     		uxtb	r3, r3
 360 0054 6B54     		strb	r3, [r5, r1]
 361              		.loc 1 108 0
 362 0056 0002     		lsls	r0, r0, #8
 363              	.LVL34:
 364              		.loc 1 110 0
 365 0058 4FF47A74 		mov	r4, #1000
 366              		.loc 1 108 0
 367 005c D060     		str	r0, [r2, #12]
 368              		.loc 1 110 0
 369 005e 5480     		strh	r4, [r2, #2]	@ movhi
 370              		.loc 1 111 0
 371 0060 BDE8F883 		pop	{r3, r4, r5, r6, r7, r8, r9, pc}
 372              	.LVL35:
 373              	.L32:
 374              		.loc 1 114 0
 375 0064 3144     		add	r1, r1, r6
 376              	.LVL36:
 377 0066 4901     		lsls	r1, r1, #5
 378 0068 0D44     		add	r5, r5, r1
 379 006a 3E4A     		ldr	r2, .L55
 380 006c EB68     		ldr	r3, [r5, #12]
 381 006e 1843     		orrs	r0, r0, r3
 382              	.LVL37:
 383              		.loc 1 115 0
 384 0070 431E     		subs	r3, r0, #1
 385 0072 B3F5806F 		cmp	r3, #1024
 386              		.loc 1 114 0
 387 0076 E860     		str	r0, [r5, #12]
 388              		.loc 1 115 0
 389 0078 42D2     		bcs	.L40
 390              		.loc 1 117 0
 391 007a 535C     		ldrb	r3, [r2, r1]	@ zero_extendqisi2
 392 007c 0133     		adds	r3, r3, #1
 393 007e DBB2     		uxtb	r3, r3
 394 0080 5354     		strb	r3, [r2, r1]
 395              		.loc 1 118 0
 396 0082 4FF47A70 		mov	r0, #1000
 397 0086 6880     		strh	r0, [r5, #2]	@ movhi
 398 0088 BDE8F883 		pop	{r3, r4, r5, r6, r7, r8, r9, pc}
 399              	.LVL38:
ARM GAS  /var/folders/sv/kgmgr77579zbf78p2zlhkdfr0000gn/T//ccfXf5Do.s 			page 8


 400              	.L33:
 401              		.loc 1 125 0
 402 008c 7418     		adds	r4, r6, r1
 403 008e 6401     		lsls	r4, r4, #5
 404 0090 2A19     		adds	r2, r5, r4
 405 0092 DFF8D0C0 		ldr	ip, .L55
 406 0096 D2F81838 		ldr	r3, [r2, #2072]
 407              		.loc 1 126 0
 408 009a D768     		ldr	r7, [r2, #12]
 409              		.loc 1 125 0
 410 009c 02EB030E 		add	lr, r2, r3
 411 00a0 0133     		adds	r3, r3, #1
 412              		.loc 1 126 0
 413 00a2 BB42     		cmp	r3, r7
 414              		.loc 1 125 0
 415 00a4 8EF81000 		strb	r0, [lr, #16]
 416 00a8 C2F81838 		str	r3, [r2, #2072]
 417              		.loc 1 126 0
 418 00ac 05D1     		bne	.L41
 419              		.loc 1 127 0
 420 00ae 1CF80430 		ldrb	r3, [ip, r4]	@ zero_extendqisi2
 421 00b2 0133     		adds	r3, r3, #1
 422 00b4 DBB2     		uxtb	r3, r3
 423 00b6 0CF80430 		strb	r3, [ip, r4]
 424              	.L41:
 425              		.loc 1 129 0
 426 00ba 3144     		add	r1, r1, r6
 427              	.LVL39:
 428 00bc 05EB4115 		add	r5, r5, r1, lsl #5
 429 00c0 4FF47A73 		mov	r3, #1000
 430 00c4 6B80     		strh	r3, [r5, #2]	@ movhi
 431              		.loc 1 130 0
 432 00c6 BDE8F883 		pop	{r3, r4, r5, r6, r7, r8, r9, pc}
 433              	.LVL40:
 434              	.L34:
 435              		.loc 1 133 0
 436 00ca 3144     		add	r1, r1, r6
 437              	.LVL41:
 438 00cc 4901     		lsls	r1, r1, #5
 439 00ce 6A18     		adds	r2, r5, r1
 440              		.loc 1 134 0
 441 00d0 6B5C     		ldrb	r3, [r5, r1]	@ zero_extendqisi2
 442              		.loc 1 133 0
 443 00d2 82F81D08 		strb	r0, [r2, #2077]
 444              	.L51:
 445              		.loc 1 140 0
 446 00d6 0133     		adds	r3, r3, #1
 447 00d8 DBB2     		uxtb	r3, r3
 448 00da 6B54     		strb	r3, [r5, r1]
 449              		.loc 1 141 0
 450 00dc 4FF47A70 		mov	r0, #1000
 451              	.LVL42:
 452 00e0 5080     		strh	r0, [r2, #2]	@ movhi
 453              		.loc 1 142 0
 454 00e2 BDE8F883 		pop	{r3, r4, r5, r6, r7, r8, r9, pc}
 455              	.LVL43:
 456              	.L35:
ARM GAS  /var/folders/sv/kgmgr77579zbf78p2zlhkdfr0000gn/T//ccfXf5Do.s 			page 9


 457              		.loc 1 139 0
 458 00e6 3144     		add	r1, r1, r6
 459              	.LVL44:
 460 00e8 4901     		lsls	r1, r1, #5
 461 00ea 6A18     		adds	r2, r5, r1
 462              		.loc 1 140 0
 463 00ec 6B5C     		ldrb	r3, [r5, r1]	@ zero_extendqisi2
 464              		.loc 1 139 0
 465 00ee 82F81C08 		strb	r0, [r2, #2076]
 466 00f2 F0E7     		b	.L51
 467              	.LVL45:
 468              	.L28:
 469              		.loc 1 160 0
 470 00f4 3144     		add	r1, r1, r6
 471              	.LVL46:
 472 00f6 4901     		lsls	r1, r1, #5
 473 00f8 0023     		movs	r3, #0
 474 00fa 6B54     		strb	r3, [r5, r1]
 475 00fc BDE8F883 		pop	{r3, r4, r5, r6, r7, r8, r9, pc}
 476              	.LVL47:
 477              	.L40:
 478              		.loc 1 120 0
 479 0100 0023     		movs	r3, #0
 480 0102 5354     		strb	r3, [r2, r1]
 481 0104 BDE8F883 		pop	{r3, r4, r5, r6, r7, r8, r9, pc}
 482              	.LVL48:
 483              	.L54:
 484              		.loc 1 98 0
 485 0108 6B5C     		ldrb	r3, [r5, r1]	@ zero_extendqisi2
 486 010a 6A18     		adds	r2, r5, r1
 487 010c 0133     		adds	r3, r3, #1
 488              	.L49:
 489 010e DBB2     		uxtb	r3, r3
 490 0110 6B54     		strb	r3, [r5, r1]
 491              		.loc 1 100 0
 492 0112 0020     		movs	r0, #0
 493              	.LVL49:
 494              		.loc 1 99 0
 495 0114 4FF47A74 		mov	r4, #1000
 496              		.loc 1 100 0
 497 0118 C2F81808 		str	r0, [r2, #2072]
 498              		.loc 1 99 0
 499 011c 5480     		strh	r4, [r2, #2]	@ movhi
 500              		.loc 1 101 0
 501 011e D060     		str	r0, [r2, #12]
 502 0120 BDE8F883 		pop	{r3, r4, r5, r6, r7, r8, r9, pc}
 503              	.LVL50:
 504              	.L53:
 505              		.loc 1 92 0
 506 0124 6B5C     		ldrb	r3, [r5, r1]	@ zero_extendqisi2
 507 0126 6A18     		adds	r2, r5, r1
 508 0128 0233     		adds	r3, r3, #2
 509 012a F0E7     		b	.L49
 510              	.LVL51:
 511              	.L52:
 512              		.loc 1 146 0
 513 012c 7718     		adds	r7, r6, r1
ARM GAS  /var/folders/sv/kgmgr77579zbf78p2zlhkdfr0000gn/T//ccfXf5Do.s 			page 10


 514 012e 7F01     		lsls	r7, r7, #5
 515 0130 05EB0709 		add	r9, r5, r7
 516 0134 07F11008 		add	r8, r7, #16
 517 0138 A844     		add	r8, r8, r5
 518 013a 4046     		mov	r0, r8
 519              	.LVL52:
 520 013c D9F80C10 		ldr	r1, [r9, #12]
 521              	.LVL53:
 522 0140 FFF7FEFF 		bl	crc16
 523              	.LVL54:
 524 0144 B9F81C38 		ldrh	r3, [r9, #2076]
 525 0148 8342     		cmp	r3, r0
 526 014a 7FF46CAF 		bne	.L43
 527              		.loc 1 150 0
 528 014e D9F80830 		ldr	r3, [r9, #8]
 529 0152 002B     		cmp	r3, #0
 530 0154 3FF467AF 		beq	.L43
 531              		.loc 1 151 0
 532 0158 D9F80C10 		ldr	r1, [r9, #12]
 533 015c 4046     		mov	r0, r8
 534 015e 9847     		blx	r3
 535              	.LVL55:
 536 0160 61E7     		b	.L43
 537              	.L56:
 538 0162 00BF     		.align	2
 539              	.L55:
 540 0164 00000000 		.word	.LANCHOR0
 541              		.cfi_endproc
 542              	.LFE3:
 543              		.size	packet_process_byte, .-packet_process_byte
 544              		.section	.bss.handler_states,"aw",%nobits
 545              		.align	2
 546              		.set	.LANCHOR0,. + 0
 547              		.type	handler_states, %object
 548              		.size	handler_states, 4160
 549              	handler_states:
 550 0000 00000000 		.space	4160
 550      00000000 
 550      00000000 
 550      00000000 
 550      00000000 
 551              		.text
 552              	.Letext0:
 553              		.file 2 "/usr/local/Cellar/gcc-arm-none-eabi/20160928/arm-none-eabi/include/machine/_default_types
 554              		.file 3 "/usr/local/Cellar/gcc-arm-none-eabi/20160928/arm-none-eabi/include/sys/_stdint.h"
 555              		.file 4 "crc.h"