ARM GAS  /var/folders/sv/kgmgr77579zbf78p2zlhkdfr0000gn/T//ccfXf5Do.s 			page 1


   1              		.syntax unified
   2              		.cpu cortex-m4
   3              		.eabi_attribute 27, 1
   4              		.eabi_attribute 28, 1
   5              		.fpu fpv4-sp-d16
   6              		.eabi_attribute 20, 1
   7              		.eabi_attribute 21, 1
   8              		.eabi_attribute 23, 3
   9              		.eabi_attribute 24, 1
  10              		.eabi_attribute 25, 1
  11              		.eabi_attribute 26, 1
  12              		.eabi_attribute 30, 2
  13              		.eabi_attribute 34, 1
  14              		.eabi_attribute 18, 4
  15              		.thumb
  16              		.syntax unified
  17              		.file	"packet.c"
  18              		.text
  19              	.Ltext0:
  20              		.cfi_sections	.debug_frame
  21              		.section	.text.packet_init,"ax",%progbits
  22              		.align	2
  23              		.p2align 4,,15
  24              		.global	packet_init
  25              		.thumb
  26              		.thumb_func
  27              		.type	packet_init, %function
  28              	packet_init:
  29              	.LFB0:
  30              		.file 1 "packet.c"
  31              		.loc 1 40 0
  32              		.cfi_startproc
  33              		@ args = 0, pretend = 0, frame = 0
  34              		@ frame_needed = 0, uses_anonymous_args = 0
  35              		@ link register save eliminated.
  36              	.LVL0:
  37              		.loc 1 41 0
  38 0000 034B     		ldr	r3, .L2
  39 0002 02EB8212 		add	r2, r2, r2, lsl #6
  40              	.LVL1:
  41 0006 03EB4212 		add	r2, r3, r2, lsl #5
  42 000a 5060     		str	r0, [r2, #4]
  43              		.loc 1 42 0
  44 000c 9160     		str	r1, [r2, #8]
  45 000e 7047     		bx	lr
  46              	.L3:
  47              		.align	2
  48              	.L2:
  49 0010 00000000 		.word	.LANCHOR0
  50              		.cfi_endproc
  51              	.LFE0:
  52              		.size	packet_init, .-packet_init
  53              		.section	.text.packet_send_packet,"ax",%progbits
  54              		.align	2
  55              		.p2align 4,,15
  56              		.global	packet_send_packet
  57              		.thumb
ARM GAS  /var/folders/sv/kgmgr77579zbf78p2zlhkdfr0000gn/T//ccfXf5Do.s 			page 2


  58              		.thumb_func
  59              		.type	packet_send_packet, %function
  60              	packet_send_packet:
  61              	.LFB1:
  62              		.loc 1 45 0
  63              		.cfi_startproc
  64              		@ args = 0, pretend = 0, frame = 0
  65              		@ frame_needed = 0, uses_anonymous_args = 0
  66              	.LVL2:
  67              		.loc 1 46 0
  68 0000 B1F5806F 		cmp	r1, #1024
  69 0004 3BD8     		bhi	.L14
  70              	.LVL3:
  71              		.loc 1 45 0
  72 0006 2DE9F047 		push	{r4, r5, r6, r7, r8, r9, r10, lr}
  73              		.cfi_def_cfa_offset 32
  74              		.cfi_offset 4, -32
  75              		.cfi_offset 5, -28
  76              		.cfi_offset 6, -24
  77              		.cfi_offset 7, -20
  78              		.cfi_offset 8, -16
  79              		.cfi_offset 9, -12
  80              		.cfi_offset 10, -8
  81              		.cfi_offset 14, -4
  82              		.loc 1 53 0
  83 000a 9401     		lsls	r4, r2, #6
  84 000c DFF87480 		ldr	r8, .L17
  85 0010 A318     		adds	r3, r4, r2
  86              		.loc 1 52 0
  87 0012 B1F5807F 		cmp	r1, #256
  88              		.loc 1 53 0
  89 0016 08EB4313 		add	r3, r8, r3, lsl #5
  90              		.loc 1 52 0
  91 001a 2AD9     		bls	.L16
  92              	.LVL4:
  93              		.loc 1 57 0
  94 001c 0E0A     		lsrs	r6, r1, #8
  95              		.loc 1 56 0
  96 001e 0325     		movs	r5, #3
  97              		.loc 1 58 0
  98 0020 83F81214 		strb	r1, [r3, #1042]
  99              		.loc 1 57 0
 100 0024 83F81164 		strb	r6, [r3, #1041]
 101              		.loc 1 56 0
 102 0028 83F81054 		strb	r5, [r3, #1040]
 103              	.LVL5:
 104              	.L8:
 105              		.loc 1 61 0
 106 002c 2244     		add	r2, r2, r4
 107              	.LVL6:
 108 002e 5401     		lsls	r4, r2, #5
 109 0030 04F58269 		add	r9, r4, #1040
 110 0034 0746     		mov	r7, r0
 111 0036 C144     		add	r9, r9, r8
 112 0038 0A46     		mov	r2, r1
 113 003a 0E46     		mov	r6, r1
 114 003c 09EB0500 		add	r0, r9, r5
ARM GAS  /var/folders/sv/kgmgr77579zbf78p2zlhkdfr0000gn/T//ccfXf5Do.s 			page 3


 115              	.LVL7:
 116 0040 3946     		mov	r1, r7
 117              	.LVL8:
 118 0042 FFF7FEFF 		bl	memcpy
 119              	.LVL9:
 120              		.loc 1 64 0
 121 0046 3146     		mov	r1, r6
 122 0048 3846     		mov	r0, r7
 123 004a FFF7FEFF 		bl	crc16
 124              	.LVL10:
 125              		.loc 1 65 0
 126 004e 4444     		add	r4, r4, r8
 127              		.loc 1 62 0
 128 0050 3544     		add	r5, r5, r6
 129              	.LVL11:
 130              		.loc 1 65 0
 131 0052 6319     		adds	r3, r4, r5
 132              		.loc 1 69 0
 133 0054 6268     		ldr	r2, [r4, #4]
 134              		.loc 1 66 0
 135 0056 83F81104 		strb	r0, [r3, #1041]
 136              		.loc 1 67 0
 137 005a 0324     		movs	r4, #3
 138              		.loc 1 65 0
 139 005c 000A     		lsrs	r0, r0, #8
 140              	.LVL12:
 141 005e 83F81004 		strb	r0, [r3, #1040]
 142              	.LVL13:
 143              		.loc 1 67 0
 144 0062 2919     		adds	r1, r5, r4
 145              	.LVL14:
 146 0064 83F81244 		strb	r4, [r3, #1042]
 147              		.loc 1 69 0
 148 0068 52B1     		cbz	r2, .L4
 149              		.loc 1 70 0
 150 006a 4846     		mov	r0, r9
 151              		.loc 1 72 0
 152 006c BDE8F047 		pop	{r4, r5, r6, r7, r8, r9, r10, lr}
 153              		.cfi_remember_state
 154              		.cfi_restore 14
 155              		.cfi_restore 10
 156              		.cfi_restore 9
 157              		.cfi_restore 8
 158              		.cfi_restore 7
 159              		.cfi_restore 6
 160              		.cfi_restore 5
 161              		.cfi_restore 4
 162              		.cfi_def_cfa_offset 0
 163              	.LVL15:
 164              		.loc 1 70 0
 165 0070 1047     		bx	r2	@ indirect register sibling call
 166              	.LVL16:
 167              	.L16:
 168              		.cfi_restore_state
 169              		.loc 1 53 0
 170 0072 0225     		movs	r5, #2
 171              		.loc 1 54 0
ARM GAS  /var/folders/sv/kgmgr77579zbf78p2zlhkdfr0000gn/T//ccfXf5Do.s 			page 4


 172 0074 83F81114 		strb	r1, [r3, #1041]
 173              		.loc 1 53 0
 174 0078 83F81054 		strb	r5, [r3, #1040]
 175              	.LVL17:
 176 007c D6E7     		b	.L8
 177              	.LVL18:
 178              	.L14:
 179              		.cfi_def_cfa_offset 0
 180              		.cfi_restore 4
 181              		.cfi_restore 5
 182              		.cfi_restore 6
 183              		.cfi_restore 7
 184              		.cfi_restore 8
 185              		.cfi_restore 9
 186              		.cfi_restore 10
 187              		.cfi_restore 14
 188 007e 7047     		bx	lr
 189              	.LVL19:
 190              	.L4:
 191              		.cfi_def_cfa_offset 32
 192              		.cfi_offset 4, -32
 193              		.cfi_offset 5, -28
 194              		.cfi_offset 6, -24
 195              		.cfi_offset 7, -20
 196              		.cfi_offset 8, -16
 197              		.cfi_offset 9, -12
 198              		.cfi_offset 10, -8
 199              		.cfi_offset 14, -4
 200 0080 BDE8F087 		pop	{r4, r5, r6, r7, r8, r9, r10, pc}
 201              	.LVL20:
 202              	.L18:
 203              		.align	2
 204              	.L17:
 205 0084 00000000 		.word	.LANCHOR0
 206              		.cfi_endproc
 207              	.LFE1:
 208              		.size	packet_send_packet, .-packet_send_packet
 209              		.section	.text.packet_timerfunc,"ax",%progbits
 210              		.align	2
 211              		.p2align 4,,15
 212              		.global	packet_timerfunc
 213              		.thumb
 214              		.thumb_func
 215              		.type	packet_timerfunc, %function
 216              	packet_timerfunc:
 217              	.LFB2:
 218              		.loc 1 77 0
 219              		.cfi_startproc
 220              		@ args = 0, pretend = 0, frame = 0
 221              		@ frame_needed = 0, uses_anonymous_args = 0
 222              		@ link register save eliminated.
 223              	.LVL21:
 224              	.LBB2:
 225              		.loc 1 79 0
 226 0000 0F4A     		ldr	r2, .L25
 227 0002 5388     		ldrh	r3, [r2, #2]
 228 0004 9BB2     		uxth	r3, r3
ARM GAS  /var/folders/sv/kgmgr77579zbf78p2zlhkdfr0000gn/T//ccfXf5Do.s 			page 5


 229 0006 7BB9     		cbnz	r3, .L20
 230              	.LVL22:
 231              		.loc 1 82 0
 232 0008 1370     		strb	r3, [r2]
 233              		.loc 1 79 0
 234 000a B2F82238 		ldrh	r3, [r2, #2082]
 235 000e 0C4A     		ldr	r2, .L25
 236 0010 9BB2     		uxth	r3, r3
 237 0012 33B1     		cbz	r3, .L24
 238              	.L22:
 239              		.loc 1 80 0
 240 0014 B2F82238 		ldrh	r3, [r2, #2082]
 241 0018 013B     		subs	r3, r3, #1
 242 001a 9BB2     		uxth	r3, r3
 243 001c A2F82238 		strh	r3, [r2, #2082]	@ movhi
 244              	.LVL23:
 245 0020 7047     		bx	lr
 246              	.LVL24:
 247              	.L24:
 248              		.loc 1 82 0
 249 0022 82F82038 		strb	r3, [r2, #2080]
 250 0026 7047     		bx	lr
 251              	.LVL25:
 252              	.L20:
 253              		.loc 1 80 0
 254 0028 5388     		ldrh	r3, [r2, #2]
 255 002a 013B     		subs	r3, r3, #1
 256 002c 9BB2     		uxth	r3, r3
 257 002e 5380     		strh	r3, [r2, #2]	@ movhi
 258              	.LVL26:
 259              		.loc 1 79 0
 260 0030 B2F82238 		ldrh	r3, [r2, #2082]
 261 0034 024A     		ldr	r2, .L25
 262 0036 9BB2     		uxth	r3, r3
 263 0038 002B     		cmp	r3, #0
 264 003a EBD1     		bne	.L22
 265 003c F1E7     		b	.L24
 266              	.L26:
 267 003e 00BF     		.align	2
 268              	.L25:
 269 0040 00000000 		.word	.LANCHOR0
 270              	.LBE2:
 271              		.cfi_endproc
 272              	.LFE2:
 273              		.size	packet_timerfunc, .-packet_timerfunc
 274              		.section	.text.packet_process_byte,"ax",%progbits
 275              		.align	2
 276              		.p2align 4,,15
 277              		.global	packet_process_byte
 278              		.thumb
 279              		.thumb_func
 280              		.type	packet_process_byte, %function
 281              	packet_process_byte:
 282              	.LFB3:
 283              		.loc 1 87 0
 284              		.cfi_startproc
 285              		@ args = 0, pretend = 0, frame = 0
ARM GAS  /var/folders/sv/kgmgr77579zbf78p2zlhkdfr0000gn/T//ccfXf5Do.s 			page 6


 286              		@ frame_needed = 0, uses_anonymous_args = 0
 287              	.LVL27:
 288 0000 2DE9F843 		push	{r3, r4, r5, r6, r7, r8, r9, lr}
 289              		.cfi_def_cfa_offset 32
 290              		.cfi_offset 3, -32
 291              		.cfi_offset 4, -28
 292              		.cfi_offset 5, -24
 293              		.cfi_offset 6, -20
 294              		.cfi_offset 7, -16
 295              		.cfi_offset 8, -12
 296              		.cfi_offset 9, -8
 297              		.cfi_offset 14, -4
 298              		.loc 1 88 0
 299 0004 8E01     		lsls	r6, r1, #6
 300 0006 7318     		adds	r3, r6, r1
 301 0008 5B01     		lsls	r3, r3, #5
 302 000a 564D     		ldr	r5, .L55
 303 000c EB5C     		ldrb	r3, [r5, r3]	@ zero_extendqisi2
 304 000e 062B     		cmp	r3, #6
 305 0010 70D8     		bhi	.L28
 306 0012 DFE803F0 		tbb	[pc, r3]
 307              	.L30:
 308 0016 0E       		.byte	(.L29-.L30)/2
 309 0017 19       		.byte	(.L31-.L30)/2
 310 0018 27       		.byte	(.L32-.L30)/2
 311 0019 3B       		.byte	(.L33-.L30)/2
 312 001a 5A       		.byte	(.L34-.L30)/2
 313 001b 68       		.byte	(.L35-.L30)/2
 314 001c 04       		.byte	(.L36-.L30)/2
 315 001d 00       		.p2align 1
 316              	.L36:
 317              		.loc 1 145 0
 318 001e 0328     		cmp	r0, #3
 319 0020 0C46     		mov	r4, r1
 320 0022 00F08380 		beq	.L52
 321              	.LVL28:
 322              	.L43:
 323              		.loc 1 156 0
 324 0026 3444     		add	r4, r4, r6
 325              	.LVL29:
 326 0028 6401     		lsls	r4, r4, #5
 327 002a 0023     		movs	r3, #0
 328 002c 2B55     		strb	r3, [r5, r4]
 329              		.loc 1 157 0
 330 002e BDE8F883 		pop	{r3, r4, r5, r6, r7, r8, r9, pc}
 331              	.LVL30:
 332              	.L29:
 333              		.loc 1 92 0
 334 0032 3144     		add	r1, r1, r6
 335              	.LVL31:
 336              		.loc 1 90 0
 337 0034 0228     		cmp	r0, #2
 338              		.loc 1 92 0
 339 0036 4FEA4111 		lsl	r1, r1, #5
 340              		.loc 1 90 0
 341 003a 73D0     		beq	.L53
 342              		.loc 1 96 0
ARM GAS  /var/folders/sv/kgmgr77579zbf78p2zlhkdfr0000gn/T//ccfXf5Do.s 			page 7


 343 003c 0328     		cmp	r0, #3
 344 003e 63D0     		beq	.L54
 345              		.loc 1 160 0
 346 0040 0023     		movs	r3, #0
 347 0042 6B54     		strb	r3, [r5, r1]
 348 0044 BDE8F883 		pop	{r3, r4, r5, r6, r7, r8, r9, pc}
 349              	.LVL32:
 350              	.L31:
 351              		.loc 1 108 0
 352 0048 3144     		add	r1, r1, r6
 353              	.LVL33:
 354 004a 4901     		lsls	r1, r1, #5
 355 004c 6A18     		adds	r2, r5, r1
 356              		.loc 1 109 0
 357 004e 6B5C     		ldrb	r3, [r5, r1]	@ zero_extendqisi2
 358 0050 0133     		adds	r3, r3, #1
 359 0052 DBB2     		uxtb	r3, r3
 360 0054 6B54     		strb	r3, [r5, r1]
 361              		.loc 1 108 0
 362 0056 0002     		lsls	r0, r0, #8
 363              	.LVL34:
 364              		.loc 1 110 0
 365 0058 4FF47A74 		mov	r4, #1000
 366              		.loc 1 108 0
 367 005c D060     		str	r0, [r2, #12]
 368              		.loc 1 110 0
 369 005e 5480     		strh	r4, [r2, #2]	@ movhi
 370              		.loc 1 111 0
 371 0060 BDE8F883 		pop	{r3, r4, r5, r6, r7, r8, r9, pc}
 372              	.LVL35:
 373              	.L32:
 374              		.loc 1 114 0
 375 0064 3144     		add	r1, r1, r6
 376              	.LVL36:
 377 0066 4901     		lsls	r1, r1, #5
 378 0068 0D44     		add	r5, r5, r1
 379 006a 3E4A     		ldr	r2, .L55
 380 006c EB68     		ldr	r3, [r5, #12]
 381 006e 1843     		orrs	r0, r0, r3
 382              	.LVL37:
 383              		.loc 1 115 0
 384 0070 431E     		subs	r3, r0, #1
 385 0072 B3F5806F 		cmp	r3, #1024
 386              		.loc 1 114 0
 387 0076 E860     		str	r0, [r5, #12]
 388              		.loc 1 115 0
 389 0078 42D2     		bcs	.L40
 390              		.loc 1 117 0
 391 007a 535C     		ldrb	r3, [r2, r1]	@ zero_extendqisi2
 392 007c 0133     		adds	r3, r3, #1
 393 007e DBB2     		uxtb	r3, r3
 394 0080 5354     		strb	r3, [r2, r1]
 395              		.loc 1 118 0
 396 0082 4FF47A70 		mov	r0, #1000
 397 0086 6880     		strh	r0, [r5, #2]	@ movhi
 398 0088 BDE8F883 		pop	{r3, r4, r5, r6, r7, r8, r9, pc}
 399              	.LVL38:
ARM GAS  /var/folders/sv/kgmgr77579zbf78p2zlhkdfr0000gn/T//ccfXf5Do.s 			page 8


 400              	.L33:
 401              		.loc 1 125 0
 402 008c 7418     		adds	r4, r6, r1
 403 008e 6401     		lsls	r4, r4, #5
 404 0090 2A19     		adds	r2, r5, r4
 405 0092 DFF8D0C0 		ldr	ip, .L55
 406 0096 D2F81838 		ldr	r3, [r2, #2072]
 407              		.loc 1 126 0
 408 009a D768     		ldr	r7, [r2, #12]
 409              		.loc 1 125 0
 410 009c 02EB030E 		add	lr, r2, r3
 411 00a0 0133     		adds	r3, r3, #1
 412              		.loc 1 126 0
 413 00a2 BB42     		cmp	r3, r7
 414              		.loc 1 125 0
 415 00a4 8EF81000 		strb	r0, [lr, #16]
 416 00a8 C2F81838 		str	r3, [r2, #2072]
 417              		.loc 1 126 0
 418 00ac 05D1     		bne	.L41
 419              		.loc 1 127 0
 420 00ae 1CF80430 		ldrb	r3, [ip, r4]	@ zero_extendqisi2
 421 00b2 0133     		adds	r3, r3, #1
 422 00b4 DBB2     		uxtb	r3, r3
 423 00b6 0CF80430 		strb	r3, [ip, r4]
 424              	.L41:
 425              		.loc 1 129 0
 426 00ba 3144     		add	r1, r1, r6
 427              	.LVL39:
 428 00bc 05EB4115 		add	r5, r5, r1, lsl #5
 429 00c0 4FF47A73 		mov	r3, #1000
 430 00c4 6B80     		strh	r3, [r5, #2]	@ movhi
 431              		.loc 1 130 0
 432 00c6 BDE8F883 		pop	{r3, r4, r5, r6, r7, r8, r9, pc}
 433              	.LVL40:
 434              	.L34:
 435              		.loc 1 133 0
 436 00ca 3144     		add	r1, r1, r6
 437              	.LVL41:
 438 00cc 4901     		lsls	r1, r1, #5
 439 00ce 6A18     		adds	r2, r5, r1
 440              		.loc 1 134 0
 441 00d0 6B5C     		ldrb	r3, [r5, r1]	@ zero_extendqisi2
 442              		.loc 1 133 0
 443 00d2 82F81D08 		strb	r0, [r2, #2077]
 444              	.L51:
 445              		.loc 1 140 0
 446 00d6 0133     		adds	r3, r3, #1
 447 00d8 DBB2     		uxtb	r3, r3
 448 00da 6B54     		strb	r3, [r5, r1]
 449              		.loc 1 141 0
 450 00dc 4FF47A70 		mov	r0, #1000
 451              	.LVL42:
 452 00e0 5080     		strh	r0, [r2, #2]	@ movhi
 453              		.loc 1 142 0
 454 00e2 BDE8F883 		pop	{r3, r4, r5, r6, r7, r8, r9, pc}
 455              	.LVL43:
 456              	.L35:
ARM GAS  /var/folders/sv/kgmgr77579zbf78p2zlhkdfr0000gn/T//ccfXf5Do.s 			page 9


 457              		.loc 1 139 0
 458 00e6 3144     		add	r1, r1, r6
 459              	.LVL44:
 460 00e8 4901     		lsls	r1, r1, #5
 461 00ea 6A18     		adds	r2, r5, r1
 462              		.loc 1 140 0
 463 00ec 6B5C     		ldrb	r3, [r5, r1]	@ zero_extendqisi2
 464              		.loc 1 139 0
 465 00ee 82F81C08 		strb	r0, [r2, #2076]
 466 00f2 F0E7     		b	.L51
 467              	.LVL45:
 468              	.L28:
 469              		.loc 1 160 0
 470 00f4 3144     		add	r1, r1, r6
 471              	.LVL46:
 472 00f6 4901     		lsls	r1, r1, #5
 473 00f8 0023     		movs	r3, #0
 474 00fa 6B54     		strb	r3, [r5, r1]
 475 00fc BDE8F883 		pop	{r3, r4, r5, r6, r7, r8, r9, pc}
 476              	.LVL47:
 477              	.L40:
 478              		.loc 1 120 0
 479 0100 0023     		movs	r3, #0
 480 0102 5354     		strb	r3, [r2, r1]
 481 0104 BDE8F883 		pop	{r3, r4, r5, r6, r7, r8, r9, pc}
 482              	.LVL48:
 483              	.L54:
 484              		.loc 1 98 0
 485 0108 6B5C     		ldrb	r3, [r5, r1]	@ zero_extendqisi2
 486 010a 6A18     		adds	r2, r5, r1
 487 010c 0133     		adds	r3, r3, #1
 488              	.L49:
 489 010e DBB2     		uxtb	r3, r3
 490 0110 6B54     		strb	r3, [r5, r1]
 491              		.loc 1 100 0
 492 0112 0020     		movs	r0, #0
 493              	.LVL49:
 494              		.loc 1 99 0
 495 0114 4FF47A74 		mov	r4, #1000
 496              		.loc 1 100 0
 497 0118 C2F81808 		str	r0, [r2, #2072]
 498              		.loc 1 99 0
 499 011c 5480     		strh	r4, [r2, #2]	@ movhi
 500              		.loc 1 101 0
 501 011e D060     		str	r0, [r2, #12]
 502 0120 BDE8F883 		pop	{r3, r4, r5, r6, r7, r8, r9, pc}
 503              	.LVL50:
 504              	.L53:
 505              		.loc 1 92 0
 506 0124 6B5C     		ldrb	r3, [r5, r1]	@ zero_extendqisi2
 507 0126 6A18     		adds	r2, r5, r1
 508 0128 0233     		adds	r3, r3, #2
 509 012a F0E7     		b	.L49
 510              	.LVL51:
 511              	.L52:
 512              		.loc 1 146 0
 513 012c 7718     		adds	r7, r6, r1
ARM GAS  /var/folders/sv/kgmgr77579zbf78p2zlhkdfr0000gn/T//ccfXf5Do.s 			page 10


 514 012e 7F01     		lsls	r7, r7, #5
 515 0130 05EB0709 		add	r9, r5, r7
 516 0134 07F11008 		add	r8, r7, #16
 517 0138 A844     		add	r8, r8, r5
 518 013a 4046     		mov	r0, r8
 519              	.LVL52:
 520 013c D9F80C10 		ldr	r1, [r9, #12]
 521              	.LVL53:
 522 0140 FFF7FEFF 		bl	crc16
 523              	.LVL54:
 524 0144 B9F81C38 		ldrh	r3, [r9, #2076]
 525 0148 8342     		cmp	r3, r0
 526 014a 7FF46CAF 		bne	.L43
 527              		.loc 1 150 0
 528 014e D9F80830 		ldr	r3, [r9, #8]
 529 0152 002B     		cmp	r3, #0
 530 0154 3FF467AF 		beq	.L43
 531              		.loc 1 151 0
 532 0158 D9F80C10 		ldr	r1, [r9, #12]
 533 015c 4046     		mov	r0, r8
 534 015e 9847     		blx	r3
 535              	.LVL55:
 536 0160 61E7     		b	.L43
 537              	.L56:
 538 0162 00BF     		.align	2
 539              	.L55:
 540 0164 00000000 		.word	.LANCHOR0
 541              		.cfi_endproc
 542              	.LFE3:
 543              		.size	packet_process_byte, .-packet_process_byte
 544              		.section	.bss.handler_states,"aw",%nobits
 545              		.align	2
 546              		.set	.LANCHOR0,. + 0
 547              		.type	handler_states, %object
 548              		.size	handler_states, 4160
 549              	handler_states:
 550 0000 00000000 		.space	4160
 550      00000000 
 550      00000000 
 550      00000000 
 550      00000000 
 551              		.text
 552              	.Letext0:
 553              		.file 2 "/usr/local/Cellar/gcc-arm-none-eabi/20160928/arm-none-eabi/include/machine/_default_types
 554              		.file 3 "/usr/local/Cellar/gcc-arm-none-eabi/20160928/arm-none-eabi/include/sys/_stdint.h"
 555              		.file 4 "crc.h"
 556              		.section	.debug_info,"",%progbits
 557              	.Ldebug_info0:
 558 0000 13030000 		.4byte	0x313
 559 0004 0400     		.2byte	0x4
 560 0006 00000000 		.4byte	.Ldebug_abbrev0
 561 000a 04       		.byte	0x4
 562 000b 01       		.uleb128 0x1
 563 000c A3000000 		.4byte	.LASF35
 564 0010 0C       		.byte	0xc
 565 0011 09000000 		.4byte	.LASF36
 566 0015 3F000000 		.4byte	.LASF37
ARM GAS  /var/folders/sv/kgmgr77579zbf78p2zlhkdfr0000gn/T//ccfXf5Do.s 			page 11


 567 0019 00000000 		.4byte	.Ldebug_ranges0+0
 568 001d 00000000 		.4byte	0
 569 0021 00000000 		.4byte	.Ldebug_line0
 570 0025 02       		.uleb128 0x2
 571 0026 04       		.byte	0x4
 572 0027 05       		.byte	0x5
 573 0028 696E7400 		.ascii	"int\000"
 574 002c 03       		.uleb128 0x3
 575 002d 04       		.byte	0x4
 576 002e 07       		.byte	0x7
 577 002f 11020000 		.4byte	.LASF0
 578 0033 03       		.uleb128 0x3
 579 0034 01       		.byte	0x1
 580 0035 06       		.byte	0x6
 581 0036 EF020000 		.4byte	.LASF1
 582 003a 04       		.uleb128 0x4
 583 003b 12000000 		.4byte	.LASF11
 584 003f 02       		.byte	0x2
 585 0040 1D       		.byte	0x1d
 586 0041 45000000 		.4byte	0x45
 587 0045 03       		.uleb128 0x3
 588 0046 01       		.byte	0x1
 589 0047 08       		.byte	0x8
 590 0048 DE010000 		.4byte	.LASF2
 591 004c 03       		.uleb128 0x3
 592 004d 02       		.byte	0x2
 593 004e 05       		.byte	0x5
 594 004f B6020000 		.4byte	.LASF3
 595 0053 03       		.uleb128 0x3
 596 0054 02       		.byte	0x2
 597 0055 07       		.byte	0x7
 598 0056 FE010000 		.4byte	.LASF4
 599 005a 03       		.uleb128 0x3
 600 005b 04       		.byte	0x4
 601 005c 05       		.byte	0x5
 602 005d D5020000 		.4byte	.LASF5
 603 0061 03       		.uleb128 0x3
 604 0062 04       		.byte	0x4
 605 0063 07       		.byte	0x7
 606 0064 EC010000 		.4byte	.LASF6
 607 0068 03       		.uleb128 0x3
 608 0069 08       		.byte	0x8
 609 006a 05       		.byte	0x5
 610 006b 9A020000 		.4byte	.LASF7
 611 006f 03       		.uleb128 0x3
 612 0070 08       		.byte	0x8
 613 0071 07       		.byte	0x7
 614 0072 3B020000 		.4byte	.LASF8
 615 0076 03       		.uleb128 0x3
 616 0077 04       		.byte	0x4
 617 0078 07       		.byte	0x7
 618 0079 91020000 		.4byte	.LASF9
 619 007d 03       		.uleb128 0x3
 620 007e 01       		.byte	0x1
 621 007f 08       		.byte	0x8
 622 0080 DE020000 		.4byte	.LASF10
 623 0084 05       		.uleb128 0x5
ARM GAS  /var/folders/sv/kgmgr77579zbf78p2zlhkdfr0000gn/T//ccfXf5Do.s 			page 12


 624 0085 04       		.byte	0x4
 625 0086 45000000 		.4byte	0x45
 626 008a 04       		.uleb128 0x4
 627 008b 52020000 		.4byte	.LASF12
 628 008f 03       		.byte	0x3
 629 0090 18       		.byte	0x18
 630 0091 3A000000 		.4byte	0x3a
 631 0095 06       		.uleb128 0x6
 632 0096 2008     		.2byte	0x820
 633 0098 01       		.byte	0x1
 634 0099 18       		.byte	0x18
 635 009a 1B010000 		.4byte	0x11b
 636 009e 07       		.uleb128 0x7
 637 009f FB020000 		.4byte	.LASF13
 638 00a3 01       		.byte	0x1
 639 00a4 19       		.byte	0x19
 640 00a5 1B010000 		.4byte	0x11b
 641 00a9 00       		.byte	0
 642 00aa 07       		.uleb128 0x7
 643 00ab 75020000 		.4byte	.LASF14
 644 00af 01       		.byte	0x1
 645 00b0 1A       		.byte	0x1a
 646 00b1 20010000 		.4byte	0x120
 647 00b5 02       		.byte	0x2
 648 00b6 07       		.uleb128 0x7
 649 00b7 87020000 		.4byte	.LASF15
 650 00bb 01       		.byte	0x1
 651 00bc 1B       		.byte	0x1b
 652 00bd 35010000 		.4byte	0x135
 653 00c1 04       		.byte	0x4
 654 00c2 07       		.uleb128 0x7
 655 00c3 C7010000 		.4byte	.LASF16
 656 00c7 01       		.byte	0x1
 657 00c8 1C       		.byte	0x1c
 658 00c9 35010000 		.4byte	0x135
 659 00cd 08       		.byte	0x8
 660 00ce 07       		.uleb128 0x7
 661 00cf C0020000 		.4byte	.LASF17
 662 00d3 01       		.byte	0x1
 663 00d4 1D       		.byte	0x1d
 664 00d5 2C000000 		.4byte	0x2c
 665 00d9 0C       		.byte	0xc
 666 00da 07       		.uleb128 0x7
 667 00db D4010000 		.4byte	.LASF18
 668 00df 01       		.byte	0x1
 669 00e0 1E       		.byte	0x1e
 670 00e1 3B010000 		.4byte	0x13b
 671 00e5 10       		.byte	0x10
 672 00e6 08       		.uleb128 0x8
 673 00e7 8E000000 		.4byte	.LASF19
 674 00eb 01       		.byte	0x1
 675 00ec 1F       		.byte	0x1f
 676 00ed 4C010000 		.4byte	0x14c
 677 00f1 1004     		.2byte	0x410
 678 00f3 08       		.uleb128 0x8
 679 00f4 1E020000 		.4byte	.LASF20
 680 00f8 01       		.byte	0x1
ARM GAS  /var/folders/sv/kgmgr77579zbf78p2zlhkdfr0000gn/T//ccfXf5Do.s 			page 13


 681 00f9 20       		.byte	0x20
 682 00fa 2C000000 		.4byte	0x2c
 683 00fe 1808     		.2byte	0x818
 684 0100 08       		.uleb128 0x8
 685 0101 6D020000 		.4byte	.LASF21
 686 0105 01       		.byte	0x1
 687 0106 21       		.byte	0x21
 688 0107 45000000 		.4byte	0x45
 689 010b 1C08     		.2byte	0x81c
 690 010d 08       		.uleb128 0x8
 691 010e 00000000 		.4byte	.LASF22
 692 0112 01       		.byte	0x1
 693 0113 22       		.byte	0x22
 694 0114 45000000 		.4byte	0x45
 695 0118 1D08     		.2byte	0x81d
 696 011a 00       		.byte	0
 697 011b 09       		.uleb128 0x9
 698 011c 45000000 		.4byte	0x45
 699 0120 09       		.uleb128 0x9
 700 0121 53000000 		.4byte	0x53
 701 0125 0A       		.uleb128 0xa
 702 0126 35010000 		.4byte	0x135
 703 012a 0B       		.uleb128 0xb
 704 012b 84000000 		.4byte	0x84
 705 012f 0B       		.uleb128 0xb
 706 0130 2C000000 		.4byte	0x2c
 707 0134 00       		.byte	0
 708 0135 05       		.uleb128 0x5
 709 0136 04       		.byte	0x4
 710 0137 25010000 		.4byte	0x125
 711 013b 0C       		.uleb128 0xc
 712 013c 45000000 		.4byte	0x45
 713 0140 4C010000 		.4byte	0x14c
 714 0144 0D       		.uleb128 0xd
 715 0145 76000000 		.4byte	0x76
 716 0149 FF03     		.2byte	0x3ff
 717 014b 00       		.byte	0
 718 014c 0C       		.uleb128 0xc
 719 014d 45000000 		.4byte	0x45
 720 0151 5D010000 		.4byte	0x15d
 721 0155 0D       		.uleb128 0xd
 722 0156 76000000 		.4byte	0x76
 723 015a 0504     		.2byte	0x405
 724 015c 00       		.byte	0
 725 015d 04       		.uleb128 0x4
 726 015e 6B000000 		.4byte	.LASF23
 727 0162 01       		.byte	0x1
 728 0163 23       		.byte	0x23
 729 0164 95000000 		.4byte	0x95
 730 0168 0E       		.uleb128 0xe
 731 0169 E3020000 		.4byte	.LASF27
 732 016d 01       		.byte	0x1
 733 016e 27       		.byte	0x27
 734 016f 00000000 		.4byte	.LFB0
 735 0173 14000000 		.4byte	.LFE0-.LFB0
 736 0177 01       		.uleb128 0x1
 737 0178 9C       		.byte	0x9c
ARM GAS  /var/folders/sv/kgmgr77579zbf78p2zlhkdfr0000gn/T//ccfXf5Do.s 			page 14


 738 0179 A7010000 		.4byte	0x1a7
 739 017d 0F       		.uleb128 0xf
 740 017e 80020000 		.4byte	.LASF24
 741 0182 01       		.byte	0x1
 742 0183 27       		.byte	0x27
 743 0184 35010000 		.4byte	0x135
 744 0188 01       		.uleb128 0x1
 745 0189 50       		.byte	0x50
 746 018a 0F       		.uleb128 0xf
 747 018b A8020000 		.4byte	.LASF25
 748 018f 01       		.byte	0x1
 749 0190 28       		.byte	0x28
 750 0191 35010000 		.4byte	0x135
 751 0195 01       		.uleb128 0x1
 752 0196 51       		.byte	0x51
 753 0197 10       		.uleb128 0x10
 754 0198 2B000000 		.4byte	.LASF26
 755 019c 01       		.byte	0x1
 756 019d 28       		.byte	0x28
 757 019e 25000000 		.4byte	0x25
 758 01a2 00000000 		.4byte	.LLST0
 759 01a6 00       		.byte	0
 760 01a7 0E       		.uleb128 0xe
 761 01a8 5A020000 		.4byte	.LASF28
 762 01ac 01       		.byte	0x1
 763 01ad 2D       		.byte	0x2d
 764 01ae 00000000 		.4byte	.LFB1
 765 01b2 88000000 		.4byte	.LFE1-.LFB1
 766 01b6 01       		.uleb128 0x1
 767 01b7 9C       		.byte	0x9c
 768 01b8 60020000 		.4byte	0x260
 769 01bc 10       		.uleb128 0x10
 770 01bd 98000000 		.4byte	.LASF29
 771 01c1 01       		.byte	0x1
 772 01c2 2D       		.byte	0x2d
 773 01c3 84000000 		.4byte	0x84
 774 01c7 21000000 		.4byte	.LLST1
 775 01cb 11       		.uleb128 0x11
 776 01cc 6C656E00 		.ascii	"len\000"
 777 01d0 01       		.byte	0x1
 778 01d1 2D       		.byte	0x2d
 779 01d2 2C000000 		.4byte	0x2c
 780 01d6 71000000 		.4byte	.LLST2
 781 01da 10       		.uleb128 0x10
 782 01db 2B000000 		.4byte	.LASF26
 783 01df 01       		.byte	0x1
 784 01e0 2D       		.byte	0x2d
 785 01e1 25000000 		.4byte	0x25
 786 01e5 CC000000 		.4byte	.LLST3
 787 01e9 12       		.uleb128 0x12
 788 01ea 9D000000 		.4byte	.LASF30
 789 01ee 01       		.byte	0x1
 790 01ef 32       		.byte	0x32
 791 01f0 25000000 		.4byte	0x25
 792 01f4 06010000 		.4byte	.LLST4
 793 01f8 13       		.uleb128 0x13
 794 01f9 63726300 		.ascii	"crc\000"
ARM GAS  /var/folders/sv/kgmgr77579zbf78p2zlhkdfr0000gn/T//ccfXf5Do.s 			page 15


 795 01fd 01       		.byte	0x1
 796 01fe 40       		.byte	0x40
 797 01ff 53000000 		.4byte	0x53
 798 0203 6E010000 		.4byte	.LLST5
 799 0207 14       		.uleb128 0x14
 800 0208 46000000 		.4byte	.LVL9
 801 020c 02030000 		.4byte	0x302
 802 0210 2A020000 		.4byte	0x22a
 803 0214 15       		.uleb128 0x15
 804 0215 01       		.uleb128 0x1
 805 0216 50       		.byte	0x50
 806 0217 05       		.uleb128 0x5
 807 0218 79       		.byte	0x79
 808 0219 00       		.sleb128 0
 809 021a 75       		.byte	0x75
 810 021b 00       		.sleb128 0
 811 021c 22       		.byte	0x22
 812 021d 15       		.uleb128 0x15
 813 021e 01       		.uleb128 0x1
 814 021f 51       		.byte	0x51
 815 0220 02       		.uleb128 0x2
 816 0221 77       		.byte	0x77
 817 0222 00       		.sleb128 0
 818 0223 15       		.uleb128 0x15
 819 0224 01       		.uleb128 0x1
 820 0225 52       		.byte	0x52
 821 0226 02       		.uleb128 0x2
 822 0227 76       		.byte	0x76
 823 0228 00       		.sleb128 0
 824 0229 00       		.byte	0
 825 022a 14       		.uleb128 0x14
 826 022b 4E000000 		.4byte	.LVL10
 827 022f 0B030000 		.4byte	0x30b
 828 0233 44020000 		.4byte	0x244
 829 0237 15       		.uleb128 0x15
 830 0238 01       		.uleb128 0x1
 831 0239 50       		.byte	0x50
 832 023a 02       		.uleb128 0x2
 833 023b 77       		.byte	0x77
 834 023c 00       		.sleb128 0
 835 023d 15       		.uleb128 0x15
 836 023e 01       		.uleb128 0x1
 837 023f 51       		.byte	0x51
 838 0240 02       		.uleb128 0x2
 839 0241 76       		.byte	0x76
 840 0242 00       		.sleb128 0
 841 0243 00       		.byte	0
 842 0244 16       		.uleb128 0x16
 843 0245 72000000 		.4byte	.LVL16
 844 0249 15       		.uleb128 0x15
 845 024a 01       		.uleb128 0x1
 846 024b 50       		.byte	0x50
 847 024c 11       		.uleb128 0x11
 848 024d F3       		.byte	0xf3
 849 024e 01       		.uleb128 0x1
 850 024f 52       		.byte	0x52
 851 0250 36       		.byte	0x36
ARM GAS  /var/folders/sv/kgmgr77579zbf78p2zlhkdfr0000gn/T//ccfXf5Do.s 			page 16


 852 0251 24       		.byte	0x24
 853 0252 F3       		.byte	0xf3
 854 0253 01       		.uleb128 0x1
 855 0254 52       		.byte	0x52
 856 0255 22       		.byte	0x22
 857 0256 35       		.byte	0x35
 858 0257 24       		.byte	0x24
 859 0258 03       		.byte	0x3
 860 0259 10040000 		.4byte	.LANCHOR0+1040
 861 025d 22       		.byte	0x22
 862 025e 00       		.byte	0
 863 025f 00       		.byte	0
 864 0260 0E       		.uleb128 0xe
 865 0261 2A020000 		.4byte	.LASF31
 866 0265 01       		.byte	0x1
 867 0266 4D       		.byte	0x4d
 868 0267 00000000 		.4byte	.LFB2
 869 026b 44000000 		.4byte	.LFE2-.LFB2
 870 026f 01       		.uleb128 0x1
 871 0270 9C       		.byte	0x9c
 872 0271 8D020000 		.4byte	0x28d
 873 0275 17       		.uleb128 0x17
 874 0276 00000000 		.4byte	.LBB2
 875 027a 44000000 		.4byte	.LBE2-.LBB2
 876 027e 13       		.uleb128 0x13
 877 027f 6900     		.ascii	"i\000"
 878 0281 01       		.byte	0x1
 879 0282 4E       		.byte	0x4e
 880 0283 25000000 		.4byte	0x25
 881 0287 81010000 		.4byte	.LLST6
 882 028b 00       		.byte	0
 883 028c 00       		.byte	0
 884 028d 0E       		.uleb128 0xe
 885 028e 7A000000 		.4byte	.LASF32
 886 0292 01       		.byte	0x1
 887 0293 57       		.byte	0x57
 888 0294 00000000 		.4byte	.LFB3
 889 0298 68010000 		.4byte	.LFE3-.LFB3
 890 029c 01       		.uleb128 0x1
 891 029d 9C       		.byte	0x9c
 892 029e E1020000 		.4byte	0x2e1
 893 02a2 10       		.uleb128 0x10
 894 02a3 37000000 		.4byte	.LASF33
 895 02a7 01       		.byte	0x1
 896 02a8 57       		.byte	0x57
 897 02a9 8A000000 		.4byte	0x8a
 898 02ad D1010000 		.4byte	.LLST7
 899 02b1 10       		.uleb128 0x10
 900 02b2 2B000000 		.4byte	.LASF26
 901 02b6 01       		.byte	0x1
 902 02b7 57       		.byte	0x57
 903 02b8 25000000 		.4byte	0x25
 904 02bc 88020000 		.4byte	.LLST8
 905 02c0 14       		.uleb128 0x14
 906 02c1 44010000 		.4byte	.LVL54
 907 02c5 0B030000 		.4byte	0x30b
 908 02c9 D4020000 		.4byte	0x2d4
ARM GAS  /var/folders/sv/kgmgr77579zbf78p2zlhkdfr0000gn/T//ccfXf5Do.s 			page 17


 909 02cd 15       		.uleb128 0x15
 910 02ce 01       		.uleb128 0x1
 911 02cf 50       		.byte	0x50
 912 02d0 02       		.uleb128 0x2
 913 02d1 78       		.byte	0x78
 914 02d2 00       		.sleb128 0
 915 02d3 00       		.byte	0
 916 02d4 18       		.uleb128 0x18
 917 02d5 60010000 		.4byte	.LVL55
 918 02d9 15       		.uleb128 0x15
 919 02da 01       		.uleb128 0x1
 920 02db 50       		.byte	0x50
 921 02dc 02       		.uleb128 0x2
 922 02dd 78       		.byte	0x78
 923 02de 00       		.sleb128 0
 924 02df 00       		.byte	0
 925 02e0 00       		.byte	0
 926 02e1 0C       		.uleb128 0xc
 927 02e2 5D010000 		.4byte	0x15d
 928 02e6 F1020000 		.4byte	0x2f1
 929 02ea 19       		.uleb128 0x19
 930 02eb 76000000 		.4byte	0x76
 931 02ef 01       		.byte	0x1
 932 02f0 00       		.byte	0
 933 02f1 1A       		.uleb128 0x1a
 934 02f2 1C000000 		.4byte	.LASF34
 935 02f6 01       		.byte	0x1
 936 02f7 25       		.byte	0x25
 937 02f8 E1020000 		.4byte	0x2e1
 938 02fc 05       		.uleb128 0x5
 939 02fd 03       		.byte	0x3
 940 02fe 00000000 		.4byte	handler_states
 941 0302 1B       		.uleb128 0x1b
 942 0303 AF020000 		.4byte	.LASF38
 943 0307 AF020000 		.4byte	.LASF38
 944 030b 1C       		.uleb128 0x1c
 945 030c CF020000 		.4byte	.LASF39
 946 0310 CF020000 		.4byte	.LASF39
 947 0314 04       		.byte	0x4
 948 0315 1A       		.byte	0x1a
 949 0316 00       		.byte	0
 950              		.section	.debug_abbrev,"",%progbits
 951              	.Ldebug_abbrev0:
 952 0000 01       		.uleb128 0x1
 953 0001 11       		.uleb128 0x11
 954 0002 01       		.byte	0x1
 955 0003 25       		.uleb128 0x25
 956 0004 0E       		.uleb128 0xe
 957 0005 13       		.uleb128 0x13
 958 0006 0B       		.uleb128 0xb
 959 0007 03       		.uleb128 0x3
 960 0008 0E       		.uleb128 0xe
 961 0009 1B       		.uleb128 0x1b
 962 000a 0E       		.uleb128 0xe
 963 000b 55       		.uleb128 0x55
 964 000c 17       		.uleb128 0x17
 965 000d 11       		.uleb128 0x11
ARM GAS  /var/folders/sv/kgmgr77579zbf78p2zlhkdfr0000gn/T//ccfXf5Do.s 			page 18


 966 000e 01       		.uleb128 0x1
 967 000f 10       		.uleb128 0x10
 968 0010 17       		.uleb128 0x17
 969 0011 00       		.byte	0
 970 0012 00       		.byte	0
 971 0013 02       		.uleb128 0x2
 972 0014 24       		.uleb128 0x24
 973 0015 00       		.byte	0
 974 0016 0B       		.uleb128 0xb
 975 0017 0B       		.uleb128 0xb
 976 0018 3E       		.uleb128 0x3e
 977 0019 0B       		.uleb128 0xb
 978 001a 03       		.uleb128 0x3
 979 001b 08       		.uleb128 0x8
 980 001c 00       		.byte	0
 981 001d 00       		.byte	0
 982 001e 03       		.uleb128 0x3
 983 001f 24       		.uleb128 0x24
 984 0020 00       		.byte	0
 985 0021 0B       		.uleb128 0xb
 986 0022 0B       		.uleb128 0xb
 987 0023 3E       		.uleb128 0x3e
 988 0024 0B       		.uleb128 0xb
 989 0025 03       		.uleb128 0x3
 990 0026 0E       		.uleb128 0xe
 991 0027 00       		.byte	0
 992 0028 00       		.byte	0
 993 0029 04       		.uleb128 0x4
 994 002a 16       		.uleb128 0x16
 995 002b 00       		.byte	0
 996 002c 03       		.uleb128 0x3
 997 002d 0E       		.uleb128 0xe
 998 002e 3A       		.uleb128 0x3a
 999 002f 0B       		.uleb128 0xb
 1000 0030 3B       		.uleb128 0x3b
 1001 0031 0B       		.uleb128 0xb
 1002 0032 49       		.uleb128 0x49
 1003 0033 13       		.uleb128 0x13
 1004 0034 00       		.byte	0
 1005 0035 00       		.byte	0
 1006 0036 05       		.uleb128 0x5
 1007 0037 0F       		.uleb128 0xf
 1008 0038 00       		.byte	0
 1009 0039 0B       		.uleb128 0xb
 1010 003a 0B       		.uleb128 0xb
 1011 003b 49       		.uleb128 0x49
 1012 003c 13       		.uleb128 0x13
 1013 003d 00       		.byte	0
 1014 003e 00       		.byte	0
 1015 003f 06       		.uleb128 0x6
 1016 0040 13       		.uleb128 0x13
 1017 0041 01       		.byte	0x1
 1018 0042 0B       		.uleb128 0xb
 1019 0043 05       		.uleb128 0x5
 1020 0044 3A       		.uleb128 0x3a
 1021 0045 0B       		.uleb128 0xb
 1022 0046 3B       		.uleb128 0x3b
ARM GAS  /var/folders/sv/kgmgr77579zbf78p2zlhkdfr0000gn/T//ccfXf5Do.s 			page 19


 1023 0047 0B       		.uleb128 0xb
 1024 0048 01       		.uleb128 0x1
 1025 0049 13       		.uleb128 0x13
 1026 004a 00       		.byte	0
 1027 004b 00       		.byte	0
 1028 004c 07       		.uleb128 0x7
 1029 004d 0D       		.uleb128 0xd
 1030 004e 00       		.byte	0
 1031 004f 03       		.uleb128 0x3
 1032 0050 0E       		.uleb128 0xe
 1033 0051 3A       		.uleb128 0x3a
 1034 0052 0B       		.uleb128 0xb
 1035 0053 3B       		.uleb128 0x3b
 1036 0054 0B       		.uleb128 0xb
 1037 0055 49       		.uleb128 0x49
 1038 0056 13       		.uleb128 0x13
 1039 0057 38       		.uleb128 0x38
 1040 0058 0B       		.uleb128 0xb
 1041 0059 00       		.byte	0
 1042 005a 00       		.byte	0
 1043 005b 08       		.uleb128 0x8
 1044 005c 0D       		.uleb128 0xd
 1045 005d 00       		.byte	0
 1046 005e 03       		.uleb128 0x3
 1047 005f 0E       		.uleb128 0xe
 1048 0060 3A       		.uleb128 0x3a
 1049 0061 0B       		.uleb128 0xb
 1050 0062 3B       		.uleb128 0x3b
 1051 0063 0B       		.uleb128 0xb
 1052 0064 49       		.uleb128 0x49
 1053 0065 13       		.uleb128 0x13
 1054 0066 38       		.uleb128 0x38
 1055 0067 05       		.uleb128 0x5
 1056 0068 00       		.byte	0
 1057 0069 00       		.byte	0
 1058 006a 09       		.uleb128 0x9
 1059 006b 35       		.uleb128 0x35
 1060 006c 00       		.byte	0
 1061 006d 49       		.uleb128 0x49
 1062 006e 13       		.uleb128 0x13
 1063 006f 00       		.byte	0
 1064 0070 00       		.byte	0
 1065 0071 0A       		.uleb128 0xa
 1066 0072 15       		.uleb128 0x15
 1067 0073 01       		.byte	0x1
 1068 0074 27       		.uleb128 0x27
 1069 0075 19       		.uleb128 0x19
 1070 0076 01       		.uleb128 0x1
 1071 0077 13       		.uleb128 0x13
 1072 0078 00       		.byte	0
 1073 0079 00       		.byte	0
 1074 007a 0B       		.uleb128 0xb
 1075 007b 05       		.uleb128 0x5
 1076 007c 00       		.byte	0
 1077 007d 49       		.uleb128 0x49
 1078 007e 13       		.uleb128 0x13
 1079 007f 00       		.byte	0
ARM GAS  /var/folders/sv/kgmgr77579zbf78p2zlhkdfr0000gn/T//ccfXf5Do.s 			page 20


 1080 0080 00       		.byte	0
 1081 0081 0C       		.uleb128 0xc
 1082 0082 01       		.uleb128 0x1
 1083 0083 01       		.byte	0x1
 1084 0084 49       		.uleb128 0x49
 1085 0085 13       		.uleb128 0x13
 1086 0086 01       		.uleb128 0x1
 1087 0087 13       		.uleb128 0x13
 1088 0088 00       		.byte	0
 1089 0089 00       		.byte	0
 1090 008a 0D       		.uleb128 0xd
 1091 008b 21       		.uleb128 0x21
 1092 008c 00       		.byte	0
 1093 008d 49       		.uleb128 0x49
 1094 008e 13       		.uleb128 0x13
 1095 008f 2F       		.uleb128 0x2f
 1096 0090 05       		.uleb128 0x5
 1097 0091 00       		.byte	0
 1098 0092 00       		.byte	0
 1099 0093 0E       		.uleb128 0xe
 1100 0094 2E       		.uleb128 0x2e
 1101 0095 01       		.byte	0x1
 1102 0096 3F       		.uleb128 0x3f
 1103 0097 19       		.uleb128 0x19
 1104 0098 03       		.uleb128 0x3
 1105 0099 0E       		.uleb128 0xe
 1106 009a 3A       		.uleb128 0x3a
 1107 009b 0B       		.uleb128 0xb
 1108 009c 3B       		.uleb128 0x3b
 1109 009d 0B       		.uleb128 0xb
 1110 009e 27       		.uleb128 0x27
 1111 009f 19       		.uleb128 0x19
 1112 00a0 11       		.uleb128 0x11
 1113 00a1 01       		.uleb128 0x1
 1114 00a2 12       		.uleb128 0x12
 1115 00a3 06       		.uleb128 0x6
 1116 00a4 40       		.uleb128 0x40
 1117 00a5 18       		.uleb128 0x18
 1118 00a6 9742     		.uleb128 0x2117
 1119 00a8 19       		.uleb128 0x19
 1120 00a9 01       		.uleb128 0x1
 1121 00aa 13       		.uleb128 0x13
 1122 00ab 00       		.byte	0
 1123 00ac 00       		.byte	0
 1124 00ad 0F       		.uleb128 0xf
 1125 00ae 05       		.uleb128 0x5
 1126 00af 00       		.byte	0
 1127 00b0 03       		.uleb128 0x3
 1128 00b1 0E       		.uleb128 0xe
 1129 00b2 3A       		.uleb128 0x3a
 1130 00b3 0B       		.uleb128 0xb
 1131 00b4 3B       		.uleb128 0x3b
 1132 00b5 0B       		.uleb128 0xb
 1133 00b6 49       		.uleb128 0x49
 1134 00b7 13       		.uleb128 0x13
 1135 00b8 02       		.uleb128 0x2
 1136 00b9 18       		.uleb128 0x18
ARM GAS  /var/folders/sv/kgmgr77579zbf78p2zlhkdfr0000gn/T//ccfXf5Do.s 			page 21


 1137 00ba 00       		.byte	0
 1138 00bb 00       		.byte	0
 1139 00bc 10       		.uleb128 0x10
 1140 00bd 05       		.uleb128 0x5
 1141 00be 00       		.byte	0
 1142 00bf 03       		.uleb128 0x3
 1143 00c0 0E       		.uleb128 0xe
 1144 00c1 3A       		.uleb128 0x3a
 1145 00c2 0B       		.uleb128 0xb
 1146 00c3 3B       		.uleb128 0x3b
 1147 00c4 0B       		.uleb128 0xb
 1148 00c5 49       		.uleb128 0x49
 1149 00c6 13       		.uleb128 0x13
 1150 00c7 02       		.uleb128 0x2
 1151 00c8 17       		.uleb128 0x17
 1152 00c9 00       		.byte	0
 1153 00ca 00       		.byte	0
 1154 00cb 11       		.uleb128 0x11
 1155 00cc 05       		.uleb128 0x5
 1156 00cd 00       		.byte	0
 1157 00ce 03       		.uleb128 0x3
 1158 00cf 08       		.uleb128 0x8
 1159 00d0 3A       		.uleb128 0x3a
 1160 00d1 0B       		.uleb128 0xb
 1161 00d2 3B       		.uleb128 0x3b
 1162 00d3 0B       		.uleb128 0xb
 1163 00d4 49       		.uleb128 0x49
 1164 00d5 13       		.uleb128 0x13
 1165 00d6 02       		.uleb128 0x2
 1166 00d7 17       		.uleb128 0x17
 1167 00d8 00       		.byte	0
 1168 00d9 00       		.byte	0
 1169 00da 12       		.uleb128 0x12
 1170 00db 34       		.uleb128 0x34
 1171 00dc 00       		.byte	0
 1172 00dd 03       		.uleb128 0x3
 1173 00de 0E       		.uleb128 0xe
 1174 00df 3A       		.uleb128 0x3a
 1175 00e0 0B       		.uleb128 0xb
 1176 00e1 3B       		.uleb128 0x3b
 1177 00e2 0B       		.uleb128 0xb
 1178 00e3 49       		.uleb128 0x49
 1179 00e4 13       		.uleb128 0x13
 1180 00e5 02       		.uleb128 0x2
 1181 00e6 17       		.uleb128 0x17
 1182 00e7 00       		.byte	0
 1183 00e8 00       		.byte	0
 1184 00e9 13       		.uleb128 0x13
 1185 00ea 34       		.uleb128 0x34
 1186 00eb 00       		.byte	0
 1187 00ec 03       		.uleb128 0x3
 1188 00ed 08       		.uleb128 0x8
 1189 00ee 3A       		.uleb128 0x3a
 1190 00ef 0B       		.uleb128 0xb
 1191 00f0 3B       		.uleb128 0x3b
 1192 00f1 0B       		.uleb128 0xb
 1193 00f2 49       		.uleb128 0x49
ARM GAS  /var/folders/sv/kgmgr77579zbf78p2zlhkdfr0000gn/T//ccfXf5Do.s 			page 22


 1194 00f3 13       		.uleb128 0x13
 1195 00f4 02       		.uleb128 0x2
 1196 00f5 17       		.uleb128 0x17
 1197 00f6 00       		.byte	0
 1198 00f7 00       		.byte	0
 1199 00f8 14       		.uleb128 0x14
 1200 00f9 898201   		.uleb128 0x4109
 1201 00fc 01       		.byte	0x1
 1202 00fd 11       		.uleb128 0x11
 1203 00fe 01       		.uleb128 0x1
 1204 00ff 31       		.uleb128 0x31
 1205 0100 13       		.uleb128 0x13
 1206 0101 01       		.uleb128 0x1
 1207 0102 13       		.uleb128 0x13
 1208 0103 00       		.byte	0
 1209 0104 00       		.byte	0
 1210 0105 15       		.uleb128 0x15
 1211 0106 8A8201   		.uleb128 0x410a
 1212 0109 00       		.byte	0
 1213 010a 02       		.uleb128 0x2
 1214 010b 18       		.uleb128 0x18
 1215 010c 9142     		.uleb128 0x2111
 1216 010e 18       		.uleb128 0x18
 1217 010f 00       		.byte	0
 1218 0110 00       		.byte	0
 1219 0111 16       		.uleb128 0x16
 1220 0112 898201   		.uleb128 0x4109
 1221 0115 01       		.byte	0x1
 1222 0116 11       		.uleb128 0x11
 1223 0117 01       		.uleb128 0x1
 1224 0118 9542     		.uleb128 0x2115
 1225 011a 19       		.uleb128 0x19
 1226 011b 00       		.byte	0
 1227 011c 00       		.byte	0
 1228 011d 17       		.uleb128 0x17
 1229 011e 0B       		.uleb128 0xb
 1230 011f 01       		.byte	0x1
 1231 0120 11       		.uleb128 0x11
 1232 0121 01       		.uleb128 0x1
 1233 0122 12       		.uleb128 0x12
 1234 0123 06       		.uleb128 0x6
 1235 0124 00       		.byte	0
 1236 0125 00       		.byte	0
 1237 0126 18       		.uleb128 0x18
 1238 0127 898201   		.uleb128 0x4109
 1239 012a 01       		.byte	0x1
 1240 012b 11       		.uleb128 0x11
 1241 012c 01       		.uleb128 0x1
 1242 012d 00       		.byte	0
 1243 012e 00       		.byte	0
 1244 012f 19       		.uleb128 0x19
 1245 0130 21       		.uleb128 0x21
 1246 0131 00       		.byte	0
 1247 0132 49       		.uleb128 0x49
 1248 0133 13       		.uleb128 0x13
 1249 0134 2F       		.uleb128 0x2f
 1250 0135 0B       		.uleb128 0xb
ARM GAS  /var/folders/sv/kgmgr77579zbf78p2zlhkdfr0000gn/T//ccfXf5Do.s 			page 23


 1251 0136 00       		.byte	0
 1252 0137 00       		.byte	0
 1253 0138 1A       		.uleb128 0x1a
 1254 0139 34       		.uleb128 0x34
 1255 013a 00       		.byte	0
 1256 013b 03       		.uleb128 0x3
 1257 013c 0E       		.uleb128 0xe
 1258 013d 3A       		.uleb128 0x3a
 1259 013e 0B       		.uleb128 0xb
 1260 013f 3B       		.uleb128 0x3b
 1261 0140 0B       		.uleb128 0xb
 1262 0141 49       		.uleb128 0x49
 1263 0142 13       		.uleb128 0x13
 1264 0143 02       		.uleb128 0x2
 1265 0144 18       		.uleb128 0x18
 1266 0145 00       		.byte	0
 1267 0146 00       		.byte	0
 1268 0147 1B       		.uleb128 0x1b
 1269 0148 2E       		.uleb128 0x2e
 1270 0149 00       		.byte	0
 1271 014a 3F       		.uleb128 0x3f
 1272 014b 19       		.uleb128 0x19
 1273 014c 3C       		.uleb128 0x3c
 1274 014d 19       		.uleb128 0x19
 1275 014e 6E       		.uleb128 0x6e
 1276 014f 0E       		.uleb128 0xe
 1277 0150 03       		.uleb128 0x3
 1278 0151 0E       		.uleb128 0xe
 1279 0152 00       		.byte	0
 1280 0153 00       		.byte	0
 1281 0154 1C       		.uleb128 0x1c
 1282 0155 2E       		.uleb128 0x2e
 1283 0156 00       		.byte	0
 1284 0157 3F       		.uleb128 0x3f
 1285 0158 19       		.uleb128 0x19
 1286 0159 3C       		.uleb128 0x3c
 1287 015a 19       		.uleb128 0x19
 1288 015b 6E       		.uleb128 0x6e
 1289 015c 0E       		.uleb128 0xe
 1290 015d 03       		.uleb128 0x3
 1291 015e 0E       		.uleb128 0xe
 1292 015f 3A       		.uleb128 0x3a
 1293 0160 0B       		.uleb128 0xb
 1294 0161 3B       		.uleb128 0x3b
 1295 0162 0B       		.uleb128 0xb
 1296 0163 00       		.byte	0
 1297 0164 00       		.byte	0
 1298 0165 00       		.byte	0
 1299              		.section	.debug_loc,"",%progbits
 1300              	.Ldebug_loc0:
 1301              	.LLST0:
 1302 0000 00000000 		.4byte	.LVL0
 1303 0004 06000000 		.4byte	.LVL1
 1304 0008 0100     		.2byte	0x1
 1305 000a 52       		.byte	0x52
 1306 000b 06000000 		.4byte	.LVL1
 1307 000f 14000000 		.4byte	.LFE0
ARM GAS  /var/folders/sv/kgmgr77579zbf78p2zlhkdfr0000gn/T//ccfXf5Do.s 			page 24


 1308 0013 0400     		.2byte	0x4
 1309 0015 F3       		.byte	0xf3
 1310 0016 01       		.uleb128 0x1
 1311 0017 52       		.byte	0x52
 1312 0018 9F       		.byte	0x9f
 1313 0019 00000000 		.4byte	0
 1314 001d 00000000 		.4byte	0
 1315              	.LLST1:
 1316 0021 00000000 		.4byte	.LVL2
 1317 0025 40000000 		.4byte	.LVL7
 1318 0029 0100     		.2byte	0x1
 1319 002b 50       		.byte	0x50
 1320 002c 40000000 		.4byte	.LVL7
 1321 0030 70000000 		.4byte	.LVL15
 1322 0034 0100     		.2byte	0x1
 1323 0036 57       		.byte	0x57
 1324 0037 70000000 		.4byte	.LVL15
 1325 003b 72000000 		.4byte	.LVL16
 1326 003f 0400     		.2byte	0x4
 1327 0041 F3       		.byte	0xf3
 1328 0042 01       		.uleb128 0x1
 1329 0043 50       		.byte	0x50
 1330 0044 9F       		.byte	0x9f
 1331 0045 72000000 		.4byte	.LVL16
 1332 0049 80000000 		.4byte	.LVL19
 1333 004d 0100     		.2byte	0x1
 1334 004f 50       		.byte	0x50
 1335 0050 80000000 		.4byte	.LVL19
 1336 0054 84000000 		.4byte	.LVL20
 1337 0058 0100     		.2byte	0x1
 1338 005a 57       		.byte	0x57
 1339 005b 84000000 		.4byte	.LVL20
 1340 005f 88000000 		.4byte	.LFE1
 1341 0063 0400     		.2byte	0x4
 1342 0065 F3       		.byte	0xf3
 1343 0066 01       		.uleb128 0x1
 1344 0067 50       		.byte	0x50
 1345 0068 9F       		.byte	0x9f
 1346 0069 00000000 		.4byte	0
 1347 006d 00000000 		.4byte	0
 1348              	.LLST2:
 1349 0071 00000000 		.4byte	.LVL2
 1350 0075 42000000 		.4byte	.LVL8
 1351 0079 0100     		.2byte	0x1
 1352 007b 51       		.byte	0x51
 1353 007c 42000000 		.4byte	.LVL8
 1354 0080 45000000 		.4byte	.LVL9-1
 1355 0084 0100     		.2byte	0x1
 1356 0086 52       		.byte	0x52
 1357 0087 45000000 		.4byte	.LVL9-1
 1358 008b 70000000 		.4byte	.LVL15
 1359 008f 0100     		.2byte	0x1
 1360 0091 56       		.byte	0x56
 1361 0092 70000000 		.4byte	.LVL15
 1362 0096 72000000 		.4byte	.LVL16
 1363 009a 0400     		.2byte	0x4
 1364 009c F3       		.byte	0xf3
ARM GAS  /var/folders/sv/kgmgr77579zbf78p2zlhkdfr0000gn/T//ccfXf5Do.s 			page 25


 1365 009d 01       		.uleb128 0x1
 1366 009e 51       		.byte	0x51
 1367 009f 9F       		.byte	0x9f
 1368 00a0 72000000 		.4byte	.LVL16
 1369 00a4 80000000 		.4byte	.LVL19
 1370 00a8 0100     		.2byte	0x1
 1371 00aa 51       		.byte	0x51
 1372 00ab 80000000 		.4byte	.LVL19
 1373 00af 84000000 		.4byte	.LVL20
 1374 00b3 0100     		.2byte	0x1
 1375 00b5 56       		.byte	0x56
 1376 00b6 84000000 		.4byte	.LVL20
 1377 00ba 88000000 		.4byte	.LFE1
 1378 00be 0400     		.2byte	0x4
 1379 00c0 F3       		.byte	0xf3
 1380 00c1 01       		.uleb128 0x1
 1381 00c2 51       		.byte	0x51
 1382 00c3 9F       		.byte	0x9f
 1383 00c4 00000000 		.4byte	0
 1384 00c8 00000000 		.4byte	0
 1385              	.LLST3:
 1386 00cc 00000000 		.4byte	.LVL2
 1387 00d0 2E000000 		.4byte	.LVL6
 1388 00d4 0100     		.2byte	0x1
 1389 00d6 52       		.byte	0x52
 1390 00d7 2E000000 		.4byte	.LVL6
 1391 00db 72000000 		.4byte	.LVL16
 1392 00df 0400     		.2byte	0x4
 1393 00e1 F3       		.byte	0xf3
 1394 00e2 01       		.uleb128 0x1
 1395 00e3 52       		.byte	0x52
 1396 00e4 9F       		.byte	0x9f
 1397 00e5 72000000 		.4byte	.LVL16
 1398 00e9 80000000 		.4byte	.LVL19
 1399 00ed 0100     		.2byte	0x1
 1400 00ef 52       		.byte	0x52
 1401 00f0 80000000 		.4byte	.LVL19
 1402 00f4 88000000 		.4byte	.LFE1
 1403 00f8 0400     		.2byte	0x4
 1404 00fa F3       		.byte	0xf3
 1405 00fb 01       		.uleb128 0x1
 1406 00fc 52       		.byte	0x52
 1407 00fd 9F       		.byte	0x9f
 1408 00fe 00000000 		.4byte	0
 1409 0102 00000000 		.4byte	0
 1410              	.LLST4:
 1411 0106 06000000 		.4byte	.LVL3
 1412 010a 1C000000 		.4byte	.LVL4
 1413 010e 0200     		.2byte	0x2
 1414 0110 30       		.byte	0x30
 1415 0111 9F       		.byte	0x9f
 1416 0112 1C000000 		.4byte	.LVL4
 1417 0116 2C000000 		.4byte	.LVL5
 1418 011a 0200     		.2byte	0x2
 1419 011c 31       		.byte	0x31
 1420 011d 9F       		.byte	0x9f
 1421 011e 52000000 		.4byte	.LVL11
ARM GAS  /var/folders/sv/kgmgr77579zbf78p2zlhkdfr0000gn/T//ccfXf5Do.s 			page 26


 1422 0122 62000000 		.4byte	.LVL13
 1423 0126 0300     		.2byte	0x3
 1424 0128 75       		.byte	0x75
 1425 0129 01       		.sleb128 1
 1426 012a 9F       		.byte	0x9f
 1427 012b 62000000 		.4byte	.LVL13
 1428 012f 64000000 		.4byte	.LVL14
 1429 0133 0300     		.2byte	0x3
 1430 0135 75       		.byte	0x75
 1431 0136 02       		.sleb128 2
 1432 0137 9F       		.byte	0x9f
 1433 0138 64000000 		.4byte	.LVL14
 1434 013c 71000000 		.4byte	.LVL16-1
 1435 0140 0100     		.2byte	0x1
 1436 0142 51       		.byte	0x51
 1437 0143 72000000 		.4byte	.LVL16
 1438 0147 7C000000 		.4byte	.LVL17
 1439 014b 0200     		.2byte	0x2
 1440 014d 31       		.byte	0x31
 1441 014e 9F       		.byte	0x9f
 1442 014f 7C000000 		.4byte	.LVL17
 1443 0153 7E000000 		.4byte	.LVL18
 1444 0157 0200     		.2byte	0x2
 1445 0159 32       		.byte	0x32
 1446 015a 9F       		.byte	0x9f
 1447 015b 80000000 		.4byte	.LVL19
 1448 015f 88000000 		.4byte	.LFE1
 1449 0163 0100     		.2byte	0x1
 1450 0165 51       		.byte	0x51
 1451 0166 00000000 		.4byte	0
 1452 016a 00000000 		.4byte	0
 1453              	.LLST5:
 1454 016e 52000000 		.4byte	.LVL11
 1455 0172 5E000000 		.4byte	.LVL12
 1456 0176 0100     		.2byte	0x1
 1457 0178 50       		.byte	0x50
 1458 0179 00000000 		.4byte	0
 1459 017d 00000000 		.4byte	0
 1460              	.LLST6:
 1461 0181 00000000 		.4byte	.LVL21
 1462 0185 08000000 		.4byte	.LVL22
 1463 0189 0200     		.2byte	0x2
 1464 018b 30       		.byte	0x30
 1465 018c 9F       		.byte	0x9f
 1466 018d 08000000 		.4byte	.LVL22
 1467 0191 20000000 		.4byte	.LVL23
 1468 0195 0200     		.2byte	0x2
 1469 0197 31       		.byte	0x31
 1470 0198 9F       		.byte	0x9f
 1471 0199 20000000 		.4byte	.LVL23
 1472 019d 22000000 		.4byte	.LVL24
 1473 01a1 0200     		.2byte	0x2
 1474 01a3 32       		.byte	0x32
 1475 01a4 9F       		.byte	0x9f
 1476 01a5 22000000 		.4byte	.LVL24
 1477 01a9 28000000 		.4byte	.LVL25
 1478 01ad 0200     		.2byte	0x2
ARM GAS  /var/folders/sv/kgmgr77579zbf78p2zlhkdfr0000gn/T//ccfXf5Do.s 			page 27


 1479 01af 31       		.byte	0x31
 1480 01b0 9F       		.byte	0x9f
 1481 01b1 28000000 		.4byte	.LVL25
 1482 01b5 30000000 		.4byte	.LVL26
 1483 01b9 0200     		.2byte	0x2
 1484 01bb 30       		.byte	0x30
 1485 01bc 9F       		.byte	0x9f
 1486 01bd 30000000 		.4byte	.LVL26
 1487 01c1 44000000 		.4byte	.LFE2
 1488 01c5 0200     		.2byte	0x2
 1489 01c7 31       		.byte	0x31
 1490 01c8 9F       		.byte	0x9f
 1491 01c9 00000000 		.4byte	0
 1492 01cd 00000000 		.4byte	0
 1493              	.LLST7:
 1494 01d1 00000000 		.4byte	.LVL27
 1495 01d5 26000000 		.4byte	.LVL28
 1496 01d9 0100     		.2byte	0x1
 1497 01db 50       		.byte	0x50
 1498 01dc 26000000 		.4byte	.LVL28
 1499 01e0 32000000 		.4byte	.LVL30
 1500 01e4 0400     		.2byte	0x4
 1501 01e6 F3       		.byte	0xf3
 1502 01e7 01       		.uleb128 0x1
 1503 01e8 50       		.byte	0x50
 1504 01e9 9F       		.byte	0x9f
 1505 01ea 32000000 		.4byte	.LVL30
 1506 01ee 58000000 		.4byte	.LVL34
 1507 01f2 0100     		.2byte	0x1
 1508 01f4 50       		.byte	0x50
 1509 01f5 58000000 		.4byte	.LVL34
 1510 01f9 64000000 		.4byte	.LVL35
 1511 01fd 0400     		.2byte	0x4
 1512 01ff F3       		.byte	0xf3
 1513 0200 01       		.uleb128 0x1
 1514 0201 50       		.byte	0x50
 1515 0202 9F       		.byte	0x9f
 1516 0203 64000000 		.4byte	.LVL35
 1517 0207 70000000 		.4byte	.LVL37
 1518 020b 0100     		.2byte	0x1
 1519 020d 50       		.byte	0x50
 1520 020e 70000000 		.4byte	.LVL37
 1521 0212 8C000000 		.4byte	.LVL38
 1522 0216 0400     		.2byte	0x4
 1523 0218 F3       		.byte	0xf3
 1524 0219 01       		.uleb128 0x1
 1525 021a 50       		.byte	0x50
 1526 021b 9F       		.byte	0x9f
 1527 021c 8C000000 		.4byte	.LVL38
 1528 0220 E0000000 		.4byte	.LVL42
 1529 0224 0100     		.2byte	0x1
 1530 0226 50       		.byte	0x50
 1531 0227 E0000000 		.4byte	.LVL42
 1532 022b E6000000 		.4byte	.LVL43
 1533 022f 0400     		.2byte	0x4
 1534 0231 F3       		.byte	0xf3
 1535 0232 01       		.uleb128 0x1
ARM GAS  /var/folders/sv/kgmgr77579zbf78p2zlhkdfr0000gn/T//ccfXf5Do.s 			page 28


 1536 0233 50       		.byte	0x50
 1537 0234 9F       		.byte	0x9f
 1538 0235 E6000000 		.4byte	.LVL43
 1539 0239 00010000 		.4byte	.LVL47
 1540 023d 0100     		.2byte	0x1
 1541 023f 50       		.byte	0x50
 1542 0240 00010000 		.4byte	.LVL47
 1543 0244 08010000 		.4byte	.LVL48
 1544 0248 0400     		.2byte	0x4
 1545 024a F3       		.byte	0xf3
 1546 024b 01       		.uleb128 0x1
 1547 024c 50       		.byte	0x50
 1548 024d 9F       		.byte	0x9f
 1549 024e 08010000 		.4byte	.LVL48
 1550 0252 14010000 		.4byte	.LVL49
 1551 0256 0100     		.2byte	0x1
 1552 0258 50       		.byte	0x50
 1553 0259 14010000 		.4byte	.LVL49
 1554 025d 24010000 		.4byte	.LVL50
 1555 0261 0400     		.2byte	0x4
 1556 0263 F3       		.byte	0xf3
 1557 0264 01       		.uleb128 0x1
 1558 0265 50       		.byte	0x50
 1559 0266 9F       		.byte	0x9f
 1560 0267 24010000 		.4byte	.LVL50
 1561 026b 3C010000 		.4byte	.LVL52
 1562 026f 0100     		.2byte	0x1
 1563 0271 50       		.byte	0x50
 1564 0272 3C010000 		.4byte	.LVL52
 1565 0276 68010000 		.4byte	.LFE3
 1566 027a 0400     		.2byte	0x4
 1567 027c F3       		.byte	0xf3
 1568 027d 01       		.uleb128 0x1
 1569 027e 50       		.byte	0x50
 1570 027f 9F       		.byte	0x9f
 1571 0280 00000000 		.4byte	0
 1572 0284 00000000 		.4byte	0
 1573              	.LLST8:
 1574 0288 00000000 		.4byte	.LVL27
 1575 028c 26000000 		.4byte	.LVL28
 1576 0290 0100     		.2byte	0x1
 1577 0292 51       		.byte	0x51
 1578 0293 26000000 		.4byte	.LVL28
 1579 0297 28000000 		.4byte	.LVL29
 1580 029b 0100     		.2byte	0x1
 1581 029d 54       		.byte	0x54
 1582 029e 28000000 		.4byte	.LVL29
 1583 02a2 32000000 		.4byte	.LVL30
 1584 02a6 0400     		.2byte	0x4
 1585 02a8 F3       		.byte	0xf3
 1586 02a9 01       		.uleb128 0x1
 1587 02aa 51       		.byte	0x51
 1588 02ab 9F       		.byte	0x9f
 1589 02ac 32000000 		.4byte	.LVL30
 1590 02b0 34000000 		.4byte	.LVL31
 1591 02b4 0100     		.2byte	0x1
 1592 02b6 51       		.byte	0x51
ARM GAS  /var/folders/sv/kgmgr77579zbf78p2zlhkdfr0000gn/T//ccfXf5Do.s 			page 29


 1593 02b7 34000000 		.4byte	.LVL31
 1594 02bb 48000000 		.4byte	.LVL32
 1595 02bf 0400     		.2byte	0x4
 1596 02c1 F3       		.byte	0xf3
 1597 02c2 01       		.uleb128 0x1
 1598 02c3 51       		.byte	0x51
 1599 02c4 9F       		.byte	0x9f
 1600 02c5 48000000 		.4byte	.LVL32
 1601 02c9 4A000000 		.4byte	.LVL33
 1602 02cd 0100     		.2byte	0x1
 1603 02cf 51       		.byte	0x51
 1604 02d0 4A000000 		.4byte	.LVL33
 1605 02d4 64000000 		.4byte	.LVL35
 1606 02d8 0400     		.2byte	0x4
 1607 02da F3       		.byte	0xf3
 1608 02db 01       		.uleb128 0x1
 1609 02dc 51       		.byte	0x51
 1610 02dd 9F       		.byte	0x9f
 1611 02de 64000000 		.4byte	.LVL35
 1612 02e2 66000000 		.4byte	.LVL36
 1613 02e6 0100     		.2byte	0x1
 1614 02e8 51       		.byte	0x51
 1615 02e9 66000000 		.4byte	.LVL36
 1616 02ed 8C000000 		.4byte	.LVL38
 1617 02f1 0400     		.2byte	0x4
 1618 02f3 F3       		.byte	0xf3
 1619 02f4 01       		.uleb128 0x1
 1620 02f5 51       		.byte	0x51
 1621 02f6 9F       		.byte	0x9f
 1622 02f7 8C000000 		.4byte	.LVL38
 1623 02fb BC000000 		.4byte	.LVL39
 1624 02ff 0100     		.2byte	0x1
 1625 0301 51       		.byte	0x51
 1626 0302 BC000000 		.4byte	.LVL39
 1627 0306 CA000000 		.4byte	.LVL40
 1628 030a 0400     		.2byte	0x4
 1629 030c F3       		.byte	0xf3
 1630 030d 01       		.uleb128 0x1
 1631 030e 51       		.byte	0x51
 1632 030f 9F       		.byte	0x9f
 1633 0310 CA000000 		.4byte	.LVL40
 1634 0314 CC000000 		.4byte	.LVL41
 1635 0318 0100     		.2byte	0x1
 1636 031a 51       		.byte	0x51
 1637 031b CC000000 		.4byte	.LVL41
 1638 031f E6000000 		.4byte	.LVL43
 1639 0323 0400     		.2byte	0x4
 1640 0325 F3       		.byte	0xf3
 1641 0326 01       		.uleb128 0x1
 1642 0327 51       		.byte	0x51
 1643 0328 9F       		.byte	0x9f
 1644 0329 E6000000 		.4byte	.LVL43
 1645 032d E8000000 		.4byte	.LVL44
 1646 0331 0100     		.2byte	0x1
 1647 0333 51       		.byte	0x51
 1648 0334 E8000000 		.4byte	.LVL44
 1649 0338 F4000000 		.4byte	.LVL45
ARM GAS  /var/folders/sv/kgmgr77579zbf78p2zlhkdfr0000gn/T//ccfXf5Do.s 			page 30


 1650 033c 0400     		.2byte	0x4
 1651 033e F3       		.byte	0xf3
 1652 033f 01       		.uleb128 0x1
 1653 0340 51       		.byte	0x51
 1654 0341 9F       		.byte	0x9f
 1655 0342 F4000000 		.4byte	.LVL45
 1656 0346 F6000000 		.4byte	.LVL46
 1657 034a 0100     		.2byte	0x1
 1658 034c 51       		.byte	0x51
 1659 034d F6000000 		.4byte	.LVL46
 1660 0351 2C010000 		.4byte	.LVL51
 1661 0355 0400     		.2byte	0x4
 1662 0357 F3       		.byte	0xf3
 1663 0358 01       		.uleb128 0x1
 1664 0359 51       		.byte	0x51
 1665 035a 9F       		.byte	0x9f
 1666 035b 2C010000 		.4byte	.LVL51
 1667 035f 40010000 		.4byte	.LVL53
 1668 0363 0100     		.2byte	0x1
 1669 0365 51       		.byte	0x51
 1670 0366 40010000 		.4byte	.LVL53
 1671 036a 68010000 		.4byte	.LFE3
 1672 036e 0100     		.2byte	0x1
 1673 0370 54       		.byte	0x54
 1674 0371 00000000 		.4byte	0
 1675 0375 00000000 		.4byte	0
 1676              		.section	.debug_aranges,"",%progbits
 1677 0000 34000000 		.4byte	0x34
 1678 0004 0200     		.2byte	0x2
 1679 0006 00000000 		.4byte	.Ldebug_info0
 1680 000a 04       		.byte	0x4
 1681 000b 00       		.byte	0
 1682 000c 0000     		.2byte	0
 1683 000e 0000     		.2byte	0
 1684 0010 00000000 		.4byte	.LFB0
 1685 0014 14000000 		.4byte	.LFE0-.LFB0
 1686 0018 00000000 		.4byte	.LFB1
 1687 001c 88000000 		.4byte	.LFE1-.LFB1
 1688 0020 00000000 		.4byte	.LFB2
 1689 0024 44000000 		.4byte	.LFE2-.LFB2
 1690 0028 00000000 		.4byte	.LFB3
 1691 002c 68010000 		.4byte	.LFE3-.LFB3
 1692 0030 00000000 		.4byte	0
 1693 0034 00000000 		.4byte	0
 1694              		.section	.debug_ranges,"",%progbits
 1695              	.Ldebug_ranges0:
 1696 0000 00000000 		.4byte	.LFB0
 1697 0004 14000000 		.4byte	.LFE0
 1698 0008 00000000 		.4byte	.LFB1
 1699 000c 88000000 		.4byte	.LFE1
 1700 0010 00000000 		.4byte	.LFB2
 1701 0014 44000000 		.4byte	.LFE2
 1702 0018 00000000 		.4byte	.LFB3
 1703 001c 68010000 		.4byte	.LFE3
 1704 0020 00000000 		.4byte	0
 1705 0024 00000000 		.4byte	0
 1706              		.section	.debug_line,"",%progbits
ARM GAS  /var/folders/sv/kgmgr77579zbf78p2zlhkdfr0000gn/T//ccfXf5Do.s 			page 31


 1707              	.Ldebug_line0:
 1708 0000 92010000 		.section	.debug_str,"MS",%progbits,1
 1708      0200DB00 
 1708      00000201 
 1708      FB0E0D00 
 1708      01010101 
 1709              	.LASF22:
 1710 0000 6372635F 		.ascii	"crc_high\000"
 1710      68696768 
 1710      00
 1711              	.LASF36:
 1712 0009 7061636B 		.ascii	"packet.c\000"
 1712      65742E63 
 1712      00
 1713              	.LASF11:
 1714 0012 5F5F7569 		.ascii	"__uint8_t\000"
 1714      6E74385F 
 1714      7400
 1715              	.LASF34:
 1716 001c 68616E64 		.ascii	"handler_states\000"
 1716      6C65725F 
 1716      73746174 
 1716      657300
 1717              	.LASF26:
 1718 002b 68616E64 		.ascii	"handler_num\000"
 1718      6C65725F 
 1718      6E756D00 
 1719              	.LASF33:
 1720 0037 72785F64 		.ascii	"rx_data\000"
 1720      61746100 
 1721              	.LASF37:
 1722 003f 2F557365 		.ascii	"/Users/moslin/Documents/Project/bldc-master\000"
 1722      72732F6D 
 1722      6F736C69 
 1722      6E2F446F 
 1722      63756D65 
 1723              	.LASF23:
 1724 006b 5041434B 		.ascii	"PACKET_STATE_t\000"
 1724      45545F53 
 1724      54415445 
 1724      5F7400
 1725              	.LASF32:
 1726 007a 7061636B 		.ascii	"packet_process_byte\000"
 1726      65745F70 
 1726      726F6365 
 1726      73735F62 
 1726      79746500 
 1727              	.LASF19:
 1728 008e 74785F62 		.ascii	"tx_buffer\000"
 1728      75666665 
 1728      7200
 1729              	.LASF29:
 1730 0098 64617461 		.ascii	"data\000"
 1730      00
 1731              	.LASF30:
 1732 009d 625F696E 		.ascii	"b_ind\000"
 1732      6400
ARM GAS  /var/folders/sv/kgmgr77579zbf78p2zlhkdfr0000gn/T//ccfXf5Do.s 			page 32


 1733              	.LASF35:
 1734 00a3 474E5520 		.ascii	"GNU C99 5.4.1 20160919 (release) [ARM/embedded-5-br"
 1734      43393920 
 1734      352E342E 
 1734      31203230 
 1734      31363039 
 1735 00d6 616E6368 		.ascii	"anch revision 240496] -mcpu=cortex-m4 -mfloat-abi=h"
 1735      20726576 
 1735      6973696F 
 1735      6E203234 
 1735      30343936 
 1736 0109 61726420 		.ascii	"ard -mfpu=fpv4-sp-d16 -mno-thumb-interwork -mthumb "
 1736      2D6D6670 
 1736      753D6670 
 1736      76342D73 
 1736      702D6431 
 1737 013c 2D676764 		.ascii	"-ggdb -O2 -std=gnu99 -fomit-frame-pointer -falign-f"
 1737      62202D4F 
 1737      32202D73 
 1737      74643D67 
 1737      6E753939 
 1738 016f 756E6374 		.ascii	"unctions=16 -ffunction-sections -fdata-sections -fn"
 1738      696F6E73 
 1738      3D313620 
 1738      2D666675 
 1738      6E637469 
 1739 01a2 6F2D636F 		.ascii	"o-common -fsingle-precision-constant\000"
 1739      6D6D6F6E 
 1739      202D6673 
 1739      696E676C 
 1739      652D7072 
 1740              	.LASF16:
 1741 01c7 70726F63 		.ascii	"process_func\000"
 1741      6573735F 
 1741      66756E63 
 1741      00
 1742              	.LASF18:
 1743 01d4 72785F62 		.ascii	"rx_buffer\000"
 1743      75666665 
 1743      7200
 1744              	.LASF2:
 1745 01de 756E7369 		.ascii	"unsigned char\000"
 1745      676E6564 
 1745      20636861 
 1745      7200
 1746              	.LASF6:
 1747 01ec 6C6F6E67 		.ascii	"long unsigned int\000"
 1747      20756E73 
 1747      69676E65 
 1747      6420696E 
 1747      7400
 1748              	.LASF4:
 1749 01fe 73686F72 		.ascii	"short unsigned int\000"
 1749      7420756E 
 1749      7369676E 
 1749      65642069 
 1749      6E7400
ARM GAS  /var/folders/sv/kgmgr77579zbf78p2zlhkdfr0000gn/T//ccfXf5Do.s 			page 33


 1750              	.LASF0:
 1751 0211 756E7369 		.ascii	"unsigned int\000"
 1751      676E6564 
 1751      20696E74 
 1751      00
 1752              	.LASF20:
 1753 021e 72785F64 		.ascii	"rx_data_ptr\000"
 1753      6174615F 
 1753      70747200 
 1754              	.LASF31:
 1755 022a 7061636B 		.ascii	"packet_timerfunc\000"
 1755      65745F74 
 1755      696D6572 
 1755      66756E63 
 1755      00
 1756              	.LASF8:
 1757 023b 6C6F6E67 		.ascii	"long long unsigned int\000"
 1757      206C6F6E 
 1757      6720756E 
 1757      7369676E 
 1757      65642069 
 1758              	.LASF12:
 1759 0252 75696E74 		.ascii	"uint8_t\000"
 1759      385F7400 
 1760              	.LASF28:
 1761 025a 7061636B 		.ascii	"packet_send_packet\000"
 1761      65745F73 
 1761      656E645F 
 1761      7061636B 
 1761      657400
 1762              	.LASF21:
 1763 026d 6372635F 		.ascii	"crc_low\000"
 1763      6C6F7700 
 1764              	.LASF14:
 1765 0275 72785F74 		.ascii	"rx_timeout\000"
 1765      696D656F 
 1765      757400
 1766              	.LASF24:
 1767 0280 735F6675 		.ascii	"s_func\000"
 1767      6E6300
 1768              	.LASF15:
 1769 0287 73656E64 		.ascii	"send_func\000"
 1769      5F66756E 
 1769      6300
 1770              	.LASF9:
 1771 0291 73697A65 		.ascii	"sizetype\000"
 1771      74797065 
 1771      00
 1772              	.LASF7:
 1773 029a 6C6F6E67 		.ascii	"long long int\000"
 1773      206C6F6E 
 1773      6720696E 
 1773      7400
 1774              	.LASF25:
 1775 02a8 705F6675 		.ascii	"p_func\000"
 1775      6E6300
 1776              	.LASF38:
ARM GAS  /var/folders/sv/kgmgr77579zbf78p2zlhkdfr0000gn/T//ccfXf5Do.s 			page 34


 1777 02af 6D656D63 		.ascii	"memcpy\000"
 1777      707900
 1778              	.LASF3:
 1779 02b6 73686F72 		.ascii	"short int\000"
 1779      7420696E 
 1779      7400
 1780              	.LASF17:
 1781 02c0 7061796C 		.ascii	"payload_length\000"
 1781      6F61645F 
 1781      6C656E67 
 1781      746800
 1782              	.LASF39:
 1783 02cf 63726331 		.ascii	"crc16\000"
 1783      3600
 1784              	.LASF5:
 1785 02d5 6C6F6E67 		.ascii	"long int\000"
 1785      20696E74 
 1785      00
 1786              	.LASF10:
 1787 02de 63686172 		.ascii	"char\000"
 1787      00
 1788              	.LASF27:
 1789 02e3 7061636B 		.ascii	"packet_init\000"
 1789      65745F69 
 1789      6E697400 
 1790              	.LASF1:
 1791 02ef 7369676E 		.ascii	"signed char\000"
 1791      65642063 
 1791      68617200 
 1792              	.LASF13:
 1793 02fb 72785F73 		.ascii	"rx_state\000"
 1793      74617465 
 1793      00
 1794              		.ident	"GCC: (GNU Tools for ARM Embedded Processors) 5.4.1 20160919 (release) [ARM/embedded-5-bran
ARM GAS  /var/folders/sv/kgmgr77579zbf78p2zlhkdfr0000gn/T//ccfXf5Do.s 			page 35


DEFINED SYMBOLS
                            *ABS*:0000000000000000 packet.c
/var/folders/sv/kgmgr77579zbf78p2zlhkdfr0000gn/T//ccfXf5Do.s:22     .text.packet_init:0000000000000000 $t
/var/folders/sv/kgmgr77579zbf78p2zlhkdfr0000gn/T//ccfXf5Do.s:28     .text.packet_init:0000000000000000 packet_init
/var/folders/sv/kgmgr77579zbf78p2zlhkdfr0000gn/T//ccfXf5Do.s:49     .text.packet_init:0000000000000010 $d
/var/folders/sv/kgmgr77579zbf78p2zlhkdfr0000gn/T//ccfXf5Do.s:54     .text.packet_send_packet:0000000000000000 $t
/var/folders/sv/kgmgr77579zbf78p2zlhkdfr0000gn/T//ccfXf5Do.s:60     .text.packet_send_packet:0000000000000000 packet_send_packet
/var/folders/sv/kgmgr77579zbf78p2zlhkdfr0000gn/T//ccfXf5Do.s:205    .text.packet_send_packet:0000000000000084 $d
/var/folders/sv/kgmgr77579zbf78p2zlhkdfr0000gn/T//ccfXf5Do.s:210    .text.packet_timerfunc:0000000000000000 $t
/var/folders/sv/kgmgr77579zbf78p2zlhkdfr0000gn/T//ccfXf5Do.s:216    .text.packet_timerfunc:0000000000000000 packet_timerfunc
/var/folders/sv/kgmgr77579zbf78p2zlhkdfr0000gn/T//ccfXf5Do.s:269    .text.packet_timerfunc:0000000000000040 $d
/var/folders/sv/kgmgr77579zbf78p2zlhkdfr0000gn/T//ccfXf5Do.s:275    .text.packet_process_byte:0000000000000000 $t
/var/folders/sv/kgmgr77579zbf78p2zlhkdfr0000gn/T//ccfXf5Do.s:281    .text.packet_process_byte:0000000000000000 packet_process_byte
/var/folders/sv/kgmgr77579zbf78p2zlhkdfr0000gn/T//ccfXf5Do.s:308    .text.packet_process_byte:0000000000000016 $d
/var/folders/sv/kgmgr77579zbf78p2zlhkdfr0000gn/T//ccfXf5Do.s:540    .text.packet_process_byte:0000000000000164 $d
/var/folders/sv/kgmgr77579zbf78p2zlhkdfr0000gn/T//ccfXf5Do.s:545    .bss.handler_states:0000000000000000 $d
/var/folders/sv/kgmgr77579zbf78p2zlhkdfr0000gn/T//ccfXf5Do.s:549    .bss.handler_states:0000000000000000 handler_states
                     .debug_frame:0000000000000010 $d
/var/folders/sv/kgmgr77579zbf78p2zlhkdfr0000gn/T//ccfXf5Do.s:315    .text.packet_process_byte:000000000000001d $d
/var/folders/sv/kgmgr77579zbf78p2zlhkdfr0000gn/T//ccfXf5Do.s:315    .text.packet_process_byte:000000000000001e $t

UNDEFINED SYMBOLS
memcpy
crc16
