ARM GAS  /var/folders/sv/kgmgr77579zbf78p2zlhkdfr0000gn/T//cczBHn7X.s 			page 1


   1              		.syntax unified
   2              		.cpu cortex-m4
   3              		.eabi_attribute 27, 1
   4              		.eabi_attribute 28, 1
   5              		.fpu fpv4-sp-d16
   6              		.eabi_attribute 20, 1
   7              		.eabi_attribute 21, 1
   8              		.eabi_attribute 23, 3
   9              		.eabi_attribute 24, 1
  10              		.eabi_attribute 25, 1
  11              		.eabi_attribute 26, 1
  12              		.eabi_attribute 30, 2
  13              		.eabi_attribute 34, 1
  14              		.eabi_attribute 18, 4
  15              		.thumb
  16              		.syntax unified
  17              		.file	"rf.c"
  18              		.text
  19              	.Ltext0:
  20              		.cfi_sections	.debug_frame
  21              		.section	.text.rf_init,"ax",%progbits
  22              		.align	2
  23              		.p2align 4,,15
  24              		.global	rf_init
  25              		.thumb
  26              		.thumb_func
  27              		.type	rf_init, %function
  28              	rf_init:
  29              	.LFB256:
  30              		.file 1 "nrf/rf.c"
  31              		.loc 1 25 0
  32              		.cfi_startproc
  33              		@ args = 0, pretend = 0, frame = 0
  34              		@ frame_needed = 0, uses_anonymous_args = 0
  35              		@ link register save eliminated.
  36              		.loc 1 26 0
  37 0000 FFF7FEBF 		b	spi_sw_init
  38              	.LVL0:
  39              		.cfi_endproc
  40              	.LFE256:
  41              		.size	rf_init, .-rf_init
  42              		.section	.text.rf_stop,"ax",%progbits
  43              		.align	2
  44              		.p2align 4,,15
  45              		.global	rf_stop
  46              		.thumb
  47              		.thumb_func
  48              		.type	rf_stop, %function
  49              	rf_stop:
  50              	.LFB257:
  51              		.loc 1 29 0
  52              		.cfi_startproc
  53              		@ args = 0, pretend = 0, frame = 0
  54              		@ frame_needed = 0, uses_anonymous_args = 0
  55              		@ link register save eliminated.
  56              		.loc 1 30 0
  57 0000 FFF7FEBF 		b	spi_sw_stop
ARM GAS  /var/folders/sv/kgmgr77579zbf78p2zlhkdfr0000gn/T//cczBHn7X.s 			page 2


  58              	.LVL1:
  59              		.cfi_endproc
  60              	.LFE257:
  61              		.size	rf_stop, .-rf_stop
  62              		.section	.text.rf_write_tx_payload,"ax",%progbits
  63              		.align	2
  64              		.p2align 4,,15
  65              		.global	rf_write_tx_payload
  66              		.thumb
  67              		.thumb_func
  68              		.type	rf_write_tx_payload, %function
  69              	rf_write_tx_payload:
  70              	.LFB266:
  71              		.loc 1 145 0
  72              		.cfi_startproc
  73              		@ args = 0, pretend = 0, frame = 8
  74              		@ frame_needed = 0, uses_anonymous_args = 0
  75              	.LVL2:
  76 0000 70B5     		push	{r4, r5, r6, lr}
  77              		.cfi_def_cfa_offset 16
  78              		.cfi_offset 4, -16
  79              		.cfi_offset 5, -12
  80              		.cfi_offset 6, -8
  81              		.cfi_offset 14, -4
  82 0002 82B0     		sub	sp, sp, #8
  83              		.cfi_def_cfa_offset 24
  84              		.loc 1 146 0
  85 0004 02AC     		add	r4, sp, #8
  86 0006 A023     		movs	r3, #160
  87 0008 04F8013D 		strb	r3, [r4, #-1]!
  88              		.loc 1 145 0
  89 000c 0546     		mov	r5, r0
  90 000e 0E46     		mov	r6, r1
  91              		.loc 1 147 0
  92 0010 FFF7FEFF 		bl	spi_sw_begin
  93              	.LVL3:
  94              		.loc 1 148 0
  95 0014 2146     		mov	r1, r4
  96 0016 0122     		movs	r2, #1
  97 0018 0020     		movs	r0, #0
  98 001a FFF7FEFF 		bl	spi_sw_transfer
  99              	.LVL4:
 100              		.loc 1 149 0
 101 001e 3246     		mov	r2, r6
 102 0020 2946     		mov	r1, r5
 103 0022 0020     		movs	r0, #0
 104 0024 FFF7FEFF 		bl	spi_sw_transfer
 105              	.LVL5:
 106              		.loc 1 150 0
 107 0028 FFF7FEFF 		bl	spi_sw_end
 108              	.LVL6:
 109              		.loc 1 152 0
 110 002c 02B0     		add	sp, sp, #8
 111              		.cfi_def_cfa_offset 16
 112              		@ sp needed
 113 002e 70BD     		pop	{r4, r5, r6, pc}
 114              		.cfi_endproc
ARM GAS  /var/folders/sv/kgmgr77579zbf78p2zlhkdfr0000gn/T//cczBHn7X.s 			page 3


 115              	.LFE266:
 116              		.size	rf_write_tx_payload, .-rf_write_tx_payload
 117              		.section	.text.rf_write_tx_payload_no_ack,"ax",%progbits
 118              		.align	2
 119              		.p2align 4,,15
 120              		.global	rf_write_tx_payload_no_ack
 121              		.thumb
 122              		.thumb_func
 123              		.type	rf_write_tx_payload_no_ack, %function
 124              	rf_write_tx_payload_no_ack:
 125              	.LFB267:
 126              		.loc 1 155 0
 127              		.cfi_startproc
 128              		@ args = 0, pretend = 0, frame = 8
 129              		@ frame_needed = 0, uses_anonymous_args = 0
 130              	.LVL7:
 131 0000 70B5     		push	{r4, r5, r6, lr}
 132              		.cfi_def_cfa_offset 16
 133              		.cfi_offset 4, -16
 134              		.cfi_offset 5, -12
 135              		.cfi_offset 6, -8
 136              		.cfi_offset 14, -4
 137 0002 82B0     		sub	sp, sp, #8
 138              		.cfi_def_cfa_offset 24
 139              		.loc 1 156 0
 140 0004 02AC     		add	r4, sp, #8
 141 0006 B023     		movs	r3, #176
 142 0008 04F8013D 		strb	r3, [r4, #-1]!
 143              		.loc 1 155 0
 144 000c 0546     		mov	r5, r0
 145 000e 0E46     		mov	r6, r1
 146              		.loc 1 157 0
 147 0010 FFF7FEFF 		bl	spi_sw_begin
 148              	.LVL8:
 149              		.loc 1 158 0
 150 0014 2146     		mov	r1, r4
 151 0016 0122     		movs	r2, #1
 152 0018 0020     		movs	r0, #0
 153 001a FFF7FEFF 		bl	spi_sw_transfer
 154              	.LVL9:
 155              		.loc 1 159 0
 156 001e 3246     		mov	r2, r6
 157 0020 2946     		mov	r1, r5
 158 0022 0020     		movs	r0, #0
 159 0024 FFF7FEFF 		bl	spi_sw_transfer
 160              	.LVL10:
 161              		.loc 1 160 0
 162 0028 FFF7FEFF 		bl	spi_sw_end
 163              	.LVL11:
 164              		.loc 1 162 0
 165 002c 02B0     		add	sp, sp, #8
 166              		.cfi_def_cfa_offset 16
 167              		@ sp needed
 168 002e 70BD     		pop	{r4, r5, r6, pc}
 169              		.cfi_endproc
 170              	.LFE267:
 171              		.size	rf_write_tx_payload_no_ack, .-rf_write_tx_payload_no_ack
ARM GAS  /var/folders/sv/kgmgr77579zbf78p2zlhkdfr0000gn/T//cczBHn7X.s 			page 4


 172              		.section	.text.rf_write_ack_payload,"ax",%progbits
 173              		.align	2
 174              		.p2align 4,,15
 175              		.global	rf_write_ack_payload
 176              		.thumb
 177              		.thumb_func
 178              		.type	rf_write_ack_payload, %function
 179              	rf_write_ack_payload:
 180              	.LFB268:
 181              		.loc 1 165 0
 182              		.cfi_startproc
 183              		@ args = 0, pretend = 0, frame = 8
 184              		@ frame_needed = 0, uses_anonymous_args = 0
 185              	.LVL12:
 186 0000 70B5     		push	{r4, r5, r6, lr}
 187              		.cfi_def_cfa_offset 16
 188              		.cfi_offset 4, -16
 189              		.cfi_offset 5, -12
 190              		.cfi_offset 6, -8
 191              		.cfi_offset 14, -4
 192 0002 82B0     		sub	sp, sp, #8
 193              		.cfi_def_cfa_offset 24
 194              		.loc 1 166 0
 195 0004 02AC     		add	r4, sp, #8
 196 0006 00F00700 		and	r0, r0, #7
 197              	.LVL13:
 198 000a 60F05700 		orn	r0, r0, #87
 199 000e 04F8010D 		strb	r0, [r4, #-1]!
 200              		.loc 1 165 0
 201 0012 0D46     		mov	r5, r1
 202 0014 1646     		mov	r6, r2
 203              		.loc 1 167 0
 204 0016 FFF7FEFF 		bl	spi_sw_begin
 205              	.LVL14:
 206              		.loc 1 168 0
 207 001a 2146     		mov	r1, r4
 208 001c 0122     		movs	r2, #1
 209 001e 0020     		movs	r0, #0
 210 0020 FFF7FEFF 		bl	spi_sw_transfer
 211              	.LVL15:
 212              		.loc 1 169 0
 213 0024 3246     		mov	r2, r6
 214 0026 2946     		mov	r1, r5
 215 0028 0020     		movs	r0, #0
 216 002a FFF7FEFF 		bl	spi_sw_transfer
 217              	.LVL16:
 218              		.loc 1 170 0
 219 002e FFF7FEFF 		bl	spi_sw_end
 220              	.LVL17:
 221              		.loc 1 172 0
 222 0032 02B0     		add	sp, sp, #8
 223              		.cfi_def_cfa_offset 16
 224              		@ sp needed
 225 0034 70BD     		pop	{r4, r5, r6, pc}
 226              		.cfi_endproc
 227              	.LFE268:
 228              		.size	rf_write_ack_payload, .-rf_write_ack_payload
ARM GAS  /var/folders/sv/kgmgr77579zbf78p2zlhkdfr0000gn/T//cczBHn7X.s 			page 5


 229 0036 00BF     		.section	.text.rf_read_rx_payload,"ax",%progbits
 230              		.align	2
 231              		.p2align 4,,15
 232              		.global	rf_read_rx_payload
 233              		.thumb
 234              		.thumb_func
 235              		.type	rf_read_rx_payload, %function
 236              	rf_read_rx_payload:
 237              	.LFB269:
 238              		.loc 1 175 0
 239              		.cfi_startproc
 240              		@ args = 0, pretend = 0, frame = 8
 241              		@ frame_needed = 0, uses_anonymous_args = 0
 242              	.LVL18:
 243 0000 70B5     		push	{r4, r5, r6, lr}
 244              		.cfi_def_cfa_offset 16
 245              		.cfi_offset 4, -16
 246              		.cfi_offset 5, -12
 247              		.cfi_offset 6, -8
 248              		.cfi_offset 14, -4
 249 0002 82B0     		sub	sp, sp, #8
 250              		.cfi_def_cfa_offset 24
 251              		.loc 1 176 0
 252 0004 02AC     		add	r4, sp, #8
 253 0006 6123     		movs	r3, #97
 254 0008 04F8013D 		strb	r3, [r4, #-1]!
 255              		.loc 1 175 0
 256 000c 0546     		mov	r5, r0
 257 000e 0E46     		mov	r6, r1
 258              		.loc 1 177 0
 259 0010 FFF7FEFF 		bl	spi_sw_begin
 260              	.LVL19:
 261              		.loc 1 178 0
 262 0014 2146     		mov	r1, r4
 263 0016 0122     		movs	r2, #1
 264 0018 0020     		movs	r0, #0
 265 001a FFF7FEFF 		bl	spi_sw_transfer
 266              	.LVL20:
 267              		.loc 1 179 0
 268 001e 3246     		mov	r2, r6
 269 0020 2846     		mov	r0, r5
 270 0022 0021     		movs	r1, #0
 271 0024 FFF7FEFF 		bl	spi_sw_transfer
 272              	.LVL21:
 273              		.loc 1 180 0
 274 0028 FFF7FEFF 		bl	spi_sw_end
 275              	.LVL22:
 276              		.loc 1 182 0
 277 002c 02B0     		add	sp, sp, #8
 278              		.cfi_def_cfa_offset 16
 279              		@ sp needed
 280 002e 70BD     		pop	{r4, r5, r6, pc}
 281              		.cfi_endproc
 282              	.LFE269:
 283              		.size	rf_read_rx_payload, .-rf_read_rx_payload
 284              		.section	.text.rf_flush_tx,"ax",%progbits
 285              		.align	2
ARM GAS  /var/folders/sv/kgmgr77579zbf78p2zlhkdfr0000gn/T//cczBHn7X.s 			page 6


 286              		.p2align 4,,15
 287              		.global	rf_flush_tx
 288              		.thumb
 289              		.thumb_func
 290              		.type	rf_flush_tx, %function
 291              	rf_flush_tx:
 292              	.LFB281:
 293              		.loc 1 272 0
 294              		.cfi_startproc
 295              		@ args = 0, pretend = 0, frame = 8
 296              		@ frame_needed = 0, uses_anonymous_args = 0
 297 0000 10B5     		push	{r4, lr}
 298              		.cfi_def_cfa_offset 8
 299              		.cfi_offset 4, -8
 300              		.cfi_offset 14, -4
 301 0002 82B0     		sub	sp, sp, #8
 302              		.cfi_def_cfa_offset 16
 303              		.loc 1 273 0
 304 0004 02AC     		add	r4, sp, #8
 305 0006 E123     		movs	r3, #225
 306 0008 04F8013D 		strb	r3, [r4, #-1]!
 307              		.loc 1 274 0
 308 000c FFF7FEFF 		bl	spi_sw_begin
 309              	.LVL23:
 310              		.loc 1 275 0
 311 0010 2146     		mov	r1, r4
 312 0012 0122     		movs	r2, #1
 313 0014 0020     		movs	r0, #0
 314 0016 FFF7FEFF 		bl	spi_sw_transfer
 315              	.LVL24:
 316              		.loc 1 276 0
 317 001a FFF7FEFF 		bl	spi_sw_end
 318              	.LVL25:
 319              		.loc 1 277 0
 320 001e 02B0     		add	sp, sp, #8
 321              		.cfi_def_cfa_offset 8
 322              		@ sp needed
 323 0020 10BD     		pop	{r4, pc}
 324              		.cfi_endproc
 325              	.LFE281:
 326              		.size	rf_flush_tx, .-rf_flush_tx
 327 0022 00BF     		.section	.text.rf_flush_rx,"ax",%progbits
 328              		.align	2
 329              		.p2align 4,,15
 330              		.global	rf_flush_rx
 331              		.thumb
 332              		.thumb_func
 333              		.type	rf_flush_rx, %function
 334              	rf_flush_rx:
 335              	.LFB282:
 336              		.loc 1 279 0
 337              		.cfi_startproc
 338              		@ args = 0, pretend = 0, frame = 8
 339              		@ frame_needed = 0, uses_anonymous_args = 0
 340 0000 10B5     		push	{r4, lr}
 341              		.cfi_def_cfa_offset 8
 342              		.cfi_offset 4, -8
ARM GAS  /var/folders/sv/kgmgr77579zbf78p2zlhkdfr0000gn/T//cczBHn7X.s 			page 7


 343              		.cfi_offset 14, -4
 344 0002 82B0     		sub	sp, sp, #8
 345              		.cfi_def_cfa_offset 16
 346              		.loc 1 280 0
 347 0004 02AC     		add	r4, sp, #8
 348 0006 E223     		movs	r3, #226
 349 0008 04F8013D 		strb	r3, [r4, #-1]!
 350              		.loc 1 281 0
 351 000c FFF7FEFF 		bl	spi_sw_begin
 352              	.LVL26:
 353              		.loc 1 282 0
 354 0010 2146     		mov	r1, r4
 355 0012 0122     		movs	r2, #1
 356 0014 0020     		movs	r0, #0
 357 0016 FFF7FEFF 		bl	spi_sw_transfer
 358              	.LVL27:
 359              		.loc 1 283 0
 360 001a FFF7FEFF 		bl	spi_sw_end
 361              	.LVL28:
 362              		.loc 1 284 0
 363 001e 02B0     		add	sp, sp, #8
 364              		.cfi_def_cfa_offset 8
 365              		@ sp needed
 366 0020 10BD     		pop	{r4, pc}
 367              		.cfi_endproc
 368              	.LFE282:
 369              		.size	rf_flush_rx, .-rf_flush_rx
 370 0022 00BF     		.section	.text.rf_flush_all,"ax",%progbits
 371              		.align	2
 372              		.p2align 4,,15
 373              		.global	rf_flush_all
 374              		.thumb
 375              		.thumb_func
 376              		.type	rf_flush_all, %function
 377              	rf_flush_all:
 378              	.LFB283:
 379              		.loc 1 286 0
 380              		.cfi_startproc
 381              		@ args = 0, pretend = 0, frame = 0
 382              		@ frame_needed = 0, uses_anonymous_args = 0
 383 0000 08B5     		push	{r3, lr}
 384              		.cfi_def_cfa_offset 8
 385              		.cfi_offset 3, -8
 386              		.cfi_offset 14, -4
 387              		.loc 1 287 0
 388 0002 FFF7FEFF 		bl	rf_flush_rx
 389              	.LVL29:
 390              		.loc 1 289 0
 391 0006 BDE80840 		pop	{r3, lr}
 392              		.cfi_restore 14
 393              		.cfi_restore 3
 394              		.cfi_def_cfa_offset 0
 395              		.loc 1 288 0
 396 000a FFF7FEBF 		b	rf_flush_tx
 397              	.LVL30:
 398              		.cfi_endproc
 399              	.LFE283:
ARM GAS  /var/folders/sv/kgmgr77579zbf78p2zlhkdfr0000gn/T//cczBHn7X.s 			page 8


 400              		.size	rf_flush_all, .-rf_flush_all
 401 000e 00BF     		.section	.text.rf_get_payload_width,"ax",%progbits
 402              		.align	2
 403              		.p2align 4,,15
 404              		.global	rf_get_payload_width
 405              		.thumb
 406              		.thumb_func
 407              		.type	rf_get_payload_width, %function
 408              	rf_get_payload_width:
 409              	.LFB288:
 410              		.loc 1 307 0
 411              		.cfi_startproc
 412              		@ args = 0, pretend = 0, frame = 8
 413              		@ frame_needed = 0, uses_anonymous_args = 0
 414 0000 10B5     		push	{r4, lr}
 415              		.cfi_def_cfa_offset 8
 416              		.cfi_offset 4, -8
 417              		.cfi_offset 14, -4
 418 0002 82B0     		sub	sp, sp, #8
 419              		.cfi_def_cfa_offset 16
 420              		.loc 1 309 0
 421 0004 02AC     		add	r4, sp, #8
 422 0006 6023     		movs	r3, #96
 423 0008 04F8013D 		strb	r3, [r4, #-1]!
 424              		.loc 1 310 0
 425 000c FFF7FEFF 		bl	spi_sw_begin
 426              	.LVL31:
 427              		.loc 1 311 0
 428 0010 2146     		mov	r1, r4
 429 0012 0122     		movs	r2, #1
 430 0014 0020     		movs	r0, #0
 431 0016 FFF7FEFF 		bl	spi_sw_transfer
 432              	.LVL32:
 433              		.loc 1 312 0
 434 001a 0DF10600 		add	r0, sp, #6
 435 001e 0122     		movs	r2, #1
 436 0020 0021     		movs	r1, #0
 437 0022 FFF7FEFF 		bl	spi_sw_transfer
 438              	.LVL33:
 439              		.loc 1 313 0
 440 0026 FFF7FEFF 		bl	spi_sw_end
 441              	.LVL34:
 442              		.loc 1 315 0
 443 002a 9DF80600 		ldrb	r0, [sp, #6]	@ zero_extendqisi2
 444 002e 02B0     		add	sp, sp, #8
 445              		.cfi_def_cfa_offset 8
 446              		@ sp needed
 447 0030 10BD     		pop	{r4, pc}
 448              		.cfi_endproc
 449              	.LFE288:
 450              		.size	rf_get_payload_width, .-rf_get_payload_width
 451 0032 00BF     		.section	.text.rf_status,"ax",%progbits
 452              		.align	2
 453              		.p2align 4,,15
 454              		.global	rf_status
 455              		.thumb
 456              		.thumb_func
ARM GAS  /var/folders/sv/kgmgr77579zbf78p2zlhkdfr0000gn/T//cczBHn7X.s 			page 9


 457              		.type	rf_status, %function
 458              	rf_status:
 459              	.LFB289:
 460              		.loc 1 317 0
 461              		.cfi_startproc
 462              		@ args = 0, pretend = 0, frame = 8
 463              		@ frame_needed = 0, uses_anonymous_args = 0
 464 0000 10B5     		push	{r4, lr}
 465              		.cfi_def_cfa_offset 8
 466              		.cfi_offset 4, -8
 467              		.cfi_offset 14, -4
 468 0002 82B0     		sub	sp, sp, #8
 469              		.cfi_def_cfa_offset 16
 470              		.loc 1 318 0
 471 0004 02AC     		add	r4, sp, #8
 472 0006 FF23     		movs	r3, #255
 473 0008 04F8013D 		strb	r3, [r4, #-1]!
 474              		.loc 1 319 0
 475 000c FFF7FEFF 		bl	spi_sw_begin
 476              	.LVL35:
 477              		.loc 1 320 0
 478 0010 2046     		mov	r0, r4
 479 0012 2146     		mov	r1, r4
 480 0014 0122     		movs	r2, #1
 481 0016 FFF7FEFF 		bl	spi_sw_transfer
 482              	.LVL36:
 483              		.loc 1 321 0
 484 001a FFF7FEFF 		bl	spi_sw_end
 485              	.LVL37:
 486              		.loc 1 323 0
 487 001e 9DF80700 		ldrb	r0, [sp, #7]	@ zero_extendqisi2
 488 0022 02B0     		add	sp, sp, #8
 489              		.cfi_def_cfa_offset 8
 490              		@ sp needed
 491 0024 10BD     		pop	{r4, pc}
 492              		.cfi_endproc
 493              	.LFE289:
 494              		.size	rf_status, .-rf_status
 495 0026 00BF     		.section	.text.rf_write_reg,"ax",%progbits
 496              		.align	2
 497              		.p2align 4,,15
 498              		.global	rf_write_reg
 499              		.thumb
 500              		.thumb_func
 501              		.type	rf_write_reg, %function
 502              	rf_write_reg:
 503              	.LFB292:
 504              		.loc 1 333 0
 505              		.cfi_startproc
 506              		@ args = 0, pretend = 0, frame = 8
 507              		@ frame_needed = 0, uses_anonymous_args = 0
 508              	.LVL38:
 509 0000 70B5     		push	{r4, r5, r6, lr}
 510              		.cfi_def_cfa_offset 16
 511              		.cfi_offset 4, -16
 512              		.cfi_offset 5, -12
 513              		.cfi_offset 6, -8
ARM GAS  /var/folders/sv/kgmgr77579zbf78p2zlhkdfr0000gn/T//cczBHn7X.s 			page 10


 514              		.cfi_offset 14, -4
 515 0002 82B0     		sub	sp, sp, #8
 516              		.cfi_def_cfa_offset 24
 517              		.loc 1 334 0
 518 0004 02AC     		add	r4, sp, #8
 519 0006 40F02000 		orr	r0, r0, #32
 520              	.LVL39:
 521 000a 04F8010D 		strb	r0, [r4, #-1]!
 522              		.loc 1 333 0
 523 000e 0D46     		mov	r5, r1
 524 0010 1646     		mov	r6, r2
 525              		.loc 1 336 0
 526 0012 FFF7FEFF 		bl	spi_sw_begin
 527              	.LVL40:
 528              		.loc 1 337 0
 529 0016 2146     		mov	r1, r4
 530 0018 0122     		movs	r2, #1
 531 001a 0020     		movs	r0, #0
 532 001c FFF7FEFF 		bl	spi_sw_transfer
 533              	.LVL41:
 534              		.loc 1 338 0
 535 0020 3246     		mov	r2, r6
 536 0022 2946     		mov	r1, r5
 537 0024 0020     		movs	r0, #0
 538 0026 FFF7FEFF 		bl	spi_sw_transfer
 539              	.LVL42:
 540              		.loc 1 339 0
 541 002a FFF7FEFF 		bl	spi_sw_end
 542              	.LVL43:
 543              		.loc 1 340 0
 544 002e 02B0     		add	sp, sp, #8
 545              		.cfi_def_cfa_offset 16
 546              		@ sp needed
 547 0030 70BD     		pop	{r4, r5, r6, pc}
 548              		.cfi_endproc
 549              	.LFE292:
 550              		.size	rf_write_reg, .-rf_write_reg
 551 0032 00BF     		.section	.text.rf_set_rx_addr,"ax",%progbits
 552              		.align	2
 553              		.p2align 4,,15
 554              		.global	rf_set_rx_addr
 555              		.thumb
 556              		.thumb_func
 557              		.type	rf_set_rx_addr, %function
 558              	rf_set_rx_addr:
 559              	.LFB264:
 560              		.loc 1 137 0
 561              		.cfi_startproc
 562              		@ args = 0, pretend = 0, frame = 0
 563              		@ frame_needed = 0, uses_anonymous_args = 0
 564              		@ link register save eliminated.
 565              	.LVL44:
 566              		.loc 1 138 0
 567 0000 0A30     		adds	r0, r0, #10
 568              	.LVL45:
 569 0002 FFF7FEBF 		b	rf_write_reg
 570              	.LVL46:
ARM GAS  /var/folders/sv/kgmgr77579zbf78p2zlhkdfr0000gn/T//cczBHn7X.s 			page 11


 571              		.cfi_endproc
 572              	.LFE264:
 573              		.size	rf_set_rx_addr, .-rf_set_rx_addr
 574 0006 00BF     		.section	.text.rf_set_tx_addr,"ax",%progbits
 575              		.align	2
 576              		.p2align 4,,15
 577              		.global	rf_set_tx_addr
 578              		.thumb
 579              		.thumb_func
 580              		.type	rf_set_tx_addr, %function
 581              	rf_set_tx_addr:
 582              	.LFB265:
 583              		.loc 1 141 0
 584              		.cfi_startproc
 585              		@ args = 0, pretend = 0, frame = 0
 586              		@ frame_needed = 0, uses_anonymous_args = 0
 587              		@ link register save eliminated.
 588              	.LVL47:
 589              		.loc 1 142 0
 590 0000 0A46     		mov	r2, r1
 591 0002 0146     		mov	r1, r0
 592              	.LVL48:
 593 0004 1020     		movs	r0, #16
 594              	.LVL49:
 595 0006 FFF7FEBF 		b	rf_write_reg
 596              	.LVL50:
 597              		.cfi_endproc
 598              	.LFE265:
 599              		.size	rf_set_tx_addr, .-rf_set_tx_addr
 600              		.section	.text.rf_set_address_width,"ax",%progbits
 601              		.align	2
 602              		.p2align 4,,15
 603              		.global	rf_set_address_width
 604              		.thumb
 605              		.thumb_func
 606              		.type	rf_set_address_width, %function
 607              	rf_set_address_width:
 608              	.LFB260:
 609              		.loc 1 82 0
 610              		.cfi_startproc
 611              		@ args = 0, pretend = 0, frame = 8
 612              		@ frame_needed = 0, uses_anonymous_args = 0
 613              	.LVL51:
 614 0000 00B5     		push	{lr}
 615              		.cfi_def_cfa_offset 4
 616              		.cfi_offset 14, -4
 617 0002 83B0     		sub	sp, sp, #12
 618              		.cfi_def_cfa_offset 16
 619 0004 02A9     		add	r1, sp, #8
 620 0006 0130     		adds	r0, r0, #1
 621              	.LVL52:
 622 0008 01F8010D 		strb	r0, [r1, #-1]!
 623              	.LVL53:
 624              	.LBB74:
 625              	.LBB75:
 626              		.loc 1 343 0
 627 000c 0122     		movs	r2, #1
ARM GAS  /var/folders/sv/kgmgr77579zbf78p2zlhkdfr0000gn/T//cczBHn7X.s 			page 12


 628 000e 0320     		movs	r0, #3
 629 0010 FFF7FEFF 		bl	rf_write_reg
 630              	.LVL54:
 631              	.LBE75:
 632              	.LBE74:
 633              		.loc 1 84 0
 634 0014 03B0     		add	sp, sp, #12
 635              		.cfi_def_cfa_offset 4
 636              		@ sp needed
 637 0016 5DF804FB 		ldr	pc, [sp], #4
 638              		.cfi_endproc
 639              	.LFE260:
 640              		.size	rf_set_address_width, .-rf_set_address_width
 641 001a 00BF     		.section	.text.rf_set_frequency,"ax",%progbits
 642              		.align	2
 643              		.p2align 4,,15
 644              		.global	rf_set_frequency
 645              		.thumb
 646              		.thumb_func
 647              		.type	rf_set_frequency, %function
 648              	rf_set_frequency:
 649              	.LFB270:
 650              		.loc 1 185 0
 651              		.cfi_startproc
 652              		@ args = 0, pretend = 0, frame = 8
 653              		@ frame_needed = 0, uses_anonymous_args = 0
 654              	.LVL55:
 655 0000 00B5     		push	{lr}
 656              		.cfi_def_cfa_offset 4
 657              		.cfi_offset 14, -4
 658 0002 83B0     		sub	sp, sp, #12
 659              		.cfi_def_cfa_offset 16
 660 0004 02A9     		add	r1, sp, #8
 661 0006 6038     		subs	r0, r0, #96
 662              	.LVL56:
 663 0008 00F07F00 		and	r0, r0, #127
 664              	.LVL57:
 665 000c 01F8010D 		strb	r0, [r1, #-1]!
 666              	.LVL58:
 667              	.LBB76:
 668              	.LBB77:
 669              		.loc 1 343 0
 670 0010 0122     		movs	r2, #1
 671 0012 0520     		movs	r0, #5
 672 0014 FFF7FEFF 		bl	rf_write_reg
 673              	.LVL59:
 674              	.LBE77:
 675              	.LBE76:
 676              		.loc 1 188 0
 677 0018 03B0     		add	sp, sp, #12
 678              		.cfi_def_cfa_offset 4
 679              		@ sp needed
 680 001a 5DF804FB 		ldr	pc, [sp], #4
 681              		.cfi_endproc
 682              	.LFE270:
 683              		.size	rf_set_frequency, .-rf_set_frequency
 684 001e 00BF     		.section	.text.rf_clear_irq,"ax",%progbits
ARM GAS  /var/folders/sv/kgmgr77579zbf78p2zlhkdfr0000gn/T//cczBHn7X.s 			page 13


 685              		.align	2
 686              		.p2align 4,,15
 687              		.global	rf_clear_irq
 688              		.thumb
 689              		.thumb_func
 690              		.type	rf_clear_irq, %function
 691              	rf_clear_irq:
 692              	.LFB284:
 693              		.loc 1 291 0
 694              		.cfi_startproc
 695              		@ args = 0, pretend = 0, frame = 8
 696              		@ frame_needed = 0, uses_anonymous_args = 0
 697              	.LVL60:
 698 0000 00B5     		push	{lr}
 699              		.cfi_def_cfa_offset 4
 700              		.cfi_offset 14, -4
 701 0002 83B0     		sub	sp, sp, #12
 702              		.cfi_def_cfa_offset 16
 703 0004 02A9     		add	r1, sp, #8
 704 0006 7023     		movs	r3, #112
 705 0008 01F8013D 		strb	r3, [r1, #-1]!
 706              	.LVL61:
 707              	.LBB78:
 708              	.LBB79:
 709              		.loc 1 343 0
 710 000c 0122     		movs	r2, #1
 711 000e 0720     		movs	r0, #7
 712 0010 FFF7FEFF 		bl	rf_write_reg
 713              	.LVL62:
 714              	.LBE79:
 715              	.LBE78:
 716              		.loc 1 293 0
 717 0014 03B0     		add	sp, sp, #12
 718              		.cfi_def_cfa_offset 4
 719              		@ sp needed
 720 0016 5DF804FB 		ldr	pc, [sp], #4
 721              		.cfi_endproc
 722              	.LFE284:
 723              		.size	rf_clear_irq, .-rf_clear_irq
 724 001a 00BF     		.section	.text.rf_clear_rx_irq,"ax",%progbits
 725              		.align	2
 726              		.p2align 4,,15
 727              		.global	rf_clear_rx_irq
 728              		.thumb
 729              		.thumb_func
 730              		.type	rf_clear_rx_irq, %function
 731              	rf_clear_rx_irq:
 732              	.LFB285:
 733              		.loc 1 295 0
 734              		.cfi_startproc
 735              		@ args = 0, pretend = 0, frame = 8
 736              		@ frame_needed = 0, uses_anonymous_args = 0
 737              	.LVL63:
 738 0000 00B5     		push	{lr}
 739              		.cfi_def_cfa_offset 4
 740              		.cfi_offset 14, -4
 741 0002 83B0     		sub	sp, sp, #12
ARM GAS  /var/folders/sv/kgmgr77579zbf78p2zlhkdfr0000gn/T//cczBHn7X.s 			page 14


 742              		.cfi_def_cfa_offset 16
 743 0004 02A9     		add	r1, sp, #8
 744 0006 4023     		movs	r3, #64
 745 0008 01F8013D 		strb	r3, [r1, #-1]!
 746              	.LVL64:
 747              	.LBB80:
 748              	.LBB81:
 749              		.loc 1 343 0
 750 000c 0122     		movs	r2, #1
 751 000e 0720     		movs	r0, #7
 752 0010 FFF7FEFF 		bl	rf_write_reg
 753              	.LVL65:
 754              	.LBE81:
 755              	.LBE80:
 756              		.loc 1 297 0
 757 0014 03B0     		add	sp, sp, #12
 758              		.cfi_def_cfa_offset 4
 759              		@ sp needed
 760 0016 5DF804FB 		ldr	pc, [sp], #4
 761              		.cfi_endproc
 762              	.LFE285:
 763              		.size	rf_clear_rx_irq, .-rf_clear_rx_irq
 764 001a 00BF     		.section	.text.rf_clear_tx_irq,"ax",%progbits
 765              		.align	2
 766              		.p2align 4,,15
 767              		.global	rf_clear_tx_irq
 768              		.thumb
 769              		.thumb_func
 770              		.type	rf_clear_tx_irq, %function
 771              	rf_clear_tx_irq:
 772              	.LFB286:
 773              		.loc 1 299 0
 774              		.cfi_startproc
 775              		@ args = 0, pretend = 0, frame = 8
 776              		@ frame_needed = 0, uses_anonymous_args = 0
 777              	.LVL66:
 778 0000 00B5     		push	{lr}
 779              		.cfi_def_cfa_offset 4
 780              		.cfi_offset 14, -4
 781 0002 83B0     		sub	sp, sp, #12
 782              		.cfi_def_cfa_offset 16
 783 0004 02A9     		add	r1, sp, #8
 784 0006 2023     		movs	r3, #32
 785 0008 01F8013D 		strb	r3, [r1, #-1]!
 786              	.LVL67:
 787              	.LBB82:
 788              	.LBB83:
 789              		.loc 1 343 0
 790 000c 0122     		movs	r2, #1
 791 000e 0720     		movs	r0, #7
 792 0010 FFF7FEFF 		bl	rf_write_reg
 793              	.LVL68:
 794              	.LBE83:
 795              	.LBE82:
 796              		.loc 1 301 0
 797 0014 03B0     		add	sp, sp, #12
 798              		.cfi_def_cfa_offset 4
ARM GAS  /var/folders/sv/kgmgr77579zbf78p2zlhkdfr0000gn/T//cczBHn7X.s 			page 15


 799              		@ sp needed
 800 0016 5DF804FB 		ldr	pc, [sp], #4
 801              		.cfi_endproc
 802              	.LFE286:
 803              		.size	rf_clear_tx_irq, .-rf_clear_tx_irq
 804 001a 00BF     		.section	.text.rf_clear_maxrt_irq,"ax",%progbits
 805              		.align	2
 806              		.p2align 4,,15
 807              		.global	rf_clear_maxrt_irq
 808              		.thumb
 809              		.thumb_func
 810              		.type	rf_clear_maxrt_irq, %function
 811              	rf_clear_maxrt_irq:
 812              	.LFB287:
 813              		.loc 1 303 0
 814              		.cfi_startproc
 815              		@ args = 0, pretend = 0, frame = 8
 816              		@ frame_needed = 0, uses_anonymous_args = 0
 817              	.LVL69:
 818 0000 00B5     		push	{lr}
 819              		.cfi_def_cfa_offset 4
 820              		.cfi_offset 14, -4
 821 0002 83B0     		sub	sp, sp, #12
 822              		.cfi_def_cfa_offset 16
 823 0004 02A9     		add	r1, sp, #8
 824 0006 1023     		movs	r3, #16
 825 0008 01F8013D 		strb	r3, [r1, #-1]!
 826              	.LVL70:
 827              	.LBB84:
 828              	.LBB85:
 829              		.loc 1 343 0
 830 000c 0122     		movs	r2, #1
 831 000e 0720     		movs	r0, #7
 832 0010 FFF7FEFF 		bl	rf_write_reg
 833              	.LVL71:
 834              	.LBE85:
 835              	.LBE84:
 836              		.loc 1 305 0
 837 0014 03B0     		add	sp, sp, #12
 838              		.cfi_def_cfa_offset 4
 839              		@ sp needed
 840 0016 5DF804FB 		ldr	pc, [sp], #4
 841              		.cfi_endproc
 842              	.LFE287:
 843              		.size	rf_clear_maxrt_irq, .-rf_clear_maxrt_irq
 844 001a 00BF     		.section	.text.rf_write_reg_byte,"ax",%progbits
 845              		.align	2
 846              		.p2align 4,,15
 847              		.global	rf_write_reg_byte
 848              		.thumb
 849              		.thumb_func
 850              		.type	rf_write_reg_byte, %function
 851              	rf_write_reg_byte:
 852              	.LFB293:
 853              		.loc 1 342 0
 854              		.cfi_startproc
 855              		@ args = 0, pretend = 0, frame = 8
ARM GAS  /var/folders/sv/kgmgr77579zbf78p2zlhkdfr0000gn/T//cczBHn7X.s 			page 16


 856              		@ frame_needed = 0, uses_anonymous_args = 0
 857              	.LVL72:
 858 0000 00B5     		push	{lr}
 859              		.cfi_def_cfa_offset 4
 860              		.cfi_offset 14, -4
 861 0002 83B0     		sub	sp, sp, #12
 862              		.cfi_def_cfa_offset 16
 863              		.loc 1 342 0
 864 0004 02AB     		add	r3, sp, #8
 865              		.loc 1 343 0
 866 0006 0122     		movs	r2, #1
 867              		.loc 1 342 0
 868 0008 03F8011D 		strb	r1, [r3, #-1]!
 869              		.loc 1 343 0
 870 000c 1946     		mov	r1, r3
 871              	.LVL73:
 872 000e FFF7FEFF 		bl	rf_write_reg
 873              	.LVL74:
 874              		.loc 1 344 0
 875 0012 03B0     		add	sp, sp, #12
 876              		.cfi_def_cfa_offset 4
 877              		@ sp needed
 878 0014 5DF804FB 		ldr	pc, [sp], #4
 879              		.cfi_endproc
 880              	.LFE293:
 881              		.size	rf_write_reg_byte, .-rf_write_reg_byte
 882              		.section	.text.rf_read_reg,"ax",%progbits
 883              		.align	2
 884              		.p2align 4,,15
 885              		.global	rf_read_reg
 886              		.thumb
 887              		.thumb_func
 888              		.type	rf_read_reg, %function
 889              	rf_read_reg:
 890              	.LFB294:
 891              		.loc 1 346 0
 892              		.cfi_startproc
 893              		@ args = 0, pretend = 0, frame = 8
 894              		@ frame_needed = 0, uses_anonymous_args = 0
 895              	.LVL75:
 896 0000 70B5     		push	{r4, r5, r6, lr}
 897              		.cfi_def_cfa_offset 16
 898              		.cfi_offset 4, -16
 899              		.cfi_offset 5, -12
 900              		.cfi_offset 6, -8
 901              		.cfi_offset 14, -4
 902 0002 82B0     		sub	sp, sp, #8
 903              		.cfi_def_cfa_offset 24
 904              		.loc 1 347 0
 905 0004 02AC     		add	r4, sp, #8
 906              		.loc 1 346 0
 907 0006 0D46     		mov	r5, r1
 908              		.loc 1 347 0
 909 0008 04F8010D 		strb	r0, [r4, #-1]!
 910              		.loc 1 346 0
 911 000c 1646     		mov	r6, r2
 912              		.loc 1 349 0
ARM GAS  /var/folders/sv/kgmgr77579zbf78p2zlhkdfr0000gn/T//cczBHn7X.s 			page 17


 913 000e FFF7FEFF 		bl	spi_sw_begin
 914              	.LVL76:
 915              		.loc 1 350 0
 916 0012 2146     		mov	r1, r4
 917 0014 0122     		movs	r2, #1
 918 0016 0020     		movs	r0, #0
 919 0018 FFF7FEFF 		bl	spi_sw_transfer
 920              	.LVL77:
 921              		.loc 1 351 0
 922 001c 3246     		mov	r2, r6
 923 001e 2846     		mov	r0, r5
 924 0020 0021     		movs	r1, #0
 925 0022 FFF7FEFF 		bl	spi_sw_transfer
 926              	.LVL78:
 927              		.loc 1 352 0
 928 0026 FFF7FEFF 		bl	spi_sw_end
 929              	.LVL79:
 930              		.loc 1 353 0
 931 002a 02B0     		add	sp, sp, #8
 932              		.cfi_def_cfa_offset 16
 933              		@ sp needed
 934 002c 70BD     		pop	{r4, r5, r6, pc}
 935              		.cfi_endproc
 936              	.LFE294:
 937              		.size	rf_read_reg, .-rf_read_reg
 938 002e 00BF     		.section	.text.rf_set_speed,"ax",%progbits
 939              		.align	2
 940              		.p2align 4,,15
 941              		.global	rf_set_speed
 942              		.thumb
 943              		.thumb_func
 944              		.type	rf_set_speed, %function
 945              	rf_set_speed:
 946              	.LFB258:
 947              		.loc 1 33 0
 948              		.cfi_startproc
 949              		@ args = 0, pretend = 0, frame = 8
 950              		@ frame_needed = 0, uses_anonymous_args = 0
 951              	.LVL80:
 952 0000 10B5     		push	{r4, lr}
 953              		.cfi_def_cfa_offset 8
 954              		.cfi_offset 4, -8
 955              		.cfi_offset 14, -4
 956 0002 82B0     		sub	sp, sp, #8
 957              		.cfi_def_cfa_offset 16
 958              	.LBB86:
 959              	.LBB87:
 960              		.loc 1 357 0
 961 0004 0122     		movs	r2, #1
 962              	.LBE87:
 963              	.LBE86:
 964              		.loc 1 33 0
 965 0006 0446     		mov	r4, r0
 966              	.LBB89:
 967              	.LBB88:
 968              		.loc 1 357 0
 969 0008 0DF10701 		add	r1, sp, #7
ARM GAS  /var/folders/sv/kgmgr77579zbf78p2zlhkdfr0000gn/T//cczBHn7X.s 			page 18


 970 000c 0620     		movs	r0, #6
 971              	.LVL81:
 972 000e FFF7FEFF 		bl	rf_read_reg
 973              	.LVL82:
 974              		.loc 1 358 0
 975 0012 9DF80720 		ldrb	r2, [sp, #7]	@ zero_extendqisi2
 976              	.LVL83:
 977              	.LBE88:
 978              	.LBE89:
 979              		.loc 1 37 0
 980 0016 02F0D703 		and	r3, r2, #215
 981              	.LVL84:
 982              		.loc 1 39 0
 983 001a 84B1     		cbz	r4, .L43
 984 001c 022C     		cmp	r4, #2
 985 001e 0BD0     		beq	.L44
 986              	.L42:
 987              		.loc 1 55 0
 988 0020 9342     		cmp	r3, r2
 989 0022 07D0     		beq	.L41
 990              	.LVL85:
 991              	.LBB90:
 992              	.LBB91:
 993              		.loc 1 343 0
 994 0024 0DF10701 		add	r1, sp, #7
 995 0028 0122     		movs	r2, #1
 996 002a 0620     		movs	r0, #6
 997 002c 8DF80730 		strb	r3, [sp, #7]
 998              	.LVL86:
 999 0030 FFF7FEFF 		bl	rf_write_reg
 1000              	.LVL87:
 1001              	.L41:
 1002              	.LBE91:
 1003              	.LBE90:
 1004              		.loc 1 58 0
 1005 0034 02B0     		add	sp, sp, #8
 1006              		.cfi_remember_state
 1007              		.cfi_def_cfa_offset 8
 1008              		@ sp needed
 1009 0036 10BD     		pop	{r4, pc}
 1010              	.LVL88:
 1011              	.L44:
 1012              		.cfi_restore_state
 1013              		.loc 1 48 0
 1014 0038 43F00803 		orr	r3, r3, #8
 1015              	.LVL89:
 1016              		.loc 1 49 0
 1017 003c F0E7     		b	.L42
 1018              	.L43:
 1019              		.loc 1 41 0
 1020 003e 43F02003 		orr	r3, r3, #32
 1021              	.LVL90:
 1022              		.loc 1 42 0
 1023 0042 EDE7     		b	.L42
 1024              		.cfi_endproc
 1025              	.LFE258:
 1026              		.size	rf_set_speed, .-rf_set_speed
ARM GAS  /var/folders/sv/kgmgr77579zbf78p2zlhkdfr0000gn/T//cczBHn7X.s 			page 19


 1027              		.section	.text.rf_set_power,"ax",%progbits
 1028              		.align	2
 1029              		.p2align 4,,15
 1030              		.global	rf_set_power
 1031              		.thumb
 1032              		.thumb_func
 1033              		.type	rf_set_power, %function
 1034              	rf_set_power:
 1035              	.LFB259:
 1036              		.loc 1 60 0
 1037              		.cfi_startproc
 1038              		@ args = 0, pretend = 0, frame = 8
 1039              		@ frame_needed = 0, uses_anonymous_args = 0
 1040              	.LVL91:
 1041              		.loc 1 61 0
 1042 0000 0428     		cmp	r0, #4
 1043 0002 20D0     		beq	.L54
 1044              	.LVL92:
 1045              		.loc 1 60 0
 1046 0004 10B5     		push	{r4, lr}
 1047              		.cfi_def_cfa_offset 8
 1048              		.cfi_offset 4, -8
 1049              		.cfi_offset 14, -4
 1050 0006 82B0     		sub	sp, sp, #8
 1051              		.cfi_def_cfa_offset 16
 1052 0008 0446     		mov	r4, r0
 1053              	.LBB92:
 1054              	.LBB93:
 1055              		.loc 1 357 0
 1056 000a 0122     		movs	r2, #1
 1057 000c 0DF10701 		add	r1, sp, #7
 1058 0010 0620     		movs	r0, #6
 1059              	.LVL93:
 1060 0012 FFF7FEFF 		bl	rf_read_reg
 1061              	.LVL94:
 1062              		.loc 1 358 0
 1063 0016 9DF80720 		ldrb	r2, [sp, #7]	@ zero_extendqisi2
 1064              	.LVL95:
 1065              	.LBE93:
 1066              	.LBE92:
 1067              		.loc 1 69 0
 1068 001a 22F00703 		bic	r3, r2, #7
 1069 001e 43EA4403 		orr	r3, r3, r4, lsl #1
 1070 0022 03F0FE03 		and	r3, r3, #254
 1071              	.LVL96:
 1072              		.loc 1 73 0
 1073 0026 032C     		cmp	r4, #3
 1074              		.loc 1 74 0
 1075 0028 08BF     		it	eq
 1076 002a 43F00103 		orreq	r3, r3, #1
 1077              	.LVL97:
 1078              		.loc 1 77 0
 1079 002e 9342     		cmp	r3, r2
 1080 0030 07D0     		beq	.L48
 1081              	.LVL98:
 1082              	.LBB94:
 1083              	.LBB95:
ARM GAS  /var/folders/sv/kgmgr77579zbf78p2zlhkdfr0000gn/T//cczBHn7X.s 			page 20


 1084              		.loc 1 343 0
 1085 0032 0DF10701 		add	r1, sp, #7
 1086 0036 0122     		movs	r2, #1
 1087 0038 0620     		movs	r0, #6
 1088 003a 8DF80730 		strb	r3, [sp, #7]
 1089              	.LVL99:
 1090 003e FFF7FEFF 		bl	rf_write_reg
 1091              	.LVL100:
 1092              	.L48:
 1093              	.LBE95:
 1094              	.LBE94:
 1095              		.loc 1 80 0
 1096 0042 02B0     		add	sp, sp, #8
 1097              		.cfi_def_cfa_offset 8
 1098              		@ sp needed
 1099 0044 10BD     		pop	{r4, pc}
 1100              	.LVL101:
 1101              	.L54:
 1102              		.cfi_def_cfa_offset 0
 1103              		.cfi_restore 4
 1104              		.cfi_restore 14
 1105 0046 7047     		bx	lr
 1106              		.cfi_endproc
 1107              	.LFE259:
 1108              		.size	rf_set_power, .-rf_set_power
 1109              		.section	.text.rf_set_crc_type,"ax",%progbits
 1110              		.align	2
 1111              		.p2align 4,,15
 1112              		.global	rf_set_crc_type
 1113              		.thumb
 1114              		.thumb_func
 1115              		.type	rf_set_crc_type, %function
 1116              	rf_set_crc_type:
 1117              	.LFB261:
 1118              		.loc 1 86 0
 1119              		.cfi_startproc
 1120              		@ args = 0, pretend = 0, frame = 8
 1121              		@ frame_needed = 0, uses_anonymous_args = 0
 1122              	.LVL102:
 1123 0000 10B5     		push	{r4, lr}
 1124              		.cfi_def_cfa_offset 8
 1125              		.cfi_offset 4, -8
 1126              		.cfi_offset 14, -4
 1127 0002 82B0     		sub	sp, sp, #8
 1128              		.cfi_def_cfa_offset 16
 1129              		.loc 1 86 0
 1130 0004 0446     		mov	r4, r0
 1131              	.LBB96:
 1132              	.LBB97:
 1133              		.loc 1 357 0
 1134 0006 0122     		movs	r2, #1
 1135 0008 0DF10701 		add	r1, sp, #7
 1136 000c 0020     		movs	r0, #0
 1137              	.LVL103:
 1138 000e FFF7FEFF 		bl	rf_read_reg
 1139              	.LVL104:
 1140              		.loc 1 358 0
ARM GAS  /var/folders/sv/kgmgr77579zbf78p2zlhkdfr0000gn/T//cczBHn7X.s 			page 21


 1141 0012 9DF80720 		ldrb	r2, [sp, #7]	@ zero_extendqisi2
 1142              	.LVL105:
 1143              	.LBE97:
 1144              	.LBE96:
 1145              		.loc 1 92 0
 1146 0016 012C     		cmp	r4, #1
 1147              		.loc 1 90 0
 1148 0018 02F0F303 		and	r3, r2, #243
 1149              	.LVL106:
 1150              		.loc 1 92 0
 1151 001c 10D0     		beq	.L57
 1152 001e 022C     		cmp	r4, #2
 1153 0020 0BD0     		beq	.L58
 1154              	.L56:
 1155              		.loc 1 108 0
 1156 0022 9342     		cmp	r3, r2
 1157 0024 07D0     		beq	.L55
 1158              	.LVL107:
 1159              	.LBB98:
 1160              	.LBB99:
 1161              		.loc 1 343 0
 1162 0026 0DF10701 		add	r1, sp, #7
 1163 002a 0122     		movs	r2, #1
 1164 002c 0020     		movs	r0, #0
 1165 002e 8DF80730 		strb	r3, [sp, #7]
 1166              	.LVL108:
 1167 0032 FFF7FEFF 		bl	rf_write_reg
 1168              	.LVL109:
 1169              	.L55:
 1170              	.LBE99:
 1171              	.LBE98:
 1172              		.loc 1 111 0
 1173 0036 02B0     		add	sp, sp, #8
 1174              		.cfi_remember_state
 1175              		.cfi_def_cfa_offset 8
 1176              		@ sp needed
 1177 0038 10BD     		pop	{r4, pc}
 1178              	.LVL110:
 1179              	.L58:
 1180              		.cfi_restore_state
 1181              		.loc 1 101 0
 1182 003a 43F00C03 		orr	r3, r3, #12
 1183              	.LVL111:
 1184              		.loc 1 102 0
 1185 003e F0E7     		b	.L56
 1186              	.L57:
 1187              		.loc 1 97 0
 1188 0040 43F00803 		orr	r3, r3, #8
 1189              	.LVL112:
 1190              		.loc 1 98 0
 1191 0044 EDE7     		b	.L56
 1192              		.cfi_endproc
 1193              	.LFE261:
 1194              		.size	rf_set_crc_type, .-rf_set_crc_type
 1195 0046 00BF     		.section	.text.rf_set_retr_retries,"ax",%progbits
 1196              		.align	2
 1197              		.p2align 4,,15
ARM GAS  /var/folders/sv/kgmgr77579zbf78p2zlhkdfr0000gn/T//cczBHn7X.s 			page 22


 1198              		.global	rf_set_retr_retries
 1199              		.thumb
 1200              		.thumb_func
 1201              		.type	rf_set_retr_retries, %function
 1202              	rf_set_retr_retries:
 1203              	.LFB262:
 1204              		.loc 1 113 0
 1205              		.cfi_startproc
 1206              		@ args = 0, pretend = 0, frame = 8
 1207              		@ frame_needed = 0, uses_anonymous_args = 0
 1208              	.LVL113:
 1209 0000 10B5     		push	{r4, lr}
 1210              		.cfi_def_cfa_offset 8
 1211              		.cfi_offset 4, -8
 1212              		.cfi_offset 14, -4
 1213 0002 82B0     		sub	sp, sp, #8
 1214              		.cfi_def_cfa_offset 16
 1215              		.loc 1 113 0
 1216 0004 0446     		mov	r4, r0
 1217              	.LBB100:
 1218              	.LBB101:
 1219              		.loc 1 357 0
 1220 0006 0122     		movs	r2, #1
 1221 0008 0DF10701 		add	r1, sp, #7
 1222 000c 0420     		movs	r0, #4
 1223              	.LVL114:
 1224 000e FFF7FEFF 		bl	rf_read_reg
 1225              	.LVL115:
 1226              		.loc 1 358 0
 1227 0012 9DF80720 		ldrb	r2, [sp, #7]	@ zero_extendqisi2
 1228              	.LVL116:
 1229              	.LBE101:
 1230              	.LBE100:
 1231              		.loc 1 118 0
 1232 0016 04F00F04 		and	r4, r4, #15
 1233              	.LVL117:
 1234 001a 22F00F03 		bic	r3, r2, #15
 1235 001e 2343     		orrs	r3, r3, r4
 1236              	.LVL118:
 1237              		.loc 1 120 0
 1238 0020 9342     		cmp	r3, r2
 1239 0022 07D0     		beq	.L61
 1240              	.LVL119:
 1241              	.LBB102:
 1242              	.LBB103:
 1243              		.loc 1 343 0
 1244 0024 0DF10701 		add	r1, sp, #7
 1245 0028 0122     		movs	r2, #1
 1246 002a 0420     		movs	r0, #4
 1247 002c 8DF80730 		strb	r3, [sp, #7]
 1248              	.LVL120:
 1249 0030 FFF7FEFF 		bl	rf_write_reg
 1250              	.LVL121:
 1251              	.L61:
 1252              	.LBE103:
 1253              	.LBE102:
 1254              		.loc 1 123 0
ARM GAS  /var/folders/sv/kgmgr77579zbf78p2zlhkdfr0000gn/T//cczBHn7X.s 			page 23


 1255 0034 02B0     		add	sp, sp, #8
 1256              		.cfi_def_cfa_offset 8
 1257              		@ sp needed
 1258 0036 10BD     		pop	{r4, pc}
 1259              		.cfi_endproc
 1260              	.LFE262:
 1261              		.size	rf_set_retr_retries, .-rf_set_retr_retries
 1262              		.section	.text.rf_set_retr_delay,"ax",%progbits
 1263              		.align	2
 1264              		.p2align 4,,15
 1265              		.global	rf_set_retr_delay
 1266              		.thumb
 1267              		.thumb_func
 1268              		.type	rf_set_retr_delay, %function
 1269              	rf_set_retr_delay:
 1270              	.LFB263:
 1271              		.loc 1 125 0
 1272              		.cfi_startproc
 1273              		@ args = 0, pretend = 0, frame = 8
 1274              		@ frame_needed = 0, uses_anonymous_args = 0
 1275              	.LVL122:
 1276 0000 10B5     		push	{r4, lr}
 1277              		.cfi_def_cfa_offset 8
 1278              		.cfi_offset 4, -8
 1279              		.cfi_offset 14, -4
 1280 0002 82B0     		sub	sp, sp, #8
 1281              		.cfi_def_cfa_offset 16
 1282              		.loc 1 125 0
 1283 0004 0446     		mov	r4, r0
 1284              	.LBB104:
 1285              	.LBB105:
 1286              		.loc 1 357 0
 1287 0006 0122     		movs	r2, #1
 1288 0008 0DF10701 		add	r1, sp, #7
 1289 000c 0420     		movs	r0, #4
 1290              	.LVL123:
 1291 000e FFF7FEFF 		bl	rf_read_reg
 1292              	.LVL124:
 1293              		.loc 1 358 0
 1294 0012 9DF80720 		ldrb	r2, [sp, #7]	@ zero_extendqisi2
 1295              	.LVL125:
 1296              	.LBE105:
 1297              	.LBE104:
 1298              		.loc 1 130 0
 1299 0016 02F00F03 		and	r3, r2, #15
 1300 001a 43EA0413 		orr	r3, r3, r4, lsl #4
 1301 001e DBB2     		uxtb	r3, r3
 1302              	.LVL126:
 1303              		.loc 1 132 0
 1304 0020 9342     		cmp	r3, r2
 1305 0022 07D0     		beq	.L64
 1306              	.LVL127:
 1307              	.LBB106:
 1308              	.LBB107:
 1309              		.loc 1 343 0
 1310 0024 0DF10701 		add	r1, sp, #7
 1311 0028 0122     		movs	r2, #1
ARM GAS  /var/folders/sv/kgmgr77579zbf78p2zlhkdfr0000gn/T//cczBHn7X.s 			page 24


 1312 002a 0420     		movs	r0, #4
 1313 002c 8DF80730 		strb	r3, [sp, #7]
 1314              	.LVL128:
 1315 0030 FFF7FEFF 		bl	rf_write_reg
 1316              	.LVL129:
 1317              	.L64:
 1318              	.LBE107:
 1319              	.LBE106:
 1320              		.loc 1 135 0
 1321 0034 02B0     		add	sp, sp, #8
 1322              		.cfi_def_cfa_offset 8
 1323              		@ sp needed
 1324 0036 10BD     		pop	{r4, pc}
 1325              		.cfi_endproc
 1326              	.LFE263:
 1327              		.size	rf_set_retr_delay, .-rf_set_retr_delay
 1328              		.section	.text.rf_get_frequency,"ax",%progbits
 1329              		.align	2
 1330              		.p2align 4,,15
 1331              		.global	rf_get_frequency
 1332              		.thumb
 1333              		.thumb_func
 1334              		.type	rf_get_frequency, %function
 1335              	rf_get_frequency:
 1336              	.LFB271:
 1337              		.loc 1 191 0
 1338              		.cfi_startproc
 1339              		@ args = 0, pretend = 0, frame = 8
 1340              		@ frame_needed = 0, uses_anonymous_args = 0
 1341              	.LVL130:
 1342 0000 00B5     		push	{lr}
 1343              		.cfi_def_cfa_offset 4
 1344              		.cfi_offset 14, -4
 1345 0002 83B0     		sub	sp, sp, #12
 1346              		.cfi_def_cfa_offset 16
 1347              	.LBB108:
 1348              	.LBB109:
 1349              		.loc 1 357 0
 1350 0004 0122     		movs	r2, #1
 1351 0006 0DF10701 		add	r1, sp, #7
 1352 000a 0520     		movs	r0, #5
 1353 000c FFF7FEFF 		bl	rf_read_reg
 1354              	.LVL131:
 1355              		.loc 1 358 0
 1356 0010 9DF80700 		ldrb	r0, [sp, #7]	@ zero_extendqisi2
 1357              	.LVL132:
 1358              	.LBE109:
 1359              	.LBE108:
 1360              		.loc 1 194 0
 1361 0014 00F51660 		add	r0, r0, #2400
 1362 0018 03B0     		add	sp, sp, #12
 1363              		.cfi_def_cfa_offset 4
 1364              		@ sp needed
 1365 001a 5DF804FB 		ldr	pc, [sp], #4
 1366              		.cfi_endproc
 1367              	.LFE271:
 1368              		.size	rf_get_frequency, .-rf_get_frequency
ARM GAS  /var/folders/sv/kgmgr77579zbf78p2zlhkdfr0000gn/T//cczBHn7X.s 			page 25


 1369 001e 00BF     		.section	.text.rf_get_address_width,"ax",%progbits
 1370              		.align	2
 1371              		.p2align 4,,15
 1372              		.global	rf_get_address_width
 1373              		.thumb
 1374              		.thumb_func
 1375              		.type	rf_get_address_width, %function
 1376              	rf_get_address_width:
 1377              	.LFB272:
 1378              		.loc 1 196 0
 1379              		.cfi_startproc
 1380              		@ args = 0, pretend = 0, frame = 8
 1381              		@ frame_needed = 0, uses_anonymous_args = 0
 1382              	.LVL133:
 1383 0000 00B5     		push	{lr}
 1384              		.cfi_def_cfa_offset 4
 1385              		.cfi_offset 14, -4
 1386 0002 83B0     		sub	sp, sp, #12
 1387              		.cfi_def_cfa_offset 16
 1388              	.LBB110:
 1389              	.LBB111:
 1390              		.loc 1 357 0
 1391 0004 0122     		movs	r2, #1
 1392 0006 0DF10701 		add	r1, sp, #7
 1393 000a 0320     		movs	r0, #3
 1394 000c FFF7FEFF 		bl	rf_read_reg
 1395              	.LVL134:
 1396              		.loc 1 358 0
 1397 0010 9DF80700 		ldrb	r0, [sp, #7]	@ zero_extendqisi2
 1398              	.LVL135:
 1399              	.LBE111:
 1400              	.LBE110:
 1401              		.loc 1 198 0
 1402 0014 0230     		adds	r0, r0, #2
 1403 0016 03B0     		add	sp, sp, #12
 1404              		.cfi_def_cfa_offset 4
 1405              		@ sp needed
 1406 0018 5DF804FB 		ldr	pc, [sp], #4
 1407              		.cfi_endproc
 1408              	.LFE272:
 1409              		.size	rf_get_address_width, .-rf_get_address_width
 1410              		.section	.text.rf_power_up,"ax",%progbits
 1411              		.align	2
 1412              		.p2align 4,,15
 1413              		.global	rf_power_up
 1414              		.thumb
 1415              		.thumb_func
 1416              		.type	rf_power_up, %function
 1417              	rf_power_up:
 1418              	.LFB273:
 1419              		.loc 1 201 0
 1420              		.cfi_startproc
 1421              		@ args = 0, pretend = 0, frame = 8
 1422              		@ frame_needed = 0, uses_anonymous_args = 0
 1423              	.LVL136:
 1424 0000 00B5     		push	{lr}
 1425              		.cfi_def_cfa_offset 4
ARM GAS  /var/folders/sv/kgmgr77579zbf78p2zlhkdfr0000gn/T//cczBHn7X.s 			page 26


 1426              		.cfi_offset 14, -4
 1427 0002 83B0     		sub	sp, sp, #12
 1428              		.cfi_def_cfa_offset 16
 1429              	.LBB112:
 1430              	.LBB113:
 1431              		.loc 1 357 0
 1432 0004 0122     		movs	r2, #1
 1433 0006 0DF10701 		add	r1, sp, #7
 1434 000a 0020     		movs	r0, #0
 1435 000c FFF7FEFF 		bl	rf_read_reg
 1436              	.LVL137:
 1437              		.loc 1 358 0
 1438 0010 9DF80730 		ldrb	r3, [sp, #7]	@ zero_extendqisi2
 1439              	.LVL138:
 1440              	.LBE113:
 1441              	.LBE112:
 1442              		.loc 1 203 0
 1443 0014 03F00202 		and	r2, r3, #2
 1444 0018 52B9     		cbnz	r2, .L71
 1445 001a 02F0FF00 		and	r0, r2, #255
 1446              	.LVL139:
 1447 001e 43F00203 		orr	r3, r3, #2
 1448              	.LVL140:
 1449              	.LBB114:
 1450              	.LBB115:
 1451              		.loc 1 343 0
 1452 0022 0DF10701 		add	r1, sp, #7
 1453              	.LVL141:
 1454 0026 0122     		movs	r2, #1
 1455 0028 8DF80730 		strb	r3, [sp, #7]
 1456              	.LVL142:
 1457 002c FFF7FEFF 		bl	rf_write_reg
 1458              	.LVL143:
 1459              	.L71:
 1460              	.LBE115:
 1461              	.LBE114:
 1462              		.loc 1 207 0
 1463 0030 03B0     		add	sp, sp, #12
 1464              		.cfi_def_cfa_offset 4
 1465              		@ sp needed
 1466 0032 5DF804FB 		ldr	pc, [sp], #4
 1467              		.cfi_endproc
 1468              	.LFE273:
 1469              		.size	rf_power_up, .-rf_power_up
 1470 0036 00BF     		.section	.text.rf_power_down,"ax",%progbits
 1471              		.align	2
 1472              		.p2align 4,,15
 1473              		.global	rf_power_down
 1474              		.thumb
 1475              		.thumb_func
 1476              		.type	rf_power_down, %function
 1477              	rf_power_down:
 1478              	.LFB274:
 1479              		.loc 1 210 0
 1480              		.cfi_startproc
 1481              		@ args = 0, pretend = 0, frame = 8
 1482              		@ frame_needed = 0, uses_anonymous_args = 0
ARM GAS  /var/folders/sv/kgmgr77579zbf78p2zlhkdfr0000gn/T//cczBHn7X.s 			page 27


 1483              	.LVL144:
 1484 0000 00B5     		push	{lr}
 1485              		.cfi_def_cfa_offset 4
 1486              		.cfi_offset 14, -4
 1487 0002 83B0     		sub	sp, sp, #12
 1488              		.cfi_def_cfa_offset 16
 1489              	.LBB116:
 1490              	.LBB117:
 1491              		.loc 1 357 0
 1492 0004 0122     		movs	r2, #1
 1493 0006 0DF10701 		add	r1, sp, #7
 1494 000a 0020     		movs	r0, #0
 1495 000c FFF7FEFF 		bl	rf_read_reg
 1496              	.LVL145:
 1497              		.loc 1 358 0
 1498 0010 9DF80730 		ldrb	r3, [sp, #7]	@ zero_extendqisi2
 1499              	.LVL146:
 1500              	.LBE117:
 1501              	.LBE116:
 1502              		.loc 1 212 0
 1503 0014 9A07     		lsls	r2, r3, #30
 1504 0016 09D5     		bpl	.L74
 1505              	.LVL147:
 1506 0018 23F00203 		bic	r3, r3, #2
 1507              	.LVL148:
 1508              	.LBB118:
 1509              	.LBB119:
 1510              		.loc 1 343 0
 1511 001c 0DF10701 		add	r1, sp, #7
 1512 0020 0122     		movs	r2, #1
 1513 0022 0020     		movs	r0, #0
 1514 0024 8DF80730 		strb	r3, [sp, #7]
 1515              	.LVL149:
 1516 0028 FFF7FEFF 		bl	rf_write_reg
 1517              	.LVL150:
 1518              	.L74:
 1519              	.LBE119:
 1520              	.LBE118:
 1521              		.loc 1 216 0
 1522 002c 03B0     		add	sp, sp, #12
 1523              		.cfi_def_cfa_offset 4
 1524              		@ sp needed
 1525 002e 5DF804FB 		ldr	pc, [sp], #4
 1526              		.cfi_endproc
 1527              	.LFE274:
 1528              		.size	rf_power_down, .-rf_power_down
 1529 0032 00BF     		.section	.text.rf_mode_tx,"ax",%progbits
 1530              		.align	2
 1531              		.p2align 4,,15
 1532              		.global	rf_mode_tx
 1533              		.thumb
 1534              		.thumb_func
 1535              		.type	rf_mode_tx, %function
 1536              	rf_mode_tx:
 1537              	.LFB275:
 1538              		.loc 1 219 0
 1539              		.cfi_startproc
ARM GAS  /var/folders/sv/kgmgr77579zbf78p2zlhkdfr0000gn/T//cczBHn7X.s 			page 28


 1540              		@ args = 0, pretend = 0, frame = 8
 1541              		@ frame_needed = 0, uses_anonymous_args = 0
 1542              	.LVL151:
 1543 0000 00B5     		push	{lr}
 1544              		.cfi_def_cfa_offset 4
 1545              		.cfi_offset 14, -4
 1546 0002 83B0     		sub	sp, sp, #12
 1547              		.cfi_def_cfa_offset 16
 1548              	.LBB120:
 1549              	.LBB121:
 1550              		.loc 1 357 0
 1551 0004 0122     		movs	r2, #1
 1552 0006 0DF10701 		add	r1, sp, #7
 1553 000a 0020     		movs	r0, #0
 1554 000c FFF7FEFF 		bl	rf_read_reg
 1555              	.LVL152:
 1556              		.loc 1 358 0
 1557 0010 9DF80730 		ldrb	r3, [sp, #7]	@ zero_extendqisi2
 1558              	.LVL153:
 1559              	.LBE121:
 1560              	.LBE120:
 1561              		.loc 1 221 0
 1562 0014 DA07     		lsls	r2, r3, #31
 1563 0016 09D5     		bpl	.L80
 1564              	.LVL154:
 1565 0018 23F00103 		bic	r3, r3, #1
 1566              	.LVL155:
 1567              	.LBB122:
 1568              	.LBB123:
 1569              		.loc 1 343 0
 1570 001c 0DF10701 		add	r1, sp, #7
 1571 0020 0122     		movs	r2, #1
 1572 0022 0020     		movs	r0, #0
 1573 0024 8DF80730 		strb	r3, [sp, #7]
 1574              	.LVL156:
 1575 0028 FFF7FEFF 		bl	rf_write_reg
 1576              	.LVL157:
 1577              	.L80:
 1578              	.LBE123:
 1579              	.LBE122:
 1580              		.loc 1 225 0
 1581 002c 03B0     		add	sp, sp, #12
 1582              		.cfi_def_cfa_offset 4
 1583              		@ sp needed
 1584 002e 5DF804FB 		ldr	pc, [sp], #4
 1585              		.cfi_endproc
 1586              	.LFE275:
 1587              		.size	rf_mode_tx, .-rf_mode_tx
 1588 0032 00BF     		.section	.text.rf_mode_rx,"ax",%progbits
 1589              		.align	2
 1590              		.p2align 4,,15
 1591              		.global	rf_mode_rx
 1592              		.thumb
 1593              		.thumb_func
 1594              		.type	rf_mode_rx, %function
 1595              	rf_mode_rx:
 1596              	.LFB276:
ARM GAS  /var/folders/sv/kgmgr77579zbf78p2zlhkdfr0000gn/T//cczBHn7X.s 			page 29


 1597              		.loc 1 228 0
 1598              		.cfi_startproc
 1599              		@ args = 0, pretend = 0, frame = 8
 1600              		@ frame_needed = 0, uses_anonymous_args = 0
 1601              	.LVL158:
 1602 0000 00B5     		push	{lr}
 1603              		.cfi_def_cfa_offset 4
 1604              		.cfi_offset 14, -4
 1605 0002 83B0     		sub	sp, sp, #12
 1606              		.cfi_def_cfa_offset 16
 1607              	.LBB124:
 1608              	.LBB125:
 1609              		.loc 1 357 0
 1610 0004 0020     		movs	r0, #0
 1611 0006 0DF10701 		add	r1, sp, #7
 1612 000a 0122     		movs	r2, #1
 1613 000c FFF7FEFF 		bl	rf_read_reg
 1614              	.LVL159:
 1615              		.loc 1 358 0
 1616 0010 9DF80730 		ldrb	r3, [sp, #7]	@ zero_extendqisi2
 1617              	.LVL160:
 1618              	.LBE125:
 1619              	.LBE124:
 1620              		.loc 1 230 0
 1621 0014 13F00100 		ands	r0, r3, #1
 1622 0018 08D1     		bne	.L86
 1623              	.LVL161:
 1624 001a 43F00103 		orr	r3, r3, #1
 1625              	.LVL162:
 1626              	.LBB126:
 1627              	.LBB127:
 1628              		.loc 1 343 0
 1629 001e 0DF10701 		add	r1, sp, #7
 1630              	.LVL163:
 1631 0022 0122     		movs	r2, #1
 1632 0024 8DF80730 		strb	r3, [sp, #7]
 1633              	.LVL164:
 1634 0028 FFF7FEFF 		bl	rf_write_reg
 1635              	.LVL165:
 1636              	.L86:
 1637              	.LBE127:
 1638              	.LBE126:
 1639              		.loc 1 234 0
 1640 002c 03B0     		add	sp, sp, #12
 1641              		.cfi_def_cfa_offset 4
 1642              		@ sp needed
 1643 002e 5DF804FB 		ldr	pc, [sp], #4
 1644              		.cfi_endproc
 1645              	.LFE276:
 1646              		.size	rf_mode_rx, .-rf_mode_rx
 1647 0032 00BF     		.section	.text.rf_enable_pipe_autoack,"ax",%progbits
 1648              		.align	2
 1649              		.p2align 4,,15
 1650              		.global	rf_enable_pipe_autoack
 1651              		.thumb
 1652              		.thumb_func
 1653              		.type	rf_enable_pipe_autoack, %function
ARM GAS  /var/folders/sv/kgmgr77579zbf78p2zlhkdfr0000gn/T//cczBHn7X.s 			page 30


 1654              	rf_enable_pipe_autoack:
 1655              	.LFB277:
 1656              		.loc 1 237 0
 1657              		.cfi_startproc
 1658              		@ args = 0, pretend = 0, frame = 8
 1659              		@ frame_needed = 0, uses_anonymous_args = 0
 1660              	.LVL166:
 1661 0000 10B5     		push	{r4, lr}
 1662              		.cfi_def_cfa_offset 8
 1663              		.cfi_offset 4, -8
 1664              		.cfi_offset 14, -4
 1665              	.LBB128:
 1666              	.LBB129:
 1667              		.loc 1 357 0
 1668 0002 0122     		movs	r2, #1
 1669              	.LBE129:
 1670              	.LBE128:
 1671              		.loc 1 237 0
 1672 0004 82B0     		sub	sp, sp, #8
 1673              		.cfi_def_cfa_offset 16
 1674              		.loc 1 237 0
 1675 0006 0446     		mov	r4, r0
 1676              	.LBB131:
 1677              	.LBB130:
 1678              		.loc 1 357 0
 1679 0008 0DF10701 		add	r1, sp, #7
 1680 000c 1046     		mov	r0, r2
 1681              	.LVL167:
 1682 000e FFF7FEFF 		bl	rf_read_reg
 1683              	.LVL168:
 1684              		.loc 1 358 0
 1685 0012 9DF80730 		ldrb	r3, [sp, #7]	@ zero_extendqisi2
 1686              	.LVL169:
 1687              	.LBE130:
 1688              	.LBE131:
 1689              		.loc 1 239 0
 1690 0016 34EA0302 		bics	r2, r4, r3
 1691 001a 08D0     		beq	.L89
 1692              	.LVL170:
 1693              	.LBB132:
 1694              	.LBB133:
 1695              		.loc 1 343 0
 1696 001c 0122     		movs	r2, #1
 1697 001e 1C43     		orrs	r4, r4, r3
 1698              	.LVL171:
 1699 0020 0DF10701 		add	r1, sp, #7
 1700 0024 1046     		mov	r0, r2
 1701 0026 8DF80740 		strb	r4, [sp, #7]
 1702              	.LVL172:
 1703 002a FFF7FEFF 		bl	rf_write_reg
 1704              	.LVL173:
 1705              	.L89:
 1706              	.LBE133:
 1707              	.LBE132:
 1708              		.loc 1 243 0
 1709 002e 02B0     		add	sp, sp, #8
 1710              		.cfi_def_cfa_offset 8
ARM GAS  /var/folders/sv/kgmgr77579zbf78p2zlhkdfr0000gn/T//cczBHn7X.s 			page 31


 1711              		@ sp needed
 1712 0030 10BD     		pop	{r4, pc}
 1713              		.cfi_endproc
 1714              	.LFE277:
 1715              		.size	rf_enable_pipe_autoack, .-rf_enable_pipe_autoack
 1716 0032 00BF     		.section	.text.rf_enable_pipe_address,"ax",%progbits
 1717              		.align	2
 1718              		.p2align 4,,15
 1719              		.global	rf_enable_pipe_address
 1720              		.thumb
 1721              		.thumb_func
 1722              		.type	rf_enable_pipe_address, %function
 1723              	rf_enable_pipe_address:
 1724              	.LFB278:
 1725              		.loc 1 246 0
 1726              		.cfi_startproc
 1727              		@ args = 0, pretend = 0, frame = 8
 1728              		@ frame_needed = 0, uses_anonymous_args = 0
 1729              	.LVL174:
 1730 0000 10B5     		push	{r4, lr}
 1731              		.cfi_def_cfa_offset 8
 1732              		.cfi_offset 4, -8
 1733              		.cfi_offset 14, -4
 1734 0002 82B0     		sub	sp, sp, #8
 1735              		.cfi_def_cfa_offset 16
 1736              		.loc 1 246 0
 1737 0004 0446     		mov	r4, r0
 1738              	.LBB134:
 1739              	.LBB135:
 1740              		.loc 1 357 0
 1741 0006 0122     		movs	r2, #1
 1742 0008 0DF10701 		add	r1, sp, #7
 1743 000c 0220     		movs	r0, #2
 1744              	.LVL175:
 1745 000e FFF7FEFF 		bl	rf_read_reg
 1746              	.LVL176:
 1747              		.loc 1 358 0
 1748 0012 9DF80730 		ldrb	r3, [sp, #7]	@ zero_extendqisi2
 1749              	.LVL177:
 1750              	.LBE135:
 1751              	.LBE134:
 1752              		.loc 1 248 0
 1753 0016 34EA0302 		bics	r2, r4, r3
 1754 001a 08D0     		beq	.L92
 1755              	.LVL178:
 1756 001c 1C43     		orrs	r4, r4, r3
 1757              	.LVL179:
 1758              	.LBB136:
 1759              	.LBB137:
 1760              		.loc 1 343 0
 1761 001e 0DF10701 		add	r1, sp, #7
 1762 0022 0122     		movs	r2, #1
 1763 0024 0220     		movs	r0, #2
 1764 0026 8DF80740 		strb	r4, [sp, #7]
 1765              	.LVL180:
 1766 002a FFF7FEFF 		bl	rf_write_reg
 1767              	.LVL181:
ARM GAS  /var/folders/sv/kgmgr77579zbf78p2zlhkdfr0000gn/T//cczBHn7X.s 			page 32


 1768              	.L92:
 1769              	.LBE137:
 1770              	.LBE136:
 1771              		.loc 1 252 0
 1772 002e 02B0     		add	sp, sp, #8
 1773              		.cfi_def_cfa_offset 8
 1774              		@ sp needed
 1775 0030 10BD     		pop	{r4, pc}
 1776              		.cfi_endproc
 1777              	.LFE278:
 1778              		.size	rf_enable_pipe_address, .-rf_enable_pipe_address
 1779 0032 00BF     		.section	.text.rf_enable_pipe_dlp,"ax",%progbits
 1780              		.align	2
 1781              		.p2align 4,,15
 1782              		.global	rf_enable_pipe_dlp
 1783              		.thumb
 1784              		.thumb_func
 1785              		.type	rf_enable_pipe_dlp, %function
 1786              	rf_enable_pipe_dlp:
 1787              	.LFB279:
 1788              		.loc 1 255 0
 1789              		.cfi_startproc
 1790              		@ args = 0, pretend = 0, frame = 8
 1791              		@ frame_needed = 0, uses_anonymous_args = 0
 1792              	.LVL182:
 1793 0000 10B5     		push	{r4, lr}
 1794              		.cfi_def_cfa_offset 8
 1795              		.cfi_offset 4, -8
 1796              		.cfi_offset 14, -4
 1797 0002 82B0     		sub	sp, sp, #8
 1798              		.cfi_def_cfa_offset 16
 1799              		.loc 1 255 0
 1800 0004 0446     		mov	r4, r0
 1801              	.LBB138:
 1802              	.LBB139:
 1803              		.loc 1 357 0
 1804 0006 0122     		movs	r2, #1
 1805 0008 0DF10701 		add	r1, sp, #7
 1806 000c 1C20     		movs	r0, #28
 1807              	.LVL183:
 1808 000e FFF7FEFF 		bl	rf_read_reg
 1809              	.LVL184:
 1810              		.loc 1 358 0
 1811 0012 9DF80730 		ldrb	r3, [sp, #7]	@ zero_extendqisi2
 1812              	.LVL185:
 1813              	.LBE139:
 1814              	.LBE138:
 1815              		.loc 1 257 0
 1816 0016 34EA0302 		bics	r2, r4, r3
 1817 001a 08D0     		beq	.L95
 1818              	.LVL186:
 1819 001c 1C43     		orrs	r4, r4, r3
 1820              	.LVL187:
 1821              	.LBB140:
 1822              	.LBB141:
 1823              		.loc 1 343 0
 1824 001e 0DF10701 		add	r1, sp, #7
ARM GAS  /var/folders/sv/kgmgr77579zbf78p2zlhkdfr0000gn/T//cczBHn7X.s 			page 33


 1825 0022 0122     		movs	r2, #1
 1826 0024 1C20     		movs	r0, #28
 1827 0026 8DF80740 		strb	r4, [sp, #7]
 1828              	.LVL188:
 1829 002a FFF7FEFF 		bl	rf_write_reg
 1830              	.LVL189:
 1831              	.L95:
 1832              	.LBE141:
 1833              	.LBE140:
 1834              		.loc 1 261 0
 1835 002e 02B0     		add	sp, sp, #8
 1836              		.cfi_def_cfa_offset 8
 1837              		@ sp needed
 1838 0030 10BD     		pop	{r4, pc}
 1839              		.cfi_endproc
 1840              	.LFE279:
 1841              		.size	rf_enable_pipe_dlp, .-rf_enable_pipe_dlp
 1842 0032 00BF     		.section	.text.rf_enable_features,"ax",%progbits
 1843              		.align	2
 1844              		.p2align 4,,15
 1845              		.global	rf_enable_features
 1846              		.thumb
 1847              		.thumb_func
 1848              		.type	rf_enable_features, %function
 1849              	rf_enable_features:
 1850              	.LFB280:
 1851              		.loc 1 264 0
 1852              		.cfi_startproc
 1853              		@ args = 0, pretend = 0, frame = 8
 1854              		@ frame_needed = 0, uses_anonymous_args = 0
 1855              	.LVL190:
 1856 0000 10B5     		push	{r4, lr}
 1857              		.cfi_def_cfa_offset 8
 1858              		.cfi_offset 4, -8
 1859              		.cfi_offset 14, -4
 1860 0002 82B0     		sub	sp, sp, #8
 1861              		.cfi_def_cfa_offset 16
 1862              		.loc 1 264 0
 1863 0004 0446     		mov	r4, r0
 1864              	.LBB142:
 1865              	.LBB143:
 1866              		.loc 1 357 0
 1867 0006 0122     		movs	r2, #1
 1868 0008 0DF10701 		add	r1, sp, #7
 1869 000c 1D20     		movs	r0, #29
 1870              	.LVL191:
 1871 000e FFF7FEFF 		bl	rf_read_reg
 1872              	.LVL192:
 1873              		.loc 1 358 0
 1874 0012 9DF80730 		ldrb	r3, [sp, #7]	@ zero_extendqisi2
 1875              	.LVL193:
 1876              	.LBE143:
 1877              	.LBE142:
 1878              		.loc 1 266 0
 1879 0016 34EA0302 		bics	r2, r4, r3
 1880 001a 08D0     		beq	.L98
 1881              	.LVL194:
ARM GAS  /var/folders/sv/kgmgr77579zbf78p2zlhkdfr0000gn/T//cczBHn7X.s 			page 34


 1882 001c 1C43     		orrs	r4, r4, r3
 1883              	.LVL195:
 1884              	.LBB144:
 1885              	.LBB145:
 1886              		.loc 1 343 0
 1887 001e 0DF10701 		add	r1, sp, #7
 1888 0022 0122     		movs	r2, #1
 1889 0024 1D20     		movs	r0, #29
 1890 0026 8DF80740 		strb	r4, [sp, #7]
 1891              	.LVL196:
 1892 002a FFF7FEFF 		bl	rf_write_reg
 1893              	.LVL197:
 1894              	.L98:
 1895              	.LBE145:
 1896              	.LBE144:
 1897              		.loc 1 270 0
 1898 002e 02B0     		add	sp, sp, #8
 1899              		.cfi_def_cfa_offset 8
 1900              		@ sp needed
 1901 0030 10BD     		pop	{r4, pc}
 1902              		.cfi_endproc
 1903              	.LFE280:
 1904              		.size	rf_enable_features, .-rf_enable_features
 1905 0032 00BF     		.section	.text.rf_fifo_status,"ax",%progbits
 1906              		.align	2
 1907              		.p2align 4,,15
 1908              		.global	rf_fifo_status
 1909              		.thumb
 1910              		.thumb_func
 1911              		.type	rf_fifo_status, %function
 1912              	rf_fifo_status:
 1913              	.LFB290:
 1914              		.loc 1 325 0
 1915              		.cfi_startproc
 1916              		@ args = 0, pretend = 0, frame = 8
 1917              		@ frame_needed = 0, uses_anonymous_args = 0
 1918              	.LVL198:
 1919 0000 00B5     		push	{lr}
 1920              		.cfi_def_cfa_offset 4
 1921              		.cfi_offset 14, -4
 1922 0002 83B0     		sub	sp, sp, #12
 1923              		.cfi_def_cfa_offset 16
 1924              	.LBB146:
 1925              	.LBB147:
 1926              		.loc 1 357 0
 1927 0004 0122     		movs	r2, #1
 1928 0006 0DF10701 		add	r1, sp, #7
 1929 000a 1720     		movs	r0, #23
 1930 000c FFF7FEFF 		bl	rf_read_reg
 1931              	.LVL199:
 1932              	.LBE147:
 1933              	.LBE146:
 1934              		.loc 1 327 0
 1935 0010 9DF80700 		ldrb	r0, [sp, #7]	@ zero_extendqisi2
 1936 0014 03B0     		add	sp, sp, #12
 1937              		.cfi_def_cfa_offset 4
 1938              		@ sp needed
ARM GAS  /var/folders/sv/kgmgr77579zbf78p2zlhkdfr0000gn/T//cczBHn7X.s 			page 35


 1939 0016 5DF804FB 		ldr	pc, [sp], #4
 1940              		.cfi_endproc
 1941              	.LFE290:
 1942              		.size	rf_fifo_status, .-rf_fifo_status
 1943 001a 00BF     		.section	.text.rf_rx_power_detect,"ax",%progbits
 1944              		.align	2
 1945              		.p2align 4,,15
 1946              		.global	rf_rx_power_detect
 1947              		.thumb
 1948              		.thumb_func
 1949              		.type	rf_rx_power_detect, %function
 1950              	rf_rx_power_detect:
 1951              	.LFB291:
 1952              		.loc 1 329 0
 1953              		.cfi_startproc
 1954              		@ args = 0, pretend = 0, frame = 8
 1955              		@ frame_needed = 0, uses_anonymous_args = 0
 1956              	.LVL200:
 1957 0000 00B5     		push	{lr}
 1958              		.cfi_def_cfa_offset 4
 1959              		.cfi_offset 14, -4
 1960 0002 83B0     		sub	sp, sp, #12
 1961              		.cfi_def_cfa_offset 16
 1962              	.LBB148:
 1963              	.LBB149:
 1964              		.loc 1 357 0
 1965 0004 0122     		movs	r2, #1
 1966 0006 0DF10701 		add	r1, sp, #7
 1967 000a 0920     		movs	r0, #9
 1968 000c FFF7FEFF 		bl	rf_read_reg
 1969              	.LVL201:
 1970              		.loc 1 358 0
 1971 0010 9DF80700 		ldrb	r0, [sp, #7]	@ zero_extendqisi2
 1972              	.LVL202:
 1973              	.LBE149:
 1974              	.LBE148:
 1975              		.loc 1 331 0
 1976 0014 4008     		lsrs	r0, r0, #1
 1977 0016 03B0     		add	sp, sp, #12
 1978              		.cfi_def_cfa_offset 4
 1979              		@ sp needed
 1980 0018 5DF804FB 		ldr	pc, [sp], #4
 1981              		.cfi_endproc
 1982              	.LFE291:
 1983              		.size	rf_rx_power_detect, .-rf_rx_power_detect
 1984              		.section	.text.rf_read_reg_byte,"ax",%progbits
 1985              		.align	2
 1986              		.p2align 4,,15
 1987              		.global	rf_read_reg_byte
 1988              		.thumb
 1989              		.thumb_func
 1990              		.type	rf_read_reg_byte, %function
 1991              	rf_read_reg_byte:
 1992              	.LFB295:
 1993              		.loc 1 355 0
 1994              		.cfi_startproc
 1995              		@ args = 0, pretend = 0, frame = 8
ARM GAS  /var/folders/sv/kgmgr77579zbf78p2zlhkdfr0000gn/T//cczBHn7X.s 			page 36


 1996              		@ frame_needed = 0, uses_anonymous_args = 0
 1997              	.LVL203:
 1998 0000 00B5     		push	{lr}
 1999              		.cfi_def_cfa_offset 4
 2000              		.cfi_offset 14, -4
 2001 0002 83B0     		sub	sp, sp, #12
 2002              		.cfi_def_cfa_offset 16
 2003              		.loc 1 357 0
 2004 0004 0122     		movs	r2, #1
 2005 0006 0DF10701 		add	r1, sp, #7
 2006 000a FFF7FEFF 		bl	rf_read_reg
 2007              	.LVL204:
 2008              		.loc 1 359 0
 2009 000e 9DF80700 		ldrb	r0, [sp, #7]	@ zero_extendqisi2
 2010 0012 03B0     		add	sp, sp, #12
 2011              		.cfi_def_cfa_offset 4
 2012              		@ sp needed
 2013 0014 5DF804FB 		ldr	pc, [sp], #4
 2014              		.cfi_endproc
 2015              	.LFE295:
 2016              		.size	rf_read_reg_byte, .-rf_read_reg_byte
 2017              		.text
 2018              	.Letext0:
 2019              		.file 2 "/usr/local/Cellar/gcc-arm-none-eabi/20160928/arm-none-eabi/include/machine/_default_types
 2020              		.file 3 "/usr/local/Cellar/gcc-arm-none-eabi/20160928/arm-none-eabi/include/sys/_stdint.h"
 2021              		.file 4 "ChibiOS_3.0.2/os/rt/ports/ARMCMx/compilers/GCC/chtypes.h"
 2022              		.file 5 "ChibiOS_3.0.2/os/rt/include/chsystypes.h"
 2023              		.file 6 "ChibiOS_3.0.2/os/rt/include/chschd.h"
 2024              		.file 7 "ChibiOS_3.0.2/os/rt/ports/ARMCMx/chcore.h"
 2025              		.file 8 "ChibiOS_3.0.2/os/rt/ports/ARMCMx/chcore_v7m.h"
 2026              		.file 9 "ChibiOS_3.0.2/os/rt/include/chtm.h"
 2027              		.file 10 "ChibiOS_3.0.2/os/rt/include/chsem.h"
 2028              		.file 11 "ChibiOS_3.0.2/os/rt/include/chmtx.h"
 2029              		.file 12 "./datatypes.h"
 2030              		.file 13 "nrf/spi_sw.h"
 2031              		.file 14 "ChibiOS_3.0.2/os/ext/CMSIS/include/core_cm4.h"