ARM GAS  /var/folders/sv/kgmgr77579zbf78p2zlhkdfr0000gn/T//ccQEQTTR.s 			page 1


   1              		.syntax unified
   2              		.cpu cortex-m4
   3              		.eabi_attribute 27, 1
   4              		.eabi_attribute 28, 1
   5              		.fpu fpv4-sp-d16
   6              		.eabi_attribute 20, 1
   7              		.eabi_attribute 21, 1
   8              		.eabi_attribute 23, 3
   9              		.eabi_attribute 24, 1
  10              		.eabi_attribute 25, 1
  11              		.eabi_attribute 26, 1
  12              		.eabi_attribute 30, 2
  13              		.eabi_attribute 34, 1
  14              		.eabi_attribute 18, 4
  15              		.thumb
  16              		.syntax unified
  17              		.file	"serial_usb.c"
  18              		.text
  19              	.Ltext0:
  20              		.cfi_sections	.debug_frame
  21              		.section	.text.onotify,"ax",%progbits
  22              		.align	2
  23              		.p2align 4,,15
  24              		.thumb
  25              		.thumb_func
  26              		.type	onotify, %function
  27              	onotify:
  28              	.LFB265:
  29              		.file 1 "ChibiOS_3.0.2/os/hal/src/serial_usb.c"
  30              		.loc 1 144 0
  31              		.cfi_startproc
  32              		@ args = 0, pretend = 0, frame = 0
  33              		@ frame_needed = 0, uses_anonymous_args = 0
  34              	.LVL0:
  35 0000 10B5     		push	{r4, lr}
  36              		.cfi_def_cfa_offset 8
  37              		.cfi_offset 4, -8
  38              		.cfi_offset 14, -4
  39              		.loc 1 146 0
  40 0002 046A     		ldr	r4, [r0, #32]
  41              	.LVL1:
  42              		.loc 1 150 0
  43 0004 D4F85422 		ldr	r2, [r4, #596]
  44 0008 1368     		ldr	r3, [r2]
  45 000a 1978     		ldrb	r1, [r3]	@ zero_extendqisi2
  46 000c 0429     		cmp	r1, #4
  47 000e 00D0     		beq	.L8
  48              	.LVL2:
  49              	.L1:
  50 0010 10BD     		pop	{r4, pc}
  51              	.LVL3:
  52              	.L8:
  53              		.loc 1 150 0 is_stmt 0 discriminator 1
  54 0012 217A     		ldrb	r1, [r4, #8]	@ zero_extendqisi2
  55 0014 0229     		cmp	r1, #2
  56 0016 FBD1     		bne	.L1
  57              		.loc 1 157 0 is_stmt 1
ARM GAS  /var/folders/sv/kgmgr77579zbf78p2zlhkdfr0000gn/T//ccQEQTTR.s 			page 2


  58 0018 1079     		ldrb	r0, [r2, #4]	@ zero_extendqisi2
  59              	.LVL4:
  60 001a 1989     		ldrh	r1, [r3, #8]
  61 001c 0122     		movs	r2, #1
  62 001e 02FA00F3 		lsl	r3, r2, r0
  63 0022 13EA0102 		ands	r2, r3, r1
  64 0026 F3D1     		bne	.L1
  65              	.LBB200:
  66              	.LBB201:
  67              		.file 2 "ChibiOS_3.0.2/os/rt/include/chqueues.h"
  68              		.loc 2 357 0
  69 0028 216C     		ldr	r1, [r4, #64]
  70 002a E36B     		ldr	r3, [r4, #60]
  71 002c A06B     		ldr	r0, [r4, #56]
  72 002e CB1A     		subs	r3, r1, r3
  73              	.LBE201:
  74              	.LBE200:
  75              		.loc 1 158 0
  76 0030 1B1A     		subs	r3, r3, r0
  77 0032 EDD0     		beq	.L1
  78              	.LVL5:
  79              	.LBB202:
  80              	.LBB203:
  81              	.LBB204:
  82              	.LBB205:
  83              	.LBB206:
  84              	.LBB207:
  85              		.file 3 "ChibiOS_3.0.2/os/ext/CMSIS/include/core_cmFunc.h"
  86              		.loc 3 546 0
  87              		.syntax unified
  88              	@ 546 "ChibiOS_3.0.2/os/ext/CMSIS/include/core_cmFunc.h" 1
  89 0034 82F31188 		MSR basepri, r2
  90              	@ 0 "" 2
  91              	.LVL6:
  92              		.thumb
  93              		.syntax unified
  94              	.LBE207:
  95              	.LBE206:
  96              	.LBE205:
  97              	.LBE204:
  98              	.LBE203:
  99              	.LBE202:
 100              		.loc 1 161 0
 101 0038 D4F85422 		ldr	r2, [r4, #596]
 102 003c 1179     		ldrb	r1, [r2, #4]	@ zero_extendqisi2
 103 003e 1068     		ldr	r0, [r2]
 104 0040 04F13002 		add	r2, r4, #48
 105 0044 FFF7FEFF 		bl	usbPrepareQueuedTransmit
 106              	.LVL7:
 107              	.LBB208:
 108              	.LBB209:
 109              	.LBB210:
 110              	.LBB211:
 111              	.LBB212:
 112              		.loc 3 546 0
 113 0048 2023     		movs	r3, #32
 114              		.syntax unified
ARM GAS  /var/folders/sv/kgmgr77579zbf78p2zlhkdfr0000gn/T//ccQEQTTR.s 			page 3


 115              	@ 546 "ChibiOS_3.0.2/os/ext/CMSIS/include/core_cmFunc.h" 1
 116 004a 83F31188 		MSR basepri, r3
 117              	@ 0 "" 2
 118              	.LVL8:
 119              		.thumb
 120              		.syntax unified
 121              	.LBE212:
 122              	.LBE211:
 123              	.LBE210:
 124              	.LBE209:
 125              	.LBE208:
 126              		.loc 1 166 0
 127 004e D4F85432 		ldr	r3, [r4, #596]
 128              		.loc 1 169 0
 129 0052 BDE81040 		pop	{r4, lr}
 130              		.cfi_restore 14
 131              		.cfi_restore 4
 132              		.cfi_def_cfa_offset 0
 133              	.LVL9:
 134              		.loc 1 166 0
 135 0056 1979     		ldrb	r1, [r3, #4]	@ zero_extendqisi2
 136 0058 1868     		ldr	r0, [r3]
 137 005a FFF7FEBF 		b	usbStartTransmitI
 138              	.LVL10:
 139              		.cfi_endproc
 140              	.LFE265:
 141              		.size	onotify, .-onotify
 142 005e 00BF     		.section	.text.inotify,"ax",%progbits
 143              		.align	2
 144              		.p2align 4,,15
 145              		.thumb
 146              		.thumb_func
 147              		.type	inotify, %function
 148              	inotify:
 149              	.LFB264:
 150              		.loc 1 109 0
 151              		.cfi_startproc
 152              		@ args = 0, pretend = 0, frame = 0
 153              		@ frame_needed = 0, uses_anonymous_args = 0
 154              	.LVL11:
 155 0000 38B5     		push	{r3, r4, r5, lr}
 156              		.cfi_def_cfa_offset 16
 157              		.cfi_offset 3, -16
 158              		.cfi_offset 4, -12
 159              		.cfi_offset 5, -8
 160              		.cfi_offset 14, -4
 161              		.loc 1 111 0
 162 0002 046A     		ldr	r4, [r0, #32]
 163              	.LVL12:
 164              		.loc 1 115 0
 165 0004 D4F85422 		ldr	r2, [r4, #596]
 166 0008 1368     		ldr	r3, [r2]
 167 000a 1978     		ldrb	r1, [r3]	@ zero_extendqisi2
 168 000c 0429     		cmp	r1, #4
 169 000e 00D0     		beq	.L12
 170              	.LVL13:
 171              	.L9:
ARM GAS  /var/folders/sv/kgmgr77579zbf78p2zlhkdfr0000gn/T//ccQEQTTR.s 			page 4


 172 0010 38BD     		pop	{r3, r4, r5, pc}
 173              	.LVL14:
 174              	.L12:
 175              		.loc 1 115 0 is_stmt 0 discriminator 1
 176 0012 217A     		ldrb	r1, [r4, #8]	@ zero_extendqisi2
 177 0014 0229     		cmp	r1, #2
 178 0016 FBD1     		bne	.L9
 179              		.loc 1 123 0 is_stmt 1
 180 0018 5079     		ldrb	r0, [r2, #5]	@ zero_extendqisi2
 181              	.LVL15:
 182              		.loc 1 124 0
 183 001a 5989     		ldrh	r1, [r3, #10]
 184 001c 0122     		movs	r2, #1
 185 001e 8240     		lsls	r2, r2, r0
 186 0020 0A40     		ands	r2, r2, r1
 187 0022 F5D1     		bne	.L9
 188              		.loc 1 123 0
 189 0024 03EB8003 		add	r3, r3, r0, lsl #2
 190              	.LVL16:
 191              	.LBB213:
 192              	.LBB214:
 193              		.loc 2 290 0
 194 0028 A169     		ldr	r1, [r4, #24]
 195 002a E069     		ldr	r0, [r4, #28]
 196              	.LVL17:
 197              	.LBE214:
 198              	.LBE213:
 199              		.loc 1 123 0
 200 002c DB68     		ldr	r3, [r3, #12]
 201              	.LBB217:
 202              	.LBB215:
 203              		.loc 2 290 0
 204 002e 6569     		ldr	r5, [r4, #20]
 205              	.LBE215:
 206              	.LBE217:
 207              		.loc 1 123 0
 208 0030 5B8A     		ldrh	r3, [r3, #18]
 209              	.LVL18:
 210              	.LBB218:
 211              	.LBB216:
 212              		.loc 2 290 0
 213 0032 401A     		subs	r0, r0, r1
 214 0034 411B     		subs	r1, r0, r5
 215              	.LVL19:
 216              	.LBE216:
 217              	.LBE218:
 218              		.loc 1 125 0
 219 0036 8B42     		cmp	r3, r1
 220 0038 EAD8     		bhi	.L9
 221              	.LVL20:
 222              	.LBB219:
 223              	.LBB220:
 224              	.LBB221:
 225              	.LBB222:
 226              	.LBB223:
 227              	.LBB224:
 228              		.loc 3 546 0
ARM GAS  /var/folders/sv/kgmgr77579zbf78p2zlhkdfr0000gn/T//ccQEQTTR.s 			page 5


 229              		.syntax unified
 230              	@ 546 "ChibiOS_3.0.2/os/ext/CMSIS/include/core_cmFunc.h" 1
 231 003a 82F31188 		MSR basepri, r2
 232              	@ 0 "" 2
 233              	.LVL21:
 234              		.thumb
 235              		.syntax unified
 236              	.LBE224:
 237              	.LBE223:
 238              	.LBE222:
 239              	.LBE221:
 240              	.LBE220:
 241              	.LBE219:
 242              		.loc 1 129 0
 243 003e B1FBF3F1 		udiv	r1, r1, r3
 244              	.LVL22:
 245 0042 D4F85422 		ldr	r2, [r4, #596]
 246 0046 03FB01F3 		mul	r3, r3, r1
 247              	.LVL23:
 248 004a 1068     		ldr	r0, [r2]
 249 004c 5179     		ldrb	r1, [r2, #5]	@ zero_extendqisi2
 250 004e 04F10C02 		add	r2, r4, #12
 251 0052 FFF7FEFF 		bl	usbPrepareQueuedReceive
 252              	.LVL24:
 253              	.LBB225:
 254              	.LBB226:
 255              	.LBB227:
 256              	.LBB228:
 257              	.LBB229:
 258              		.loc 3 546 0
 259 0056 2023     		movs	r3, #32
 260              		.syntax unified
 261              	@ 546 "ChibiOS_3.0.2/os/ext/CMSIS/include/core_cmFunc.h" 1
 262 0058 83F31188 		MSR basepri, r3
 263              	@ 0 "" 2
 264              	.LVL25:
 265              		.thumb
 266              		.syntax unified
 267              	.LBE229:
 268              	.LBE228:
 269              	.LBE227:
 270              	.LBE226:
 271              	.LBE225:
 272              		.loc 1 134 0
 273 005c D4F85432 		ldr	r3, [r4, #596]
 274 0060 5979     		ldrb	r1, [r3, #5]	@ zero_extendqisi2
 275 0062 1868     		ldr	r0, [r3]
 276              		.loc 1 137 0
 277 0064 BDE83840 		pop	{r3, r4, r5, lr}
 278              		.cfi_restore 14
 279              		.cfi_restore 5
 280              		.cfi_restore 4
 281              		.cfi_restore 3
 282              		.cfi_def_cfa_offset 0
 283              	.LVL26:
 284              		.loc 1 134 0
 285 0068 FFF7FEBF 		b	usbStartReceiveI
ARM GAS  /var/folders/sv/kgmgr77579zbf78p2zlhkdfr0000gn/T//ccQEQTTR.s 			page 6


 286              	.LVL27:
 287              		.cfi_endproc
 288              	.LFE264:
 289              		.size	inotify, .-inotify
 290              		.section	.text.readt,"ax",%progbits
 291              		.align	2
 292              		.p2align 4,,15
 293              		.thumb
 294              		.thumb_func
 295              		.type	readt, %function
 296              	readt:
 297              	.LFB263:
 298              		.loc 1 94 0
 299              		.cfi_startproc
 300              		@ args = 0, pretend = 0, frame = 0
 301              		@ frame_needed = 0, uses_anonymous_args = 0
 302              		@ link register save eliminated.
 303              	.LVL28:
 304              		.loc 1 96 0
 305 0000 0C30     		adds	r0, r0, #12
 306              	.LVL29:
 307 0002 FFF7FEBF 		b	chIQReadTimeout
 308              	.LVL30:
 309              		.cfi_endproc
 310              	.LFE263:
 311              		.size	readt, .-readt
 312 0006 00BF     		.section	.text.read,"ax",%progbits
 313              		.align	2
 314              		.p2align 4,,15
 315              		.thumb
 316              		.thumb_func
 317              		.type	read, %function
 318              	read:
 319              	.LFB257:
 320              		.loc 1 63 0
 321              		.cfi_startproc
 322              		@ args = 0, pretend = 0, frame = 0
 323              		@ frame_needed = 0, uses_anonymous_args = 0
 324              		@ link register save eliminated.
 325              	.LVL31:
 326              		.loc 1 65 0
 327 0000 0C30     		adds	r0, r0, #12
 328              	.LVL32:
 329 0002 4FF0FF33 		mov	r3, #-1
 330 0006 FFF7FEBF 		b	chIQReadTimeout
 331              	.LVL33:
 332              		.cfi_endproc
 333              	.LFE257:
 334              		.size	read, .-read
 335 000a 00BF     		.section	.text.writet,"ax",%progbits
 336              		.align	2
 337              		.p2align 4,,15
 338              		.thumb
 339              		.thumb_func
 340              		.type	writet, %function
 341              	writet:
 342              	.LFB262:
ARM GAS  /var/folders/sv/kgmgr77579zbf78p2zlhkdfr0000gn/T//ccQEQTTR.s 			page 7


 343              		.loc 1 89 0
 344              		.cfi_startproc
 345              		@ args = 0, pretend = 0, frame = 0
 346              		@ frame_needed = 0, uses_anonymous_args = 0
 347              		@ link register save eliminated.
 348              	.LVL34:
 349              		.loc 1 91 0
 350 0000 3030     		adds	r0, r0, #48
 351              	.LVL35:
 352 0002 FFF7FEBF 		b	chOQWriteTimeout
 353              	.LVL36:
 354              		.cfi_endproc
 355              	.LFE262:
 356              		.size	writet, .-writet
 357 0006 00BF     		.section	.text.write,"ax",%progbits
 358              		.align	2
 359              		.p2align 4,,15
 360              		.thumb
 361              		.thumb_func
 362              		.type	write, %function
 363              	write:
 364              	.LFB256:
 365              		.loc 1 57 0
 366              		.cfi_startproc
 367              		@ args = 0, pretend = 0, frame = 0
 368              		@ frame_needed = 0, uses_anonymous_args = 0
 369              		@ link register save eliminated.
 370              	.LVL37:
 371              		.loc 1 59 0
 372 0000 3030     		adds	r0, r0, #48
 373              	.LVL38:
 374 0002 4FF0FF33 		mov	r3, #-1
 375 0006 FFF7FEBF 		b	chOQWriteTimeout
 376              	.LVL39:
 377              		.cfi_endproc
 378              	.LFE256:
 379              		.size	write, .-write
 380 000a 00BF     		.section	.text.gett,"ax",%progbits
 381              		.align	2
 382              		.p2align 4,,15
 383              		.thumb
 384              		.thumb_func
 385              		.type	gett, %function
 386              	gett:
 387              	.LFB261:
 388              		.loc 1 84 0
 389              		.cfi_startproc
 390              		@ args = 0, pretend = 0, frame = 0
 391              		@ frame_needed = 0, uses_anonymous_args = 0
 392              		@ link register save eliminated.
 393              	.LVL40:
 394              		.loc 1 86 0
 395 0000 0C30     		adds	r0, r0, #12
 396              	.LVL41:
 397 0002 FFF7FEBF 		b	chIQGetTimeout
 398              	.LVL42:
 399              		.cfi_endproc
ARM GAS  /var/folders/sv/kgmgr77579zbf78p2zlhkdfr0000gn/T//ccQEQTTR.s 			page 8


 400              	.LFE261:
 401              		.size	gett, .-gett
 402 0006 00BF     		.section	.text.get,"ax",%progbits
 403              		.align	2
 404              		.p2align 4,,15
 405              		.thumb
 406              		.thumb_func
 407              		.type	get, %function
 408              	get:
 409              	.LFB259:
 410              		.loc 1 74 0
 411              		.cfi_startproc
 412              		@ args = 0, pretend = 0, frame = 0
 413              		@ frame_needed = 0, uses_anonymous_args = 0
 414              		@ link register save eliminated.
 415              	.LVL43:
 416              		.loc 1 76 0
 417 0000 0C30     		adds	r0, r0, #12
 418              	.LVL44:
 419 0002 4FF0FF31 		mov	r1, #-1
 420 0006 FFF7FEBF 		b	chIQGetTimeout
 421              	.LVL45:
 422              		.cfi_endproc
 423              	.LFE259:
 424              		.size	get, .-get
 425 000a 00BF     		.section	.text.putt,"ax",%progbits
 426              		.align	2
 427              		.p2align 4,,15
 428              		.thumb
 429              		.thumb_func
 430              		.type	putt, %function
 431              	putt:
 432              	.LFB260:
 433              		.loc 1 79 0
 434              		.cfi_startproc
 435              		@ args = 0, pretend = 0, frame = 0
 436              		@ frame_needed = 0, uses_anonymous_args = 0
 437              		@ link register save eliminated.
 438              	.LVL46:
 439              		.loc 1 81 0
 440 0000 3030     		adds	r0, r0, #48
 441              	.LVL47:
 442 0002 FFF7FEBF 		b	chOQPutTimeout
 443              	.LVL48:
 444              		.cfi_endproc
 445              	.LFE260:
 446              		.size	putt, .-putt
 447 0006 00BF     		.section	.text.put,"ax",%progbits
 448              		.align	2
 449              		.p2align 4,,15
 450              		.thumb
 451              		.thumb_func
 452              		.type	put, %function
 453              	put:
 454              	.LFB258:
 455              		.loc 1 69 0
 456              		.cfi_startproc
ARM GAS  /var/folders/sv/kgmgr77579zbf78p2zlhkdfr0000gn/T//ccQEQTTR.s 			page 9


 457              		@ args = 0, pretend = 0, frame = 0
 458              		@ frame_needed = 0, uses_anonymous_args = 0
 459              		@ link register save eliminated.
 460              	.LVL49:
 461              		.loc 1 71 0
 462 0000 3030     		adds	r0, r0, #48
 463              	.LVL50:
 464 0002 4FF0FF32 		mov	r2, #-1
 465 0006 FFF7FEBF 		b	chOQPutTimeout
 466              	.LVL51:
 467              		.cfi_endproc
 468              	.LFE258:
 469              		.size	put, .-put
 470 000a 00BF     		.section	.text.sduInit,"ax",%progbits
 471              		.align	2
 472              		.p2align 4,,15
 473              		.global	sduInit
 474              		.thumb
 475              		.thumb_func
 476              		.type	sduInit, %function
 477              	sduInit:
 478              	.LFB266:
 479              		.loc 1 182 0
 480              		.cfi_startproc
 481              		@ args = 0, pretend = 0, frame = 0
 482              		@ frame_needed = 0, uses_anonymous_args = 0
 483              		@ link register save eliminated.
 484 0000 7047     		bx	lr
 485              		.cfi_endproc
 486              	.LFE266:
 487              		.size	sduInit, .-sduInit
 488 0002 00BF     		.section	.text.sduObjectInit,"ax",%progbits
 489              		.align	2
 490              		.p2align 4,,15
 491              		.global	sduObjectInit
 492              		.thumb
 493              		.thumb_func
 494              		.type	sduObjectInit, %function
 495              	sduObjectInit:
 496              	.LFB267:
 497              		.loc 1 194 0
 498              		.cfi_startproc
 499              		@ args = 0, pretend = 0, frame = 0
 500              		@ frame_needed = 0, uses_anonymous_args = 0
 501              	.LVL52:
 502              		.loc 1 194 0
 503 0000 10B5     		push	{r4, lr}
 504              		.cfi_def_cfa_offset 8
 505              		.cfi_offset 4, -8
 506              		.cfi_offset 14, -4
 507              		.loc 1 196 0
 508 0002 0346     		mov	r3, r0
 509 0004 0E4A     		ldr	r2, .L24
 510 0006 43F8042B 		str	r2, [r3], #4
 511              	.LVL53:
 512              		.loc 1 194 0
 513 000a 82B0     		sub	sp, sp, #8
ARM GAS  /var/folders/sv/kgmgr77579zbf78p2zlhkdfr0000gn/T//ccQEQTTR.s 			page 10


 514              		.cfi_def_cfa_offset 16
 515              		.loc 1 198 0
 516 000c 0122     		movs	r2, #1
 517              		.loc 1 194 0
 518 000e 0446     		mov	r4, r0
 519              		.loc 1 199 0
 520 0010 0090     		str	r0, [sp]
 521 0012 00F15401 		add	r1, r0, #84
 522              	.LBB230:
 523              	.LBB231:
 524              	.LBB232:
 525              		.file 4 "ChibiOS_3.0.2/os/rt/include/chevents.h"
 526              		.loc 4 172 0
 527 0016 4360     		str	r3, [r0, #4]
 528              	.LVL54:
 529              	.LBE232:
 530              	.LBE231:
 531              	.LBE230:
 532              		.loc 1 198 0
 533 0018 0272     		strb	r2, [r0, #8]
 534              		.loc 1 199 0
 535 001a 0A4B     		ldr	r3, .L24+4
 536 001c 0C30     		adds	r0, r0, #12
 537              	.LVL55:
 538 001e 4FF48072 		mov	r2, #256
 539 0022 FFF7FEFF 		bl	chIQObjectInit
 540              	.LVL56:
 541              		.loc 1 200 0
 542 0026 0094     		str	r4, [sp]
 543 0028 04F5AA71 		add	r1, r4, #340
 544 002c 04F13000 		add	r0, r4, #48
 545 0030 054B     		ldr	r3, .L24+8
 546 0032 4FF48072 		mov	r2, #256
 547 0036 FFF7FEFF 		bl	chOQObjectInit
 548              	.LVL57:
 549              		.loc 1 201 0
 550 003a 02B0     		add	sp, sp, #8
 551              		.cfi_def_cfa_offset 8
 552              		@ sp needed
 553 003c 10BD     		pop	{r4, pc}
 554              	.LVL58:
 555              	.L25:
 556 003e 00BF     		.align	2
 557              	.L24:
 558 0040 00000000 		.word	.LANCHOR0
 559 0044 00000000 		.word	inotify
 560 0048 00000000 		.word	onotify
 561              		.cfi_endproc
 562              	.LFE267:
 563              		.size	sduObjectInit, .-sduObjectInit
 564              		.section	.text.sduStart,"ax",%progbits
 565              		.align	2
 566              		.p2align 4,,15
 567              		.global	sduStart
 568              		.thumb
 569              		.thumb_func
 570              		.type	sduStart, %function
ARM GAS  /var/folders/sv/kgmgr77579zbf78p2zlhkdfr0000gn/T//ccQEQTTR.s 			page 11


 571              	sduStart:
 572              	.LFB268:
 573              		.loc 1 211 0
 574              		.cfi_startproc
 575              		@ args = 0, pretend = 0, frame = 0
 576              		@ frame_needed = 0, uses_anonymous_args = 0
 577              		@ link register save eliminated.
 578              	.LVL59:
 579              		.loc 1 212 0
 580 0000 0B68     		ldr	r3, [r1]
 581              	.LVL60:
 582              	.LBB233:
 583              	.LBB234:
 584              	.LBB235:
 585              	.LBB236:
 586              	.LBB237:
 587              		.loc 3 546 0
 588 0002 2022     		movs	r2, #32
 589              		.syntax unified
 590              	@ 546 "ChibiOS_3.0.2/os/ext/CMSIS/include/core_cmFunc.h" 1
 591 0004 82F31188 		MSR basepri, r2
 592              	@ 0 "" 2
 593              	.LVL61:
 594              		.thumb
 595              		.syntax unified
 596              	.LBE237:
 597              	.LBE236:
 598              	.LBE235:
 599              	.LBE234:
 600              	.LBE233:
 601              		.loc 1 219 0
 602 0008 0A79     		ldrb	r2, [r1, #4]	@ zero_extendqisi2
 603 000a 03EB8202 		add	r2, r3, r2, lsl #2
 604 000e 9061     		str	r0, [r2, #24]
 605              		.loc 1 220 0
 606 0010 4A79     		ldrb	r2, [r1, #5]	@ zero_extendqisi2
 607 0012 0932     		adds	r2, r2, #9
 608 0014 43F82200 		str	r0, [r3, r2, lsl #2]
 609              		.loc 1 221 0
 610 0018 8A79     		ldrb	r2, [r1, #6]	@ zero_extendqisi2
 611 001a 12B1     		cbz	r2, .L27
 612              		.loc 1 222 0
 613 001c 03EB8203 		add	r3, r3, r2, lsl #2
 614              	.LVL62:
 615 0020 9861     		str	r0, [r3, #24]
 616              	.L27:
 617              		.loc 1 225 0
 618 0022 0223     		movs	r3, #2
 619 0024 0372     		strb	r3, [r0, #8]
 620              	.LVL63:
 621              		.loc 1 224 0
 622 0026 C0F85412 		str	r1, [r0, #596]
 623              	.LBB238:
 624              	.LBB239:
 625              	.LBB240:
 626              	.LBB241:
 627              	.LBB242:
ARM GAS  /var/folders/sv/kgmgr77579zbf78p2zlhkdfr0000gn/T//ccQEQTTR.s 			page 12


 628              	.LBB243:
 629              		.loc 3 546 0
 630 002a 0023     		movs	r3, #0
 631              		.syntax unified
 632              	@ 546 "ChibiOS_3.0.2/os/ext/CMSIS/include/core_cmFunc.h" 1
 633 002c 83F31188 		MSR basepri, r3
 634              	@ 0 "" 2
 635              	.LVL64:
 636              		.thumb
 637              		.syntax unified
 638 0030 7047     		bx	lr
 639              	.LBE243:
 640              	.LBE242:
 641              	.LBE241:
 642              	.LBE240:
 643              	.LBE239:
 644              	.LBE238:
 645              		.cfi_endproc
 646              	.LFE268:
 647              		.size	sduStart, .-sduStart
 648 0032 00BF     		.section	.text.sduStop,"ax",%progbits
 649              		.align	2
 650              		.p2align 4,,15
 651              		.global	sduStop
 652              		.thumb
 653              		.thumb_func
 654              		.type	sduStop, %function
 655              	sduStop:
 656              	.LFB269:
 657              		.loc 1 238 0
 658              		.cfi_startproc
 659              		@ args = 0, pretend = 0, frame = 0
 660              		@ frame_needed = 0, uses_anonymous_args = 0
 661              	.LVL65:
 662              		.loc 1 239 0
 663 0000 D0F85422 		ldr	r2, [r0, #596]
 664              		.loc 1 238 0
 665 0004 10B5     		push	{r4, lr}
 666              		.cfi_def_cfa_offset 8
 667              		.cfi_offset 4, -8
 668              		.cfi_offset 14, -4
 669              	.LBB244:
 670              	.LBB245:
 671              	.LBB246:
 672              	.LBB247:
 673              	.LBB248:
 674              		.loc 3 546 0
 675 0006 2023     		movs	r3, #32
 676              	.LBE248:
 677              	.LBE247:
 678              	.LBE246:
 679              	.LBE245:
 680              	.LBE244:
 681              		.loc 1 238 0
 682 0008 0446     		mov	r4, r0
 683              		.loc 1 239 0
 684 000a 1268     		ldr	r2, [r2]
ARM GAS  /var/folders/sv/kgmgr77579zbf78p2zlhkdfr0000gn/T//ccQEQTTR.s 			page 13


 685              	.LVL66:
 686              	.LBB253:
 687              	.LBB252:
 688              	.LBB251:
 689              	.LBB250:
 690              	.LBB249:
 691              		.loc 3 546 0
 692              		.syntax unified
 693              	@ 546 "ChibiOS_3.0.2/os/ext/CMSIS/include/core_cmFunc.h" 1
 694 000c 83F31188 		MSR basepri, r3
 695              	@ 0 "" 2
 696              	.LVL67:
 697              		.thumb
 698              		.syntax unified
 699              	.LBE249:
 700              	.LBE250:
 701              	.LBE251:
 702              	.LBE252:
 703              	.LBE253:
 704              		.loc 1 248 0
 705 0010 D0F85412 		ldr	r1, [r0, #596]
 706 0014 0B79     		ldrb	r3, [r1, #4]	@ zero_extendqisi2
 707 0016 0533     		adds	r3, r3, #5
 708 0018 02EB8303 		add	r3, r2, r3, lsl #2
 709 001c 0020     		movs	r0, #0
 710              	.LVL68:
 711 001e 5860     		str	r0, [r3, #4]
 712              		.loc 1 249 0
 713 0020 4B79     		ldrb	r3, [r1, #5]	@ zero_extendqisi2
 714 0022 0933     		adds	r3, r3, #9
 715 0024 42F82300 		str	r0, [r2, r3, lsl #2]
 716              		.loc 1 250 0
 717 0028 8B79     		ldrb	r3, [r1, #6]	@ zero_extendqisi2
 718 002a 1BB1     		cbz	r3, .L32
 719              		.loc 1 251 0
 720 002c 0533     		adds	r3, r3, #5
 721 002e 02EB8302 		add	r2, r2, r3, lsl #2
 722              	.LVL69:
 723 0032 5060     		str	r0, [r2, #4]
 724              	.L32:
 725              		.loc 1 253 0
 726 0034 0123     		movs	r3, #1
 727 0036 2372     		strb	r3, [r4, #8]
 728              	.LVL70:
 729              	.LBB254:
 730              	.LBB255:
 731              		.file 5 "ChibiOS_3.0.2/os/hal/osal/rt/osal.h"
 732              		.loc 5 844 0
 733 0038 0221     		movs	r1, #2
 734 003a 201D     		adds	r0, r4, #4
 735              	.LVL71:
 736 003c FFF7FEFF 		bl	chEvtBroadcastFlagsI
 737              	.LVL72:
 738              	.LBE255:
 739              	.LBE254:
 740              		.loc 1 257 0
 741 0040 04F10C00 		add	r0, r4, #12
ARM GAS  /var/folders/sv/kgmgr77579zbf78p2zlhkdfr0000gn/T//ccQEQTTR.s 			page 14


 742 0044 FFF7FEFF 		bl	chIQResetI
 743              	.LVL73:
 744              		.loc 1 258 0
 745 0048 04F13000 		add	r0, r4, #48
 746 004c FFF7FEFF 		bl	chIQResetI
 747              	.LVL74:
 748              	.LBB256:
 749              	.LBB257:
 750              		.loc 5 600 0
 751 0050 FFF7FEFF 		bl	chSchRescheduleS
 752              	.LVL75:
 753              	.LBE257:
 754              	.LBE256:
 755              	.LBB258:
 756              	.LBB259:
 757              	.LBB260:
 758              	.LBB261:
 759              	.LBB262:
 760              	.LBB263:
 761              		.loc 3 546 0
 762 0054 0023     		movs	r3, #0
 763              		.syntax unified
 764              	@ 546 "ChibiOS_3.0.2/os/ext/CMSIS/include/core_cmFunc.h" 1
 765 0056 83F31188 		MSR basepri, r3
 766              	@ 0 "" 2
 767              	.LVL76:
 768              		.thumb
 769              		.syntax unified
 770 005a 10BD     		pop	{r4, pc}
 771              	.LBE263:
 772              	.LBE262:
 773              	.LBE261:
 774              	.LBE260:
 775              	.LBE259:
 776              	.LBE258:
 777              		.cfi_endproc
 778              	.LFE269:
 779              		.size	sduStop, .-sduStop
 780              		.section	.text.sduConfigureHookI,"ax",%progbits
 781              		.align	2
 782              		.p2align 4,,15
 783              		.global	sduConfigureHookI
 784              		.thumb
 785              		.thumb_func
 786              		.type	sduConfigureHookI, %function
 787              	sduConfigureHookI:
 788              	.LFB270:
 789              		.loc 1 270 0
 790              		.cfi_startproc
 791              		@ args = 0, pretend = 0, frame = 0
 792              		@ frame_needed = 0, uses_anonymous_args = 0
 793              	.LVL77:
 794 0000 70B5     		push	{r4, r5, r6, lr}
 795              		.cfi_def_cfa_offset 16
 796              		.cfi_offset 4, -16
 797              		.cfi_offset 5, -12
 798              		.cfi_offset 6, -8
ARM GAS  /var/folders/sv/kgmgr77579zbf78p2zlhkdfr0000gn/T//ccQEQTTR.s 			page 15


 799              		.cfi_offset 14, -4
 800              		.loc 1 271 0
 801 0002 D0F85432 		ldr	r3, [r0, #596]
 802              		.loc 1 273 0
 803 0006 00F10C06 		add	r6, r0, #12
 804              		.loc 1 270 0
 805 000a 0446     		mov	r4, r0
 806              		.loc 1 273 0
 807 000c 3046     		mov	r0, r6
 808              	.LVL78:
 809              		.loc 1 271 0
 810 000e 1D68     		ldr	r5, [r3]
 811              	.LVL79:
 812              		.loc 1 273 0
 813 0010 FFF7FEFF 		bl	chIQResetI
 814              	.LVL80:
 815              		.loc 1 274 0
 816 0014 04F13000 		add	r0, r4, #48
 817 0018 FFF7FEFF 		bl	chOQResetI
 818              	.LVL81:
 819              	.LBB264:
 820              	.LBB265:
 821              		.loc 5 844 0
 822 001c 201D     		adds	r0, r4, #4
 823              	.LVL82:
 824 001e 0121     		movs	r1, #1
 825 0020 FFF7FEFF 		bl	chEvtBroadcastFlagsI
 826              	.LVL83:
 827              	.LBE265:
 828              	.LBE264:
 829              		.loc 1 279 0
 830 0024 D4F85432 		ldr	r3, [r4, #596]
 831 0028 5979     		ldrb	r1, [r3, #5]	@ zero_extendqisi2
 832 002a 05EB8103 		add	r3, r5, r1, lsl #2
 833              		.loc 1 278 0
 834 002e 2846     		mov	r0, r5
 835              		.loc 1 279 0
 836 0030 DB68     		ldr	r3, [r3, #12]
 837              		.loc 1 278 0
 838 0032 3246     		mov	r2, r6
 839 0034 5B8A     		ldrh	r3, [r3, #18]
 840 0036 FFF7FEFF 		bl	usbPrepareQueuedReceive
 841              	.LVL84:
 842              		.loc 1 280 0
 843 003a D4F85432 		ldr	r3, [r4, #596]
 844 003e 2846     		mov	r0, r5
 845 0040 5979     		ldrb	r1, [r3, #5]	@ zero_extendqisi2
 846              		.loc 1 281 0
 847 0042 BDE87040 		pop	{r4, r5, r6, lr}
 848              		.cfi_restore 14
 849              		.cfi_restore 6
 850              		.cfi_restore 5
 851              		.cfi_restore 4
 852              		.cfi_def_cfa_offset 0
 853              	.LVL85:
 854              		.loc 1 280 0
 855 0046 FFF7FEBF 		b	usbStartReceiveI
ARM GAS  /var/folders/sv/kgmgr77579zbf78p2zlhkdfr0000gn/T//ccQEQTTR.s 			page 16


 856              	.LVL86:
 857              		.cfi_endproc
 858              	.LFE270:
 859              		.size	sduConfigureHookI, .-sduConfigureHookI
 860 004a 00BF     		.section	.text.sduRequestsHook,"ax",%progbits
 861              		.align	2
 862              		.p2align 4,,15
 863              		.global	sduRequestsHook
 864              		.thumb
 865              		.thumb_func
 866              		.type	sduRequestsHook, %function
 867              	sduRequestsHook:
 868              	.LFB271:
 869              		.loc 1 298 0
 870              		.cfi_startproc
 871              		@ args = 0, pretend = 0, frame = 0
 872              		@ frame_needed = 0, uses_anonymous_args = 0
 873              		@ link register save eliminated.
 874              	.LVL87:
 875              		.loc 1 300 0
 876 0000 90F84430 		ldrb	r3, [r0, #68]	@ zero_extendqisi2
 877 0004 03F06003 		and	r3, r3, #96
 878 0008 202B     		cmp	r3, #32
 879 000a 01D0     		beq	.L47
 880              	.L46:
 881              		.loc 1 313 0
 882 000c 0020     		movs	r0, #0
 883              	.LVL88:
 884              		.loc 1 317 0
 885 000e 7047     		bx	lr
 886              	.LVL89:
 887              	.L47:
 888              		.loc 1 301 0
 889 0010 90F84530 		ldrb	r3, [r0, #69]	@ zero_extendqisi2
 890 0014 212B     		cmp	r3, #33
 891 0016 03D0     		beq	.L43
 892 0018 222B     		cmp	r3, #34
 893 001a 09D0     		beq	.L42
 894 001c 202B     		cmp	r3, #32
 895 001e F5D1     		bne	.L46
 896              	.L43:
 897              		.loc 1 306 0
 898 0020 064B     		ldr	r3, .L48
 899 0022 8363     		str	r3, [r0, #56]
 900 0024 0722     		movs	r2, #7
 901 0026 0023     		movs	r3, #0
 902 0028 C263     		str	r2, [r0, #60]
 903 002a 0364     		str	r3, [r0, #64]
 904              		.loc 1 307 0
 905 002c 0120     		movs	r0, #1
 906              	.LVL90:
 907 002e 7047     		bx	lr
 908              	.LVL91:
 909              	.L42:
 910              		.loc 1 310 0
 911 0030 0023     		movs	r3, #0
 912 0032 8363     		str	r3, [r0, #56]
ARM GAS  /var/folders/sv/kgmgr77579zbf78p2zlhkdfr0000gn/T//ccQEQTTR.s 			page 17


 913 0034 C363     		str	r3, [r0, #60]
 914 0036 0364     		str	r3, [r0, #64]
 915              		.loc 1 311 0
 916 0038 0120     		movs	r0, #1
 917              	.LVL92:
 918 003a 7047     		bx	lr
 919              	.L49:
 920              		.align	2
 921              	.L48:
 922 003c 00000000 		.word	.LANCHOR1
 923              		.cfi_endproc
 924              	.LFE271:
 925              		.size	sduRequestsHook, .-sduRequestsHook
 926              		.section	.text.sduDataTransmitted,"ax",%progbits
 927              		.align	2
 928              		.p2align 4,,15
 929              		.global	sduDataTransmitted
 930              		.thumb
 931              		.thumb_func
 932              		.type	sduDataTransmitted, %function
 933              	sduDataTransmitted:
 934              	.LFB272:
 935              		.loc 1 327 0
 936              		.cfi_startproc
 937              		@ args = 0, pretend = 0, frame = 0
 938              		@ frame_needed = 0, uses_anonymous_args = 0
 939              	.LVL93:
 940 0000 F8B5     		push	{r3, r4, r5, r6, r7, lr}
 941              		.cfi_def_cfa_offset 24
 942              		.cfi_offset 3, -24
 943              		.cfi_offset 4, -20
 944              		.cfi_offset 5, -16
 945              		.cfi_offset 6, -12
 946              		.cfi_offset 7, -8
 947              		.cfi_offset 14, -4
 948              		.loc 1 329 0
 949 0002 00EB8103 		add	r3, r0, r1, lsl #2
 950 0006 9C69     		ldr	r4, [r3, #24]
 951              	.LVL94:
 952              		.loc 1 331 0
 953 0008 BCB1     		cbz	r4, .L50
 954              	.LVL95:
 955 000a 0E46     		mov	r6, r1
 956 000c 0546     		mov	r5, r0
 957              	.LBB266:
 958              	.LBB267:
 959              	.LBB268:
 960              	.LBB269:
 961              	.LBB270:
 962              	.LBB271:
 963              		.loc 3 546 0
 964 000e 2027     		movs	r7, #32
 965              		.syntax unified
 966              	@ 546 "ChibiOS_3.0.2/os/ext/CMSIS/include/core_cmFunc.h" 1
 967 0010 87F31188 		MSR basepri, r7
 968              	@ 0 "" 2
 969              	.LVL96:
ARM GAS  /var/folders/sv/kgmgr77579zbf78p2zlhkdfr0000gn/T//ccQEQTTR.s 			page 18


 970              		.thumb
 971              		.syntax unified
 972              	.LBE271:
 973              	.LBE270:
 974              	.LBE269:
 975              	.LBE268:
 976              	.LBE267:
 977              	.LBE266:
 978              	.LBB272:
 979              	.LBB273:
 980              		.loc 5 844 0
 981 0014 0821     		movs	r1, #8
 982              	.LVL97:
 983 0016 201D     		adds	r0, r4, #4
 984              	.LVL98:
 985 0018 FFF7FEFF 		bl	chEvtBroadcastFlagsI
 986              	.LVL99:
 987              	.LBE273:
 988              	.LBE272:
 989              	.LBB274:
 990              	.LBB275:
 991              		.loc 2 357 0
 992 001c 226C     		ldr	r2, [r4, #64]
 993 001e E36B     		ldr	r3, [r4, #60]
 994 0020 A16B     		ldr	r1, [r4, #56]
 995 0022 D31A     		subs	r3, r2, r3
 996              	.LBE275:
 997              	.LBE274:
 998              		.loc 1 339 0
 999 0024 5B1A     		subs	r3, r3, r1
 1000 0026 10D1     		bne	.L62
 1001              		.loc 1 349 0
 1002 0028 05EB8603 		add	r3, r5, r6, lsl #2
 1003 002c DB68     		ldr	r3, [r3, #12]
 1004 002e 5A69     		ldr	r2, [r3, #20]
 1005 0030 5268     		ldr	r2, [r2, #4]
 1006 0032 1AB9     		cbnz	r2, .L63
 1007              	.L53:
 1008              	.LVL100:
 1009              	.LBB276:
 1010              	.LBB277:
 1011              	.LBB278:
 1012              	.LBB279:
 1013              	.LBB280:
 1014              	.LBB281:
 1015              		.loc 3 546 0
 1016 0034 0023     		movs	r3, #0
 1017              		.syntax unified
 1018              	@ 546 "ChibiOS_3.0.2/os/ext/CMSIS/include/core_cmFunc.h" 1
 1019 0036 83F31188 		MSR basepri, r3
 1020              	@ 0 "" 2
 1021              	.LVL101:
 1022              		.thumb
 1023              		.syntax unified
 1024              	.L50:
 1025 003a F8BD     		pop	{r3, r4, r5, r6, r7, pc}
 1026              	.LVL102:
ARM GAS  /var/folders/sv/kgmgr77579zbf78p2zlhkdfr0000gn/T//ccQEQTTR.s 			page 19


 1027              	.L63:
 1028              	.LBE281:
 1029              	.LBE280:
 1030              	.LBE279:
 1031              	.LBE278:
 1032              	.LBE277:
 1033              	.LBE276:
 1034              		.loc 1 349 0 discriminator 1
 1035 003c 1B8A     		ldrh	r3, [r3, #16]
 1036 003e 013B     		subs	r3, r3, #1
 1037 0040 1340     		ands	r3, r3, r2
 1038 0042 F7D1     		bne	.L53
 1039              	.LVL103:
 1040              	.LBB282:
 1041              	.LBB283:
 1042              	.LBB284:
 1043              	.LBB285:
 1044              	.LBB286:
 1045              	.LBB287:
 1046              		.loc 3 546 0
 1047              		.syntax unified
 1048              	@ 546 "ChibiOS_3.0.2/os/ext/CMSIS/include/core_cmFunc.h" 1
 1049 0044 83F31188 		MSR basepri, r3
 1050              	@ 0 "" 2
 1051              		.thumb
 1052              		.syntax unified
 1053 0048 02E0     		b	.L61
 1054              	.LVL104:
 1055              	.L62:
 1056              	.LBE287:
 1057              	.LBE286:
 1058              	.LBE285:
 1059              	.LBE284:
 1060              	.LBE283:
 1061              	.LBE282:
 1062              	.LBB288:
 1063              	.LBB289:
 1064              	.LBB290:
 1065              	.LBB291:
 1066              	.LBB292:
 1067              	.LBB293:
 1068 004a 0022     		movs	r2, #0
 1069              		.syntax unified
 1070              	@ 546 "ChibiOS_3.0.2/os/ext/CMSIS/include/core_cmFunc.h" 1
 1071 004c 82F31188 		MSR basepri, r2
 1072              	@ 0 "" 2
 1073              	.LVL105:
 1074              		.thumb
 1075              		.syntax unified
 1076              	.L61:
 1077              	.LBE293:
 1078              	.LBE292:
 1079              	.LBE291:
 1080              	.LBE290:
 1081              	.LBE289:
 1082              	.LBE288:
 1083              		.loc 1 358 0
ARM GAS  /var/folders/sv/kgmgr77579zbf78p2zlhkdfr0000gn/T//ccQEQTTR.s 			page 20


 1084 0050 04F13002 		add	r2, r4, #48
 1085 0054 3146     		mov	r1, r6
 1086 0056 2846     		mov	r0, r5
 1087 0058 FFF7FEFF 		bl	usbPrepareQueuedTransmit
 1088              	.LVL106:
 1089              	.LBB294:
 1090              	.LBB295:
 1091              	.LBB296:
 1092              	.LBB297:
 1093              	.LBB298:
 1094              	.LBB299:
 1095              		.loc 3 546 0
 1096              		.syntax unified
 1097              	@ 546 "ChibiOS_3.0.2/os/ext/CMSIS/include/core_cmFunc.h" 1
 1098 005c 87F31188 		MSR basepri, r7
 1099              	@ 0 "" 2
 1100              	.LVL107:
 1101              		.thumb
 1102              		.syntax unified
 1103              	.LBE299:
 1104              	.LBE298:
 1105              	.LBE297:
 1106              	.LBE296:
 1107              	.LBE295:
 1108              	.LBE294:
 1109              		.loc 1 361 0
 1110 0060 3146     		mov	r1, r6
 1111 0062 2846     		mov	r0, r5
 1112 0064 FFF7FEFF 		bl	usbStartTransmitI
 1113              	.LVL108:
 1114 0068 E4E7     		b	.L53
 1115              		.cfi_endproc
 1116              	.LFE272:
 1117              		.size	sduDataTransmitted, .-sduDataTransmitted
 1118              		.section	.text.sduDataReceived,"ax",%progbits
 1119              		.align	2
 1120              		.p2align 4,,15
 1121              		.global	sduDataReceived
 1122              		.thumb
 1123              		.thumb_func
 1124              		.type	sduDataReceived, %function
 1125              	sduDataReceived:
 1126              	.LFB273:
 1127              		.loc 1 376 0
 1128              		.cfi_startproc
 1129              		@ args = 0, pretend = 0, frame = 0
 1130              		@ frame_needed = 0, uses_anonymous_args = 0
 1131              	.LVL109:
 1132 0000 2DE9F843 		push	{r3, r4, r5, r6, r7, r8, r9, lr}
 1133              		.cfi_def_cfa_offset 32
 1134              		.cfi_offset 3, -32
 1135              		.cfi_offset 4, -28
 1136              		.cfi_offset 5, -24
 1137              		.cfi_offset 6, -20
 1138              		.cfi_offset 7, -16
 1139              		.cfi_offset 8, -12
 1140              		.cfi_offset 9, -8
ARM GAS  /var/folders/sv/kgmgr77579zbf78p2zlhkdfr0000gn/T//ccQEQTTR.s 			page 21


 1141              		.cfi_offset 14, -4
 1142              		.loc 1 378 0
 1143 0004 01F10903 		add	r3, r1, #9
 1144 0008 50F82360 		ldr	r6, [r0, r3, lsl #2]
 1145              	.LVL110:
 1146              		.loc 1 380 0
 1147 000c BEB1     		cbz	r6, .L64
 1148              	.LVL111:
 1149 000e 8046     		mov	r8, r0
 1150 0010 0F46     		mov	r7, r1
 1151              	.LBB300:
 1152              	.LBB301:
 1153              	.LBB302:
 1154              	.LBB303:
 1155              	.LBB304:
 1156              	.LBB305:
 1157              		.loc 3 546 0
 1158 0012 4FF02009 		mov	r9, #32
 1159              		.syntax unified
 1160              	@ 546 "ChibiOS_3.0.2/os/ext/CMSIS/include/core_cmFunc.h" 1
 1161 0016 89F31188 		MSR basepri, r9
 1162              	@ 0 "" 2
 1163              	.LVL112:
 1164              		.thumb
 1165              		.syntax unified
 1166              	.LBE305:
 1167              	.LBE304:
 1168              	.LBE303:
 1169              	.LBE302:
 1170              	.LBE301:
 1171              	.LBE300:
 1172              	.LBB306:
 1173              	.LBB307:
 1174              		.loc 5 844 0
 1175 001a 0421     		movs	r1, #4
 1176              	.LVL113:
 1177 001c 7018     		adds	r0, r6, r1
 1178              	.LVL114:
 1179 001e FFF7FEFF 		bl	chEvtBroadcastFlagsI
 1180              	.LVL115:
 1181              	.LBE307:
 1182              	.LBE306:
 1183              		.loc 1 389 0
 1184 0022 08EB8703 		add	r3, r8, r7, lsl #2
 1185              	.LBB308:
 1186              	.LBB309:
 1187              		.loc 2 290 0
 1188 0026 B469     		ldr	r4, [r6, #24]
 1189              	.LBE309:
 1190              	.LBE308:
 1191              		.loc 1 389 0
 1192 0028 DA68     		ldr	r2, [r3, #12]
 1193              	.LBB312:
 1194              	.LBB310:
 1195              		.loc 2 290 0
 1196 002a F569     		ldr	r5, [r6, #28]
 1197 002c 7369     		ldr	r3, [r6, #20]
ARM GAS  /var/folders/sv/kgmgr77579zbf78p2zlhkdfr0000gn/T//ccQEQTTR.s 			page 22


 1198              	.LBE310:
 1199              	.LBE312:
 1200              		.loc 1 389 0
 1201 002e 518A     		ldrh	r1, [r2, #18]
 1202              	.LVL116:
 1203              	.LBB313:
 1204              	.LBB311:
 1205              		.loc 2 290 0
 1206 0030 2D1B     		subs	r5, r5, r4
 1207 0032 EC1A     		subs	r4, r5, r3
 1208              	.LVL117:
 1209              	.LBE311:
 1210              	.LBE313:
 1211              		.loc 1 390 0
 1212 0034 A142     		cmp	r1, r4
 1213 0036 04D9     		bls	.L71
 1214              	.LVL118:
 1215              	.L66:
 1216              	.LBB314:
 1217              	.LBB315:
 1218              	.LBB316:
 1219              	.LBB317:
 1220              	.LBB318:
 1221              	.LBB319:
 1222              		.loc 3 546 0
 1223 0038 0023     		movs	r3, #0
 1224              		.syntax unified
 1225              	@ 546 "ChibiOS_3.0.2/os/ext/CMSIS/include/core_cmFunc.h" 1
 1226 003a 83F31188 		MSR basepri, r3
 1227              	@ 0 "" 2
 1228              	.LVL119:
 1229              		.thumb
 1230              		.syntax unified
 1231              	.L64:
 1232 003e BDE8F883 		pop	{r3, r4, r5, r6, r7, r8, r9, pc}
 1233              	.LVL120:
 1234              	.L71:
 1235              	.LBE319:
 1236              	.LBE318:
 1237              	.LBE317:
 1238              	.LBE316:
 1239              	.LBE315:
 1240              	.LBE314:
 1241              	.LBB320:
 1242              	.LBB321:
 1243              	.LBB322:
 1244              	.LBB323:
 1245              	.LBB324:
 1246              	.LBB325:
 1247 0042 0023     		movs	r3, #0
 1248              		.syntax unified
 1249              	@ 546 "ChibiOS_3.0.2/os/ext/CMSIS/include/core_cmFunc.h" 1
 1250 0044 83F31188 		MSR basepri, r3
 1251              	@ 0 "" 2
 1252              	.LVL121:
 1253              		.thumb
 1254              		.syntax unified
ARM GAS  /var/folders/sv/kgmgr77579zbf78p2zlhkdfr0000gn/T//ccQEQTTR.s 			page 23


 1255              	.LBE325:
 1256              	.LBE324:
 1257              	.LBE323:
 1258              	.LBE322:
 1259              	.LBE321:
 1260              	.LBE320:
 1261              		.loc 1 396 0
 1262 0048 B4FBF1F3 		udiv	r3, r4, r1
 1263 004c 06F10C02 		add	r2, r6, #12
 1264 0050 01FB03F3 		mul	r3, r1, r3
 1265              	.LVL122:
 1266 0054 4046     		mov	r0, r8
 1267 0056 3946     		mov	r1, r7
 1268              	.LVL123:
 1269 0058 FFF7FEFF 		bl	usbPrepareQueuedReceive
 1270              	.LVL124:
 1271              	.LBB326:
 1272              	.LBB327:
 1273              	.LBB328:
 1274              	.LBB329:
 1275              	.LBB330:
 1276              	.LBB331:
 1277              		.loc 3 546 0
 1278              		.syntax unified
 1279              	@ 546 "ChibiOS_3.0.2/os/ext/CMSIS/include/core_cmFunc.h" 1
 1280 005c 89F31188 		MSR basepri, r9
 1281              	@ 0 "" 2
 1282              	.LVL125:
 1283              		.thumb
 1284              		.syntax unified
 1285              	.LBE331:
 1286              	.LBE330:
 1287              	.LBE329:
 1288              	.LBE328:
 1289              	.LBE327:
 1290              	.LBE326:
 1291              		.loc 1 399 0
 1292 0060 3946     		mov	r1, r7
 1293 0062 4046     		mov	r0, r8
 1294 0064 FFF7FEFF 		bl	usbStartReceiveI
 1295              	.LVL126:
 1296 0068 E6E7     		b	.L66
 1297              		.cfi_endproc
 1298              	.LFE273:
 1299              		.size	sduDataReceived, .-sduDataReceived
 1300 006a 00BF     		.section	.text.sduInterruptTransmitted,"ax",%progbits
 1301              		.align	2
 1302              		.p2align 4,,15
 1303              		.global	sduInterruptTransmitted
 1304              		.thumb
 1305              		.thumb_func
 1306              		.type	sduInterruptTransmitted, %function
 1307              	sduInterruptTransmitted:
 1308              	.LFB274:
 1309              		.loc 1 412 0
 1310              		.cfi_startproc
 1311              		@ args = 0, pretend = 0, frame = 0
ARM GAS  /var/folders/sv/kgmgr77579zbf78p2zlhkdfr0000gn/T//ccQEQTTR.s 			page 24


 1312              		@ frame_needed = 0, uses_anonymous_args = 0
 1313              		@ link register save eliminated.
 1314              	.LVL127:
 1315 0000 7047     		bx	lr
 1316              		.cfi_endproc
 1317              	.LFE274:
 1318              		.size	sduInterruptTransmitted, .-sduInterruptTransmitted
 1319 0002 00BF     		.section	.rodata.vmt,"a",%progbits
 1320              		.align	2
 1321              		.set	.LANCHOR0,. + 0
 1322              		.type	vmt, %object
 1323              		.size	vmt, 32
 1324              	vmt:
 1325 0000 00000000 		.word	write
 1326 0004 00000000 		.word	read
 1327 0008 00000000 		.word	put
 1328 000c 00000000 		.word	get
 1329 0010 00000000 		.word	putt
 1330 0014 00000000 		.word	gett
 1331 0018 00000000 		.word	writet
 1332 001c 00000000 		.word	readt
 1333              		.section	.data.linecoding,"aw",%progbits
 1334              		.align	2
 1335              		.set	.LANCHOR1,. + 0
 1336              		.type	linecoding, %object
 1337              		.size	linecoding, 7
 1338              	linecoding:
 1339 0000 00       		.byte	0
 1340 0001 96       		.byte	-106
 1341 0002 00       		.byte	0
 1342 0003 00       		.byte	0
 1343 0004 00       		.byte	0
 1344 0005 00       		.byte	0
 1345 0006 08       		.byte	8
 1346              		.text
 1347              	.Letext0:
 1348              		.file 6 "/usr/local/Cellar/gcc-arm-none-eabi/20160928/lib/gcc/arm-none-eabi/5.4.1/include/stddef.h
 1349              		.file 7 "/usr/local/Cellar/gcc-arm-none-eabi/20160928/arm-none-eabi/include/machine/_default_types
 1350              		.file 8 "/usr/local/Cellar/gcc-arm-none-eabi/20160928/arm-none-eabi/include/sys/_stdint.h"
 1351              		.file 9 "ChibiOS_3.0.2/os/rt/ports/ARMCMx/compilers/GCC/chtypes.h"
 1352              		.file 10 "ChibiOS_3.0.2/os/rt/include/chsystypes.h"
 1353              		.file 11 "ChibiOS_3.0.2/os/rt/include/chschd.h"
 1354              		.file 12 "ChibiOS_3.0.2/os/rt/ports/ARMCMx/chcore.h"
 1355              		.file 13 "ChibiOS_3.0.2/os/rt/ports/ARMCMx/chcore_v7m.h"
 1356              		.file 14 "ChibiOS_3.0.2/os/rt/include/chtm.h"
 1357              		.file 15 "ChibiOS_3.0.2/os/rt/include/chsem.h"
 1358              		.file 16 "ChibiOS_3.0.2/os/rt/include/chmtx.h"
 1359              		.file 17 "ChibiOS_3.0.2/os/hal/include/usb.h"
 1360              		.file 18 "ChibiOS_3.0.2/os/hal/ports/STM32/LLD/OTGv1/usb_lld.h"
 1361              		.file 19 "ChibiOS_3.0.2/os/hal/ports/STM32/LLD/OTGv1/stm32_otg.h"
 1362              		.file 20 "ChibiOS_3.0.2/os/hal/include/serial_usb.h"
 1363              		.file 21 "ChibiOS_3.0.2/os/rt/include/chsys.h"
 1364              		.file 22 "ChibiOS_3.0.2/os/ext/CMSIS/include/core_cm4.h"