ARM GAS  /var/folders/sv/kgmgr77579zbf78p2zlhkdfr0000gn/T//ccrEjlZd.s 			page 1


   1              		.syntax unified
   2              		.cpu cortex-m4
   3              		.eabi_attribute 27, 1
   4              		.eabi_attribute 28, 1
   5              		.fpu fpv4-sp-d16
   6              		.eabi_attribute 20, 1
   7              		.eabi_attribute 21, 1
   8              		.eabi_attribute 23, 3
   9              		.eabi_attribute 24, 1
  10              		.eabi_attribute 25, 1
  11              		.eabi_attribute 26, 1
  12              		.eabi_attribute 30, 2
  13              		.eabi_attribute 34, 1
  14              		.eabi_attribute 18, 4
  15              		.thumb
  16              		.syntax unified
  17              		.file	"servo_dec.c"
  18              		.text
  19              	.Ltext0:
  20              		.cfi_sections	.debug_frame
  21              		.section	.text.icuperiodcb,"ax",%progbits
  22              		.align	2
  23              		.p2align 4,,15
  24              		.thumb
  25              		.thumb_func
  26              		.type	icuperiodcb, %function
  27              	icuperiodcb:
  28              	.LFB257:
  29              		.file 1 "servo_dec.c"
  30              		.loc 1 89 0
  31              		.cfi_startproc
  32              		@ args = 0, pretend = 0, frame = 0
  33              		@ frame_needed = 0, uses_anonymous_args = 0
  34              		@ link register save eliminated.
  35              	.LVL0:
  36 0000 7047     		bx	lr
  37              		.cfi_endproc
  38              	.LFE257:
  39              		.size	icuperiodcb, .-icuperiodcb
  40 0002 00BF     		.section	.text.icuwidthcb,"ax",%progbits
  41              		.align	2
  42              		.p2align 4,,15
  43              		.thumb
  44              		.thumb_func
  45              		.type	icuwidthcb, %function
  46              	icuwidthcb:
  47              	.LFB256:
  48              		.loc 1 45 0
  49              		.cfi_startproc
  50              		@ args = 0, pretend = 0, frame = 0
  51              		@ frame_needed = 0, uses_anonymous_args = 0
  52              	.LVL1:
  53              		.loc 1 46 0
  54 0000 0369     		ldr	r3, [r0, #16]
  55 0002 DFED3F6A 		vldr.32	s13, .L25
  56 0006 1B68     		ldr	r3, [r3]
  57 0008 3E49     		ldr	r1, .L25+4
ARM GAS  /var/folders/sv/kgmgr77579zbf78p2zlhkdfr0000gn/T//ccrEjlZd.s 			page 2


  58              		.loc 1 47 0
  59 000a 3F4A     		ldr	r2, .L25+8
  60              		.loc 1 48 0
  61 000c 3F48     		ldr	r0, .L25+12
  62              	.LVL2:
  63              		.loc 1 46 0
  64 000e 0133     		adds	r3, r3, #1
  65 0010 07EE903A 		vmov	s15, r3	@ int
  66 0014 F8EE677A 		vcvt.f32.u32	s15, s15
  67              		.loc 1 45 0
  68 0018 70B5     		push	{r4, r5, r6, lr}
  69              		.cfi_def_cfa_offset 16
  70              		.cfi_offset 4, -16
  71              		.cfi_offset 5, -12
  72              		.cfi_offset 6, -8
  73              		.cfi_offset 14, -4
  74              		.loc 1 46 0
  75 001a 87EEA67A 		vdiv.f32	s14, s15, s13
  76              		.loc 1 45 0
  77 001e 2DED028B 		vpush.64	{d8}
  78              		.cfi_def_cfa_offset 24
  79              		.cfi_offset 80, -24
  80              		.cfi_offset 81, -20
  81              		.loc 1 46 0
  82 0022 81ED007A 		vstr.32	s14, [r1]
  83              		.loc 1 47 0
  84 0026 D1ED007A 		vldr.32	s15, [r1]
  85 002a 92ED006A 		vldr.32	s12, [r2]
  86              		.loc 1 48 0
  87 002e 90ED007A 		vldr.32	s14, [r0]
  88 0032 D2ED006A 		vldr.32	s13, [r2]
  89              		.loc 1 47 0
  90 0036 77EEC67A 		vsub.f32	s15, s15, s12
  91              	.LVL3:
  92              		.loc 1 48 0
  93 003a 37EE667A 		vsub.f32	s14, s14, s13
  94              	.LVL4:
  95              		.loc 1 50 0
  96 003e F4EEC77A 		vcmpe.f32	s15, s14
  97 0042 F1EE10FA 		vmrs	APSR_nzcv, FPSCR
  98 0046 2DDD     		ble	.L21
  99              		.loc 1 51 0
 100 0048 DFED316A 		vldr.32	s13, .L25+16
 101 004c 67EE266A 		vmul.f32	s13, s14, s13
 102 0050 F4EEE67A 		vcmpe.f32	s15, s13
 103 0054 F1EE10FA 		vmrs	APSR_nzcv, FPSCR
 104 0058 3BD5     		bpl	.L2
 105              		.loc 1 52 0
 106 005a F0EE477A 		vmov.f32	s15, s14
 107              	.LVL5:
 108              	.L5:
 109              		.loc 1 66 0
 110 005e F5EEC07A 		vcmpe.f32	s15, #0
 111 0062 F1EE10FA 		vmrs	APSR_nzcv, FPSCR
 112 0066 34DB     		blt	.L2
 113 0068 77EEA77A 		vadd.f32	s15, s15, s15
 114              	.LVL6:
ARM GAS  /var/folders/sv/kgmgr77579zbf78p2zlhkdfr0000gn/T//ccrEjlZd.s 			page 3


 115              	.L8:
 116              		.loc 1 67 0
 117 006c 294B     		ldr	r3, .L25+20
 118 006e 1B78     		ldrb	r3, [r3]	@ zero_extendqisi2
 119              	.LBB46:
 120              		.loc 1 68 0
 121 0070 77EEC77A 		vsub.f32	s15, s15, s14
 122              	.LBE46:
 123              		.loc 1 67 0
 124 0074 83BB     		cbnz	r3, .L24
 125              		.loc 1 78 0
 126 0076 C7EE876A 		vdiv.f32	s13, s15, s14
 127 007a 274B     		ldr	r3, .L25+24
 128 007c C3ED006A 		vstr.32	s13, [r3]
 129              	.LVL7:
 130              	.L12:
 131              	.LBB47:
 132              	.LBB48:
 133              	.LBB49:
 134              	.LBB50:
 135              	.LBB51:
 136              	.LBB52:
 137              		.file 2 "ChibiOS_3.0.2/os/ext/CMSIS/include/core_cmFunc.h"
 138              		.loc 2 546 0
 139 0080 2023     		movs	r3, #32
 140              		.syntax unified
 141              	@ 546 "ChibiOS_3.0.2/os/ext/CMSIS/include/core_cmFunc.h" 1
 142 0082 83F31188 		MSR basepri, r3
 143              	@ 0 "" 2
 144              	.LVL8:
 145              		.thumb
 146              		.syntax unified
 147              	.LBE52:
 148              	.LBE51:
 149              	.LBE50:
 150              	.LBE49:
 151              	.LBB53:
 152              	.LBB54:
 153              		.file 3 "ChibiOS_3.0.2/os/rt/include/chvt.h"
 154              		.loc 3 231 0
 155 0086 254A     		ldr	r2, .L25+28
 156              	.LBE54:
 157              	.LBE53:
 158              	.LBB56:
 159              	.LBB57:
 160              	.LBB58:
 161              	.LBB59:
 162              	.LBB60:
 163              		.loc 2 546 0
 164 0088 0023     		movs	r3, #0
 165              	.LBE60:
 166              	.LBE59:
 167              	.LBE58:
 168              	.LBE57:
 169              	.LBE56:
 170              	.LBB65:
 171              	.LBB55:
ARM GAS  /var/folders/sv/kgmgr77579zbf78p2zlhkdfr0000gn/T//ccrEjlZd.s 			page 4


 172              		.loc 3 231 0
 173 008a 916A     		ldr	r1, [r2, #40]
 174              	.LVL9:
 175              	.LBE55:
 176              	.LBE65:
 177              	.LBB66:
 178              	.LBB64:
 179              	.LBB63:
 180              	.LBB62:
 181              	.LBB61:
 182              		.loc 2 546 0
 183              		.syntax unified
 184              	@ 546 "ChibiOS_3.0.2/os/ext/CMSIS/include/core_cmFunc.h" 1
 185 008c 83F31188 		MSR basepri, r3
 186              	@ 0 "" 2
 187              	.LVL10:
 188              		.thumb
 189              		.syntax unified
 190              	.LBE61:
 191              	.LBE62:
 192              	.LBE63:
 193              	.LBE64:
 194              	.LBE66:
 195              	.LBE48:
 196              	.LBE47:
 197              		.loc 1 83 0
 198 0090 234B     		ldr	r3, .L25+32
 199              		.loc 1 81 0
 200 0092 244A     		ldr	r2, .L25+36
 201              		.loc 1 83 0
 202 0094 1B68     		ldr	r3, [r3]
 203              		.loc 1 81 0
 204 0096 1160     		str	r1, [r2]
 205              		.loc 1 83 0
 206 0098 DBB1     		cbz	r3, .L2
 207              		.loc 1 87 0
 208 009a BDEC028B 		vldm	sp!, {d8}
 209              		.cfi_remember_state
 210              		.cfi_restore 80
 211              		.cfi_restore 81
 212              		.cfi_def_cfa_offset 16
 213 009e BDE87040 		pop	{r4, r5, r6, lr}
 214              		.cfi_restore 14
 215              		.cfi_restore 6
 216              		.cfi_restore 5
 217              		.cfi_restore 4
 218              		.cfi_def_cfa_offset 0
 219              		.loc 1 84 0
 220 00a2 1847     		bx	r3	@ indirect register sibling call
 221              	.LVL11:
 222              	.L21:
 223              		.cfi_restore_state
 224              		.loc 1 57 0
 225 00a4 F5EEC07A 		vcmpe.f32	s15, #0
 226 00a8 F1EE10FA 		vmrs	APSR_nzcv, FPSCR
 227 00ac D7D5     		bpl	.L5
 228              		.loc 1 58 0
ARM GAS  /var/folders/sv/kgmgr77579zbf78p2zlhkdfr0000gn/T//ccrEjlZd.s 			page 5


 229 00ae D2ED005A 		vldr.32	s11, [r2]
 230 00b2 9FED1D6A 		vldr.32	s12, .L25+40
 231 00b6 D2ED006A 		vldr.32	s13, [r2]
 232 00ba 77EEA57A 		vadd.f32	s15, s15, s11
 233              	.LVL12:
 234 00be 66EE866A 		vmul.f32	s13, s13, s12
 235 00c2 F4EEE67A 		vcmpe.f32	s15, s13
 236 00c6 F1EE10FA 		vmrs	APSR_nzcv, FPSCR
 237 00ca 02DD     		ble	.L2
 238 00cc DFED177A 		vldr.32	s15, .L25+44
 239 00d0 CCE7     		b	.L8
 240              	.LVL13:
 241              	.L2:
 242              		.loc 1 87 0
 243 00d2 BDEC028B 		vldm	sp!, {d8}
 244              		.cfi_remember_state
 245              		.cfi_restore 80
 246              		.cfi_restore 81
 247              		.cfi_def_cfa_offset 16
 248 00d6 70BD     		pop	{r4, r5, r6, pc}
 249              	.LVL14:
 250              	.L24:
 251              		.cfi_restore_state
 252              	.LBB67:
 253              		.loc 1 68 0
 254 00d8 87EE878A 		vdiv.f32	s16, s15, s14
 255              	.LVL15:
 256              		.loc 1 71 0
 257 00dc 144C     		ldr	r4, .L25+48
 258 00de 154D     		ldr	r5, .L25+52
 259 00e0 D4ED000A 		vldr.32	s1, [r4]
 260 00e4 95ED001A 		vldr.32	s2, [r5]
 261 00e8 B0EE480A 		vmov.f32	s0, s16
 262 00ec FFF7FEFF 		bl	utils_middle_of_3
 263              	.LVL16:
 264              		.loc 1 76 0
 265 00f0 094B     		ldr	r3, .L25+24
 266              		.loc 1 73 0
 267 00f2 2268     		ldr	r2, [r4]	@ float
 268 00f4 2A60     		str	r2, [r5]	@ float
 269              		.loc 1 74 0
 270 00f6 84ED008A 		vstr.32	s16, [r4]
 271              		.loc 1 76 0
 272 00fa 83ED000A 		vstr.32	s0, [r3]
 273              	.LBE67:
 274 00fe BFE7     		b	.L12
 275              	.L26:
 276              		.align	2
 277              	.L25:
 278 0100 00007A44 		.word	1148846080
 279 0104 00000000 		.word	.LANCHOR0
 280 0108 00000000 		.word	.LANCHOR1
 281 010c 00000000 		.word	.LANCHOR2
 282 0110 9A99993F 		.word	1067030938
 283 0114 00000000 		.word	.LANCHOR3
 284 0118 00000000 		.word	.LANCHOR6
 285 011c 00000000 		.word	ch
ARM GAS  /var/folders/sv/kgmgr77579zbf78p2zlhkdfr0000gn/T//ccrEjlZd.s 			page 6


 286 0120 00000000 		.word	.LANCHOR8
 287 0124 00000000 		.word	.LANCHOR7
 288 0128 CDCC4C3F 		.word	1061997773
 289 012c 00000000 		.word	0
 290 0130 00000000 		.word	.LANCHOR5
 291 0134 00000000 		.word	.LANCHOR4
 292              		.cfi_endproc
 293              	.LFE256:
 294              		.size	icuwidthcb, .-icuwidthcb
 295              		.section	.text.servodec_init,"ax",%progbits
 296              		.align	2
 297              		.p2align 4,,15
 298              		.global	servodec_init
 299              		.thumb
 300              		.thumb_func
 301              		.type	servodec_init, %function
 302              	servodec_init:
 303              	.LFB258:
 304              		.loc 1 110 0
 305              		.cfi_startproc
 306              		@ args = 0, pretend = 0, frame = 0
 307              		@ frame_needed = 0, uses_anonymous_args = 0
 308              	.LVL17:
 309 0000 38B5     		push	{r3, r4, r5, lr}
 310              		.cfi_def_cfa_offset 16
 311              		.cfi_offset 3, -16
 312              		.cfi_offset 4, -12
 313              		.cfi_offset 5, -8
 314              		.cfi_offset 14, -4
 315              		.loc 1 111 0
 316 0002 0E4C     		ldr	r4, .L29
 317 0004 0E49     		ldr	r1, .L29+4
 318              		.loc 1 110 0
 319 0006 0546     		mov	r5, r0
 320              		.loc 1 111 0
 321 0008 2046     		mov	r0, r4
 322              	.LVL18:
 323 000a FFF7FEFF 		bl	icuStart
 324              	.LVL19:
 325              		.loc 1 112 0
 326 000e 4FF48172 		mov	r2, #258
 327 0012 2021     		movs	r1, #32
 328 0014 0B48     		ldr	r0, .L29+8
 329 0016 FFF7FEFF 		bl	_pal_lld_setgroupmode
 330              	.LVL20:
 331              		.loc 1 113 0
 332 001a 2046     		mov	r0, r4
 333 001c FFF7FEFF 		bl	icuStartCapture
 334              	.LVL21:
 335              		.loc 1 114 0
 336 0020 2046     		mov	r0, r4
 337 0022 FFF7FEFF 		bl	icuEnableNotifications
 338              	.LVL22:
 339              		.loc 1 122 0
 340 0026 0849     		ldr	r1, .L29+12
 341              	.LBB68:
 342              		.loc 1 117 0
ARM GAS  /var/folders/sv/kgmgr77579zbf78p2zlhkdfr0000gn/T//ccrEjlZd.s 			page 7


 343 0028 084C     		ldr	r4, .L29+16
 344              		.loc 1 118 0
 345 002a 0948     		ldr	r0, .L29+20
 346              	.LBE68:
 347              		.loc 1 124 0
 348 002c 094A     		ldr	r2, .L29+24
 349              		.loc 1 122 0
 350 002e 0D60     		str	r5, [r1]
 351              	.LBB69:
 352              		.loc 1 117 0
 353 0030 0023     		movs	r3, #0
 354              	.LBE69:
 355              		.loc 1 124 0
 356 0032 0121     		movs	r1, #1
 357              	.LBB70:
 358              		.loc 1 117 0
 359 0034 2360     		str	r3, [r4]	@ float
 360              		.loc 1 118 0
 361 0036 0360     		str	r3, [r0]	@ float
 362              	.LVL23:
 363              	.LBE70:
 364              		.loc 1 124 0
 365 0038 1170     		strb	r1, [r2]
 366 003a 38BD     		pop	{r3, r4, r5, pc}
 367              	.LVL24:
 368              	.L30:
 369              		.align	2
 370              	.L29:
 371 003c 00000000 		.word	ICUD3
 372 0040 00000000 		.word	.LANCHOR9
 373 0044 00040240 		.word	1073873920
 374 0048 00000000 		.word	.LANCHOR8
 375 004c 00000000 		.word	.LANCHOR6
 376 0050 00000000 		.word	.LANCHOR0
 377 0054 00000000 		.word	.LANCHOR10
 378              		.cfi_endproc
 379              	.LFE258:
 380              		.size	servodec_init, .-servodec_init
 381              		.section	.text.servodec_stop,"ax",%progbits
 382              		.align	2
 383              		.p2align 4,,15
 384              		.global	servodec_stop
 385              		.thumb
 386              		.thumb_func
 387              		.type	servodec_stop, %function
 388              	servodec_stop:
 389              	.LFB259:
 390              		.loc 1 130 0
 391              		.cfi_startproc
 392              		@ args = 0, pretend = 0, frame = 0
 393              		@ frame_needed = 0, uses_anonymous_args = 0
 394 0000 F8B5     		push	{r3, r4, r5, r6, r7, lr}
 395              		.cfi_def_cfa_offset 24
 396              		.cfi_offset 3, -24
 397              		.cfi_offset 4, -20
 398              		.cfi_offset 5, -16
 399              		.cfi_offset 6, -12
ARM GAS  /var/folders/sv/kgmgr77579zbf78p2zlhkdfr0000gn/T//ccrEjlZd.s 			page 8


 400              		.cfi_offset 7, -8
 401              		.cfi_offset 14, -4
 402              		.loc 1 131 0
 403 0002 0D4C     		ldr	r4, .L37
 404 0004 2378     		ldrb	r3, [r4]	@ zero_extendqisi2
 405 0006 A3B1     		cbz	r3, .L32
 406              		.loc 1 132 0
 407 0008 0C48     		ldr	r0, .L37+4
 408              		.loc 1 134 0
 409 000a 0D4E     		ldr	r6, .L37+8
 410              		.loc 1 137 0
 411 000c 0D4D     		ldr	r5, .L37+12
 412              		.loc 1 132 0
 413 000e FFF7FEFF 		bl	icuStop
 414              	.LVL25:
 415              		.loc 1 133 0
 416 0012 0022     		movs	r2, #0
 417 0014 2021     		movs	r1, #32
 418 0016 0C48     		ldr	r0, .L37+16
 419 0018 FFF7FEFF 		bl	_pal_lld_setgroupmode
 420              	.LVL26:
 421              		.loc 1 135 0
 422 001c 0B49     		ldr	r1, .L37+20
 423              		.loc 1 136 0
 424 001e 0C4A     		ldr	r2, .L37+24
 425 0020 0023     		movs	r3, #0
 426              		.loc 1 134 0
 427 0022 4FF07E57 		mov	r7, #1065353216
 428              		.loc 1 135 0
 429 0026 4FF08040 		mov	r0, #1073741824
 430              		.loc 1 134 0
 431 002a 3760     		str	r7, [r6]	@ float
 432              		.loc 1 137 0
 433 002c 2B60     		str	r3, [r5]
 434              		.loc 1 135 0
 435 002e 0860     		str	r0, [r1]	@ float
 436              		.loc 1 136 0
 437 0030 1370     		strb	r3, [r2]
 438              	.L32:
 439              		.loc 1 140 0
 440 0032 0023     		movs	r3, #0
 441 0034 2370     		strb	r3, [r4]
 442 0036 F8BD     		pop	{r3, r4, r5, r6, r7, pc}
 443              	.L38:
 444              		.align	2
 445              	.L37:
 446 0038 00000000 		.word	.LANCHOR10
 447 003c 00000000 		.word	ICUD3
 448 0040 00000000 		.word	.LANCHOR1
 449 0044 00000000 		.word	.LANCHOR8
 450 0048 00040240 		.word	1073873920
 451 004c 00000000 		.word	.LANCHOR2
 452 0050 00000000 		.word	.LANCHOR3
 453              		.cfi_endproc
 454              	.LFE259:
 455              		.size	servodec_stop, .-servodec_stop
 456              		.section	.text.servodec_set_pulse_options,"ax",%progbits
ARM GAS  /var/folders/sv/kgmgr77579zbf78p2zlhkdfr0000gn/T//ccrEjlZd.s 			page 9


 457              		.align	2
 458              		.p2align 4,,15
 459              		.global	servodec_set_pulse_options
 460              		.thumb
 461              		.thumb_func
 462              		.type	servodec_set_pulse_options, %function
 463              	servodec_set_pulse_options:
 464              	.LFB260:
 465              		.loc 1 152 0
 466              		.cfi_startproc
 467              		@ args = 0, pretend = 0, frame = 0
 468              		@ frame_needed = 0, uses_anonymous_args = 0
 469              		@ link register save eliminated.
 470              	.LVL27:
 471              		.loc 1 153 0
 472 0000 0449     		ldr	r1, .L40
 473              		.loc 1 154 0
 474 0002 054A     		ldr	r2, .L40+4
 475              		.loc 1 155 0
 476 0004 054B     		ldr	r3, .L40+8
 477              		.loc 1 153 0
 478 0006 81ED000A 		vstr.32	s0, [r1]
 479              		.loc 1 154 0
 480 000a C2ED000A 		vstr.32	s1, [r2]
 481              		.loc 1 155 0
 482 000e 1870     		strb	r0, [r3]
 483 0010 7047     		bx	lr
 484              	.L41:
 485 0012 00BF     		.align	2
 486              	.L40:
 487 0014 00000000 		.word	.LANCHOR1
 488 0018 00000000 		.word	.LANCHOR2
 489 001c 00000000 		.word	.LANCHOR3
 490              		.cfi_endproc
 491              	.LFE260:
 492              		.size	servodec_set_pulse_options, .-servodec_set_pulse_options
 493              		.section	.text.servodec_get_servo,"ax",%progbits
 494              		.align	2
 495              		.p2align 4,,15
 496              		.global	servodec_get_servo
 497              		.thumb
 498              		.thumb_func
 499              		.type	servodec_get_servo, %function
 500              	servodec_get_servo:
 501              	.LFB261:
 502              		.loc 1 167 0
 503              		.cfi_startproc
 504              		@ args = 0, pretend = 0, frame = 0
 505              		@ frame_needed = 0, uses_anonymous_args = 0
 506              		@ link register save eliminated.
 507              	.LVL28:
 508              		.loc 1 168 0
 509 0000 0028     		cmp	r0, #0
 510              		.loc 1 169 0
 511 0002 DDBF     		ittte	le
 512 0004 034B     		ldrle	r3, .L45
 513 0006 03EB8000 		addle	r0, r3, r0, lsl #2
ARM GAS  /var/folders/sv/kgmgr77579zbf78p2zlhkdfr0000gn/T//ccrEjlZd.s 			page 10


 514              	.LVL29:
 515 000a 90ED000A 		vldrle.32	s0, [r0]
 516              		.loc 1 171 0
 517 000e 9FED020A 		vldrgt.32	s0, .L45+4
 518              		.loc 1 173 0
 519 0012 7047     		bx	lr
 520              	.L46:
 521              		.align	2
 522              	.L45:
 523 0014 00000000 		.word	.LANCHOR6
 524 0018 00000000 		.word	0
 525              		.cfi_endproc
 526              	.LFE261:
 527              		.size	servodec_get_servo, .-servodec_get_servo
 528              		.section	.text.servodec_get_time_since_update,"ax",%progbits
 529              		.align	2
 530              		.p2align 4,,15
 531              		.global	servodec_get_time_since_update
 532              		.thumb
 533              		.thumb_func
 534              		.type	servodec_get_time_since_update, %function
 535              	servodec_get_time_since_update:
 536              	.LFB262:
 537              		.loc 1 182 0
 538              		.cfi_startproc
 539              		@ args = 0, pretend = 0, frame = 0
 540              		@ frame_needed = 0, uses_anonymous_args = 0
 541              		@ link register save eliminated.
 542              		.loc 1 183 0
 543 0000 044A     		ldr	r2, .L48
 544              	.LBB71:
 545              	.LBB72:
 546              	.LBB73:
 547              	.LBB74:
 548              		.loc 3 231 0
 549 0002 054B     		ldr	r3, .L48+4
 550              	.LBE74:
 551              	.LBE73:
 552              	.LBE72:
 553              	.LBE71:
 554              		.loc 1 183 0
 555 0004 1068     		ldr	r0, [r2]
 556              	.LVL30:
 557              	.LBB78:
 558              	.LBB77:
 559              	.LBB76:
 560              	.LBB75:
 561              		.loc 3 231 0
 562 0006 9B6A     		ldr	r3, [r3, #40]
 563              	.LVL31:
 564              	.LBE75:
 565              	.LBE76:
 566              	.LBE77:
 567              	.LBE78:
 568              		.loc 1 183 0
 569 0008 044A     		ldr	r2, .L48+8
 570 000a 181A     		subs	r0, r3, r0
ARM GAS  /var/folders/sv/kgmgr77579zbf78p2zlhkdfr0000gn/T//ccrEjlZd.s 			page 11


 571 000c A2FB0030 		umull	r3, r0, r2, r0
 572              		.loc 1 184 0
 573 0010 C008     		lsrs	r0, r0, #3
 574 0012 7047     		bx	lr
 575              	.L49:
 576              		.align	2
 577              	.L48:
 578 0014 00000000 		.word	.LANCHOR7
 579 0018 00000000 		.word	ch
 580 001c CDCCCCCC 		.word	-858993459
 581              		.cfi_endproc
 582              	.LFE262:
 583              		.size	servodec_get_time_since_update, .-servodec_get_time_since_update
 584              		.section	.text.servodec_get_last_pulse_len,"ax",%progbits
 585              		.align	2
 586              		.p2align 4,,15
 587              		.global	servodec_get_last_pulse_len
 588              		.thumb
 589              		.thumb_func
 590              		.type	servodec_get_last_pulse_len, %function
 591              	servodec_get_last_pulse_len:
 592              	.LFB263:
 593              		.loc 1 195 0
 594              		.cfi_startproc
 595              		@ args = 0, pretend = 0, frame = 0
 596              		@ frame_needed = 0, uses_anonymous_args = 0
 597              		@ link register save eliminated.
 598              	.LVL32:
 599              		.loc 1 196 0
 600 0000 0028     		cmp	r0, #0
 601              		.loc 1 197 0
 602 0002 DDBF     		ittte	le
 603 0004 034B     		ldrle	r3, .L53
 604 0006 03EB8000 		addle	r0, r3, r0, lsl #2
 605              	.LVL33:
 606 000a 90ED000A 		vldrle.32	s0, [r0]
 607              		.loc 1 199 0
 608 000e 9FED020A 		vldrgt.32	s0, .L53+4
 609              		.loc 1 201 0
 610 0012 7047     		bx	lr
 611              	.L54:
 612              		.align	2
 613              	.L53:
 614 0014 00000000 		.word	.LANCHOR0
 615 0018 00000000 		.word	0
 616              		.cfi_endproc
 617              	.LFE263:
 618              		.size	servodec_get_last_pulse_len, .-servodec_get_last_pulse_len
 619              		.section	.bss.servo_pos,"aw",%nobits
 620              		.align	2
 621              		.set	.LANCHOR6,. + 0
 622              		.type	servo_pos, %object
 623              		.size	servo_pos, 4
 624              	servo_pos:
 625 0000 00000000 		.space	4
 626              		.section	.data.c1.9326,"aw",%progbits
 627              		.align	2
ARM GAS  /var/folders/sv/kgmgr77579zbf78p2zlhkdfr0000gn/T//ccrEjlZd.s 			page 12


 628              		.set	.LANCHOR5,. + 0
 629              		.type	c1.9326, %object
 630              		.size	c1.9326, 4
 631              	c1.9326:
 632 0000 0000003F 		.word	1056964608
 633              		.section	.bss.is_running,"aw",%nobits
 634              		.set	.LANCHOR10,. + 0
 635              		.type	is_running, %object
 636              		.size	is_running, 1
 637              	is_running:
 638 0000 00       		.space	1
 639              		.section	.data.pulse_end,"aw",%progbits
 640              		.align	2
 641              		.set	.LANCHOR2,. + 0
 642              		.type	pulse_end, %object
 643              		.size	pulse_end, 4
 644              	pulse_end:
 645 0000 00000040 		.word	1073741824
 646              		.section	.bss.last_update_time,"aw",%nobits
 647              		.align	2
 648              		.set	.LANCHOR7,. + 0
 649              		.type	last_update_time, %object
 650              		.size	last_update_time, 4
 651              	last_update_time:
 652 0000 00000000 		.space	4
 653              		.section	.bss.last_len_received,"aw",%nobits
 654              		.align	2
 655              		.set	.LANCHOR0,. + 0
 656              		.type	last_len_received, %object
 657              		.size	last_len_received, 4
 658              	last_len_received:
 659 0000 00000000 		.space	4
 660              		.section	.bss.use_median_filter,"aw",%nobits
 661              		.set	.LANCHOR3,. + 0
 662              		.type	use_median_filter, %object
 663              		.size	use_median_filter, 1
 664              	use_median_filter:
 665 0000 00       		.space	1
 666              		.section	.data.pulse_start,"aw",%progbits
 667              		.align	2
 668              		.set	.LANCHOR1,. + 0
 669              		.type	pulse_start, %object
 670              		.size	pulse_start, 4
 671              	pulse_start:
 672 0000 0000803F 		.word	1065353216
 673              		.section	.bss.done_func,"aw",%nobits
 674              		.align	2
 675              		.set	.LANCHOR8,. + 0
 676              		.type	done_func, %object
 677              		.size	done_func, 4
 678              	done_func:
 679 0000 00000000 		.space	4
 680              		.section	.data.icucfg,"aw",%progbits
 681              		.align	2
 682              		.set	.LANCHOR9,. + 0
 683              		.type	icucfg, %object
 684              		.size	icucfg, 28
ARM GAS  /var/folders/sv/kgmgr77579zbf78p2zlhkdfr0000gn/T//ccrEjlZd.s 			page 13


 685              	icucfg:
 686 0000 00       		.byte	0
 687 0001 000000   		.space	3
 688 0004 40420F00 		.word	1000000
 689 0008 00000000 		.word	icuwidthcb
 690 000c 00000000 		.word	icuperiodcb
 691 0010 00000000 		.word	0
 692 0014 01       		.byte	1
 693 0015 000000   		.space	3
 694 0018 00000000 		.word	0
 695              		.section	.data.c2.9327,"aw",%progbits
 696              		.align	2
 697              		.set	.LANCHOR4,. + 0
 698              		.type	c2.9327, %object
 699              		.size	c2.9327, 4
 700              	c2.9327:
 701 0000 0000003F 		.word	1056964608
 702              		.text
 703              	.Letext0:
 704              		.file 4 "/usr/local/Cellar/gcc-arm-none-eabi/20160928/arm-none-eabi/include/machine/_default_types
 705              		.file 5 "/usr/local/Cellar/gcc-arm-none-eabi/20160928/arm-none-eabi/include/sys/_stdint.h"
 706              		.file 6 "/usr/local/Cellar/gcc-arm-none-eabi/20160928/lib/gcc/arm-none-eabi/5.4.1/include/stddef.h
 707              		.file 7 "ChibiOS_3.0.2/os/rt/ports/ARMCMx/compilers/GCC/chtypes.h"
 708              		.file 8 "ChibiOS_3.0.2/os/rt/include/chsystypes.h"
 709              		.file 9 "ChibiOS_3.0.2/os/rt/include/chschd.h"
 710              		.file 10 "ChibiOS_3.0.2/os/rt/ports/ARMCMx/chcore.h"
 711              		.file 11 "ChibiOS_3.0.2/os/rt/ports/ARMCMx/chcore_v7m.h"
 712              		.file 12 "ChibiOS_3.0.2/os/rt/include/chtm.h"
 713              		.file 13 "ChibiOS_3.0.2/os/rt/include/chsem.h"
 714              		.file 14 "ChibiOS_3.0.2/os/rt/include/chmtx.h"
 715              		.file 15 "ChibiOS_3.0.2/os/hal/ports/STM32/LLD/GPIOv2/pal_lld.h"
 716              		.file 16 "ChibiOS_3.0.2/os/hal/include/icu.h"
 717              		.file 17 "ChibiOS_3.0.2/os/hal/ports/STM32/LLD/TIMv1/icu_lld.h"
 718              		.file 18 "ChibiOS_3.0.2/os/hal/ports/STM32/LLD/TIMv1/stm32_tim.h"
 719              		.file 19 "ChibiOS_3.0.2/os/rt/include/chsys.h"
 720              		.file 20 "ChibiOS_3.0.2/os/ext/CMSIS/include/core_cm4.h"
 721              		.file 21 "utils.h"