ARM GAS  /var/folders/sv/kgmgr77579zbf78p2zlhkdfr0000gn/T//cckeN5Vv.s 			page 1


   1              		.syntax unified
   2              		.cpu cortex-m4
   3              		.eabi_attribute 27, 1
   4              		.eabi_attribute 28, 1
   5              		.fpu fpv4-sp-d16
   6              		.eabi_attribute 20, 1
   7              		.eabi_attribute 21, 1
   8              		.eabi_attribute 23, 3
   9              		.eabi_attribute 24, 1
  10              		.eabi_attribute 25, 1
  11              		.eabi_attribute 26, 1
  12              		.eabi_attribute 30, 2
  13              		.eabi_attribute 34, 1
  14              		.eabi_attribute 18, 4
  15              		.thumb
  16              		.syntax unified
  17              		.file	"spi_sw.c"
  18              		.text
  19              	.Ltext0:
  20              		.cfi_sections	.debug_frame
  21              		.section	.text.spi_sw_init.part.0,"ax",%progbits
  22              		.align	2
  23              		.p2align 4,,15
  24              		.thumb
  25              		.thumb_func
  26              		.type	spi_sw_init.part.0, %function
  27              	spi_sw_init.part.0:
  28              	.LFB263:
  29              		.file 1 "nrf/spi_sw.c"
  30              		.loc 1 38 0
  31              		.cfi_startproc
  32              		@ args = 0, pretend = 0, frame = 0
  33              		@ frame_needed = 0, uses_anonymous_args = 0
  34              		.loc 1 40 0
  35 0000 1C4A     		ldr	r2, .L3
  36 0002 1D4B     		ldr	r3, .L3+4
  37 0004 1168     		ldr	r1, [r2]
  38 0006 1868     		ldr	r0, [r3]
  39              		.loc 1 38 0
  40 0008 2DE9F041 		push	{r4, r5, r6, r7, r8, lr}
  41              		.cfi_def_cfa_offset 24
  42              		.cfi_offset 4, -24
  43              		.cfi_offset 5, -20
  44              		.cfi_offset 6, -16
  45              		.cfi_offset 7, -12
  46              		.cfi_offset 8, -8
  47              		.cfi_offset 14, -4
  48              		.loc 1 40 0
  49 000c 0124     		movs	r4, #1
  50              		.loc 1 41 0
  51 000e DFF88480 		ldr	r8, .L3+32
  52 0012 1A4E     		ldr	r6, .L3+8
  53              		.loc 1 42 0
  54 0014 1A4F     		ldr	r7, .L3+12
  55 0016 1B4D     		ldr	r5, .L3+16
  56              		.loc 1 40 0
  57 0018 04FA01F1 		lsl	r1, r4, r1
ARM GAS  /var/folders/sv/kgmgr77579zbf78p2zlhkdfr0000gn/T//cckeN5Vv.s 			page 2


  58 001c 0022     		movs	r2, #0
  59 001e FFF7FEFF 		bl	_pal_lld_setgroupmode
  60              	.LVL0:
  61              		.loc 1 41 0
  62 0022 D8F80010 		ldr	r1, [r8]
  63 0026 3068     		ldr	r0, [r6]
  64 0028 04FA01F1 		lsl	r1, r4, r1
  65 002c 2246     		mov	r2, r4
  66 002e FFF7FEFF 		bl	_pal_lld_setgroupmode
  67              	.LVL1:
  68              		.loc 1 42 0
  69 0032 3968     		ldr	r1, [r7]
  70 0034 2868     		ldr	r0, [r5]
  71 0036 04FA01F1 		lsl	r1, r4, r1
  72 003a 2246     		mov	r2, r4
  73 003c FFF7FEFF 		bl	_pal_lld_setgroupmode
  74              	.LVL2:
  75              		.loc 1 43 0
  76 0040 114A     		ldr	r2, .L3+20
  77 0042 124B     		ldr	r3, .L3+24
  78 0044 1168     		ldr	r1, [r2]
  79 0046 1868     		ldr	r0, [r3]
  80 0048 04FA01F1 		lsl	r1, r4, r1
  81 004c 2246     		mov	r2, r4
  82 004e FFF7FEFF 		bl	_pal_lld_setgroupmode
  83              	.LVL3:
  84              		.loc 1 45 0
  85 0052 D8F80020 		ldr	r2, [r8]
  86              		.loc 1 46 0
  87 0056 3B68     		ldr	r3, [r7]
  88              		.loc 1 45 0
  89 0058 3668     		ldr	r6, [r6]
  90              		.loc 1 46 0
  91 005a 2968     		ldr	r1, [r5]
  92              		.loc 1 47 0
  93 005c 0C48     		ldr	r0, .L3+28
  94              		.loc 1 45 0
  95 005e 04FA02F2 		lsl	r2, r4, r2
  96              		.loc 1 46 0
  97 0062 04FA03F3 		lsl	r3, r4, r3
  98              		.loc 1 45 0
  99 0066 92B2     		uxth	r2, r2
 100              		.loc 1 46 0
 101 0068 9BB2     		uxth	r3, r3
 102              		.loc 1 45 0
 103 006a 3283     		strh	r2, [r6, #24]	@ movhi
 104              		.loc 1 46 0
 105 006c 4B83     		strh	r3, [r1, #26]	@ movhi
 106              		.loc 1 47 0
 107 006e 0470     		strb	r4, [r0]
 108              		.loc 1 46 0
 109 0070 BDE8F081 		pop	{r4, r5, r6, r7, r8, pc}
 110              	.L4:
 111              		.align	2
 112              	.L3:
 113 0074 00000000 		.word	.LANCHOR0
 114 0078 00000000 		.word	.LANCHOR1
ARM GAS  /var/folders/sv/kgmgr77579zbf78p2zlhkdfr0000gn/T//cckeN5Vv.s 			page 3


 115 007c 00000000 		.word	.LANCHOR3
 116 0080 00000000 		.word	.LANCHOR4
 117 0084 00000000 		.word	.LANCHOR5
 118 0088 00000000 		.word	.LANCHOR6
 119 008c 00000000 		.word	.LANCHOR7
 120 0090 00000000 		.word	.LANCHOR8
 121 0094 00000000 		.word	.LANCHOR2
 122              		.cfi_endproc
 123              	.LFE263:
 124              		.size	spi_sw_init.part.0, .-spi_sw_init.part.0
 125              		.section	.text.spi_sw_init,"ax",%progbits
 126              		.align	2
 127              		.p2align 4,,15
 128              		.global	spi_sw_init
 129              		.thumb
 130              		.thumb_func
 131              		.type	spi_sw_init, %function
 132              	spi_sw_init:
 133              	.LFB256:
 134              		.loc 1 38 0
 135              		.cfi_startproc
 136              		@ args = 0, pretend = 0, frame = 0
 137              		@ frame_needed = 0, uses_anonymous_args = 0
 138              		@ link register save eliminated.
 139              		.loc 1 39 0
 140 0000 024B     		ldr	r3, .L9
 141 0002 1B78     		ldrb	r3, [r3]	@ zero_extendqisi2
 142 0004 03B1     		cbz	r3, .L8
 143 0006 7047     		bx	lr
 144              	.L8:
 145 0008 FFF7FEBF 		b	spi_sw_init.part.0
 146              	.LVL4:
 147              	.L10:
 148              		.align	2
 149              	.L9:
 150 000c 00000000 		.word	.LANCHOR8
 151              		.cfi_endproc
 152              	.LFE256:
 153              		.size	spi_sw_init, .-spi_sw_init
 154              		.section	.text.spi_sw_stop,"ax",%progbits
 155              		.align	2
 156              		.p2align 4,,15
 157              		.global	spi_sw_stop
 158              		.thumb
 159              		.thumb_func
 160              		.type	spi_sw_stop, %function
 161              	spi_sw_stop:
 162              	.LFB257:
 163              		.loc 1 51 0
 164              		.cfi_startproc
 165              		@ args = 0, pretend = 0, frame = 0
 166              		@ frame_needed = 0, uses_anonymous_args = 0
 167              		.loc 1 52 0
 168 0000 144A     		ldr	r2, .L13
 169 0002 154B     		ldr	r3, .L13+4
 170 0004 1168     		ldr	r1, [r2]
 171 0006 1868     		ldr	r0, [r3]
ARM GAS  /var/folders/sv/kgmgr77579zbf78p2zlhkdfr0000gn/T//cckeN5Vv.s 			page 4


 172              		.loc 1 51 0
 173 0008 10B5     		push	{r4, lr}
 174              		.cfi_def_cfa_offset 8
 175              		.cfi_offset 4, -8
 176              		.cfi_offset 14, -4
 177              		.loc 1 52 0
 178 000a 0124     		movs	r4, #1
 179 000c 04FA01F1 		lsl	r1, r4, r1
 180 0010 0022     		movs	r2, #0
 181 0012 FFF7FEFF 		bl	_pal_lld_setgroupmode
 182              	.LVL5:
 183              		.loc 1 53 0
 184 0016 114A     		ldr	r2, .L13+8
 185 0018 114B     		ldr	r3, .L13+12
 186 001a 1168     		ldr	r1, [r2]
 187 001c 1868     		ldr	r0, [r3]
 188 001e 04FA01F1 		lsl	r1, r4, r1
 189 0022 0022     		movs	r2, #0
 190 0024 FFF7FEFF 		bl	_pal_lld_setgroupmode
 191              	.LVL6:
 192              		.loc 1 54 0
 193 0028 0E4A     		ldr	r2, .L13+16
 194 002a 0F4B     		ldr	r3, .L13+20
 195 002c 1168     		ldr	r1, [r2]
 196 002e 1868     		ldr	r0, [r3]
 197 0030 04FA01F1 		lsl	r1, r4, r1
 198 0034 0022     		movs	r2, #0
 199 0036 FFF7FEFF 		bl	_pal_lld_setgroupmode
 200              	.LVL7:
 201              		.loc 1 55 0
 202 003a 0C4A     		ldr	r2, .L13+24
 203 003c 0C4B     		ldr	r3, .L13+28
 204 003e 1168     		ldr	r1, [r2]
 205 0040 1868     		ldr	r0, [r3]
 206 0042 0022     		movs	r2, #0
 207 0044 04FA01F1 		lsl	r1, r4, r1
 208 0048 FFF7FEFF 		bl	_pal_lld_setgroupmode
 209              	.LVL8:
 210              		.loc 1 56 0
 211 004c 094B     		ldr	r3, .L13+32
 212 004e 0022     		movs	r2, #0
 213 0050 1A70     		strb	r2, [r3]
 214 0052 10BD     		pop	{r4, pc}
 215              	.L14:
 216              		.align	2
 217              	.L13:
 218 0054 00000000 		.word	.LANCHOR0
 219 0058 00000000 		.word	.LANCHOR1
 220 005c 00000000 		.word	.LANCHOR2
 221 0060 00000000 		.word	.LANCHOR3
 222 0064 00000000 		.word	.LANCHOR4
 223 0068 00000000 		.word	.LANCHOR5
 224 006c 00000000 		.word	.LANCHOR6
 225 0070 00000000 		.word	.LANCHOR7
 226 0074 00000000 		.word	.LANCHOR8
 227              		.cfi_endproc
 228              	.LFE257:
ARM GAS  /var/folders/sv/kgmgr77579zbf78p2zlhkdfr0000gn/T//cckeN5Vv.s 			page 5


 229              		.size	spi_sw_stop, .-spi_sw_stop
 230              		.section	.text.spi_sw_change_pins,"ax",%progbits
 231              		.align	2
 232              		.p2align 4,,15
 233              		.global	spi_sw_change_pins
 234              		.thumb
 235              		.thumb_func
 236              		.type	spi_sw_change_pins, %function
 237              	spi_sw_change_pins:
 238              	.LFB258:
 239              		.loc 1 63 0
 240              		.cfi_startproc
 241              		@ args = 16, pretend = 0, frame = 8
 242              		@ frame_needed = 0, uses_anonymous_args = 0
 243              	.LVL9:
 244 0000 2DE9F04F 		push	{r4, r5, r6, r7, r8, r9, r10, fp, lr}
 245              		.cfi_def_cfa_offset 36
 246              		.cfi_offset 4, -36
 247              		.cfi_offset 5, -32
 248              		.cfi_offset 6, -28
 249              		.cfi_offset 7, -24
 250              		.cfi_offset 8, -20
 251              		.cfi_offset 9, -16
 252              		.cfi_offset 10, -12
 253              		.cfi_offset 11, -8
 254              		.cfi_offset 14, -4
 255              		.loc 1 65 0
 256 0004 224F     		ldr	r7, .L20
 257              		.loc 1 63 0
 258 0006 83B0     		sub	sp, sp, #12
 259              		.cfi_def_cfa_offset 48
 260              		.loc 1 67 0
 261 0008 3C78     		ldrb	r4, [r7]	@ zero_extendqisi2
 262              		.loc 1 63 0
 263 000a DDF830B0 		ldr	fp, [sp, #48]
 264 000e DDF834A0 		ldr	r10, [sp, #52]
 265 0012 DDF83890 		ldr	r9, [sp, #56]
 266 0016 DDF83C80 		ldr	r8, [sp, #60]
 267              		.loc 1 67 0
 268 001a B4B9     		cbnz	r4, .L19
 269              		.loc 1 71 0
 270 001c 1D4D     		ldr	r5, .L20+4
 271              		.loc 1 72 0
 272 001e 1E4C     		ldr	r4, .L20+8
 273              		.loc 1 73 0
 274 0020 1E4E     		ldr	r6, .L20+12
 275              		.loc 1 71 0
 276 0022 2860     		str	r0, [r5]
 277              		.loc 1 72 0
 278 0024 2160     		str	r1, [r4]
 279              		.loc 1 74 0
 280 0026 1E4D     		ldr	r5, .L20+16
 281              		.loc 1 75 0
 282 0028 1E4C     		ldr	r4, .L20+20
 283              		.loc 1 76 0
 284 002a 1F48     		ldr	r0, .L20+24
 285              	.LVL10:
ARM GAS  /var/folders/sv/kgmgr77579zbf78p2zlhkdfr0000gn/T//cckeN5Vv.s 			page 6


 286              		.loc 1 73 0
 287 002c 3260     		str	r2, [r6]
 288              		.loc 1 77 0
 289 002e 1F49     		ldr	r1, .L20+28
 290              	.LVL11:
 291              		.loc 1 78 0
 292 0030 1F4A     		ldr	r2, .L20+32
 293              	.LVL12:
 294              		.loc 1 74 0
 295 0032 2B60     		str	r3, [r5]
 296              		.loc 1 75 0
 297 0034 C4F800B0 		str	fp, [r4]
 298              		.loc 1 76 0
 299 0038 C0F800A0 		str	r10, [r0]
 300              		.loc 1 77 0
 301 003c C1F80090 		str	r9, [r1]
 302              		.loc 1 78 0
 303 0040 C2F80080 		str	r8, [r2]
 304              	.LVL13:
 305              	.L15:
 306              		.loc 1 83 0
 307 0044 03B0     		add	sp, sp, #12
 308              		.cfi_remember_state
 309              		.cfi_def_cfa_offset 36
 310              		@ sp needed
 311 0046 BDE8F08F 		pop	{r4, r5, r6, r7, r8, r9, r10, fp, pc}
 312              	.LVL14:
 313              	.L19:
 314              		.cfi_restore_state
 315 004a 1446     		mov	r4, r2
 316 004c 0D46     		mov	r5, r1
 317 004e 0646     		mov	r6, r0
 318 0050 0193     		str	r3, [sp, #4]
 319              		.loc 1 68 0
 320 0052 FFF7FEFF 		bl	spi_sw_stop
 321              	.LVL15:
 322              		.loc 1 71 0
 323 0056 0F4A     		ldr	r2, .L20+4
 324              		.loc 1 72 0
 325 0058 0F49     		ldr	r1, .L20+8
 326              		.loc 1 71 0
 327 005a 1660     		str	r6, [r2]
 328              		.loc 1 73 0
 329 005c 0F4A     		ldr	r2, .L20+12
 330              		.loc 1 72 0
 331 005e 0D60     		str	r5, [r1]
 332              		.loc 1 73 0
 333 0060 1460     		str	r4, [r2]
 334              		.loc 1 74 0
 335 0062 0F4E     		ldr	r6, .L20+16
 336              	.LVL16:
 337              		.loc 1 75 0
 338 0064 0F4D     		ldr	r5, .L20+20
 339              	.LVL17:
 340              		.loc 1 76 0
 341 0066 1048     		ldr	r0, .L20+24
 342              		.loc 1 77 0
ARM GAS  /var/folders/sv/kgmgr77579zbf78p2zlhkdfr0000gn/T//cckeN5Vv.s 			page 7


 343 0068 1049     		ldr	r1, .L20+28
 344              		.loc 1 78 0
 345 006a 114A     		ldr	r2, .L20+32
 346              	.LBB48:
 347              	.LBB49:
 348              		.loc 1 39 0
 349 006c 3B78     		ldrb	r3, [r7]	@ zero_extendqisi2
 350              	.LBE49:
 351              	.LBE48:
 352              		.loc 1 74 0
 353 006e 019C     		ldr	r4, [sp, #4]
 354              	.LVL18:
 355 0070 3460     		str	r4, [r6]
 356              		.loc 1 75 0
 357 0072 C5F800B0 		str	fp, [r5]
 358              		.loc 1 76 0
 359 0076 C0F800A0 		str	r10, [r0]
 360              		.loc 1 77 0
 361 007a C1F80090 		str	r9, [r1]
 362              		.loc 1 78 0
 363 007e C2F80080 		str	r8, [r2]
 364              	.LBB52:
 365              	.LBB50:
 366              		.loc 1 39 0
 367 0082 002B     		cmp	r3, #0
 368 0084 DED1     		bne	.L15
 369              	.LBE50:
 370              	.LBE52:
 371              		.loc 1 83 0
 372 0086 03B0     		add	sp, sp, #12
 373              		.cfi_def_cfa_offset 36
 374              		@ sp needed
 375 0088 BDE8F04F 		pop	{r4, r5, r6, r7, r8, r9, r10, fp, lr}
 376              		.cfi_restore 14
 377              		.cfi_restore 11
 378              		.cfi_restore 10
 379              		.cfi_restore 9
 380              		.cfi_restore 8
 381              		.cfi_restore 7
 382              		.cfi_restore 6
 383              		.cfi_restore 5
 384              		.cfi_restore 4
 385              		.cfi_def_cfa_offset 0
 386              	.LVL19:
 387              	.LBB53:
 388              	.LBB51:
 389 008c FFF7FEBF 		b	spi_sw_init.part.0
 390              	.LVL20:
 391              	.L21:
 392              		.align	2
 393              	.L20:
 394 0090 00000000 		.word	.LANCHOR8
 395 0094 00000000 		.word	.LANCHOR3
 396 0098 00000000 		.word	.LANCHOR2
 397 009c 00000000 		.word	.LANCHOR5
 398 00a0 00000000 		.word	.LANCHOR4
 399 00a4 00000000 		.word	.LANCHOR7
ARM GAS  /var/folders/sv/kgmgr77579zbf78p2zlhkdfr0000gn/T//cckeN5Vv.s 			page 8


 400 00a8 00000000 		.word	.LANCHOR6
 401 00ac 00000000 		.word	.LANCHOR1
 402 00b0 00000000 		.word	.LANCHOR0
 403              	.LBE51:
 404              	.LBE53:
 405              		.cfi_endproc
 406              	.LFE258:
 407              		.size	spi_sw_change_pins, .-spi_sw_change_pins
 408              		.section	.text.spi_sw_transfer,"ax",%progbits
 409              		.align	2
 410              		.p2align 4,,15
 411              		.global	spi_sw_transfer
 412              		.thumb
 413              		.thumb_func
 414              		.type	spi_sw_transfer, %function
 415              	spi_sw_transfer:
 416              	.LFB259:
 417              		.loc 1 85 0
 418              		.cfi_startproc
 419              		@ args = 0, pretend = 0, frame = 40
 420              		@ frame_needed = 0, uses_anonymous_args = 0
 421              	.LVL21:
 422 0000 2DE9F04F 		push	{r4, r5, r6, r7, r8, r9, r10, fp, lr}
 423              		.cfi_def_cfa_offset 36
 424              		.cfi_offset 4, -36
 425              		.cfi_offset 5, -32
 426              		.cfi_offset 6, -28
 427              		.cfi_offset 7, -24
 428              		.cfi_offset 8, -20
 429              		.cfi_offset 9, -16
 430              		.cfi_offset 10, -12
 431              		.cfi_offset 11, -8
 432              		.cfi_offset 14, -4
 433              		.loc 1 86 0
 434 0004 DFF81C81 		ldr	r8, .L56+8
 435 0008 444B     		ldr	r3, .L56
 436 000a D8F80050 		ldr	r5, [r8]
 437 000e 1C68     		ldr	r4, [r3]
 438 0010 0123     		movs	r3, #1
 439              		.loc 1 85 0
 440 0012 8BB0     		sub	sp, sp, #44
 441              		.cfi_def_cfa_offset 80
 442              		.loc 1 86 0
 443 0014 AB40     		lsls	r3, r3, r5
 444 0016 9BB2     		uxth	r3, r3
 445              	.LBB54:
 446              	.LBB55:
 447              		.loc 1 133 0
 448 0018 0025     		movs	r5, #0
 449              	.LBE55:
 450              	.LBE54:
 451              		.loc 1 86 0
 452 001a 6383     		strh	r3, [r4, #26]	@ movhi
 453              	.LBB59:
 454              	.LBB58:
 455              		.loc 1 133 0
 456 001c 0795     		str	r5, [sp, #28]
ARM GAS  /var/folders/sv/kgmgr77579zbf78p2zlhkdfr0000gn/T//cckeN5Vv.s 			page 9


 457 001e 079B     		ldr	r3, [sp, #28]
 458 0020 042B     		cmp	r3, #4
 459 0022 06DC     		bgt	.L26
 460              	.L43:
 461              	.LBB56:
 462              	.LBB57:
 463              		.file 2 "ChibiOS_3.0.2/os/ext/CMSIS/include/core_cmInstr.h"
 464              		.loc 2 327 0
 465              		.syntax unified
 466              	@ 327 "ChibiOS_3.0.2/os/ext/CMSIS/include/core_cmInstr.h" 1
 467 0024 00BF     		nop
 468              	@ 0 "" 2
 469              		.thumb
 470              		.syntax unified
 471              	.LBE57:
 472              	.LBE56:
 473              		.loc 1 133 0
 474 0026 079B     		ldr	r3, [sp, #28]
 475 0028 0133     		adds	r3, r3, #1
 476 002a 0793     		str	r3, [sp, #28]
 477 002c 079B     		ldr	r3, [sp, #28]
 478 002e 042B     		cmp	r3, #4
 479 0030 F8DD     		ble	.L43
 480              	.L26:
 481              	.LVL22:
 482              	.LBE58:
 483              	.LBE59:
 484              	.LBB60:
 485              		.loc 1 89 0
 486 0032 002A     		cmp	r2, #0
 487 0034 6DDD     		ble	.L22
 488 0036 8218     		adds	r2, r0, r2
 489              	.LVL23:
 490 0038 DFF8ECB0 		ldr	fp, .L56+12
 491 003c DFF8ECA0 		ldr	r10, .L56+16
 492 0040 DFF8EC90 		ldr	r9, .L56+20
 493 0044 0391     		str	r1, [sp, #12]
 494 0046 0590     		str	r0, [sp, #20]
 495 0048 0492     		str	r2, [sp, #16]
 496 004a 0190     		str	r0, [sp, #4]
 497 004c 0291     		str	r1, [sp, #8]
 498              	.LBB61:
 499              	.LBB62:
 500              	.LBB63:
 501              	.LBB64:
 502              	.LBB65:
 503              		.loc 1 133 0
 504 004e 0027     		movs	r7, #0
 505              	.LVL24:
 506              	.L37:
 507              	.LBE65:
 508              	.LBE64:
 509              	.LBE63:
 510              	.LBE62:
 511              		.loc 1 90 0
 512 0050 039B     		ldr	r3, [sp, #12]
 513 0052 002B     		cmp	r3, #0
ARM GAS  /var/folders/sv/kgmgr77579zbf78p2zlhkdfr0000gn/T//cckeN5Vv.s 			page 10


 514 0054 60D0     		beq	.L38
 515              		.loc 1 90 0 is_stmt 0 discriminator 1
 516 0056 029B     		ldr	r3, [sp, #8]
 517 0058 1D78     		ldrb	r5, [r3]	@ zero_extendqisi2
 518              	.L27:
 519              	.LVL25:
 520 005a 0826     		movs	r6, #8
 521 005c 0024     		movs	r4, #0
 522              	.LVL26:
 523              	.L33:
 524              	.LBB84:
 525              	.LBB82:
 526              		.loc 1 94 0 is_stmt 1
 527 005e DBF80030 		ldr	r3, [fp]
 528 0062 2F4A     		ldr	r2, .L56+4
 529 0064 C5F3C711 		ubfx	r1, r5, #7, #8
 530 0068 03F11000 		add	r0, r3, #16
 531 006c 01FA03F3 		lsl	r3, r1, r3
 532 0070 81F00101 		eor	r1, r1, #1
 533 0074 1268     		ldr	r2, [r2]
 534 0076 8140     		lsls	r1, r1, r0
 535 0078 0B43     		orrs	r3, r3, r1
 536 007a 9361     		str	r3, [r2, #24]
 537              	.LBB71:
 538              	.LBB68:
 539              		.loc 1 133 0
 540 007c 0897     		str	r7, [sp, #32]
 541 007e 089B     		ldr	r3, [sp, #32]
 542              	.LBE68:
 543              	.LBE71:
 544              		.loc 1 95 0
 545 0080 6D00     		lsls	r5, r5, #1
 546              	.LVL27:
 547              	.LBB72:
 548              	.LBB69:
 549              		.loc 1 133 0
 550 0082 042B     		cmp	r3, #4
 551              	.LBE69:
 552              	.LBE72:
 553              		.loc 1 95 0
 554 0084 EDB2     		uxtb	r5, r5
 555              	.LVL28:
 556              	.LBB73:
 557              	.LBB70:
 558              		.loc 1 133 0
 559 0086 06DC     		bgt	.L31
 560              	.L42:
 561              	.LBB66:
 562              	.LBB67:
 563              		.loc 2 327 0
 564              		.syntax unified
 565              	@ 327 "ChibiOS_3.0.2/os/ext/CMSIS/include/core_cmInstr.h" 1
 566 0088 00BF     		nop
 567              	@ 0 "" 2
 568              		.thumb
 569              		.syntax unified
 570              	.LBE67:
ARM GAS  /var/folders/sv/kgmgr77579zbf78p2zlhkdfr0000gn/T//cckeN5Vv.s 			page 11


 571              	.LBE66:
 572              		.loc 1 133 0
 573 008a 089B     		ldr	r3, [sp, #32]
 574 008c 0133     		adds	r3, r3, #1
 575 008e 0893     		str	r3, [sp, #32]
 576 0090 089B     		ldr	r3, [sp, #32]
 577 0092 042B     		cmp	r3, #4
 578 0094 F8DD     		ble	.L42
 579              	.L31:
 580              	.LBE70:
 581              	.LBE73:
 582              		.loc 1 100 0
 583 0096 DAF80020 		ldr	r2, [r10]
 584 009a D9F80000 		ldr	r0, [r9]
 585 009e 1369     		ldr	r3, [r2, #16]
 586              	.LVL29:
 587              	.LBB74:
 588              	.LBB75:
 589              		.loc 2 327 0
 590              		.syntax unified
 591              	@ 327 "ChibiOS_3.0.2/os/ext/CMSIS/include/core_cmInstr.h" 1
 592 00a0 00BF     		nop
 593              	@ 0 "" 2
 594              		.thumb
 595              		.syntax unified
 596              	.LBE75:
 597              	.LBE74:
 598              		.loc 1 102 0
 599 00a2 1169     		ldr	r1, [r2, #16]
 600              	.LVL30:
 601              	.LBB76:
 602              	.LBB77:
 603              		.loc 2 327 0
 604              		.syntax unified
 605              	@ 327 "ChibiOS_3.0.2/os/ext/CMSIS/include/core_cmInstr.h" 1
 606 00a4 00BF     		nop
 607              	@ 0 "" 2
 608              		.thumb
 609              		.syntax unified
 610              	.LBE77:
 611              	.LBE76:
 612              		.loc 1 104 0
 613 00a6 1269     		ldr	r2, [r2, #16]
 614              	.LVL31:
 615              		.loc 1 107 0
 616 00a8 C140     		lsrs	r1, r1, r0
 617              	.LVL32:
 618 00aa C240     		lsrs	r2, r2, r0
 619              	.LVL33:
 620 00ac 23FA00F0 		lsr	r0, r3, r0
 621              	.LVL34:
 622              		.loc 1 106 0
 623 00b0 6400     		lsls	r4, r4, #1
 624              	.LVL35:
 625              		.loc 1 107 0
 626 00b2 02F00102 		and	r2, r2, #1
 627              	.LVL36:
ARM GAS  /var/folders/sv/kgmgr77579zbf78p2zlhkdfr0000gn/T//cckeN5Vv.s 			page 12


 628 00b6 01F00101 		and	r1, r1, #1
 629              	.LVL37:
 630 00ba 00F00100 		and	r0, r0, #1
 631              	.LVL38:
 632              		.loc 1 106 0
 633 00be E4B2     		uxtb	r4, r4
 634              	.LVL39:
 635              		.loc 1 107 0
 636 00c0 FFF7FEFF 		bl	utils_middle_of_3_int
 637              	.LVL40:
 638 00c4 08B1     		cbz	r0, .L30
 639              		.loc 1 108 0
 640 00c6 44F00104 		orr	r4, r4, #1
 641              	.LVL41:
 642              	.L30:
 643              		.loc 1 111 0 discriminator 2
 644 00ca 144B     		ldr	r3, .L56
 645 00cc D8F80020 		ldr	r2, [r8]
 646 00d0 1968     		ldr	r1, [r3]
 647 00d2 0123     		movs	r3, #1
 648 00d4 03FA02F2 		lsl	r2, r3, r2
 649 00d8 92B2     		uxth	r2, r2
 650 00da 0A83     		strh	r2, [r1, #24]	@ movhi
 651              	.LBB78:
 652              	.LBB79:
 653              		.loc 1 133 0 discriminator 2
 654 00dc 0997     		str	r7, [sp, #36]
 655 00de 099B     		ldr	r3, [sp, #36]
 656 00e0 042B     		cmp	r3, #4
 657 00e2 06DC     		bgt	.L35
 658              	.L41:
 659              	.LBB80:
 660              	.LBB81:
 661              		.loc 2 327 0
 662              		.syntax unified
 663              	@ 327 "ChibiOS_3.0.2/os/ext/CMSIS/include/core_cmInstr.h" 1
 664 00e4 00BF     		nop
 665              	@ 0 "" 2
 666              		.thumb
 667              		.syntax unified
 668              	.LBE81:
 669              	.LBE80:
 670              		.loc 1 133 0
 671 00e6 099B     		ldr	r3, [sp, #36]
 672 00e8 0133     		adds	r3, r3, #1
 673 00ea 0993     		str	r3, [sp, #36]
 674 00ec 099B     		ldr	r3, [sp, #36]
 675 00ee 042B     		cmp	r3, #4
 676 00f0 F8DD     		ble	.L41
 677              	.L35:
 678              	.LBE79:
 679              	.LBE78:
 680              	.LBE82:
 681              		.loc 1 93 0
 682 00f2 013E     		subs	r6, r6, #1
 683              	.LVL42:
 684              	.LBB83:
ARM GAS  /var/folders/sv/kgmgr77579zbf78p2zlhkdfr0000gn/T//cckeN5Vv.s 			page 13


 685              		.loc 1 113 0
 686 00f4 4A83     		strh	r2, [r1, #26]	@ movhi
 687              	.LVL43:
 688              	.LBE83:
 689              		.loc 1 93 0
 690 00f6 B2D1     		bne	.L33
 691              	.LBE84:
 692              		.loc 1 116 0
 693 00f8 059B     		ldr	r3, [sp, #20]
 694 00fa 0BB1     		cbz	r3, .L36
 695              		.loc 1 117 0
 696 00fc 019B     		ldr	r3, [sp, #4]
 697 00fe 1C70     		strb	r4, [r3]
 698              	.L36:
 699 0100 029A     		ldr	r2, [sp, #8]
 700 0102 019B     		ldr	r3, [sp, #4]
 701 0104 0132     		adds	r2, r2, #1
 702 0106 0292     		str	r2, [sp, #8]
 703              	.LBE61:
 704              		.loc 1 89 0 discriminator 2
 705 0108 049A     		ldr	r2, [sp, #16]
 706 010a 0133     		adds	r3, r3, #1
 707 010c 9342     		cmp	r3, r2
 708 010e 0193     		str	r3, [sp, #4]
 709 0110 9ED1     		bne	.L37
 710              	.LVL44:
 711              	.L22:
 712              	.LBE60:
 713              		.loc 1 120 0
 714 0112 0BB0     		add	sp, sp, #44
 715              		.cfi_remember_state
 716              		.cfi_def_cfa_offset 36
 717              		@ sp needed
 718 0114 BDE8F08F 		pop	{r4, r5, r6, r7, r8, r9, r10, fp, pc}
 719              	.LVL45:
 720              	.L38:
 721              		.cfi_restore_state
 722              	.LBB86:
 723              	.LBB85:
 724              		.loc 1 90 0
 725 0118 039D     		ldr	r5, [sp, #12]
 726 011a 9EE7     		b	.L27
 727              	.L57:
 728              		.align	2
 729              	.L56:
 730 011c 00000000 		.word	.LANCHOR5
 731 0120 00000000 		.word	.LANCHOR7
 732 0124 00000000 		.word	.LANCHOR4
 733 0128 00000000 		.word	.LANCHOR6
 734 012c 00000000 		.word	.LANCHOR1
 735 0130 00000000 		.word	.LANCHOR0
 736              	.LBE85:
 737              	.LBE86:
 738              		.cfi_endproc
 739              	.LFE259:
 740              		.size	spi_sw_transfer, .-spi_sw_transfer
 741              		.section	.text.spi_sw_begin,"ax",%progbits
ARM GAS  /var/folders/sv/kgmgr77579zbf78p2zlhkdfr0000gn/T//cckeN5Vv.s 			page 14


 742              		.align	2
 743              		.p2align 4,,15
 744              		.global	spi_sw_begin
 745              		.thumb
 746              		.thumb_func
 747              		.type	spi_sw_begin, %function
 748              	spi_sw_begin:
 749              	.LFB260:
 750              		.loc 1 122 0
 751              		.cfi_startproc
 752              		@ args = 0, pretend = 0, frame = 8
 753              		@ frame_needed = 0, uses_anonymous_args = 0
 754              		@ link register save eliminated.
 755              		.loc 1 123 0
 756 0000 0B4A     		ldr	r2, .L64
 757 0002 0C4B     		ldr	r3, .L64+4
 758 0004 1268     		ldr	r2, [r2]
 759 0006 1968     		ldr	r1, [r3]
 760 0008 0123     		movs	r3, #1
 761              		.loc 1 122 0
 762 000a 82B0     		sub	sp, sp, #8
 763              		.cfi_def_cfa_offset 8
 764              		.loc 1 123 0
 765 000c 9340     		lsls	r3, r3, r2
 766 000e 9BB2     		uxth	r3, r3
 767              	.LBB87:
 768              	.LBB88:
 769              		.loc 1 133 0
 770 0010 0022     		movs	r2, #0
 771              	.LBE88:
 772              	.LBE87:
 773              		.loc 1 123 0
 774 0012 4B83     		strh	r3, [r1, #26]	@ movhi
 775              	.LBB92:
 776              	.LBB91:
 777              		.loc 1 133 0
 778 0014 0192     		str	r2, [sp, #4]
 779 0016 019B     		ldr	r3, [sp, #4]
 780 0018 042B     		cmp	r3, #4
 781 001a 06DC     		bgt	.L58
 782              	.L61:
 783              	.LBB89:
 784              	.LBB90:
 785              		.loc 2 327 0
 786              		.syntax unified
 787              	@ 327 "ChibiOS_3.0.2/os/ext/CMSIS/include/core_cmInstr.h" 1
 788 001c 00BF     		nop
 789              	@ 0 "" 2
 790              		.thumb
 791              		.syntax unified
 792              	.LBE90:
 793              	.LBE89:
 794              		.loc 1 133 0
 795 001e 019B     		ldr	r3, [sp, #4]
 796 0020 0133     		adds	r3, r3, #1
 797 0022 0193     		str	r3, [sp, #4]
 798 0024 019B     		ldr	r3, [sp, #4]
ARM GAS  /var/folders/sv/kgmgr77579zbf78p2zlhkdfr0000gn/T//cckeN5Vv.s 			page 15


 799 0026 042B     		cmp	r3, #4
 800 0028 F8DD     		ble	.L61
 801              	.L58:
 802              	.LBE91:
 803              	.LBE92:
 804              		.loc 1 125 0
 805 002a 02B0     		add	sp, sp, #8
 806              		.cfi_def_cfa_offset 0
 807              		@ sp needed
 808 002c 7047     		bx	lr
 809              	.L65:
 810 002e 00BF     		.align	2
 811              	.L64:
 812 0030 00000000 		.word	.LANCHOR2
 813 0034 00000000 		.word	.LANCHOR3
 814              		.cfi_endproc
 815              	.LFE260:
 816              		.size	spi_sw_begin, .-spi_sw_begin
 817              		.section	.text.spi_sw_end,"ax",%progbits
 818              		.align	2
 819              		.p2align 4,,15
 820              		.global	spi_sw_end
 821              		.thumb
 822              		.thumb_func
 823              		.type	spi_sw_end, %function
 824              	spi_sw_end:
 825              	.LFB261:
 826              		.loc 1 127 0
 827              		.cfi_startproc
 828              		@ args = 0, pretend = 0, frame = 8
 829              		@ frame_needed = 0, uses_anonymous_args = 0
 830              		@ link register save eliminated.
 831 0000 82B0     		sub	sp, sp, #8
 832              		.cfi_def_cfa_offset 8
 833              	.LBB93:
 834              	.LBB94:
 835              		.loc 1 133 0
 836 0002 0023     		movs	r3, #0
 837 0004 0193     		str	r3, [sp, #4]
 838 0006 019B     		ldr	r3, [sp, #4]
 839 0008 042B     		cmp	r3, #4
 840 000a 06DC     		bgt	.L68
 841              	.L69:
 842              	.LBB95:
 843              	.LBB96:
 844              		.loc 2 327 0
 845              		.syntax unified
 846              	@ 327 "ChibiOS_3.0.2/os/ext/CMSIS/include/core_cmInstr.h" 1
 847 000c 00BF     		nop
 848              	@ 0 "" 2
 849              		.thumb
 850              		.syntax unified
 851              	.LBE96:
 852              	.LBE95:
 853              		.loc 1 133 0
 854 000e 019B     		ldr	r3, [sp, #4]
 855 0010 0133     		adds	r3, r3, #1
ARM GAS  /var/folders/sv/kgmgr77579zbf78p2zlhkdfr0000gn/T//cckeN5Vv.s 			page 16


 856 0012 0193     		str	r3, [sp, #4]
 857 0014 019B     		ldr	r3, [sp, #4]
 858 0016 042B     		cmp	r3, #4
 859 0018 F8DD     		ble	.L69
 860              	.L68:
 861              	.LBE94:
 862              	.LBE93:
 863              		.loc 1 129 0
 864 001a 054A     		ldr	r2, .L73
 865 001c 054B     		ldr	r3, .L73+4
 866 001e 1168     		ldr	r1, [r2]
 867 0020 1A68     		ldr	r2, [r3]
 868 0022 0123     		movs	r3, #1
 869 0024 8B40     		lsls	r3, r3, r1
 870 0026 9BB2     		uxth	r3, r3
 871 0028 1383     		strh	r3, [r2, #24]	@ movhi
 872              		.loc 1 130 0
 873 002a 02B0     		add	sp, sp, #8
 874              		.cfi_def_cfa_offset 0
 875              		@ sp needed
 876 002c 7047     		bx	lr
 877              	.L74:
 878 002e 00BF     		.align	2
 879              	.L73:
 880 0030 00000000 		.word	.LANCHOR2
 881 0034 00000000 		.word	.LANCHOR3
 882              		.cfi_endproc
 883              	.LFE261:
 884              		.size	spi_sw_end, .-spi_sw_end
 885              		.section	.data.m_port_mosi,"aw",%progbits
 886              		.align	2
 887              		.set	.LANCHOR7,. + 0
 888              		.type	m_port_mosi, %object
 889              		.size	m_port_mosi, 4
 890              	m_port_mosi:
 891 0000 00000240 		.word	1073872896
 892              		.section	.data.m_port_csn,"aw",%progbits
 893              		.align	2
 894              		.set	.LANCHOR3,. + 0
 895              		.type	m_port_csn, %object
 896              		.size	m_port_csn, 4
 897              	m_port_csn:
 898 0000 00000240 		.word	1073872896
 899              		.section	.data.m_pin_miso,"aw",%progbits
 900              		.align	2
 901              		.set	.LANCHOR0,. + 0
 902              		.type	m_pin_miso, %object
 903              		.size	m_pin_miso, 4
 904              	m_pin_miso:
 905 0000 06000000 		.word	6
 906              		.section	.data.m_port_sck,"aw",%progbits
 907              		.align	2
 908              		.set	.LANCHOR5,. + 0
 909              		.type	m_port_sck, %object
 910              		.size	m_port_sck, 4
 911              	m_port_sck:
 912 0000 00000240 		.word	1073872896
ARM GAS  /var/folders/sv/kgmgr77579zbf78p2zlhkdfr0000gn/T//cckeN5Vv.s 			page 17


 913              		.section	.data.m_port_miso,"aw",%progbits
 914              		.align	2
 915              		.set	.LANCHOR1,. + 0
 916              		.type	m_port_miso, %object
 917              		.size	m_port_miso, 4
 918              	m_port_miso:
 919 0000 00000240 		.word	1073872896
 920              		.section	.bss.m_init_done,"aw",%nobits
 921              		.set	.LANCHOR8,. + 0
 922              		.type	m_init_done, %object
 923              		.size	m_init_done, 1
 924              	m_init_done:
 925 0000 00       		.space	1
 926              		.section	.data.m_pin_mosi,"aw",%progbits
 927              		.align	2
 928              		.set	.LANCHOR6,. + 0
 929              		.type	m_pin_mosi, %object
 930              		.size	m_pin_mosi, 4
 931              	m_pin_mosi:
 932 0000 07000000 		.word	7
 933              		.section	.data.m_pin_sck,"aw",%progbits
 934              		.align	2
 935              		.set	.LANCHOR4,. + 0
 936              		.type	m_pin_sck, %object
 937              		.size	m_pin_sck, 4
 938              	m_pin_sck:
 939 0000 05000000 		.word	5
 940              		.section	.data.m_pin_csn,"aw",%progbits
 941              		.align	2
 942              		.set	.LANCHOR2,. + 0
 943              		.type	m_pin_csn, %object
 944              		.size	m_pin_csn, 4
 945              	m_pin_csn:
 946 0000 04000000 		.word	4
 947              		.text
 948              	.Letext0:
 949              		.file 3 "/usr/local/Cellar/gcc-arm-none-eabi/20160928/arm-none-eabi/include/machine/_default_types
 950              		.file 4 "/usr/local/Cellar/gcc-arm-none-eabi/20160928/arm-none-eabi/include/sys/_stdint.h"
 951              		.file 5 "/usr/local/Cellar/gcc-arm-none-eabi/20160928/lib/gcc/arm-none-eabi/5.4.1/include/stddef.h
 952              		.file 6 "ChibiOS_3.0.2/os/rt/ports/ARMCMx/compilers/GCC/chtypes.h"
 953              		.file 7 "ChibiOS_3.0.2/os/rt/include/chsystypes.h"
 954              		.file 8 "ChibiOS_3.0.2/os/rt/include/chschd.h"
 955              		.file 9 "ChibiOS_3.0.2/os/rt/ports/ARMCMx/chcore.h"
 956              		.file 10 "ChibiOS_3.0.2/os/rt/ports/ARMCMx/chcore_v7m.h"
 957              		.file 11 "ChibiOS_3.0.2/os/rt/include/chtm.h"
 958              		.file 12 "ChibiOS_3.0.2/os/rt/include/chsem.h"
 959              		.file 13 "ChibiOS_3.0.2/os/rt/include/chmtx.h"
 960              		.file 14 "ChibiOS_3.0.2/os/hal/ports/STM32/LLD/GPIOv2/pal_lld.h"
 961              		.file 15 "./utils.h"
 962              		.file 16 "ChibiOS_3.0.2/os/ext/CMSIS/include/core_cm4.h"