ARM GAS  /var/folders/sv/kgmgr77579zbf78p2zlhkdfr0000gn/T//ccygG6jq.s 			page 1


   1              		.syntax unified
   2              		.cpu cortex-m4
   3              		.eabi_attribute 27, 1
   4              		.eabi_attribute 28, 1
   5              		.fpu fpv4-sp-d16
   6              		.eabi_attribute 20, 1
   7              		.eabi_attribute 21, 1
   8              		.eabi_attribute 23, 3
   9              		.eabi_attribute 24, 1
  10              		.eabi_attribute 25, 1
  11              		.eabi_attribute 26, 1
  12              		.eabi_attribute 30, 2
  13              		.eabi_attribute 34, 1
  14              		.eabi_attribute 18, 4
  15              		.thumb
  16              		.syntax unified
  17              		.file	"terminal.c"
  18              		.text
  19              	.Ltext0:
  20              		.cfi_sections	.debug_frame
  21              		.global	__aeabi_f2d
  22              		.section	.text.terminal_process_string,"ax",%progbits
  23              		.align	2
  24              		.p2align 4,,15
  25              		.global	terminal_process_string
  26              		.thumb
  27              		.thumb_func
  28              		.type	terminal_process_string, %function
  29              	terminal_process_string:
  30              	.LFB257:
  31              		.file 1 "terminal.c"
  32              		.loc 1 57 0
  33              		.cfi_startproc
  34              		@ args = 0, pretend = 0, frame = 312
  35              		@ frame_needed = 0, uses_anonymous_args = 0
  36              	.LVL0:
  37 0000 2DE9F047 		push	{r4, r5, r6, r7, r8, r9, r10, lr}
  38              		.cfi_def_cfa_offset 32
  39              		.cfi_offset 4, -32
  40              		.cfi_offset 5, -28
  41              		.cfi_offset 6, -24
  42              		.cfi_offset 7, -20
  43              		.cfi_offset 8, -16
  44              		.cfi_offset 9, -12
  45              		.cfi_offset 10, -8
  46              		.cfi_offset 14, -4
  47 0004 2DED088B 		vpush.64	{d8, d9, d10, d11}
  48              		.cfi_def_cfa_offset 64
  49              		.cfi_offset 80, -64
  50              		.cfi_offset 81, -60
  51              		.cfi_offset 82, -56
  52              		.cfi_offset 83, -52
  53              		.cfi_offset 84, -48
  54              		.cfi_offset 85, -44
  55              		.cfi_offset 86, -40
  56              		.cfi_offset 87, -36
  57              		.loc 1 62 0
ARM GAS  /var/folders/sv/kgmgr77579zbf78p2zlhkdfr0000gn/T//ccygG6jq.s 			page 2


  58 0008 8D49     		ldr	r1, .L182
  59              		.loc 1 57 0
  60 000a D8B0     		sub	sp, sp, #352
  61              		.cfi_def_cfa_offset 416
  62              		.loc 1 62 0
  63 000c FFF7FEFF 		bl	strtok
  64              	.LVL1:
  65              		.loc 1 63 0
  66 0010 0028     		cmp	r0, #0
  67 0012 79D0     		beq	.L155
  68 0014 17AD     		add	r5, sp, #92
  69 0016 0024     		movs	r4, #0
  70 0018 01E0     		b	.L5
  71              	.LVL2:
  72              	.L156:
  73              		.loc 1 63 0 is_stmt 0 discriminator 1
  74 001a 402C     		cmp	r4, #64
  75 001c 08D0     		beq	.L4
  76              	.LVL3:
  77              	.L5:
  78              		.loc 1 64 0 is_stmt 1
  79 001e 45F8040F 		str	r0, [r5, #4]!
  80              		.loc 1 65 0
  81 0022 8749     		ldr	r1, .L182
  82 0024 0020     		movs	r0, #0
  83              	.LVL4:
  84 0026 FFF7FEFF 		bl	strtok
  85              	.LVL5:
  86              		.loc 1 64 0
  87 002a 0134     		adds	r4, r4, #1
  88              	.LVL6:
  89              		.loc 1 63 0
  90 002c 0028     		cmp	r0, #0
  91 002e F4D1     		bne	.L156
  92              	.L4:
  93              		.loc 1 75 0
  94 0030 FFF7FEFF 		bl	mc_interface_get_configuration
  95              	.LVL7:
  96 0034 4FF4BA72 		mov	r2, #372
  97 0038 0146     		mov	r1, r0
  98 003a 8248     		ldr	r0, .L182+4
  99 003c FFF7FEFF 		bl	memcpy
 100              	.LVL8:
 101              		.loc 1 76 0
 102 0040 8049     		ldr	r1, .L182+4
 103 0042 8148     		ldr	r0, .L182+8
 104 0044 4FF4BA72 		mov	r2, #372
 105 0048 FFF7FEFF 		bl	memcpy
 106              	.LVL9:
 107              		.loc 1 78 0
 108 004c 189D     		ldr	r5, [sp, #96]
 109 004e 7F49     		ldr	r1, .L182+12
 110 0050 2846     		mov	r0, r5
 111 0052 FFF7FEFF 		bl	strcmp
 112              	.LVL10:
 113 0056 0028     		cmp	r0, #0
 114 0058 5ED0     		beq	.L157
ARM GAS  /var/folders/sv/kgmgr77579zbf78p2zlhkdfr0000gn/T//ccygG6jq.s 			page 3


 115              		.loc 1 80 0
 116 005a 7D49     		ldr	r1, .L182+16
 117 005c 2846     		mov	r0, r5
 118 005e FFF7FEFF 		bl	strcmp
 119              	.LVL11:
 120 0062 0028     		cmp	r0, #0
 121 0064 6CD0     		beq	.L158
 122              		.loc 1 83 0
 123 0066 7B49     		ldr	r1, .L182+20
 124 0068 2846     		mov	r0, r5
 125 006a FFF7FEFF 		bl	strcmp
 126              	.LVL12:
 127 006e 0028     		cmp	r0, #0
 128 0070 72D0     		beq	.L159
 129              		.loc 1 87 0
 130 0072 7949     		ldr	r1, .L182+24
 131 0074 2846     		mov	r0, r5
 132 0076 FFF7FEFF 		bl	strcmp
 133              	.LVL13:
 134 007a 0028     		cmp	r0, #0
 135 007c 54D0     		beq	.L160
 136              		.loc 1 89 0
 137 007e 7749     		ldr	r1, .L182+28
 138 0080 2846     		mov	r0, r5
 139 0082 FFF7FEFF 		bl	strcmp
 140              	.LVL14:
 141 0086 0028     		cmp	r0, #0
 142 0088 00F09980 		beq	.L161
 143              		.loc 1 95 0
 144 008c 7449     		ldr	r1, .L182+32
 145 008e 2846     		mov	r0, r5
 146 0090 FFF7FEFF 		bl	strcmp
 147              	.LVL15:
 148 0094 0028     		cmp	r0, #0
 149 0096 00F0A580 		beq	.L162
 150              		.loc 1 109 0
 151 009a 7249     		ldr	r1, .L182+36
 152 009c 2846     		mov	r0, r5
 153 009e FFF7FEFF 		bl	strcmp
 154              	.LVL16:
 155 00a2 0028     		cmp	r0, #0
 156 00a4 00F0C380 		beq	.L163
 157              		.loc 1 111 0
 158 00a8 6F49     		ldr	r1, .L182+40
 159 00aa 2846     		mov	r0, r5
 160 00ac FFF7FEFF 		bl	strcmp
 161              	.LVL17:
 162 00b0 0028     		cmp	r0, #0
 163 00b2 7BD0     		beq	.L164
 164              		.loc 1 139 0
 165 00b4 6D49     		ldr	r1, .L182+44
 166 00b6 2846     		mov	r0, r5
 167 00b8 FFF7FEFF 		bl	strcmp
 168              	.LVL18:
 169 00bc 0028     		cmp	r0, #0
 170 00be 00F07D81 		beq	.L165
 171              		.loc 1 141 0
ARM GAS  /var/folders/sv/kgmgr77579zbf78p2zlhkdfr0000gn/T//ccygG6jq.s 			page 4


 172 00c2 6B49     		ldr	r1, .L182+48
 173 00c4 2846     		mov	r0, r5
 174 00c6 FFF7FEFF 		bl	strcmp
 175              	.LVL19:
 176 00ca 0028     		cmp	r0, #0
 177 00cc 00F08281 		beq	.L166
 178              		.loc 1 143 0
 179 00d0 6849     		ldr	r1, .L182+52
 180 00d2 2846     		mov	r0, r5
 181 00d4 FFF7FEFF 		bl	strcmp
 182              	.LVL20:
 183 00d8 0028     		cmp	r0, #0
 184 00da 00F0B881 		beq	.L167
 185              		.loc 1 168 0
 186 00de 6649     		ldr	r1, .L182+56
 187 00e0 2846     		mov	r0, r5
 188 00e2 FFF7FEFF 		bl	strcmp
 189              	.LVL21:
 190 00e6 0028     		cmp	r0, #0
 191 00e8 00F09881 		beq	.L168
 192              		.loc 1 170 0
 193 00ec 6349     		ldr	r1, .L182+60
 194 00ee 2846     		mov	r0, r5
 195 00f0 FFF7FEFF 		bl	strcmp
 196              	.LVL22:
 197 00f4 0028     		cmp	r0, #0
 198 00f6 40F07481 		bne	.L23
 199              		.loc 1 172 0
 200 00fa 042C     		cmp	r4, #4
 201 00fc 00F0F181 		beq	.L169
 202              		.loc 1 214 0
 203 0100 5F48     		ldr	r0, .L182+64
 204 0102 FFF7FEFF 		bl	commands_printf
 205              	.LVL23:
 206 0106 02E0     		b	.L1
 207              	.LVL24:
 208              	.L155:
 209              		.loc 1 69 0
 210 0108 5E48     		ldr	r0, .L182+68
 211              	.LVL25:
 212 010a FFF7FEFF 		bl	commands_printf
 213              	.LVL26:
 214              	.L1:
 215              		.loc 1 696 0
 216 010e 58B0     		add	sp, sp, #352
 217              		.cfi_remember_state
 218              		.cfi_def_cfa_offset 64
 219              		@ sp needed
 220 0110 BDEC088B 		vldm	sp!, {d8-d11}
 221              		.cfi_restore 86
 222              		.cfi_restore 87
 223              		.cfi_restore 84
 224              		.cfi_restore 85
 225              		.cfi_restore 82
 226              		.cfi_restore 83
 227              		.cfi_restore 80
 228              		.cfi_restore 81
ARM GAS  /var/folders/sv/kgmgr77579zbf78p2zlhkdfr0000gn/T//ccygG6jq.s 			page 5


 229              		.cfi_def_cfa_offset 32
 230 0114 BDE8F087 		pop	{r4, r5, r6, r7, r8, r9, r10, pc}
 231              	.LVL27:
 232              	.L157:
 233              		.cfi_restore_state
 234              		.loc 1 79 0
 235 0118 5B48     		ldr	r0, .L182+72
 236 011a FFF7FEFF 		bl	commands_printf
 237              	.LVL28:
 238              		.loc 1 696 0
 239 011e 58B0     		add	sp, sp, #352
 240              		.cfi_remember_state
 241              		.cfi_def_cfa_offset 64
 242              		@ sp needed
 243 0120 BDEC088B 		vldm	sp!, {d8-d11}
 244              		.cfi_restore 80
 245              		.cfi_restore 81
 246              		.cfi_restore 82
 247              		.cfi_restore 83
 248              		.cfi_restore 84
 249              		.cfi_restore 85
 250              		.cfi_restore 86
 251              		.cfi_restore 87
 252              		.cfi_def_cfa_offset 32
 253 0124 BDE8F087 		pop	{r4, r5, r6, r7, r8, r9, r10, pc}
 254              	.LVL29:
 255              	.L160:
 256              		.cfi_restore_state
 257              		.loc 1 88 0
 258 0128 FFF7FEFF 		bl	mcpwm_get_kv_filtered
 259              	.LVL30:
 260 012c 10EE100A 		vmov	r0, s0
 261 0130 FFF7FEFF 		bl	__aeabi_f2d
 262              	.LVL31:
 263 0134 0246     		mov	r2, r0
 264 0136 0B46     		mov	r3, r1
 265 0138 5448     		ldr	r0, .L182+76
 266 013a FFF7FEFF 		bl	commands_printf
 267              	.LVL32:
 268 013e E6E7     		b	.L1
 269              	.L158:
 270              		.loc 1 81 0
 271 0140 9FED530A 		vldr.32	s0, .L182+80
 272 0144 FFF7FEFF 		bl	mc_interface_set_duty
 273              	.LVL33:
 274              		.loc 1 82 0
 275 0148 5248     		ldr	r0, .L182+84
 276 014a FFF7FEFF 		bl	commands_printf
 277              	.LVL34:
 278              		.loc 1 696 0
 279 014e 58B0     		add	sp, sp, #352
 280              		.cfi_remember_state
 281              		.cfi_def_cfa_offset 64
 282              		@ sp needed
 283 0150 BDEC088B 		vldm	sp!, {d8-d11}
 284              		.cfi_restore 80
 285              		.cfi_restore 81
ARM GAS  /var/folders/sv/kgmgr77579zbf78p2zlhkdfr0000gn/T//ccygG6jq.s 			page 6


 286              		.cfi_restore 82
 287              		.cfi_restore 83
 288              		.cfi_restore 84
 289              		.cfi_restore 85
 290              		.cfi_restore 86
 291              		.cfi_restore 87
 292              		.cfi_def_cfa_offset 32
 293 0154 BDE8F087 		pop	{r4, r5, r6, r7, r8, r9, r10, pc}
 294              	.LVL35:
 295              	.L159:
 296              		.cfi_restore_state
 297              		.loc 1 84 0
 298 0158 FFF7FEFF 		bl	mcpwm_get_last_adc_isr_duration
 299              	.LVL36:
 300 015c 9FED4E8A 		vldr.32	s16, .L182+88
 301 0160 60EE087A 		vmul.f32	s15, s0, s16
 302 0164 17EE900A 		vmov	r0, s15
 303 0168 FFF7FEFF 		bl	__aeabi_f2d
 304              	.LVL37:
 305 016c 0246     		mov	r2, r0
 306 016e 0B46     		mov	r3, r1
 307 0170 4A48     		ldr	r0, .L182+92
 308 0172 FFF7FEFF 		bl	commands_printf
 309              	.LVL38:
 310              		.loc 1 85 0
 311 0176 FFF7FEFF 		bl	mc_interface_get_last_inj_adc_isr_duration
 312              	.LVL39:
 313 017a 60EE087A 		vmul.f32	s15, s0, s16
 314 017e 17EE900A 		vmov	r0, s15
 315 0182 FFF7FEFF 		bl	__aeabi_f2d
 316              	.LVL40:
 317 0186 0246     		mov	r2, r0
 318 0188 0B46     		mov	r3, r1
 319 018a 4548     		ldr	r0, .L182+96
 320 018c FFF7FEFF 		bl	commands_printf
 321              	.LVL41:
 322              		.loc 1 86 0
 323 0190 FFF7FEFF 		bl	mc_interface_get_last_sample_adc_isr_duration
 324              	.LVL42:
 325 0194 60EE087A 		vmul.f32	s15, s0, s16
 326 0198 17EE900A 		vmov	r0, s15
 327 019c FFF7FEFF 		bl	__aeabi_f2d
 328              	.LVL43:
 329 01a0 0246     		mov	r2, r0
 330 01a2 0B46     		mov	r3, r1
 331 01a4 3F48     		ldr	r0, .L182+100
 332 01a6 FFF7FEFF 		bl	commands_printf
 333              	.LVL44:
 334 01aa B0E7     		b	.L1
 335              	.L164:
 336              		.loc 1 112 0
 337 01ac 3E4F     		ldr	r7, .L182+104
 338 01ae 3B68     		ldr	r3, [r7]
 339 01b0 002B     		cmp	r3, #0
 340 01b2 40F08F80 		bne	.L16
 341              		.loc 1 113 0
 342 01b6 3D48     		ldr	r0, .L182+108
ARM GAS  /var/folders/sv/kgmgr77579zbf78p2zlhkdfr0000gn/T//ccygG6jq.s 			page 7


 343 01b8 FFF7FEFF 		bl	commands_printf
 344              	.LVL45:
 345 01bc A7E7     		b	.L1
 346              	.L161:
 347              	.LBB59:
 348              		.loc 1 91 0
 349 01be 11A9     		add	r1, sp, #68
 350 01c0 FFF7FEFF 		bl	chHeapStatus
 351              	.LVL46:
 352 01c4 0446     		mov	r4, r0
 353              	.LVL47:
 354              		.loc 1 92 0
 355 01c6 FFF7FEFF 		bl	chCoreGetStatusX
 356              	.LVL48:
 357 01ca 0146     		mov	r1, r0
 358 01cc 3848     		ldr	r0, .L182+112
 359 01ce FFF7FEFF 		bl	commands_printf
 360              	.LVL49:
 361              		.loc 1 93 0
 362 01d2 2146     		mov	r1, r4
 363 01d4 3748     		ldr	r0, .L182+116
 364 01d6 FFF7FEFF 		bl	commands_printf
 365              	.LVL50:
 366              		.loc 1 94 0
 367 01da 1199     		ldr	r1, [sp, #68]
 368 01dc 3648     		ldr	r0, .L182+120
 369 01de FFF7FEFF 		bl	commands_printf
 370              	.LVL51:
 371              	.LBE59:
 372 01e2 94E7     		b	.L1
 373              	.LVL52:
 374              	.L162:
 375              	.LBB60:
 376              		.loc 1 98 0
 377 01e4 3548     		ldr	r0, .L182+124
 378 01e6 364D     		ldr	r5, .L182+128
 379 01e8 FFF7FEFF 		bl	commands_printf
 380              	.LVL53:
 381              		.loc 1 99 0
 382 01ec 3548     		ldr	r0, .L182+132
 383 01ee FFF7FEFF 		bl	commands_printf
 384              	.LVL54:
 385              		.loc 1 100 0
 386 01f2 FFF7FEFF 		bl	chRegFirstThread
 387              	.LVL55:
 388 01f6 0446     		mov	r4, r0
 389              	.LVL56:
 390              	.L13:
 391              		.loc 1 105 0 discriminator 1
 392 01f8 216A     		ldr	r1, [r4, #32]
 393              		.loc 1 102 0 discriminator 1
 394 01fa A368     		ldr	r3, [r4, #8]
 395 01fc E268     		ldr	r2, [r4, #12]
 396 01fe 0391     		str	r1, [sp, #12]
 397 0200 A169     		ldr	r1, [r4, #24]
 398 0202 0291     		str	r1, [sp, #8]
 399 0204 217F     		ldrb	r1, [r4, #28]	@ zero_extendqisi2
ARM GAS  /var/folders/sv/kgmgr77579zbf78p2zlhkdfr0000gn/T//ccygG6jq.s 			page 8


 400 0206 3048     		ldr	r0, .L182+136
 401              	.LVL57:
 402 0208 55F82110 		ldr	r1, [r5, r1, lsl #2]
 403 020c 0191     		str	r1, [sp, #4]
 404 020e A17F     		ldrb	r1, [r4, #30]	@ zero_extendqisi2
 405 0210 0139     		subs	r1, r1, #1
 406 0212 0091     		str	r1, [sp]
 407 0214 2146     		mov	r1, r4
 408 0216 FFF7FEFF 		bl	commands_printf
 409              	.LVL58:
 410              		.loc 1 106 0 discriminator 1
 411 021a 2046     		mov	r0, r4
 412 021c FFF7FEFF 		bl	chRegNextThread
 413              	.LVL59:
 414              		.loc 1 107 0 discriminator 1
 415 0220 0446     		mov	r4, r0
 416 0222 0028     		cmp	r0, #0
 417 0224 E8D1     		bne	.L13
 418              		.loc 1 108 0
 419 0226 2948     		ldr	r0, .L182+140
 420              	.LVL60:
 421 0228 FFF7FEFF 		bl	commands_printf
 422              	.LVL61:
 423              	.LBE60:
 424 022c 6FE7     		b	.L1
 425              	.LVL62:
 426              	.L163:
 427              		.loc 1 110 0
 428 022e FFF7FEFF 		bl	mc_interface_get_fault
 429              	.LVL63:
 430 0232 FFF7FEFF 		bl	mc_interface_fault_to_string
 431              	.LVL64:
 432 0236 0146     		mov	r1, r0
 433 0238 2548     		ldr	r0, .L182+144
 434 023a FFF7FEFF 		bl	commands_printf
 435              	.LVL65:
 436 023e 66E7     		b	.L1
 437              	.L183:
 438              		.align	2
 439              	.L182:
 440 0240 18000000 		.word	.LC4
 441 0244 00000000 		.word	.LANCHOR0
 442 0248 00000000 		.word	.LANCHOR1
 443 024c 34000000 		.word	.LC6
 444 0250 44000000 		.word	.LC8
 445 0254 5C000000 		.word	.LC10
 446 0258 E0000000 		.word	.LC14
 447 025c 04010000 		.word	.LC16
 448 0260 5C010000 		.word	.LC20
 449 0264 0C020000 		.word	.LC25
 450 0268 18020000 		.word	.LC27
 451 026c C8030000 		.word	.LC44
 452 0270 E8030000 		.word	.LC46
 453 0274 08040000 		.word	.LC48
 454 0278 C0040000 		.word	.LC60
 455 027c E0040000 		.word	.LC62
 456 0280 38060000 		.word	.LC73
ARM GAS  /var/folders/sv/kgmgr77579zbf78p2zlhkdfr0000gn/T//ccygG6jq.s 			page 9


 457 0284 1C000000 		.word	.LC5
 458 0288 3C000000 		.word	.LC7
 459 028c E4000000 		.word	.LC15
 460 0290 00000000 		.word	0
 461 0294 4C000000 		.word	.LC9
 462 0298 00007A44 		.word	1148846080
 463 029c 70000000 		.word	.LC11
 464 02a0 90000000 		.word	.LC12
 465 02a4 B8000000 		.word	.LC13
 466 02a8 00000000 		.word	.LANCHOR3
 467 02ac 20020000 		.word	.LC28
 468 02b0 08010000 		.word	.LC17
 469 02b4 24010000 		.word	.LC18
 470 02b8 3C010000 		.word	.LC19
 471 02bc 64010000 		.word	.LC21
 472 02c0 00000000 		.word	.LANCHOR2
 473 02c4 A4010000 		.word	.LC22
 474 02c8 E4010000 		.word	.LC23
 475 02cc 08020000 		.word	.LC24
 476 02d0 14020000 		.word	.LC26
 477              	.L16:
 478              		.loc 1 115 0
 479 02d4 C348     		ldr	r0, .L184
 480 02d6 FFF7FEFF 		bl	commands_printf
 481              	.LVL66:
 482              	.LBB61:
 483              		.loc 1 116 0
 484 02da 3B68     		ldr	r3, [r7]
 485 02dc 002B     		cmp	r3, #0
 486 02de 7FF716AF 		ble	.L1
 487 02e2 C14E     		ldr	r6, .L184+4
 488              		.loc 1 116 0 is_stmt 0 discriminator 3
 489 02e4 0025     		movs	r5, #0
 490              	.LVL67:
 491              	.L18:
 492              		.loc 1 117 0 is_stmt 1 discriminator 3
 493 02e6 C5EBC503 		rsb	r3, r5, r5, lsl #3
 494 02ea 06EBC304 		add	r4, r6, r3, lsl #3
 495 02ee 16F83300 		ldrb	r0, [r6, r3, lsl #3]	@ zero_extendqisi2
 496 02f2 FFF7FEFF 		bl	mc_interface_fault_to_string
 497              	.LVL68:
 498 02f6 0146     		mov	r1, r0
 499 02f8 BC48     		ldr	r0, .L184+8
 500 02fa FFF7FEFF 		bl	commands_printf
 501              	.LVL69:
 502              		.loc 1 118 0 discriminator 3
 503 02fe 6068     		ldr	r0, [r4, #4]	@ float
 504 0300 FFF7FEFF 		bl	__aeabi_f2d
 505              	.LVL70:
 506 0304 0246     		mov	r2, r0
 507 0306 0B46     		mov	r3, r1
 508 0308 B948     		ldr	r0, .L184+12
 509 030a FFF7FEFF 		bl	commands_printf
 510              	.LVL71:
 511              		.loc 1 119 0 discriminator 3
 512 030e A068     		ldr	r0, [r4, #8]	@ float
 513 0310 FFF7FEFF 		bl	__aeabi_f2d
ARM GAS  /var/folders/sv/kgmgr77579zbf78p2zlhkdfr0000gn/T//ccygG6jq.s 			page 10


 514              	.LVL72:
 515 0314 0246     		mov	r2, r0
 516 0316 0B46     		mov	r3, r1
 517 0318 B648     		ldr	r0, .L184+16
 518 031a FFF7FEFF 		bl	commands_printf
 519              	.LVL73:
 520              		.loc 1 120 0 discriminator 3
 521 031e E068     		ldr	r0, [r4, #12]	@ float
 522 0320 FFF7FEFF 		bl	__aeabi_f2d
 523              	.LVL74:
 524 0324 0246     		mov	r2, r0
 525 0326 0B46     		mov	r3, r1
 526 0328 B348     		ldr	r0, .L184+20
 527 032a FFF7FEFF 		bl	commands_printf
 528              	.LVL75:
 529              		.loc 1 121 0 discriminator 3
 530 032e 2069     		ldr	r0, [r4, #16]	@ float
 531 0330 FFF7FEFF 		bl	__aeabi_f2d
 532              	.LVL76:
 533 0334 0246     		mov	r2, r0
 534 0336 0B46     		mov	r3, r1
 535 0338 B048     		ldr	r0, .L184+24
 536 033a FFF7FEFF 		bl	commands_printf
 537              	.LVL77:
 538              		.loc 1 122 0 discriminator 3
 539 033e 6069     		ldr	r0, [r4, #20]	@ float
 540 0340 FFF7FEFF 		bl	__aeabi_f2d
 541              	.LVL78:
 542 0344 0246     		mov	r2, r0
 543 0346 0B46     		mov	r3, r1
 544 0348 AD48     		ldr	r0, .L184+28
 545 034a FFF7FEFF 		bl	commands_printf
 546              	.LVL79:
 547              		.loc 1 123 0 discriminator 3
 548 034e A169     		ldr	r1, [r4, #24]
 549 0350 AC48     		ldr	r0, .L184+32
 550 0352 FFF7FEFF 		bl	commands_printf
 551              	.LVL80:
 552              		.loc 1 124 0 discriminator 3
 553 0356 E169     		ldr	r1, [r4, #28]
 554 0358 AB48     		ldr	r0, .L184+36
 555 035a FFF7FEFF 		bl	commands_printf
 556              	.LVL81:
 557              		.loc 1 125 0 discriminator 3
 558 035e D4ED0A7A 		vldr.32	s15, [r4, #40]	@ int
 559 0362 94ED047A 		vldr.32	s14, [r4, #16]
 560 0366 A948     		ldr	r0, .L184+40
 561 0368 F8EEE77A 		vcvt.f32.s32	s15, s15
 562              		.loc 1 116 0 discriminator 3
 563 036c 0135     		adds	r5, r5, #1
 564              	.LVL82:
 565              		.loc 1 125 0 discriminator 3
 566 036e 67EE877A 		vmul.f32	s15, s15, s14
 567 0372 FDEEE77A 		vcvt.s32.f32	s15, s15
 568 0376 17EE901A 		vmov	r1, s15	@ int
 569 037a FFF7FEFF 		bl	commands_printf
 570              	.LVL83:
ARM GAS  /var/folders/sv/kgmgr77579zbf78p2zlhkdfr0000gn/T//ccygG6jq.s 			page 11


 571              		.loc 1 126 0 discriminator 3
 572 037e 216A     		ldr	r1, [r4, #32]
 573 0380 A348     		ldr	r0, .L184+44
 574 0382 FFF7FEFF 		bl	commands_printf
 575              	.LVL84:
 576              		.loc 1 127 0 discriminator 3
 577 0386 616A     		ldr	r1, [r4, #36]
 578 0388 A248     		ldr	r0, .L184+48
 579 038a FFF7FEFF 		bl	commands_printf
 580              	.LVL85:
 581              		.loc 1 128 0 discriminator 3
 582 038e A16A     		ldr	r1, [r4, #40]
 583 0390 A148     		ldr	r0, .L184+52
 584 0392 FFF7FEFF 		bl	commands_printf
 585              	.LVL86:
 586              		.loc 1 129 0 discriminator 3
 587 0396 E16A     		ldr	r1, [r4, #44]
 588 0398 A048     		ldr	r0, .L184+56
 589 039a FFF7FEFF 		bl	commands_printf
 590              	.LVL87:
 591              		.loc 1 130 0 discriminator 3
 592 039e 206B     		ldr	r0, [r4, #48]	@ float
 593 03a0 FFF7FEFF 		bl	__aeabi_f2d
 594              	.LVL88:
 595 03a4 0246     		mov	r2, r0
 596 03a6 0B46     		mov	r3, r1
 597 03a8 9D48     		ldr	r0, .L184+60
 598 03aa FFF7FEFF 		bl	commands_printf
 599              	.LVL89:
 600              		.loc 1 136 0 discriminator 3
 601 03ae 9D48     		ldr	r0, .L184+64
 602 03b0 FFF7FEFF 		bl	commands_printf
 603              	.LVL90:
 604              		.loc 1 116 0 discriminator 3
 605 03b4 3B68     		ldr	r3, [r7]
 606 03b6 AB42     		cmp	r3, r5
 607 03b8 95DC     		bgt	.L18
 608 03ba A8E6     		b	.L1
 609              	.LVL91:
 610              	.L165:
 611              	.LBE61:
 612              		.loc 1 140 0
 613 03bc FFF7FEFF 		bl	mc_interface_get_rpm
 614              	.LVL92:
 615 03c0 10EE100A 		vmov	r0, s0
 616 03c4 FFF7FEFF 		bl	__aeabi_f2d
 617              	.LVL93:
 618 03c8 0246     		mov	r2, r0
 619 03ca 0B46     		mov	r3, r1
 620 03cc 9648     		ldr	r0, .L184+68
 621 03ce FFF7FEFF 		bl	commands_printf
 622              	.LVL94:
 623 03d2 9CE6     		b	.L1
 624              	.L166:
 625              		.loc 1 142 0
 626 03d4 FFF7FEFF 		bl	mc_interface_get_tachometer_value
 627              	.LVL95:
ARM GAS  /var/folders/sv/kgmgr77579zbf78p2zlhkdfr0000gn/T//ccygG6jq.s 			page 12


 628 03d8 0146     		mov	r1, r0
 629 03da 9448     		ldr	r0, .L184+72
 630 03dc FFF7FEFF 		bl	commands_printf
 631              	.LVL96:
 632 03e0 95E6     		b	.L1
 633              	.L23:
 634              		.loc 1 216 0
 635 03e2 9349     		ldr	r1, .L184+76
 636 03e4 2846     		mov	r0, r5
 637 03e6 FFF7FEFF 		bl	strcmp
 638              	.LVL97:
 639 03ea 0028     		cmp	r0, #0
 640 03ec 00F05E81 		beq	.L170
 641              		.loc 1 221 0
 642 03f0 9049     		ldr	r1, .L184+80
 643 03f2 2846     		mov	r0, r5
 644 03f4 FFF7FEFF 		bl	strcmp
 645              	.LVL98:
 646 03f8 0646     		mov	r6, r0
 647 03fa 0028     		cmp	r0, #0
 648 03fc 00F01182 		beq	.L171
 649              		.loc 1 235 0
 650 0400 8D49     		ldr	r1, .L184+84
 651 0402 2846     		mov	r0, r5
 652 0404 FFF7FEFF 		bl	strcmp
 653              	.LVL99:
 654 0408 0028     		cmp	r0, #0
 655 040a 40F0B180 		bne	.L43
 656              		.loc 1 236 0
 657 040e 022C     		cmp	r4, #2
 658 0410 00F08F81 		beq	.L172
 659              	.L44:
 660              		.loc 1 264 0
 661 0414 8948     		ldr	r0, .L184+88
 662 0416 FFF7FEFF 		bl	commands_printf
 663              	.LVL100:
 664 041a 78E6     		b	.L1
 665              	.L168:
 666              		.loc 1 169 0
 667 041c 884B     		ldr	r3, .L184+92
 668 041e DFED896A 		vldr.32	s13, .L184+96
 669 0422 1B8A     		ldrh	r3, [r3, #16]
 670 0424 9FED887A 		vldr.32	s14, .L184+100
 671 0428 9BB2     		uxth	r3, r3
 672 042a 07EE903A 		vmov	s15, r3	@ int
 673 042e F8EE677A 		vcvt.f32.u32	s15, s15
 674 0432 67EEA67A 		vmul.f32	s15, s15, s13
 675 0436 67EE877A 		vmul.f32	s15, s15, s14
 676 043a 17EE900A 		vmov	r0, s15
 677 043e FFF7FEFF 		bl	__aeabi_f2d
 678              	.LVL101:
 679 0442 0246     		mov	r2, r0
 680 0444 0B46     		mov	r3, r1
 681 0446 8148     		ldr	r0, .L184+104
 682 0448 FFF7FEFF 		bl	commands_printf
 683              	.LVL102:
 684 044c 5FE6     		b	.L1
ARM GAS  /var/folders/sv/kgmgr77579zbf78p2zlhkdfr0000gn/T//ccygG6jq.s 			page 13


 685              	.L167:
 686              	.LVL103:
 687              	.LBB62:
 688              	.LBB63:
 689              	.LBB64:
 690              	.LBB65:
 691              	.LBB66:
 692              		.file 2 "ChibiOS_3.0.2/os/ext/CMSIS/include/core_cmFunc.h"
 693              		.loc 2 546 0
 694 044e 2023     		movs	r3, #32
 695              		.syntax unified
 696              	@ 546 "ChibiOS_3.0.2/os/ext/CMSIS/include/core_cmFunc.h" 1
 697 0450 83F31188 		MSR basepri, r3
 698              	@ 0 "" 2
 699              	.LVL104:
 700              		.thumb
 701              		.syntax unified
 702              	.LBE66:
 703              	.LBE65:
 704              	.LBE64:
 705              	.LBE63:
 706              		.loc 1 145 0
 707 0454 7E4B     		ldr	r3, .L184+108
 708              		.loc 1 146 0
 709 0456 7F49     		ldr	r1, .L184+112
 710              		.loc 1 145 0
 711 0458 5A6A     		ldr	r2, [r3, #36]
 712 045a 0E92     		str	r2, [sp, #56]
 713              		.loc 1 146 0
 714 045c 4A6A     		ldr	r2, [r1, #36]
 715 045e 0F92     		str	r2, [sp, #60]
 716              		.loc 1 147 0
 717 0460 1A68     		ldr	r2, [r3]
 718 0462 C2F30012 		ubfx	r2, r2, #4, #1
 719 0466 1092     		str	r2, [sp, #64]
 720              		.loc 1 148 0
 721 0468 0A68     		ldr	r2, [r1]
 722 046a C2F30012 		ubfx	r2, r2, #4, #1
 723 046e 1192     		str	r2, [sp, #68]
 724              	.LVL105:
 725              	.LBB67:
 726              	.LBB68:
 727              	.LBB69:
 728              	.LBB70:
 729              	.LBB71:
 730              		.loc 2 546 0
 731              		.syntax unified
 732              	@ 546 "ChibiOS_3.0.2/os/ext/CMSIS/include/core_cmFunc.h" 1
 733 0470 80F31188 		MSR basepri, r0
 734              	@ 0 "" 2
 735              	.LVL106:
 736              		.thumb
 737              		.syntax unified
 738              	.LBE71:
 739              	.LBE70:
 740              	.LBE69:
 741              	.LBE68:
ARM GAS  /var/folders/sv/kgmgr77579zbf78p2zlhkdfr0000gn/T//ccygG6jq.s 			page 14


 742              	.LBE67:
 743              		.loc 1 157 0
 744 0474 7848     		ldr	r0, .L184+116
 745              		.loc 1 150 0
 746 0476 D3F834A0 		ldr	r10, [r3, #52]
 747              	.LVL107:
 748              		.loc 1 151 0
 749 047a D3F83890 		ldr	r9, [r3, #56]
 750              	.LVL108:
 751              		.loc 1 152 0
 752 047e D3F83C80 		ldr	r8, [r3, #60]
 753              	.LVL109:
 754              		.loc 1 153 0
 755 0482 DF6A     		ldr	r7, [r3, #44]
 756              	.LVL110:
 757              		.loc 1 154 0
 758 0484 4E6B     		ldr	r6, [r1, #52]
 759              	.LVL111:
 760              		.loc 1 155 0
 761 0486 1D6C     		ldr	r5, [r3, #64]
 762              	.LVL112:
 763              		.loc 1 156 0
 764 0488 8C6B     		ldr	r4, [r1, #56]
 765              	.LVL113:
 766              		.loc 1 157 0
 767 048a 0E99     		ldr	r1, [sp, #56]
 768 048c FFF7FEFF 		bl	commands_printf
 769              	.LVL114:
 770              		.loc 1 158 0
 771 0490 0F99     		ldr	r1, [sp, #60]
 772 0492 7248     		ldr	r0, .L184+120
 773 0494 FFF7FEFF 		bl	commands_printf
 774              	.LVL115:
 775              		.loc 1 159 0
 776 0498 5146     		mov	r1, r10
 777 049a 7148     		ldr	r0, .L184+124
 778 049c FFF7FEFF 		bl	commands_printf
 779              	.LVL116:
 780              		.loc 1 160 0
 781 04a0 4946     		mov	r1, r9
 782 04a2 7048     		ldr	r0, .L184+128
 783 04a4 FFF7FEFF 		bl	commands_printf
 784              	.LVL117:
 785              		.loc 1 161 0
 786 04a8 4146     		mov	r1, r8
 787 04aa 6F48     		ldr	r0, .L184+132
 788 04ac FFF7FEFF 		bl	commands_printf
 789              	.LVL118:
 790              		.loc 1 162 0
 791 04b0 3946     		mov	r1, r7
 792 04b2 6E48     		ldr	r0, .L184+136
 793 04b4 FFF7FEFF 		bl	commands_printf
 794              	.LVL119:
 795              		.loc 1 163 0
 796 04b8 1099     		ldr	r1, [sp, #64]
 797 04ba 6D48     		ldr	r0, .L184+140
 798 04bc FFF7FEFF 		bl	commands_printf
ARM GAS  /var/folders/sv/kgmgr77579zbf78p2zlhkdfr0000gn/T//ccygG6jq.s 			page 15


 799              	.LVL120:
 800              		.loc 1 164 0
 801 04c0 1199     		ldr	r1, [sp, #68]
 802 04c2 6C48     		ldr	r0, .L184+144
 803 04c4 FFF7FEFF 		bl	commands_printf
 804              	.LVL121:
 805              		.loc 1 165 0
 806 04c8 3146     		mov	r1, r6
 807 04ca 6B48     		ldr	r0, .L184+148
 808 04cc FFF7FEFF 		bl	commands_printf
 809              	.LVL122:
 810              		.loc 1 166 0
 811 04d0 2946     		mov	r1, r5
 812 04d2 6A48     		ldr	r0, .L184+152
 813 04d4 FFF7FEFF 		bl	commands_printf
 814              	.LVL123:
 815              		.loc 1 167 0
 816 04d8 2146     		mov	r1, r4
 817 04da 6948     		ldr	r0, .L184+156
 818 04dc FFF7FEFF 		bl	commands_printf
 819              	.LVL124:
 820              	.LBE62:
 821 04e0 15E6     		b	.L1
 822              	.LVL125:
 823              	.L169:
 824              	.LBB72:
 825              		.loc 1 173 0
 826 04e2 684B     		ldr	r3, .L184+160
 827              		.loc 1 176 0
 828 04e4 6849     		ldr	r1, .L184+164
 829 04e6 1998     		ldr	r0, [sp, #100]
 830              		.loc 1 173 0
 831 04e8 0B93     		str	r3, [sp, #44]	@ float
 832              		.loc 1 176 0
 833 04ea 0BAA     		add	r2, sp, #44
 834              		.loc 1 174 0
 835 04ec 0C93     		str	r3, [sp, #48]	@ float
 836              		.loc 1 175 0
 837 04ee 0D93     		str	r3, [sp, #52]	@ float
 838              		.loc 1 176 0
 839 04f0 FFF7FEFF 		bl	sscanf
 840              	.LVL126:
 841              		.loc 1 177 0
 842 04f4 0CAA     		add	r2, sp, #48
 843 04f6 6449     		ldr	r1, .L184+164
 844 04f8 1A98     		ldr	r0, [sp, #104]
 845 04fa FFF7FEFF 		bl	sscanf
 846              	.LVL127:
 847              		.loc 1 178 0
 848 04fe 0DAA     		add	r2, sp, #52
 849 0500 1B98     		ldr	r0, [sp, #108]
 850 0502 6149     		ldr	r1, .L184+164
 851 0504 FFF7FEFF 		bl	sscanf
 852              	.LVL128:
 853              		.loc 1 180 0
 854 0508 9DED0B0A 		vldr.32	s0, [sp, #44]
 855 050c B5EEC00A 		vcmpe.f32	s0, #0
ARM GAS  /var/folders/sv/kgmgr77579zbf78p2zlhkdfr0000gn/T//ccygG6jq.s 			page 16


 856 0510 F1EE10FA 		vmrs	APSR_nzcv, FPSCR
 857 0514 28DD     		ble	.L85
 858              		.loc 1 180 0 is_stmt 0 discriminator 1
 859 0516 5D4B     		ldr	r3, .L184+168
 860 0518 D3ED017A 		vldr.32	s15, [r3, #4]
 861 051c B4EEE70A 		vcmpe.f32	s0, s15
 862 0520 F1EE10FA 		vmrs	APSR_nzcv, FPSCR
 863 0524 20D5     		bpl	.L85
 864              		.loc 1 181 0 is_stmt 1 discriminator 2
 865 0526 DDED0C0A 		vldr.32	s1, [sp, #48]
 866              		.loc 1 180 0 discriminator 2
 867 052a F2EE047A 		vmov.f32	s15, #1.0e+1
 868 052e F4EEE70A 		vcmpe.f32	s1, s15
 869 0532 F1EE10FA 		vmrs	APSR_nzcv, FPSCR
 870 0536 17DD     		ble	.L85
 871              		.loc 1 181 0
 872 0538 DFED557A 		vldr.32	s15, .L184+172
 873 053c F4EEE70A 		vcmpe.f32	s1, s15
 874 0540 F1EE10FA 		vmrs	APSR_nzcv, FPSCR
 875 0544 10D5     		bpl	.L85
 876              		.loc 1 182 0 discriminator 1
 877 0546 9DED0D1A 		vldr.32	s2, [sp, #52]
 878              		.loc 1 181 0 discriminator 1
 879 054a DFED527A 		vldr.32	s15, .L184+176
 880 054e B4EEE71A 		vcmpe.f32	s2, s15
 881 0552 F1EE10FA 		vmrs	APSR_nzcv, FPSCR
 882 0556 07DD     		ble	.L85
 883              		.loc 1 182 0
 884 0558 DFED4F7A 		vldr.32	s15, .L184+180
 885 055c B4EEE71A 		vcmpe.f32	s2, s15
 886 0560 F1EE10FA 		vmrs	APSR_nzcv, FPSCR
 887 0564 00F1BE80 		bmi	.L173
 888              	.LVL129:
 889              	.L85:
 890              	.LBE72:
 891              	.LBB76:
 892              		.loc 1 552 0
 893 0568 4C48     		ldr	r0, .L184+184
 894 056a FFF7FEFF 		bl	commands_printf
 895              	.LVL130:
 896 056e CEE5     		b	.L1
 897              	.LVL131:
 898              	.L43:
 899              	.LBE76:
 900              		.loc 1 266 0
 901 0570 4B49     		ldr	r1, .L184+188
 902 0572 2846     		mov	r0, r5
 903 0574 FFF7FEFF 		bl	strcmp
 904              	.LVL132:
 905 0578 0028     		cmp	r0, #0
 906 057a 40F0AC81 		bne	.L51
 907              		.loc 1 267 0
 908 057e 022C     		cmp	r4, #2
 909 0580 7FF448AF 		bne	.L44
 910              	.LBB77:
 911              		.loc 1 268 0
 912 0584 11AD     		add	r5, sp, #68
ARM GAS  /var/folders/sv/kgmgr77579zbf78p2zlhkdfr0000gn/T//ccygG6jq.s 			page 17


 913 0586 3F4B     		ldr	r3, .L184+160
 914              		.loc 1 269 0
 915 0588 1998     		ldr	r0, [sp, #100]
 916 058a 3F49     		ldr	r1, .L184+164
 917              		.loc 1 268 0
 918 058c 1193     		str	r3, [sp, #68]	@ float
 919              		.loc 1 269 0
 920 058e 2A46     		mov	r2, r5
 921 0590 FFF7FEFF 		bl	sscanf
 922              	.LVL133:
 923              		.loc 1 271 0
 924 0594 D5ED007A 		vldr.32	s15, [r5]
 925 0598 F5EEC07A 		vcmpe.f32	s15, #0
 926 059c F1EE10FA 		vmrs	APSR_nzcv, FPSCR
 927 05a0 E2DD     		ble	.L85
 928              		.loc 1 271 0 is_stmt 0 discriminator 1
 929 05a2 3A4C     		ldr	r4, .L184+168
 930              	.LVL134:
 931 05a4 94ED017A 		vldr.32	s14, [r4, #4]
 932 05a8 F4EEC77A 		vcmpe.f32	s15, s14
 933 05ac F1EE10FA 		vmrs	APSR_nzcv, FPSCR
 934 05b0 DAD8     		bhi	.L85
 935              		.loc 1 272 0 is_stmt 1
 936 05b2 0223     		movs	r3, #2
 937              		.loc 1 273 0
 938 05b4 2046     		mov	r0, r4
 939              		.loc 1 272 0
 940 05b6 A370     		strb	r3, [r4, #2]
 941              		.loc 1 273 0
 942 05b8 FFF7FEFF 		bl	mc_interface_set_configuration
 943              	.LVL135:
 944              		.loc 1 275 0
 945 05bc 4FF4FA60 		mov	r0, #2000
 946 05c0 95ED000A 		vldr.32	s0, [r5]
 947 05c4 FFF7FEFF 		bl	mcpwm_foc_measure_resistance
 948              	.LVL136:
 949 05c8 10EE100A 		vmov	r0, s0
 950 05cc FFF7FEFF 		bl	__aeabi_f2d
 951              	.LVL137:
 952 05d0 0246     		mov	r2, r0
 953 05d2 0B46     		mov	r3, r1
 954 05d4 3348     		ldr	r0, .L184+192
 955 05d6 FFF7FEFF 		bl	commands_printf
 956              	.LVL138:
 957              		.loc 1 277 0
 958 05da 3348     		ldr	r0, .L184+196
 959 05dc FFF7FEFF 		bl	mc_interface_set_configuration
 960              	.LVL139:
 961 05e0 95E5     		b	.L1
 962              	.L185:
 963 05e2 00BF     		.align	2
 964              	.L184:
 965 05e4 44020000 		.word	.LC29
 966 05e8 00000000 		.word	.LANCHOR4
 967 05ec 78020000 		.word	.LC30
 968 05f0 90020000 		.word	.LC31
 969 05f4 A8020000 		.word	.LC32
ARM GAS  /var/folders/sv/kgmgr77579zbf78p2zlhkdfr0000gn/T//ccygG6jq.s 			page 18


 970 05f8 C0020000 		.word	.LC33
 971 05fc D8020000 		.word	.LC34
 972 0600 F0020000 		.word	.LC35
 973 0604 08030000 		.word	.LC36
 974 0608 20030000 		.word	.LC37
 975 060c 38030000 		.word	.LC38
 976 0610 50030000 		.word	.LC39
 977 0614 68030000 		.word	.LC40
 978 0618 80030000 		.word	.LC41
 979 061c 98030000 		.word	.LC42
 980 0620 B0030000 		.word	.LC43
 981 0624 18000000 		.word	.LC4
 982 0628 CC030000 		.word	.LC45
 983 062c F0030000 		.word	.LC47
 984 0630 60060000 		.word	.LC74
 985 0634 BC060000 		.word	.LC78
 986 0638 98070000 		.word	.LC86
 987 063c F4070000 		.word	.LC91
 988 0640 00000000 		.word	ADC_Value
 989 0644 6740533A 		.word	978534503
 990 0648 74D19541 		.word	1100337524
 991 064c C8040000 		.word	.LC61
 992 0650 00000140 		.word	1073807360
 993 0654 00040140 		.word	1073808384
 994 0658 0C040000 		.word	.LC49
 995 065c 1C040000 		.word	.LC50
 996 0660 2C040000 		.word	.LC51
 997 0664 3C040000 		.word	.LC52
 998 0668 4C040000 		.word	.LC53
 999 066c 5C040000 		.word	.LC54
 1000 0670 64040000 		.word	.LC55
 1001 0674 70040000 		.word	.LC56
 1002 0678 7C040000 		.word	.LC57
 1003 067c 90040000 		.word	.LC58
 1004 0680 A8040000 		.word	.LC59
 1005 0684 000080BF 		.word	-1082130432
 1006 0688 F0040000 		.word	.LC63
 1007 068c 00000000 		.word	.LANCHOR0
 1008 0690 00803B45 		.word	1161527296
 1009 0694 0AD7A33C 		.word	1017370378
 1010 0698 CDCC4C3F 		.word	1061997773
 1011 069c 20060000 		.word	.LC72
 1012 06a0 1C080000 		.word	.LC92
 1013 06a4 28080000 		.word	.LC93
 1014 06a8 00000000 		.word	.LANCHOR1
 1015              	.LVL140:
 1016              	.L170:
 1017              	.LBE77:
 1018              	.LBB78:
 1019              		.loc 1 217 0 discriminator 7
 1020 06ac 11A8     		add	r0, sp, #68
 1021 06ae FFF7FEFF 		bl	mcpwm_get_rpm_dep
 1022              	.LVL141:
 1023              		.loc 1 218 0 discriminator 7
 1024 06b2 1198     		ldr	r0, [sp, #68]	@ float
 1025 06b4 FFF7FEFF 		bl	__aeabi_f2d
 1026              	.LVL142:
ARM GAS  /var/folders/sv/kgmgr77579zbf78p2zlhkdfr0000gn/T//ccygG6jq.s 			page 19


 1027 06b8 0246     		mov	r2, r0
 1028 06ba 0B46     		mov	r3, r1
 1029 06bc A848     		ldr	r0, .L186
 1030 06be FFF7FEFF 		bl	commands_printf
 1031              	.LVL143:
 1032              		.loc 1 219 0 discriminator 7
 1033 06c2 1298     		ldr	r0, [sp, #72]	@ float
 1034 06c4 FFF7FEFF 		bl	__aeabi_f2d
 1035              	.LVL144:
 1036 06c8 0246     		mov	r2, r0
 1037 06ca 0B46     		mov	r3, r1
 1038 06cc A548     		ldr	r0, .L186+4
 1039 06ce FFF7FEFF 		bl	commands_printf
 1040              	.LVL145:
 1041              		.loc 1 220 0 discriminator 7
 1042 06d2 1398     		ldr	r0, [sp, #76]	@ float
 1043 06d4 FFF7FEFF 		bl	__aeabi_f2d
 1044              	.LVL146:
 1045 06d8 0246     		mov	r2, r0
 1046 06da 0B46     		mov	r3, r1
 1047 06dc A248     		ldr	r0, .L186+8
 1048 06de FFF7FEFF 		bl	commands_printf
 1049              	.LVL147:
 1050              	.LBE78:
 1051 06e2 14E5     		b	.L1
 1052              	.L173:
 1053              	.LBB79:
 1054              	.LBB73:
 1055              		.loc 1 188 0
 1056 06e4 10AB     		add	r3, sp, #64
 1057 06e6 11AA     		add	r2, sp, #68
 1058 06e8 0FA9     		add	r1, sp, #60
 1059 06ea 0EA8     		add	r0, sp, #56
 1060 06ec FFF7FEFF 		bl	conf_general_detect_motor_param
 1061              	.LVL148:
 1062 06f0 0028     		cmp	r0, #0
 1063 06f2 00F09280 		beq	.L32
 1064              		.loc 1 189 0
 1065 06f6 0E98     		ldr	r0, [sp, #56]	@ float
 1066 06f8 FFF7FEFF 		bl	__aeabi_f2d
 1067              	.LVL149:
 1068 06fc 0246     		mov	r2, r0
 1069 06fe 0B46     		mov	r3, r1
 1070 0700 9A48     		ldr	r0, .L186+12
 1071 0702 FFF7FEFF 		bl	commands_printf
 1072              	.LVL150:
 1073              		.loc 1 190 0
 1074 0706 0F98     		ldr	r0, [sp, #60]	@ float
 1075 0708 FFF7FEFF 		bl	__aeabi_f2d
 1076              	.LVL151:
 1077 070c 0246     		mov	r2, r0
 1078 070e 0B46     		mov	r3, r1
 1079 0710 9748     		ldr	r0, .L186+16
 1080 0712 FFF7FEFF 		bl	commands_printf
 1081              	.LVL152:
 1082              		.loc 1 192 0
 1083 0716 109B     		ldr	r3, [sp, #64]
ARM GAS  /var/folders/sv/kgmgr77579zbf78p2zlhkdfr0000gn/T//ccygG6jq.s 			page 20


 1084 0718 002B     		cmp	r3, #0
 1085 071a 7CD0     		beq	.L174
 1086              		.loc 1 197 0
 1087 071c 591C     		adds	r1, r3, #1
 1088 071e 5CD0     		beq	.L175
 1089              		.loc 1 202 0
 1090 0720 9A1C     		adds	r2, r3, #2
 1091 0722 56D0     		beq	.L176
 1092              		.loc 1 204 0
 1093 0724 0333     		adds	r3, r3, #3
 1094 0726 7FF4F2AC 		bne	.L1
 1095              		.loc 1 205 0
 1096 072a 9248     		ldr	r0, .L186+20
 1097 072c FFF7FEFF 		bl	commands_printf
 1098              	.LVL153:
 1099 0730 EDE4     		b	.L1
 1100              	.L172:
 1101              	.LBE73:
 1102              	.LBE79:
 1103              	.LBB80:
 1104              		.loc 1 237 0
 1105 0732 914B     		ldr	r3, .L186+24
 1106              		.loc 1 238 0
 1107 0734 1998     		ldr	r0, [sp, #100]
 1108 0736 9149     		ldr	r1, .L186+28
 1109              		.loc 1 237 0
 1110 0738 0F93     		str	r3, [sp, #60]	@ float
 1111              		.loc 1 238 0
 1112 073a 0FAA     		add	r2, sp, #60
 1113 073c FFF7FEFF 		bl	sscanf
 1114              	.LVL154:
 1115              		.loc 1 240 0
 1116 0740 DDED0F7A 		vldr.32	s15, [sp, #60]
 1117 0744 F5EEC07A 		vcmpe.f32	s15, #0
 1118 0748 F1EE10FA 		vmrs	APSR_nzcv, FPSCR
 1119 074c 7FF70CAF 		ble	.L85
 1120              		.loc 1 240 0 is_stmt 0 discriminator 1
 1121 0750 8B4C     		ldr	r4, .L186+32
 1122              	.LVL155:
 1123 0752 94ED017A 		vldr.32	s14, [r4, #4]
 1124 0756 F4EEC77A 		vcmpe.f32	s15, s14
 1125 075a F1EE10FA 		vmrs	APSR_nzcv, FPSCR
 1126 075e 3FF603AF 		bhi	.L85
 1127              		.loc 1 241 0 is_stmt 1
 1128 0762 FFF7FEFF 		bl	encoder_is_configured
 1129              	.LVL156:
 1130 0766 0028     		cmp	r0, #0
 1131 0768 51D0     		beq	.L48
 1132              	.LBB81:
 1133              		.loc 1 243 0
 1134 076a 0223     		movs	r3, #2
 1135              		.loc 1 244 0
 1136 076c 2046     		mov	r0, r4
 1137              		.loc 1 242 0
 1138 076e A678     		ldrb	r6, [r4, #2]	@ zero_extendqisi2
 1139              	.LVL157:
 1140              		.loc 1 243 0
ARM GAS  /var/folders/sv/kgmgr77579zbf78p2zlhkdfr0000gn/T//ccygG6jq.s 			page 21


 1141 0770 A370     		strb	r3, [r4, #2]
 1142              		.loc 1 246 0
 1143 0772 0025     		movs	r5, #0
 1144              		.loc 1 244 0
 1145 0774 FFF7FEFF 		bl	mc_interface_set_configuration
 1146              	.LVL158:
 1147              		.loc 1 248 0
 1148 0778 0027     		movs	r7, #0
 1149              		.loc 1 249 0
 1150 077a 9DED0F0A 		vldr.32	s0, [sp, #60]
 1151              		.loc 1 246 0
 1152 077e 1095     		str	r5, [sp, #64]	@ float
 1153              		.loc 1 249 0
 1154 0780 11AA     		add	r2, sp, #68
 1155 0782 0EAB     		add	r3, sp, #56
 1156 0784 10A9     		add	r1, sp, #64
 1157 0786 0120     		movs	r0, #1
 1158              		.loc 1 247 0
 1159 0788 1195     		str	r5, [sp, #68]	@ float
 1160              		.loc 1 248 0
 1161 078a 8DF83870 		strb	r7, [sp, #56]
 1162              		.loc 1 249 0
 1163 078e FFF7FEFF 		bl	mcpwm_foc_encoder_detect
 1164              	.LVL159:
 1165              		.loc 1 252 0
 1166 0792 2046     		mov	r0, r4
 1167              		.loc 1 251 0
 1168 0794 A670     		strb	r6, [r4, #2]
 1169              		.loc 1 252 0
 1170 0796 FFF7FEFF 		bl	mc_interface_set_configuration
 1171              	.LVL160:
 1172              		.loc 1 254 0
 1173 079a 1098     		ldr	r0, [sp, #64]	@ float
 1174 079c FFF7FEFF 		bl	__aeabi_f2d
 1175              	.LVL161:
 1176 07a0 0246     		mov	r2, r0
 1177 07a2 0B46     		mov	r3, r1
 1178 07a4 7748     		ldr	r0, .L186+36
 1179 07a6 FFF7FEFF 		bl	commands_printf
 1180              	.LVL162:
 1181              		.loc 1 255 0
 1182 07aa 1198     		ldr	r0, [sp, #68]	@ float
 1183 07ac FFF7FEFF 		bl	__aeabi_f2d
 1184              	.LVL163:
 1185 07b0 0246     		mov	r2, r0
 1186 07b2 0B46     		mov	r3, r1
 1187 07b4 7448     		ldr	r0, .L186+40
 1188 07b6 FFF7FEFF 		bl	commands_printf
 1189              	.LVL164:
 1190              		.loc 1 256 0
 1191 07ba 9DF83810 		ldrb	r1, [sp, #56]	@ zero_extendqisi2
 1192 07be 734A     		ldr	r2, .L186+44
 1193 07c0 734B     		ldr	r3, .L186+48
 1194 07c2 7448     		ldr	r0, .L186+52
 1195 07c4 B942     		cmp	r1, r7
 1196 07c6 14BF     		ite	ne
 1197 07c8 1146     		movne	r1, r2
ARM GAS  /var/folders/sv/kgmgr77579zbf78p2zlhkdfr0000gn/T//ccygG6jq.s 			page 22


 1198 07ca 1946     		moveq	r1, r3
 1199 07cc FFF7FEFF 		bl	commands_printf
 1200              	.LVL165:
 1201              	.LBE81:
 1202 07d0 9DE4     		b	.L1
 1203              	.LVL166:
 1204              	.L176:
 1205              	.LBE80:
 1206              	.LBB82:
 1207              	.LBB74:
 1208              		.loc 1 203 0
 1209 07d2 7148     		ldr	r0, .L186+56
 1210 07d4 FFF7FEFF 		bl	commands_printf
 1211              	.LVL167:
 1212 07d8 99E4     		b	.L1
 1213              	.L175:
 1214              		.loc 1 198 0
 1215 07da 7048     		ldr	r0, .L186+60
 1216              	.L152:
 1217 07dc FFF7FEFF 		bl	commands_printf
 1218              	.LVL168:
 1219              		.loc 1 199 0
 1220 07e0 9DF94700 		ldrsb	r0, [sp, #71]
 1221 07e4 9DF94A60 		ldrsb	r6, [sp, #74]
 1222 07e8 9DF94950 		ldrsb	r5, [sp, #73]
 1223 07ec 9DF94840 		ldrsb	r4, [sp, #72]
 1224              	.LVL169:
 1225 07f0 9DF94B70 		ldrsb	r7, [sp, #75]
 1226 07f4 9DF94630 		ldrsb	r3, [sp, #70]
 1227 07f8 9DF94520 		ldrsb	r2, [sp, #69]
 1228 07fc 9DF94410 		ldrsb	r1, [sp, #68]
 1229 0800 0497     		str	r7, [sp, #16]
 1230 0802 8DE87100 		stmia	sp, {r0, r4, r5, r6}
 1231 0806 6648     		ldr	r0, .L186+64
 1232 0808 FFF7FEFF 		bl	commands_printf
 1233              	.LVL170:
 1234 080c 7FE4     		b	.L1
 1235              	.L48:
 1236              	.LBE74:
 1237              	.LBE82:
 1238              	.LBB83:
 1239              		.loc 1 258 0
 1240 080e 6548     		ldr	r0, .L186+68
 1241 0810 FFF7FEFF 		bl	commands_printf
 1242              	.LVL171:
 1243 0814 7BE4     		b	.L1
 1244              	.LVL172:
 1245              	.L174:
 1246              	.LBE83:
 1247              	.LBB84:
 1248              	.LBB75:
 1249              		.loc 1 193 0
 1250 0816 6448     		ldr	r0, .L186+72
 1251 0818 E0E7     		b	.L152
 1252              	.L32:
 1253              		.loc 1 208 0
 1254 081a 6448     		ldr	r0, .L186+76
ARM GAS  /var/folders/sv/kgmgr77579zbf78p2zlhkdfr0000gn/T//ccygG6jq.s 			page 23


 1255 081c FFF7FEFF 		bl	commands_printf
 1256              	.LVL173:
 1257              	.LBE75:
 1258              		.loc 1 182 0
 1259 0820 75E4     		b	.L1
 1260              	.L171:
 1261              	.LBE84:
 1262              		.loc 1 222 0
 1263 0822 6348     		ldr	r0, .L186+80
 1264              	.LBB85:
 1265              	.LBB86:
 1266              	.LBB87:
 1267              	.LBB88:
 1268              	.LBB89:
 1269              	.LBB90:
 1270              		.file 3 "ChibiOS_3.0.2/os/rt/include/chvt.h"
 1271              		.loc 3 231 0
 1272 0824 634F     		ldr	r7, .L186+84
 1273              	.LBE90:
 1274              	.LBE89:
 1275              	.LBE88:
 1276              	.LBE87:
 1277              		.loc 1 226 0
 1278 0826 9FED648A 		vldr.32	s16, .L186+88
 1279              		.loc 1 229 0
 1280 082a DFED648A 		vldr.32	s17, .L186+92
 1281              	.LBE86:
 1282              	.LBE85:
 1283              		.loc 1 222 0
 1284 082e FFF7FEFF 		bl	commands_printf
 1285              	.LVL174:
 1286              	.LBB101:
 1287              		.loc 1 223 0
 1288 0832 3446     		mov	r4, r6
 1289              	.LVL175:
 1290 0834 02E0     		b	.L42
 1291              	.LVL176:
 1292              	.L40:
 1293              		.loc 1 223 0 is_stmt 0 discriminator 2
 1294 0836 0A2C     		cmp	r4, #10
 1295 0838 3FF469AC 		beq	.L1
 1296              	.LVL177:
 1297              	.L42:
 1298              	.LBB99:
 1299              		.loc 1 224 0 is_stmt 1
 1300 083c 2046     		mov	r0, r4
 1301 083e FFF7FEFF 		bl	comm_can_get_status_msg_index
 1302              	.LVL178:
 1303              		.loc 1 226 0
 1304 0842 0168     		ldr	r1, [r0]
 1305 0844 0029     		cmp	r1, #0
 1306              		.loc 1 224 0
 1307 0846 0546     		mov	r5, r0
 1308              	.LVL179:
 1309              		.loc 1 226 0
 1310 0848 B7EE007A 		vmov.f32	s14, #1.0e+0
 1311              	.LBE99:
ARM GAS  /var/folders/sv/kgmgr77579zbf78p2zlhkdfr0000gn/T//ccygG6jq.s 			page 24


 1312              		.loc 1 223 0
 1313 084c 04F10104 		add	r4, r4, #1
 1314              	.LVL180:
 1315              	.LBB100:
 1316              		.loc 1 226 0
 1317 0850 F1DB     		blt	.L40
 1318              	.LBB94:
 1319              	.LBB93:
 1320              	.LBB92:
 1321              	.LBB91:
 1322              		.loc 3 231 0 discriminator 1
 1323 0852 BB6A     		ldr	r3, [r7, #40]
 1324              	.LVL181:
 1325              	.LBE91:
 1326              	.LBE92:
 1327              	.LBE93:
 1328              	.LBE94:
 1329              		.loc 1 226 0 discriminator 1
 1330 0854 4268     		ldr	r2, [r0, #4]
 1331 0856 9B1A     		subs	r3, r3, r2
 1332 0858 07EE903A 		vmov	s15, r3	@ int
 1333 085c F8EE677A 		vcvt.f32.u32	s15, s15
 1334 0860 C7EE886A 		vdiv.f32	s13, s15, s16
 1335 0864 F4EEC76A 		vcmpe.f32	s13, s14
 1336 0868 F1EE10FA 		vmrs	APSR_nzcv, FPSCR
 1337 086c E3D5     		bpl	.L40
 1338              		.loc 1 227 0
 1339 086e 5448     		ldr	r0, .L186+96
 1340              	.LVL182:
 1341 0870 FFF7FEFF 		bl	commands_printf
 1342              	.LVL183:
 1343              		.loc 1 228 0
 1344 0874 6968     		ldr	r1, [r5, #4]
 1345 0876 5348     		ldr	r0, .L186+100
 1346 0878 FFF7FEFF 		bl	commands_printf
 1347              	.LVL184:
 1348              		.loc 1 229 0
 1349 087c 6A68     		ldr	r2, [r5, #4]
 1350              	.LBB95:
 1351              	.LBB96:
 1352              	.LBB97:
 1353              	.LBB98:
 1354              		.loc 3 231 0
 1355 087e BB6A     		ldr	r3, [r7, #40]
 1356              	.LVL185:
 1357              	.LBE98:
 1358              	.LBE97:
 1359              	.LBE96:
 1360              	.LBE95:
 1361              		.loc 1 229 0
 1362 0880 9B1A     		subs	r3, r3, r2
 1363 0882 07EE903A 		vmov	s15, r3	@ int
 1364 0886 F8EE677A 		vcvt.f32.u32	s15, s15
 1365 088a 87EE887A 		vdiv.f32	s14, s15, s16
 1366 088e 67EE287A 		vmul.f32	s15, s14, s17
 1367 0892 17EE900A 		vmov	r0, s15
 1368 0896 FFF7FEFF 		bl	__aeabi_f2d
ARM GAS  /var/folders/sv/kgmgr77579zbf78p2zlhkdfr0000gn/T//ccygG6jq.s 			page 25


 1369              	.LVL186:
 1370 089a 0246     		mov	r2, r0
 1371 089c 0B46     		mov	r3, r1
 1372 089e 4A48     		ldr	r0, .L186+104
 1373 08a0 FFF7FEFF 		bl	commands_printf
 1374              	.LVL187:
 1375              		.loc 1 230 0
 1376 08a4 A868     		ldr	r0, [r5, #8]	@ float
 1377 08a6 FFF7FEFF 		bl	__aeabi_f2d
 1378              	.LVL188:
 1379 08aa 0246     		mov	r2, r0
 1380 08ac 0B46     		mov	r3, r1
 1381 08ae 4748     		ldr	r0, .L186+108
 1382 08b0 FFF7FEFF 		bl	commands_printf
 1383              	.LVL189:
 1384              		.loc 1 231 0
 1385 08b4 E868     		ldr	r0, [r5, #12]	@ float
 1386 08b6 FFF7FEFF 		bl	__aeabi_f2d
 1387              	.LVL190:
 1388 08ba 0246     		mov	r2, r0
 1389 08bc 0B46     		mov	r3, r1
 1390 08be 4448     		ldr	r0, .L186+112
 1391 08c0 FFF7FEFF 		bl	commands_printf
 1392              	.LVL191:
 1393              		.loc 1 232 0
 1394 08c4 2869     		ldr	r0, [r5, #16]	@ float
 1395 08c6 FFF7FEFF 		bl	__aeabi_f2d
 1396              	.LVL192:
 1397 08ca 0246     		mov	r2, r0
 1398 08cc 0B46     		mov	r3, r1
 1399 08ce 4148     		ldr	r0, .L186+116
 1400 08d0 FFF7FEFF 		bl	commands_printf
 1401              	.LVL193:
 1402 08d4 AFE7     		b	.L40
 1403              	.LVL194:
 1404              	.L51:
 1405              	.LBE100:
 1406              	.LBE101:
 1407              		.loc 1 284 0
 1408 08d6 4049     		ldr	r1, .L186+120
 1409 08d8 2846     		mov	r0, r5
 1410 08da FFF7FEFF 		bl	strcmp
 1411              	.LVL195:
 1412 08de 0028     		cmp	r0, #0
 1413 08e0 40F08480 		bne	.L56
 1414              		.loc 1 285 0
 1415 08e4 022C     		cmp	r4, #2
 1416 08e6 7FF495AD 		bne	.L44
 1417              	.LBB102:
 1418              		.loc 1 286 0
 1419 08ea 234B     		ldr	r3, .L186+24
 1420              		.loc 1 287 0
 1421 08ec 1998     		ldr	r0, [sp, #100]
 1422 08ee 2349     		ldr	r1, .L186+28
 1423              		.loc 1 286 0
 1424 08f0 1093     		str	r3, [sp, #64]	@ float
 1425              		.loc 1 287 0
ARM GAS  /var/folders/sv/kgmgr77579zbf78p2zlhkdfr0000gn/T//ccygG6jq.s 			page 26


 1426 08f2 10AA     		add	r2, sp, #64
 1427 08f4 FFF7FEFF 		bl	sscanf
 1428              	.LVL196:
 1429              		.loc 1 289 0
 1430 08f8 DDED107A 		vldr.32	s15, [sp, #64]
 1431 08fc F5EEC07A 		vcmpe.f32	s15, #0
 1432 0900 F1EE10FA 		vmrs	APSR_nzcv, FPSCR
 1433 0904 7FF730AE 		ble	.L85
 1434              		.loc 1 289 0 is_stmt 0 discriminator 1
 1435 0908 9FED347A 		vldr.32	s14, .L186+124
 1436 090c F4EEC77A 		vcmpe.f32	s15, s14
 1437 0910 F1EE10FA 		vmrs	APSR_nzcv, FPSCR
 1438 0914 7FF528AE 		bpl	.L85
 1439              	.LBB103:
 1440              		.loc 1 290 0 is_stmt 1
 1441 0918 194B     		ldr	r3, .L186+32
 1442              		.loc 1 291 0
 1443 091a 314A     		ldr	r2, .L186+128
 1444 091c C3F8AC20 		str	r2, [r3, #172]	@ float
 1445              		.loc 1 292 0
 1446 0920 1846     		mov	r0, r3
 1447              		.loc 1 290 0
 1448 0922 0221     		movs	r1, #2
 1449 0924 9970     		strb	r1, [r3, #2]
 1450              		.loc 1 292 0
 1451 0926 FFF7FEFF 		bl	mc_interface_set_configuration
 1452              	.LVL197:
 1453              		.loc 1 295 0
 1454 092a 11A9     		add	r1, sp, #68
 1455 092c C820     		movs	r0, #200
 1456 092e 9DED100A 		vldr.32	s0, [sp, #64]
 1457 0932 FFF7FEFF 		bl	mcpwm_foc_measure_inductance
 1458              	.LVL198:
 1459              		.loc 1 296 0
 1460 0936 10EE100A 		vmov	r0, s0
 1461 093a FFF7FEFF 		bl	__aeabi_f2d
 1462              	.LVL199:
 1463 093e 0446     		mov	r4, r0
 1464              	.LVL200:
 1465 0940 1198     		ldr	r0, [sp, #68]	@ float
 1466 0942 0D46     		mov	r5, r1
 1467 0944 FFF7FEFF 		bl	__aeabi_f2d
 1468              	.LVL201:
 1469 0948 2246     		mov	r2, r4
 1470 094a CDE90001 		strd	r0, [sp]
 1471 094e 2B46     		mov	r3, r5
 1472 0950 2448     		ldr	r0, .L186+132
 1473 0952 FFF7FEFF 		bl	commands_printf
 1474              	.LVL202:
 1475              		.loc 1 298 0
 1476 0956 2448     		ldr	r0, .L186+136
 1477 0958 FFF7FEFF 		bl	mc_interface_set_configuration
 1478              	.LVL203:
 1479              	.LBE103:
 1480              		.loc 1 289 0
 1481 095c FFF7D7BB 		b	.L1
 1482              	.L187:
ARM GAS  /var/folders/sv/kgmgr77579zbf78p2zlhkdfr0000gn/T//ccygG6jq.s 			page 27


 1483              		.align	2
 1484              	.L186:
 1485 0960 68060000 		.word	.LC75
 1486 0964 80060000 		.word	.LC76
 1487 0968 A0060000 		.word	.LC77
 1488 096c F4040000 		.word	.LC64
 1489 0970 14050000 		.word	.LC65
 1490 0974 B8050000 		.word	.LC70
 1491 0978 000080BF 		.word	-1082130432
 1492 097c F0040000 		.word	.LC63
 1493 0980 00000000 		.word	.LANCHOR0
 1494 0984 AC070000 		.word	.LC87
 1495 0988 BC070000 		.word	.LC88
 1496 098c 00000000 		.word	.LC0
 1497 0990 08000000 		.word	.LC1
 1498 0994 CC070000 		.word	.LC89
 1499 0998 88050000 		.word	.LC69
 1500 099c 68050000 		.word	.LC68
 1501 09a0 48050000 		.word	.LC67
 1502 09a4 DC070000 		.word	.LC90
 1503 09a8 2C050000 		.word	.LC66
 1504 09ac E8050000 		.word	.LC71
 1505 09b0 C8060000 		.word	.LC79
 1506 09b4 00000000 		.word	ch
 1507 09b8 00401C46 		.word	1176256512
 1508 09bc 00007A44 		.word	1148846080
 1509 09c0 F8060000 		.word	.LC80
 1510 09c4 10070000 		.word	.LC81
 1511 09c8 28070000 		.word	.LC82
 1512 09cc 44070000 		.word	.LC83
 1513 09d0 60070000 		.word	.LC84
 1514 09d4 7C070000 		.word	.LC85
 1515 09d8 40080000 		.word	.LC94
 1516 09dc 6666663F 		.word	1063675494
 1517 09e0 00803B45 		.word	1161527296
 1518 09e4 4C080000 		.word	.LC95
 1519 09e8 00000000 		.word	.LANCHOR1
 1520              	.LVL204:
 1521              	.L56:
 1522              	.LBE102:
 1523              		.loc 1 305 0
 1524 09ec CD49     		ldr	r1, .L188
 1525 09ee 2846     		mov	r0, r5
 1526 09f0 FFF7FEFF 		bl	strcmp
 1527              	.LVL205:
 1528 09f4 0028     		cmp	r0, #0
 1529 09f6 53D1     		bne	.L61
 1530              		.loc 1 306 0
 1531 09f8 052C     		cmp	r4, #5
 1532 09fa 7FF40BAD 		bne	.L44
 1533              	.LBB104:
 1534              		.loc 1 307 0
 1535 09fe CA4B     		ldr	r3, .L188+4
 1536              		.loc 1 311 0
 1537 0a00 CA49     		ldr	r1, .L188+8
 1538 0a02 1998     		ldr	r0, [sp, #100]
 1539              		.loc 1 307 0
ARM GAS  /var/folders/sv/kgmgr77579zbf78p2zlhkdfr0000gn/T//ccygG6jq.s 			page 28


 1540 0a04 0D93     		str	r3, [sp, #52]	@ float
 1541              		.loc 1 311 0
 1542 0a06 0DAA     		add	r2, sp, #52
 1543              		.loc 1 308 0
 1544 0a08 0E93     		str	r3, [sp, #56]	@ float
 1545              		.loc 1 309 0
 1546 0a0a 0F93     		str	r3, [sp, #60]	@ float
 1547              		.loc 1 310 0
 1548 0a0c 1093     		str	r3, [sp, #64]	@ float
 1549              		.loc 1 311 0
 1550 0a0e FFF7FEFF 		bl	sscanf
 1551              	.LVL206:
 1552              		.loc 1 312 0
 1553 0a12 0EAA     		add	r2, sp, #56
 1554 0a14 C549     		ldr	r1, .L188+8
 1555 0a16 1A98     		ldr	r0, [sp, #104]
 1556 0a18 FFF7FEFF 		bl	sscanf
 1557              	.LVL207:
 1558              		.loc 1 313 0
 1559 0a1c 0FAA     		add	r2, sp, #60
 1560 0a1e C349     		ldr	r1, .L188+8
 1561 0a20 1B98     		ldr	r0, [sp, #108]
 1562 0a22 FFF7FEFF 		bl	sscanf
 1563              	.LVL208:
 1564              		.loc 1 314 0
 1565 0a26 10AA     		add	r2, sp, #64
 1566 0a28 1C98     		ldr	r0, [sp, #112]
 1567 0a2a C049     		ldr	r1, .L188+8
 1568 0a2c FFF7FEFF 		bl	sscanf
 1569              	.LVL209:
 1570              		.loc 1 316 0
 1571 0a30 9DED0D0A 		vldr.32	s0, [sp, #52]
 1572 0a34 B5EEC00A 		vcmpe.f32	s0, #0
 1573 0a38 F1EE10FA 		vmrs	APSR_nzcv, FPSCR
 1574 0a3c 7FF794AD 		ble	.L85
 1575              		.loc 1 316 0 is_stmt 0 discriminator 1
 1576 0a40 BB4B     		ldr	r3, .L188+12
 1577 0a42 D3ED017A 		vldr.32	s15, [r3, #4]
 1578 0a46 B4EEE70A 		vcmpe.f32	s0, s15
 1579 0a4a F1EE10FA 		vmrs	APSR_nzcv, FPSCR
 1580 0a4e 3FF68BAD 		bhi	.L85
 1581              		.loc 1 316 0 discriminator 2
 1582 0a52 9DED0F1A 		vldr.32	s2, [sp, #60]
 1583 0a56 B5EEC01A 		vcmpe.f32	s2, #0
 1584 0a5a F1EE10FA 		vmrs	APSR_nzcv, FPSCR
 1585 0a5e 7FF783AD 		ble	.L85
 1586              		.loc 1 316 0 discriminator 3
 1587 0a62 DDED0E0A 		vldr.32	s1, [sp, #56]
 1588 0a66 DFEDB37A 		vldr.32	s15, .L188+16
 1589 0a6a F4EEE70A 		vcmpe.f32	s1, s15
 1590 0a6e F1EE10FA 		vmrs	APSR_nzcv, FPSCR
 1591 0a72 7FF779AD 		ble	.L85
 1592              		.loc 1 316 0 discriminator 4
 1593 0a76 DDED101A 		vldr.32	s3, [sp, #64]
 1594 0a7a F5EEC01A 		vcmpe.f32	s3, #0
 1595 0a7e F1EE10FA 		vmrs	APSR_nzcv, FPSCR
 1596 0a82 FFF671AD 		blt	.L85
ARM GAS  /var/folders/sv/kgmgr77579zbf78p2zlhkdfr0000gn/T//ccygG6jq.s 			page 29


 1597              	.LBB105:
 1598              		.loc 1 318 0 is_stmt 1
 1599 0a86 11A8     		add	r0, sp, #68
 1600 0a88 FFF7FEFF 		bl	conf_general_measure_flux_linkage
 1601              	.LVL210:
 1602              		.loc 1 319 0
 1603 0a8c 1198     		ldr	r0, [sp, #68]	@ float
 1604              	.LVL211:
 1605              	.L153:
 1606              	.LBE105:
 1607              	.LBE104:
 1608              	.LBB106:
 1609              	.LBB107:
 1610              		.loc 1 382 0
 1611 0a8e FFF7FEFF 		bl	__aeabi_f2d
 1612              	.LVL212:
 1613 0a92 0246     		mov	r2, r0
 1614 0a94 0B46     		mov	r3, r1
 1615 0a96 A848     		ldr	r0, .L188+20
 1616 0a98 FFF7FEFF 		bl	commands_printf
 1617              	.LVL213:
 1618              	.LBE107:
 1619 0a9c FFF737BB 		b	.L1
 1620              	.LVL214:
 1621              	.L61:
 1622              	.LBE106:
 1623              		.loc 1 326 0
 1624 0aa0 A649     		ldr	r1, .L188+24
 1625 0aa2 2846     		mov	r0, r5
 1626 0aa4 FFF7FEFF 		bl	strcmp
 1627              	.LVL215:
 1628 0aa8 0028     		cmp	r0, #0
 1629 0aaa 00F08480 		beq	.L177
 1630              		.loc 1 337 0
 1631 0aae A449     		ldr	r1, .L188+28
 1632 0ab0 2846     		mov	r0, r5
 1633 0ab2 FFF7FEFF 		bl	strcmp
 1634              	.LVL216:
 1635 0ab6 0646     		mov	r6, r0
 1636 0ab8 0028     		cmp	r0, #0
 1637 0aba 40F09E80 		bne	.L70
 1638              		.loc 1 338 0
 1639 0abe 022C     		cmp	r4, #2
 1640 0ac0 7FF4A8AC 		bne	.L44
 1641              	.LBB112:
 1642              		.loc 1 339 0
 1643 0ac4 11AD     		add	r5, sp, #68
 1644 0ac6 984B     		ldr	r3, .L188+4
 1645              		.loc 1 340 0
 1646 0ac8 1998     		ldr	r0, [sp, #100]
 1647 0aca 9849     		ldr	r1, .L188+8
 1648              		.loc 1 339 0
 1649 0acc 2B60     		str	r3, [r5]	@ float
 1650              		.loc 1 340 0
 1651 0ace 2A46     		mov	r2, r5
 1652 0ad0 FFF7FEFF 		bl	sscanf
 1653              	.LVL217:
ARM GAS  /var/folders/sv/kgmgr77579zbf78p2zlhkdfr0000gn/T//ccygG6jq.s 			page 30


 1654              		.loc 1 342 0
 1655 0ad4 D5ED007A 		vldr.32	s15, [r5]
 1656 0ad8 F5EEC07A 		vcmpe.f32	s15, #0
 1657 0adc F1EE10FA 		vmrs	APSR_nzcv, FPSCR
 1658 0ae0 7FF742AD 		ble	.L85
 1659              	.LBB111:
 1660              		.loc 1 343 0
 1661 0ae4 924F     		ldr	r7, .L188+12
 1662              	.LBB108:
 1663              		.loc 1 354 0
 1664 0ae6 9FED978A 		vldr.32	s16, .L188+32
 1665              	.LBE108:
 1666              		.loc 1 343 0
 1667 0aea BC70     		strb	r4, [r7, #2]
 1668              		.loc 1 344 0
 1669 0aec 3846     		mov	r0, r7
 1670 0aee FFF7FEFF 		bl	mc_interface_set_configuration
 1671              	.LVL218:
 1672              		.loc 1 345 0
 1673 0af2 D7ED317A 		vldr.32	s15, [r7, #196]
 1674 0af6 B7EE089A 		vmov.f32	s18, #1.5e+0
 1675 0afa 27EE899A 		vmul.f32	s18, s15, s18
 1676              	.LVL219:
 1677              		.loc 1 348 0
 1678 0afe FFF7FEFF 		bl	timeout_get_timeout_msec
 1679              	.LVL220:
 1680 0b02 0746     		mov	r7, r0
 1681              	.LVL221:
 1682              		.loc 1 349 0
 1683 0b04 FFF7FEFF 		bl	timeout_get_brake_current
 1684              	.LVL222:
 1685 0b08 F0EE40AA 		vmov.f32	s21, s0
 1686              	.LVL223:
 1687              		.loc 1 350 0
 1688 0b0c FFF7FEFF 		bl	timeout_reset
 1689              	.LVL224:
 1690              		.loc 1 351 0
 1691 0b10 9FED8D0A 		vldr.32	s0, .L188+36
 1692 0b14 4EF66020 		movw	r0, #60000
 1693 0b18 FFF7FEFF 		bl	timeout_configure
 1694              	.LVL225:
 1695              	.LBB109:
 1696              		.loc 1 353 0
 1697 0b1c 3446     		mov	r4, r6
 1698              	.LVL226:
 1699              	.L73:
 1700              		.loc 1 354 0 discriminator 3
 1701 0b1e 07EE904A 		vmov	s15, r4	@ int
 1702 0b22 B8EEE77A 		vcvt.f32.s32	s14, s15
 1703 0b26 D5ED007A 		vldr.32	s15, [r5]
 1704 0b2a 87EE080A 		vdiv.f32	s0, s14, s16
 1705              		.loc 1 353 0 discriminator 3
 1706 0b2e 0134     		adds	r4, r4, #1
 1707              	.LVL227:
 1708              		.loc 1 354 0 discriminator 3
 1709 0b30 20EE270A 		vmul.f32	s0, s0, s15
 1710 0b34 FFF7FEFF 		bl	mc_interface_set_duty
ARM GAS  /var/folders/sv/kgmgr77579zbf78p2zlhkdfr0000gn/T//ccygG6jq.s 			page 31


 1711              	.LVL228:
 1712              		.loc 1 355 0 discriminator 3
 1713 0b38 C820     		movs	r0, #200
 1714 0b3a FFF7FEFF 		bl	chThdSleep
 1715              	.LVL229:
 1716              		.loc 1 353 0 discriminator 3
 1717 0b3e 642C     		cmp	r4, #100
 1718 0b40 EDD1     		bne	.L73
 1719 0b42 9FED818A 		vldr.32	s16, .L188+36
 1720 0b46 4FF47A74 		mov	r4, #1000
 1721              	.LVL230:
 1722 0b4a F0EE488A 		vmov.f32	s17, s16
 1723 0b4e F0EE489A 		vmov.f32	s19, s16
 1724 0b52 B0EE48AA 		vmov.f32	s20, s16
 1725              	.LBE109:
 1726              	.LBB110:
 1727              		.loc 1 366 0 discriminator 3
 1728 0b56 B7EE00BA 		vmov.f32	s22, #1.0e+0
 1729              	.L74:
 1730              	.LVL231:
 1731              		.loc 1 363 0 discriminator 3
 1732 0b5a FFF7FEFF 		bl	mcpwm_foc_get_vq
 1733              	.LVL232:
 1734 0b5e 3AEE00AA 		vadd.f32	s20, s20, s0
 1735              	.LVL233:
 1736              		.loc 1 364 0 discriminator 3
 1737 0b62 FFF7FEFF 		bl	mc_interface_get_rpm
 1738              	.LVL234:
 1739 0b66 79EE809A 		vadd.f32	s19, s19, s0
 1740              	.LVL235:
 1741              		.loc 1 365 0 discriminator 3
 1742 0b6a FFF7FEFF 		bl	mc_interface_get_tot_current_directional
 1743              	.LVL236:
 1744              		.loc 1 367 0 discriminator 3
 1745 0b6e 0A20     		movs	r0, #10
 1746              		.loc 1 365 0 discriminator 3
 1747 0b70 38EE008A 		vadd.f32	s16, s16, s0
 1748              	.LVL237:
 1749              		.loc 1 367 0 discriminator 3
 1750 0b74 FFF7FEFF 		bl	chThdSleep
 1751              	.LVL238:
 1752              		.loc 1 362 0 discriminator 3
 1753 0b78 013C     		subs	r4, r4, #1
 1754              	.LVL239:
 1755              		.loc 1 366 0 discriminator 3
 1756 0b7a 78EE8B8A 		vadd.f32	s17, s17, s22
 1757              	.LVL240:
 1758              		.loc 1 362 0 discriminator 3
 1759 0b7e ECD1     		bne	.L74
 1760              	.LBE110:
 1761              		.loc 1 370 0
 1762 0b80 FFF7FEFF 		bl	mc_interface_release_motor
 1763              	.LVL241:
 1764              		.loc 1 371 0
 1765 0b84 7148     		ldr	r0, .L188+40
 1766 0b86 FFF7FEFF 		bl	mc_interface_set_configuration
 1767              	.LVL242:
ARM GAS  /var/folders/sv/kgmgr77579zbf78p2zlhkdfr0000gn/T//ccygG6jq.s 			page 32


 1768              		.loc 1 374 0
 1769 0b8a 3846     		mov	r0, r7
 1770 0b8c B0EE6A0A 		vmov.f32	s0, s21
 1771 0b90 FFF7FEFF 		bl	timeout_configure
 1772              	.LVL243:
 1773              		.loc 1 382 0
 1774 0b94 C8EE286A 		vdiv.f32	s13, s16, s17
 1775              	.LVL244:
 1776 0b98 8AEE287A 		vdiv.f32	s14, s20, s17
 1777              	.LVL245:
 1778 0b9c C9EEA87A 		vdiv.f32	s15, s19, s17
 1779              	.LVL246:
 1780 0ba0 A9EE667A 		vfms.f32	s14, s18, s13
 1781              	.LVL247:
 1782 0ba4 DFED6A6A 		vldr.32	s13, .L188+44
 1783              	.LVL248:
 1784 0ba8 67EEA67A 		vmul.f32	s15, s15, s13
 1785              	.LVL249:
 1786 0bac C7EE276A 		vdiv.f32	s13, s14, s15
 1787 0bb0 16EE900A 		vmov	r0, s13
 1788 0bb4 6BE7     		b	.L153
 1789              	.LVL250:
 1790              	.L177:
 1791              	.LBE111:
 1792              	.LBE112:
 1793              	.LBB113:
 1794              		.loc 1 327 0 discriminator 21
 1795 0bb6 5E4B     		ldr	r3, .L188+12
 1796 0bb8 0222     		movs	r2, #2
 1797              		.loc 1 328 0 discriminator 21
 1798 0bba 1846     		mov	r0, r3
 1799              		.loc 1 327 0 discriminator 21
 1800 0bbc 9A70     		strb	r2, [r3, #2]
 1801              		.loc 1 328 0 discriminator 21
 1802 0bbe FFF7FEFF 		bl	mc_interface_set_configuration
 1803              	.LVL251:
 1804              		.loc 1 330 0 discriminator 21
 1805 0bc2 0023     		movs	r3, #0
 1806              		.loc 1 332 0 discriminator 21
 1807 0bc4 11A9     		add	r1, sp, #68
 1808 0bc6 10A8     		add	r0, sp, #64
 1809              		.loc 1 330 0 discriminator 21
 1810 0bc8 1093     		str	r3, [sp, #64]	@ float
 1811              		.loc 1 331 0 discriminator 21
 1812 0bca 1193     		str	r3, [sp, #68]	@ float
 1813              		.loc 1 332 0 discriminator 21
 1814 0bcc FFF7FEFF 		bl	mcpwm_foc_measure_res_ind
 1815              	.LVL252:
 1816              		.loc 1 333 0 discriminator 21
 1817 0bd0 1098     		ldr	r0, [sp, #64]	@ float
 1818 0bd2 FFF7FEFF 		bl	__aeabi_f2d
 1819              	.LVL253:
 1820 0bd6 0246     		mov	r2, r0
 1821 0bd8 0B46     		mov	r3, r1
 1822 0bda 5E48     		ldr	r0, .L188+48
 1823 0bdc FFF7FEFF 		bl	commands_printf
 1824              	.LVL254:
ARM GAS  /var/folders/sv/kgmgr77579zbf78p2zlhkdfr0000gn/T//ccygG6jq.s 			page 33


 1825              		.loc 1 334 0 discriminator 21
 1826 0be0 1198     		ldr	r0, [sp, #68]	@ float
 1827 0be2 FFF7FEFF 		bl	__aeabi_f2d
 1828              	.LVL255:
 1829 0be6 0246     		mov	r2, r0
 1830 0be8 0B46     		mov	r3, r1
 1831 0bea 5B48     		ldr	r0, .L188+52
 1832 0bec FFF7FEFF 		bl	commands_printf
 1833              	.LVL256:
 1834              		.loc 1 336 0 discriminator 21
 1835 0bf0 5648     		ldr	r0, .L188+40
 1836 0bf2 FFF7FEFF 		bl	mc_interface_set_configuration
 1837              	.LVL257:
 1838              	.LBE113:
 1839 0bf6 FFF78ABA 		b	.L1
 1840              	.L70:
 1841              		.loc 1 389 0
 1842 0bfa 5849     		ldr	r1, .L188+56
 1843 0bfc 2846     		mov	r0, r5
 1844 0bfe FFF7FEFF 		bl	strcmp
 1845              	.LVL258:
 1846 0c02 0028     		cmp	r0, #0
 1847 0c04 00F00781 		beq	.L178
 1848              		.loc 1 392 0
 1849 0c08 5549     		ldr	r1, .L188+60
 1850 0c0a 2846     		mov	r0, r5
 1851 0c0c FFF7FEFF 		bl	strcmp
 1852              	.LVL259:
 1853 0c10 0028     		cmp	r0, #0
 1854 0c12 00F0C380 		beq	.L179
 1855              		.loc 1 403 0
 1856 0c16 5349     		ldr	r1, .L188+64
 1857 0c18 2846     		mov	r0, r5
 1858 0c1a FFF7FEFF 		bl	strcmp
 1859              	.LVL260:
 1860 0c1e 0028     		cmp	r0, #0
 1861 0c20 00F00081 		beq	.L80
 1862              		.loc 1 427 0
 1863 0c24 5049     		ldr	r1, .L188+68
 1864 0c26 2846     		mov	r0, r5
 1865 0c28 FFF7FEFF 		bl	strcmp
 1866              	.LVL261:
 1867 0c2c 0028     		cmp	r0, #0
 1868 0c2e 00F0F980 		beq	.L80
 1869              		.loc 1 454 0
 1870 0c32 4E49     		ldr	r1, .L188+72
 1871 0c34 2846     		mov	r0, r5
 1872 0c36 FFF7FEFF 		bl	strcmp
 1873              	.LVL262:
 1874 0c3a 0028     		cmp	r0, #0
 1875 0c3c 00F0F280 		beq	.L80
 1876              		.loc 1 479 0
 1877 0c40 4B49     		ldr	r1, .L188+76
 1878 0c42 2846     		mov	r0, r5
 1879 0c44 FFF7FEFF 		bl	strcmp
 1880              	.LVL263:
 1881 0c48 0028     		cmp	r0, #0
ARM GAS  /var/folders/sv/kgmgr77579zbf78p2zlhkdfr0000gn/T//ccygG6jq.s 			page 34


 1882 0c4a 00F0EB80 		beq	.L80
 1883              		.loc 1 485 0
 1884 0c4e 4949     		ldr	r1, .L188+80
 1885 0c50 2846     		mov	r0, r5
 1886 0c52 FFF7FEFF 		bl	strcmp
 1887              	.LVL264:
 1888 0c56 0028     		cmp	r0, #0
 1889 0c58 00F0E480 		beq	.L80
 1890              		.loc 1 491 0
 1891 0c5c 4649     		ldr	r1, .L188+84
 1892 0c5e 2846     		mov	r0, r5
 1893 0c60 FFF7FEFF 		bl	strcmp
 1894              	.LVL265:
 1895 0c64 0028     		cmp	r0, #0
 1896 0c66 57D0     		beq	.L82
 1897              		.loc 1 515 0
 1898 0c68 4449     		ldr	r1, .L188+88
 1899 0c6a 2846     		mov	r0, r5
 1900 0c6c FFF7FEFF 		bl	strcmp
 1901              	.LVL266:
 1902 0c70 0028     		cmp	r0, #0
 1903 0c72 51D0     		beq	.L82
 1904              		.loc 1 542 0
 1905 0c74 4249     		ldr	r1, .L188+92
 1906 0c76 2846     		mov	r0, r5
 1907 0c78 FFF7FEFF 		bl	strcmp
 1908              	.LVL267:
 1909 0c7c 38BB     		cbnz	r0, .L83
 1910              		.loc 1 543 0
 1911 0c7e 032C     		cmp	r4, #3
 1912 0c80 04D0     		beq	.L180
 1913              		.loc 1 555 0
 1914 0c82 4048     		ldr	r0, .L188+96
 1915 0c84 FFF7FEFF 		bl	commands_printf
 1916              	.LVL268:
 1917 0c88 FFF741BA 		b	.L1
 1918              	.L180:
 1919              	.LBB114:
 1920              		.loc 1 544 0
 1921 0c8c 264B     		ldr	r3, .L188+4
 1922              		.loc 1 546 0
 1923 0c8e 2749     		ldr	r1, .L188+8
 1924 0c90 1998     		ldr	r0, [sp, #100]
 1925              		.loc 1 544 0
 1926 0c92 1093     		str	r3, [sp, #64]	@ float
 1927              		.loc 1 546 0
 1928 0c94 10AA     		add	r2, sp, #64
 1929              		.loc 1 545 0
 1930 0c96 1193     		str	r3, [sp, #68]	@ float
 1931              		.loc 1 546 0
 1932 0c98 FFF7FEFF 		bl	sscanf
 1933              	.LVL269:
 1934              		.loc 1 547 0
 1935 0c9c 11AA     		add	r2, sp, #68
 1936 0c9e 1A98     		ldr	r0, [sp, #104]
 1937 0ca0 2249     		ldr	r1, .L188+8
 1938 0ca2 FFF7FEFF 		bl	sscanf
ARM GAS  /var/folders/sv/kgmgr77579zbf78p2zlhkdfr0000gn/T//ccygG6jq.s 			page 35


 1939              	.LVL270:
 1940              		.loc 1 549 0
 1941 0ca6 9DED100A 		vldr.32	s0, [sp, #64]
 1942 0caa B5EEC00A 		vcmpe.f32	s0, #0
 1943 0cae F1EE10FA 		vmrs	APSR_nzcv, FPSCR
 1944 0cb2 FFF659AC 		blt	.L85
 1945              		.loc 1 549 0 is_stmt 0 discriminator 1
 1946 0cb6 DDED110A 		vldr.32	s1, [sp, #68]
 1947 0cba F5EEC00A 		vcmpe.f32	s1, #0
 1948 0cbe F1EE10FA 		vmrs	APSR_nzcv, FPSCR
 1949 0cc2 FFF651AC 		blt	.L85
 1950              		.loc 1 550 0 is_stmt 1
 1951 0cc6 FFF7FEFF 		bl	mcpwm_foc_set_openloop
 1952              	.LVL271:
 1953 0cca FFF720BA 		b	.L1
 1954              	.L83:
 1955              	.LBE114:
 1956              		.loc 1 560 0
 1957 0cce 2E49     		ldr	r1, .L188+100
 1958 0cd0 2846     		mov	r0, r5
 1959 0cd2 FFF7FEFF 		bl	strcmp
 1960              	.LVL272:
 1961 0cd6 0646     		mov	r6, r0
 1962 0cd8 0028     		cmp	r0, #0
 1963 0cda 00F0AF80 		beq	.L89
 1964              	.LVL273:
 1965              	.LBB115:
 1966              	.LBB116:
 1967              		.loc 1 683 0 discriminator 1
 1968 0cde 2B4B     		ldr	r3, .L188+104
 1969 0ce0 D3F80080 		ldr	r8, [r3]
 1970 0ce4 B8F1000F 		cmp	r8, #0
 1971 0ce8 10DD     		ble	.L91
 1972 0cea DFF8ACA0 		ldr	r10, .L188+116
 1973              		.loc 1 683 0 is_stmt 0
 1974 0cee 0027     		movs	r7, #0
 1975              	.LVL274:
 1976              	.L100:
 1977              		.loc 1 684 0 is_stmt 1
 1978 0cf0 3E01     		lsls	r6, r7, #4
 1979 0cf2 2846     		mov	r0, r5
 1980 0cf4 5AF80610 		ldr	r1, [r10, r6]
 1981 0cf8 DFF89C90 		ldr	r9, .L188+116
 1982 0cfc FFF7FEFF 		bl	strcmp
 1983              	.LVL275:
 1984              		.loc 1 683 0
 1985 0d00 0137     		adds	r7, r7, #1
 1986              	.LVL276:
 1987              		.loc 1 684 0
 1988 0d02 0028     		cmp	r0, #0
 1989 0d04 00F09380 		beq	.L181
 1990              		.loc 1 683 0 discriminator 2
 1991 0d08 B845     		cmp	r8, r7
 1992 0d0a F1D1     		bne	.L100
 1993              	.LVL277:
 1994              	.L91:
 1995              	.LBE116:
ARM GAS  /var/folders/sv/kgmgr77579zbf78p2zlhkdfr0000gn/T//ccygG6jq.s 			page 36


 1996              		.loc 1 692 0
 1997 0d0c 2946     		mov	r1, r5
 1998 0d0e 2048     		ldr	r0, .L188+108
 1999 0d10 FFF7FEFF 		bl	commands_printf
 2000              	.LVL278:
 2001 0d14 FFF7FBB9 		b	.L1
 2002              	.LVL279:
 2003              	.L82:
 2004              	.LBE115:
 2005              		.loc 1 513 0
 2006 0d18 1E48     		ldr	r0, .L188+112
 2007 0d1a FFF7FEFF 		bl	commands_printf
 2008              	.LVL280:
 2009 0d1e FFF7F6B9 		b	.L1
 2010              	.L189:
 2011 0d22 00BF     		.align	2
 2012              	.L188:
 2013 0d24 74080000 		.word	.LC96
 2014 0d28 000080BF 		.word	-1082130432
 2015 0d2c F0040000 		.word	.LC63
 2016 0d30 00000000 		.word	.LANCHOR0
 2017 0d34 0AD7A33C 		.word	1017370378
 2018 0d38 84080000 		.word	.LC97
 2019 0d3c 98080000 		.word	.LC98
 2020 0d40 E0080000 		.word	.LC101
 2021 0d44 0000C842 		.word	1120403456
 2022 0d48 00000000 		.word	0
 2023 0d4c 00000000 		.word	.LANCHOR1
 2024 0d50 5077D63D 		.word	1037465424
 2025 0d54 A8080000 		.word	.LC99
 2026 0d58 C0080000 		.word	.LC100
 2027 0d5c F4080000 		.word	.LC102
 2028 0d60 00090000 		.word	.LC103
 2029 0d64 8C090000 		.word	.LC109
 2030 0d68 C8090000 		.word	.LC111
 2031 0d6c DC090000 		.word	.LC112
 2032 0d70 F0090000 		.word	.LC113
 2033 0d74 080A0000 		.word	.LC114
 2034 0d78 200A0000 		.word	.LC115
 2035 0d7c 5C0A0000 		.word	.LC117
 2036 0d80 700A0000 		.word	.LC118
 2037 0d84 800A0000 		.word	.LC119
 2038 0d88 A80A0000 		.word	.LC120
 2039 0d8c 00000000 		.word	.LANCHOR5
 2040 0d90 30110000 		.word	.LC161
 2041 0d94 340A0000 		.word	.LC116
 2042 0d98 00000000 		.word	.LANCHOR6
 2043              	.L179:
 2044              		.loc 1 393 0
 2045 0d9c 2222     		movs	r2, #34
 2046 0d9e 0321     		movs	r1, #3
 2047 0da0 8D48     		ldr	r0, .L190
 2048 0da2 FFF7FEFF 		bl	commands_printf
 2049              	.LVL281:
 2050              		.loc 1 395 0
 2051 0da6 8D49     		ldr	r1, .L190+4
 2052 0da8 8D48     		ldr	r0, .L190+8
ARM GAS  /var/folders/sv/kgmgr77579zbf78p2zlhkdfr0000gn/T//ccygG6jq.s 			page 37


 2053 0daa FFF7FEFF 		bl	commands_printf
 2054              	.LVL282:
 2055              		.loc 1 400 0
 2056 0dae 8D48     		ldr	r0, .L190+12
 2057              		.loc 1 398 0
 2058 0db0 8D4B     		ldr	r3, .L190+16
 2059 0db2 8E4A     		ldr	r2, .L190+20
 2060 0db4 8E49     		ldr	r1, .L190+24
 2061              		.loc 1 397 0
 2062 0db6 0478     		ldrb	r4, [r0]	@ zero_extendqisi2
 2063              	.LVL283:
 2064 0db8 1B78     		ldrb	r3, [r3]	@ zero_extendqisi2
 2065 0dba 1278     		ldrb	r2, [r2]	@ zero_extendqisi2
 2066 0dbc 0978     		ldrb	r1, [r1]	@ zero_extendqisi2
 2067 0dbe 0894     		str	r4, [sp, #32]
 2068 0dc0 10F8014C 		ldrb	r4, [r0, #-1]	@ zero_extendqisi2
 2069 0dc4 0794     		str	r4, [sp, #28]
 2070 0dc6 10F8024C 		ldrb	r4, [r0, #-2]	@ zero_extendqisi2
 2071 0dca 0694     		str	r4, [sp, #24]
 2072 0dcc 10F8034C 		ldrb	r4, [r0, #-3]	@ zero_extendqisi2
 2073 0dd0 0594     		str	r4, [sp, #20]
 2074 0dd2 10F8044C 		ldrb	r4, [r0, #-4]	@ zero_extendqisi2
 2075 0dd6 0494     		str	r4, [sp, #16]
 2076 0dd8 10F8054C 		ldrb	r4, [r0, #-5]	@ zero_extendqisi2
 2077 0ddc 0394     		str	r4, [sp, #12]
 2078 0dde 10F8064C 		ldrb	r4, [r0, #-6]	@ zero_extendqisi2
 2079 0de2 0294     		str	r4, [sp, #8]
 2080 0de4 10F8074C 		ldrb	r4, [r0, #-7]	@ zero_extendqisi2
 2081 0de8 0194     		str	r4, [sp, #4]
 2082              		.loc 1 398 0
 2083 0dea 0838     		subs	r0, r0, #8
 2084              		.loc 1 397 0
 2085 0dec 0078     		ldrb	r0, [r0]	@ zero_extendqisi2
 2086 0dee 0090     		str	r0, [sp]
 2087 0df0 8048     		ldr	r0, .L190+28
 2088 0df2 FFF7FEFF 		bl	commands_printf
 2089              	.LVL284:
 2090              		.loc 1 401 0
 2091 0df6 804B     		ldr	r3, .L190+32
 2092 0df8 804A     		ldr	r2, .L190+36
 2093 0dfa 1978     		ldrb	r1, [r3]	@ zero_extendqisi2
 2094 0dfc 804B     		ldr	r3, .L190+40
 2095 0dfe 8148     		ldr	r0, .L190+44
 2096 0e00 0029     		cmp	r1, #0
 2097 0e02 14BF     		ite	ne
 2098 0e04 1146     		movne	r1, r2
 2099 0e06 1946     		moveq	r1, r3
 2100 0e08 FFF7FEFF 		bl	commands_printf
 2101              	.LVL285:
 2102              		.loc 1 402 0
 2103 0e0c 7E48     		ldr	r0, .L190+48
 2104 0e0e FFF7FEFF 		bl	commands_printf
 2105              	.LVL286:
 2106 0e12 FFF77CB9 		b	.L1
 2107              	.LVL287:
 2108              	.L178:
 2109              		.loc 1 390 0
ARM GAS  /var/folders/sv/kgmgr77579zbf78p2zlhkdfr0000gn/T//ccygG6jq.s 			page 38


 2110 0e16 FFF7FEFF 		bl	mcpwm_foc_print_state
 2111              	.LVL288:
 2112              		.loc 1 391 0
 2113 0e1a 7B48     		ldr	r0, .L190+48
 2114 0e1c FFF7FEFF 		bl	commands_printf
 2115              	.LVL289:
 2116 0e20 FFF775B9 		b	.L1
 2117              	.L80:
 2118              		.loc 1 425 0
 2119 0e24 7948     		ldr	r0, .L190+52
 2120 0e26 FFF7FEFF 		bl	commands_printf
 2121              	.LVL290:
 2122 0e2a FFF770B9 		b	.L1
 2123              	.LVL291:
 2124              	.L181:
 2125              	.LBB118:
 2126              	.LBB117:
 2127              		.loc 1 685 0
 2128 0e2e 4E44     		add	r6, r6, r9
 2129 0e30 18A9     		add	r1, sp, #96
 2130 0e32 F368     		ldr	r3, [r6, #12]
 2131 0e34 2046     		mov	r0, r4
 2132 0e36 9847     		blx	r3
 2133              	.LVL292:
 2134 0e38 FFF769B9 		b	.L1
 2135              	.LVL293:
 2136              	.L89:
 2137              	.LBE117:
 2138              	.LBE118:
 2139              		.loc 1 561 0
 2140 0e3c 7448     		ldr	r0, .L190+56
 2141              	.LBB119:
 2142              		.loc 1 666 0
 2143 0e3e 754F     		ldr	r7, .L190+60
 2144              	.LBE119:
 2145              		.loc 1 561 0
 2146 0e40 FFF7FEFF 		bl	commands_printf
 2147              	.LVL294:
 2148              		.loc 1 562 0
 2149 0e44 7448     		ldr	r0, .L190+64
 2150 0e46 FFF7FEFF 		bl	commands_printf
 2151              	.LVL295:
 2152              		.loc 1 563 0
 2153 0e4a 7448     		ldr	r0, .L190+68
 2154 0e4c FFF7FEFF 		bl	commands_printf
 2155              	.LVL296:
 2156              		.loc 1 565 0
 2157 0e50 7348     		ldr	r0, .L190+72
 2158 0e52 FFF7FEFF 		bl	commands_printf
 2159              	.LVL297:
 2160              		.loc 1 566 0
 2161 0e56 7348     		ldr	r0, .L190+76
 2162 0e58 FFF7FEFF 		bl	commands_printf
 2163              	.LVL298:
 2164              		.loc 1 568 0
 2165 0e5c 7248     		ldr	r0, .L190+80
 2166 0e5e FFF7FEFF 		bl	commands_printf
ARM GAS  /var/folders/sv/kgmgr77579zbf78p2zlhkdfr0000gn/T//ccygG6jq.s 			page 39


 2167              	.LVL299:
 2168              		.loc 1 569 0
 2169 0e62 7248     		ldr	r0, .L190+84
 2170 0e64 FFF7FEFF 		bl	commands_printf
 2171              	.LVL300:
 2172              		.loc 1 571 0
 2173 0e68 7148     		ldr	r0, .L190+88
 2174 0e6a FFF7FEFF 		bl	commands_printf
 2175              	.LVL301:
 2176              		.loc 1 572 0
 2177 0e6e 7148     		ldr	r0, .L190+92
 2178 0e70 FFF7FEFF 		bl	commands_printf
 2179              	.LVL302:
 2180              		.loc 1 574 0
 2181 0e74 7048     		ldr	r0, .L190+96
 2182 0e76 FFF7FEFF 		bl	commands_printf
 2183              	.LVL303:
 2184              		.loc 1 575 0
 2185 0e7a 7048     		ldr	r0, .L190+100
 2186 0e7c FFF7FEFF 		bl	commands_printf
 2187              	.LVL304:
 2188              		.loc 1 577 0
 2189 0e80 6F48     		ldr	r0, .L190+104
 2190 0e82 FFF7FEFF 		bl	commands_printf
 2191              	.LVL305:
 2192              		.loc 1 578 0
 2193 0e86 6F48     		ldr	r0, .L190+108
 2194 0e88 FFF7FEFF 		bl	commands_printf
 2195              	.LVL306:
 2196              		.loc 1 580 0
 2197 0e8c 6E48     		ldr	r0, .L190+112
 2198 0e8e FFF7FEFF 		bl	commands_printf
 2199              	.LVL307:
 2200              		.loc 1 581 0
 2201 0e92 6E48     		ldr	r0, .L190+116
 2202 0e94 FFF7FEFF 		bl	commands_printf
 2203              	.LVL308:
 2204              		.loc 1 583 0
 2205 0e98 6D48     		ldr	r0, .L190+120
 2206 0e9a FFF7FEFF 		bl	commands_printf
 2207              	.LVL309:
 2208              		.loc 1 584 0
 2209 0e9e 6D48     		ldr	r0, .L190+124
 2210 0ea0 FFF7FEFF 		bl	commands_printf
 2211              	.LVL310:
 2212              		.loc 1 586 0
 2213 0ea4 6C48     		ldr	r0, .L190+128
 2214 0ea6 FFF7FEFF 		bl	commands_printf
 2215              	.LVL311:
 2216              		.loc 1 587 0
 2217 0eaa 6C48     		ldr	r0, .L190+132
 2218 0eac FFF7FEFF 		bl	commands_printf
 2219              	.LVL312:
 2220              		.loc 1 589 0
 2221 0eb0 6B48     		ldr	r0, .L190+136
 2222 0eb2 FFF7FEFF 		bl	commands_printf
 2223              	.LVL313:
ARM GAS  /var/folders/sv/kgmgr77579zbf78p2zlhkdfr0000gn/T//ccygG6jq.s 			page 40


 2224              		.loc 1 590 0
 2225 0eb6 6B48     		ldr	r0, .L190+140
 2226 0eb8 FFF7FEFF 		bl	commands_printf
 2227              	.LVL314:
 2228              		.loc 1 592 0
 2229 0ebc 6A48     		ldr	r0, .L190+144
 2230 0ebe FFF7FEFF 		bl	commands_printf
 2231              	.LVL315:
 2232              		.loc 1 593 0
 2233 0ec2 6A48     		ldr	r0, .L190+148
 2234 0ec4 FFF7FEFF 		bl	commands_printf
 2235              	.LVL316:
 2236              		.loc 1 595 0
 2237 0ec8 6948     		ldr	r0, .L190+152
 2238 0eca FFF7FEFF 		bl	commands_printf
 2239              	.LVL317:
 2240              		.loc 1 596 0
 2241 0ece 6948     		ldr	r0, .L190+156
 2242 0ed0 FFF7FEFF 		bl	commands_printf
 2243              	.LVL318:
 2244              		.loc 1 598 0
 2245 0ed4 6848     		ldr	r0, .L190+160
 2246 0ed6 FFF7FEFF 		bl	commands_printf
 2247              	.LVL319:
 2248              		.loc 1 599 0
 2249 0eda 6848     		ldr	r0, .L190+164
 2250 0edc FFF7FEFF 		bl	commands_printf
 2251              	.LVL320:
 2252              		.loc 1 601 0
 2253 0ee0 6748     		ldr	r0, .L190+168
 2254 0ee2 FFF7FEFF 		bl	commands_printf
 2255              	.LVL321:
 2256              		.loc 1 602 0
 2257 0ee6 6748     		ldr	r0, .L190+172
 2258 0ee8 FFF7FEFF 		bl	commands_printf
 2259              	.LVL322:
 2260              		.loc 1 603 0
 2261 0eec 6648     		ldr	r0, .L190+176
 2262 0eee FFF7FEFF 		bl	commands_printf
 2263              	.LVL323:
 2264              		.loc 1 604 0
 2265 0ef2 6648     		ldr	r0, .L190+180
 2266 0ef4 FFF7FEFF 		bl	commands_printf
 2267              	.LVL324:
 2268              		.loc 1 606 0
 2269 0ef8 6548     		ldr	r0, .L190+184
 2270 0efa FFF7FEFF 		bl	commands_printf
 2271              	.LVL325:
 2272              		.loc 1 607 0
 2273 0efe 6548     		ldr	r0, .L190+188
 2274 0f00 FFF7FEFF 		bl	commands_printf
 2275              	.LVL326:
 2276              		.loc 1 609 0
 2277 0f04 6448     		ldr	r0, .L190+192
 2278 0f06 FFF7FEFF 		bl	commands_printf
 2279              	.LVL327:
 2280              		.loc 1 610 0
ARM GAS  /var/folders/sv/kgmgr77579zbf78p2zlhkdfr0000gn/T//ccygG6jq.s 			page 41


 2281 0f0a 6448     		ldr	r0, .L190+196
 2282 0f0c FFF7FEFF 		bl	commands_printf
 2283              	.LVL328:
 2284              		.loc 1 612 0
 2285 0f10 6348     		ldr	r0, .L190+200
 2286 0f12 FFF7FEFF 		bl	commands_printf
 2287              	.LVL329:
 2288              		.loc 1 613 0
 2289 0f16 6348     		ldr	r0, .L190+204
 2290 0f18 FFF7FEFF 		bl	commands_printf
 2291              	.LVL330:
 2292              		.loc 1 615 0
 2293 0f1c 6248     		ldr	r0, .L190+208
 2294 0f1e FFF7FEFF 		bl	commands_printf
 2295              	.LVL331:
 2296              		.loc 1 616 0
 2297 0f22 6248     		ldr	r0, .L190+212
 2298 0f24 FFF7FEFF 		bl	commands_printf
 2299              	.LVL332:
 2300              		.loc 1 618 0
 2301 0f28 6148     		ldr	r0, .L190+216
 2302 0f2a FFF7FEFF 		bl	commands_printf
 2303              	.LVL333:
 2304              		.loc 1 619 0
 2305 0f2e 6148     		ldr	r0, .L190+220
 2306 0f30 FFF7FEFF 		bl	commands_printf
 2307              	.LVL334:
 2308              		.loc 1 621 0
 2309 0f34 6048     		ldr	r0, .L190+224
 2310 0f36 FFF7FEFF 		bl	commands_printf
 2311              	.LVL335:
 2312              		.loc 1 622 0
 2313 0f3a 6048     		ldr	r0, .L190+228
 2314 0f3c FFF7FEFF 		bl	commands_printf
 2315              	.LVL336:
 2316              		.loc 1 623 0
 2317 0f40 5F48     		ldr	r0, .L190+232
 2318 0f42 FFF7FEFF 		bl	commands_printf
 2319              	.LVL337:
 2320              		.loc 1 624 0
 2321 0f46 5F48     		ldr	r0, .L190+236
 2322 0f48 FFF7FEFF 		bl	commands_printf
 2323              	.LVL338:
 2324              		.loc 1 626 0
 2325 0f4c 5E48     		ldr	r0, .L190+240
 2326 0f4e FFF7FEFF 		bl	commands_printf
 2327              	.LVL339:
 2328              		.loc 1 627 0
 2329 0f52 5E48     		ldr	r0, .L190+244
 2330 0f54 FFF7FEFF 		bl	commands_printf
 2331              	.LVL340:
 2332              		.loc 1 629 0
 2333 0f58 5D48     		ldr	r0, .L190+248
 2334 0f5a FFF7FEFF 		bl	commands_printf
 2335              	.LVL341:
 2336              		.loc 1 630 0
 2337 0f5e 5D48     		ldr	r0, .L190+252
ARM GAS  /var/folders/sv/kgmgr77579zbf78p2zlhkdfr0000gn/T//ccygG6jq.s 			page 42


 2338 0f60 FFF7FEFF 		bl	commands_printf
 2339              	.LVL342:
 2340              		.loc 1 632 0
 2341 0f64 5C48     		ldr	r0, .L190+256
 2342 0f66 FFF7FEFF 		bl	commands_printf
 2343              	.LVL343:
 2344              		.loc 1 633 0
 2345 0f6a 5C48     		ldr	r0, .L190+260
 2346 0f6c FFF7FEFF 		bl	commands_printf
 2347              	.LVL344:
 2348              		.loc 1 635 0
 2349 0f70 5B48     		ldr	r0, .L190+264
 2350 0f72 FFF7FEFF 		bl	commands_printf
 2351              	.LVL345:
 2352              		.loc 1 636 0
 2353 0f76 5B48     		ldr	r0, .L190+268
 2354 0f78 FFF7FEFF 		bl	commands_printf
 2355              	.LVL346:
 2356              		.loc 1 663 0
 2357 0f7c 5A48     		ldr	r0, .L190+272
 2358 0f7e FFF7FEFF 		bl	commands_printf
 2359              	.LVL347:
 2360              		.loc 1 664 0
 2361 0f82 5A48     		ldr	r0, .L190+276
 2362 0f84 FFF7FEFF 		bl	commands_printf
 2363              	.LVL348:
 2364              	.LBB120:
 2365              		.loc 1 666 0
 2366 0f88 3B68     		ldr	r3, [r7]
 2367 0f8a 002B     		cmp	r3, #0
 2368 0f8c 16DD     		ble	.L98
 2369 0f8e 584D     		ldr	r5, .L190+280
 2370 0f90 3446     		mov	r4, r6
 2371              	.LVL349:
 2372              	.L97:
 2373              		.loc 1 667 0
 2374 0f92 2B68     		ldr	r3, [r5]
 2375              		.loc 1 668 0
 2376 0f94 5748     		ldr	r0, .L190+284
 2377 0f96 1A46     		mov	r2, r3
 2378              		.loc 1 667 0
 2379 0f98 CBB1     		cbz	r3, .L93
 2380              		.loc 1 668 0
 2381 0f9a 55F8081C 		ldr	r1, [r5, #-8]
 2382 0f9e FFF7FEFF 		bl	commands_printf
 2383              	.LVL350:
 2384              	.L94:
 2385              		.loc 1 673 0
 2386 0fa2 55F8043C 		ldr	r3, [r5, #-4]
 2387              		.loc 1 674 0
 2388 0fa6 5448     		ldr	r0, .L190+288
 2389 0fa8 1946     		mov	r1, r3
 2390              		.loc 1 673 0
 2391 0faa 63B1     		cbz	r3, .L95
 2392              		.loc 1 674 0
 2393 0fac FFF7FEFF 		bl	commands_printf
 2394              	.LVL351:
ARM GAS  /var/folders/sv/kgmgr77579zbf78p2zlhkdfr0000gn/T//ccygG6jq.s 			page 43


 2395              	.L96:
 2396              		.loc 1 666 0 discriminator 2
 2397 0fb0 3B68     		ldr	r3, [r7]
 2398 0fb2 0134     		adds	r4, r4, #1
 2399              	.LVL352:
 2400 0fb4 A342     		cmp	r3, r4
 2401 0fb6 05F11005 		add	r5, r5, #16
 2402 0fba EADC     		bgt	.L97
 2403              	.LVL353:
 2404              	.L98:
 2405              	.LBE120:
 2406              		.loc 1 680 0
 2407 0fbc 1248     		ldr	r0, .L190+48
 2408 0fbe FFF7FEFF 		bl	commands_printf
 2409              	.LVL354:
 2410 0fc2 FFF7A4B8 		b	.L1
 2411              	.LVL355:
 2412              	.L95:
 2413              	.LBB121:
 2414              		.loc 1 676 0
 2415 0fc6 4D48     		ldr	r0, .L190+292
 2416 0fc8 FFF7FEFF 		bl	commands_printf
 2417              	.LVL356:
 2418 0fcc F0E7     		b	.L96
 2419              	.L93:
 2420              		.loc 1 670 0
 2421 0fce 55F8080C 		ldr	r0, [r5, #-8]
 2422 0fd2 FFF7FEFF 		bl	commands_printf
 2423              	.LVL357:
 2424 0fd6 E4E7     		b	.L94
 2425              	.L191:
 2426              		.align	2
 2427              	.L190:
 2428 0fd8 0C090000 		.word	.LC104
 2429 0fdc 1C090000 		.word	.LC105
 2430 0fe0 20090000 		.word	.LC106
 2431 0fe4 1B7AFF1F 		.word	536836635
 2432 0fe8 127AFF1F 		.word	536836626
 2433 0fec 117AFF1F 		.word	536836625
 2434 0ff0 107AFF1F 		.word	536836624
 2435 0ff4 30090000 		.word	.LC107
 2436 0ff8 00000000 		.word	conf_general_permanent_nrf_found
 2437 0ffc 10000000 		.word	.LC2
 2438 1000 14000000 		.word	.LC3
 2439 1004 74090000 		.word	.LC108
 2440 1008 18000000 		.word	.LC4
 2441 100c A0090000 		.word	.LC110
 2442 1010 B00A0000 		.word	.LC121
 2443 1014 00000000 		.word	.LANCHOR5
 2444 1018 A80A0000 		.word	.LC120
 2445 101c C40A0000 		.word	.LC122
 2446 1020 34000000 		.word	.LC6
 2447 1024 D80A0000 		.word	.LC123
 2448 1028 44000000 		.word	.LC8
 2449 102c 040B0000 		.word	.LC124
 2450 1030 5C000000 		.word	.LC10
 2451 1034 180B0000 		.word	.LC125
ARM GAS  /var/folders/sv/kgmgr77579zbf78p2zlhkdfr0000gn/T//ccygG6jq.s 			page 44


 2452 1038 E0000000 		.word	.LC14
 2453 103c 480B0000 		.word	.LC126
 2454 1040 04010000 		.word	.LC16
 2455 1044 6C0B0000 		.word	.LC127
 2456 1048 5C010000 		.word	.LC20
 2457 104c 800B0000 		.word	.LC128
 2458 1050 0C020000 		.word	.LC25
 2459 1054 940B0000 		.word	.LC129
 2460 1058 18020000 		.word	.LC27
 2461 105c B40B0000 		.word	.LC130
 2462 1060 C8030000 		.word	.LC44
 2463 1064 F80B0000 		.word	.LC131
 2464 1068 E8030000 		.word	.LC46
 2465 106c 1C0C0000 		.word	.LC132
 2466 1070 08040000 		.word	.LC48
 2467 1074 380C0000 		.word	.LC133
 2468 1078 C0040000 		.word	.LC60
 2469 107c 580C0000 		.word	.LC134
 2470 1080 740C0000 		.word	.LC135
 2471 1084 A00C0000 		.word	.LC136
 2472 1088 E40C0000 		.word	.LC137
 2473 108c 200D0000 		.word	.LC138
 2474 1090 60060000 		.word	.LC74
 2475 1094 480D0000 		.word	.LC139
 2476 1098 BC060000 		.word	.LC78
 2477 109c 680D0000 		.word	.LC140
 2478 10a0 A40D0000 		.word	.LC141
 2479 10a4 C40D0000 		.word	.LC142
 2480 10a8 080E0000 		.word	.LC143
 2481 10ac 200E0000 		.word	.LC144
 2482 10b0 600E0000 		.word	.LC145
 2483 10b4 740E0000 		.word	.LC146
 2484 10b8 C80E0000 		.word	.LC147
 2485 10bc 000F0000 		.word	.LC148
 2486 10c0 400F0000 		.word	.LC149
 2487 10c4 6C0F0000 		.word	.LC150
 2488 10c8 98080000 		.word	.LC98
 2489 10cc A40F0000 		.word	.LC151
 2490 10d0 FC0F0000 		.word	.LC152
 2491 10d4 18100000 		.word	.LC153
 2492 10d8 F4080000 		.word	.LC102
 2493 10dc 50100000 		.word	.LC154
 2494 10e0 00090000 		.word	.LC103
 2495 10e4 74100000 		.word	.LC155
 2496 10e8 A0100000 		.word	.LC156
 2497 10ec C0100000 		.word	.LC157
 2498 10f0 08000000 		.word	.LANCHOR6+8
 2499 10f4 F0100000 		.word	.LC158
 2500 10f8 F8100000 		.word	.LC159
 2501 10fc 00110000 		.word	.LC160
 2502              	.LBE121:
 2503              		.cfi_endproc
 2504              	.LFE257:
 2505              		.size	terminal_process_string, .-terminal_process_string
 2506              		.section	.text.terminal_add_fault_data,"ax",%progbits
 2507              		.align	2
 2508              		.p2align 4,,15
ARM GAS  /var/folders/sv/kgmgr77579zbf78p2zlhkdfr0000gn/T//ccygG6jq.s 			page 45


 2509              		.global	terminal_add_fault_data
 2510              		.thumb
 2511              		.thumb_func
 2512              		.type	terminal_add_fault_data, %function
 2513              	terminal_add_fault_data:
 2514              	.LFB258:
 2515              		.loc 1 698 0
 2516              		.cfi_startproc
 2517              		@ args = 0, pretend = 0, frame = 0
 2518              		@ frame_needed = 0, uses_anonymous_args = 0
 2519              	.LVL358:
 2520 0000 F0B5     		push	{r4, r5, r6, r7, lr}
 2521              		.cfi_def_cfa_offset 20
 2522              		.cfi_offset 4, -20
 2523              		.cfi_offset 5, -16
 2524              		.cfi_offset 6, -12
 2525              		.cfi_offset 7, -8
 2526              		.cfi_offset 14, -4
 2527              		.loc 1 699 0
 2528 0002 0E4F     		ldr	r7, .L195
 2529 0004 0E4D     		ldr	r5, .L195+4
 2530 0006 3C68     		ldr	r4, [r7]
 2531 0008 0646     		mov	r6, r0
 2532 000a 0FCE     		ldmia	r6!, {r0, r1, r2, r3}
 2533              	.LVL359:
 2534 000c 04F1010E 		add	lr, r4, #1
 2535 0010 C4EBC404 		rsb	r4, r4, r4, lsl #3
 2536 0014 05EBC404 		add	r4, r5, r4, lsl #3
 2537 0018 C7F800E0 		str	lr, [r7]
 2538 001c 0FC4     		stmia	r4!, {r0, r1, r2, r3}
 2539 001e 0FCE     		ldmia	r6!, {r0, r1, r2, r3}
 2540              	.LVL360:
 2541 0020 0FC4     		stmia	r4!, {r0, r1, r2, r3}
 2542 0022 0FCE     		ldmia	r6!, {r0, r1, r2, r3}
 2543              	.LVL361:
 2544 0024 0FC4     		stmia	r4!, {r0, r1, r2, r3}
 2545 0026 96E80300 		ldmia	r6, {r0, r1}
 2546 002a 84E80300 		stmia	r4, {r0, r1}
 2547              		.loc 1 700 0
 2548 002e 3B68     		ldr	r3, [r7]
 2549 0030 182B     		cmp	r3, #24
 2550              		.loc 1 701 0
 2551 0032 C4BF     		itt	gt
 2552 0034 0023     		movgt	r3, #0
 2553 0036 3B60     		strgt	r3, [r7]
 2554 0038 F0BD     		pop	{r4, r5, r6, r7, pc}
 2555              	.LVL362:
 2556              	.L196:
 2557 003a 00BF     		.align	2
 2558              	.L195:
 2559 003c 00000000 		.word	.LANCHOR3
 2560 0040 00000000 		.word	.LANCHOR4
 2561              		.cfi_endproc
 2562              	.LFE258:
 2563              		.size	terminal_add_fault_data, .-terminal_add_fault_data
 2564              		.section	.text.terminal_register_command_callback,"ax",%progbits
 2565              		.align	2
ARM GAS  /var/folders/sv/kgmgr77579zbf78p2zlhkdfr0000gn/T//ccygG6jq.s 			page 46


 2566              		.p2align 4,,15
 2567              		.global	terminal_register_command_callback
 2568              		.thumb
 2569              		.thumb_func
 2570              		.type	terminal_register_command_callback, %function
 2571              	terminal_register_command_callback:
 2572              	.LFB259:
 2573              		.loc 1 726 0
 2574              		.cfi_startproc
 2575              		@ args = 0, pretend = 0, frame = 8
 2576              		@ frame_needed = 0, uses_anonymous_args = 0
 2577              	.LVL363:
 2578 0000 2DE9F04F 		push	{r4, r5, r6, r7, r8, r9, r10, fp, lr}
 2579              		.cfi_def_cfa_offset 36
 2580              		.cfi_offset 4, -36
 2581              		.cfi_offset 5, -32
 2582              		.cfi_offset 6, -28
 2583              		.cfi_offset 7, -24
 2584              		.cfi_offset 8, -20
 2585              		.cfi_offset 9, -16
 2586              		.cfi_offset 10, -12
 2587              		.cfi_offset 11, -8
 2588              		.cfi_offset 14, -4
 2589              		.loc 1 728 0
 2590 0004 DFF89080 		ldr	r8, .L213+4
 2591              	.LBB122:
 2592              		.loc 1 732 0
 2593 0008 224F     		ldr	r7, .L213
 2594              	.LBE122:
 2595              		.loc 1 728 0
 2596 000a D8F80060 		ldr	r6, [r8]
 2597              	.LVL364:
 2598              		.loc 1 726 0
 2599 000e 83B0     		sub	sp, sp, #12
 2600              		.cfi_def_cfa_offset 48
 2601              	.LBB123:
 2602              		.loc 1 730 0
 2603 0010 002E     		cmp	r6, #0
 2604              	.LBE123:
 2605              		.loc 1 726 0
 2606 0012 0446     		mov	r4, r0
 2607 0014 8B46     		mov	fp, r1
 2608 0016 9246     		mov	r10, r2
 2609 0018 0193     		str	r3, [sp, #4]
 2610              	.LBB124:
 2611              		.loc 1 730 0
 2612 001a 20DD     		ble	.L198
 2613              		.loc 1 732 0
 2614 001c 3868     		ldr	r0, [r7]
 2615              	.LVL365:
 2616 001e 8442     		cmp	r4, r0
 2617 0020 34D0     		beq	.L204
 2618 0022 3D46     		mov	r5, r7
 2619 0024 4FF00009 		mov	r9, #0
 2620 0028 07E0     		b	.L200
 2621              	.LVL366:
 2622              	.L211:
ARM GAS  /var/folders/sv/kgmgr77579zbf78p2zlhkdfr0000gn/T//ccygG6jq.s 			page 47


 2623              		.loc 1 730 0 discriminator 2
 2624 002a 09F10109 		add	r9, r9, #1
 2625              	.LVL367:
 2626 002e 4E45     		cmp	r6, r9
 2627 0030 15D0     		beq	.L198
 2628              		.loc 1 732 0
 2629 0032 55F8100F 		ldr	r0, [r5, #16]!
 2630 0036 A042     		cmp	r0, r4
 2631 0038 04D0     		beq	.L199
 2632              	.LVL368:
 2633              	.L200:
 2634              		.loc 1 738 0
 2635 003a 2146     		mov	r1, r4
 2636 003c FFF7FEFF 		bl	strcmp
 2637              	.LVL369:
 2638 0040 0028     		cmp	r0, #0
 2639 0042 F2D1     		bne	.L211
 2640              	.LVL370:
 2641              	.L199:
 2642              	.LBE124:
 2643              		.loc 1 744 0
 2644 0044 4FEA0913 		lsl	r3, r9, #4
 2645 0048 FA18     		adds	r2, r7, r3
 2646 004a FC50     		str	r4, [r7, r3]
 2647              		.loc 1 747 0
 2648 004c 019B     		ldr	r3, [sp, #4]
 2649              		.loc 1 745 0
 2650 004e C2F804B0 		str	fp, [r2, #4]
 2651              		.loc 1 746 0
 2652 0052 C2F808A0 		str	r10, [r2, #8]
 2653              		.loc 1 747 0
 2654 0056 D360     		str	r3, [r2, #12]
 2655              		.loc 1 755 0
 2656 0058 03B0     		add	sp, sp, #12
 2657              		.cfi_remember_state
 2658              		.cfi_def_cfa_offset 36
 2659              		@ sp needed
 2660 005a BDE8F08F 		pop	{r4, r5, r6, r7, r8, r9, r10, fp, pc}
 2661              	.LVL371:
 2662              	.L198:
 2663              		.cfi_restore_state
 2664              		.loc 1 744 0
 2665 005e 3201     		lsls	r2, r6, #4
 2666 0060 BB18     		adds	r3, r7, r2
 2667              		.loc 1 750 0
 2668 0062 0136     		adds	r6, r6, #1
 2669              	.LVL372:
 2670              		.loc 1 744 0
 2671 0064 BC50     		str	r4, [r7, r2]
 2672              		.loc 1 751 0
 2673 0066 182E     		cmp	r6, #24
 2674              		.loc 1 747 0
 2675 0068 019A     		ldr	r2, [sp, #4]
 2676              		.loc 1 745 0
 2677 006a C3F804B0 		str	fp, [r3, #4]
 2678              		.loc 1 746 0
 2679 006e C3F808A0 		str	r10, [r3, #8]
ARM GAS  /var/folders/sv/kgmgr77579zbf78p2zlhkdfr0000gn/T//ccygG6jq.s 			page 48


 2680              		.loc 1 747 0
 2681 0072 DA60     		str	r2, [r3, #12]
 2682              		.loc 1 751 0
 2683 0074 05DD     		ble	.L212
 2684              		.loc 1 752 0
 2685 0076 0023     		movs	r3, #0
 2686 0078 C8F80030 		str	r3, [r8]
 2687              		.loc 1 755 0
 2688 007c 03B0     		add	sp, sp, #12
 2689              		.cfi_remember_state
 2690              		.cfi_def_cfa_offset 36
 2691              		@ sp needed
 2692 007e BDE8F08F 		pop	{r4, r5, r6, r7, r8, r9, r10, fp, pc}
 2693              	.LVL373:
 2694              	.L212:
 2695              		.cfi_restore_state
 2696              		.loc 1 750 0
 2697 0082 C8F80060 		str	r6, [r8]
 2698              		.loc 1 755 0
 2699 0086 03B0     		add	sp, sp, #12
 2700              		.cfi_remember_state
 2701              		.cfi_def_cfa_offset 36
 2702              		@ sp needed
 2703 0088 BDE8F08F 		pop	{r4, r5, r6, r7, r8, r9, r10, fp, pc}
 2704              	.LVL374:
 2705              	.L204:
 2706              		.cfi_restore_state
 2707              	.LBB125:
 2708              		.loc 1 730 0
 2709 008c 4FF00009 		mov	r9, #0
 2710 0090 D8E7     		b	.L199
 2711              	.L214:
 2712 0092 00BF     		.align	2
 2713              	.L213:
 2714 0094 00000000 		.word	.LANCHOR6
 2715 0098 00000000 		.word	.LANCHOR5
 2716              	.LBE125:
 2717              		.cfi_endproc
 2718              	.LFE259:
 2719              		.size	terminal_register_command_callback, .-terminal_register_command_callback
 2720              		.section	.rodata.states.11547,"a",%progbits
 2721              		.align	2
 2722              		.set	.LANCHOR2,. + 0
 2723              		.type	states.11547, %object
 2724              		.size	states.11547, 64
 2725              	states.11547:
 2726 0000 70110000 		.word	.LC162
 2727 0004 78110000 		.word	.LC163
 2728 0008 80110000 		.word	.LC164
 2729 000c 88110000 		.word	.LC165
 2730 0010 94110000 		.word	.LC166
 2731 0014 9C110000 		.word	.LC167
 2732 0018 A4110000 		.word	.LC168
 2733 001c AC110000 		.word	.LC169
 2734 0020 B4110000 		.word	.LC170
 2735 0024 C0110000 		.word	.LC171
 2736 0028 C8110000 		.word	.LC172
ARM GAS  /var/folders/sv/kgmgr77579zbf78p2zlhkdfr0000gn/T//ccygG6jq.s 			page 49


 2737 002c D0110000 		.word	.LC173
 2738 0030 DC110000 		.word	.LC174
 2739 0034 E4110000 		.word	.LC175
 2740 0038 EC110000 		.word	.LC176
 2741 003c F4110000 		.word	.LC177
 2742              		.section	.bss.fault_vec_write,"aw",%nobits
 2743              		.align	2
 2744              		.set	.LANCHOR3,. + 0
 2745              		.type	fault_vec_write, %object
 2746              		.size	fault_vec_write, 4
 2747              	fault_vec_write:
 2748 0000 00000000 		.space	4
 2749              		.section	.rodata.str1.4,"aMS",%progbits,1
 2750              		.align	2
 2751              	.LC0:
 2752 0000 74727565 		.ascii	"true\000"
 2752      00
 2753 0005 000000   		.space	3
 2754              	.LC1:
 2755 0008 66616C73 		.ascii	"false\000"
 2755      6500
 2756 000e 0000     		.space	2
 2757              	.LC2:
 2758 0010 59657300 		.ascii	"Yes\000"
 2759              	.LC3:
 2760 0014 4E6F00   		.ascii	"No\000"
 2761 0017 00       		.space	1
 2762              	.LC4:
 2763 0018 2000     		.ascii	" \000"
 2764 001a 0000     		.space	2
 2765              	.LC5:
 2766 001c 4E6F2063 		.ascii	"No command received\012\000"
 2766      6F6D6D61 
 2766      6E642072 
 2766      65636569 
 2766      7665640A 
 2767 0031 000000   		.space	3
 2768              	.LC6:
 2769 0034 70696E67 		.ascii	"ping\000"
 2769      00
 2770 0039 000000   		.space	3
 2771              	.LC7:
 2772 003c 706F6E67 		.ascii	"pong\012\000"
 2772      0A00
 2773 0042 0000     		.space	2
 2774              	.LC8:
 2775 0044 73746F70 		.ascii	"stop\000"
 2775      00
 2776 0049 000000   		.space	3
 2777              	.LC9:
 2778 004c 4D6F746F 		.ascii	"Motor stopped\012\000"
 2778      72207374 
 2778      6F707065 
 2778      640A00
 2779 005b 00       		.space	1
 2780              	.LC10:
 2781 005c 6C617374 		.ascii	"last_adc_duration\000"
ARM GAS  /var/folders/sv/kgmgr77579zbf78p2zlhkdfr0000gn/T//ccygG6jq.s 			page 50


 2781      5F616463 
 2781      5F647572 
 2781      6174696F 
 2781      6E00
 2782 006e 0000     		.space	2
 2783              	.LC11:
 2784 0070 4C617465 		.ascii	"Latest ADC duration: %.4f ms\000"
 2784      73742041 
 2784      44432064 
 2784      75726174 
 2784      696F6E3A 
 2785 008d 000000   		.space	3
 2786              	.LC12:
 2787 0090 4C617465 		.ascii	"Latest injected ADC duration: %.4f ms\000"
 2787      73742069 
 2787      6E6A6563 
 2787      74656420 
 2787      41444320 
 2788 00b6 0000     		.space	2
 2789              	.LC13:
 2790 00b8 4C617465 		.ascii	"Latest sample ADC duration: %.4f ms\012\000"
 2790      73742073 
 2790      616D706C 
 2790      65204144 
 2790      43206475 
 2791 00dd 000000   		.space	3
 2792              	.LC14:
 2793 00e0 6B7600   		.ascii	"kv\000"
 2794 00e3 00       		.space	1
 2795              	.LC15:
 2796 00e4 43616C63 		.ascii	"Calculated KV: %.2f rpm/volt\012\000"
 2796      756C6174 
 2796      6564204B 
 2796      563A2025 
 2796      2E326620 
 2797 0102 0000     		.space	2
 2798              	.LC16:
 2799 0104 6D656D00 		.ascii	"mem\000"
 2800              	.LC17:
 2801 0108 636F7265 		.ascii	"core free memory : %u bytes\000"
 2801      20667265 
 2801      65206D65 
 2801      6D6F7279 
 2801      203A2025 
 2802              	.LC18:
 2803 0124 68656170 		.ascii	"heap fragments   : %u\000"
 2803      20667261 
 2803      676D656E 
 2803      74732020 
 2803      203A2025 
 2804 013a 0000     		.space	2
 2805              	.LC19:
 2806 013c 68656170 		.ascii	"heap free total  : %u bytes\012\000"
 2806      20667265 
 2806      6520746F 
 2806      74616C20 
 2806      203A2025 
ARM GAS  /var/folders/sv/kgmgr77579zbf78p2zlhkdfr0000gn/T//ccygG6jq.s 			page 51


 2807 0159 000000   		.space	3
 2808              	.LC20:
 2809 015c 74687265 		.ascii	"threads\000"
 2809      61647300 
 2810              	.LC21:
 2811 0164 20202020 		.ascii	"    addr    stack prio refs     state           nam"
 2811      61646472 
 2811      20202020 
 2811      73746163 
 2811      6B207072 
 2812 0197 65207469 		.ascii	"e time    \000"
 2812      6D652020 
 2812      202000
 2813 01a2 0000     		.space	2
 2814              	.LC22:
 2815 01a4 2D2D2D2D 		.ascii	"---------------------------------------------------"
 2815      2D2D2D2D 
 2815      2D2D2D2D 
 2815      2D2D2D2D 
 2815      2D2D2D2D 
 2816 01d7 2D2D2D2D 		.ascii	"----------\000"
 2816      2D2D2D2D 
 2816      2D2D00
 2817 01e2 0000     		.space	2
 2818              	.LC23:
 2819 01e4 252E386C 		.ascii	"%.8lx %.8lx %4lu %4lu %9s %14s %lu\000"
 2819      7820252E 
 2819      386C7820 
 2819      25346C75 
 2819      2025346C 
 2820 0207 00       		.space	1
 2821              	.LC24:
 2822 0208 00       		.ascii	"\000"
 2823 0209 000000   		.space	3
 2824              	.LC25:
 2825 020c 6661756C 		.ascii	"fault\000"
 2825      7400
 2826 0212 0000     		.space	2
 2827              	.LC26:
 2828 0214 25730A00 		.ascii	"%s\012\000"
 2829              	.LC27:
 2830 0218 6661756C 		.ascii	"faults\000"
 2830      747300
 2831 021f 00       		.space	1
 2832              	.LC28:
 2833 0220 4E6F2066 		.ascii	"No faults registered since startup\012\000"
 2833      61756C74 
 2833      73207265 
 2833      67697374 
 2833      65726564 
 2834              	.LC29:
 2835 0244 54686520 		.ascii	"The following faults were registered since start:\012"
 2835      666F6C6C 
 2835      6F77696E 
 2835      67206661 
 2835      756C7473 
 2836 0276 00       		.ascii	"\000"
ARM GAS  /var/folders/sv/kgmgr77579zbf78p2zlhkdfr0000gn/T//ccygG6jq.s 			page 52


 2837 0277 00       		.space	1
 2838              	.LC30:
 2839 0278 4661756C 		.ascii	"Fault            : %s\000"
 2839      74202020 
 2839      20202020 
 2839      20202020 
 2839      203A2025 
 2840 028e 0000     		.space	2
 2841              	.LC31:
 2842 0290 43757272 		.ascii	"Current          : %.1f\000"
 2842      656E7420 
 2842      20202020 
 2842      20202020 
 2842      203A2025 
 2843              	.LC32:
 2844 02a8 43757272 		.ascii	"Current filtered : %.1f\000"
 2844      656E7420 
 2844      66696C74 
 2844      65726564 
 2844      203A2025 
 2845              	.LC33:
 2846 02c0 566F6C74 		.ascii	"Voltage          : %.2f\000"
 2846      61676520 
 2846      20202020 
 2846      20202020 
 2846      203A2025 
 2847              	.LC34:
 2848 02d8 44757479 		.ascii	"Duty             : %.3f\000"
 2848      20202020 
 2848      20202020 
 2848      20202020 
 2848      203A2025 
 2849              	.LC35:
 2850 02f0 52504D20 		.ascii	"RPM              : %.1f\000"
 2850      20202020 
 2850      20202020 
 2850      20202020 
 2850      203A2025 
 2851              	.LC36:
 2852 0308 54616368 		.ascii	"Tacho            : %d\000"
 2852      6F202020 
 2852      20202020 
 2852      20202020 
 2852      203A2025 
 2853 031e 0000     		.space	2
 2854              	.LC37:
 2855 0320 4379636C 		.ascii	"Cycles running   : %d\000"
 2855      65732072 
 2855      756E6E69 
 2855      6E672020 
 2855      203A2025 
 2856 0336 0000     		.space	2
 2857              	.LC38:
 2858 0338 54494D20 		.ascii	"TIM duty         : %d\000"
 2858      64757479 
 2858      20202020 
 2858      20202020 
ARM GAS  /var/folders/sv/kgmgr77579zbf78p2zlhkdfr0000gn/T//ccygG6jq.s 			page 53


 2858      203A2025 
 2859 034e 0000     		.space	2
 2860              	.LC39:
 2861 0350 54494D20 		.ascii	"TIM val samp     : %d\000"
 2861      76616C20 
 2861      73616D70 
 2861      20202020 
 2861      203A2025 
 2862 0366 0000     		.space	2
 2863              	.LC40:
 2864 0368 54494D20 		.ascii	"TIM current samp : %d\000"
 2864      63757272 
 2864      656E7420 
 2864      73616D70 
 2864      203A2025 
 2865 037e 0000     		.space	2
 2866              	.LC41:
 2867 0380 54494D20 		.ascii	"TIM top          : %d\000"
 2867      746F7020 
 2867      20202020 
 2867      20202020 
 2867      203A2025 
 2868 0396 0000     		.space	2
 2869              	.LC42:
 2870 0398 436F6D6D 		.ascii	"Comm step        : %d\000"
 2870      20737465 
 2870      70202020 
 2870      20202020 
 2870      203A2025 
 2871 03ae 0000     		.space	2
 2872              	.LC43:
 2873 03b0 54656D70 		.ascii	"Temperature      : %.2f\000"
 2873      65726174 
 2873      75726520 
 2873      20202020 
 2873      203A2025 
 2874              	.LC44:
 2875 03c8 72706D00 		.ascii	"rpm\000"
 2876              	.LC45:
 2877 03cc 456C6563 		.ascii	"Electrical RPM: %.2f rpm\012\000"
 2877      74726963 
 2877      616C2052 
 2877      504D3A20 
 2877      252E3266 
 2878 03e6 0000     		.space	2
 2879              	.LC46:
 2880 03e8 74616368 		.ascii	"tacho\000"
 2880      6F00
 2881 03ee 0000     		.space	2
 2882              	.LC47:
 2883 03f0 54616368 		.ascii	"Tachometer counts: %i\012\000"
 2883      6F6D6574 
 2883      65722063 
 2883      6F756E74 
 2883      733A2025 
 2884 0407 00       		.space	1
 2885              	.LC48:
ARM GAS  /var/folders/sv/kgmgr77579zbf78p2zlhkdfr0000gn/T//ccygG6jq.s 			page 54


 2886 0408 74696D00 		.ascii	"tim\000"
 2887              	.LC49:
 2888 040c 54696D31 		.ascii	"Tim1 CNT: %i\000"
 2888      20434E54 
 2888      3A202569 
 2888      00
 2889 0419 000000   		.space	3
 2890              	.LC50:
 2891 041c 54696D38 		.ascii	"Tim8 CNT: %u\000"
 2891      20434E54 
 2891      3A202575 
 2891      00
 2892 0429 000000   		.space	3
 2893              	.LC51:
 2894 042c 44757479 		.ascii	"Duty cycle1: %u\000"
 2894      20637963 
 2894      6C65313A 
 2894      20257500 
 2895              	.LC52:
 2896 043c 44757479 		.ascii	"Duty cycle2: %u\000"
 2896      20637963 
 2896      6C65323A 
 2896      20257500 
 2897              	.LC53:
 2898 044c 44757479 		.ascii	"Duty cycle3: %u\000"
 2898      20637963 
 2898      6C65333A 
 2898      20257500 
 2899              	.LC54:
 2900 045c 546F703A 		.ascii	"Top: %u\000"
 2900      20257500 
 2901              	.LC55:
 2902 0464 44697231 		.ascii	"Dir1: %u\000"
 2902      3A202575 
 2902      00
 2903 046d 000000   		.space	3
 2904              	.LC56:
 2905 0470 44697238 		.ascii	"Dir8: %u\000"
 2905      3A202575 
 2905      00
 2906 0479 000000   		.space	3
 2907              	.LC57:
 2908 047c 566F6C74 		.ascii	"Voltage sample: %u\000"
 2908      61676520 
 2908      73616D70 
 2908      6C653A20 
 2908      257500
 2909 048f 00       		.space	1
 2910              	.LC58:
 2911 0490 43757272 		.ascii	"Current 1 sample: %u\000"
 2911      656E7420 
 2911      31207361 
 2911      6D706C65 
 2911      3A202575 
 2912 04a5 000000   		.space	3
 2913              	.LC59:
 2914 04a8 43757272 		.ascii	"Current 2 sample: %u\012\000"
ARM GAS  /var/folders/sv/kgmgr77579zbf78p2zlhkdfr0000gn/T//ccygG6jq.s 			page 55


 2914      656E7420 
 2914      32207361 
 2914      6D706C65 
 2914      3A202575 
 2915 04be 0000     		.space	2
 2916              	.LC60:
 2917 04c0 766F6C74 		.ascii	"volt\000"
 2917      00
 2918 04c5 000000   		.space	3
 2919              	.LC61:
 2920 04c8 496E7075 		.ascii	"Input voltage: %.2f\012\000"
 2920      7420766F 
 2920      6C746167 
 2920      653A2025 
 2920      2E32660A 
 2921 04dd 000000   		.space	3
 2922              	.LC62:
 2923 04e0 70617261 		.ascii	"param_detect\000"
 2923      6D5F6465 
 2923      74656374 
 2923      00
 2924 04ed 000000   		.space	3
 2925              	.LC63:
 2926 04f0 256600   		.ascii	"%f\000"
 2927 04f3 00       		.space	1
 2928              	.LC64:
 2929 04f4 4379636C 		.ascii	"Cycle integrator limit: %.2f\000"
 2929      6520696E 
 2929      74656772 
 2929      61746F72 
 2929      206C696D 
 2930 0511 000000   		.space	3
 2931              	.LC65:
 2932 0514 436F7570 		.ascii	"Coupling factor: %.2f\000"
 2932      6C696E67 
 2932      20666163 
 2932      746F723A 
 2932      20252E32 
 2933 052a 0000     		.space	2
 2934              	.LC66:
 2935 052c 44657465 		.ascii	"Detected hall sensor table:\000"
 2935      63746564 
 2935      2068616C 
 2935      6C207365 
 2935      6E736F72 
 2936              	.LC67:
 2937 0548 25692C20 		.ascii	"%i, %i, %i, %i, %i, %i, %i, %i\012\000"
 2937      25692C20 
 2937      25692C20 
 2937      25692C20 
 2937      25692C20 
 2938              	.LC68:
 2939 0568 48616C6C 		.ascii	"Hall sensor detection failed:\000"
 2939      2073656E 
 2939      736F7220 
 2939      64657465 
 2939      6374696F 
ARM GAS  /var/folders/sv/kgmgr77579zbf78p2zlhkdfr0000gn/T//ccygG6jq.s 			page 56


 2940 0586 0000     		.space	2
 2941              	.LC69:
 2942 0588 57533238 		.ascii	"WS2811 enabled. Hall sensors cannot be used.\012\000"
 2942      31312065 
 2942      6E61626C 
 2942      65642E20 
 2942      48616C6C 
 2943 05b6 0000     		.space	2
 2944              	.LC70:
 2945 05b8 456E636F 		.ascii	"Encoder enabled. Hall sensors cannot be used.\012\000"
 2945      64657220 
 2945      656E6162 
 2945      6C65642E 
 2945      2048616C 
 2946 05e7 00       		.space	1
 2947              	.LC71:
 2948 05e8 44657465 		.ascii	"Detection failed. Try again with different paramete"
 2948      6374696F 
 2948      6E206661 
 2948      696C6564 
 2948      2E205472 
 2949 061b 72732E0A 		.ascii	"rs.\012\000"
 2949      00
 2950              	.LC72:
 2951 0620 496E7661 		.ascii	"Invalid argument(s).\012\000"
 2951      6C696420 
 2951      61726775 
 2951      6D656E74 
 2951      2873292E 
 2952 0636 0000     		.space	2
 2953              	.LC73:
 2954 0638 54686973 		.ascii	"This command requires three arguments.\012\000"
 2954      20636F6D 
 2954      6D616E64 
 2954      20726571 
 2954      75697265 
 2955              	.LC74:
 2956 0660 72706D5F 		.ascii	"rpm_dep\000"
 2956      64657000 
 2957              	.LC75:
 2958 0668 4379636C 		.ascii	"Cycle int limit: %.2f\000"
 2958      6520696E 
 2958      74206C69 
 2958      6D69743A 
 2958      20252E32 
 2959 067e 0000     		.space	2
 2960              	.LC76:
 2961 0680 4379636C 		.ascii	"Cycle int limit running: %.2f\000"
 2961      6520696E 
 2961      74206C69 
 2961      6D697420 
 2961      72756E6E 
 2962 069e 0000     		.space	2
 2963              	.LC77:
 2964 06a0 4379636C 		.ascii	"Cycle int limit max: %.2f\012\000"
 2964      6520696E 
 2964      74206C69 
ARM GAS  /var/folders/sv/kgmgr77579zbf78p2zlhkdfr0000gn/T//ccygG6jq.s 			page 57


 2964      6D697420 
 2964      6D61783A 
 2965 06bb 00       		.space	1
 2966              	.LC78:
 2967 06bc 63616E5F 		.ascii	"can_devs\000"
 2967      64657673 
 2967      00
 2968 06c5 000000   		.space	3
 2969              	.LC79:
 2970 06c8 43414E20 		.ascii	"CAN devices seen on the bus the past second:\012\000"
 2970      64657669 
 2970      63657320 
 2970      7365656E 
 2970      206F6E20 
 2971 06f6 0000     		.space	2
 2972              	.LC80:
 2973 06f8 49442020 		.ascii	"ID                 : %i\000"
 2973      20202020 
 2973      20202020 
 2973      20202020 
 2973      2020203A 
 2974              	.LC81:
 2975 0710 52582054 		.ascii	"RX Time            : %i\000"
 2975      696D6520 
 2975      20202020 
 2975      20202020 
 2975      2020203A 
 2976              	.LC82:
 2977 0728 41676520 		.ascii	"Age (milliseconds) : %.2f\000"
 2977      286D696C 
 2977      6C697365 
 2977      636F6E64 
 2977      7329203A 
 2978 0742 0000     		.space	2
 2979              	.LC83:
 2980 0744 52504D20 		.ascii	"RPM                : %.2f\000"
 2980      20202020 
 2980      20202020 
 2980      20202020 
 2980      2020203A 
 2981 075e 0000     		.space	2
 2982              	.LC84:
 2983 0760 43757272 		.ascii	"Current            : %.2f\000"
 2983      656E7420 
 2983      20202020 
 2983      20202020 
 2983      2020203A 
 2984 077a 0000     		.space	2
 2985              	.LC85:
 2986 077c 44757479 		.ascii	"Duty               : %.2f\012\000"
 2986      20202020 
 2986      20202020 
 2986      20202020 
 2986      2020203A 
 2987 0797 00       		.space	1
 2988              	.LC86:
 2989 0798 666F635F 		.ascii	"foc_encoder_detect\000"
ARM GAS  /var/folders/sv/kgmgr77579zbf78p2zlhkdfr0000gn/T//ccygG6jq.s 			page 58


 2989      656E636F 
 2989      6465725F 
 2989      64657465 
 2989      637400
 2990 07ab 00       		.space	1
 2991              	.LC87:
 2992 07ac 4F666673 		.ascii	"Offset   : %.2f\000"
 2992      65742020 
 2992      203A2025 
 2992      2E326600 
 2993              	.LC88:
 2994 07bc 52617469 		.ascii	"Ratio    : %.2f\000"
 2994      6F202020 
 2994      203A2025 
 2994      2E326600 
 2995              	.LC89:
 2996 07cc 496E7665 		.ascii	"Inverted : %s\012\000"
 2996      72746564 
 2996      203A2025 
 2996      730A00
 2997 07db 00       		.space	1
 2998              	.LC90:
 2999 07dc 456E636F 		.ascii	"Encoder not enabled.\012\000"
 2999      64657220 
 2999      6E6F7420 
 2999      656E6162 
 2999      6C65642E 
 3000 07f2 0000     		.space	2
 3001              	.LC91:
 3002 07f4 54686973 		.ascii	"This command requires one argument.\012\000"
 3002      20636F6D 
 3002      6D616E64 
 3002      20726571 
 3002      75697265 
 3003 0819 000000   		.space	3
 3004              	.LC92:
 3005 081c 6D656173 		.ascii	"measure_res\000"
 3005      7572655F 
 3005      72657300 
 3006              	.LC93:
 3007 0828 52657369 		.ascii	"Resistance: %.6f ohm\012\000"
 3007      7374616E 
 3007      63653A20 
 3007      252E3666 
 3007      206F686D 
 3008 083e 0000     		.space	2
 3009              	.LC94:
 3010 0840 6D656173 		.ascii	"measure_ind\000"
 3010      7572655F 
 3010      696E6400 
 3011              	.LC95:
 3012 084c 496E6475 		.ascii	"Inductance: %.2f microhenry (%.2f A)\012\000"
 3012      6374616E 
 3012      63653A20 
 3012      252E3266 
 3012      206D6963 
 3013 0872 0000     		.space	2
ARM GAS  /var/folders/sv/kgmgr77579zbf78p2zlhkdfr0000gn/T//ccygG6jq.s 			page 59


 3014              	.LC96:
 3015 0874 6D656173 		.ascii	"measure_linkage\000"
 3015      7572655F 
 3015      6C696E6B 
 3015      61676500 
 3016              	.LC97:
 3017 0884 466C7578 		.ascii	"Flux linkage: %.7f\012\000"
 3017      206C696E 
 3017      6B616765 
 3017      3A20252E 
 3017      37660A00 
 3018              	.LC98:
 3019 0898 6D656173 		.ascii	"measure_res_ind\000"
 3019      7572655F 
 3019      7265735F 
 3019      696E6400 
 3020              	.LC99:
 3021 08a8 52657369 		.ascii	"Resistance: %.6f ohm\000"
 3021      7374616E 
 3021      63653A20 
 3021      252E3666 
 3021      206F686D 
 3022 08bd 000000   		.space	3
 3023              	.LC100:
 3024 08c0 496E6475 		.ascii	"Inductance: %.2f microhenry\012\000"
 3024      6374616E 
 3024      63653A20 
 3024      252E3266 
 3024      206D6963 
 3025 08dd 000000   		.space	3
 3026              	.LC101:
 3027 08e0 6D656173 		.ascii	"measure_linkage_foc\000"
 3027      7572655F 
 3027      6C696E6B 
 3027      6167655F 
 3027      666F6300 
 3028              	.LC102:
 3029 08f4 666F635F 		.ascii	"foc_state\000"
 3029      73746174 
 3029      6500
 3030 08fe 0000     		.space	2
 3031              	.LC103:
 3032 0900 68775F73 		.ascii	"hw_status\000"
 3032      74617475 
 3032      7300
 3033 090a 0000     		.space	2
 3034              	.LC104:
 3035 090c 4669726D 		.ascii	"Firmware: %d.%d\000"
 3035      77617265 
 3035      3A202564 
 3035      2E256400 
 3036              	.LC105:
 3037 091c 34313000 		.ascii	"410\000"
 3038              	.LC106:
 3039 0920 48617264 		.ascii	"Hardware: %s\000"
 3039      77617265 
 3039      3A202573 
ARM GAS  /var/folders/sv/kgmgr77579zbf78p2zlhkdfr0000gn/T//ccygG6jq.s 			page 60


 3039      00
 3040 092d 000000   		.space	3
 3041              	.LC107:
 3042 0930 55554944 		.ascii	"UUID: %02X %02X %02X %02X %02X %02X %02X %02X %02X "
 3042      3A202530 
 3042      32582025 
 3042      30325820 
 3042      25303258 
 3043 0963 25303258 		.ascii	"%02X %02X %02X\000"
 3043      20253032 
 3043      58202530 
 3043      325800
 3044 0972 0000     		.space	2
 3045              	.LC108:
 3046 0974 5065726D 		.ascii	"Permanent NRF found: %s\000"
 3046      616E656E 
 3046      74204E52 
 3046      4620666F 
 3046      756E643A 
 3047              	.LC109:
 3048 098c 64727638 		.ascii	"drv8301_read_reg\000"
 3048      3330315F 
 3048      72656164 
 3048      5F726567 
 3048      00
 3049 099d 000000   		.space	3
 3050              	.LC110:
 3051 09a0 54686973 		.ascii	"This hardware does not have a DRV8301.\012\000"
 3051      20686172 
 3051      64776172 
 3051      6520646F 
 3051      6573206E 
 3052              	.LC111:
 3053 09c8 64727638 		.ascii	"drv8301_write_reg\000"
 3053      3330315F 
 3053      77726974 
 3053      655F7265 
 3053      6700
 3054 09da 0000     		.space	2
 3055              	.LC112:
 3056 09dc 64727638 		.ascii	"drv8301_set_oc_adj\000"
 3056      3330315F 
 3056      7365745F 
 3056      6F635F61 
 3056      646A00
 3057 09ef 00       		.space	1
 3058              	.LC113:
 3059 09f0 64727638 		.ascii	"drv8301_print_faults\000"
 3059      3330315F 
 3059      7072696E 
 3059      745F6661 
 3059      756C7473 
 3060 0a05 000000   		.space	3
 3061              	.LC114:
 3062 0a08 64727638 		.ascii	"drv8301_reset_faults\000"
 3062      3330315F 
 3062      72657365 
ARM GAS  /var/folders/sv/kgmgr77579zbf78p2zlhkdfr0000gn/T//ccygG6jq.s 			page 61


 3062      745F6661 
 3062      756C7473 
 3063 0a1d 000000   		.space	3
 3064              	.LC115:
 3065 0a20 64727638 		.ascii	"drv8305_read_reg\000"
 3065      3330355F 
 3065      72656164 
 3065      5F726567 
 3065      00
 3066 0a31 000000   		.space	3
 3067              	.LC116:
 3068 0a34 54686973 		.ascii	"This hardware does not have a DRV8305.\012\000"
 3068      20686172 
 3068      64776172 
 3068      6520646F 
 3068      6573206E 
 3069              	.LC117:
 3070 0a5c 64727638 		.ascii	"drv8305_write_reg\000"
 3070      3330355F 
 3070      77726974 
 3070      655F7265 
 3070      6700
 3071 0a6e 0000     		.space	2
 3072              	.LC118:
 3073 0a70 666F635F 		.ascii	"foc_openloop\000"
 3073      6F70656E 
 3073      6C6F6F70 
 3073      00
 3074 0a7d 000000   		.space	3
 3075              	.LC119:
 3076 0a80 54686973 		.ascii	"This command requires two arguments.\012\000"
 3076      20636F6D 
 3076      6D616E64 
 3076      20726571 
 3076      75697265 
 3077 0aa6 0000     		.space	2
 3078              	.LC120:
 3079 0aa8 68656C70 		.ascii	"help\000"
 3079      00
 3080 0aad 000000   		.space	3
 3081              	.LC121:
 3082 0ab0 56616C69 		.ascii	"Valid commands are:\000"
 3082      6420636F 
 3082      6D6D616E 
 3082      64732061 
 3082      72653A00 
 3083              	.LC122:
 3084 0ac4 20205368 		.ascii	"  Show this help\000"
 3084      6F772074 
 3084      68697320 
 3084      68656C70 
 3084      00
 3085 0ad5 000000   		.space	3
 3086              	.LC123:
 3087 0ad8 20205072 		.ascii	"  Print pong here to see if the reply works\000"
 3087      696E7420 
 3087      706F6E67 
ARM GAS  /var/folders/sv/kgmgr77579zbf78p2zlhkdfr0000gn/T//ccygG6jq.s 			page 62


 3087      20686572 
 3087      6520746F 
 3088              	.LC124:
 3089 0b04 20205374 		.ascii	"  Stop the motor\000"
 3089      6F702074 
 3089      6865206D 
 3089      6F746F72 
 3089      00
 3090 0b15 000000   		.space	3
 3091              	.LC125:
 3092 0b18 20205468 		.ascii	"  The time the latest ADC interrupt consumed\000"
 3092      65207469 
 3092      6D652074 
 3092      6865206C 
 3092      61746573 
 3093 0b45 000000   		.space	3
 3094              	.LC126:
 3095 0b48 20205468 		.ascii	"  The calculated kv of the motor\000"
 3095      65206361 
 3095      6C63756C 
 3095      61746564 
 3095      206B7620 
 3096 0b69 000000   		.space	3
 3097              	.LC127:
 3098 0b6c 20205368 		.ascii	"  Show memory usage\000"
 3098      6F77206D 
 3098      656D6F72 
 3098      79207573 
 3098      61676500 
 3099              	.LC128:
 3100 0b80 20204C69 		.ascii	"  List all threads\000"
 3100      73742061 
 3100      6C6C2074 
 3100      68726561 
 3100      647300
 3101 0b93 00       		.space	1
 3102              	.LC129:
 3103 0b94 20205072 		.ascii	"  Prints the current fault code\000"
 3103      696E7473 
 3103      20746865 
 3103      20637572 
 3103      72656E74 
 3104              	.LC130:
 3105 0bb4 20205072 		.ascii	"  Prints all stored fault codes and conditions when"
 3105      696E7473 
 3105      20616C6C 
 3105      2073746F 
 3105      72656420 
 3106 0be7 20746865 		.ascii	" they arrived\000"
 3106      79206172 
 3106      72697665 
 3106      6400
 3107 0bf5 000000   		.space	3
 3108              	.LC131:
 3109 0bf8 20205072 		.ascii	"  Prints the current electrical RPM\000"
 3109      696E7473 
 3109      20746865 
ARM GAS  /var/folders/sv/kgmgr77579zbf78p2zlhkdfr0000gn/T//ccygG6jq.s 			page 63


 3109      20637572 
 3109      72656E74 
 3110              	.LC132:
 3111 0c1c 20205072 		.ascii	"  Prints tachometer value\000"
 3111      696E7473 
 3111      20746163 
 3111      686F6D65 
 3111      74657220 
 3112 0c36 0000     		.space	2
 3113              	.LC133:
 3114 0c38 20205072 		.ascii	"  Prints tim1 and tim8 settings\000"
 3114      696E7473 
 3114      2074696D 
 3114      3120616E 
 3114      64207469 
 3115              	.LC134:
 3116 0c58 20205072 		.ascii	"  Prints different voltages\000"
 3116      696E7473 
 3116      20646966 
 3116      66657265 
 3116      6E742076 
 3117              	.LC135:
 3118 0c74 70617261 		.ascii	"param_detect [current] [min_rpm] [low_duty]\000"
 3118      6D5F6465 
 3118      74656374 
 3118      205B6375 
 3118      7272656E 
 3119              	.LC136:
 3120 0ca0 20205370 		.ascii	"  Spin up the motor in COMM_MODE_DELAY and compute "
 3120      696E2075 
 3120      70207468 
 3120      65206D6F 
 3120      746F7220 
 3121 0cd3 69747320 		.ascii	"its parameters.\000"
 3121      70617261 
 3121      6D657465 
 3121      72732E00 
 3122 0ce3 00       		.space	1
 3123              	.LC137:
 3124 0ce4 20205468 		.ascii	"  This test should be performed without load on the"
 3124      69732074 
 3124      65737420 
 3124      73686F75 
 3124      6C642062 
 3125 0d17 206D6F74 		.ascii	" motor.\000"
 3125      6F722E00 
 3126 0d1f 00       		.space	1
 3127              	.LC138:
 3128 0d20 20204578 		.ascii	"  Example: param_detect 5.0 600 0.06\000"
 3128      616D706C 
 3128      653A2070 
 3128      6172616D 
 3128      5F646574 
 3129 0d45 000000   		.space	3
 3130              	.LC139:
 3131 0d48 20205072 		.ascii	"  Prints some rpm-dep values\000"
 3131      696E7473 
ARM GAS  /var/folders/sv/kgmgr77579zbf78p2zlhkdfr0000gn/T//ccygG6jq.s 			page 64


 3131      20736F6D 
 3131      65207270 
 3131      6D2D6465 
 3132 0d65 000000   		.space	3
 3133              	.LC140:
 3134 0d68 20205072 		.ascii	"  Prints all CAN devices seen on the bus the past s"
 3134      696E7473 
 3134      20616C6C 
 3134      2043414E 
 3134      20646576 
 3135 0d9b 65636F6E 		.ascii	"econd\000"
 3135      6400
 3136 0da1 000000   		.space	3
 3137              	.LC141:
 3138 0da4 666F635F 		.ascii	"foc_encoder_detect [current]\000"
 3138      656E636F 
 3138      6465725F 
 3138      64657465 
 3138      6374205B 
 3139 0dc1 000000   		.space	3
 3140              	.LC142:
 3141 0dc4 20205275 		.ascii	"  Run the motor at 1Hz on open loop and compute enc"
 3141      6E207468 
 3141      65206D6F 
 3141      746F7220 
 3141      61742031 
 3142 0df7 6F646572 		.ascii	"oder settings\000"
 3142      20736574 
 3142      74696E67 
 3142      7300
 3143 0e05 000000   		.space	3
 3144              	.LC143:
 3145 0e08 6D656173 		.ascii	"measure_res [current]\000"
 3145      7572655F 
 3145      72657320 
 3145      5B637572 
 3145      72656E74 
 3146 0e1e 0000     		.space	2
 3147              	.LC144:
 3148 0e20 20204C6F 		.ascii	"  Lock the motor with a current and calculate its r"
 3148      636B2074 
 3148      6865206D 
 3148      6F746F72 
 3148      20776974 
 3149 0e53 65736973 		.ascii	"esistance\000"
 3149      74616E63 
 3149      6500
 3150 0e5d 000000   		.space	3
 3151              	.LC145:
 3152 0e60 6D656173 		.ascii	"measure_ind [duty]\000"
 3152      7572655F 
 3152      696E6420 
 3152      5B647574 
 3152      795D00
 3153 0e73 00       		.space	1
 3154              	.LC146:
 3155 0e74 20205365 		.ascii	"  Send short voltage pulses, measure the current an"
ARM GAS  /var/folders/sv/kgmgr77579zbf78p2zlhkdfr0000gn/T//ccygG6jq.s 			page 65


 3155      6E642073 
 3155      686F7274 
 3155      20766F6C 
 3155      74616765 
 3156 0ea7 64206361 		.ascii	"d calculate the motor inductance\000"
 3156      6C63756C 
 3156      61746520 
 3156      74686520 
 3156      6D6F746F 
 3157              	.LC147:
 3158 0ec8 6D656173 		.ascii	"measure_linkage [current] [duty] [min_rpm] [motor_r"
 3158      7572655F 
 3158      6C696E6B 
 3158      61676520 
 3158      5B637572 
 3159 0efb 65735D00 		.ascii	"es]\000"
 3160 0eff 00       		.space	1
 3161              	.LC148:
 3162 0f00 20205275 		.ascii	"  Run the motor in BLDC delay mode and measure the "
 3162      6E207468 
 3162      65206D6F 
 3162      746F7220 
 3162      696E2042 
 3163 0f33 666C7578 		.ascii	"flux linkage\000"
 3163      206C696E 
 3163      6B616765 
 3163      00
 3164              	.LC149:
 3165 0f40 20206578 		.ascii	"  example measure_linkage 5 0.5 700 0.076\000"
 3165      616D706C 
 3165      65206D65 
 3165      61737572 
 3165      655F6C69 
 3166 0f6a 0000     		.space	2
 3167              	.LC150:
 3168 0f6c 20207469 		.ascii	"  tip: measure the resistance with measure_res firs"
 3168      703A206D 
 3168      65617375 
 3168      72652074 
 3168      68652072 
 3169 0f9f 7400     		.ascii	"t\000"
 3170 0fa1 000000   		.space	3
 3171              	.LC151:
 3172 0fa4 20204D65 		.ascii	"  Measure the motor resistance and inductance with "
 3172      61737572 
 3172      65207468 
 3172      65206D6F 
 3172      746F7220 
 3173 0fd7 616E2069 		.ascii	"an incremental adaptive algorithm.\000"
 3173      6E637265 
 3173      6D656E74 
 3173      616C2061 
 3173      64617074 
 3174 0ffa 0000     		.space	2
 3175              	.LC152:
 3176 0ffc 6D656173 		.ascii	"measure_linkage_foc [duty]\000"
 3176      7572655F 
ARM GAS  /var/folders/sv/kgmgr77579zbf78p2zlhkdfr0000gn/T//ccygG6jq.s 			page 66


 3176      6C696E6B 
 3176      6167655F 
 3176      666F6320 
 3177 1017 00       		.space	1
 3178              	.LC153:
 3179 1018 20205275 		.ascii	"  Run the motor with FOC and measure the flux linka"
 3179      6E207468 
 3179      65206D6F 
 3179      746F7220 
 3179      77697468 
 3180 104b 67652E00 		.ascii	"ge.\000"
 3181 104f 00       		.space	1
 3182              	.LC154:
 3183 1050 20205072 		.ascii	"  Print some FOC state variables.\000"
 3183      696E7420 
 3183      736F6D65 
 3183      20464F43 
 3183      20737461 
 3184 1072 0000     		.space	2
 3185              	.LC155:
 3186 1074 20205072 		.ascii	"  Print some hardware status information.\000"
 3186      696E7420 
 3186      736F6D65 
 3186      20686172 
 3186      64776172 
 3187 109e 0000     		.space	2
 3188              	.LC156:
 3189 10a0 666F635F 		.ascii	"foc_openloop [current] [erpm]\000"
 3189      6F70656E 
 3189      6C6F6F70 
 3189      205B6375 
 3189      7272656E 
 3190 10be 0000     		.space	2
 3191              	.LC157:
 3192 10c0 20204372 		.ascii	"  Create an open loop rotating current vector.\000"
 3192      65617465 
 3192      20616E20 
 3192      6F70656E 
 3192      206C6F6F 
 3193 10ef 00       		.space	1
 3194              	.LC158:
 3195 10f0 25732025 		.ascii	"%s %s\000"
 3195      7300
 3196 10f6 0000     		.space	2
 3197              	.LC159:
 3198 10f8 20202573 		.ascii	"  %s\000"
 3198      00
 3199 10fd 000000   		.space	3
 3200              	.LC160:
 3201 1100 20205468 		.ascii	"  There is no help available for this command.\000"
 3201      65726520 
 3201      6973206E 
 3201      6F206865 
 3201      6C702061 
 3202 112f 00       		.space	1
 3203              	.LC161:
 3204 1130 496E7661 		.ascii	"Invalid command: %s\012type help to list all availa"
ARM GAS  /var/folders/sv/kgmgr77579zbf78p2zlhkdfr0000gn/T//ccygG6jq.s 			page 67


 3204      6C696420 
 3204      636F6D6D 
 3204      616E643A 
 3204      2025730A 
 3205 1160 626C6520 		.ascii	"ble commands\012\000"
 3205      636F6D6D 
 3205      616E6473 
 3205      0A00
 3206 116e 0000     		.space	2
 3207              	.LC162:
 3208 1170 52454144 		.ascii	"READY\000"
 3208      5900
 3209 1176 0000     		.space	2
 3210              	.LC163:
 3211 1178 43555252 		.ascii	"CURRENT\000"
 3211      454E5400 
 3212              	.LC164:
 3213 1180 57545354 		.ascii	"WTSTART\000"
 3213      41525400 
 3214              	.LC165:
 3215 1188 53555350 		.ascii	"SUSPENDED\000"
 3215      454E4445 
 3215      4400
 3216 1192 0000     		.space	2
 3217              	.LC166:
 3218 1194 51554555 		.ascii	"QUEUED\000"
 3218      454400
 3219 119b 00       		.space	1
 3220              	.LC167:
 3221 119c 57545345 		.ascii	"WTSEM\000"
 3221      4D00
 3222 11a2 0000     		.space	2
 3223              	.LC168:
 3224 11a4 57544D54 		.ascii	"WTMTX\000"
 3224      5800
 3225 11aa 0000     		.space	2
 3226              	.LC169:
 3227 11ac 5754434F 		.ascii	"WTCOND\000"
 3227      4E4400
 3228 11b3 00       		.space	1
 3229              	.LC170:
 3230 11b4 534C4545 		.ascii	"SLEEPING\000"
 3230      50494E47 
 3230      00
 3231 11bd 000000   		.space	3
 3232              	.LC171:
 3233 11c0 57544558 		.ascii	"WTEXIT\000"
 3233      495400
 3234 11c7 00       		.space	1
 3235              	.LC172:
 3236 11c8 57544F52 		.ascii	"WTOREVT\000"
 3236      45565400 
 3237              	.LC173:
 3238 11d0 5754414E 		.ascii	"WTANDEVT\000"
 3238      44455654 
 3238      00
 3239 11d9 000000   		.space	3
ARM GAS  /var/folders/sv/kgmgr77579zbf78p2zlhkdfr0000gn/T//ccygG6jq.s 			page 68


 3240              	.LC174:
 3241 11dc 534E444D 		.ascii	"SNDMSGQ\000"
 3241      53475100 
 3242              	.LC175:
 3243 11e4 534E444D 		.ascii	"SNDMSG\000"
 3243      534700
 3244 11eb 00       		.space	1
 3245              	.LC176:
 3246 11ec 57544D53 		.ascii	"WTMSG\000"
 3246      4700
 3247 11f2 0000     		.space	2
 3248              	.LC177:
 3249 11f4 46494E41 		.ascii	"FINAL\000"
 3249      4C00
 3250              		.section	.bss.fault_vec,"aw",%nobits
 3251              		.align	2
 3252              		.set	.LANCHOR4,. + 0
 3253              		.type	fault_vec, %object
 3254              		.size	fault_vec, 1400
 3255              	fault_vec:
 3256 0000 00000000 		.space	1400
 3256      00000000 
 3256      00000000 
 3256      00000000 
 3256      00000000 
 3257              		.section	.bss.callbacks,"aw",%nobits
 3258              		.align	2
 3259              		.set	.LANCHOR6,. + 0
 3260              		.type	callbacks, %object
 3261              		.size	callbacks, 400
 3262              	callbacks:
 3263 0000 00000000 		.space	400
 3263      00000000 
 3263      00000000 
 3263      00000000 
 3263      00000000 
 3264              		.section	.bss.mcconf.11542,"aw",%nobits
 3265              		.align	2
 3266              		.set	.LANCHOR0,. + 0
 3267              		.type	mcconf.11542, %object
 3268              		.size	mcconf.11542, 372
 3269              	mcconf.11542:
 3270 0000 00000000 		.space	372
 3270      00000000 
 3270      00000000 
 3270      00000000 
 3270      00000000 
 3271              		.section	.bss.callback_write,"aw",%nobits
 3272              		.align	2
 3273              		.set	.LANCHOR5,. + 0
 3274              		.type	callback_write, %object
 3275              		.size	callback_write, 4
 3276              	callback_write:
 3277 0000 00000000 		.space	4
 3278              		.section	.bss.mcconf_old.11543,"aw",%nobits
 3279              		.align	2
 3280              		.set	.LANCHOR1,. + 0
ARM GAS  /var/folders/sv/kgmgr77579zbf78p2zlhkdfr0000gn/T//ccygG6jq.s 			page 69


 3281              		.type	mcconf_old.11543, %object
 3282              		.size	mcconf_old.11543, 372
 3283              	mcconf_old.11543:
 3284 0000 00000000 		.space	372
 3284      00000000 
 3284      00000000 
 3284      00000000 
 3284      00000000 
 3285              		.text
 3286              	.Letext0:
 3287              		.file 4 "/usr/local/Cellar/gcc-arm-none-eabi/20160928/lib/gcc/arm-none-eabi/5.4.1/include/stddef.h
 3288              		.file 5 "/usr/local/Cellar/gcc-arm-none-eabi/20160928/arm-none-eabi/include/machine/_default_types
 3289              		.file 6 "/usr/local/Cellar/gcc-arm-none-eabi/20160928/arm-none-eabi/include/sys/_stdint.h"
 3290              		.file 7 "ChibiOS_3.0.2/os/rt/ports/ARMCMx/compilers/GCC/chtypes.h"
 3291              		.file 8 "ChibiOS_3.0.2/os/rt/include/chsystypes.h"
 3292              		.file 9 "ChibiOS_3.0.2/os/rt/include/chschd.h"
 3293              		.file 10 "ChibiOS_3.0.2/os/ext/CMSIS/ST/stm32f407xx.h"
 3294              		.file 11 "ChibiOS_3.0.2/os/rt/ports/ARMCMx/chcore.h"
 3295              		.file 12 "ChibiOS_3.0.2/os/rt/ports/ARMCMx/chcore_v7m.h"
 3296              		.file 13 "ChibiOS_3.0.2/os/rt/include/chtm.h"
 3297              		.file 14 "ChibiOS_3.0.2/os/rt/include/chsem.h"
 3298              		.file 15 "ChibiOS_3.0.2/os/rt/include/chmtx.h"
 3299              		.file 16 "./datatypes.h"
 3300              		.file 17 "ChibiOS_3.0.2/os/rt/include/chsys.h"
 3301              		.file 18 "ChibiOS_3.0.2/os/ext/CMSIS/include/core_cm4.h"
 3302              		.file 19 "./conf_general.h"
 3303              		.file 20 "mc_interface.h"
 3304              		.file 21 "ChibiOS_3.0.2/os/rt/include/chheap.h"
 3305              		.file 22 "ChibiOS_3.0.2/os/rt/include/chmemcore.h"
 3306              		.file 23 "commands.h"
 3307              		.file 24 "ChibiOS_3.0.2/os/rt/include/chregistry.h"
 3308              		.file 25 "/usr/local/Cellar/gcc-arm-none-eabi/20160928/arm-none-eabi/include/stdio.h"
 3309              		.file 26 "mcpwm_foc.h"
 3310              		.file 27 "mcpwm.h"
 3311              		.file 28 "encoder.h"
 3312              		.file 29 "comm_can.h"
 3313              		.file 30 "ChibiOS_3.0.2/os/rt/include/chthreads.h"
 3314              		.file 31 "timeout.h"
 3315              		.file 32 "/usr/local/Cellar/gcc-arm-none-eabi/20160928/arm-none-eabi/include/string.h"
 3316              		.section	.debug_info,"",%progbits
 3317              	.Ldebug_info0:
 3318 0000 86300000 		.4byte	0x3086
 3319 0004 0400     		.2byte	0x4
 3320 0006 00000000 		.4byte	.Ldebug_abbrev0
 3321 000a 04       		.byte	0x4
 3322 000b 01       		.uleb128 0x1
 3323 000c A8070000 		.4byte	.LASF382
 3324 0010 0C       		.byte	0xc
 3325 0011 31160000 		.4byte	.LASF383
 3326 0015 05140000 		.4byte	.LASF384
 3327 0019 A0010000 		.4byte	.Ldebug_ranges0+0x1a0
 3328 001d 00000000 		.4byte	0
 3329 0021 00000000 		.4byte	.Ldebug_line0
 3330 0025 02       		.uleb128 0x2
 3331 0026 04       		.byte	0x4
 3332 0027 04       		.byte	0x4
 3333 0028 02050000 		.4byte	.LASF0
ARM GAS  /var/folders/sv/kgmgr77579zbf78p2zlhkdfr0000gn/T//ccygG6jq.s 			page 70


 3334 002c 03       		.uleb128 0x3
 3335 002d 04       		.byte	0x4
 3336 002e 05       		.byte	0x5
 3337 002f 696E7400 		.ascii	"int\000"
 3338 0033 04       		.uleb128 0x4
 3339 0034 230F0000 		.4byte	.LASF2
 3340 0038 04       		.byte	0x4
 3341 0039 D8       		.byte	0xd8
 3342 003a 3E000000 		.4byte	0x3e
 3343 003e 02       		.uleb128 0x2
 3344 003f 04       		.byte	0x4
 3345 0040 07       		.byte	0x7
 3346 0041 82010000 		.4byte	.LASF1
 3347 0045 04       		.uleb128 0x4
 3348 0046 6C0E0000 		.4byte	.LASF3
 3349 004a 05       		.byte	0x5
 3350 004b 1B       		.byte	0x1b
 3351 004c 50000000 		.4byte	0x50
 3352 0050 02       		.uleb128 0x2
 3353 0051 01       		.byte	0x1
 3354 0052 06       		.byte	0x6
 3355 0053 86140000 		.4byte	.LASF4
 3356 0057 04       		.uleb128 0x4
 3357 0058 AC100000 		.4byte	.LASF5
 3358 005c 05       		.byte	0x5
 3359 005d 1D       		.byte	0x1d
 3360 005e 62000000 		.4byte	0x62
 3361 0062 02       		.uleb128 0x2
 3362 0063 01       		.byte	0x1
 3363 0064 08       		.byte	0x8
 3364 0065 83120000 		.4byte	.LASF6
 3365 0069 02       		.uleb128 0x2
 3366 006a 02       		.byte	0x2
 3367 006b 05       		.byte	0x5
 3368 006c E2020000 		.4byte	.LASF7
 3369 0070 04       		.uleb128 0x4
 3370 0071 3C060000 		.4byte	.LASF8
 3371 0075 05       		.byte	0x5
 3372 0076 2B       		.byte	0x2b
 3373 0077 7B000000 		.4byte	0x7b
 3374 007b 02       		.uleb128 0x2
 3375 007c 02       		.byte	0x2
 3376 007d 07       		.byte	0x7
 3377 007e A2140000 		.4byte	.LASF9
 3378 0082 04       		.uleb128 0x4
 3379 0083 39020000 		.4byte	.LASF10
 3380 0087 05       		.byte	0x5
 3381 0088 3F       		.byte	0x3f
 3382 0089 8D000000 		.4byte	0x8d
 3383 008d 02       		.uleb128 0x2
 3384 008e 04       		.byte	0x4
 3385 008f 05       		.byte	0x5
 3386 0090 00000000 		.4byte	.LASF11
 3387 0094 04       		.uleb128 0x4
 3388 0095 BA120000 		.4byte	.LASF12
 3389 0099 05       		.byte	0x5
 3390 009a 41       		.byte	0x41
ARM GAS  /var/folders/sv/kgmgr77579zbf78p2zlhkdfr0000gn/T//ccygG6jq.s 			page 71


 3391 009b 9F000000 		.4byte	0x9f
 3392 009f 02       		.uleb128 0x2
 3393 00a0 04       		.byte	0x4
 3394 00a1 07       		.byte	0x7
 3395 00a2 AF110000 		.4byte	.LASF13
 3396 00a6 02       		.uleb128 0x2
 3397 00a7 08       		.byte	0x8
 3398 00a8 05       		.byte	0x5
 3399 00a9 9A070000 		.4byte	.LASF14
 3400 00ad 04       		.uleb128 0x4
 3401 00ae 09090000 		.4byte	.LASF15
 3402 00b2 05       		.byte	0x5
 3403 00b3 5B       		.byte	0x5b
 3404 00b4 B8000000 		.4byte	0xb8
 3405 00b8 02       		.uleb128 0x2
 3406 00b9 08       		.byte	0x8
 3407 00ba 07       		.byte	0x7
 3408 00bb 9C050000 		.4byte	.LASF16
 3409 00bf 04       		.uleb128 0x4
 3410 00c0 86040000 		.4byte	.LASF17
 3411 00c4 06       		.byte	0x6
 3412 00c5 14       		.byte	0x14
 3413 00c6 45000000 		.4byte	0x45
 3414 00ca 04       		.uleb128 0x4
 3415 00cb 850B0000 		.4byte	.LASF18
 3416 00cf 06       		.byte	0x6
 3417 00d0 18       		.byte	0x18
 3418 00d1 57000000 		.4byte	0x57
 3419 00d5 04       		.uleb128 0x4
 3420 00d6 CF0E0000 		.4byte	.LASF19
 3421 00da 06       		.byte	0x6
 3422 00db 24       		.byte	0x24
 3423 00dc 70000000 		.4byte	0x70
 3424 00e0 04       		.uleb128 0x4
 3425 00e1 E7110000 		.4byte	.LASF20
 3426 00e5 06       		.byte	0x6
 3427 00e6 2C       		.byte	0x2c
 3428 00e7 82000000 		.4byte	0x82
 3429 00eb 04       		.uleb128 0x4
 3430 00ec C1010000 		.4byte	.LASF21
 3431 00f0 06       		.byte	0x6
 3432 00f1 30       		.byte	0x30
 3433 00f2 94000000 		.4byte	0x94
 3434 00f6 04       		.uleb128 0x4
 3435 00f7 82100000 		.4byte	.LASF22
 3436 00fb 06       		.byte	0x6
 3437 00fc 3C       		.byte	0x3c
 3438 00fd AD000000 		.4byte	0xad
 3439 0101 05       		.uleb128 0x5
 3440 0102 D5000000 		.4byte	0xd5
 3441 0106 05       		.uleb128 0x5
 3442 0107 E0000000 		.4byte	0xe0
 3443 010b 05       		.uleb128 0x5
 3444 010c EB000000 		.4byte	0xeb
 3445 0110 04       		.uleb128 0x4
 3446 0111 2A0F0000 		.4byte	.LASF23
 3447 0115 07       		.byte	0x7
ARM GAS  /var/folders/sv/kgmgr77579zbf78p2zlhkdfr0000gn/T//ccygG6jq.s 			page 72


 3448 0116 45       		.byte	0x45
 3449 0117 EB000000 		.4byte	0xeb
 3450 011b 04       		.uleb128 0x4
 3451 011c 750E0000 		.4byte	.LASF24
 3452 0120 07       		.byte	0x7
 3453 0121 48       		.byte	0x48
 3454 0122 CA000000 		.4byte	0xca
 3455 0126 04       		.uleb128 0x4
 3456 0127 EC0A0000 		.4byte	.LASF25
 3457 012b 07       		.byte	0x7
 3458 012c 49       		.byte	0x49
 3459 012d CA000000 		.4byte	0xca
 3460 0131 04       		.uleb128 0x4
 3461 0132 9E110000 		.4byte	.LASF26
 3462 0136 07       		.byte	0x7
 3463 0137 4A       		.byte	0x4a
 3464 0138 CA000000 		.4byte	0xca
 3465 013c 04       		.uleb128 0x4
 3466 013d EE0D0000 		.4byte	.LASF27
 3467 0141 07       		.byte	0x7
 3468 0142 4B       		.byte	0x4b
 3469 0143 CA000000 		.4byte	0xca
 3470 0147 04       		.uleb128 0x4
 3471 0148 2B050000 		.4byte	.LASF28
 3472 014c 07       		.byte	0x7
 3473 014d 4C       		.byte	0x4c
 3474 014e EB000000 		.4byte	0xeb
 3475 0152 04       		.uleb128 0x4
 3476 0153 870C0000 		.4byte	.LASF29
 3477 0157 07       		.byte	0x7
 3478 0158 4D       		.byte	0x4d
 3479 0159 E0000000 		.4byte	0xe0
 3480 015d 04       		.uleb128 0x4
 3481 015e 7B0C0000 		.4byte	.LASF30
 3482 0162 07       		.byte	0x7
 3483 0163 4F       		.byte	0x4f
 3484 0164 EB000000 		.4byte	0xeb
 3485 0168 04       		.uleb128 0x4
 3486 0169 47060000 		.4byte	.LASF31
 3487 016d 07       		.byte	0x7
 3488 016e 51       		.byte	0x51
 3489 016f E0000000 		.4byte	0xe0
 3490 0173 04       		.uleb128 0x4
 3491 0174 1D010000 		.4byte	.LASF32
 3492 0178 08       		.byte	0x8
 3493 0179 33       		.byte	0x33
 3494 017a EB000000 		.4byte	0xeb
 3495 017e 04       		.uleb128 0x4
 3496 017f FF060000 		.4byte	.LASF33
 3497 0183 08       		.byte	0x8
 3498 0184 3F       		.byte	0x3f
 3499 0185 89010000 		.4byte	0x189
 3500 0189 06       		.uleb128 0x6
 3501 018a C80B0000 		.4byte	.LASF55
 3502 018e 48       		.byte	0x48
 3503 018f 09       		.byte	0x9
 3504 0190 C2       		.byte	0xc2
ARM GAS  /var/folders/sv/kgmgr77579zbf78p2zlhkdfr0000gn/T//ccygG6jq.s 			page 73


 3505 0191 8E020000 		.4byte	0x28e
 3506 0195 07       		.uleb128 0x7
 3507 0196 7B100000 		.4byte	.LASF34
 3508 019a 09       		.byte	0x9
 3509 019b C3       		.byte	0xc3
 3510 019c 99020000 		.4byte	0x299
 3511 01a0 00       		.byte	0
 3512 01a1 07       		.uleb128 0x7
 3513 01a2 6C110000 		.4byte	.LASF35
 3514 01a6 09       		.byte	0x9
 3515 01a7 C5       		.byte	0xc5
 3516 01a8 99020000 		.4byte	0x299
 3517 01ac 04       		.byte	0x4
 3518 01ad 07       		.uleb128 0x7
 3519 01ae AA000000 		.4byte	.LASF36
 3520 01b2 09       		.byte	0x9
 3521 01b3 C7       		.byte	0xc7
 3522 01b4 47010000 		.4byte	0x147
 3523 01b8 08       		.byte	0x8
 3524 01b9 07       		.uleb128 0x7
 3525 01ba 8B100000 		.4byte	.LASF37
 3526 01be 09       		.byte	0x9
 3527 01bf C8       		.byte	0xc8
 3528 01c0 EE050000 		.4byte	0x5ee
 3529 01c4 0C       		.byte	0xc
 3530 01c5 07       		.uleb128 0x7
 3531 01c6 BA060000 		.4byte	.LASF38
 3532 01ca 09       		.byte	0x9
 3533 01cb CA       		.byte	0xca
 3534 01cc 99020000 		.4byte	0x299
 3535 01d0 10       		.byte	0x10
 3536 01d1 07       		.uleb128 0x7
 3537 01d2 470B0000 		.4byte	.LASF39
 3538 01d6 09       		.byte	0x9
 3539 01d7 CB       		.byte	0xcb
 3540 01d8 99020000 		.4byte	0x299
 3541 01dc 14       		.byte	0x14
 3542 01dd 07       		.uleb128 0x7
 3543 01de E1090000 		.4byte	.LASF40
 3544 01e2 09       		.byte	0x9
 3545 01e3 D2       		.byte	0xd2
 3546 01e4 33080000 		.4byte	0x833
 3547 01e8 18       		.byte	0x18
 3548 01e9 07       		.uleb128 0x7
 3549 01ea 5D0B0000 		.4byte	.LASF41
 3550 01ee 09       		.byte	0x9
 3551 01ef DD       		.byte	0xdd
 3552 01f0 26010000 		.4byte	0x126
 3553 01f4 1C       		.byte	0x1c
 3554 01f5 07       		.uleb128 0x7
 3555 01f6 250A0000 		.4byte	.LASF42
 3556 01fa 09       		.byte	0x9
 3557 01fb E1       		.byte	0xe1
 3558 01fc 1B010000 		.4byte	0x11b
 3559 0200 1D       		.byte	0x1d
 3560 0201 07       		.uleb128 0x7
 3561 0202 EA120000 		.4byte	.LASF43
ARM GAS  /var/folders/sv/kgmgr77579zbf78p2zlhkdfr0000gn/T//ccygG6jq.s 			page 74


 3562 0206 09       		.byte	0x9
 3563 0207 E6       		.byte	0xe6
 3564 0208 31010000 		.4byte	0x131
 3565 020c 1E       		.byte	0x1e
 3566 020d 07       		.uleb128 0x7
 3567 020e 53130000 		.4byte	.LASF44
 3568 0212 09       		.byte	0x9
 3569 0213 EC       		.byte	0xec
 3570 0214 3C010000 		.4byte	0x13c
 3571 0218 1F       		.byte	0x1f
 3572 0219 07       		.uleb128 0x7
 3573 021a 8F000000 		.4byte	.LASF45
 3574 021e 09       		.byte	0x9
 3575 021f F3       		.byte	0xf3
 3576 0220 45080000 		.4byte	0x845
 3577 0224 20       		.byte	0x20
 3578 0225 08       		.uleb128 0x8
 3579 0226 705F7500 		.ascii	"p_u\000"
 3580 022a 09       		.byte	0x9
 3581 022b 3101     		.2byte	0x131
 3582 022d 6E070000 		.4byte	0x76e
 3583 0231 24       		.byte	0x24
 3584 0232 09       		.uleb128 0x9
 3585 0233 10020000 		.4byte	.LASF46
 3586 0237 09       		.byte	0x9
 3587 0238 3601     		.2byte	0x136
 3588 023a 9F020000 		.4byte	0x29f
 3589 023e 28       		.byte	0x28
 3590 023f 09       		.uleb128 0x9
 3591 0240 60010000 		.4byte	.LASF47
 3592 0244 09       		.byte	0x9
 3593 0245 3C01     		.2byte	0x13c
 3594 0247 C3020000 		.4byte	0x2c3
 3595 024b 2C       		.byte	0x2c
 3596 024c 09       		.uleb128 0x9
 3597 024d 660E0000 		.4byte	.LASF48
 3598 0251 09       		.byte	0x9
 3599 0252 4001     		.2byte	0x140
 3600 0254 52010000 		.4byte	0x152
 3601 0258 34       		.byte	0x34
 3602 0259 09       		.uleb128 0x9
 3603 025a 8C130000 		.4byte	.LASF49
 3604 025e 09       		.byte	0x9
 3605 025f 4601     		.2byte	0x146
 3606 0261 5D010000 		.4byte	0x15d
 3607 0265 38       		.byte	0x38
 3608 0266 09       		.uleb128 0x9
 3609 0267 B90B0000 		.4byte	.LASF50
 3610 026b 09       		.byte	0x9
 3611 026c 4D01     		.2byte	0x14d
 3612 026e 2D080000 		.4byte	0x82d
 3613 0272 3C       		.byte	0x3c
 3614 0273 09       		.uleb128 0x9
 3615 0274 C40D0000 		.4byte	.LASF51
 3616 0278 09       		.byte	0x9
 3617 0279 5101     		.2byte	0x151
 3618 027b 47010000 		.4byte	0x147
ARM GAS  /var/folders/sv/kgmgr77579zbf78p2zlhkdfr0000gn/T//ccygG6jq.s 			page 75


 3619 027f 40       		.byte	0x40
 3620 0280 09       		.uleb128 0x9
 3621 0281 B10B0000 		.4byte	.LASF52
 3622 0285 09       		.byte	0x9
 3623 0286 5801     		.2byte	0x158
 3624 0288 76030000 		.4byte	0x376
 3625 028c 44       		.byte	0x44
 3626 028d 00       		.byte	0
 3627 028e 04       		.uleb128 0x4
 3628 028f ED0E0000 		.4byte	.LASF53
 3629 0293 08       		.byte	0x8
 3630 0294 44       		.byte	0x44
 3631 0295 99020000 		.4byte	0x299
 3632 0299 0A       		.uleb128 0xa
 3633 029a 04       		.byte	0x4
 3634 029b 7E010000 		.4byte	0x17e
 3635 029f 04       		.uleb128 0x4
 3636 02a0 DE010000 		.4byte	.LASF54
 3637 02a4 08       		.byte	0x8
 3638 02a5 49       		.byte	0x49
 3639 02a6 AA020000 		.4byte	0x2aa
 3640 02aa 06       		.uleb128 0x6
 3641 02ab 4D060000 		.4byte	.LASF56
 3642 02af 04       		.byte	0x4
 3643 02b0 09       		.byte	0x9
 3644 02b1 B0       		.byte	0xb0
 3645 02b2 C3020000 		.4byte	0x2c3
 3646 02b6 07       		.uleb128 0x7
 3647 02b7 7B100000 		.4byte	.LASF34
 3648 02bb 09       		.byte	0x9
 3649 02bc B1       		.byte	0xb1
 3650 02bd 99020000 		.4byte	0x299
 3651 02c1 00       		.byte	0
 3652 02c2 00       		.byte	0
 3653 02c3 04       		.uleb128 0x4
 3654 02c4 09000000 		.4byte	.LASF57
 3655 02c8 08       		.byte	0x8
 3656 02c9 50       		.byte	0x50
 3657 02ca CE020000 		.4byte	0x2ce
 3658 02ce 06       		.uleb128 0x6
 3659 02cf 1B0C0000 		.4byte	.LASF58
 3660 02d3 08       		.byte	0x8
 3661 02d4 09       		.byte	0x9
 3662 02d5 B7       		.byte	0xb7
 3663 02d6 F3020000 		.4byte	0x2f3
 3664 02da 07       		.uleb128 0x7
 3665 02db 7B100000 		.4byte	.LASF34
 3666 02df 09       		.byte	0x9
 3667 02e0 B8       		.byte	0xb8
 3668 02e1 99020000 		.4byte	0x299
 3669 02e5 00       		.byte	0
 3670 02e6 07       		.uleb128 0x7
 3671 02e7 6C110000 		.4byte	.LASF35
 3672 02eb 09       		.byte	0x9
 3673 02ec B9       		.byte	0xb9
 3674 02ed 99020000 		.4byte	0x299
 3675 02f1 04       		.byte	0x4
ARM GAS  /var/folders/sv/kgmgr77579zbf78p2zlhkdfr0000gn/T//ccygG6jq.s 			page 76


 3676 02f2 00       		.byte	0
 3677 02f3 04       		.uleb128 0x4
 3678 02f4 CA110000 		.4byte	.LASF59
 3679 02f8 08       		.byte	0x8
 3680 02f9 57       		.byte	0x57
 3681 02fa FE020000 		.4byte	0x2fe
 3682 02fe 0B       		.uleb128 0xb
 3683 02ff 04030000 		.4byte	.LASF60
 3684 0303 1C       		.byte	0x1c
 3685 0304 09       		.byte	0x9
 3686 0305 9001     		.2byte	0x190
 3687 0307 5A030000 		.4byte	0x35a
 3688 030b 09       		.uleb128 0x9
 3689 030c 7D0B0000 		.4byte	.LASF61
 3690 0310 09       		.byte	0x9
 3691 0311 9101     		.2byte	0x191
 3692 0313 C3020000 		.4byte	0x2c3
 3693 0317 00       		.byte	0
 3694 0318 09       		.uleb128 0x9
 3695 0319 B3040000 		.4byte	.LASF62
 3696 031d 09       		.byte	0x9
 3697 031e 9201     		.2byte	0x192
 3698 0320 47010000 		.4byte	0x147
 3699 0324 08       		.byte	0x8
 3700 0325 09       		.uleb128 0x9
 3701 0326 B5140000 		.4byte	.LASF63
 3702 032a 09       		.byte	0x9
 3703 032b 9401     		.2byte	0x194
 3704 032d EE050000 		.4byte	0x5ee
 3705 0331 0C       		.byte	0xc
 3706 0332 09       		.uleb128 0x9
 3707 0333 6F0A0000 		.4byte	.LASF64
 3708 0337 09       		.byte	0x9
 3709 0338 9701     		.2byte	0x197
 3710 033a 99020000 		.4byte	0x299
 3711 033e 10       		.byte	0x10
 3712 033f 09       		.uleb128 0x9
 3713 0340 F80D0000 		.4byte	.LASF65
 3714 0344 09       		.byte	0x9
 3715 0345 9801     		.2byte	0x198
 3716 0347 99020000 		.4byte	0x299
 3717 034b 14       		.byte	0x14
 3718 034c 09       		.uleb128 0x9
 3719 034d CE0F0000 		.4byte	.LASF66
 3720 0351 09       		.byte	0x9
 3721 0352 9B01     		.2byte	0x19b
 3722 0354 99020000 		.4byte	0x299
 3723 0358 18       		.byte	0x18
 3724 0359 00       		.byte	0
 3725 035a 04       		.uleb128 0x4
 3726 035b B0030000 		.4byte	.LASF67
 3727 035f 08       		.byte	0x8
 3728 0360 5C       		.byte	0x5c
 3729 0361 65030000 		.4byte	0x365
 3730 0365 0A       		.uleb128 0xa
 3731 0366 04       		.byte	0x4
 3732 0367 6B030000 		.4byte	0x36b
ARM GAS  /var/folders/sv/kgmgr77579zbf78p2zlhkdfr0000gn/T//ccygG6jq.s 			page 77


 3733 036b 0C       		.uleb128 0xc
 3734 036c 76030000 		.4byte	0x376
 3735 0370 0D       		.uleb128 0xd
 3736 0371 76030000 		.4byte	0x376
 3737 0375 00       		.byte	0
 3738 0376 0E       		.uleb128 0xe
 3739 0377 04       		.byte	0x4
 3740 0378 04       		.uleb128 0x4
 3741 0379 390D0000 		.4byte	.LASF68
 3742 037d 08       		.byte	0x8
 3743 037e 61       		.byte	0x61
 3744 037f 83030000 		.4byte	0x383
 3745 0383 0B       		.uleb128 0xb
 3746 0384 47050000 		.4byte	.LASF69
 3747 0388 14       		.byte	0x14
 3748 0389 09       		.byte	0x9
 3749 038a 6B01     		.2byte	0x16b
 3750 038c D2030000 		.4byte	0x3d2
 3751 0390 09       		.uleb128 0x9
 3752 0391 97130000 		.4byte	.LASF70
 3753 0395 09       		.byte	0x9
 3754 0396 6C01     		.2byte	0x16c
 3755 0398 4A080000 		.4byte	0x84a
 3756 039c 00       		.byte	0
 3757 039d 09       		.uleb128 0x9
 3758 039e 8B150000 		.4byte	.LASF71
 3759 03a2 09       		.byte	0x9
 3760 03a3 6D01     		.2byte	0x16d
 3761 03a5 4A080000 		.4byte	0x84a
 3762 03a9 04       		.byte	0x4
 3763 03aa 09       		.uleb128 0x9
 3764 03ab 110A0000 		.4byte	.LASF72
 3765 03af 09       		.byte	0x9
 3766 03b0 6E01     		.2byte	0x16e
 3767 03b2 73010000 		.4byte	0x173
 3768 03b6 08       		.byte	0x8
 3769 03b7 09       		.uleb128 0x9
 3770 03b8 490D0000 		.4byte	.LASF73
 3771 03bc 09       		.byte	0x9
 3772 03bd 6F01     		.2byte	0x16f
 3773 03bf 5A030000 		.4byte	0x35a
 3774 03c3 0C       		.byte	0xc
 3775 03c4 09       		.uleb128 0x9
 3776 03c5 DA040000 		.4byte	.LASF74
 3777 03c9 09       		.byte	0x9
 3778 03ca 7101     		.2byte	0x171
 3779 03cc 76030000 		.4byte	0x376
 3780 03d0 10       		.byte	0x10
 3781 03d1 00       		.byte	0
 3782 03d2 04       		.uleb128 0x4
 3783 03d3 D4120000 		.4byte	.LASF75
 3784 03d7 08       		.byte	0x8
 3785 03d8 66       		.byte	0x66
 3786 03d9 DD030000 		.4byte	0x3dd
 3787 03dd 0B       		.uleb128 0xb
 3788 03de C8060000 		.4byte	.LASF76
 3789 03e2 10       		.byte	0x10
ARM GAS  /var/folders/sv/kgmgr77579zbf78p2zlhkdfr0000gn/T//ccygG6jq.s 			page 78


 3790 03e3 09       		.byte	0x9
 3791 03e4 7B01     		.2byte	0x17b
 3792 03e6 1F040000 		.4byte	0x41f
 3793 03ea 09       		.uleb128 0x9
 3794 03eb 97130000 		.4byte	.LASF70
 3795 03ef 09       		.byte	0x9
 3796 03f0 7C01     		.2byte	0x17c
 3797 03f2 4A080000 		.4byte	0x84a
 3798 03f6 00       		.byte	0
 3799 03f7 09       		.uleb128 0x9
 3800 03f8 8B150000 		.4byte	.LASF71
 3801 03fc 09       		.byte	0x9
 3802 03fd 7E01     		.2byte	0x17e
 3803 03ff 4A080000 		.4byte	0x84a
 3804 0403 04       		.byte	0x4
 3805 0404 09       		.uleb128 0x9
 3806 0405 110A0000 		.4byte	.LASF72
 3807 0409 09       		.byte	0x9
 3808 040a 8001     		.2byte	0x180
 3809 040c 73010000 		.4byte	0x173
 3810 0410 08       		.byte	0x8
 3811 0411 09       		.uleb128 0x9
 3812 0412 55010000 		.4byte	.LASF77
 3813 0416 09       		.byte	0x9
 3814 0417 8201     		.2byte	0x182
 3815 0419 45080000 		.4byte	0x845
 3816 041d 0C       		.byte	0xc
 3817 041e 00       		.byte	0
 3818 041f 04       		.uleb128 0x4
 3819 0420 E60B0000 		.4byte	.LASF78
 3820 0424 08       		.byte	0x8
 3821 0425 6B       		.byte	0x6b
 3822 0426 2A040000 		.4byte	0x42a
 3823 042a 0B       		.uleb128 0xb
 3824 042b D8030000 		.4byte	.LASF79
 3825 042f 04       		.byte	0x4
 3826 0430 09       		.byte	0x9
 3827 0431 A201     		.2byte	0x1a2
 3828 0433 45040000 		.4byte	0x445
 3829 0437 09       		.uleb128 0x9
 3830 0438 D5150000 		.4byte	.LASF80
 3831 043c 09       		.byte	0x9
 3832 043d AA01     		.2byte	0x1aa
 3833 043f 50080000 		.4byte	0x850
 3834 0443 00       		.byte	0
 3835 0444 00       		.byte	0
 3836 0445 04       		.uleb128 0x4
 3837 0446 BB130000 		.4byte	.LASF81
 3838 044a 08       		.byte	0x8
 3839 044b 70       		.byte	0x70
 3840 044c 50040000 		.4byte	0x450
 3841 0450 0F       		.uleb128 0xf
 3842 0451 63100000 		.4byte	.LASF82
 3843 0455 5802     		.2byte	0x258
 3844 0457 09       		.byte	0x9
 3845 0458 C201     		.2byte	0x1c2
 3846 045a AC040000 		.4byte	0x4ac
ARM GAS  /var/folders/sv/kgmgr77579zbf78p2zlhkdfr0000gn/T//ccygG6jq.s 			page 79


 3847 045e 09       		.uleb128 0x9
 3848 045f A6100000 		.4byte	.LASF83
 3849 0463 09       		.byte	0x9
 3850 0464 C601     		.2byte	0x1c6
 3851 0466 F3020000 		.4byte	0x2f3
 3852 046a 00       		.byte	0
 3853 046b 09       		.uleb128 0x9
 3854 046c DB020000 		.4byte	.LASF84
 3855 0470 09       		.byte	0x9
 3856 0471 CA01     		.2byte	0x1ca
 3857 0473 D2030000 		.4byte	0x3d2
 3858 0477 1C       		.byte	0x1c
 3859 0478 08       		.uleb128 0x8
 3860 0479 64626700 		.ascii	"dbg\000"
 3861 047d 09       		.byte	0x9
 3862 047e CE01     		.2byte	0x1ce
 3863 0480 1F040000 		.4byte	0x41f
 3864 0484 2C       		.byte	0x2c
 3865 0485 09       		.uleb128 0x9
 3866 0486 7D0E0000 		.4byte	.LASF85
 3867 048a 09       		.byte	0x9
 3868 048b D201     		.2byte	0x1d2
 3869 048d 7E010000 		.4byte	0x17e
 3870 0491 30       		.byte	0x30
 3871 0492 08       		.uleb128 0x8
 3872 0493 746D00   		.ascii	"tm\000"
 3873 0496 09       		.byte	0x9
 3874 0497 D701     		.2byte	0x1d7
 3875 0499 63070000 		.4byte	0x763
 3876 049d 78       		.byte	0x78
 3877 049e 09       		.uleb128 0x9
 3878 049f 12030000 		.4byte	.LASF86
 3879 04a3 09       		.byte	0x9
 3880 04a4 E301     		.2byte	0x1e3
 3881 04a6 55080000 		.4byte	0x855
 3882 04aa 80       		.byte	0x80
 3883 04ab 00       		.byte	0
 3884 04ac 02       		.uleb128 0x2
 3885 04ad 04       		.byte	0x4
 3886 04ae 07       		.byte	0x7
 3887 04af 95110000 		.4byte	.LASF87
 3888 04b3 10       		.uleb128 0x10
 3889 04b4 54       		.byte	0x54
 3890 04b5 0A       		.byte	0xa
 3891 04b6 EC02     		.2byte	0x2ec
 3892 04b8 CC050000 		.4byte	0x5cc
 3893 04bc 08       		.uleb128 0x8
 3894 04bd 43523100 		.ascii	"CR1\000"
 3895 04c1 0A       		.byte	0xa
 3896 04c2 EE02     		.2byte	0x2ee
 3897 04c4 0B010000 		.4byte	0x10b
 3898 04c8 00       		.byte	0
 3899 04c9 08       		.uleb128 0x8
 3900 04ca 43523200 		.ascii	"CR2\000"
 3901 04ce 0A       		.byte	0xa
 3902 04cf EF02     		.2byte	0x2ef
 3903 04d1 0B010000 		.4byte	0x10b
ARM GAS  /var/folders/sv/kgmgr77579zbf78p2zlhkdfr0000gn/T//ccygG6jq.s 			page 80


 3904 04d5 04       		.byte	0x4
 3905 04d6 09       		.uleb128 0x9
 3906 04d7 C30B0000 		.4byte	.LASF88
 3907 04db 0A       		.byte	0xa
 3908 04dc F002     		.2byte	0x2f0
 3909 04de 0B010000 		.4byte	0x10b
 3910 04e2 08       		.byte	0x8
 3911 04e3 09       		.uleb128 0x9
 3912 04e4 14090000 		.4byte	.LASF89
 3913 04e8 0A       		.byte	0xa
 3914 04e9 F102     		.2byte	0x2f1
 3915 04eb 0B010000 		.4byte	0x10b
 3916 04ef 0C       		.byte	0xc
 3917 04f0 08       		.uleb128 0x8
 3918 04f1 535200   		.ascii	"SR\000"
 3919 04f4 0A       		.byte	0xa
 3920 04f5 F202     		.2byte	0x2f2
 3921 04f7 0B010000 		.4byte	0x10b
 3922 04fb 10       		.byte	0x10
 3923 04fc 08       		.uleb128 0x8
 3924 04fd 45475200 		.ascii	"EGR\000"
 3925 0501 0A       		.byte	0xa
 3926 0502 F302     		.2byte	0x2f3
 3927 0504 0B010000 		.4byte	0x10b
 3928 0508 14       		.byte	0x14
 3929 0509 09       		.uleb128 0x9
 3930 050a 58050000 		.4byte	.LASF90
 3931 050e 0A       		.byte	0xa
 3932 050f F402     		.2byte	0x2f4
 3933 0511 0B010000 		.4byte	0x10b
 3934 0515 18       		.byte	0x18
 3935 0516 09       		.uleb128 0x9
 3936 0517 5E050000 		.4byte	.LASF91
 3937 051b 0A       		.byte	0xa
 3938 051c F502     		.2byte	0x2f5
 3939 051e 0B010000 		.4byte	0x10b
 3940 0522 1C       		.byte	0x1c
 3941 0523 09       		.uleb128 0x9
 3942 0524 FC090000 		.4byte	.LASF92
 3943 0528 0A       		.byte	0xa
 3944 0529 F602     		.2byte	0x2f6
 3945 052b 0B010000 		.4byte	0x10b
 3946 052f 20       		.byte	0x20
 3947 0530 08       		.uleb128 0x8
 3948 0531 434E5400 		.ascii	"CNT\000"
 3949 0535 0A       		.byte	0xa
 3950 0536 F702     		.2byte	0x2f7
 3951 0538 0B010000 		.4byte	0x10b
 3952 053c 24       		.byte	0x24
 3953 053d 08       		.uleb128 0x8
 3954 053e 50534300 		.ascii	"PSC\000"
 3955 0542 0A       		.byte	0xa
 3956 0543 F802     		.2byte	0x2f8
 3957 0545 0B010000 		.4byte	0x10b
 3958 0549 28       		.byte	0x28
 3959 054a 08       		.uleb128 0x8
 3960 054b 41525200 		.ascii	"ARR\000"
ARM GAS  /var/folders/sv/kgmgr77579zbf78p2zlhkdfr0000gn/T//ccygG6jq.s 			page 81


 3961 054f 0A       		.byte	0xa
 3962 0550 F902     		.2byte	0x2f9
 3963 0552 0B010000 		.4byte	0x10b
 3964 0556 2C       		.byte	0x2c
 3965 0557 08       		.uleb128 0x8
 3966 0558 52435200 		.ascii	"RCR\000"
 3967 055c 0A       		.byte	0xa
 3968 055d FA02     		.2byte	0x2fa
 3969 055f 0B010000 		.4byte	0x10b
 3970 0563 30       		.byte	0x30
 3971 0564 09       		.uleb128 0x9
 3972 0565 33050000 		.4byte	.LASF93
 3973 0569 0A       		.byte	0xa
 3974 056a FB02     		.2byte	0x2fb
 3975 056c 0B010000 		.4byte	0x10b
 3976 0570 34       		.byte	0x34
 3977 0571 09       		.uleb128 0x9
 3978 0572 38050000 		.4byte	.LASF94
 3979 0576 0A       		.byte	0xa
 3980 0577 FC02     		.2byte	0x2fc
 3981 0579 0B010000 		.4byte	0x10b
 3982 057d 38       		.byte	0x38
 3983 057e 09       		.uleb128 0x9
 3984 057f 3D050000 		.4byte	.LASF95
 3985 0583 0A       		.byte	0xa
 3986 0584 FD02     		.2byte	0x2fd
 3987 0586 0B010000 		.4byte	0x10b
 3988 058a 3C       		.byte	0x3c
 3989 058b 09       		.uleb128 0x9
 3990 058c 42050000 		.4byte	.LASF96
 3991 0590 0A       		.byte	0xa
 3992 0591 FE02     		.2byte	0x2fe
 3993 0593 0B010000 		.4byte	0x10b
 3994 0597 40       		.byte	0x40
 3995 0598 09       		.uleb128 0x9
 3996 0599 BA040000 		.4byte	.LASF97
 3997 059d 0A       		.byte	0xa
 3998 059e FF02     		.2byte	0x2ff
 3999 05a0 0B010000 		.4byte	0x10b
 4000 05a4 44       		.byte	0x44
 4001 05a5 08       		.uleb128 0x8
 4002 05a6 44435200 		.ascii	"DCR\000"
 4003 05aa 0A       		.byte	0xa
 4004 05ab 0003     		.2byte	0x300
 4005 05ad 0B010000 		.4byte	0x10b
 4006 05b1 48       		.byte	0x48
 4007 05b2 09       		.uleb128 0x9
 4008 05b3 AB030000 		.4byte	.LASF98
 4009 05b7 0A       		.byte	0xa
 4010 05b8 0103     		.2byte	0x301
 4011 05ba 0B010000 		.4byte	0x10b
 4012 05be 4C       		.byte	0x4c
 4013 05bf 08       		.uleb128 0x8
 4014 05c0 4F5200   		.ascii	"OR\000"
 4015 05c3 0A       		.byte	0xa
 4016 05c4 0203     		.2byte	0x302
 4017 05c6 0B010000 		.4byte	0x10b
ARM GAS  /var/folders/sv/kgmgr77579zbf78p2zlhkdfr0000gn/T//ccygG6jq.s 			page 82


 4018 05ca 50       		.byte	0x50
 4019 05cb 00       		.byte	0
 4020 05cc 11       		.uleb128 0x11
 4021 05cd 43040000 		.4byte	.LASF99
 4022 05d1 0A       		.byte	0xa
 4023 05d2 0303     		.2byte	0x303
 4024 05d4 B3040000 		.4byte	0x4b3
 4025 05d8 04       		.uleb128 0x4
 4026 05d9 9B000000 		.4byte	.LASF100
 4027 05dd 0B       		.byte	0xb
 4028 05de 65       		.byte	0x65
 4029 05df 76030000 		.4byte	0x376
 4030 05e3 04       		.uleb128 0x4
 4031 05e4 E3140000 		.4byte	.LASF101
 4032 05e8 0B       		.byte	0xb
 4033 05e9 6D       		.byte	0x6d
 4034 05ea F6000000 		.4byte	0xf6
 4035 05ee 06       		.uleb128 0x6
 4036 05ef 920C0000 		.4byte	.LASF102
 4037 05f3 04       		.byte	0x4
 4038 05f4 0B       		.byte	0xb
 4039 05f5 89       		.byte	0x89
 4040 05f6 07060000 		.4byte	0x607
 4041 05fa 12       		.uleb128 0x12
 4042 05fb 72313300 		.ascii	"r13\000"
 4043 05ff 0B       		.byte	0xb
 4044 0600 8A       		.byte	0x8a
 4045 0601 48070000 		.4byte	0x748
 4046 0605 00       		.byte	0
 4047 0606 00       		.byte	0
 4048 0607 06       		.uleb128 0x6
 4049 0608 22100000 		.4byte	.LASF103
 4050 060c 64       		.byte	0x64
 4051 060d 0C       		.byte	0xc
 4052 060e F4       		.byte	0xf4
 4053 060f 48070000 		.4byte	0x748
 4054 0613 12       		.uleb128 0x12
 4055 0614 73313600 		.ascii	"s16\000"
 4056 0618 0C       		.byte	0xc
 4057 0619 F6       		.byte	0xf6
 4058 061a D8050000 		.4byte	0x5d8
 4059 061e 00       		.byte	0
 4060 061f 12       		.uleb128 0x12
 4061 0620 73313700 		.ascii	"s17\000"
 4062 0624 0C       		.byte	0xc
 4063 0625 F7       		.byte	0xf7
 4064 0626 D8050000 		.4byte	0x5d8
 4065 062a 04       		.byte	0x4
 4066 062b 12       		.uleb128 0x12
 4067 062c 73313800 		.ascii	"s18\000"
 4068 0630 0C       		.byte	0xc
 4069 0631 F8       		.byte	0xf8
 4070 0632 D8050000 		.4byte	0x5d8
 4071 0636 08       		.byte	0x8
 4072 0637 12       		.uleb128 0x12
 4073 0638 73313900 		.ascii	"s19\000"
 4074 063c 0C       		.byte	0xc
ARM GAS  /var/folders/sv/kgmgr77579zbf78p2zlhkdfr0000gn/T//ccygG6jq.s 			page 83


 4075 063d F9       		.byte	0xf9
 4076 063e D8050000 		.4byte	0x5d8
 4077 0642 0C       		.byte	0xc
 4078 0643 12       		.uleb128 0x12
 4079 0644 73323000 		.ascii	"s20\000"
 4080 0648 0C       		.byte	0xc
 4081 0649 FA       		.byte	0xfa
 4082 064a D8050000 		.4byte	0x5d8
 4083 064e 10       		.byte	0x10
 4084 064f 12       		.uleb128 0x12
 4085 0650 73323100 		.ascii	"s21\000"
 4086 0654 0C       		.byte	0xc
 4087 0655 FB       		.byte	0xfb
 4088 0656 D8050000 		.4byte	0x5d8
 4089 065a 14       		.byte	0x14
 4090 065b 12       		.uleb128 0x12
 4091 065c 73323200 		.ascii	"s22\000"
 4092 0660 0C       		.byte	0xc
 4093 0661 FC       		.byte	0xfc
 4094 0662 D8050000 		.4byte	0x5d8
 4095 0666 18       		.byte	0x18
 4096 0667 12       		.uleb128 0x12
 4097 0668 73323300 		.ascii	"s23\000"
 4098 066c 0C       		.byte	0xc
 4099 066d FD       		.byte	0xfd
 4100 066e D8050000 		.4byte	0x5d8
 4101 0672 1C       		.byte	0x1c
 4102 0673 12       		.uleb128 0x12
 4103 0674 73323400 		.ascii	"s24\000"
 4104 0678 0C       		.byte	0xc
 4105 0679 FE       		.byte	0xfe
 4106 067a D8050000 		.4byte	0x5d8
 4107 067e 20       		.byte	0x20
 4108 067f 12       		.uleb128 0x12
 4109 0680 73323500 		.ascii	"s25\000"
 4110 0684 0C       		.byte	0xc
 4111 0685 FF       		.byte	0xff
 4112 0686 D8050000 		.4byte	0x5d8
 4113 068a 24       		.byte	0x24
 4114 068b 08       		.uleb128 0x8
 4115 068c 73323600 		.ascii	"s26\000"
 4116 0690 0C       		.byte	0xc
 4117 0691 0001     		.2byte	0x100
 4118 0693 D8050000 		.4byte	0x5d8
 4119 0697 28       		.byte	0x28
 4120 0698 08       		.uleb128 0x8
 4121 0699 73323700 		.ascii	"s27\000"
 4122 069d 0C       		.byte	0xc
 4123 069e 0101     		.2byte	0x101
 4124 06a0 D8050000 		.4byte	0x5d8
 4125 06a4 2C       		.byte	0x2c
 4126 06a5 08       		.uleb128 0x8
 4127 06a6 73323800 		.ascii	"s28\000"
 4128 06aa 0C       		.byte	0xc
 4129 06ab 0201     		.2byte	0x102
 4130 06ad D8050000 		.4byte	0x5d8
 4131 06b1 30       		.byte	0x30
ARM GAS  /var/folders/sv/kgmgr77579zbf78p2zlhkdfr0000gn/T//ccygG6jq.s 			page 84


 4132 06b2 08       		.uleb128 0x8
 4133 06b3 73323900 		.ascii	"s29\000"
 4134 06b7 0C       		.byte	0xc
 4135 06b8 0301     		.2byte	0x103
 4136 06ba D8050000 		.4byte	0x5d8
 4137 06be 34       		.byte	0x34
 4138 06bf 08       		.uleb128 0x8
 4139 06c0 73333000 		.ascii	"s30\000"
 4140 06c4 0C       		.byte	0xc
 4141 06c5 0401     		.2byte	0x104
 4142 06c7 D8050000 		.4byte	0x5d8
 4143 06cb 38       		.byte	0x38
 4144 06cc 08       		.uleb128 0x8
 4145 06cd 73333100 		.ascii	"s31\000"
 4146 06d1 0C       		.byte	0xc
 4147 06d2 0501     		.2byte	0x105
 4148 06d4 D8050000 		.4byte	0x5d8
 4149 06d8 3C       		.byte	0x3c
 4150 06d9 08       		.uleb128 0x8
 4151 06da 723400   		.ascii	"r4\000"
 4152 06dd 0C       		.byte	0xc
 4153 06de 0701     		.2byte	0x107
 4154 06e0 D8050000 		.4byte	0x5d8
 4155 06e4 40       		.byte	0x40
 4156 06e5 08       		.uleb128 0x8
 4157 06e6 723500   		.ascii	"r5\000"
 4158 06e9 0C       		.byte	0xc
 4159 06ea 0801     		.2byte	0x108
 4160 06ec D8050000 		.4byte	0x5d8
 4161 06f0 44       		.byte	0x44
 4162 06f1 08       		.uleb128 0x8
 4163 06f2 723600   		.ascii	"r6\000"
 4164 06f5 0C       		.byte	0xc
 4165 06f6 0901     		.2byte	0x109
 4166 06f8 D8050000 		.4byte	0x5d8
 4167 06fc 48       		.byte	0x48
 4168 06fd 08       		.uleb128 0x8
 4169 06fe 723700   		.ascii	"r7\000"
 4170 0701 0C       		.byte	0xc
 4171 0702 0A01     		.2byte	0x10a
 4172 0704 D8050000 		.4byte	0x5d8
 4173 0708 4C       		.byte	0x4c
 4174 0709 08       		.uleb128 0x8
 4175 070a 723800   		.ascii	"r8\000"
 4176 070d 0C       		.byte	0xc
 4177 070e 0B01     		.2byte	0x10b
 4178 0710 D8050000 		.4byte	0x5d8
 4179 0714 50       		.byte	0x50
 4180 0715 08       		.uleb128 0x8
 4181 0716 723900   		.ascii	"r9\000"
 4182 0719 0C       		.byte	0xc
 4183 071a 0C01     		.2byte	0x10c
 4184 071c D8050000 		.4byte	0x5d8
 4185 0720 54       		.byte	0x54
 4186 0721 08       		.uleb128 0x8
 4187 0722 72313000 		.ascii	"r10\000"
 4188 0726 0C       		.byte	0xc
ARM GAS  /var/folders/sv/kgmgr77579zbf78p2zlhkdfr0000gn/T//ccygG6jq.s 			page 85


 4189 0727 0D01     		.2byte	0x10d
 4190 0729 D8050000 		.4byte	0x5d8
 4191 072d 58       		.byte	0x58
 4192 072e 08       		.uleb128 0x8
 4193 072f 72313100 		.ascii	"r11\000"
 4194 0733 0C       		.byte	0xc
 4195 0734 0E01     		.2byte	0x10e
 4196 0736 D8050000 		.4byte	0x5d8
 4197 073a 5C       		.byte	0x5c
 4198 073b 08       		.uleb128 0x8
 4199 073c 6C7200   		.ascii	"lr\000"
 4200 073f 0C       		.byte	0xc
 4201 0740 0F01     		.2byte	0x10f
 4202 0742 D8050000 		.4byte	0x5d8
 4203 0746 60       		.byte	0x60
 4204 0747 00       		.byte	0
 4205 0748 0A       		.uleb128 0xa
 4206 0749 04       		.byte	0x4
 4207 074a 07060000 		.4byte	0x607
 4208 074e 13       		.uleb128 0x13
 4209 074f 04       		.byte	0x4
 4210 0750 0D       		.byte	0xd
 4211 0751 38       		.byte	0x38
 4212 0752 63070000 		.4byte	0x763
 4213 0756 07       		.uleb128 0x7
 4214 0757 C3050000 		.4byte	.LASF104
 4215 075b 0D       		.byte	0xd
 4216 075c 3C       		.byte	0x3c
 4217 075d 10010000 		.4byte	0x110
 4218 0761 00       		.byte	0
 4219 0762 00       		.byte	0
 4220 0763 04       		.uleb128 0x4
 4221 0764 7E000000 		.4byte	.LASF105
 4222 0768 0D       		.byte	0xd
 4223 0769 3D       		.byte	0x3d
 4224 076a 4E070000 		.4byte	0x74e
 4225 076e 14       		.uleb128 0x14
 4226 076f 04       		.byte	0x4
 4227 0770 09       		.byte	0x9
 4228 0771 FA       		.byte	0xfa
 4229 0772 CB070000 		.4byte	0x7cb
 4230 0776 15       		.uleb128 0x15
 4231 0777 44070000 		.4byte	.LASF106
 4232 077b 09       		.byte	0x9
 4233 077c 0101     		.2byte	0x101
 4234 077e 52010000 		.4byte	0x152
 4235 0782 15       		.uleb128 0x15
 4236 0783 22160000 		.4byte	.LASF107
 4237 0787 09       		.byte	0x9
 4238 0788 0801     		.2byte	0x108
 4239 078a 52010000 		.4byte	0x152
 4240 078e 15       		.uleb128 0x15
 4241 078f CA020000 		.4byte	.LASF108
 4242 0793 09       		.byte	0x9
 4243 0794 0F01     		.2byte	0x10f
 4244 0796 76030000 		.4byte	0x376
 4245 079a 15       		.uleb128 0x15
ARM GAS  /var/folders/sv/kgmgr77579zbf78p2zlhkdfr0000gn/T//ccygG6jq.s 			page 86


 4246 079b EE130000 		.4byte	.LASF109
 4247 079f 09       		.byte	0x9
 4248 07a0 1601     		.2byte	0x116
 4249 07a2 CB070000 		.4byte	0x7cb
 4250 07a6 15       		.uleb128 0x15
 4251 07a7 0C120000 		.4byte	.LASF110
 4252 07ab 09       		.byte	0x9
 4253 07ac 1E01     		.2byte	0x11e
 4254 07ae F6070000 		.4byte	0x7f6
 4255 07b2 15       		.uleb128 0x15
 4256 07b3 45000000 		.4byte	.LASF111
 4257 07b7 09       		.byte	0x9
 4258 07b8 2701     		.2byte	0x127
 4259 07ba 2D080000 		.4byte	0x82d
 4260 07be 15       		.uleb128 0x15
 4261 07bf 63030000 		.4byte	.LASF112
 4262 07c3 09       		.byte	0x9
 4263 07c4 2F01     		.2byte	0x12f
 4264 07c6 5D010000 		.4byte	0x15d
 4265 07ca 00       		.byte	0
 4266 07cb 0A       		.uleb128 0xa
 4267 07cc 04       		.byte	0x4
 4268 07cd 8E020000 		.4byte	0x28e
 4269 07d1 06       		.uleb128 0x6
 4270 07d2 1E050000 		.4byte	.LASF113
 4271 07d6 0C       		.byte	0xc
 4272 07d7 0E       		.byte	0xe
 4273 07d8 34       		.byte	0x34
 4274 07d9 F6070000 		.4byte	0x7f6
 4275 07dd 07       		.uleb128 0x7
 4276 07de 4D010000 		.4byte	.LASF114
 4277 07e2 0E       		.byte	0xe
 4278 07e3 35       		.byte	0x35
 4279 07e4 C3020000 		.4byte	0x2c3
 4280 07e8 00       		.byte	0
 4281 07e9 07       		.uleb128 0x7
 4282 07ea E8030000 		.4byte	.LASF115
 4283 07ee 0E       		.byte	0xe
 4284 07ef 37       		.byte	0x37
 4285 07f0 68010000 		.4byte	0x168
 4286 07f4 08       		.byte	0x8
 4287 07f5 00       		.byte	0
 4288 07f6 0A       		.uleb128 0xa
 4289 07f7 04       		.byte	0x4
 4290 07f8 D1070000 		.4byte	0x7d1
 4291 07fc 06       		.uleb128 0x6
 4292 07fd 00090000 		.4byte	.LASF116
 4293 0801 10       		.byte	0x10
 4294 0802 0F       		.byte	0xf
 4295 0803 39       		.byte	0x39
 4296 0804 2D080000 		.4byte	0x82d
 4297 0808 07       		.uleb128 0x7
 4298 0809 09100000 		.4byte	.LASF117
 4299 080d 0F       		.byte	0xf
 4300 080e 3A       		.byte	0x3a
 4301 080f C3020000 		.4byte	0x2c3
 4302 0813 00       		.byte	0
ARM GAS  /var/folders/sv/kgmgr77579zbf78p2zlhkdfr0000gn/T//ccygG6jq.s 			page 87


 4303 0814 07       		.uleb128 0x7
 4304 0815 45010000 		.4byte	.LASF118
 4305 0819 0F       		.byte	0xf
 4306 081a 3C       		.byte	0x3c
 4307 081b 99020000 		.4byte	0x299
 4308 081f 08       		.byte	0x8
 4309 0820 07       		.uleb128 0x7
 4310 0821 6C140000 		.4byte	.LASF119
 4311 0825 0F       		.byte	0xf
 4312 0826 3E       		.byte	0x3e
 4313 0827 70080000 		.4byte	0x870
 4314 082b 0C       		.byte	0xc
 4315 082c 00       		.byte	0
 4316 082d 0A       		.uleb128 0xa
 4317 082e 04       		.byte	0x4
 4318 082f FC070000 		.4byte	0x7fc
 4319 0833 0A       		.uleb128 0xa
 4320 0834 04       		.byte	0x4
 4321 0835 40080000 		.4byte	0x840
 4322 0839 02       		.uleb128 0x2
 4323 083a 01       		.byte	0x1
 4324 083b 08       		.byte	0x8
 4325 083c 96000000 		.4byte	.LASF120
 4326 0840 16       		.uleb128 0x16
 4327 0841 39080000 		.4byte	0x839
 4328 0845 05       		.uleb128 0x5
 4329 0846 73010000 		.4byte	0x173
 4330 084a 0A       		.uleb128 0xa
 4331 084b 04       		.byte	0x4
 4332 084c 78030000 		.4byte	0x378
 4333 0850 05       		.uleb128 0x5
 4334 0851 33080000 		.4byte	0x833
 4335 0855 17       		.uleb128 0x17
 4336 0856 E3050000 		.4byte	0x5e3
 4337 085a 65080000 		.4byte	0x865
 4338 085e 18       		.uleb128 0x18
 4339 085f AC040000 		.4byte	0x4ac
 4340 0863 3A       		.byte	0x3a
 4341 0864 00       		.byte	0
 4342 0865 04       		.uleb128 0x4
 4343 0866 38120000 		.4byte	.LASF121
 4344 086a 0F       		.byte	0xf
 4345 086b 34       		.byte	0x34
 4346 086c FC070000 		.4byte	0x7fc
 4347 0870 0A       		.uleb128 0xa
 4348 0871 04       		.byte	0x4
 4349 0872 65080000 		.4byte	0x865
 4350 0876 19       		.uleb128 0x19
 4351 0877 01       		.byte	0x1
 4352 0878 62000000 		.4byte	0x62
 4353 087c 10       		.byte	0x10
 4354 087d 23       		.byte	0x23
 4355 087e 95080000 		.4byte	0x895
 4356 0882 1A       		.uleb128 0x1a
 4357 0883 65090000 		.4byte	.LASF122
 4358 0887 00       		.byte	0
 4359 0888 1A       		.uleb128 0x1a
ARM GAS  /var/folders/sv/kgmgr77579zbf78p2zlhkdfr0000gn/T//ccygG6jq.s 			page 88


 4360 0889 52020000 		.4byte	.LASF123
 4361 088d 01       		.byte	0x1
 4362 088e 1A       		.uleb128 0x1a
 4363 088f DF060000 		.4byte	.LASF124
 4364 0893 02       		.byte	0x2
 4365 0894 00       		.byte	0
 4366 0895 04       		.uleb128 0x4
 4367 0896 7A040000 		.4byte	.LASF125
 4368 089a 10       		.byte	0x10
 4369 089b 27       		.byte	0x27
 4370 089c 76080000 		.4byte	0x876
 4371 08a0 19       		.uleb128 0x19
 4372 08a1 01       		.byte	0x1
 4373 08a2 62000000 		.4byte	0x62
 4374 08a6 10       		.byte	0x10
 4375 08a7 29       		.byte	0x29
 4376 08a8 B9080000 		.4byte	0x8b9
 4377 08ac 1A       		.uleb128 0x1a
 4378 08ad 240E0000 		.4byte	.LASF126
 4379 08b1 00       		.byte	0
 4380 08b2 1A       		.uleb128 0x1a
 4381 08b3 C0090000 		.4byte	.LASF127
 4382 08b7 01       		.byte	0x1
 4383 08b8 00       		.byte	0
 4384 08b9 04       		.uleb128 0x4
 4385 08ba 01040000 		.4byte	.LASF128
 4386 08be 10       		.byte	0x10
 4387 08bf 2C       		.byte	0x2c
 4388 08c0 A0080000 		.4byte	0x8a0
 4389 08c4 19       		.uleb128 0x19
 4390 08c5 01       		.byte	0x1
 4391 08c6 62000000 		.4byte	0x62
 4392 08ca 10       		.byte	0x10
 4393 08cb 2E       		.byte	0x2e
 4394 08cc E3080000 		.4byte	0x8e3
 4395 08d0 1A       		.uleb128 0x1a
 4396 08d1 710F0000 		.4byte	.LASF129
 4397 08d5 00       		.byte	0
 4398 08d6 1A       		.uleb128 0x1a
 4399 08d7 CB0C0000 		.4byte	.LASF130
 4400 08db 01       		.byte	0x1
 4401 08dc 1A       		.uleb128 0x1a
 4402 08dd DB130000 		.4byte	.LASF131
 4403 08e1 02       		.byte	0x2
 4404 08e2 00       		.byte	0
 4405 08e3 04       		.uleb128 0x4
 4406 08e4 ED090000 		.4byte	.LASF132
 4407 08e8 10       		.byte	0x10
 4408 08e9 32       		.byte	0x32
 4409 08ea C4080000 		.4byte	0x8c4
 4410 08ee 19       		.uleb128 0x19
 4411 08ef 01       		.byte	0x1
 4412 08f0 62000000 		.4byte	0x62
 4413 08f4 10       		.byte	0x10
 4414 08f5 34       		.byte	0x34
 4415 08f6 0D090000 		.4byte	0x90d
 4416 08fa 1A       		.uleb128 0x1a
ARM GAS  /var/folders/sv/kgmgr77579zbf78p2zlhkdfr0000gn/T//ccygG6jq.s 			page 89


 4417 08fb 1D120000 		.4byte	.LASF133
 4418 08ff 00       		.byte	0
 4419 0900 1A       		.uleb128 0x1a
 4420 0901 2A130000 		.4byte	.LASF134
 4421 0905 01       		.byte	0x1
 4422 0906 1A       		.uleb128 0x1a
 4423 0907 1A020000 		.4byte	.LASF135
 4424 090b 02       		.byte	0x2
 4425 090c 00       		.byte	0
 4426 090d 04       		.uleb128 0x4
 4427 090e 73140000 		.4byte	.LASF136
 4428 0912 10       		.byte	0x10
 4429 0913 38       		.byte	0x38
 4430 0914 EE080000 		.4byte	0x8ee
 4431 0918 19       		.uleb128 0x19
 4432 0919 01       		.byte	0x1
 4433 091a 62000000 		.4byte	0x62
 4434 091e 10       		.byte	0x10
 4435 091f 3A       		.byte	0x3a
 4436 0920 37090000 		.4byte	0x937
 4437 0924 1A       		.uleb128 0x1a
 4438 0925 6E000000 		.4byte	.LASF137
 4439 0929 00       		.byte	0
 4440 092a 1A       		.uleb128 0x1a
 4441 092b 99060000 		.4byte	.LASF138
 4442 092f 01       		.byte	0x1
 4443 0930 1A       		.uleb128 0x1a
 4444 0931 1D150000 		.4byte	.LASF139
 4445 0935 02       		.byte	0x2
 4446 0936 00       		.byte	0
 4447 0937 04       		.uleb128 0x4
 4448 0938 FD0B0000 		.4byte	.LASF140
 4449 093c 10       		.byte	0x10
 4450 093d 3E       		.byte	0x3e
 4451 093e 18090000 		.4byte	0x918
 4452 0942 19       		.uleb128 0x19
 4453 0943 01       		.byte	0x1
 4454 0944 62000000 		.4byte	0x62
 4455 0948 10       		.byte	0x10
 4456 0949 40       		.byte	0x40
 4457 094a 79090000 		.4byte	0x979
 4458 094e 1A       		.uleb128 0x1a
 4459 094f 2D0B0000 		.4byte	.LASF141
 4460 0953 00       		.byte	0
 4461 0954 1A       		.uleb128 0x1a
 4462 0955 FA0A0000 		.4byte	.LASF142
 4463 0959 01       		.byte	0x1
 4464 095a 1A       		.uleb128 0x1a
 4465 095b F00F0000 		.4byte	.LASF143
 4466 095f 02       		.byte	0x2
 4467 0960 1A       		.uleb128 0x1a
 4468 0961 9F130000 		.4byte	.LASF144
 4469 0965 03       		.byte	0x3
 4470 0966 1A       		.uleb128 0x1a
 4471 0967 08070000 		.4byte	.LASF145
 4472 096b 04       		.byte	0x4
 4473 096c 1A       		.uleb128 0x1a
ARM GAS  /var/folders/sv/kgmgr77579zbf78p2zlhkdfr0000gn/T//ccygG6jq.s 			page 90


 4474 096d BF030000 		.4byte	.LASF146
 4475 0971 05       		.byte	0x5
 4476 0972 1A       		.uleb128 0x1a
 4477 0973 BF040000 		.4byte	.LASF147
 4478 0977 06       		.byte	0x6
 4479 0978 00       		.byte	0
 4480 0979 04       		.uleb128 0x4
 4481 097a 11130000 		.4byte	.LASF148
 4482 097e 10       		.byte	0x10
 4483 097f 48       		.byte	0x48
 4484 0980 42090000 		.4byte	0x942
 4485 0984 19       		.uleb128 0x19
 4486 0985 01       		.byte	0x1
 4487 0986 62000000 		.4byte	0x62
 4488 098a 10       		.byte	0x10
 4489 098b 5F       		.byte	0x5f
 4490 098c A3090000 		.4byte	0x9a3
 4491 0990 1A       		.uleb128 0x1a
 4492 0991 500E0000 		.4byte	.LASF149
 4493 0995 00       		.byte	0
 4494 0996 1A       		.uleb128 0x1a
 4495 0997 91100000 		.4byte	.LASF150
 4496 099b 01       		.byte	0x1
 4497 099c 1A       		.uleb128 0x1a
 4498 099d 4A0C0000 		.4byte	.LASF151
 4499 09a1 02       		.byte	0x2
 4500 09a2 00       		.byte	0
 4501 09a3 04       		.uleb128 0x4
 4502 09a4 F2100000 		.4byte	.LASF152
 4503 09a8 10       		.byte	0x10
 4504 09a9 63       		.byte	0x63
 4505 09aa 84090000 		.4byte	0x984
 4506 09ae 13       		.uleb128 0x13
 4507 09af 1C       		.byte	0x1c
 4508 09b0 10       		.byte	0x10
 4509 09b1 65       		.byte	0x65
 4510 09b2 0B0A0000 		.4byte	0xa0b
 4511 09b6 07       		.uleb128 0x7
 4512 09b7 0D010000 		.4byte	.LASF153
 4513 09bb 10       		.byte	0x10
 4514 09bc 66       		.byte	0x66
 4515 09bd 25000000 		.4byte	0x25
 4516 09c1 00       		.byte	0
 4517 09c2 07       		.uleb128 0x7
 4518 09c3 EC020000 		.4byte	.LASF154
 4519 09c7 10       		.byte	0x10
 4520 09c8 67       		.byte	0x67
 4521 09c9 25000000 		.4byte	0x25
 4522 09cd 04       		.byte	0x4
 4523 09ce 07       		.uleb128 0x7
 4524 09cf 360C0000 		.4byte	.LASF155
 4525 09d3 10       		.byte	0x10
 4526 09d4 68       		.byte	0x68
 4527 09d5 25000000 		.4byte	0x25
 4528 09d9 08       		.byte	0x8
 4529 09da 07       		.uleb128 0x7
 4530 09db 27010000 		.4byte	.LASF156
ARM GAS  /var/folders/sv/kgmgr77579zbf78p2zlhkdfr0000gn/T//ccygG6jq.s 			page 91


 4531 09df 10       		.byte	0x10
 4532 09e0 69       		.byte	0x69
 4533 09e1 25000000 		.4byte	0x25
 4534 09e5 0C       		.byte	0xc
 4535 09e6 07       		.uleb128 0x7
 4536 09e7 E7150000 		.4byte	.LASF157
 4537 09eb 10       		.byte	0x10
 4538 09ec 6A       		.byte	0x6a
 4539 09ed 25000000 		.4byte	0x25
 4540 09f1 10       		.byte	0x10
 4541 09f2 07       		.uleb128 0x7
 4542 09f3 2B160000 		.4byte	.LASF158
 4543 09f7 10       		.byte	0x10
 4544 09f8 6B       		.byte	0x6b
 4545 09f9 E0000000 		.4byte	0xe0
 4546 09fd 14       		.byte	0x14
 4547 09fe 07       		.uleb128 0x7
 4548 09ff A2010000 		.4byte	.LASF159
 4549 0a03 10       		.byte	0x10
 4550 0a04 6C       		.byte	0x6c
 4551 0a05 EB000000 		.4byte	0xeb
 4552 0a09 18       		.byte	0x18
 4553 0a0a 00       		.byte	0
 4554 0a0b 04       		.uleb128 0x4
 4555 0a0c 770A0000 		.4byte	.LASF160
 4556 0a10 10       		.byte	0x10
 4557 0a11 6D       		.byte	0x6d
 4558 0a12 AE090000 		.4byte	0x9ae
 4559 0a16 19       		.uleb128 0x19
 4560 0a17 01       		.byte	0x1
 4561 0a18 62000000 		.4byte	0x62
 4562 0a1c 10       		.byte	0x10
 4563 0a1d 6F       		.byte	0x6f
 4564 0a1e 3B0A0000 		.4byte	0xa3b
 4565 0a22 1A       		.uleb128 0x1a
 4566 0a23 BA0C0000 		.4byte	.LASF161
 4567 0a27 00       		.byte	0
 4568 0a28 1A       		.uleb128 0x1a
 4569 0a29 3F110000 		.4byte	.LASF162
 4570 0a2d 01       		.byte	0x1
 4571 0a2e 1A       		.uleb128 0x1a
 4572 0a2f ED010000 		.4byte	.LASF163
 4573 0a33 02       		.byte	0x2
 4574 0a34 1A       		.uleb128 0x1a
 4575 0a35 C7130000 		.4byte	.LASF164
 4576 0a39 03       		.byte	0x3
 4577 0a3a 00       		.byte	0
 4578 0a3b 04       		.uleb128 0x4
 4579 0a3c 0B0C0000 		.4byte	.LASF165
 4580 0a40 10       		.byte	0x10
 4581 0a41 74       		.byte	0x74
 4582 0a42 160A0000 		.4byte	0xa16
 4583 0a46 1B       		.uleb128 0x1b
 4584 0a47 7401     		.2byte	0x174
 4585 0a49 10       		.byte	0x10
 4586 0a4a 88       		.byte	0x88
 4587 0a4b FB0E0000 		.4byte	0xefb
ARM GAS  /var/folders/sv/kgmgr77579zbf78p2zlhkdfr0000gn/T//ccygG6jq.s 			page 92


 4588 0a4f 07       		.uleb128 0x7
 4589 0a50 19160000 		.4byte	.LASF166
 4590 0a54 10       		.byte	0x10
 4591 0a55 8A       		.byte	0x8a
 4592 0a56 95080000 		.4byte	0x895
 4593 0a5a 00       		.byte	0
 4594 0a5b 07       		.uleb128 0x7
 4595 0a5c 81150000 		.4byte	.LASF167
 4596 0a60 10       		.byte	0x10
 4597 0a61 8B       		.byte	0x8b
 4598 0a62 B9080000 		.4byte	0x8b9
 4599 0a66 01       		.byte	0x1
 4600 0a67 07       		.uleb128 0x7
 4601 0a68 FC050000 		.4byte	.LASF168
 4602 0a6c 10       		.byte	0x10
 4603 0a6d 8C       		.byte	0x8c
 4604 0a6e 37090000 		.4byte	0x937
 4605 0a72 02       		.byte	0x2
 4606 0a73 07       		.uleb128 0x7
 4607 0a74 04020000 		.4byte	.LASF169
 4608 0a78 10       		.byte	0x10
 4609 0a79 8D       		.byte	0x8d
 4610 0a7a E3080000 		.4byte	0x8e3
 4611 0a7e 03       		.byte	0x3
 4612 0a7f 07       		.uleb128 0x7
 4613 0a80 BC100000 		.4byte	.LASF170
 4614 0a84 10       		.byte	0x10
 4615 0a85 8F       		.byte	0x8f
 4616 0a86 25000000 		.4byte	0x25
 4617 0a8a 04       		.byte	0x4
 4618 0a8b 07       		.uleb128 0x7
 4619 0a8c 5D060000 		.4byte	.LASF171
 4620 0a90 10       		.byte	0x10
 4621 0a91 90       		.byte	0x90
 4622 0a92 25000000 		.4byte	0x25
 4623 0a96 08       		.byte	0x8
 4624 0a97 07       		.uleb128 0x7
 4625 0a98 DB0A0000 		.4byte	.LASF172
 4626 0a9c 10       		.byte	0x10
 4627 0a9d 91       		.byte	0x91
 4628 0a9e 25000000 		.4byte	0x25
 4629 0aa2 0C       		.byte	0xc
 4630 0aa3 07       		.uleb128 0x7
 4631 0aa4 77030000 		.4byte	.LASF173
 4632 0aa8 10       		.byte	0x10
 4633 0aa9 92       		.byte	0x92
 4634 0aaa 25000000 		.4byte	0x25
 4635 0aae 10       		.byte	0x10
 4636 0aaf 07       		.uleb128 0x7
 4637 0ab0 D80F0000 		.4byte	.LASF174
 4638 0ab4 10       		.byte	0x10
 4639 0ab5 93       		.byte	0x93
 4640 0ab6 25000000 		.4byte	0x25
 4641 0aba 14       		.byte	0x14
 4642 0abb 07       		.uleb128 0x7
 4643 0abc 8F0F0000 		.4byte	.LASF175
 4644 0ac0 10       		.byte	0x10
ARM GAS  /var/folders/sv/kgmgr77579zbf78p2zlhkdfr0000gn/T//ccygG6jq.s 			page 93


 4645 0ac1 94       		.byte	0x94
 4646 0ac2 25000000 		.4byte	0x25
 4647 0ac6 18       		.byte	0x18
 4648 0ac7 07       		.uleb128 0x7
 4649 0ac8 8D0B0000 		.4byte	.LASF176
 4650 0acc 10       		.byte	0x10
 4651 0acd 95       		.byte	0x95
 4652 0ace 25000000 		.4byte	0x25
 4653 0ad2 1C       		.byte	0x1c
 4654 0ad3 07       		.uleb128 0x7
 4655 0ad4 6A030000 		.4byte	.LASF177
 4656 0ad8 10       		.byte	0x10
 4657 0ad9 96       		.byte	0x96
 4658 0ada 25000000 		.4byte	0x25
 4659 0ade 20       		.byte	0x20
 4660 0adf 07       		.uleb128 0x7
 4661 0ae0 54160000 		.4byte	.LASF178
 4662 0ae4 10       		.byte	0x10
 4663 0ae5 97       		.byte	0x97
 4664 0ae6 25000000 		.4byte	0x25
 4665 0aea 24       		.byte	0x24
 4666 0aeb 07       		.uleb128 0x7
 4667 0aec 660C0000 		.4byte	.LASF179
 4668 0af0 10       		.byte	0x10
 4669 0af1 98       		.byte	0x98
 4670 0af2 25000000 		.4byte	0x25
 4671 0af6 28       		.byte	0x28
 4672 0af7 07       		.uleb128 0x7
 4673 0af8 2F020000 		.4byte	.LASF180
 4674 0afc 10       		.byte	0x10
 4675 0afd 99       		.byte	0x99
 4676 0afe 25000000 		.4byte	0x25
 4677 0b02 2C       		.byte	0x2c
 4678 0b03 07       		.uleb128 0x7
 4679 0b04 13120000 		.4byte	.LASF181
 4680 0b08 10       		.byte	0x10
 4681 0b09 9A       		.byte	0x9a
 4682 0b0a 25000000 		.4byte	0x25
 4683 0b0e 30       		.byte	0x30
 4684 0b0f 07       		.uleb128 0x7
 4685 0b10 EE040000 		.4byte	.LASF182
 4686 0b14 10       		.byte	0x10
 4687 0b15 9B       		.byte	0x9b
 4688 0b16 25000000 		.4byte	0x25
 4689 0b1a 34       		.byte	0x34
 4690 0b1b 07       		.uleb128 0x7
 4691 0b1c 8B090000 		.4byte	.LASF183
 4692 0b20 10       		.byte	0x10
 4693 0b21 9C       		.byte	0x9c
 4694 0b22 25000000 		.4byte	0x25
 4695 0b26 38       		.byte	0x38
 4696 0b27 07       		.uleb128 0x7
 4697 0b28 EE030000 		.4byte	.LASF184
 4698 0b2c 10       		.byte	0x10
 4699 0b2d 9D       		.byte	0x9d
 4700 0b2e FB0E0000 		.4byte	0xefb
 4701 0b32 3C       		.byte	0x3c
ARM GAS  /var/folders/sv/kgmgr77579zbf78p2zlhkdfr0000gn/T//ccygG6jq.s 			page 94


 4702 0b33 07       		.uleb128 0x7
 4703 0b34 6C0B0000 		.4byte	.LASF185
 4704 0b38 10       		.byte	0x10
 4705 0b39 9E       		.byte	0x9e
 4706 0b3a 25000000 		.4byte	0x25
 4707 0b3e 40       		.byte	0x40
 4708 0b3f 07       		.uleb128 0x7
 4709 0b40 EF110000 		.4byte	.LASF186
 4710 0b44 10       		.byte	0x10
 4711 0b45 9F       		.byte	0x9f
 4712 0b46 25000000 		.4byte	0x25
 4713 0b4a 44       		.byte	0x44
 4714 0b4b 07       		.uleb128 0x7
 4715 0b4c 66160000 		.4byte	.LASF187
 4716 0b50 10       		.byte	0x10
 4717 0b51 A0       		.byte	0xa0
 4718 0b52 25000000 		.4byte	0x25
 4719 0b56 48       		.byte	0x48
 4720 0b57 07       		.uleb128 0x7
 4721 0b58 71070000 		.4byte	.LASF188
 4722 0b5c 10       		.byte	0x10
 4723 0b5d A1       		.byte	0xa1
 4724 0b5e 25000000 		.4byte	0x25
 4725 0b62 4C       		.byte	0x4c
 4726 0b63 07       		.uleb128 0x7
 4727 0b64 2C150000 		.4byte	.LASF189
 4728 0b68 10       		.byte	0x10
 4729 0b69 A2       		.byte	0xa2
 4730 0b6a 25000000 		.4byte	0x25
 4731 0b6e 50       		.byte	0x50
 4732 0b6f 07       		.uleb128 0x7
 4733 0b70 5D0D0000 		.4byte	.LASF190
 4734 0b74 10       		.byte	0x10
 4735 0b75 A3       		.byte	0xa3
 4736 0b76 25000000 		.4byte	0x25
 4737 0b7a 54       		.byte	0x54
 4738 0b7b 07       		.uleb128 0x7
 4739 0b7c 7C020000 		.4byte	.LASF191
 4740 0b80 10       		.byte	0x10
 4741 0b81 A4       		.byte	0xa4
 4742 0b82 25000000 		.4byte	0x25
 4743 0b86 58       		.byte	0x58
 4744 0b87 07       		.uleb128 0x7
 4745 0b88 BC0F0000 		.4byte	.LASF192
 4746 0b8c 10       		.byte	0x10
 4747 0b8d A5       		.byte	0xa5
 4748 0b8e 25000000 		.4byte	0x25
 4749 0b92 5C       		.byte	0x5c
 4750 0b93 07       		.uleb128 0x7
 4751 0b94 C1150000 		.4byte	.LASF193
 4752 0b98 10       		.byte	0x10
 4753 0b99 A6       		.byte	0xa6
 4754 0b9a 25000000 		.4byte	0x25
 4755 0b9e 60       		.byte	0x60
 4756 0b9f 07       		.uleb128 0x7
 4757 0ba0 35070000 		.4byte	.LASF194
 4758 0ba4 10       		.byte	0x10
ARM GAS  /var/folders/sv/kgmgr77579zbf78p2zlhkdfr0000gn/T//ccygG6jq.s 			page 95


 4759 0ba5 A8       		.byte	0xa8
 4760 0ba6 25000000 		.4byte	0x25
 4761 0baa 64       		.byte	0x64
 4762 0bab 07       		.uleb128 0x7
 4763 0bac C5120000 		.4byte	.LASF195
 4764 0bb0 10       		.byte	0x10
 4765 0bb1 A9       		.byte	0xa9
 4766 0bb2 25000000 		.4byte	0x25
 4767 0bb6 68       		.byte	0x68
 4768 0bb7 07       		.uleb128 0x7
 4769 0bb8 21030000 		.4byte	.LASF196
 4770 0bbc 10       		.byte	0x10
 4771 0bbd AA       		.byte	0xaa
 4772 0bbe 25000000 		.4byte	0x25
 4773 0bc2 6C       		.byte	0x6c
 4774 0bc3 07       		.uleb128 0x7
 4775 0bc4 DD000000 		.4byte	.LASF197
 4776 0bc8 10       		.byte	0x10
 4777 0bc9 AB       		.byte	0xab
 4778 0bca 25000000 		.4byte	0x25
 4779 0bce 70       		.byte	0x70
 4780 0bcf 07       		.uleb128 0x7
 4781 0bd0 4A100000 		.4byte	.LASF198
 4782 0bd4 10       		.byte	0x10
 4783 0bd5 AC       		.byte	0xac
 4784 0bd6 25000000 		.4byte	0x25
 4785 0bda 74       		.byte	0x74
 4786 0bdb 07       		.uleb128 0x7
 4787 0bdc 2D0A0000 		.4byte	.LASF199
 4788 0be0 10       		.byte	0x10
 4789 0be1 AD       		.byte	0xad
 4790 0be2 25000000 		.4byte	0x25
 4791 0be6 78       		.byte	0x78
 4792 0be7 07       		.uleb128 0x7
 4793 0be8 6B060000 		.4byte	.LASF200
 4794 0bec 10       		.byte	0x10
 4795 0bed AF       		.byte	0xaf
 4796 0bee 25000000 		.4byte	0x25
 4797 0bf2 7C       		.byte	0x7c
 4798 0bf3 07       		.uleb128 0x7
 4799 0bf4 2E100000 		.4byte	.LASF201
 4800 0bf8 10       		.byte	0x10
 4801 0bf9 B0       		.byte	0xb0
 4802 0bfa 25000000 		.4byte	0x25
 4803 0bfe 80       		.byte	0x80
 4804 0bff 07       		.uleb128 0x7
 4805 0c00 48140000 		.4byte	.LASF202
 4806 0c04 10       		.byte	0x10
 4807 0c05 B1       		.byte	0xb1
 4808 0c06 25000000 		.4byte	0x25
 4809 0c0a 84       		.byte	0x84
 4810 0c0b 07       		.uleb128 0x7
 4811 0c0c 59110000 		.4byte	.LASF203
 4812 0c10 10       		.byte	0x10
 4813 0c11 B2       		.byte	0xb2
 4814 0c12 25000000 		.4byte	0x25
 4815 0c16 88       		.byte	0x88
ARM GAS  /var/folders/sv/kgmgr77579zbf78p2zlhkdfr0000gn/T//ccygG6jq.s 			page 96


 4816 0c17 07       		.uleb128 0x7
 4817 0c18 6B010000 		.4byte	.LASF204
 4818 0c1c 10       		.byte	0x10
 4819 0c1d B3       		.byte	0xb3
 4820 0c1e 25000000 		.4byte	0x25
 4821 0c22 8C       		.byte	0x8c
 4822 0c23 07       		.uleb128 0x7
 4823 0c24 D20B0000 		.4byte	.LASF205
 4824 0c28 10       		.byte	0x10
 4825 0c29 B4       		.byte	0xb4
 4826 0c2a 25000000 		.4byte	0x25
 4827 0c2e 90       		.byte	0x90
 4828 0c2f 07       		.uleb128 0x7
 4829 0c30 64050000 		.4byte	.LASF206
 4830 0c34 10       		.byte	0x10
 4831 0c35 B5       		.byte	0xb5
 4832 0c36 25000000 		.4byte	0x25
 4833 0c3a 94       		.byte	0x94
 4834 0c3b 07       		.uleb128 0x7
 4835 0c3c 77050000 		.4byte	.LASF207
 4836 0c40 10       		.byte	0x10
 4837 0c41 B7       		.byte	0xb7
 4838 0c42 020F0000 		.4byte	0xf02
 4839 0c46 98       		.byte	0x98
 4840 0c47 07       		.uleb128 0x7
 4841 0c48 5D070000 		.4byte	.LASF208
 4842 0c4c 10       		.byte	0x10
 4843 0c4d B8       		.byte	0xb8
 4844 0c4e 25000000 		.4byte	0x25
 4845 0c52 A0       		.byte	0xa0
 4846 0c53 07       		.uleb128 0x7
 4847 0c54 60040000 		.4byte	.LASF209
 4848 0c58 10       		.byte	0x10
 4849 0c59 BA       		.byte	0xba
 4850 0c5a 25000000 		.4byte	0x25
 4851 0c5e A4       		.byte	0xa4
 4852 0c5f 07       		.uleb128 0x7
 4853 0c60 34040000 		.4byte	.LASF210
 4854 0c64 10       		.byte	0x10
 4855 0c65 BB       		.byte	0xbb
 4856 0c66 25000000 		.4byte	0x25
 4857 0c6a A8       		.byte	0xa8
 4858 0c6b 07       		.uleb128 0x7
 4859 0c6c 5C090000 		.4byte	.LASF211
 4860 0c70 10       		.byte	0x10
 4861 0c71 BC       		.byte	0xbc
 4862 0c72 25000000 		.4byte	0x25
 4863 0c76 AC       		.byte	0xac
 4864 0c77 07       		.uleb128 0x7
 4865 0c78 56120000 		.4byte	.LASF212
 4866 0c7c 10       		.byte	0x10
 4867 0c7d BD       		.byte	0xbd
 4868 0c7e 25000000 		.4byte	0x25
 4869 0c82 B0       		.byte	0xb0
 4870 0c83 07       		.uleb128 0x7
 4871 0c84 9D0D0000 		.4byte	.LASF213
 4872 0c88 10       		.byte	0x10
ARM GAS  /var/folders/sv/kgmgr77579zbf78p2zlhkdfr0000gn/T//ccygG6jq.s 			page 97


 4873 0c89 BE       		.byte	0xbe
 4874 0c8a 25000000 		.4byte	0x25
 4875 0c8e B4       		.byte	0xb4
 4876 0c8f 07       		.uleb128 0x7
 4877 0c90 AB0A0000 		.4byte	.LASF214
 4878 0c94 10       		.byte	0x10
 4879 0c95 BF       		.byte	0xbf
 4880 0c96 FB0E0000 		.4byte	0xefb
 4881 0c9a B8       		.byte	0xb8
 4882 0c9b 07       		.uleb128 0x7
 4883 0c9c 070D0000 		.4byte	.LASF215
 4884 0ca0 10       		.byte	0x10
 4885 0ca1 C0       		.byte	0xc0
 4886 0ca2 25000000 		.4byte	0x25
 4887 0ca6 BC       		.byte	0xbc
 4888 0ca7 07       		.uleb128 0x7
 4889 0ca8 510D0000 		.4byte	.LASF216
 4890 0cac 10       		.byte	0x10
 4891 0cad C1       		.byte	0xc1
 4892 0cae 25000000 		.4byte	0x25
 4893 0cb2 C0       		.byte	0xc0
 4894 0cb3 07       		.uleb128 0x7
 4895 0cb4 800D0000 		.4byte	.LASF217
 4896 0cb8 10       		.byte	0x10
 4897 0cb9 C2       		.byte	0xc2
 4898 0cba 25000000 		.4byte	0x25
 4899 0cbe C4       		.byte	0xc4
 4900 0cbf 07       		.uleb128 0x7
 4901 0cc0 480F0000 		.4byte	.LASF218
 4902 0cc4 10       		.byte	0x10
 4903 0cc5 C3       		.byte	0xc3
 4904 0cc6 25000000 		.4byte	0x25
 4905 0cca C8       		.byte	0xc8
 4906 0ccb 07       		.uleb128 0x7
 4907 0ccc AF010000 		.4byte	.LASF219
 4908 0cd0 10       		.byte	0x10
 4909 0cd1 C4       		.byte	0xc4
 4910 0cd2 25000000 		.4byte	0x25
 4911 0cd6 CC       		.byte	0xcc
 4912 0cd7 07       		.uleb128 0x7
 4913 0cd8 2E000000 		.4byte	.LASF220
 4914 0cdc 10       		.byte	0x10
 4915 0cdd C5       		.byte	0xc5
 4916 0cde 25000000 		.4byte	0x25
 4917 0ce2 D0       		.byte	0xd0
 4918 0ce3 07       		.uleb128 0x7
 4919 0ce4 E00C0000 		.4byte	.LASF221
 4920 0ce8 10       		.byte	0x10
 4921 0ce9 C6       		.byte	0xc6
 4922 0cea 25000000 		.4byte	0x25
 4923 0cee D4       		.byte	0xd4
 4924 0cef 07       		.uleb128 0x7
 4925 0cf0 9A0C0000 		.4byte	.LASF222
 4926 0cf4 10       		.byte	0x10
 4927 0cf5 C7       		.byte	0xc7
 4928 0cf6 25000000 		.4byte	0x25
 4929 0cfa D8       		.byte	0xd8
ARM GAS  /var/folders/sv/kgmgr77579zbf78p2zlhkdfr0000gn/T//ccygG6jq.s 			page 98


 4930 0cfb 07       		.uleb128 0x7
 4931 0cfc B5020000 		.4byte	.LASF223
 4932 0d00 10       		.byte	0x10
 4933 0d01 C8       		.byte	0xc8
 4934 0d02 25000000 		.4byte	0x25
 4935 0d06 DC       		.byte	0xdc
 4936 0d07 07       		.uleb128 0x7
 4937 0d08 67020000 		.4byte	.LASF224
 4938 0d0c 10       		.byte	0x10
 4939 0d0d C9       		.byte	0xc9
 4940 0d0e 25000000 		.4byte	0x25
 4941 0d12 E0       		.byte	0xe0
 4942 0d13 07       		.uleb128 0x7
 4943 0d14 03110000 		.4byte	.LASF225
 4944 0d18 10       		.byte	0x10
 4945 0d19 CA       		.byte	0xca
 4946 0d1a 25000000 		.4byte	0x25
 4947 0d1e E4       		.byte	0xe4
 4948 0d1f 07       		.uleb128 0x7
 4949 0d20 CA050000 		.4byte	.LASF226
 4950 0d24 10       		.byte	0x10
 4951 0d25 CB       		.byte	0xcb
 4952 0d26 25000000 		.4byte	0x25
 4953 0d2a E8       		.byte	0xe8
 4954 0d2b 07       		.uleb128 0x7
 4955 0d2c 0E040000 		.4byte	.LASF227
 4956 0d30 10       		.byte	0x10
 4957 0d31 CC       		.byte	0xcc
 4958 0d32 25000000 		.4byte	0x25
 4959 0d36 EC       		.byte	0xec
 4960 0d37 07       		.uleb128 0x7
 4961 0d38 320F0000 		.4byte	.LASF228
 4962 0d3c 10       		.byte	0x10
 4963 0d3d CD       		.byte	0xcd
 4964 0d3e 25000000 		.4byte	0x25
 4965 0d42 F0       		.byte	0xf0
 4966 0d43 07       		.uleb128 0x7
 4967 0d44 680D0000 		.4byte	.LASF229
 4968 0d48 10       		.byte	0x10
 4969 0d49 CE       		.byte	0xce
 4970 0d4a 25000000 		.4byte	0x25
 4971 0d4e F4       		.byte	0xf4
 4972 0d4f 07       		.uleb128 0x7
 4973 0d50 4C090000 		.4byte	.LASF230
 4974 0d54 10       		.byte	0x10
 4975 0d55 CF       		.byte	0xcf
 4976 0d56 0D090000 		.4byte	0x90d
 4977 0d5a F8       		.byte	0xf8
 4978 0d5b 07       		.uleb128 0x7
 4979 0d5c C00E0000 		.4byte	.LASF231
 4980 0d60 10       		.byte	0x10
 4981 0d61 D0       		.byte	0xd0
 4982 0d62 120F0000 		.4byte	0xf12
 4983 0d66 F9       		.byte	0xf9
 4984 0d67 1C       		.uleb128 0x1c
 4985 0d68 16100000 		.4byte	.LASF232
 4986 0d6c 10       		.byte	0x10
ARM GAS  /var/folders/sv/kgmgr77579zbf78p2zlhkdfr0000gn/T//ccygG6jq.s 			page 99


 4987 0d6d D1       		.byte	0xd1
 4988 0d6e 25000000 		.4byte	0x25
 4989 0d72 0401     		.2byte	0x104
 4990 0d74 1C       		.uleb128 0x1c
 4991 0d75 45120000 		.4byte	.LASF233
 4992 0d79 10       		.byte	0x10
 4993 0d7a D2       		.byte	0xd2
 4994 0d7b FB0E0000 		.4byte	0xefb
 4995 0d7f 0801     		.2byte	0x108
 4996 0d81 1C       		.uleb128 0x1c
 4997 0d82 DA100000 		.4byte	.LASF234
 4998 0d86 10       		.byte	0x10
 4999 0d87 D3       		.byte	0xd3
 5000 0d88 FB0E0000 		.4byte	0xefb
 5001 0d8c 0901     		.2byte	0x109
 5002 0d8e 1C       		.uleb128 0x1c
 5003 0d8f AE130000 		.4byte	.LASF235
 5004 0d93 10       		.byte	0x10
 5005 0d94 D4       		.byte	0xd4
 5006 0d95 25000000 		.4byte	0x25
 5007 0d99 0C01     		.2byte	0x10c
 5008 0d9b 1C       		.uleb128 0x1c
 5009 0d9c AB150000 		.4byte	.LASF236
 5010 0da0 10       		.byte	0x10
 5011 0da1 D5       		.byte	0xd5
 5012 0da2 FB0E0000 		.4byte	0xefb
 5013 0da6 1001     		.2byte	0x110
 5014 0da8 1C       		.uleb128 0x1c
 5015 0da9 3C160000 		.4byte	.LASF237
 5016 0dad 10       		.byte	0x10
 5017 0dae D6       		.byte	0xd6
 5018 0daf 25000000 		.4byte	0x25
 5019 0db3 1401     		.2byte	0x114
 5020 0db5 1C       		.uleb128 0x1c
 5021 0db6 080A0000 		.4byte	.LASF238
 5022 0dba 10       		.byte	0x10
 5023 0dbb D8       		.byte	0xd8
 5024 0dbc 25000000 		.4byte	0x25
 5025 0dc0 1801     		.2byte	0x118
 5026 0dc2 1C       		.uleb128 0x1c
 5027 0dc3 680F0000 		.4byte	.LASF239
 5028 0dc7 10       		.byte	0x10
 5029 0dc8 D9       		.byte	0xd9
 5030 0dc9 25000000 		.4byte	0x25
 5031 0dcd 1C01     		.2byte	0x11c
 5032 0dcf 1C       		.uleb128 0x1c
 5033 0dd0 92140000 		.4byte	.LASF240
 5034 0dd4 10       		.byte	0x10
 5035 0dd5 DA       		.byte	0xda
 5036 0dd6 25000000 		.4byte	0x25
 5037 0dda 2001     		.2byte	0x120
 5038 0ddc 1C       		.uleb128 0x1c
 5039 0ddd 7D130000 		.4byte	.LASF241
 5040 0de1 10       		.byte	0x10
 5041 0de2 DB       		.byte	0xdb
 5042 0de3 25000000 		.4byte	0x25
 5043 0de7 2401     		.2byte	0x124
ARM GAS  /var/folders/sv/kgmgr77579zbf78p2zlhkdfr0000gn/T//ccygG6jq.s 			page 100


 5044 0de9 1C       		.uleb128 0x1c
 5045 0dea CA010000 		.4byte	.LASF242
 5046 0dee 10       		.byte	0x10
 5047 0def DC       		.byte	0xdc
 5048 0df0 FB0E0000 		.4byte	0xefb
 5049 0df4 2801     		.2byte	0x128
 5050 0df6 1C       		.uleb128 0x1c
 5051 0df7 82090000 		.4byte	.LASF243
 5052 0dfb 10       		.byte	0x10
 5053 0dfc DE       		.byte	0xde
 5054 0dfd 25000000 		.4byte	0x25
 5055 0e01 2C01     		.2byte	0x12c
 5056 0e03 1C       		.uleb128 0x1c
 5057 0e04 C1110000 		.4byte	.LASF244
 5058 0e08 10       		.byte	0x10
 5059 0e09 DF       		.byte	0xdf
 5060 0e0a 25000000 		.4byte	0x25
 5061 0e0e 3001     		.2byte	0x130
 5062 0e10 1C       		.uleb128 0x1c
 5063 0e11 A6110000 		.4byte	.LASF245
 5064 0e15 10       		.byte	0x10
 5065 0e16 E0       		.byte	0xe0
 5066 0e17 25000000 		.4byte	0x25
 5067 0e1b 3401     		.2byte	0x134
 5068 0e1d 1C       		.uleb128 0x1c
 5069 0e1e 0B160000 		.4byte	.LASF246
 5070 0e22 10       		.byte	0x10
 5071 0e23 E1       		.byte	0xe1
 5072 0e24 25000000 		.4byte	0x25
 5073 0e28 3801     		.2byte	0x138
 5074 0e2a 1C       		.uleb128 0x1c
 5075 0e2b 19090000 		.4byte	.LASF247
 5076 0e2f 10       		.byte	0x10
 5077 0e30 E3       		.byte	0xe3
 5078 0e31 25000000 		.4byte	0x25
 5079 0e35 3C01     		.2byte	0x13c
 5080 0e37 1C       		.uleb128 0x1c
 5081 0e38 E4080000 		.4byte	.LASF248
 5082 0e3c 10       		.byte	0x10
 5083 0e3d E4       		.byte	0xe4
 5084 0e3e 25000000 		.4byte	0x25
 5085 0e42 4001     		.2byte	0x140
 5086 0e44 1C       		.uleb128 0x1c
 5087 0e45 A30A0000 		.4byte	.LASF249
 5088 0e49 10       		.byte	0x10
 5089 0e4a E5       		.byte	0xe5
 5090 0e4b 25000000 		.4byte	0x25
 5091 0e4f 4401     		.2byte	0x144
 5092 0e51 1C       		.uleb128 0x1c
 5093 0e52 AF090000 		.4byte	.LASF250
 5094 0e56 10       		.byte	0x10
 5095 0e57 E6       		.byte	0xe6
 5096 0e58 25000000 		.4byte	0x25
 5097 0e5c 4801     		.2byte	0x148
 5098 0e5e 1C       		.uleb128 0x1c
 5099 0e5f A50C0000 		.4byte	.LASF251
 5100 0e63 10       		.byte	0x10
ARM GAS  /var/folders/sv/kgmgr77579zbf78p2zlhkdfr0000gn/T//ccygG6jq.s 			page 101


 5101 0e64 E8       		.byte	0xe8
 5102 0e65 E0000000 		.4byte	0xe0
 5103 0e69 4C01     		.2byte	0x14c
 5104 0e6b 1C       		.uleb128 0x1c
 5105 0e6c 4F040000 		.4byte	.LASF252
 5106 0e70 10       		.byte	0x10
 5107 0e71 E9       		.byte	0xe9
 5108 0e72 25000000 		.4byte	0x25
 5109 0e76 5001     		.2byte	0x150
 5110 0e78 1C       		.uleb128 0x1c
 5111 0e79 31140000 		.4byte	.LASF253
 5112 0e7d 10       		.byte	0x10
 5113 0e7e EA       		.byte	0xea
 5114 0e7f 25000000 		.4byte	0x25
 5115 0e83 5401     		.2byte	0x154
 5116 0e85 1C       		.uleb128 0x1c
 5117 0e86 8C0D0000 		.4byte	.LASF254
 5118 0e8a 10       		.byte	0x10
 5119 0e8b EB       		.byte	0xeb
 5120 0e8c EB000000 		.4byte	0xeb
 5121 0e90 5801     		.2byte	0x158
 5122 0e92 1C       		.uleb128 0x1c
 5123 0e93 D1080000 		.4byte	.LASF255
 5124 0e97 10       		.byte	0x10
 5125 0e98 EC       		.byte	0xec
 5126 0e99 A3090000 		.4byte	0x9a3
 5127 0e9d 5C01     		.2byte	0x15c
 5128 0e9f 1C       		.uleb128 0x1c
 5129 0ea0 8F010000 		.4byte	.LASF256
 5130 0ea4 10       		.byte	0x10
 5131 0ea5 ED       		.byte	0xed
 5132 0ea6 FB0E0000 		.4byte	0xefb
 5133 0eaa 5D01     		.2byte	0x15d
 5134 0eac 1C       		.uleb128 0x1c
 5135 0ead 99030000 		.4byte	.LASF257
 5136 0eb1 10       		.byte	0x10
 5137 0eb2 EE       		.byte	0xee
 5138 0eb3 3B0A0000 		.4byte	0xa3b
 5139 0eb7 5E01     		.2byte	0x15e
 5140 0eb9 1C       		.uleb128 0x1c
 5141 0eba FC000000 		.4byte	.LASF258
 5142 0ebe 10       		.byte	0x10
 5143 0ebf EF       		.byte	0xef
 5144 0ec0 2C000000 		.4byte	0x2c
 5145 0ec4 6001     		.2byte	0x160
 5146 0ec6 1C       		.uleb128 0x1c
 5147 0ec7 CA100000 		.4byte	.LASF259
 5148 0ecb 10       		.byte	0x10
 5149 0ecc F0       		.byte	0xf0
 5150 0ecd 25000000 		.4byte	0x25
 5151 0ed1 6401     		.2byte	0x164
 5152 0ed3 1C       		.uleb128 0x1c
 5153 0ed4 B3050000 		.4byte	.LASF260
 5154 0ed8 10       		.byte	0x10
 5155 0ed9 F1       		.byte	0xf1
 5156 0eda 25000000 		.4byte	0x25
 5157 0ede 6801     		.2byte	0x168
ARM GAS  /var/folders/sv/kgmgr77579zbf78p2zlhkdfr0000gn/T//ccygG6jq.s 			page 102


 5158 0ee0 1C       		.uleb128 0x1c
 5159 0ee1 D3000000 		.4byte	.LASF261
 5160 0ee5 10       		.byte	0x10
 5161 0ee6 F2       		.byte	0xf2
 5162 0ee7 25000000 		.4byte	0x25
 5163 0eeb 6C01     		.2byte	0x16c
 5164 0eed 1C       		.uleb128 0x1c
 5165 0eee 9A150000 		.4byte	.LASF262
 5166 0ef2 10       		.byte	0x10
 5167 0ef3 F3       		.byte	0xf3
 5168 0ef4 25000000 		.4byte	0x25
 5169 0ef8 7001     		.2byte	0x170
 5170 0efa 00       		.byte	0
 5171 0efb 02       		.uleb128 0x2
 5172 0efc 01       		.byte	0x1
 5173 0efd 02       		.byte	0x2
 5174 0efe 8E070000 		.4byte	.LASF263
 5175 0f02 17       		.uleb128 0x17
 5176 0f03 BF000000 		.4byte	0xbf
 5177 0f07 120F0000 		.4byte	0xf12
 5178 0f0b 18       		.uleb128 0x18
 5179 0f0c AC040000 		.4byte	0x4ac
 5180 0f10 07       		.byte	0x7
 5181 0f11 00       		.byte	0
 5182 0f12 17       		.uleb128 0x17
 5183 0f13 CA000000 		.4byte	0xca
 5184 0f17 220F0000 		.4byte	0xf22
 5185 0f1b 18       		.uleb128 0x18
 5186 0f1c AC040000 		.4byte	0x4ac
 5187 0f20 07       		.byte	0x7
 5188 0f21 00       		.byte	0
 5189 0f22 04       		.uleb128 0x4
 5190 0f23 120B0000 		.4byte	.LASF264
 5191 0f27 10       		.byte	0x10
 5192 0f28 F4       		.byte	0xf4
 5193 0f29 460A0000 		.4byte	0xa46
 5194 0f2d 10       		.uleb128 0x10
 5195 0f2e 38       		.byte	0x38
 5196 0f2f 10       		.byte	0x10
 5197 0f30 FB01     		.2byte	0x1fb
 5198 0f32 ED0F0000 		.4byte	0xfed
 5199 0f36 09       		.uleb128 0x9
 5200 0f37 A4000000 		.4byte	.LASF265
 5201 0f3b 10       		.byte	0x10
 5202 0f3c FC01     		.2byte	0x1fc
 5203 0f3e 79090000 		.4byte	0x979
 5204 0f42 00       		.byte	0
 5205 0f43 09       		.uleb128 0x9
 5206 0f44 0C150000 		.4byte	.LASF266
 5207 0f48 10       		.byte	0x10
 5208 0f49 FD01     		.2byte	0x1fd
 5209 0f4b 25000000 		.4byte	0x25
 5210 0f4f 04       		.byte	0x4
 5211 0f50 09       		.uleb128 0x9
 5212 0f51 F4130000 		.4byte	.LASF267
 5213 0f55 10       		.byte	0x10
 5214 0f56 FE01     		.2byte	0x1fe
ARM GAS  /var/folders/sv/kgmgr77579zbf78p2zlhkdfr0000gn/T//ccygG6jq.s 			page 103


 5215 0f58 25000000 		.4byte	0x25
 5216 0f5c 08       		.byte	0x8
 5217 0f5d 09       		.uleb128 0x9
 5218 0f5e 880E0000 		.4byte	.LASF268
 5219 0f62 10       		.byte	0x10
 5220 0f63 FF01     		.2byte	0x1ff
 5221 0f65 25000000 		.4byte	0x25
 5222 0f69 0C       		.byte	0xc
 5223 0f6a 09       		.uleb128 0x9
 5224 0f6b E8090000 		.4byte	.LASF269
 5225 0f6f 10       		.byte	0x10
 5226 0f70 0002     		.2byte	0x200
 5227 0f72 25000000 		.4byte	0x25
 5228 0f76 10       		.byte	0x10
 5229 0f77 08       		.uleb128 0x8
 5230 0f78 72706D00 		.ascii	"rpm\000"
 5231 0f7c 10       		.byte	0x10
 5232 0f7d 0102     		.2byte	0x201
 5233 0f7f 25000000 		.4byte	0x25
 5234 0f83 14       		.byte	0x14
 5235 0f84 09       		.uleb128 0x9
 5236 0f85 000E0000 		.4byte	.LASF270
 5237 0f89 10       		.byte	0x10
 5238 0f8a 0202     		.2byte	0x202
 5239 0f8c 2C000000 		.4byte	0x2c
 5240 0f90 18       		.byte	0x18
 5241 0f91 09       		.uleb128 0x9
 5242 0f92 2D060000 		.4byte	.LASF271
 5243 0f96 10       		.byte	0x10
 5244 0f97 0302     		.2byte	0x203
 5245 0f99 2C000000 		.4byte	0x2c
 5246 0f9d 1C       		.byte	0x1c
 5247 0f9e 09       		.uleb128 0x9
 5248 0f9f EF000000 		.4byte	.LASF272
 5249 0fa3 10       		.byte	0x10
 5250 0fa4 0402     		.2byte	0x204
 5251 0fa6 2C000000 		.4byte	0x2c
 5252 0faa 20       		.byte	0x20
 5253 0fab 09       		.uleb128 0x9
 5254 0fac 88030000 		.4byte	.LASF273
 5255 0fb0 10       		.byte	0x10
 5256 0fb1 0502     		.2byte	0x205
 5257 0fb3 2C000000 		.4byte	0x2c
 5258 0fb7 24       		.byte	0x24
 5259 0fb8 09       		.uleb128 0x9
 5260 0fb9 DF150000 		.4byte	.LASF274
 5261 0fbd 10       		.byte	0x10
 5262 0fbe 0602     		.2byte	0x206
 5263 0fc0 2C000000 		.4byte	0x2c
 5264 0fc4 28       		.byte	0x28
 5265 0fc5 09       		.uleb128 0x9
 5266 0fc6 190F0000 		.4byte	.LASF275
 5267 0fca 10       		.byte	0x10
 5268 0fcb 0702     		.2byte	0x207
 5269 0fcd 2C000000 		.4byte	0x2c
 5270 0fd1 2C       		.byte	0x2c
 5271 0fd2 09       		.uleb128 0x9
ARM GAS  /var/folders/sv/kgmgr77579zbf78p2zlhkdfr0000gn/T//ccygG6jq.s 			page 104


 5272 0fd3 B1000000 		.4byte	.LASF276
 5273 0fd7 10       		.byte	0x10
 5274 0fd8 0802     		.2byte	0x208
 5275 0fda 25000000 		.4byte	0x25
 5276 0fde 30       		.byte	0x30
 5277 0fdf 09       		.uleb128 0x9
 5278 0fe0 F0060000 		.4byte	.LASF277
 5279 0fe4 10       		.byte	0x10
 5280 0fe5 0902     		.2byte	0x209
 5281 0fe7 2C000000 		.4byte	0x2c
 5282 0feb 34       		.byte	0x34
 5283 0fec 00       		.byte	0
 5284 0fed 11       		.uleb128 0x11
 5285 0fee 6F040000 		.4byte	.LASF278
 5286 0ff2 10       		.byte	0x10
 5287 0ff3 0A02     		.2byte	0x20a
 5288 0ff5 2D0F0000 		.4byte	0xf2d
 5289 0ff9 10       		.uleb128 0x10
 5290 0ffa 14       		.byte	0x14
 5291 0ffb 10       		.byte	0x10
 5292 0ffc 2202     		.2byte	0x222
 5293 0ffe 43100000 		.4byte	0x1043
 5294 1002 08       		.uleb128 0x8
 5295 1003 696400   		.ascii	"id\000"
 5296 1006 10       		.byte	0x10
 5297 1007 2302     		.2byte	0x223
 5298 1009 2C000000 		.4byte	0x2c
 5299 100d 00       		.byte	0
 5300 100e 09       		.uleb128 0x9
 5301 100f 9D090000 		.4byte	.LASF279
 5302 1013 10       		.byte	0x10
 5303 1014 2402     		.2byte	0x224
 5304 1016 73010000 		.4byte	0x173
 5305 101a 04       		.byte	0x4
 5306 101b 08       		.uleb128 0x8
 5307 101c 72706D00 		.ascii	"rpm\000"
 5308 1020 10       		.byte	0x10
 5309 1021 2502     		.2byte	0x225
 5310 1023 25000000 		.4byte	0x25
 5311 1027 08       		.byte	0x8
 5312 1028 09       		.uleb128 0x9
 5313 1029 0C150000 		.4byte	.LASF266
 5314 102d 10       		.byte	0x10
 5315 102e 2602     		.2byte	0x226
 5316 1030 25000000 		.4byte	0x25
 5317 1034 0C       		.byte	0xc
 5318 1035 09       		.uleb128 0x9
 5319 1036 E8090000 		.4byte	.LASF269
 5320 103a 10       		.byte	0x10
 5321 103b 2702     		.2byte	0x227
 5322 103d 25000000 		.4byte	0x25
 5323 1041 10       		.byte	0x10
 5324 1042 00       		.byte	0
 5325 1043 11       		.uleb128 0x11
 5326 1044 B50D0000 		.4byte	.LASF280
 5327 1048 10       		.byte	0x10
 5328 1049 2802     		.2byte	0x228
ARM GAS  /var/folders/sv/kgmgr77579zbf78p2zlhkdfr0000gn/T//ccygG6jq.s 			page 105


 5329 104b F90F0000 		.4byte	0xff9
 5330 104f 0A       		.uleb128 0xa
 5331 1050 04       		.byte	0x4
 5332 1051 39080000 		.4byte	0x839
 5333 1055 02       		.uleb128 0x2
 5334 1056 08       		.byte	0x8
 5335 1057 04       		.byte	0x4
 5336 1058 6A070000 		.4byte	.LASF281
 5337 105c 02       		.uleb128 0x2
 5338 105d 08       		.byte	0x8
 5339 105e 04       		.byte	0x4
 5340 105f B40E0000 		.4byte	.LASF282
 5341 1063 06       		.uleb128 0x6
 5342 1064 890A0000 		.4byte	.LASF283
 5343 1068 10       		.byte	0x10
 5344 1069 01       		.byte	0x1
 5345 106a 2C       		.byte	0x2c
 5346 106b A0100000 		.4byte	0x10a0
 5347 106f 07       		.uleb128 0x7
 5348 1070 E60D0000 		.4byte	.LASF284
 5349 1074 01       		.byte	0x1
 5350 1075 2D       		.byte	0x2d
 5351 1076 33080000 		.4byte	0x833
 5352 107a 00       		.byte	0
 5353 107b 07       		.uleb128 0x7
 5354 107c 40120000 		.4byte	.LASF285
 5355 1080 01       		.byte	0x1
 5356 1081 2E       		.byte	0x2e
 5357 1082 33080000 		.4byte	0x833
 5358 1086 04       		.byte	0x4
 5359 1087 07       		.uleb128 0x7
 5360 1088 2C0C0000 		.4byte	.LASF286
 5361 108c 01       		.byte	0x1
 5362 108d 2F       		.byte	0x2f
 5363 108e 33080000 		.4byte	0x833
 5364 1092 08       		.byte	0x8
 5365 1093 12       		.uleb128 0x12
 5366 1094 63626600 		.ascii	"cbf\000"
 5367 1098 01       		.byte	0x1
 5368 1099 30       		.byte	0x30
 5369 109a B6100000 		.4byte	0x10b6
 5370 109e 0C       		.byte	0xc
 5371 109f 00       		.byte	0
 5372 10a0 0C       		.uleb128 0xc
 5373 10a1 B0100000 		.4byte	0x10b0
 5374 10a5 0D       		.uleb128 0xd
 5375 10a6 2C000000 		.4byte	0x2c
 5376 10aa 0D       		.uleb128 0xd
 5377 10ab B0100000 		.4byte	0x10b0
 5378 10af 00       		.byte	0
 5379 10b0 0A       		.uleb128 0xa
 5380 10b1 04       		.byte	0x4
 5381 10b2 33080000 		.4byte	0x833
 5382 10b6 0A       		.uleb128 0xa
 5383 10b7 04       		.byte	0x4
 5384 10b8 A0100000 		.4byte	0x10a0
 5385 10bc 04       		.uleb128 0x4
ARM GAS  /var/folders/sv/kgmgr77579zbf78p2zlhkdfr0000gn/T//ccygG6jq.s 			page 106


 5386 10bd 000F0000 		.4byte	.LASF287
 5387 10c1 01       		.byte	0x1
 5388 10c2 31       		.byte	0x31
 5389 10c3 63100000 		.4byte	0x1063
 5390 10c7 1D       		.uleb128 0x1d
 5391 10c8 6D100000 		.4byte	.LASF290
 5392 10cc 02       		.byte	0x2
 5393 10cd 2002     		.2byte	0x220
 5394 10cf 03       		.byte	0x3
 5395 10d0 E1100000 		.4byte	0x10e1
 5396 10d4 1E       		.uleb128 0x1e
 5397 10d5 C2060000 		.4byte	.LASF293
 5398 10d9 02       		.byte	0x2
 5399 10da 2002     		.2byte	0x220
 5400 10dc EB000000 		.4byte	0xeb
 5401 10e0 00       		.byte	0
 5402 10e1 1F       		.uleb128 0x1f
 5403 10e2 D1020000 		.4byte	.LASF288
 5404 10e6 0C       		.byte	0xc
 5405 10e7 BC01     		.2byte	0x1bc
 5406 10e9 03       		.byte	0x3
 5407 10ea 1F       		.uleb128 0x1f
 5408 10eb 75150000 		.4byte	.LASF289
 5409 10ef 0C       		.byte	0xc
 5410 10f0 CA01     		.2byte	0x1ca
 5411 10f2 03       		.byte	0x3
 5412 10f3 20       		.uleb128 0x20
 5413 10f4 3D150000 		.4byte	.LASF385
 5414 10f8 03       		.byte	0x3
 5415 10f9 E4       		.byte	0xe4
 5416 10fa 73010000 		.4byte	0x173
 5417 10fe 03       		.byte	0x3
 5418 10ff 1D       		.uleb128 0x1d
 5419 1100 8D060000 		.4byte	.LASF291
 5420 1104 11       		.byte	0x11
 5421 1105 6601     		.2byte	0x166
 5422 1107 03       		.byte	0x3
 5423 1108 1A110000 		.4byte	0x111a
 5424 110c 21       		.uleb128 0x21
 5425 110d 14150000 		.4byte	.LASF330
 5426 1111 2A110000 		.4byte	0x112a
 5427 1115 8D060000 		.4byte	.LASF291
 5428 1119 00       		.byte	0
 5429 111a 17       		.uleb128 0x17
 5430 111b 40080000 		.4byte	0x840
 5431 111f 2A110000 		.4byte	0x112a
 5432 1123 18       		.uleb128 0x18
 5433 1124 AC040000 		.4byte	0x4ac
 5434 1128 0B       		.byte	0xb
 5435 1129 00       		.byte	0
 5436 112a 16       		.uleb128 0x16
 5437 112b 1A110000 		.4byte	0x111a
 5438 112f 1F       		.uleb128 0x1f
 5439 1130 A5090000 		.4byte	.LASF292
 5440 1134 11       		.byte	0x11
 5441 1135 5A01     		.2byte	0x15a
 5442 1137 03       		.byte	0x3
ARM GAS  /var/folders/sv/kgmgr77579zbf78p2zlhkdfr0000gn/T//ccygG6jq.s 			page 107


 5443 1138 22       		.uleb128 0x22
 5444 1139 33030000 		.4byte	.LASF386
 5445 113d 03       		.byte	0x3
 5446 113e 0901     		.2byte	0x109
 5447 1140 73010000 		.4byte	0x173
 5448 1144 03       		.byte	0x3
 5449 1145 56110000 		.4byte	0x1156
 5450 1149 1E       		.uleb128 0x1e
 5451 114a B6100000 		.4byte	.LASF294
 5452 114e 03       		.byte	0x3
 5453 114f 0901     		.2byte	0x109
 5454 1151 73010000 		.4byte	0x173
 5455 1155 00       		.byte	0
 5456 1156 23       		.uleb128 0x23
 5457 1157 380E0000 		.4byte	.LASF332
 5458 115b 01       		.byte	0x1
 5459 115c 39       		.byte	0x39
 5460 115d 00000000 		.4byte	.LFB257
 5461 1161 00110000 		.4byte	.LFE257-.LFB257
 5462 1165 01       		.uleb128 0x1
 5463 1166 9C       		.byte	0x9c
 5464 1167 462D0000 		.4byte	0x2d46
 5465 116b 24       		.uleb128 0x24
 5466 116c 73747200 		.ascii	"str\000"
 5467 1170 01       		.byte	0x1
 5468 1171 39       		.byte	0x39
 5469 1172 4F100000 		.4byte	0x104f
 5470 1176 00000000 		.4byte	.LLST0
 5471 117a 25       		.uleb128 0x25
 5472 117b CC080000 		.4byte	.LASF295
 5473 117f 01       		.byte	0x1
 5474 1180 3B       		.byte	0x3b
 5475 1181 2C000000 		.4byte	0x2c
 5476 1185 21000000 		.4byte	.LLST1
 5477 1189 26       		.uleb128 0x26
 5478 118a 900E0000 		.4byte	.LASF296
 5479 118e 01       		.byte	0x1
 5480 118f 3C       		.byte	0x3c
 5481 1190 462D0000 		.4byte	0x2d46
 5482 1194 03       		.uleb128 0x3
 5483 1195 91       		.byte	0x91
 5484 1196 C07D     		.sleb128 -320
 5485 1198 27       		.uleb128 0x27
 5486 1199 703200   		.ascii	"p2\000"
 5487 119c 01       		.byte	0x1
 5488 119d 3E       		.byte	0x3e
 5489 119e 4F100000 		.4byte	0x104f
 5490 11a2 E6000000 		.4byte	.LLST2
 5491 11a6 26       		.uleb128 0x26
 5492 11a7 980B0000 		.4byte	.LASF297
 5493 11ab 01       		.byte	0x1
 5494 11ac 49       		.byte	0x49
 5495 11ad 220F0000 		.4byte	0xf22
 5496 11b1 05       		.uleb128 0x5
 5497 11b2 03       		.byte	0x3
 5498 11b3 00000000 		.4byte	mcconf.11542
 5499 11b7 26       		.uleb128 0x26
ARM GAS  /var/folders/sv/kgmgr77579zbf78p2zlhkdfr0000gn/T//ccygG6jq.s 			page 108


 5500 11b8 1A0A0000 		.4byte	.LASF298
 5501 11bc 01       		.byte	0x1
 5502 11bd 4A       		.byte	0x4a
 5503 11be 220F0000 		.4byte	0xf22
 5504 11c2 05       		.uleb128 0x5
 5505 11c3 03       		.byte	0x3
 5506 11c4 00000000 		.4byte	mcconf_old.11543
 5507 11c8 28       		.uleb128 0x28
 5508 11c9 BE010000 		.4byte	.LBB59
 5509 11cd 24000000 		.4byte	.LBE59-.LBB59
 5510 11d1 57120000 		.4byte	0x1257
 5511 11d5 27       		.uleb128 0x27
 5512 11d6 6E00     		.ascii	"n\000"
 5513 11d8 01       		.byte	0x1
 5514 11d9 5A       		.byte	0x5a
 5515 11da 33000000 		.4byte	0x33
 5516 11de 1B010000 		.4byte	.LLST3
 5517 11e2 26       		.uleb128 0x26
 5518 11e3 B00D0000 		.4byte	.LASF299
 5519 11e7 01       		.byte	0x1
 5520 11e8 5A       		.byte	0x5a
 5521 11e9 33000000 		.4byte	0x33
 5522 11ed 03       		.uleb128 0x3
 5523 11ee 91       		.byte	0x91
 5524 11ef A47D     		.sleb128 -348
 5525 11f1 29       		.uleb128 0x29
 5526 11f2 C4010000 		.4byte	.LVL46
 5527 11f6 DE2E0000 		.4byte	0x2ede
 5528 11fa 06120000 		.4byte	0x1206
 5529 11fe 2A       		.uleb128 0x2a
 5530 11ff 01       		.uleb128 0x1
 5531 1200 51       		.byte	0x51
 5532 1201 03       		.uleb128 0x3
 5533 1202 91       		.byte	0x91
 5534 1203 A47D     		.sleb128 -348
 5535 1205 00       		.byte	0
 5536 1206 2B       		.uleb128 0x2b
 5537 1207 CA010000 		.4byte	.LVL48
 5538 120b E92E0000 		.4byte	0x2ee9
 5539 120f 29       		.uleb128 0x29
 5540 1210 D2010000 		.4byte	.LVL49
 5541 1214 F42E0000 		.4byte	0x2ef4
 5542 1218 26120000 		.4byte	0x1226
 5543 121c 2A       		.uleb128 0x2a
 5544 121d 01       		.uleb128 0x1
 5545 121e 50       		.byte	0x50
 5546 121f 05       		.uleb128 0x5
 5547 1220 03       		.byte	0x3
 5548 1221 08010000 		.4byte	.LC17
 5549 1225 00       		.byte	0
 5550 1226 29       		.uleb128 0x29
 5551 1227 DA010000 		.4byte	.LVL50
 5552 122b F42E0000 		.4byte	0x2ef4
 5553 122f 43120000 		.4byte	0x1243
 5554 1233 2A       		.uleb128 0x2a
 5555 1234 01       		.uleb128 0x1
 5556 1235 50       		.byte	0x50
ARM GAS  /var/folders/sv/kgmgr77579zbf78p2zlhkdfr0000gn/T//ccygG6jq.s 			page 109


 5557 1236 05       		.uleb128 0x5
 5558 1237 03       		.byte	0x3
 5559 1238 24010000 		.4byte	.LC18
 5560 123c 2A       		.uleb128 0x2a
 5561 123d 01       		.uleb128 0x1
 5562 123e 51       		.byte	0x51
 5563 123f 02       		.uleb128 0x2
 5564 1240 74       		.byte	0x74
 5565 1241 00       		.sleb128 0
 5566 1242 00       		.byte	0
 5567 1243 2C       		.uleb128 0x2c
 5568 1244 E2010000 		.4byte	.LVL51
 5569 1248 F42E0000 		.4byte	0x2ef4
 5570 124c 2A       		.uleb128 0x2a
 5571 124d 01       		.uleb128 0x1
 5572 124e 50       		.byte	0x50
 5573 124f 05       		.uleb128 0x5
 5574 1250 03       		.byte	0x3
 5575 1251 3C010000 		.4byte	.LC19
 5576 1255 00       		.byte	0
 5577 1256 00       		.byte	0
 5578 1257 28       		.uleb128 0x28
 5579 1258 E4010000 		.4byte	.LBB60
 5580 125c 48000000 		.4byte	.LBE60-.LBB60
 5581 1260 FF120000 		.4byte	0x12ff
 5582 1264 27       		.uleb128 0x27
 5583 1265 747000   		.ascii	"tp\000"
 5584 1268 01       		.byte	0x1
 5585 1269 60       		.byte	0x60
 5586 126a 99020000 		.4byte	0x299
 5587 126e 39010000 		.4byte	.LLST4
 5588 1272 26       		.uleb128 0x26
 5589 1273 010A0000 		.4byte	.LASF300
 5590 1277 01       		.byte	0x1
 5591 1278 61       		.byte	0x61
 5592 1279 662D0000 		.4byte	0x2d66
 5593 127d 05       		.uleb128 0x5
 5594 127e 03       		.byte	0x3
 5595 127f 00000000 		.4byte	states.11547
 5596 1283 29       		.uleb128 0x29
 5597 1284 EC010000 		.4byte	.LVL53
 5598 1288 F42E0000 		.4byte	0x2ef4
 5599 128c 9A120000 		.4byte	0x129a
 5600 1290 2A       		.uleb128 0x2a
 5601 1291 01       		.uleb128 0x1
 5602 1292 50       		.byte	0x50
 5603 1293 05       		.uleb128 0x5
 5604 1294 03       		.byte	0x3
 5605 1295 64010000 		.4byte	.LC21
 5606 1299 00       		.byte	0
 5607 129a 29       		.uleb128 0x29
 5608 129b F2010000 		.4byte	.LVL54
 5609 129f F42E0000 		.4byte	0x2ef4
 5610 12a3 B1120000 		.4byte	0x12b1
 5611 12a7 2A       		.uleb128 0x2a
 5612 12a8 01       		.uleb128 0x1
 5613 12a9 50       		.byte	0x50
ARM GAS  /var/folders/sv/kgmgr77579zbf78p2zlhkdfr0000gn/T//ccygG6jq.s 			page 110


 5614 12aa 05       		.uleb128 0x5
 5615 12ab 03       		.byte	0x3
 5616 12ac A4010000 		.4byte	.LC22
 5617 12b0 00       		.byte	0
 5618 12b1 2B       		.uleb128 0x2b
 5619 12b2 F6010000 		.4byte	.LVL55
 5620 12b6 FF2E0000 		.4byte	0x2eff
 5621 12ba 29       		.uleb128 0x29
 5622 12bb 1A020000 		.4byte	.LVL58
 5623 12bf F42E0000 		.4byte	0x2ef4
 5624 12c3 D7120000 		.4byte	0x12d7
 5625 12c7 2A       		.uleb128 0x2a
 5626 12c8 01       		.uleb128 0x1
 5627 12c9 50       		.byte	0x50
 5628 12ca 05       		.uleb128 0x5
 5629 12cb 03       		.byte	0x3
 5630 12cc E4010000 		.4byte	.LC23
 5631 12d0 2A       		.uleb128 0x2a
 5632 12d1 01       		.uleb128 0x1
 5633 12d2 51       		.byte	0x51
 5634 12d3 02       		.uleb128 0x2
 5635 12d4 74       		.byte	0x74
 5636 12d5 00       		.sleb128 0
 5637 12d6 00       		.byte	0
 5638 12d7 29       		.uleb128 0x29
 5639 12d8 20020000 		.4byte	.LVL59
 5640 12dc 0A2F0000 		.4byte	0x2f0a
 5641 12e0 EB120000 		.4byte	0x12eb
 5642 12e4 2A       		.uleb128 0x2a
 5643 12e5 01       		.uleb128 0x1
 5644 12e6 50       		.byte	0x50
 5645 12e7 02       		.uleb128 0x2
 5646 12e8 74       		.byte	0x74
 5647 12e9 00       		.sleb128 0
 5648 12ea 00       		.byte	0
 5649 12eb 2C       		.uleb128 0x2c
 5650 12ec 2C020000 		.4byte	.LVL61
 5651 12f0 F42E0000 		.4byte	0x2ef4
 5652 12f4 2A       		.uleb128 0x2a
 5653 12f5 01       		.uleb128 0x1
 5654 12f6 50       		.byte	0x50
 5655 12f7 05       		.uleb128 0x5
 5656 12f8 03       		.byte	0x3
 5657 12f9 08020000 		.4byte	.LC24
 5658 12fd 00       		.byte	0
 5659 12fe 00       		.byte	0
 5660 12ff 28       		.uleb128 0x28
 5661 1300 DA020000 		.4byte	.LBB61
 5662 1304 E2000000 		.4byte	.LBE61-.LBB61
 5663 1308 78140000 		.4byte	0x1478
 5664 130c 27       		.uleb128 0x27
 5665 130d 6900     		.ascii	"i\000"
 5666 130f 01       		.byte	0x1
 5667 1310 74       		.byte	0x74
 5668 1311 2C000000 		.4byte	0x2c
 5669 1315 6D010000 		.4byte	.LLST5
 5670 1319 2B       		.uleb128 0x2b
ARM GAS  /var/folders/sv/kgmgr77579zbf78p2zlhkdfr0000gn/T//ccygG6jq.s 			page 111


 5671 131a F6020000 		.4byte	.LVL68
 5672 131e 152F0000 		.4byte	0x2f15
 5673 1322 29       		.uleb128 0x29
 5674 1323 FE020000 		.4byte	.LVL69
 5675 1327 F42E0000 		.4byte	0x2ef4
 5676 132b 39130000 		.4byte	0x1339
 5677 132f 2A       		.uleb128 0x2a
 5678 1330 01       		.uleb128 0x1
 5679 1331 50       		.byte	0x50
 5680 1332 05       		.uleb128 0x5
 5681 1333 03       		.byte	0x3
 5682 1334 78020000 		.4byte	.LC30
 5683 1338 00       		.byte	0
 5684 1339 29       		.uleb128 0x29
 5685 133a 0E030000 		.4byte	.LVL71
 5686 133e F42E0000 		.4byte	0x2ef4
 5687 1342 50130000 		.4byte	0x1350
 5688 1346 2A       		.uleb128 0x2a
 5689 1347 01       		.uleb128 0x1
 5690 1348 50       		.byte	0x50
 5691 1349 05       		.uleb128 0x5
 5692 134a 03       		.byte	0x3
 5693 134b 90020000 		.4byte	.LC31
 5694 134f 00       		.byte	0
 5695 1350 29       		.uleb128 0x29
 5696 1351 1E030000 		.4byte	.LVL73
 5697 1355 F42E0000 		.4byte	0x2ef4
 5698 1359 67130000 		.4byte	0x1367
 5699 135d 2A       		.uleb128 0x2a
 5700 135e 01       		.uleb128 0x1
 5701 135f 50       		.byte	0x50
 5702 1360 05       		.uleb128 0x5
 5703 1361 03       		.byte	0x3
 5704 1362 A8020000 		.4byte	.LC32
 5705 1366 00       		.byte	0
 5706 1367 29       		.uleb128 0x29
 5707 1368 2E030000 		.4byte	.LVL75
 5708 136c F42E0000 		.4byte	0x2ef4
 5709 1370 7E130000 		.4byte	0x137e
 5710 1374 2A       		.uleb128 0x2a
 5711 1375 01       		.uleb128 0x1
 5712 1376 50       		.byte	0x50
 5713 1377 05       		.uleb128 0x5
 5714 1378 03       		.byte	0x3
 5715 1379 C0020000 		.4byte	.LC33
 5716 137d 00       		.byte	0
 5717 137e 29       		.uleb128 0x29
 5718 137f 3E030000 		.4byte	.LVL77
 5719 1383 F42E0000 		.4byte	0x2ef4
 5720 1387 95130000 		.4byte	0x1395
 5721 138b 2A       		.uleb128 0x2a
 5722 138c 01       		.uleb128 0x1
 5723 138d 50       		.byte	0x50
 5724 138e 05       		.uleb128 0x5
 5725 138f 03       		.byte	0x3
 5726 1390 D8020000 		.4byte	.LC34
 5727 1394 00       		.byte	0
ARM GAS  /var/folders/sv/kgmgr77579zbf78p2zlhkdfr0000gn/T//ccygG6jq.s 			page 112


 5728 1395 29       		.uleb128 0x29
 5729 1396 4E030000 		.4byte	.LVL79
 5730 139a F42E0000 		.4byte	0x2ef4
 5731 139e AC130000 		.4byte	0x13ac
 5732 13a2 2A       		.uleb128 0x2a
 5733 13a3 01       		.uleb128 0x1
 5734 13a4 50       		.byte	0x50
 5735 13a5 05       		.uleb128 0x5
 5736 13a6 03       		.byte	0x3
 5737 13a7 F0020000 		.4byte	.LC35
 5738 13ab 00       		.byte	0
 5739 13ac 29       		.uleb128 0x29
 5740 13ad 56030000 		.4byte	.LVL80
 5741 13b1 F42E0000 		.4byte	0x2ef4
 5742 13b5 C3130000 		.4byte	0x13c3
 5743 13b9 2A       		.uleb128 0x2a
 5744 13ba 01       		.uleb128 0x1
 5745 13bb 50       		.byte	0x50
 5746 13bc 05       		.uleb128 0x5
 5747 13bd 03       		.byte	0x3
 5748 13be 08030000 		.4byte	.LC36
 5749 13c2 00       		.byte	0
 5750 13c3 29       		.uleb128 0x29
 5751 13c4 5E030000 		.4byte	.LVL81
 5752 13c8 F42E0000 		.4byte	0x2ef4
 5753 13cc DA130000 		.4byte	0x13da
 5754 13d0 2A       		.uleb128 0x2a
 5755 13d1 01       		.uleb128 0x1
 5756 13d2 50       		.byte	0x50
 5757 13d3 05       		.uleb128 0x5
 5758 13d4 03       		.byte	0x3
 5759 13d5 20030000 		.4byte	.LC37
 5760 13d9 00       		.byte	0
 5761 13da 29       		.uleb128 0x29
 5762 13db 7E030000 		.4byte	.LVL83
 5763 13df F42E0000 		.4byte	0x2ef4
 5764 13e3 F1130000 		.4byte	0x13f1
 5765 13e7 2A       		.uleb128 0x2a
 5766 13e8 01       		.uleb128 0x1
 5767 13e9 50       		.byte	0x50
 5768 13ea 05       		.uleb128 0x5
 5769 13eb 03       		.byte	0x3
 5770 13ec 38030000 		.4byte	.LC38
 5771 13f0 00       		.byte	0
 5772 13f1 29       		.uleb128 0x29
 5773 13f2 86030000 		.4byte	.LVL84
 5774 13f6 F42E0000 		.4byte	0x2ef4
 5775 13fa 08140000 		.4byte	0x1408
 5776 13fe 2A       		.uleb128 0x2a
 5777 13ff 01       		.uleb128 0x1
 5778 1400 50       		.byte	0x50
 5779 1401 05       		.uleb128 0x5
 5780 1402 03       		.byte	0x3
 5781 1403 50030000 		.4byte	.LC39
 5782 1407 00       		.byte	0
 5783 1408 29       		.uleb128 0x29
 5784 1409 8E030000 		.4byte	.LVL85
ARM GAS  /var/folders/sv/kgmgr77579zbf78p2zlhkdfr0000gn/T//ccygG6jq.s 			page 113


 5785 140d F42E0000 		.4byte	0x2ef4
 5786 1411 1F140000 		.4byte	0x141f
 5787 1415 2A       		.uleb128 0x2a
 5788 1416 01       		.uleb128 0x1
 5789 1417 50       		.byte	0x50
 5790 1418 05       		.uleb128 0x5
 5791 1419 03       		.byte	0x3
 5792 141a 68030000 		.4byte	.LC40
 5793 141e 00       		.byte	0
 5794 141f 29       		.uleb128 0x29
 5795 1420 96030000 		.4byte	.LVL86
 5796 1424 F42E0000 		.4byte	0x2ef4
 5797 1428 36140000 		.4byte	0x1436
 5798 142c 2A       		.uleb128 0x2a
 5799 142d 01       		.uleb128 0x1
 5800 142e 50       		.byte	0x50
 5801 142f 05       		.uleb128 0x5
 5802 1430 03       		.byte	0x3
 5803 1431 80030000 		.4byte	.LC41
 5804 1435 00       		.byte	0
 5805 1436 29       		.uleb128 0x29
 5806 1437 9E030000 		.4byte	.LVL87
 5807 143b F42E0000 		.4byte	0x2ef4
 5808 143f 4D140000 		.4byte	0x144d
 5809 1443 2A       		.uleb128 0x2a
 5810 1444 01       		.uleb128 0x1
 5811 1445 50       		.byte	0x50
 5812 1446 05       		.uleb128 0x5
 5813 1447 03       		.byte	0x3
 5814 1448 98030000 		.4byte	.LC42
 5815 144c 00       		.byte	0
 5816 144d 29       		.uleb128 0x29
 5817 144e AE030000 		.4byte	.LVL89
 5818 1452 F42E0000 		.4byte	0x2ef4
 5819 1456 64140000 		.4byte	0x1464
 5820 145a 2A       		.uleb128 0x2a
 5821 145b 01       		.uleb128 0x1
 5822 145c 50       		.byte	0x50
 5823 145d 05       		.uleb128 0x5
 5824 145e 03       		.byte	0x3
 5825 145f B0030000 		.4byte	.LC43
 5826 1463 00       		.byte	0
 5827 1464 2C       		.uleb128 0x2c
 5828 1465 B4030000 		.4byte	.LVL90
 5829 1469 F42E0000 		.4byte	0x2ef4
 5830 146d 2A       		.uleb128 0x2a
 5831 146e 01       		.uleb128 0x1
 5832 146f 50       		.byte	0x50
 5833 1470 05       		.uleb128 0x5
 5834 1471 03       		.byte	0x3
 5835 1472 18000000 		.4byte	.LC4
 5836 1476 00       		.byte	0
 5837 1477 00       		.byte	0
 5838 1478 28       		.uleb128 0x28
 5839 1479 4E040000 		.4byte	.LBB62
 5840 147d 92000000 		.4byte	.LBE62-.LBB62
 5841 1481 DB160000 		.4byte	0x16db
ARM GAS  /var/folders/sv/kgmgr77579zbf78p2zlhkdfr0000gn/T//ccygG6jq.s 			page 114


 5842 1485 26       		.uleb128 0x26
 5843 1486 4B020000 		.4byte	.LASF301
 5844 148a 01       		.byte	0x1
 5845 148b 91       		.byte	0x91
 5846 148c 6B2D0000 		.4byte	0x2d6b
 5847 1490 03       		.uleb128 0x3
 5848 1491 91       		.byte	0x91
 5849 1492 987D     		.sleb128 -360
 5850 1494 26       		.uleb128 0x26
 5851 1495 880F0000 		.4byte	.LASF302
 5852 1499 01       		.byte	0x1
 5853 149a 92       		.byte	0x92
 5854 149b 6B2D0000 		.4byte	0x2d6b
 5855 149f 03       		.uleb128 0x3
 5856 14a0 91       		.byte	0x91
 5857 14a1 9C7D     		.sleb128 -356
 5858 14a3 26       		.uleb128 0x26
 5859 14a4 F50A0000 		.4byte	.LASF303
 5860 14a8 01       		.byte	0x1
 5861 14a9 93       		.byte	0x93
 5862 14aa 6B2D0000 		.4byte	0x2d6b
 5863 14ae 03       		.uleb128 0x3
 5864 14af 91       		.byte	0x91
 5865 14b0 A07D     		.sleb128 -352
 5866 14b2 26       		.uleb128 0x26
 5867 14b3 280B0000 		.4byte	.LASF304
 5868 14b7 01       		.byte	0x1
 5869 14b8 94       		.byte	0x94
 5870 14b9 6B2D0000 		.4byte	0x2d6b
 5871 14bd 03       		.uleb128 0x3
 5872 14be 91       		.byte	0x91
 5873 14bf A47D     		.sleb128 -348
 5874 14c1 25       		.uleb128 0x25
 5875 14c2 82070000 		.4byte	.LASF305
 5876 14c6 01       		.byte	0x1
 5877 14c7 96       		.byte	0x96
 5878 14c8 2C000000 		.4byte	0x2c
 5879 14cc A4010000 		.4byte	.LLST6
 5880 14d0 25       		.uleb128 0x25
 5881 14d1 88070000 		.4byte	.LASF306
 5882 14d5 01       		.byte	0x1
 5883 14d6 97       		.byte	0x97
 5884 14d7 2C000000 		.4byte	0x2c
 5885 14db B7010000 		.4byte	.LLST7
 5886 14df 25       		.uleb128 0x25
 5887 14e0 94070000 		.4byte	.LASF307
 5888 14e4 01       		.byte	0x1
 5889 14e5 98       		.byte	0x98
 5890 14e6 2C000000 		.4byte	0x2c
 5891 14ea CA010000 		.4byte	.LLST8
 5892 14ee 27       		.uleb128 0x27
 5893 14ef 746F7000 		.ascii	"top\000"
 5894 14f3 01       		.byte	0x1
 5895 14f4 99       		.byte	0x99
 5896 14f5 2C000000 		.4byte	0x2c
 5897 14f9 DD010000 		.4byte	.LLST9
 5898 14fd 25       		.uleb128 0x25
ARM GAS  /var/folders/sv/kgmgr77579zbf78p2zlhkdfr0000gn/T//ccygG6jq.s 			page 115


 5899 14fe 19000000 		.4byte	.LASF308
 5900 1502 01       		.byte	0x1
 5901 1503 9A       		.byte	0x9a
 5902 1504 2C000000 		.4byte	0x2c
 5903 1508 F0010000 		.4byte	.LLST10
 5904 150c 25       		.uleb128 0x25
 5905 150d FE110000 		.4byte	.LASF309
 5906 1511 01       		.byte	0x1
 5907 1512 9B       		.byte	0x9b
 5908 1513 2C000000 		.4byte	0x2c
 5909 1517 03020000 		.4byte	.LLST11
 5910 151b 25       		.uleb128 0x25
 5911 151c 4F0B0000 		.4byte	.LASF310
 5912 1520 01       		.byte	0x1
 5913 1521 9C       		.byte	0x9c
 5914 1522 2C000000 		.4byte	0x2c
 5915 1526 16020000 		.4byte	.LLST12
 5916 152a 2D       		.uleb128 0x2d
 5917 152b 2F110000 		.4byte	0x112f
 5918 152f 4E040000 		.4byte	.LBB63
 5919 1533 06000000 		.4byte	.LBE63-.LBB63
 5920 1537 01       		.byte	0x1
 5921 1538 90       		.byte	0x90
 5922 1539 69150000 		.4byte	0x1569
 5923 153d 2E       		.uleb128 0x2e
 5924 153e E1100000 		.4byte	0x10e1
 5925 1542 4E040000 		.4byte	.LBB64
 5926 1546 06000000 		.4byte	.LBE64-.LBB64
 5927 154a 11       		.byte	0x11
 5928 154b 5C01     		.2byte	0x15c
 5929 154d 2E       		.uleb128 0x2e
 5930 154e C7100000 		.4byte	0x10c7
 5931 1552 4E040000 		.4byte	.LBB65
 5932 1556 06000000 		.4byte	.LBE65-.LBB65
 5933 155a 0C       		.byte	0xc
 5934 155b BF01     		.2byte	0x1bf
 5935 155d 2F       		.uleb128 0x2f
 5936 155e D4100000 		.4byte	0x10d4
 5937 1562 29020000 		.4byte	.LLST13
 5938 1566 00       		.byte	0
 5939 1567 00       		.byte	0
 5940 1568 00       		.byte	0
 5941 1569 2D       		.uleb128 0x2d
 5942 156a FF100000 		.4byte	0x10ff
 5943 156e 70040000 		.4byte	.LBB67
 5944 1572 04000000 		.4byte	.LBE67-.LBB67
 5945 1576 01       		.byte	0x1
 5946 1577 95       		.byte	0x95
 5947 1578 B7150000 		.4byte	0x15b7
 5948 157c 30       		.uleb128 0x30
 5949 157d 70040000 		.4byte	.LBB68
 5950 1581 04000000 		.4byte	.LBE68-.LBB68
 5951 1585 31       		.uleb128 0x31
 5952 1586 0C110000 		.4byte	0x110c
 5953 158a 2E       		.uleb128 0x2e
 5954 158b EA100000 		.4byte	0x10ea
 5955 158f 70040000 		.4byte	.LBB69
ARM GAS  /var/folders/sv/kgmgr77579zbf78p2zlhkdfr0000gn/T//ccygG6jq.s 			page 116


 5956 1593 04000000 		.4byte	.LBE69-.LBB69
 5957 1597 11       		.byte	0x11
 5958 1598 7301     		.2byte	0x173
 5959 159a 2E       		.uleb128 0x2e
 5960 159b C7100000 		.4byte	0x10c7
 5961 159f 70040000 		.4byte	.LBB70
 5962 15a3 04000000 		.4byte	.LBE70-.LBB70
 5963 15a7 0C       		.byte	0xc
 5964 15a8 CD01     		.2byte	0x1cd
 5965 15aa 2F       		.uleb128 0x2f
 5966 15ab D4100000 		.4byte	0x10d4
 5967 15af 3E020000 		.4byte	.LLST14
 5968 15b3 00       		.byte	0
 5969 15b4 00       		.byte	0
 5970 15b5 00       		.byte	0
 5971 15b6 00       		.byte	0
 5972 15b7 29       		.uleb128 0x29
 5973 15b8 90040000 		.4byte	.LVL114
 5974 15bc F42E0000 		.4byte	0x2ef4
 5975 15c0 CE150000 		.4byte	0x15ce
 5976 15c4 2A       		.uleb128 0x2a
 5977 15c5 01       		.uleb128 0x1
 5978 15c6 50       		.byte	0x50
 5979 15c7 05       		.uleb128 0x5
 5980 15c8 03       		.byte	0x3
 5981 15c9 0C040000 		.4byte	.LC49
 5982 15cd 00       		.byte	0
 5983 15ce 29       		.uleb128 0x29
 5984 15cf 98040000 		.4byte	.LVL115
 5985 15d3 F42E0000 		.4byte	0x2ef4
 5986 15d7 E5150000 		.4byte	0x15e5
 5987 15db 2A       		.uleb128 0x2a
 5988 15dc 01       		.uleb128 0x1
 5989 15dd 50       		.byte	0x50
 5990 15de 05       		.uleb128 0x5
 5991 15df 03       		.byte	0x3
 5992 15e0 1C040000 		.4byte	.LC50
 5993 15e4 00       		.byte	0
 5994 15e5 29       		.uleb128 0x29
 5995 15e6 A0040000 		.4byte	.LVL116
 5996 15ea F42E0000 		.4byte	0x2ef4
 5997 15ee 02160000 		.4byte	0x1602
 5998 15f2 2A       		.uleb128 0x2a
 5999 15f3 01       		.uleb128 0x1
 6000 15f4 50       		.byte	0x50
 6001 15f5 05       		.uleb128 0x5
 6002 15f6 03       		.byte	0x3
 6003 15f7 2C040000 		.4byte	.LC51
 6004 15fb 2A       		.uleb128 0x2a
 6005 15fc 01       		.uleb128 0x1
 6006 15fd 51       		.byte	0x51
 6007 15fe 02       		.uleb128 0x2
 6008 15ff 7A       		.byte	0x7a
 6009 1600 00       		.sleb128 0
 6010 1601 00       		.byte	0
 6011 1602 29       		.uleb128 0x29
 6012 1603 A8040000 		.4byte	.LVL117
ARM GAS  /var/folders/sv/kgmgr77579zbf78p2zlhkdfr0000gn/T//ccygG6jq.s 			page 117


 6013 1607 F42E0000 		.4byte	0x2ef4
 6014 160b 1F160000 		.4byte	0x161f
 6015 160f 2A       		.uleb128 0x2a
 6016 1610 01       		.uleb128 0x1
 6017 1611 50       		.byte	0x50
 6018 1612 05       		.uleb128 0x5
 6019 1613 03       		.byte	0x3
 6020 1614 3C040000 		.4byte	.LC52
 6021 1618 2A       		.uleb128 0x2a
 6022 1619 01       		.uleb128 0x1
 6023 161a 51       		.byte	0x51
 6024 161b 02       		.uleb128 0x2
 6025 161c 79       		.byte	0x79
 6026 161d 00       		.sleb128 0
 6027 161e 00       		.byte	0
 6028 161f 29       		.uleb128 0x29
 6029 1620 B0040000 		.4byte	.LVL118
 6030 1624 F42E0000 		.4byte	0x2ef4
 6031 1628 3C160000 		.4byte	0x163c
 6032 162c 2A       		.uleb128 0x2a
 6033 162d 01       		.uleb128 0x1
 6034 162e 50       		.byte	0x50
 6035 162f 05       		.uleb128 0x5
 6036 1630 03       		.byte	0x3
 6037 1631 4C040000 		.4byte	.LC53
 6038 1635 2A       		.uleb128 0x2a
 6039 1636 01       		.uleb128 0x1
 6040 1637 51       		.byte	0x51
 6041 1638 02       		.uleb128 0x2
 6042 1639 78       		.byte	0x78
 6043 163a 00       		.sleb128 0
 6044 163b 00       		.byte	0
 6045 163c 29       		.uleb128 0x29
 6046 163d B8040000 		.4byte	.LVL119
 6047 1641 F42E0000 		.4byte	0x2ef4
 6048 1645 59160000 		.4byte	0x1659
 6049 1649 2A       		.uleb128 0x2a
 6050 164a 01       		.uleb128 0x1
 6051 164b 50       		.byte	0x50
 6052 164c 05       		.uleb128 0x5
 6053 164d 03       		.byte	0x3
 6054 164e 5C040000 		.4byte	.LC54
 6055 1652 2A       		.uleb128 0x2a
 6056 1653 01       		.uleb128 0x1
 6057 1654 51       		.byte	0x51
 6058 1655 02       		.uleb128 0x2
 6059 1656 77       		.byte	0x77
 6060 1657 00       		.sleb128 0
 6061 1658 00       		.byte	0
 6062 1659 29       		.uleb128 0x29
 6063 165a C0040000 		.4byte	.LVL120
 6064 165e F42E0000 		.4byte	0x2ef4
 6065 1662 70160000 		.4byte	0x1670
 6066 1666 2A       		.uleb128 0x2a
 6067 1667 01       		.uleb128 0x1
 6068 1668 50       		.byte	0x50
 6069 1669 05       		.uleb128 0x5
ARM GAS  /var/folders/sv/kgmgr77579zbf78p2zlhkdfr0000gn/T//ccygG6jq.s 			page 118


 6070 166a 03       		.byte	0x3
 6071 166b 64040000 		.4byte	.LC55
 6072 166f 00       		.byte	0
 6073 1670 29       		.uleb128 0x29
 6074 1671 C8040000 		.4byte	.LVL121
 6075 1675 F42E0000 		.4byte	0x2ef4
 6076 1679 87160000 		.4byte	0x1687
 6077 167d 2A       		.uleb128 0x2a
 6078 167e 01       		.uleb128 0x1
 6079 167f 50       		.byte	0x50
 6080 1680 05       		.uleb128 0x5
 6081 1681 03       		.byte	0x3
 6082 1682 70040000 		.4byte	.LC56
 6083 1686 00       		.byte	0
 6084 1687 29       		.uleb128 0x29
 6085 1688 D0040000 		.4byte	.LVL122
 6086 168c F42E0000 		.4byte	0x2ef4
 6087 1690 A4160000 		.4byte	0x16a4
 6088 1694 2A       		.uleb128 0x2a
 6089 1695 01       		.uleb128 0x1
 6090 1696 50       		.byte	0x50
 6091 1697 05       		.uleb128 0x5
 6092 1698 03       		.byte	0x3
 6093 1699 7C040000 		.4byte	.LC57
 6094 169d 2A       		.uleb128 0x2a
 6095 169e 01       		.uleb128 0x1
 6096 169f 51       		.byte	0x51
 6097 16a0 02       		.uleb128 0x2
 6098 16a1 76       		.byte	0x76
 6099 16a2 00       		.sleb128 0
 6100 16a3 00       		.byte	0
 6101 16a4 29       		.uleb128 0x29
 6102 16a5 D8040000 		.4byte	.LVL123
 6103 16a9 F42E0000 		.4byte	0x2ef4
 6104 16ad C1160000 		.4byte	0x16c1
 6105 16b1 2A       		.uleb128 0x2a
 6106 16b2 01       		.uleb128 0x1
 6107 16b3 50       		.byte	0x50
 6108 16b4 05       		.uleb128 0x5
 6109 16b5 03       		.byte	0x3
 6110 16b6 90040000 		.4byte	.LC58
 6111 16ba 2A       		.uleb128 0x2a
 6112 16bb 01       		.uleb128 0x1
 6113 16bc 51       		.byte	0x51
 6114 16bd 02       		.uleb128 0x2
 6115 16be 75       		.byte	0x75
 6116 16bf 00       		.sleb128 0
 6117 16c0 00       		.byte	0
 6118 16c1 2C       		.uleb128 0x2c
 6119 16c2 E0040000 		.4byte	.LVL124
 6120 16c6 F42E0000 		.4byte	0x2ef4
 6121 16ca 2A       		.uleb128 0x2a
 6122 16cb 01       		.uleb128 0x1
 6123 16cc 50       		.byte	0x50
 6124 16cd 05       		.uleb128 0x5
 6125 16ce 03       		.byte	0x3
 6126 16cf A8040000 		.4byte	.LC59
ARM GAS  /var/folders/sv/kgmgr77579zbf78p2zlhkdfr0000gn/T//ccygG6jq.s 			page 119


 6127 16d3 2A       		.uleb128 0x2a
 6128 16d4 01       		.uleb128 0x1
 6129 16d5 51       		.byte	0x51
 6130 16d6 02       		.uleb128 0x2
 6131 16d7 74       		.byte	0x74
 6132 16d8 00       		.sleb128 0
 6133 16d9 00       		.byte	0
 6134 16da 00       		.byte	0
 6135 16db 32       		.uleb128 0x32
 6136 16dc 00000000 		.4byte	.Ldebug_ranges0+0
 6137 16e0 83180000 		.4byte	0x1883
 6138 16e4 26       		.uleb128 0x26
 6139 16e5 0C150000 		.4byte	.LASF266
 6140 16e9 01       		.byte	0x1
 6141 16ea AD       		.byte	0xad
 6142 16eb 25000000 		.4byte	0x25
 6143 16ef 03       		.uleb128 0x3
 6144 16f0 91       		.byte	0x91
 6145 16f1 8C7D     		.sleb128 -372
 6146 16f3 26       		.uleb128 0x26
 6147 16f4 6D150000 		.4byte	.LASF311
 6148 16f8 01       		.byte	0x1
 6149 16f9 AE       		.byte	0xae
 6150 16fa 25000000 		.4byte	0x25
 6151 16fe 03       		.uleb128 0x3
 6152 16ff 91       		.byte	0x91
 6153 1700 907D     		.sleb128 -368
 6154 1702 26       		.uleb128 0x26
 6155 1703 A7060000 		.4byte	.LASF312
 6156 1707 01       		.byte	0x1
 6157 1708 AF       		.byte	0xaf
 6158 1709 25000000 		.4byte	0x25
 6159 170d 03       		.uleb128 0x3
 6160 170e 91       		.byte	0x91
 6161 170f 947D     		.sleb128 -364
 6162 1711 32       		.uleb128 0x32
 6163 1712 28000000 		.4byte	.Ldebug_ranges0+0x28
 6164 1716 2C180000 		.4byte	0x182c
 6165 171a 26       		.uleb128 0x26
 6166 171b 24070000 		.4byte	.LASF313
 6167 171f 01       		.byte	0x1
 6168 1720 B8       		.byte	0xb8
 6169 1721 25000000 		.4byte	0x25
 6170 1725 03       		.uleb128 0x3
 6171 1726 91       		.byte	0x91
 6172 1727 987D     		.sleb128 -360
 6173 1729 26       		.uleb128 0x26
 6174 172a 79160000 		.4byte	.LASF314
 6175 172e 01       		.byte	0x1
 6176 172f B9       		.byte	0xb9
 6177 1730 25000000 		.4byte	0x25
 6178 1734 03       		.uleb128 0x3
 6179 1735 91       		.byte	0x91
 6180 1736 9C7D     		.sleb128 -356
 6181 1738 26       		.uleb128 0x26
 6182 1739 77050000 		.4byte	.LASF207
 6183 173d 01       		.byte	0x1
ARM GAS  /var/folders/sv/kgmgr77579zbf78p2zlhkdfr0000gn/T//ccygG6jq.s 			page 120


 6184 173e BA       		.byte	0xba
 6185 173f 020F0000 		.4byte	0xf02
 6186 1743 03       		.uleb128 0x3
 6187 1744 91       		.byte	0x91
 6188 1745 A47D     		.sleb128 -348
 6189 1747 26       		.uleb128 0x26
 6190 1748 DE110000 		.4byte	.LASF315
 6191 174c 01       		.byte	0x1
 6192 174d BB       		.byte	0xbb
 6193 174e 2C000000 		.4byte	0x2c
 6194 1752 03       		.uleb128 0x3
 6195 1753 91       		.byte	0x91
 6196 1754 A07D     		.sleb128 -352
 6197 1756 29       		.uleb128 0x29
 6198 1757 F0060000 		.4byte	.LVL148
 6199 175b 202F0000 		.4byte	0x2f20
 6200 175f 80170000 		.4byte	0x1780
 6201 1763 2A       		.uleb128 0x2a
 6202 1764 01       		.uleb128 0x1
 6203 1765 50       		.byte	0x50
 6204 1766 03       		.uleb128 0x3
 6205 1767 91       		.byte	0x91
 6206 1768 987D     		.sleb128 -360
 6207 176a 2A       		.uleb128 0x2a
 6208 176b 01       		.uleb128 0x1
 6209 176c 51       		.byte	0x51
 6210 176d 03       		.uleb128 0x3
 6211 176e 91       		.byte	0x91
 6212 176f 9C7D     		.sleb128 -356
 6213 1771 2A       		.uleb128 0x2a
 6214 1772 01       		.uleb128 0x1
 6215 1773 52       		.byte	0x52
 6216 1774 03       		.uleb128 0x3
 6217 1775 91       		.byte	0x91
 6218 1776 A47D     		.sleb128 -348
 6219 1778 2A       		.uleb128 0x2a
 6220 1779 01       		.uleb128 0x1
 6221 177a 53       		.byte	0x53
 6222 177b 03       		.uleb128 0x3
 6223 177c 91       		.byte	0x91
 6224 177d A07D     		.sleb128 -352
 6225 177f 00       		.byte	0
 6226 1780 29       		.uleb128 0x29
 6227 1781 06070000 		.4byte	.LVL150
 6228 1785 F42E0000 		.4byte	0x2ef4
 6229 1789 97170000 		.4byte	0x1797
 6230 178d 2A       		.uleb128 0x2a
 6231 178e 01       		.uleb128 0x1
 6232 178f 50       		.byte	0x50
 6233 1790 05       		.uleb128 0x5
 6234 1791 03       		.byte	0x3
 6235 1792 F4040000 		.4byte	.LC64
 6236 1796 00       		.byte	0
 6237 1797 29       		.uleb128 0x29
 6238 1798 16070000 		.4byte	.LVL152
 6239 179c F42E0000 		.4byte	0x2ef4
 6240 17a0 AE170000 		.4byte	0x17ae
ARM GAS  /var/folders/sv/kgmgr77579zbf78p2zlhkdfr0000gn/T//ccygG6jq.s 			page 121


 6241 17a4 2A       		.uleb128 0x2a
 6242 17a5 01       		.uleb128 0x1
 6243 17a6 50       		.byte	0x50
 6244 17a7 05       		.uleb128 0x5
 6245 17a8 03       		.byte	0x3
 6246 17a9 14050000 		.4byte	.LC65
 6247 17ad 00       		.byte	0
 6248 17ae 29       		.uleb128 0x29
 6249 17af 30070000 		.4byte	.LVL153
 6250 17b3 F42E0000 		.4byte	0x2ef4
 6251 17b7 C5170000 		.4byte	0x17c5
 6252 17bb 2A       		.uleb128 0x2a
 6253 17bc 01       		.uleb128 0x1
 6254 17bd 50       		.byte	0x50
 6255 17be 05       		.uleb128 0x5
 6256 17bf 03       		.byte	0x3
 6257 17c0 B8050000 		.4byte	.LC70
 6258 17c4 00       		.byte	0
 6259 17c5 29       		.uleb128 0x29
 6260 17c6 D8070000 		.4byte	.LVL167
 6261 17ca F42E0000 		.4byte	0x2ef4
 6262 17ce DC170000 		.4byte	0x17dc
 6263 17d2 2A       		.uleb128 0x2a
 6264 17d3 01       		.uleb128 0x1
 6265 17d4 50       		.byte	0x50
 6266 17d5 05       		.uleb128 0x5
 6267 17d6 03       		.byte	0x3
 6268 17d7 88050000 		.4byte	.LC69
 6269 17db 00       		.byte	0
 6270 17dc 2B       		.uleb128 0x2b
 6271 17dd E0070000 		.4byte	.LVL168
 6272 17e1 F42E0000 		.4byte	0x2ef4
 6273 17e5 29       		.uleb128 0x29
 6274 17e6 0C080000 		.4byte	.LVL170
 6275 17ea F42E0000 		.4byte	0x2ef4
 6276 17ee 18180000 		.4byte	0x1818
 6277 17f2 2A       		.uleb128 0x2a
 6278 17f3 01       		.uleb128 0x1
 6279 17f4 50       		.byte	0x50
 6280 17f5 05       		.uleb128 0x5
 6281 17f6 03       		.byte	0x3
 6282 17f7 48050000 		.4byte	.LC67
 6283 17fb 2A       		.uleb128 0x2a
 6284 17fc 02       		.uleb128 0x2
 6285 17fd 7D       		.byte	0x7d
 6286 17fe 04       		.sleb128 4
 6287 17ff 02       		.uleb128 0x2
 6288 1800 74       		.byte	0x74
 6289 1801 00       		.sleb128 0
 6290 1802 2A       		.uleb128 0x2a
 6291 1803 02       		.uleb128 0x2
 6292 1804 7D       		.byte	0x7d
 6293 1805 08       		.sleb128 8
 6294 1806 02       		.uleb128 0x2
 6295 1807 75       		.byte	0x75
 6296 1808 00       		.sleb128 0
 6297 1809 2A       		.uleb128 0x2a
ARM GAS  /var/folders/sv/kgmgr77579zbf78p2zlhkdfr0000gn/T//ccygG6jq.s 			page 122


 6298 180a 02       		.uleb128 0x2
 6299 180b 7D       		.byte	0x7d
 6300 180c 0C       		.sleb128 12
 6301 180d 02       		.uleb128 0x2
 6302 180e 76       		.byte	0x76
 6303 180f 00       		.sleb128 0
 6304 1810 2A       		.uleb128 0x2a
 6305 1811 02       		.uleb128 0x2
 6306 1812 7D       		.byte	0x7d
 6307 1813 10       		.sleb128 16
 6308 1814 02       		.uleb128 0x2
 6309 1815 77       		.byte	0x77
 6310 1816 00       		.sleb128 0
 6311 1817 00       		.byte	0
 6312 1818 2C       		.uleb128 0x2c
 6313 1819 20080000 		.4byte	.LVL173
 6314 181d F42E0000 		.4byte	0x2ef4
 6315 1821 2A       		.uleb128 0x2a
 6316 1822 01       		.uleb128 0x1
 6317 1823 50       		.byte	0x50
 6318 1824 05       		.uleb128 0x5
 6319 1825 03       		.byte	0x3
 6320 1826 E8050000 		.4byte	.LC71
 6321 182a 00       		.byte	0
 6322 182b 00       		.byte	0
 6323 182c 29       		.uleb128 0x29
 6324 182d F4040000 		.4byte	.LVL126
 6325 1831 2B2F0000 		.4byte	0x2f2b
 6326 1835 4A180000 		.4byte	0x184a
 6327 1839 2A       		.uleb128 0x2a
 6328 183a 01       		.uleb128 0x1
 6329 183b 51       		.byte	0x51
 6330 183c 05       		.uleb128 0x5
 6331 183d 03       		.byte	0x3
 6332 183e F0040000 		.4byte	.LC63
 6333 1842 2A       		.uleb128 0x2a
 6334 1843 01       		.uleb128 0x1
 6335 1844 52       		.byte	0x52
 6336 1845 03       		.uleb128 0x3
 6337 1846 91       		.byte	0x91
 6338 1847 8C7D     		.sleb128 -372
 6339 1849 00       		.byte	0
 6340 184a 29       		.uleb128 0x29
 6341 184b FE040000 		.4byte	.LVL127
 6342 184f 2B2F0000 		.4byte	0x2f2b
 6343 1853 68180000 		.4byte	0x1868
 6344 1857 2A       		.uleb128 0x2a
 6345 1858 01       		.uleb128 0x1
 6346 1859 51       		.byte	0x51
 6347 185a 05       		.uleb128 0x5
 6348 185b 03       		.byte	0x3
 6349 185c F0040000 		.4byte	.LC63
 6350 1860 2A       		.uleb128 0x2a
 6351 1861 01       		.uleb128 0x1
 6352 1862 52       		.byte	0x52
 6353 1863 03       		.uleb128 0x3
 6354 1864 91       		.byte	0x91
ARM GAS  /var/folders/sv/kgmgr77579zbf78p2zlhkdfr0000gn/T//ccygG6jq.s 			page 123


 6355 1865 907D     		.sleb128 -368
 6356 1867 00       		.byte	0
 6357 1868 2C       		.uleb128 0x2c
 6358 1869 08050000 		.4byte	.LVL128
 6359 186d 2B2F0000 		.4byte	0x2f2b
 6360 1871 2A       		.uleb128 0x2a
 6361 1872 01       		.uleb128 0x1
 6362 1873 51       		.byte	0x51
 6363 1874 05       		.uleb128 0x5
 6364 1875 03       		.byte	0x3
 6365 1876 F0040000 		.4byte	.LC63
 6366 187a 2A       		.uleb128 0x2a
 6367 187b 01       		.uleb128 0x1
 6368 187c 52       		.byte	0x52
 6369 187d 03       		.uleb128 0x3
 6370 187e 91       		.byte	0x91
 6371 187f 947D     		.sleb128 -364
 6372 1881 00       		.byte	0
 6373 1882 00       		.byte	0
 6374 1883 32       		.uleb128 0x32
 6375 1884 48000000 		.4byte	.Ldebug_ranges0+0x48
 6376 1888 09190000 		.4byte	0x1909
 6377 188c 33       		.uleb128 0x33
 6378 188d 0C150000 		.4byte	.LASF266
 6379 1891 01       		.byte	0x1
 6380 1892 2002     		.2byte	0x220
 6381 1894 25000000 		.4byte	0x25
 6382 1898 03       		.uleb128 0x3
 6383 1899 91       		.byte	0x91
 6384 189a A07D     		.sleb128 -352
 6385 189c 33       		.uleb128 0x33
 6386 189d 8D0C0000 		.4byte	.LASF316
 6387 18a1 01       		.byte	0x1
 6388 18a2 2102     		.2byte	0x221
 6389 18a4 25000000 		.4byte	0x25
 6390 18a8 03       		.uleb128 0x3
 6391 18a9 91       		.byte	0x91
 6392 18aa A47D     		.sleb128 -348
 6393 18ac 29       		.uleb128 0x29
 6394 18ad 6E050000 		.4byte	.LVL130
 6395 18b1 F42E0000 		.4byte	0x2ef4
 6396 18b5 C3180000 		.4byte	0x18c3
 6397 18b9 2A       		.uleb128 0x2a
 6398 18ba 01       		.uleb128 0x1
 6399 18bb 50       		.byte	0x50
 6400 18bc 05       		.uleb128 0x5
 6401 18bd 03       		.byte	0x3
 6402 18be 20060000 		.4byte	.LC72
 6403 18c2 00       		.byte	0
 6404 18c3 29       		.uleb128 0x29
 6405 18c4 9C0C0000 		.4byte	.LVL269
 6406 18c8 2B2F0000 		.4byte	0x2f2b
 6407 18cc E1180000 		.4byte	0x18e1
 6408 18d0 2A       		.uleb128 0x2a
 6409 18d1 01       		.uleb128 0x1
 6410 18d2 51       		.byte	0x51
 6411 18d3 05       		.uleb128 0x5
ARM GAS  /var/folders/sv/kgmgr77579zbf78p2zlhkdfr0000gn/T//ccygG6jq.s 			page 124


 6412 18d4 03       		.byte	0x3
 6413 18d5 F0040000 		.4byte	.LC63
 6414 18d9 2A       		.uleb128 0x2a
 6415 18da 01       		.uleb128 0x1
 6416 18db 52       		.byte	0x52
 6417 18dc 03       		.uleb128 0x3
 6418 18dd 91       		.byte	0x91
 6419 18de A07D     		.sleb128 -352
 6420 18e0 00       		.byte	0
 6421 18e1 29       		.uleb128 0x29
 6422 18e2 A60C0000 		.4byte	.LVL270
 6423 18e6 2B2F0000 		.4byte	0x2f2b
 6424 18ea FF180000 		.4byte	0x18ff
 6425 18ee 2A       		.uleb128 0x2a
 6426 18ef 01       		.uleb128 0x1
 6427 18f0 51       		.byte	0x51
 6428 18f1 05       		.uleb128 0x5
 6429 18f2 03       		.byte	0x3
 6430 18f3 F0040000 		.4byte	.LC63
 6431 18f7 2A       		.uleb128 0x2a
 6432 18f8 01       		.uleb128 0x1
 6433 18f9 52       		.byte	0x52
 6434 18fa 03       		.uleb128 0x3
 6435 18fb 91       		.byte	0x91
 6436 18fc A47D     		.sleb128 -348
 6437 18fe 00       		.byte	0
 6438 18ff 2B       		.uleb128 0x2b
 6439 1900 CA0C0000 		.4byte	.LVL271
 6440 1904 362F0000 		.4byte	0x2f36
 6441 1908 00       		.byte	0
 6442 1909 28       		.uleb128 0x28
 6443 190a 84050000 		.4byte	.LBB77
 6444 190e 28010000 		.4byte	.LBE77-.LBB77
 6445 1912 97190000 		.4byte	0x1997
 6446 1916 33       		.uleb128 0x33
 6447 1917 0C150000 		.4byte	.LASF266
 6448 191b 01       		.byte	0x1
 6449 191c 0C01     		.2byte	0x10c
 6450 191e 25000000 		.4byte	0x25
 6451 1922 03       		.uleb128 0x3
 6452 1923 91       		.byte	0x91
 6453 1924 A47D     		.sleb128 -348
 6454 1926 29       		.uleb128 0x29
 6455 1927 94050000 		.4byte	.LVL133
 6456 192b 2B2F0000 		.4byte	0x2f2b
 6457 192f 43190000 		.4byte	0x1943
 6458 1933 2A       		.uleb128 0x2a
 6459 1934 01       		.uleb128 0x1
 6460 1935 51       		.byte	0x51
 6461 1936 05       		.uleb128 0x5
 6462 1937 03       		.byte	0x3
 6463 1938 F0040000 		.4byte	.LC63
 6464 193c 2A       		.uleb128 0x2a
 6465 193d 01       		.uleb128 0x1
 6466 193e 52       		.byte	0x52
 6467 193f 02       		.uleb128 0x2
 6468 1940 75       		.byte	0x75
ARM GAS  /var/folders/sv/kgmgr77579zbf78p2zlhkdfr0000gn/T//ccygG6jq.s 			page 125


 6469 1941 00       		.sleb128 0
 6470 1942 00       		.byte	0
 6471 1943 29       		.uleb128 0x29
 6472 1944 BC050000 		.4byte	.LVL135
 6473 1948 412F0000 		.4byte	0x2f41
 6474 194c 57190000 		.4byte	0x1957
 6475 1950 2A       		.uleb128 0x2a
 6476 1951 01       		.uleb128 0x1
 6477 1952 50       		.byte	0x50
 6478 1953 02       		.uleb128 0x2
 6479 1954 74       		.byte	0x74
 6480 1955 00       		.sleb128 0
 6481 1956 00       		.byte	0
 6482 1957 29       		.uleb128 0x29
 6483 1958 C8050000 		.4byte	.LVL136
 6484 195c 4C2F0000 		.4byte	0x2f4c
 6485 1960 6C190000 		.4byte	0x196c
 6486 1964 2A       		.uleb128 0x2a
 6487 1965 01       		.uleb128 0x1
 6488 1966 50       		.byte	0x50
 6489 1967 03       		.uleb128 0x3
 6490 1968 0A       		.byte	0xa
 6491 1969 D007     		.2byte	0x7d0
 6492 196b 00       		.byte	0
 6493 196c 29       		.uleb128 0x29
 6494 196d DA050000 		.4byte	.LVL138
 6495 1971 F42E0000 		.4byte	0x2ef4
 6496 1975 83190000 		.4byte	0x1983
 6497 1979 2A       		.uleb128 0x2a
 6498 197a 01       		.uleb128 0x1
 6499 197b 50       		.byte	0x50
 6500 197c 05       		.uleb128 0x5
 6501 197d 03       		.byte	0x3
 6502 197e 28080000 		.4byte	.LC93
 6503 1982 00       		.byte	0
 6504 1983 2C       		.uleb128 0x2c
 6505 1984 E0050000 		.4byte	.LVL139
 6506 1988 412F0000 		.4byte	0x2f41
 6507 198c 2A       		.uleb128 0x2a
 6508 198d 01       		.uleb128 0x1
 6509 198e 50       		.byte	0x50
 6510 198f 05       		.uleb128 0x5
 6511 1990 03       		.byte	0x3
 6512 1991 00000000 		.4byte	.LANCHOR1
 6513 1995 00       		.byte	0
 6514 1996 00       		.byte	0
 6515 1997 28       		.uleb128 0x28
 6516 1998 AC060000 		.4byte	.LBB78
 6517 199c 36000000 		.4byte	.LBE78-.LBB78
 6518 19a0 0A1A0000 		.4byte	0x1a0a
 6519 19a4 26       		.uleb128 0x26
 6520 19a5 43020000 		.4byte	.LASF317
 6521 19a9 01       		.byte	0x1
 6522 19aa D9       		.byte	0xd9
 6523 19ab 0B0A0000 		.4byte	0xa0b
 6524 19af 03       		.uleb128 0x3
 6525 19b0 91       		.byte	0x91
ARM GAS  /var/folders/sv/kgmgr77579zbf78p2zlhkdfr0000gn/T//ccygG6jq.s 			page 126


 6526 19b1 A47D     		.sleb128 -348
 6527 19b3 29       		.uleb128 0x29
 6528 19b4 B2060000 		.4byte	.LVL141
 6529 19b8 572F0000 		.4byte	0x2f57
 6530 19bc C8190000 		.4byte	0x19c8
 6531 19c0 2A       		.uleb128 0x2a
 6532 19c1 01       		.uleb128 0x1
 6533 19c2 50       		.byte	0x50
 6534 19c3 03       		.uleb128 0x3
 6535 19c4 91       		.byte	0x91
 6536 19c5 A47D     		.sleb128 -348
 6537 19c7 00       		.byte	0
 6538 19c8 29       		.uleb128 0x29
 6539 19c9 C2060000 		.4byte	.LVL143
 6540 19cd F42E0000 		.4byte	0x2ef4
 6541 19d1 DF190000 		.4byte	0x19df
 6542 19d5 2A       		.uleb128 0x2a
 6543 19d6 01       		.uleb128 0x1
 6544 19d7 50       		.byte	0x50
 6545 19d8 05       		.uleb128 0x5
 6546 19d9 03       		.byte	0x3
 6547 19da 68060000 		.4byte	.LC75
 6548 19de 00       		.byte	0
 6549 19df 29       		.uleb128 0x29
 6550 19e0 D2060000 		.4byte	.LVL145
 6551 19e4 F42E0000 		.4byte	0x2ef4
 6552 19e8 F6190000 		.4byte	0x19f6
 6553 19ec 2A       		.uleb128 0x2a
 6554 19ed 01       		.uleb128 0x1
 6555 19ee 50       		.byte	0x50
 6556 19ef 05       		.uleb128 0x5
 6557 19f0 03       		.byte	0x3
 6558 19f1 80060000 		.4byte	.LC76
 6559 19f5 00       		.byte	0
 6560 19f6 2C       		.uleb128 0x2c
 6561 19f7 E2060000 		.4byte	.LVL147
 6562 19fb F42E0000 		.4byte	0x2ef4
 6563 19ff 2A       		.uleb128 0x2a
 6564 1a00 01       		.uleb128 0x1
 6565 1a01 50       		.byte	0x50
 6566 1a02 05       		.uleb128 0x5
 6567 1a03 03       		.byte	0x3
 6568 1a04 A0060000 		.4byte	.LC77
 6569 1a08 00       		.byte	0
 6570 1a09 00       		.byte	0
 6571 1a0a 32       		.uleb128 0x32
 6572 1a0b 60000000 		.4byte	.Ldebug_ranges0+0x60
 6573 1a0f 381B0000 		.4byte	0x1b38
 6574 1a13 26       		.uleb128 0x26
 6575 1a14 0C150000 		.4byte	.LASF266
 6576 1a18 01       		.byte	0x1
 6577 1a19 ED       		.byte	0xed
 6578 1a1a 25000000 		.4byte	0x25
 6579 1a1e 03       		.uleb128 0x3
 6580 1a1f 91       		.byte	0x91
 6581 1a20 9C7D     		.sleb128 -356
 6582 1a22 28       		.uleb128 0x28
ARM GAS  /var/folders/sv/kgmgr77579zbf78p2zlhkdfr0000gn/T//ccygG6jq.s 			page 127


 6583 1a23 6A070000 		.4byte	.LBB81
 6584 1a27 66000000 		.4byte	.LBE81-.LBB81
 6585 1a2b FD1A0000 		.4byte	0x1afd
 6586 1a2f 25       		.uleb128 0x25
 6587 1a30 9A0F0000 		.4byte	.LASF318
 6588 1a34 01       		.byte	0x1
 6589 1a35 F2       		.byte	0xf2
 6590 1a36 37090000 		.4byte	0x937
 6591 1a3a 52020000 		.4byte	.LLST15
 6592 1a3e 26       		.uleb128 0x26
 6593 1a3f C3050000 		.4byte	.LASF104
 6594 1a43 01       		.byte	0x1
 6595 1a44 F6       		.byte	0xf6
 6596 1a45 25000000 		.4byte	0x25
 6597 1a49 03       		.uleb128 0x3
 6598 1a4a 91       		.byte	0x91
 6599 1a4b A07D     		.sleb128 -352
 6600 1a4d 26       		.uleb128 0x26
 6601 1a4e EA0F0000 		.4byte	.LASF319
 6602 1a52 01       		.byte	0x1
 6603 1a53 F7       		.byte	0xf7
 6604 1a54 25000000 		.4byte	0x25
 6605 1a58 03       		.uleb128 0x3
 6606 1a59 91       		.byte	0x91
 6607 1a5a A47D     		.sleb128 -348
 6608 1a5c 26       		.uleb128 0x26
 6609 1a5d 5F0F0000 		.4byte	.LASF320
 6610 1a61 01       		.byte	0x1
 6611 1a62 F8       		.byte	0xf8
 6612 1a63 FB0E0000 		.4byte	0xefb
 6613 1a67 03       		.uleb128 0x3
 6614 1a68 91       		.byte	0x91
 6615 1a69 987D     		.sleb128 -360
 6616 1a6b 29       		.uleb128 0x29
 6617 1a6c 78070000 		.4byte	.LVL158
 6618 1a70 412F0000 		.4byte	0x2f41
 6619 1a74 7F1A0000 		.4byte	0x1a7f
 6620 1a78 2A       		.uleb128 0x2a
 6621 1a79 01       		.uleb128 0x1
 6622 1a7a 50       		.byte	0x50
 6623 1a7b 02       		.uleb128 0x2
 6624 1a7c 74       		.byte	0x74
 6625 1a7d 00       		.sleb128 0
 6626 1a7e 00       		.byte	0
 6627 1a7f 29       		.uleb128 0x29
 6628 1a80 92070000 		.4byte	.LVL159
 6629 1a84 622F0000 		.4byte	0x2f62
 6630 1a88 A71A0000 		.4byte	0x1aa7
 6631 1a8c 2A       		.uleb128 0x2a
 6632 1a8d 01       		.uleb128 0x1
 6633 1a8e 50       		.byte	0x50
 6634 1a8f 01       		.uleb128 0x1
 6635 1a90 31       		.byte	0x31
 6636 1a91 2A       		.uleb128 0x2a
 6637 1a92 01       		.uleb128 0x1
 6638 1a93 51       		.byte	0x51
 6639 1a94 03       		.uleb128 0x3
ARM GAS  /var/folders/sv/kgmgr77579zbf78p2zlhkdfr0000gn/T//ccygG6jq.s 			page 128


 6640 1a95 91       		.byte	0x91
 6641 1a96 A07D     		.sleb128 -352
 6642 1a98 2A       		.uleb128 0x2a
 6643 1a99 01       		.uleb128 0x1
 6644 1a9a 52       		.byte	0x52
 6645 1a9b 03       		.uleb128 0x3
 6646 1a9c 91       		.byte	0x91
 6647 1a9d A47D     		.sleb128 -348
 6648 1a9f 2A       		.uleb128 0x2a
 6649 1aa0 01       		.uleb128 0x1
 6650 1aa1 53       		.byte	0x53
 6651 1aa2 03       		.uleb128 0x3
 6652 1aa3 91       		.byte	0x91
 6653 1aa4 987D     		.sleb128 -360
 6654 1aa6 00       		.byte	0
 6655 1aa7 29       		.uleb128 0x29
 6656 1aa8 9A070000 		.4byte	.LVL160
 6657 1aac 412F0000 		.4byte	0x2f41
 6658 1ab0 BB1A0000 		.4byte	0x1abb
 6659 1ab4 2A       		.uleb128 0x2a
 6660 1ab5 01       		.uleb128 0x1
 6661 1ab6 50       		.byte	0x50
 6662 1ab7 02       		.uleb128 0x2
 6663 1ab8 74       		.byte	0x74
 6664 1ab9 00       		.sleb128 0
 6665 1aba 00       		.byte	0
 6666 1abb 29       		.uleb128 0x29
 6667 1abc AA070000 		.4byte	.LVL162
 6668 1ac0 F42E0000 		.4byte	0x2ef4
 6669 1ac4 D21A0000 		.4byte	0x1ad2
 6670 1ac8 2A       		.uleb128 0x2a
 6671 1ac9 01       		.uleb128 0x1
 6672 1aca 50       		.byte	0x50
 6673 1acb 05       		.uleb128 0x5
 6674 1acc 03       		.byte	0x3
 6675 1acd AC070000 		.4byte	.LC87
 6676 1ad1 00       		.byte	0
 6677 1ad2 29       		.uleb128 0x29
 6678 1ad3 BA070000 		.4byte	.LVL164
 6679 1ad7 F42E0000 		.4byte	0x2ef4
 6680 1adb E91A0000 		.4byte	0x1ae9
 6681 1adf 2A       		.uleb128 0x2a
 6682 1ae0 01       		.uleb128 0x1
 6683 1ae1 50       		.byte	0x50
 6684 1ae2 05       		.uleb128 0x5
 6685 1ae3 03       		.byte	0x3
 6686 1ae4 BC070000 		.4byte	.LC88
 6687 1ae8 00       		.byte	0
 6688 1ae9 2C       		.uleb128 0x2c
 6689 1aea D0070000 		.4byte	.LVL165
 6690 1aee F42E0000 		.4byte	0x2ef4
 6691 1af2 2A       		.uleb128 0x2a
 6692 1af3 01       		.uleb128 0x1
 6693 1af4 50       		.byte	0x50
 6694 1af5 05       		.uleb128 0x5
 6695 1af6 03       		.byte	0x3
 6696 1af7 CC070000 		.4byte	.LC89
ARM GAS  /var/folders/sv/kgmgr77579zbf78p2zlhkdfr0000gn/T//ccygG6jq.s 			page 129


 6697 1afb 00       		.byte	0
 6698 1afc 00       		.byte	0
 6699 1afd 29       		.uleb128 0x29
 6700 1afe 40070000 		.4byte	.LVL154
 6701 1b02 2B2F0000 		.4byte	0x2f2b
 6702 1b06 1B1B0000 		.4byte	0x1b1b
 6703 1b0a 2A       		.uleb128 0x2a
 6704 1b0b 01       		.uleb128 0x1
 6705 1b0c 51       		.byte	0x51
 6706 1b0d 05       		.uleb128 0x5
 6707 1b0e 03       		.byte	0x3
 6708 1b0f F0040000 		.4byte	.LC63
 6709 1b13 2A       		.uleb128 0x2a
 6710 1b14 01       		.uleb128 0x1
 6711 1b15 52       		.byte	0x52
 6712 1b16 03       		.uleb128 0x3
 6713 1b17 91       		.byte	0x91
 6714 1b18 9C7D     		.sleb128 -356
 6715 1b1a 00       		.byte	0
 6716 1b1b 2B       		.uleb128 0x2b
 6717 1b1c 66070000 		.4byte	.LVL156
 6718 1b20 6D2F0000 		.4byte	0x2f6d
 6719 1b24 2C       		.uleb128 0x2c
 6720 1b25 14080000 		.4byte	.LVL171
 6721 1b29 F42E0000 		.4byte	0x2ef4
 6722 1b2d 2A       		.uleb128 0x2a
 6723 1b2e 01       		.uleb128 0x1
 6724 1b2f 50       		.byte	0x50
 6725 1b30 05       		.uleb128 0x5
 6726 1b31 03       		.byte	0x3
 6727 1b32 DC070000 		.4byte	.LC90
 6728 1b36 00       		.byte	0
 6729 1b37 00       		.byte	0
 6730 1b38 32       		.uleb128 0x32
 6731 1b39 78000000 		.4byte	.Ldebug_ranges0+0x78
 6732 1b3d 581C0000 		.4byte	0x1c58
 6733 1b41 27       		.uleb128 0x27
 6734 1b42 6900     		.ascii	"i\000"
 6735 1b44 01       		.byte	0x1
 6736 1b45 DF       		.byte	0xdf
 6737 1b46 2C000000 		.4byte	0x2c
 6738 1b4a 65020000 		.4byte	.LLST16
 6739 1b4e 34       		.uleb128 0x34
 6740 1b4f 90000000 		.4byte	.Ldebug_ranges0+0x90
 6741 1b53 27       		.uleb128 0x27
 6742 1b54 6D736700 		.ascii	"msg\000"
 6743 1b58 01       		.byte	0x1
 6744 1b59 E0       		.byte	0xe0
 6745 1b5a 702D0000 		.4byte	0x2d70
 6746 1b5e 91020000 		.4byte	.LLST17
 6747 1b62 35       		.uleb128 0x35
 6748 1b63 38110000 		.4byte	0x1138
 6749 1b67 24080000 		.4byte	.LBB87
 6750 1b6b B0000000 		.4byte	.Ldebug_ranges0+0xb0
 6751 1b6f 01       		.byte	0x1
 6752 1b70 E2       		.byte	0xe2
 6753 1b71 8F1B0000 		.4byte	0x1b8f
ARM GAS  /var/folders/sv/kgmgr77579zbf78p2zlhkdfr0000gn/T//ccygG6jq.s 			page 130


 6754 1b75 2F       		.uleb128 0x2f
 6755 1b76 49110000 		.4byte	0x1149
 6756 1b7a BA020000 		.4byte	.LLST18
 6757 1b7e 36       		.uleb128 0x36
 6758 1b7f F3100000 		.4byte	0x10f3
 6759 1b83 24080000 		.4byte	.LBB89
 6760 1b87 C8000000 		.4byte	.Ldebug_ranges0+0xc8
 6761 1b8b 03       		.byte	0x3
 6762 1b8c 0B01     		.2byte	0x10b
 6763 1b8e 00       		.byte	0
 6764 1b8f 2D       		.uleb128 0x2d
 6765 1b90 38110000 		.4byte	0x1138
 6766 1b94 7E080000 		.4byte	.LBB95
 6767 1b98 02000000 		.4byte	.LBE95-.LBB95
 6768 1b9c 01       		.byte	0x1
 6769 1b9d E5       		.byte	0xe5
 6770 1b9e BC1B0000 		.4byte	0x1bbc
 6771 1ba2 2F       		.uleb128 0x2f
 6772 1ba3 49110000 		.4byte	0x1149
 6773 1ba7 CE020000 		.4byte	.LLST19
 6774 1bab 37       		.uleb128 0x37
 6775 1bac F3100000 		.4byte	0x10f3
 6776 1bb0 7E080000 		.4byte	.LBB97
 6777 1bb4 02000000 		.4byte	.LBE97-.LBB97
 6778 1bb8 03       		.byte	0x3
 6779 1bb9 0B01     		.2byte	0x10b
 6780 1bbb 00       		.byte	0
 6781 1bbc 29       		.uleb128 0x29
 6782 1bbd 42080000 		.4byte	.LVL178
 6783 1bc1 782F0000 		.4byte	0x2f78
 6784 1bc5 D01B0000 		.4byte	0x1bd0
 6785 1bc9 2A       		.uleb128 0x2a
 6786 1bca 01       		.uleb128 0x1
 6787 1bcb 50       		.byte	0x50
 6788 1bcc 02       		.uleb128 0x2
 6789 1bcd 74       		.byte	0x74
 6790 1bce 00       		.sleb128 0
 6791 1bcf 00       		.byte	0
 6792 1bd0 29       		.uleb128 0x29
 6793 1bd1 74080000 		.4byte	.LVL183
 6794 1bd5 F42E0000 		.4byte	0x2ef4
 6795 1bd9 E71B0000 		.4byte	0x1be7
 6796 1bdd 2A       		.uleb128 0x2a
 6797 1bde 01       		.uleb128 0x1
 6798 1bdf 50       		.byte	0x50
 6799 1be0 05       		.uleb128 0x5
 6800 1be1 03       		.byte	0x3
 6801 1be2 F8060000 		.4byte	.LC80
 6802 1be6 00       		.byte	0
 6803 1be7 29       		.uleb128 0x29
 6804 1be8 7C080000 		.4byte	.LVL184
 6805 1bec F42E0000 		.4byte	0x2ef4
 6806 1bf0 FE1B0000 		.4byte	0x1bfe
 6807 1bf4 2A       		.uleb128 0x2a
 6808 1bf5 01       		.uleb128 0x1
 6809 1bf6 50       		.byte	0x50
 6810 1bf7 05       		.uleb128 0x5
ARM GAS  /var/folders/sv/kgmgr77579zbf78p2zlhkdfr0000gn/T//ccygG6jq.s 			page 131


 6811 1bf8 03       		.byte	0x3
 6812 1bf9 10070000 		.4byte	.LC81
 6813 1bfd 00       		.byte	0
 6814 1bfe 29       		.uleb128 0x29
 6815 1bff A4080000 		.4byte	.LVL187
 6816 1c03 F42E0000 		.4byte	0x2ef4
 6817 1c07 151C0000 		.4byte	0x1c15
 6818 1c0b 2A       		.uleb128 0x2a
 6819 1c0c 01       		.uleb128 0x1
 6820 1c0d 50       		.byte	0x50
 6821 1c0e 05       		.uleb128 0x5
 6822 1c0f 03       		.byte	0x3
 6823 1c10 28070000 		.4byte	.LC82
 6824 1c14 00       		.byte	0
 6825 1c15 29       		.uleb128 0x29
 6826 1c16 B4080000 		.4byte	.LVL189
 6827 1c1a F42E0000 		.4byte	0x2ef4
 6828 1c1e 2C1C0000 		.4byte	0x1c2c
 6829 1c22 2A       		.uleb128 0x2a
 6830 1c23 01       		.uleb128 0x1
 6831 1c24 50       		.byte	0x50
 6832 1c25 05       		.uleb128 0x5
 6833 1c26 03       		.byte	0x3
 6834 1c27 44070000 		.4byte	.LC83
 6835 1c2b 00       		.byte	0
 6836 1c2c 29       		.uleb128 0x29
 6837 1c2d C4080000 		.4byte	.LVL191
 6838 1c31 F42E0000 		.4byte	0x2ef4
 6839 1c35 431C0000 		.4byte	0x1c43
 6840 1c39 2A       		.uleb128 0x2a
 6841 1c3a 01       		.uleb128 0x1
 6842 1c3b 50       		.byte	0x50
 6843 1c3c 05       		.uleb128 0x5
 6844 1c3d 03       		.byte	0x3
 6845 1c3e 60070000 		.4byte	.LC84
 6846 1c42 00       		.byte	0
 6847 1c43 2C       		.uleb128 0x2c
 6848 1c44 D4080000 		.4byte	.LVL193
 6849 1c48 F42E0000 		.4byte	0x2ef4
 6850 1c4c 2A       		.uleb128 0x2a
 6851 1c4d 01       		.uleb128 0x1
 6852 1c4e 50       		.byte	0x50
 6853 1c4f 05       		.uleb128 0x5
 6854 1c50 03       		.byte	0x3
 6855 1c51 7C070000 		.4byte	.LC85
 6856 1c55 00       		.byte	0
 6857 1c56 00       		.byte	0
 6858 1c57 00       		.byte	0
 6859 1c58 28       		.uleb128 0x28
 6860 1c59 EA080000 		.4byte	.LBB102
 6861 1c5d 02010000 		.4byte	.LBE102-.LBB102
 6862 1c61 1A1D0000 		.4byte	0x1d1a
 6863 1c65 33       		.uleb128 0x33
 6864 1c66 E8090000 		.4byte	.LASF269
 6865 1c6a 01       		.byte	0x1
 6866 1c6b 1E01     		.2byte	0x11e
 6867 1c6d 25000000 		.4byte	0x25
ARM GAS  /var/folders/sv/kgmgr77579zbf78p2zlhkdfr0000gn/T//ccygG6jq.s 			page 132


 6868 1c71 03       		.uleb128 0x3
 6869 1c72 91       		.byte	0x91
 6870 1c73 A07D     		.sleb128 -352
 6871 1c75 28       		.uleb128 0x28
 6872 1c76 18090000 		.4byte	.LBB103
 6873 1c7a 44000000 		.4byte	.LBE103-.LBB103
 6874 1c7e FF1C0000 		.4byte	0x1cff
 6875 1c82 33       		.uleb128 0x33
 6876 1c83 11100000 		.4byte	.LASF321
 6877 1c87 01       		.byte	0x1
 6878 1c88 2601     		.2byte	0x126
 6879 1c8a 25000000 		.4byte	0x25
 6880 1c8e 03       		.uleb128 0x3
 6881 1c8f 91       		.byte	0x91
 6882 1c90 A47D     		.sleb128 -348
 6883 1c92 38       		.uleb128 0x38
 6884 1c93 696E6400 		.ascii	"ind\000"
 6885 1c97 01       		.byte	0x1
 6886 1c98 2701     		.2byte	0x127
 6887 1c9a 25000000 		.4byte	0x25
 6888 1c9e E2020000 		.4byte	.LLST20
 6889 1ca2 29       		.uleb128 0x29
 6890 1ca3 2A090000 		.4byte	.LVL197
 6891 1ca7 412F0000 		.4byte	0x2f41
 6892 1cab B91C0000 		.4byte	0x1cb9
 6893 1caf 2A       		.uleb128 0x2a
 6894 1cb0 01       		.uleb128 0x1
 6895 1cb1 50       		.byte	0x50
 6896 1cb2 05       		.uleb128 0x5
 6897 1cb3 03       		.byte	0x3
 6898 1cb4 00000000 		.4byte	.LANCHOR0
 6899 1cb8 00       		.byte	0
 6900 1cb9 29       		.uleb128 0x29
 6901 1cba 36090000 		.4byte	.LVL198
 6902 1cbe 832F0000 		.4byte	0x2f83
 6903 1cc2 D41C0000 		.4byte	0x1cd4
 6904 1cc6 2A       		.uleb128 0x2a
 6905 1cc7 01       		.uleb128 0x1
 6906 1cc8 50       		.byte	0x50
 6907 1cc9 02       		.uleb128 0x2
 6908 1cca 08       		.byte	0x8
 6909 1ccb C8       		.byte	0xc8
 6910 1ccc 2A       		.uleb128 0x2a
 6911 1ccd 01       		.uleb128 0x1
 6912 1cce 51       		.byte	0x51
 6913 1ccf 03       		.uleb128 0x3
 6914 1cd0 91       		.byte	0x91
 6915 1cd1 A47D     		.sleb128 -348
 6916 1cd3 00       		.byte	0
 6917 1cd4 29       		.uleb128 0x29
 6918 1cd5 56090000 		.4byte	.LVL202
 6919 1cd9 F42E0000 		.4byte	0x2ef4
 6920 1cdd EB1C0000 		.4byte	0x1ceb
 6921 1ce1 2A       		.uleb128 0x2a
 6922 1ce2 01       		.uleb128 0x1
 6923 1ce3 50       		.byte	0x50
 6924 1ce4 05       		.uleb128 0x5
ARM GAS  /var/folders/sv/kgmgr77579zbf78p2zlhkdfr0000gn/T//ccygG6jq.s 			page 133


 6925 1ce5 03       		.byte	0x3
 6926 1ce6 4C080000 		.4byte	.LC95
 6927 1cea 00       		.byte	0
 6928 1ceb 2C       		.uleb128 0x2c
 6929 1cec 5C090000 		.4byte	.LVL203
 6930 1cf0 412F0000 		.4byte	0x2f41
 6931 1cf4 2A       		.uleb128 0x2a
 6932 1cf5 01       		.uleb128 0x1
 6933 1cf6 50       		.byte	0x50
 6934 1cf7 05       		.uleb128 0x5
 6935 1cf8 03       		.byte	0x3
 6936 1cf9 00000000 		.4byte	.LANCHOR1
 6937 1cfd 00       		.byte	0
 6938 1cfe 00       		.byte	0
 6939 1cff 2C       		.uleb128 0x2c
 6940 1d00 F8080000 		.4byte	.LVL196
 6941 1d04 2B2F0000 		.4byte	0x2f2b
 6942 1d08 2A       		.uleb128 0x2a
 6943 1d09 01       		.uleb128 0x1
 6944 1d0a 51       		.byte	0x51
 6945 1d0b 05       		.uleb128 0x5
 6946 1d0c 03       		.byte	0x3
 6947 1d0d F0040000 		.4byte	.LC63
 6948 1d11 2A       		.uleb128 0x2a
 6949 1d12 01       		.uleb128 0x1
 6950 1d13 52       		.byte	0x52
 6951 1d14 03       		.uleb128 0x3
 6952 1d15 91       		.byte	0x91
 6953 1d16 A07D     		.sleb128 -352
 6954 1d18 00       		.byte	0
 6955 1d19 00       		.byte	0
 6956 1d1a 28       		.uleb128 0x28
 6957 1d1b FE090000 		.4byte	.LBB104
 6958 1d1f 90000000 		.4byte	.LBE104-.LBB104
 6959 1d23 0B1E0000 		.4byte	0x1e0b
 6960 1d27 33       		.uleb128 0x33
 6961 1d28 0C150000 		.4byte	.LASF266
 6962 1d2c 01       		.byte	0x1
 6963 1d2d 3301     		.2byte	0x133
 6964 1d2f 25000000 		.4byte	0x25
 6965 1d33 03       		.uleb128 0x3
 6966 1d34 91       		.byte	0x91
 6967 1d35 947D     		.sleb128 -364
 6968 1d37 33       		.uleb128 0x33
 6969 1d38 E8090000 		.4byte	.LASF269
 6970 1d3c 01       		.byte	0x1
 6971 1d3d 3401     		.2byte	0x134
 6972 1d3f 25000000 		.4byte	0x25
 6973 1d43 03       		.uleb128 0x3
 6974 1d44 91       		.byte	0x91
 6975 1d45 987D     		.sleb128 -360
 6976 1d47 33       		.uleb128 0x33
 6977 1d48 CC150000 		.4byte	.LASF322
 6978 1d4c 01       		.byte	0x1
 6979 1d4d 3501     		.2byte	0x135
 6980 1d4f 25000000 		.4byte	0x25
 6981 1d53 03       		.uleb128 0x3
ARM GAS  /var/folders/sv/kgmgr77579zbf78p2zlhkdfr0000gn/T//ccygG6jq.s 			page 134


 6982 1d54 91       		.byte	0x91
 6983 1d55 9C7D     		.sleb128 -356
 6984 1d57 39       		.uleb128 0x39
 6985 1d58 72657300 		.ascii	"res\000"
 6986 1d5c 01       		.byte	0x1
 6987 1d5d 3601     		.2byte	0x136
 6988 1d5f 25000000 		.4byte	0x25
 6989 1d63 03       		.uleb128 0x3
 6990 1d64 91       		.byte	0x91
 6991 1d65 A07D     		.sleb128 -352
 6992 1d67 28       		.uleb128 0x28
 6993 1d68 860A0000 		.4byte	.LBB105
 6994 1d6c 08000000 		.4byte	.LBE105-.LBB105
 6995 1d70 961D0000 		.4byte	0x1d96
 6996 1d74 33       		.uleb128 0x33
 6997 1d75 B9150000 		.4byte	.LASF323
 6998 1d79 01       		.byte	0x1
 6999 1d7a 3D01     		.2byte	0x13d
 7000 1d7c 25000000 		.4byte	0x25
 7001 1d80 03       		.uleb128 0x3
 7002 1d81 91       		.byte	0x91
 7003 1d82 A47D     		.sleb128 -348
 7004 1d84 2C       		.uleb128 0x2c
 7005 1d85 8C0A0000 		.4byte	.LVL210
 7006 1d89 8E2F0000 		.4byte	0x2f8e
 7007 1d8d 2A       		.uleb128 0x2a
 7008 1d8e 01       		.uleb128 0x1
 7009 1d8f 50       		.byte	0x50
 7010 1d90 03       		.uleb128 0x3
 7011 1d91 91       		.byte	0x91
 7012 1d92 A47D     		.sleb128 -348
 7013 1d94 00       		.byte	0
 7014 1d95 00       		.byte	0
 7015 1d96 29       		.uleb128 0x29
 7016 1d97 120A0000 		.4byte	.LVL206
 7017 1d9b 2B2F0000 		.4byte	0x2f2b
 7018 1d9f B41D0000 		.4byte	0x1db4
 7019 1da3 2A       		.uleb128 0x2a
 7020 1da4 01       		.uleb128 0x1
 7021 1da5 51       		.byte	0x51
 7022 1da6 05       		.uleb128 0x5
 7023 1da7 03       		.byte	0x3
 7024 1da8 F0040000 		.4byte	.LC63
 7025 1dac 2A       		.uleb128 0x2a
 7026 1dad 01       		.uleb128 0x1
 7027 1dae 52       		.byte	0x52
 7028 1daf 03       		.uleb128 0x3
 7029 1db0 91       		.byte	0x91
 7030 1db1 947D     		.sleb128 -364
 7031 1db3 00       		.byte	0
 7032 1db4 29       		.uleb128 0x29
 7033 1db5 1C0A0000 		.4byte	.LVL207
 7034 1db9 2B2F0000 		.4byte	0x2f2b
 7035 1dbd D21D0000 		.4byte	0x1dd2
 7036 1dc1 2A       		.uleb128 0x2a
 7037 1dc2 01       		.uleb128 0x1
 7038 1dc3 51       		.byte	0x51
ARM GAS  /var/folders/sv/kgmgr77579zbf78p2zlhkdfr0000gn/T//ccygG6jq.s 			page 135


 7039 1dc4 05       		.uleb128 0x5
 7040 1dc5 03       		.byte	0x3
 7041 1dc6 F0040000 		.4byte	.LC63
 7042 1dca 2A       		.uleb128 0x2a
 7043 1dcb 01       		.uleb128 0x1
 7044 1dcc 52       		.byte	0x52
 7045 1dcd 03       		.uleb128 0x3
 7046 1dce 91       		.byte	0x91
 7047 1dcf 987D     		.sleb128 -360
 7048 1dd1 00       		.byte	0
 7049 1dd2 29       		.uleb128 0x29
 7050 1dd3 260A0000 		.4byte	.LVL208
 7051 1dd7 2B2F0000 		.4byte	0x2f2b
 7052 1ddb F01D0000 		.4byte	0x1df0
 7053 1ddf 2A       		.uleb128 0x2a
 7054 1de0 01       		.uleb128 0x1
 7055 1de1 51       		.byte	0x51
 7056 1de2 05       		.uleb128 0x5
 7057 1de3 03       		.byte	0x3
 7058 1de4 F0040000 		.4byte	.LC63
 7059 1de8 2A       		.uleb128 0x2a
 7060 1de9 01       		.uleb128 0x1
 7061 1dea 52       		.byte	0x52
 7062 1deb 03       		.uleb128 0x3
 7063 1dec 91       		.byte	0x91
 7064 1ded 9C7D     		.sleb128 -356
 7065 1def 00       		.byte	0
 7066 1df0 2C       		.uleb128 0x2c
 7067 1df1 300A0000 		.4byte	.LVL209
 7068 1df5 2B2F0000 		.4byte	0x2f2b
 7069 1df9 2A       		.uleb128 0x2a
 7070 1dfa 01       		.uleb128 0x1
 7071 1dfb 51       		.byte	0x51
 7072 1dfc 05       		.uleb128 0x5
 7073 1dfd 03       		.byte	0x3
 7074 1dfe F0040000 		.4byte	.LC63
 7075 1e02 2A       		.uleb128 0x2a
 7076 1e03 01       		.uleb128 0x1
 7077 1e04 52       		.byte	0x52
 7078 1e05 03       		.uleb128 0x3
 7079 1e06 91       		.byte	0x91
 7080 1e07 A07D     		.sleb128 -352
 7081 1e09 00       		.byte	0
 7082 1e0a 00       		.byte	0
 7083 1e0b 32       		.uleb128 0x32
 7084 1e0c E0000000 		.4byte	.Ldebug_ranges0+0xe0
 7085 1e10 DA1F0000 		.4byte	0x1fda
 7086 1e14 33       		.uleb128 0x33
 7087 1e15 E8090000 		.4byte	.LASF269
 7088 1e19 01       		.byte	0x1
 7089 1e1a 5301     		.2byte	0x153
 7090 1e1c 25000000 		.4byte	0x25
 7091 1e20 03       		.uleb128 0x3
 7092 1e21 91       		.byte	0x91
 7093 1e22 A47D     		.sleb128 -348
 7094 1e24 32       		.uleb128 0x32
 7095 1e25 F8000000 		.4byte	.Ldebug_ranges0+0xf8
ARM GAS  /var/folders/sv/kgmgr77579zbf78p2zlhkdfr0000gn/T//ccygG6jq.s 			page 136


 7096 1e29 C01F0000 		.4byte	0x1fc0
 7097 1e2d 38       		.uleb128 0x38
 7098 1e2e 72657300 		.ascii	"res\000"
 7099 1e32 01       		.byte	0x1
 7100 1e33 5901     		.2byte	0x159
 7101 1e35 762D0000 		.4byte	0x2d76
 7102 1e39 F6020000 		.4byte	.LLST21
 7103 1e3d 3A       		.uleb128 0x3a
 7104 1e3e AE040000 		.4byte	.LASF324
 7105 1e42 01       		.byte	0x1
 7106 1e43 5C01     		.2byte	0x15c
 7107 1e45 73010000 		.4byte	0x173
 7108 1e49 0A030000 		.4byte	.LLST22
 7109 1e4d 3A       		.uleb128 0x3a
 7110 1e4e 9B140000 		.4byte	.LASF325
 7111 1e52 01       		.byte	0x1
 7112 1e53 5D01     		.2byte	0x15d
 7113 1e55 25000000 		.4byte	0x25
 7114 1e59 28030000 		.4byte	.LLST23
 7115 1e5d 3A       		.uleb128 0x3a
 7116 1e5e C70F0000 		.4byte	.LASF326
 7117 1e62 01       		.byte	0x1
 7118 1e63 6601     		.2byte	0x166
 7119 1e65 25000000 		.4byte	0x25
 7120 1e69 48030000 		.4byte	.LLST24
 7121 1e6d 3A       		.uleb128 0x3a
 7122 1e6e 26000000 		.4byte	.LASF327
 7123 1e72 01       		.byte	0x1
 7124 1e73 6701     		.2byte	0x167
 7125 1e75 25000000 		.4byte	0x25
 7126 1e79 8C030000 		.4byte	.LLST25
 7127 1e7d 3A       		.uleb128 0x3a
 7128 1e7e F50B0000 		.4byte	.LASF328
 7129 1e82 01       		.byte	0x1
 7130 1e83 6801     		.2byte	0x168
 7131 1e85 25000000 		.4byte	0x25
 7132 1e89 D0030000 		.4byte	.LLST26
 7133 1e8d 3A       		.uleb128 0x3a
 7134 1e8e D7110000 		.4byte	.LASF329
 7135 1e92 01       		.byte	0x1
 7136 1e93 6901     		.2byte	0x169
 7137 1e95 25000000 		.4byte	0x25
 7138 1e99 E4030000 		.4byte	.LLST27
 7139 1e9d 3B       		.uleb128 0x3b
 7140 1e9e B9150000 		.4byte	.LASF323
 7141 1ea2 01       		.byte	0x1
 7142 1ea3 7C01     		.2byte	0x17c
 7143 1ea5 25000000 		.4byte	0x25
 7144 1ea9 32       		.uleb128 0x32
 7145 1eaa 10010000 		.4byte	.Ldebug_ranges0+0x110
 7146 1eae DA1E0000 		.4byte	0x1eda
 7147 1eb2 38       		.uleb128 0x38
 7148 1eb3 6900     		.ascii	"i\000"
 7149 1eb5 01       		.byte	0x1
 7150 1eb6 6101     		.2byte	0x161
 7151 1eb8 2C000000 		.4byte	0x2c
 7152 1ebc 28040000 		.4byte	.LLST28
ARM GAS  /var/folders/sv/kgmgr77579zbf78p2zlhkdfr0000gn/T//ccygG6jq.s 			page 137


 7153 1ec0 2B       		.uleb128 0x2b
 7154 1ec1 380B0000 		.4byte	.LVL228
 7155 1ec5 992F0000 		.4byte	0x2f99
 7156 1ec9 2C       		.uleb128 0x2c
 7157 1eca 3E0B0000 		.4byte	.LVL229
 7158 1ece A42F0000 		.4byte	0x2fa4
 7159 1ed2 2A       		.uleb128 0x2a
 7160 1ed3 01       		.uleb128 0x1
 7161 1ed4 50       		.byte	0x50
 7162 1ed5 02       		.uleb128 0x2
 7163 1ed6 08       		.byte	0x8
 7164 1ed7 C8       		.byte	0xc8
 7165 1ed8 00       		.byte	0
 7166 1ed9 00       		.byte	0
 7167 1eda 28       		.uleb128 0x28
 7168 1edb 560B0000 		.4byte	.LBB110
 7169 1edf 2A000000 		.4byte	.LBE110-.LBB110
 7170 1ee3 201F0000 		.4byte	0x1f20
 7171 1ee7 38       		.uleb128 0x38
 7172 1ee8 6900     		.ascii	"i\000"
 7173 1eea 01       		.byte	0x1
 7174 1eeb 6A01     		.2byte	0x16a
 7175 1eed 2C000000 		.4byte	0x2c
 7176 1ef1 5F040000 		.4byte	.LLST29
 7177 1ef5 2B       		.uleb128 0x2b
 7178 1ef6 5E0B0000 		.4byte	.LVL232
 7179 1efa AF2F0000 		.4byte	0x2faf
 7180 1efe 2B       		.uleb128 0x2b
 7181 1eff 660B0000 		.4byte	.LVL234
 7182 1f03 BA2F0000 		.4byte	0x2fba
 7183 1f07 2B       		.uleb128 0x2b
 7184 1f08 6E0B0000 		.4byte	.LVL236
 7185 1f0c C52F0000 		.4byte	0x2fc5
 7186 1f10 2C       		.uleb128 0x2c
 7187 1f11 780B0000 		.4byte	.LVL238
 7188 1f15 A42F0000 		.4byte	0x2fa4
 7189 1f19 2A       		.uleb128 0x2a
 7190 1f1a 01       		.uleb128 0x1
 7191 1f1b 50       		.byte	0x50
 7192 1f1c 01       		.uleb128 0x1
 7193 1f1d 3A       		.byte	0x3a
 7194 1f1e 00       		.byte	0
 7195 1f1f 00       		.byte	0
 7196 1f20 29       		.uleb128 0x29
 7197 1f21 9C0A0000 		.4byte	.LVL213
 7198 1f25 F42E0000 		.4byte	0x2ef4
 7199 1f29 371F0000 		.4byte	0x1f37
 7200 1f2d 2A       		.uleb128 0x2a
 7201 1f2e 01       		.uleb128 0x1
 7202 1f2f 50       		.byte	0x50
 7203 1f30 05       		.uleb128 0x5
 7204 1f31 03       		.byte	0x3
 7205 1f32 84080000 		.4byte	.LC97
 7206 1f36 00       		.byte	0
 7207 1f37 29       		.uleb128 0x29
 7208 1f38 F20A0000 		.4byte	.LVL218
 7209 1f3c 412F0000 		.4byte	0x2f41
ARM GAS  /var/folders/sv/kgmgr77579zbf78p2zlhkdfr0000gn/T//ccygG6jq.s 			page 138


 7210 1f40 4B1F0000 		.4byte	0x1f4b
 7211 1f44 2A       		.uleb128 0x2a
 7212 1f45 01       		.uleb128 0x1
 7213 1f46 50       		.byte	0x50
 7214 1f47 02       		.uleb128 0x2
 7215 1f48 77       		.byte	0x77
 7216 1f49 00       		.sleb128 0
 7217 1f4a 00       		.byte	0
 7218 1f4b 2B       		.uleb128 0x2b
 7219 1f4c 020B0000 		.4byte	.LVL220
 7220 1f50 D02F0000 		.4byte	0x2fd0
 7221 1f54 2B       		.uleb128 0x2b
 7222 1f55 080B0000 		.4byte	.LVL222
 7223 1f59 DB2F0000 		.4byte	0x2fdb
 7224 1f5d 2B       		.uleb128 0x2b
 7225 1f5e 100B0000 		.4byte	.LVL224
 7226 1f62 E62F0000 		.4byte	0x2fe6
 7227 1f66 29       		.uleb128 0x29
 7228 1f67 1C0B0000 		.4byte	.LVL225
 7229 1f6b F12F0000 		.4byte	0x2ff1
 7230 1f6f 871F0000 		.4byte	0x1f87
 7231 1f73 2A       		.uleb128 0x2a
 7232 1f74 01       		.uleb128 0x1
 7233 1f75 50       		.byte	0x50
 7234 1f76 03       		.uleb128 0x3
 7235 1f77 0A       		.byte	0xa
 7236 1f78 60EA     		.2byte	0xea60
 7237 1f7a 2A       		.uleb128 0x2a
 7238 1f7b 02       		.uleb128 0x2
 7239 1f7c 90       		.byte	0x90
 7240 1f7d 40       		.uleb128 0x40
 7241 1f7e 07       		.uleb128 0x7
 7242 1f7f F4       		.byte	0xf4
 7243 1f80 25       		.uleb128 0x25
 7244 1f81 04       		.byte	0x4
 7245 1f82 00000000 		.4byte	0
 7246 1f86 00       		.byte	0
 7247 1f87 2B       		.uleb128 0x2b
 7248 1f88 840B0000 		.4byte	.LVL241
 7249 1f8c FC2F0000 		.4byte	0x2ffc
 7250 1f90 29       		.uleb128 0x29
 7251 1f91 8A0B0000 		.4byte	.LVL242
 7252 1f95 412F0000 		.4byte	0x2f41
 7253 1f99 A71F0000 		.4byte	0x1fa7
 7254 1f9d 2A       		.uleb128 0x2a
 7255 1f9e 01       		.uleb128 0x1
 7256 1f9f 50       		.byte	0x50
 7257 1fa0 05       		.uleb128 0x5
 7258 1fa1 03       		.byte	0x3
 7259 1fa2 00000000 		.4byte	.LANCHOR1
 7260 1fa6 00       		.byte	0
 7261 1fa7 2C       		.uleb128 0x2c
 7262 1fa8 940B0000 		.4byte	.LVL243
 7263 1fac F12F0000 		.4byte	0x2ff1
 7264 1fb0 2A       		.uleb128 0x2a
 7265 1fb1 01       		.uleb128 0x1
 7266 1fb2 50       		.byte	0x50
ARM GAS  /var/folders/sv/kgmgr77579zbf78p2zlhkdfr0000gn/T//ccygG6jq.s 			page 139


 7267 1fb3 02       		.uleb128 0x2
 7268 1fb4 77       		.byte	0x77
 7269 1fb5 00       		.sleb128 0
 7270 1fb6 2A       		.uleb128 0x2a
 7271 1fb7 02       		.uleb128 0x2
 7272 1fb8 90       		.byte	0x90
 7273 1fb9 40       		.uleb128 0x40
 7274 1fba 03       		.uleb128 0x3
 7275 1fbb F5       		.byte	0xf5
 7276 1fbc 55       		.uleb128 0x55
 7277 1fbd 25       		.uleb128 0x25
 7278 1fbe 00       		.byte	0
 7279 1fbf 00       		.byte	0
 7280 1fc0 2C       		.uleb128 0x2c
 7281 1fc1 D40A0000 		.4byte	.LVL217
 7282 1fc5 2B2F0000 		.4byte	0x2f2b
 7283 1fc9 2A       		.uleb128 0x2a
 7284 1fca 01       		.uleb128 0x1
 7285 1fcb 51       		.byte	0x51
 7286 1fcc 05       		.uleb128 0x5
 7287 1fcd 03       		.byte	0x3
 7288 1fce F0040000 		.4byte	.LC63
 7289 1fd2 2A       		.uleb128 0x2a
 7290 1fd3 01       		.uleb128 0x1
 7291 1fd4 52       		.byte	0x52
 7292 1fd5 02       		.uleb128 0x2
 7293 1fd6 75       		.byte	0x75
 7294 1fd7 00       		.sleb128 0
 7295 1fd8 00       		.byte	0
 7296 1fd9 00       		.byte	0
 7297 1fda 28       		.uleb128 0x28
 7298 1fdb B60B0000 		.4byte	.LBB113
 7299 1fdf 40000000 		.4byte	.LBE113-.LBB113
 7300 1fe3 7C200000 		.4byte	0x207c
 7301 1fe7 39       		.uleb128 0x39
 7302 1fe8 72657300 		.ascii	"res\000"
 7303 1fec 01       		.byte	0x1
 7304 1fed 4A01     		.2byte	0x14a
 7305 1fef 25000000 		.4byte	0x25
 7306 1ff3 03       		.uleb128 0x3
 7307 1ff4 91       		.byte	0x91
 7308 1ff5 A07D     		.sleb128 -352
 7309 1ff7 39       		.uleb128 0x39
 7310 1ff8 696E6400 		.ascii	"ind\000"
 7311 1ffc 01       		.byte	0x1
 7312 1ffd 4B01     		.2byte	0x14b
 7313 1fff 25000000 		.4byte	0x25
 7314 2003 03       		.uleb128 0x3
 7315 2004 91       		.byte	0x91
 7316 2005 A47D     		.sleb128 -348
 7317 2007 29       		.uleb128 0x29
 7318 2008 C20B0000 		.4byte	.LVL251
 7319 200c 412F0000 		.4byte	0x2f41
 7320 2010 1E200000 		.4byte	0x201e
 7321 2014 2A       		.uleb128 0x2a
 7322 2015 01       		.uleb128 0x1
 7323 2016 50       		.byte	0x50
ARM GAS  /var/folders/sv/kgmgr77579zbf78p2zlhkdfr0000gn/T//ccygG6jq.s 			page 140


 7324 2017 05       		.uleb128 0x5
 7325 2018 03       		.byte	0x3
 7326 2019 00000000 		.4byte	.LANCHOR0
 7327 201d 00       		.byte	0
 7328 201e 29       		.uleb128 0x29
 7329 201f D00B0000 		.4byte	.LVL252
 7330 2023 07300000 		.4byte	0x3007
 7331 2027 3A200000 		.4byte	0x203a
 7332 202b 2A       		.uleb128 0x2a
 7333 202c 01       		.uleb128 0x1
 7334 202d 50       		.byte	0x50
 7335 202e 03       		.uleb128 0x3
 7336 202f 91       		.byte	0x91
 7337 2030 A07D     		.sleb128 -352
 7338 2032 2A       		.uleb128 0x2a
 7339 2033 01       		.uleb128 0x1
 7340 2034 51       		.byte	0x51
 7341 2035 03       		.uleb128 0x3
 7342 2036 91       		.byte	0x91
 7343 2037 A47D     		.sleb128 -348
 7344 2039 00       		.byte	0
 7345 203a 29       		.uleb128 0x29
 7346 203b E00B0000 		.4byte	.LVL254
 7347 203f F42E0000 		.4byte	0x2ef4
 7348 2043 51200000 		.4byte	0x2051
 7349 2047 2A       		.uleb128 0x2a
 7350 2048 01       		.uleb128 0x1
 7351 2049 50       		.byte	0x50
 7352 204a 05       		.uleb128 0x5
 7353 204b 03       		.byte	0x3
 7354 204c A8080000 		.4byte	.LC99
 7355 2050 00       		.byte	0
 7356 2051 29       		.uleb128 0x29
 7357 2052 F00B0000 		.4byte	.LVL256
 7358 2056 F42E0000 		.4byte	0x2ef4
 7359 205a 68200000 		.4byte	0x2068
 7360 205e 2A       		.uleb128 0x2a
 7361 205f 01       		.uleb128 0x1
 7362 2060 50       		.byte	0x50
 7363 2061 05       		.uleb128 0x5
 7364 2062 03       		.byte	0x3
 7365 2063 C0080000 		.4byte	.LC100
 7366 2067 00       		.byte	0
 7367 2068 2C       		.uleb128 0x2c
 7368 2069 F60B0000 		.4byte	.LVL257
 7369 206d 412F0000 		.4byte	0x2f41
 7370 2071 2A       		.uleb128 0x2a
 7371 2072 01       		.uleb128 0x1
 7372 2073 50       		.byte	0x50
 7373 2074 05       		.uleb128 0x5
 7374 2075 03       		.byte	0x3
 7375 2076 00000000 		.4byte	.LANCHOR1
 7376 207a 00       		.byte	0
 7377 207b 00       		.byte	0
 7378 207c 32       		.uleb128 0x32
 7379 207d 28010000 		.4byte	.Ldebug_ranges0+0x128
 7380 2081 EE200000 		.4byte	0x20ee
ARM GAS  /var/folders/sv/kgmgr77579zbf78p2zlhkdfr0000gn/T//ccygG6jq.s 			page 141


 7381 2085 3A       		.uleb128 0x3a
 7382 2086 B9030000 		.4byte	.LASF331
 7383 208a 01       		.byte	0x1
 7384 208b AA02     		.2byte	0x2aa
 7385 208d FB0E0000 		.4byte	0xefb
 7386 2091 89040000 		.4byte	.LLST30
 7387 2095 32       		.uleb128 0x32
 7388 2096 40010000 		.4byte	.Ldebug_ranges0+0x140
 7389 209a D4200000 		.4byte	0x20d4
 7390 209e 38       		.uleb128 0x38
 7391 209f 6900     		.ascii	"i\000"
 7392 20a1 01       		.byte	0x1
 7393 20a2 AB02     		.2byte	0x2ab
 7394 20a4 2C000000 		.4byte	0x2c
 7395 20a8 A9040000 		.4byte	.LLST31
 7396 20ac 29       		.uleb128 0x29
 7397 20ad 000D0000 		.4byte	.LVL275
 7398 20b1 12300000 		.4byte	0x3012
 7399 20b5 C0200000 		.4byte	0x20c0
 7400 20b9 2A       		.uleb128 0x2a
 7401 20ba 01       		.uleb128 0x1
 7402 20bb 50       		.byte	0x50
 7403 20bc 02       		.uleb128 0x2
 7404 20bd 75       		.byte	0x75
 7405 20be 00       		.sleb128 0
 7406 20bf 00       		.byte	0
 7407 20c0 3C       		.uleb128 0x3c
 7408 20c1 380E0000 		.4byte	.LVL292
 7409 20c5 2A       		.uleb128 0x2a
 7410 20c6 01       		.uleb128 0x1
 7411 20c7 50       		.byte	0x50
 7412 20c8 02       		.uleb128 0x2
 7413 20c9 74       		.byte	0x74
 7414 20ca 00       		.sleb128 0
 7415 20cb 2A       		.uleb128 0x2a
 7416 20cc 01       		.uleb128 0x1
 7417 20cd 51       		.byte	0x51
 7418 20ce 03       		.uleb128 0x3
 7419 20cf 91       		.byte	0x91
 7420 20d0 C07D     		.sleb128 -320
 7421 20d2 00       		.byte	0
 7422 20d3 00       		.byte	0
 7423 20d4 2C       		.uleb128 0x2c
 7424 20d5 140D0000 		.4byte	.LVL278
 7425 20d9 F42E0000 		.4byte	0x2ef4
 7426 20dd 2A       		.uleb128 0x2a
 7427 20de 01       		.uleb128 0x1
 7428 20df 50       		.byte	0x50
 7429 20e0 05       		.uleb128 0x5
 7430 20e1 03       		.byte	0x3
 7431 20e2 30110000 		.4byte	.LC161
 7432 20e6 2A       		.uleb128 0x2a
 7433 20e7 01       		.uleb128 0x1
 7434 20e8 51       		.byte	0x51
 7435 20e9 02       		.uleb128 0x2
 7436 20ea 75       		.byte	0x75
 7437 20eb 00       		.sleb128 0
ARM GAS  /var/folders/sv/kgmgr77579zbf78p2zlhkdfr0000gn/T//ccygG6jq.s 			page 142


 7438 20ec 00       		.byte	0
 7439 20ed 00       		.byte	0
 7440 20ee 32       		.uleb128 0x32
 7441 20ef 58010000 		.4byte	.Ldebug_ranges0+0x158
 7442 20f3 54210000 		.4byte	0x2154
 7443 20f7 38       		.uleb128 0x38
 7444 20f8 6900     		.ascii	"i\000"
 7445 20fa 01       		.byte	0x1
 7446 20fb 9A02     		.2byte	0x29a
 7447 20fd 2C000000 		.4byte	0x2c
 7448 2101 D3040000 		.4byte	.LLST32
 7449 2105 29       		.uleb128 0x29
 7450 2106 A20F0000 		.4byte	.LVL350
 7451 210a F42E0000 		.4byte	0x2ef4
 7452 210e 1C210000 		.4byte	0x211c
 7453 2112 2A       		.uleb128 0x2a
 7454 2113 01       		.uleb128 0x1
 7455 2114 50       		.byte	0x50
 7456 2115 05       		.uleb128 0x5
 7457 2116 03       		.byte	0x3
 7458 2117 F0100000 		.4byte	.LC158
 7459 211b 00       		.byte	0
 7460 211c 29       		.uleb128 0x29
 7461 211d B00F0000 		.4byte	.LVL351
 7462 2121 F42E0000 		.4byte	0x2ef4
 7463 2125 33210000 		.4byte	0x2133
 7464 2129 2A       		.uleb128 0x2a
 7465 212a 01       		.uleb128 0x1
 7466 212b 50       		.byte	0x50
 7467 212c 05       		.uleb128 0x5
 7468 212d 03       		.byte	0x3
 7469 212e F8100000 		.4byte	.LC159
 7470 2132 00       		.byte	0
 7471 2133 29       		.uleb128 0x29
 7472 2134 CC0F0000 		.4byte	.LVL356
 7473 2138 F42E0000 		.4byte	0x2ef4
 7474 213c 4A210000 		.4byte	0x214a
 7475 2140 2A       		.uleb128 0x2a
 7476 2141 01       		.uleb128 0x1
 7477 2142 50       		.byte	0x50
 7478 2143 05       		.uleb128 0x5
 7479 2144 03       		.byte	0x3
 7480 2145 00110000 		.4byte	.LC160
 7481 2149 00       		.byte	0
 7482 214a 2B       		.uleb128 0x2b
 7483 214b D60F0000 		.4byte	.LVL357
 7484 214f F42E0000 		.4byte	0x2ef4
 7485 2153 00       		.byte	0
 7486 2154 29       		.uleb128 0x29
 7487 2155 10000000 		.4byte	.LVL1
 7488 2159 1D300000 		.4byte	0x301d
 7489 215d 72210000 		.4byte	0x2172
 7490 2161 2A       		.uleb128 0x2a
 7491 2162 01       		.uleb128 0x1
 7492 2163 50       		.byte	0x50
 7493 2164 03       		.uleb128 0x3
 7494 2165 F3       		.byte	0xf3
ARM GAS  /var/folders/sv/kgmgr77579zbf78p2zlhkdfr0000gn/T//ccygG6jq.s 			page 143


 7495 2166 01       		.uleb128 0x1
 7496 2167 50       		.byte	0x50
 7497 2168 2A       		.uleb128 0x2a
 7498 2169 01       		.uleb128 0x1
 7499 216a 51       		.byte	0x51
 7500 216b 05       		.uleb128 0x5
 7501 216c 03       		.byte	0x3
 7502 216d 18000000 		.4byte	.LC4
 7503 2171 00       		.byte	0
 7504 2172 29       		.uleb128 0x29
 7505 2173 2A000000 		.4byte	.LVL5
 7506 2177 1D300000 		.4byte	0x301d
 7507 217b 8E210000 		.4byte	0x218e
 7508 217f 2A       		.uleb128 0x2a
 7509 2180 01       		.uleb128 0x1
 7510 2181 50       		.byte	0x50
 7511 2182 01       		.uleb128 0x1
 7512 2183 30       		.byte	0x30
 7513 2184 2A       		.uleb128 0x2a
 7514 2185 01       		.uleb128 0x1
 7515 2186 51       		.byte	0x51
 7516 2187 05       		.uleb128 0x5
 7517 2188 03       		.byte	0x3
 7518 2189 18000000 		.4byte	.LC4
 7519 218d 00       		.byte	0
 7520 218e 2B       		.uleb128 0x2b
 7521 218f 34000000 		.4byte	.LVL7
 7522 2193 28300000 		.4byte	0x3028
 7523 2197 29       		.uleb128 0x29
 7524 2198 40000000 		.4byte	.LVL8
 7525 219c 33300000 		.4byte	0x3033
 7526 21a0 B5210000 		.4byte	0x21b5
 7527 21a4 2A       		.uleb128 0x2a
 7528 21a5 01       		.uleb128 0x1
 7529 21a6 50       		.byte	0x50
 7530 21a7 05       		.uleb128 0x5
 7531 21a8 03       		.byte	0x3
 7532 21a9 00000000 		.4byte	.LANCHOR0
 7533 21ad 2A       		.uleb128 0x2a
 7534 21ae 01       		.uleb128 0x1
 7535 21af 52       		.byte	0x52
 7536 21b0 03       		.uleb128 0x3
 7537 21b1 0A       		.byte	0xa
 7538 21b2 7401     		.2byte	0x174
 7539 21b4 00       		.byte	0
 7540 21b5 29       		.uleb128 0x29
 7541 21b6 4C000000 		.4byte	.LVL9
 7542 21ba 33300000 		.4byte	0x3033
 7543 21be DC210000 		.4byte	0x21dc
 7544 21c2 2A       		.uleb128 0x2a
 7545 21c3 01       		.uleb128 0x1
 7546 21c4 50       		.byte	0x50
 7547 21c5 05       		.uleb128 0x5
 7548 21c6 03       		.byte	0x3
 7549 21c7 00000000 		.4byte	.LANCHOR1
 7550 21cb 2A       		.uleb128 0x2a
 7551 21cc 01       		.uleb128 0x1
ARM GAS  /var/folders/sv/kgmgr77579zbf78p2zlhkdfr0000gn/T//ccygG6jq.s 			page 144


 7552 21cd 51       		.byte	0x51
 7553 21ce 05       		.uleb128 0x5
 7554 21cf 03       		.byte	0x3
 7555 21d0 00000000 		.4byte	.LANCHOR0
 7556 21d4 2A       		.uleb128 0x2a
 7557 21d5 01       		.uleb128 0x1
 7558 21d6 52       		.byte	0x52
 7559 21d7 03       		.uleb128 0x3
 7560 21d8 0A       		.byte	0xa
 7561 21d9 7401     		.2byte	0x174
 7562 21db 00       		.byte	0
 7563 21dc 29       		.uleb128 0x29
 7564 21dd 56000000 		.4byte	.LVL10
 7565 21e1 12300000 		.4byte	0x3012
 7566 21e5 F9210000 		.4byte	0x21f9
 7567 21e9 2A       		.uleb128 0x2a
 7568 21ea 01       		.uleb128 0x1
 7569 21eb 50       		.byte	0x50
 7570 21ec 02       		.uleb128 0x2
 7571 21ed 75       		.byte	0x75
 7572 21ee 00       		.sleb128 0
 7573 21ef 2A       		.uleb128 0x2a
 7574 21f0 01       		.uleb128 0x1
 7575 21f1 51       		.byte	0x51
 7576 21f2 05       		.uleb128 0x5
 7577 21f3 03       		.byte	0x3
 7578 21f4 34000000 		.4byte	.LC6
 7579 21f8 00       		.byte	0
 7580 21f9 29       		.uleb128 0x29
 7581 21fa 62000000 		.4byte	.LVL11
 7582 21fe 12300000 		.4byte	0x3012
 7583 2202 16220000 		.4byte	0x2216
 7584 2206 2A       		.uleb128 0x2a
 7585 2207 01       		.uleb128 0x1
 7586 2208 50       		.byte	0x50
 7587 2209 02       		.uleb128 0x2
 7588 220a 75       		.byte	0x75
 7589 220b 00       		.sleb128 0
 7590 220c 2A       		.uleb128 0x2a
 7591 220d 01       		.uleb128 0x1
 7592 220e 51       		.byte	0x51
 7593 220f 05       		.uleb128 0x5
 7594 2210 03       		.byte	0x3
 7595 2211 44000000 		.4byte	.LC8
 7596 2215 00       		.byte	0
 7597 2216 29       		.uleb128 0x29
 7598 2217 6E000000 		.4byte	.LVL12
 7599 221b 12300000 		.4byte	0x3012
 7600 221f 33220000 		.4byte	0x2233
 7601 2223 2A       		.uleb128 0x2a
 7602 2224 01       		.uleb128 0x1
 7603 2225 50       		.byte	0x50
 7604 2226 02       		.uleb128 0x2
 7605 2227 75       		.byte	0x75
 7606 2228 00       		.sleb128 0
 7607 2229 2A       		.uleb128 0x2a
 7608 222a 01       		.uleb128 0x1
ARM GAS  /var/folders/sv/kgmgr77579zbf78p2zlhkdfr0000gn/T//ccygG6jq.s 			page 145


 7609 222b 51       		.byte	0x51
 7610 222c 05       		.uleb128 0x5
 7611 222d 03       		.byte	0x3
 7612 222e 5C000000 		.4byte	.LC10
 7613 2232 00       		.byte	0
 7614 2233 29       		.uleb128 0x29
 7615 2234 7A000000 		.4byte	.LVL13
 7616 2238 12300000 		.4byte	0x3012
 7617 223c 50220000 		.4byte	0x2250
 7618 2240 2A       		.uleb128 0x2a
 7619 2241 01       		.uleb128 0x1
 7620 2242 50       		.byte	0x50
 7621 2243 02       		.uleb128 0x2
 7622 2244 75       		.byte	0x75
 7623 2245 00       		.sleb128 0
 7624 2246 2A       		.uleb128 0x2a
 7625 2247 01       		.uleb128 0x1
 7626 2248 51       		.byte	0x51
 7627 2249 05       		.uleb128 0x5
 7628 224a 03       		.byte	0x3
 7629 224b E0000000 		.4byte	.LC14
 7630 224f 00       		.byte	0
 7631 2250 29       		.uleb128 0x29
 7632 2251 86000000 		.4byte	.LVL14
 7633 2255 12300000 		.4byte	0x3012
 7634 2259 6D220000 		.4byte	0x226d
 7635 225d 2A       		.uleb128 0x2a
 7636 225e 01       		.uleb128 0x1
 7637 225f 50       		.byte	0x50
 7638 2260 02       		.uleb128 0x2
 7639 2261 75       		.byte	0x75
 7640 2262 00       		.sleb128 0
 7641 2263 2A       		.uleb128 0x2a
 7642 2264 01       		.uleb128 0x1
 7643 2265 51       		.byte	0x51
 7644 2266 05       		.uleb128 0x5
 7645 2267 03       		.byte	0x3
 7646 2268 04010000 		.4byte	.LC16
 7647 226c 00       		.byte	0
 7648 226d 29       		.uleb128 0x29
 7649 226e 94000000 		.4byte	.LVL15
 7650 2272 12300000 		.4byte	0x3012
 7651 2276 8A220000 		.4byte	0x228a
 7652 227a 2A       		.uleb128 0x2a
 7653 227b 01       		.uleb128 0x1
 7654 227c 50       		.byte	0x50
 7655 227d 02       		.uleb128 0x2
 7656 227e 75       		.byte	0x75
 7657 227f 00       		.sleb128 0
 7658 2280 2A       		.uleb128 0x2a
 7659 2281 01       		.uleb128 0x1
 7660 2282 51       		.byte	0x51
 7661 2283 05       		.uleb128 0x5
 7662 2284 03       		.byte	0x3
 7663 2285 5C010000 		.4byte	.LC20
 7664 2289 00       		.byte	0
 7665 228a 29       		.uleb128 0x29
ARM GAS  /var/folders/sv/kgmgr77579zbf78p2zlhkdfr0000gn/T//ccygG6jq.s 			page 146


 7666 228b A2000000 		.4byte	.LVL16
 7667 228f 12300000 		.4byte	0x3012
 7668 2293 A7220000 		.4byte	0x22a7
 7669 2297 2A       		.uleb128 0x2a
 7670 2298 01       		.uleb128 0x1
 7671 2299 50       		.byte	0x50
 7672 229a 02       		.uleb128 0x2
 7673 229b 75       		.byte	0x75
 7674 229c 00       		.sleb128 0
 7675 229d 2A       		.uleb128 0x2a
 7676 229e 01       		.uleb128 0x1
 7677 229f 51       		.byte	0x51
 7678 22a0 05       		.uleb128 0x5
 7679 22a1 03       		.byte	0x3
 7680 22a2 0C020000 		.4byte	.LC25
 7681 22a6 00       		.byte	0
 7682 22a7 29       		.uleb128 0x29
 7683 22a8 B0000000 		.4byte	.LVL17
 7684 22ac 12300000 		.4byte	0x3012
 7685 22b0 C4220000 		.4byte	0x22c4
 7686 22b4 2A       		.uleb128 0x2a
 7687 22b5 01       		.uleb128 0x1
 7688 22b6 50       		.byte	0x50
 7689 22b7 02       		.uleb128 0x2
 7690 22b8 75       		.byte	0x75
 7691 22b9 00       		.sleb128 0
 7692 22ba 2A       		.uleb128 0x2a
 7693 22bb 01       		.uleb128 0x1
 7694 22bc 51       		.byte	0x51
 7695 22bd 05       		.uleb128 0x5
 7696 22be 03       		.byte	0x3
 7697 22bf 18020000 		.4byte	.LC27
 7698 22c3 00       		.byte	0
 7699 22c4 29       		.uleb128 0x29
 7700 22c5 BC000000 		.4byte	.LVL18
 7701 22c9 12300000 		.4byte	0x3012
 7702 22cd E1220000 		.4byte	0x22e1
 7703 22d1 2A       		.uleb128 0x2a
 7704 22d2 01       		.uleb128 0x1
 7705 22d3 50       		.byte	0x50
 7706 22d4 02       		.uleb128 0x2
 7707 22d5 75       		.byte	0x75
 7708 22d6 00       		.sleb128 0
 7709 22d7 2A       		.uleb128 0x2a
 7710 22d8 01       		.uleb128 0x1
 7711 22d9 51       		.byte	0x51
 7712 22da 05       		.uleb128 0x5
 7713 22db 03       		.byte	0x3
 7714 22dc C8030000 		.4byte	.LC44
 7715 22e0 00       		.byte	0
 7716 22e1 29       		.uleb128 0x29
 7717 22e2 CA000000 		.4byte	.LVL19
 7718 22e6 12300000 		.4byte	0x3012
 7719 22ea FE220000 		.4byte	0x22fe
 7720 22ee 2A       		.uleb128 0x2a
 7721 22ef 01       		.uleb128 0x1
 7722 22f0 50       		.byte	0x50
ARM GAS  /var/folders/sv/kgmgr77579zbf78p2zlhkdfr0000gn/T//ccygG6jq.s 			page 147


 7723 22f1 02       		.uleb128 0x2
 7724 22f2 75       		.byte	0x75
 7725 22f3 00       		.sleb128 0
 7726 22f4 2A       		.uleb128 0x2a
 7727 22f5 01       		.uleb128 0x1
 7728 22f6 51       		.byte	0x51
 7729 22f7 05       		.uleb128 0x5
 7730 22f8 03       		.byte	0x3
 7731 22f9 E8030000 		.4byte	.LC46
 7732 22fd 00       		.byte	0
 7733 22fe 29       		.uleb128 0x29
 7734 22ff D8000000 		.4byte	.LVL20
 7735 2303 12300000 		.4byte	0x3012
 7736 2307 1B230000 		.4byte	0x231b
 7737 230b 2A       		.uleb128 0x2a
 7738 230c 01       		.uleb128 0x1
 7739 230d 50       		.byte	0x50
 7740 230e 02       		.uleb128 0x2
 7741 230f 75       		.byte	0x75
 7742 2310 00       		.sleb128 0
 7743 2311 2A       		.uleb128 0x2a
 7744 2312 01       		.uleb128 0x1
 7745 2313 51       		.byte	0x51
 7746 2314 05       		.uleb128 0x5
 7747 2315 03       		.byte	0x3
 7748 2316 08040000 		.4byte	.LC48
 7749 231a 00       		.byte	0
 7750 231b 29       		.uleb128 0x29
 7751 231c E6000000 		.4byte	.LVL21
 7752 2320 12300000 		.4byte	0x3012
 7753 2324 38230000 		.4byte	0x2338
 7754 2328 2A       		.uleb128 0x2a
 7755 2329 01       		.uleb128 0x1
 7756 232a 50       		.byte	0x50
 7757 232b 02       		.uleb128 0x2
 7758 232c 75       		.byte	0x75
 7759 232d 00       		.sleb128 0
 7760 232e 2A       		.uleb128 0x2a
 7761 232f 01       		.uleb128 0x1
 7762 2330 51       		.byte	0x51
 7763 2331 05       		.uleb128 0x5
 7764 2332 03       		.byte	0x3
 7765 2333 C0040000 		.4byte	.LC60
 7766 2337 00       		.byte	0
 7767 2338 29       		.uleb128 0x29
 7768 2339 F4000000 		.4byte	.LVL22
 7769 233d 12300000 		.4byte	0x3012
 7770 2341 55230000 		.4byte	0x2355
 7771 2345 2A       		.uleb128 0x2a
 7772 2346 01       		.uleb128 0x1
 7773 2347 50       		.byte	0x50
 7774 2348 02       		.uleb128 0x2
 7775 2349 75       		.byte	0x75
 7776 234a 00       		.sleb128 0
 7777 234b 2A       		.uleb128 0x2a
 7778 234c 01       		.uleb128 0x1
 7779 234d 51       		.byte	0x51
ARM GAS  /var/folders/sv/kgmgr77579zbf78p2zlhkdfr0000gn/T//ccygG6jq.s 			page 148


 7780 234e 05       		.uleb128 0x5
 7781 234f 03       		.byte	0x3
 7782 2350 E0040000 		.4byte	.LC62
 7783 2354 00       		.byte	0
 7784 2355 29       		.uleb128 0x29
 7785 2356 06010000 		.4byte	.LVL23
 7786 235a F42E0000 		.4byte	0x2ef4
 7787 235e 6C230000 		.4byte	0x236c
 7788 2362 2A       		.uleb128 0x2a
 7789 2363 01       		.uleb128 0x1
 7790 2364 50       		.byte	0x50
 7791 2365 05       		.uleb128 0x5
 7792 2366 03       		.byte	0x3
 7793 2367 38060000 		.4byte	.LC73
 7794 236b 00       		.byte	0
 7795 236c 29       		.uleb128 0x29
 7796 236d 0E010000 		.4byte	.LVL26
 7797 2371 F42E0000 		.4byte	0x2ef4
 7798 2375 83230000 		.4byte	0x2383
 7799 2379 2A       		.uleb128 0x2a
 7800 237a 01       		.uleb128 0x1
 7801 237b 50       		.byte	0x50
 7802 237c 05       		.uleb128 0x5
 7803 237d 03       		.byte	0x3
 7804 237e 1C000000 		.4byte	.LC5
 7805 2382 00       		.byte	0
 7806 2383 29       		.uleb128 0x29
 7807 2384 1E010000 		.4byte	.LVL28
 7808 2388 F42E0000 		.4byte	0x2ef4
 7809 238c 9A230000 		.4byte	0x239a
 7810 2390 2A       		.uleb128 0x2a
 7811 2391 01       		.uleb128 0x1
 7812 2392 50       		.byte	0x50
 7813 2393 05       		.uleb128 0x5
 7814 2394 03       		.byte	0x3
 7815 2395 3C000000 		.4byte	.LC7
 7816 2399 00       		.byte	0
 7817 239a 2B       		.uleb128 0x2b
 7818 239b 2C010000 		.4byte	.LVL30
 7819 239f 3C300000 		.4byte	0x303c
 7820 23a3 29       		.uleb128 0x29
 7821 23a4 3E010000 		.4byte	.LVL32
 7822 23a8 F42E0000 		.4byte	0x2ef4
 7823 23ac BA230000 		.4byte	0x23ba
 7824 23b0 2A       		.uleb128 0x2a
 7825 23b1 01       		.uleb128 0x1
 7826 23b2 50       		.byte	0x50
 7827 23b3 05       		.uleb128 0x5
 7828 23b4 03       		.byte	0x3
 7829 23b5 E4000000 		.4byte	.LC15
 7830 23b9 00       		.byte	0
 7831 23ba 29       		.uleb128 0x29
 7832 23bb 48010000 		.4byte	.LVL33
 7833 23bf 992F0000 		.4byte	0x2f99
 7834 23c3 D4230000 		.4byte	0x23d4
 7835 23c7 2A       		.uleb128 0x2a
 7836 23c8 02       		.uleb128 0x2
ARM GAS  /var/folders/sv/kgmgr77579zbf78p2zlhkdfr0000gn/T//ccygG6jq.s 			page 149


 7837 23c9 90       		.byte	0x90
 7838 23ca 40       		.uleb128 0x40
 7839 23cb 07       		.uleb128 0x7
 7840 23cc F4       		.byte	0xf4
 7841 23cd 25       		.uleb128 0x25
 7842 23ce 04       		.byte	0x4
 7843 23cf 00000000 		.4byte	0
 7844 23d3 00       		.byte	0
 7845 23d4 29       		.uleb128 0x29
 7846 23d5 4E010000 		.4byte	.LVL34
 7847 23d9 F42E0000 		.4byte	0x2ef4
 7848 23dd EB230000 		.4byte	0x23eb
 7849 23e1 2A       		.uleb128 0x2a
 7850 23e2 01       		.uleb128 0x1
 7851 23e3 50       		.byte	0x50
 7852 23e4 05       		.uleb128 0x5
 7853 23e5 03       		.byte	0x3
 7854 23e6 4C000000 		.4byte	.LC9
 7855 23ea 00       		.byte	0
 7856 23eb 2B       		.uleb128 0x2b
 7857 23ec 5C010000 		.4byte	.LVL36
 7858 23f0 47300000 		.4byte	0x3047
 7859 23f4 29       		.uleb128 0x29
 7860 23f5 76010000 		.4byte	.LVL38
 7861 23f9 F42E0000 		.4byte	0x2ef4
 7862 23fd 0B240000 		.4byte	0x240b
 7863 2401 2A       		.uleb128 0x2a
 7864 2402 01       		.uleb128 0x1
 7865 2403 50       		.byte	0x50
 7866 2404 05       		.uleb128 0x5
 7867 2405 03       		.byte	0x3
 7868 2406 70000000 		.4byte	.LC11
 7869 240a 00       		.byte	0
 7870 240b 2B       		.uleb128 0x2b
 7871 240c 7A010000 		.4byte	.LVL39
 7872 2410 52300000 		.4byte	0x3052
 7873 2414 29       		.uleb128 0x29
 7874 2415 90010000 		.4byte	.LVL41
 7875 2419 F42E0000 		.4byte	0x2ef4
 7876 241d 2B240000 		.4byte	0x242b
 7877 2421 2A       		.uleb128 0x2a
 7878 2422 01       		.uleb128 0x1
 7879 2423 50       		.byte	0x50
 7880 2424 05       		.uleb128 0x5
 7881 2425 03       		.byte	0x3
 7882 2426 90000000 		.4byte	.LC12
 7883 242a 00       		.byte	0
 7884 242b 2B       		.uleb128 0x2b
 7885 242c 94010000 		.4byte	.LVL42
 7886 2430 5D300000 		.4byte	0x305d
 7887 2434 29       		.uleb128 0x29
 7888 2435 AA010000 		.4byte	.LVL44
 7889 2439 F42E0000 		.4byte	0x2ef4
 7890 243d 4B240000 		.4byte	0x244b
 7891 2441 2A       		.uleb128 0x2a
 7892 2442 01       		.uleb128 0x1
 7893 2443 50       		.byte	0x50
ARM GAS  /var/folders/sv/kgmgr77579zbf78p2zlhkdfr0000gn/T//ccygG6jq.s 			page 150


 7894 2444 05       		.uleb128 0x5
 7895 2445 03       		.byte	0x3
 7896 2446 B8000000 		.4byte	.LC13
 7897 244a 00       		.byte	0
 7898 244b 29       		.uleb128 0x29
 7899 244c BC010000 		.4byte	.LVL45
 7900 2450 F42E0000 		.4byte	0x2ef4
 7901 2454 62240000 		.4byte	0x2462
 7902 2458 2A       		.uleb128 0x2a
 7903 2459 01       		.uleb128 0x1
 7904 245a 50       		.byte	0x50
 7905 245b 05       		.uleb128 0x5
 7906 245c 03       		.byte	0x3
 7907 245d 20020000 		.4byte	.LC28
 7908 2461 00       		.byte	0
 7909 2462 2B       		.uleb128 0x2b
 7910 2463 32020000 		.4byte	.LVL63
 7911 2467 68300000 		.4byte	0x3068
 7912 246b 2B       		.uleb128 0x2b
 7913 246c 36020000 		.4byte	.LVL64
 7914 2470 152F0000 		.4byte	0x2f15
 7915 2474 29       		.uleb128 0x29
 7916 2475 3E020000 		.4byte	.LVL65
 7917 2479 F42E0000 		.4byte	0x2ef4
 7918 247d 8B240000 		.4byte	0x248b
 7919 2481 2A       		.uleb128 0x2a
 7920 2482 01       		.uleb128 0x1
 7921 2483 50       		.byte	0x50
 7922 2484 05       		.uleb128 0x5
 7923 2485 03       		.byte	0x3
 7924 2486 14020000 		.4byte	.LC26
 7925 248a 00       		.byte	0
 7926 248b 29       		.uleb128 0x29
 7927 248c DA020000 		.4byte	.LVL66
 7928 2490 F42E0000 		.4byte	0x2ef4
 7929 2494 A2240000 		.4byte	0x24a2
 7930 2498 2A       		.uleb128 0x2a
 7931 2499 01       		.uleb128 0x1
 7932 249a 50       		.byte	0x50
 7933 249b 05       		.uleb128 0x5
 7934 249c 03       		.byte	0x3
 7935 249d 44020000 		.4byte	.LC29
 7936 24a1 00       		.byte	0
 7937 24a2 2B       		.uleb128 0x2b
 7938 24a3 C0030000 		.4byte	.LVL92
 7939 24a7 BA2F0000 		.4byte	0x2fba
 7940 24ab 29       		.uleb128 0x29
 7941 24ac D2030000 		.4byte	.LVL94
 7942 24b0 F42E0000 		.4byte	0x2ef4
 7943 24b4 C2240000 		.4byte	0x24c2
 7944 24b8 2A       		.uleb128 0x2a
 7945 24b9 01       		.uleb128 0x1
 7946 24ba 50       		.byte	0x50
 7947 24bb 05       		.uleb128 0x5
 7948 24bc 03       		.byte	0x3
 7949 24bd CC030000 		.4byte	.LC45
 7950 24c1 00       		.byte	0
ARM GAS  /var/folders/sv/kgmgr77579zbf78p2zlhkdfr0000gn/T//ccygG6jq.s 			page 151


 7951 24c2 2B       		.uleb128 0x2b
 7952 24c3 D8030000 		.4byte	.LVL95
 7953 24c7 73300000 		.4byte	0x3073
 7954 24cb 29       		.uleb128 0x29
 7955 24cc E0030000 		.4byte	.LVL96
 7956 24d0 F42E0000 		.4byte	0x2ef4
 7957 24d4 E2240000 		.4byte	0x24e2
 7958 24d8 2A       		.uleb128 0x2a
 7959 24d9 01       		.uleb128 0x1
 7960 24da 50       		.byte	0x50
 7961 24db 05       		.uleb128 0x5
 7962 24dc 03       		.byte	0x3
 7963 24dd F0030000 		.4byte	.LC47
 7964 24e1 00       		.byte	0
 7965 24e2 29       		.uleb128 0x29
 7966 24e3 EA030000 		.4byte	.LVL97
 7967 24e7 12300000 		.4byte	0x3012
 7968 24eb FF240000 		.4byte	0x24ff
 7969 24ef 2A       		.uleb128 0x2a
 7970 24f0 01       		.uleb128 0x1
 7971 24f1 50       		.byte	0x50
 7972 24f2 02       		.uleb128 0x2
 7973 24f3 75       		.byte	0x75
 7974 24f4 00       		.sleb128 0
 7975 24f5 2A       		.uleb128 0x2a
 7976 24f6 01       		.uleb128 0x1
 7977 24f7 51       		.byte	0x51
 7978 24f8 05       		.uleb128 0x5
 7979 24f9 03       		.byte	0x3
 7980 24fa 60060000 		.4byte	.LC74
 7981 24fe 00       		.byte	0
 7982 24ff 29       		.uleb128 0x29
 7983 2500 F8030000 		.4byte	.LVL98
 7984 2504 12300000 		.4byte	0x3012
 7985 2508 1C250000 		.4byte	0x251c
 7986 250c 2A       		.uleb128 0x2a
 7987 250d 01       		.uleb128 0x1
 7988 250e 50       		.byte	0x50
 7989 250f 02       		.uleb128 0x2
 7990 2510 75       		.byte	0x75
 7991 2511 00       		.sleb128 0
 7992 2512 2A       		.uleb128 0x2a
 7993 2513 01       		.uleb128 0x1
 7994 2514 51       		.byte	0x51
 7995 2515 05       		.uleb128 0x5
 7996 2516 03       		.byte	0x3
 7997 2517 BC060000 		.4byte	.LC78
 7998 251b 00       		.byte	0
 7999 251c 29       		.uleb128 0x29
 8000 251d 08040000 		.4byte	.LVL99
 8001 2521 12300000 		.4byte	0x3012
 8002 2525 39250000 		.4byte	0x2539
 8003 2529 2A       		.uleb128 0x2a
 8004 252a 01       		.uleb128 0x1
 8005 252b 50       		.byte	0x50
 8006 252c 02       		.uleb128 0x2
 8007 252d 75       		.byte	0x75
ARM GAS  /var/folders/sv/kgmgr77579zbf78p2zlhkdfr0000gn/T//ccygG6jq.s 			page 152


 8008 252e 00       		.sleb128 0
 8009 252f 2A       		.uleb128 0x2a
 8010 2530 01       		.uleb128 0x1
 8011 2531 51       		.byte	0x51
 8012 2532 05       		.uleb128 0x5
 8013 2533 03       		.byte	0x3
 8014 2534 98070000 		.4byte	.LC86
 8015 2538 00       		.byte	0
 8016 2539 29       		.uleb128 0x29
 8017 253a 1A040000 		.4byte	.LVL100
 8018 253e F42E0000 		.4byte	0x2ef4
 8019 2542 50250000 		.4byte	0x2550
 8020 2546 2A       		.uleb128 0x2a
 8021 2547 01       		.uleb128 0x1
 8022 2548 50       		.byte	0x50
 8023 2549 05       		.uleb128 0x5
 8024 254a 03       		.byte	0x3
 8025 254b F4070000 		.4byte	.LC91
 8026 254f 00       		.byte	0
 8027 2550 29       		.uleb128 0x29
 8028 2551 4C040000 		.4byte	.LVL102
 8029 2555 F42E0000 		.4byte	0x2ef4
 8030 2559 67250000 		.4byte	0x2567
 8031 255d 2A       		.uleb128 0x2a
 8032 255e 01       		.uleb128 0x1
 8033 255f 50       		.byte	0x50
 8034 2560 05       		.uleb128 0x5
 8035 2561 03       		.byte	0x3
 8036 2562 C8040000 		.4byte	.LC61
 8037 2566 00       		.byte	0
 8038 2567 29       		.uleb128 0x29
 8039 2568 78050000 		.4byte	.LVL132
 8040 256c 12300000 		.4byte	0x3012
 8041 2570 84250000 		.4byte	0x2584
 8042 2574 2A       		.uleb128 0x2a
 8043 2575 01       		.uleb128 0x1
 8044 2576 50       		.byte	0x50
 8045 2577 02       		.uleb128 0x2
 8046 2578 75       		.byte	0x75
 8047 2579 00       		.sleb128 0
 8048 257a 2A       		.uleb128 0x2a
 8049 257b 01       		.uleb128 0x1
 8050 257c 51       		.byte	0x51
 8051 257d 05       		.uleb128 0x5
 8052 257e 03       		.byte	0x3
 8053 257f 1C080000 		.4byte	.LC92
 8054 2583 00       		.byte	0
 8055 2584 29       		.uleb128 0x29
 8056 2585 32080000 		.4byte	.LVL174
 8057 2589 F42E0000 		.4byte	0x2ef4
 8058 258d 9B250000 		.4byte	0x259b
 8059 2591 2A       		.uleb128 0x2a
 8060 2592 01       		.uleb128 0x1
 8061 2593 50       		.byte	0x50
 8062 2594 05       		.uleb128 0x5
 8063 2595 03       		.byte	0x3
 8064 2596 C8060000 		.4byte	.LC79
ARM GAS  /var/folders/sv/kgmgr77579zbf78p2zlhkdfr0000gn/T//ccygG6jq.s 			page 153


 8065 259a 00       		.byte	0
 8066 259b 29       		.uleb128 0x29
 8067 259c DE080000 		.4byte	.LVL195
 8068 25a0 12300000 		.4byte	0x3012
 8069 25a4 B8250000 		.4byte	0x25b8
 8070 25a8 2A       		.uleb128 0x2a
 8071 25a9 01       		.uleb128 0x1
 8072 25aa 50       		.byte	0x50
 8073 25ab 02       		.uleb128 0x2
 8074 25ac 75       		.byte	0x75
 8075 25ad 00       		.sleb128 0
 8076 25ae 2A       		.uleb128 0x2a
 8077 25af 01       		.uleb128 0x1
 8078 25b0 51       		.byte	0x51
 8079 25b1 05       		.uleb128 0x5
 8080 25b2 03       		.byte	0x3
 8081 25b3 40080000 		.4byte	.LC94
 8082 25b7 00       		.byte	0
 8083 25b8 29       		.uleb128 0x29
 8084 25b9 F4090000 		.4byte	.LVL205
 8085 25bd 12300000 		.4byte	0x3012
 8086 25c1 D5250000 		.4byte	0x25d5
 8087 25c5 2A       		.uleb128 0x2a
 8088 25c6 01       		.uleb128 0x1
 8089 25c7 50       		.byte	0x50
 8090 25c8 02       		.uleb128 0x2
 8091 25c9 75       		.byte	0x75
 8092 25ca 00       		.sleb128 0
 8093 25cb 2A       		.uleb128 0x2a
 8094 25cc 01       		.uleb128 0x1
 8095 25cd 51       		.byte	0x51
 8096 25ce 05       		.uleb128 0x5
 8097 25cf 03       		.byte	0x3
 8098 25d0 74080000 		.4byte	.LC96
 8099 25d4 00       		.byte	0
 8100 25d5 29       		.uleb128 0x29
 8101 25d6 A80A0000 		.4byte	.LVL215
 8102 25da 12300000 		.4byte	0x3012
 8103 25de F2250000 		.4byte	0x25f2
 8104 25e2 2A       		.uleb128 0x2a
 8105 25e3 01       		.uleb128 0x1
 8106 25e4 50       		.byte	0x50
 8107 25e5 02       		.uleb128 0x2
 8108 25e6 75       		.byte	0x75
 8109 25e7 00       		.sleb128 0
 8110 25e8 2A       		.uleb128 0x2a
 8111 25e9 01       		.uleb128 0x1
 8112 25ea 51       		.byte	0x51
 8113 25eb 05       		.uleb128 0x5
 8114 25ec 03       		.byte	0x3
 8115 25ed 98080000 		.4byte	.LC98
 8116 25f1 00       		.byte	0
 8117 25f2 29       		.uleb128 0x29
 8118 25f3 B60A0000 		.4byte	.LVL216
 8119 25f7 12300000 		.4byte	0x3012
 8120 25fb 0F260000 		.4byte	0x260f
 8121 25ff 2A       		.uleb128 0x2a
ARM GAS  /var/folders/sv/kgmgr77579zbf78p2zlhkdfr0000gn/T//ccygG6jq.s 			page 154


 8122 2600 01       		.uleb128 0x1
 8123 2601 50       		.byte	0x50
 8124 2602 02       		.uleb128 0x2
 8125 2603 75       		.byte	0x75
 8126 2604 00       		.sleb128 0
 8127 2605 2A       		.uleb128 0x2a
 8128 2606 01       		.uleb128 0x1
 8129 2607 51       		.byte	0x51
 8130 2608 05       		.uleb128 0x5
 8131 2609 03       		.byte	0x3
 8132 260a E0080000 		.4byte	.LC101
 8133 260e 00       		.byte	0
 8134 260f 29       		.uleb128 0x29
 8135 2610 020C0000 		.4byte	.LVL258
 8136 2614 12300000 		.4byte	0x3012
 8137 2618 2C260000 		.4byte	0x262c
 8138 261c 2A       		.uleb128 0x2a
 8139 261d 01       		.uleb128 0x1
 8140 261e 50       		.byte	0x50
 8141 261f 02       		.uleb128 0x2
 8142 2620 75       		.byte	0x75
 8143 2621 00       		.sleb128 0
 8144 2622 2A       		.uleb128 0x2a
 8145 2623 01       		.uleb128 0x1
 8146 2624 51       		.byte	0x51
 8147 2625 05       		.uleb128 0x5
 8148 2626 03       		.byte	0x3
 8149 2627 F4080000 		.4byte	.LC102
 8150 262b 00       		.byte	0
 8151 262c 29       		.uleb128 0x29
 8152 262d 100C0000 		.4byte	.LVL259
 8153 2631 12300000 		.4byte	0x3012
 8154 2635 49260000 		.4byte	0x2649
 8155 2639 2A       		.uleb128 0x2a
 8156 263a 01       		.uleb128 0x1
 8157 263b 50       		.byte	0x50
 8158 263c 02       		.uleb128 0x2
 8159 263d 75       		.byte	0x75
 8160 263e 00       		.sleb128 0
 8161 263f 2A       		.uleb128 0x2a
 8162 2640 01       		.uleb128 0x1
 8163 2641 51       		.byte	0x51
 8164 2642 05       		.uleb128 0x5
 8165 2643 03       		.byte	0x3
 8166 2644 00090000 		.4byte	.LC103
 8167 2648 00       		.byte	0
 8168 2649 29       		.uleb128 0x29
 8169 264a 1E0C0000 		.4byte	.LVL260
 8170 264e 12300000 		.4byte	0x3012
 8171 2652 66260000 		.4byte	0x2666
 8172 2656 2A       		.uleb128 0x2a
 8173 2657 01       		.uleb128 0x1
 8174 2658 50       		.byte	0x50
 8175 2659 02       		.uleb128 0x2
 8176 265a 75       		.byte	0x75
 8177 265b 00       		.sleb128 0
 8178 265c 2A       		.uleb128 0x2a
ARM GAS  /var/folders/sv/kgmgr77579zbf78p2zlhkdfr0000gn/T//ccygG6jq.s 			page 155


 8179 265d 01       		.uleb128 0x1
 8180 265e 51       		.byte	0x51
 8181 265f 05       		.uleb128 0x5
 8182 2660 03       		.byte	0x3
 8183 2661 8C090000 		.4byte	.LC109
 8184 2665 00       		.byte	0
 8185 2666 29       		.uleb128 0x29
 8186 2667 2C0C0000 		.4byte	.LVL261
 8187 266b 12300000 		.4byte	0x3012
 8188 266f 83260000 		.4byte	0x2683
 8189 2673 2A       		.uleb128 0x2a
 8190 2674 01       		.uleb128 0x1
 8191 2675 50       		.byte	0x50
 8192 2676 02       		.uleb128 0x2
 8193 2677 75       		.byte	0x75
 8194 2678 00       		.sleb128 0
 8195 2679 2A       		.uleb128 0x2a
 8196 267a 01       		.uleb128 0x1
 8197 267b 51       		.byte	0x51
 8198 267c 05       		.uleb128 0x5
 8199 267d 03       		.byte	0x3
 8200 267e C8090000 		.4byte	.LC111
 8201 2682 00       		.byte	0
 8202 2683 29       		.uleb128 0x29
 8203 2684 3A0C0000 		.4byte	.LVL262
 8204 2688 12300000 		.4byte	0x3012
 8205 268c A0260000 		.4byte	0x26a0
 8206 2690 2A       		.uleb128 0x2a
 8207 2691 01       		.uleb128 0x1
 8208 2692 50       		.byte	0x50
 8209 2693 02       		.uleb128 0x2
 8210 2694 75       		.byte	0x75
 8211 2695 00       		.sleb128 0
 8212 2696 2A       		.uleb128 0x2a
 8213 2697 01       		.uleb128 0x1
 8214 2698 51       		.byte	0x51
 8215 2699 05       		.uleb128 0x5
 8216 269a 03       		.byte	0x3
 8217 269b DC090000 		.4byte	.LC112
 8218 269f 00       		.byte	0
 8219 26a0 29       		.uleb128 0x29
 8220 26a1 480C0000 		.4byte	.LVL263
 8221 26a5 12300000 		.4byte	0x3012
 8222 26a9 BD260000 		.4byte	0x26bd
 8223 26ad 2A       		.uleb128 0x2a
 8224 26ae 01       		.uleb128 0x1
 8225 26af 50       		.byte	0x50
 8226 26b0 02       		.uleb128 0x2
 8227 26b1 75       		.byte	0x75
 8228 26b2 00       		.sleb128 0
 8229 26b3 2A       		.uleb128 0x2a
 8230 26b4 01       		.uleb128 0x1
 8231 26b5 51       		.byte	0x51
 8232 26b6 05       		.uleb128 0x5
 8233 26b7 03       		.byte	0x3
 8234 26b8 F0090000 		.4byte	.LC113
 8235 26bc 00       		.byte	0
ARM GAS  /var/folders/sv/kgmgr77579zbf78p2zlhkdfr0000gn/T//ccygG6jq.s 			page 156


 8236 26bd 29       		.uleb128 0x29
 8237 26be 560C0000 		.4byte	.LVL264
 8238 26c2 12300000 		.4byte	0x3012
 8239 26c6 DA260000 		.4byte	0x26da
 8240 26ca 2A       		.uleb128 0x2a
 8241 26cb 01       		.uleb128 0x1
 8242 26cc 50       		.byte	0x50
 8243 26cd 02       		.uleb128 0x2
 8244 26ce 75       		.byte	0x75
 8245 26cf 00       		.sleb128 0
 8246 26d0 2A       		.uleb128 0x2a
 8247 26d1 01       		.uleb128 0x1
 8248 26d2 51       		.byte	0x51
 8249 26d3 05       		.uleb128 0x5
 8250 26d4 03       		.byte	0x3
 8251 26d5 080A0000 		.4byte	.LC114
 8252 26d9 00       		.byte	0
 8253 26da 29       		.uleb128 0x29
 8254 26db 640C0000 		.4byte	.LVL265
 8255 26df 12300000 		.4byte	0x3012
 8256 26e3 F7260000 		.4byte	0x26f7
 8257 26e7 2A       		.uleb128 0x2a
 8258 26e8 01       		.uleb128 0x1
 8259 26e9 50       		.byte	0x50
 8260 26ea 02       		.uleb128 0x2
 8261 26eb 75       		.byte	0x75
 8262 26ec 00       		.sleb128 0
 8263 26ed 2A       		.uleb128 0x2a
 8264 26ee 01       		.uleb128 0x1
 8265 26ef 51       		.byte	0x51
 8266 26f0 05       		.uleb128 0x5
 8267 26f1 03       		.byte	0x3
 8268 26f2 200A0000 		.4byte	.LC115
 8269 26f6 00       		.byte	0
 8270 26f7 29       		.uleb128 0x29
 8271 26f8 700C0000 		.4byte	.LVL266
 8272 26fc 12300000 		.4byte	0x3012
 8273 2700 14270000 		.4byte	0x2714
 8274 2704 2A       		.uleb128 0x2a
 8275 2705 01       		.uleb128 0x1
 8276 2706 50       		.byte	0x50
 8277 2707 02       		.uleb128 0x2
 8278 2708 75       		.byte	0x75
 8279 2709 00       		.sleb128 0
 8280 270a 2A       		.uleb128 0x2a
 8281 270b 01       		.uleb128 0x1
 8282 270c 51       		.byte	0x51
 8283 270d 05       		.uleb128 0x5
 8284 270e 03       		.byte	0x3
 8285 270f 5C0A0000 		.4byte	.LC117
 8286 2713 00       		.byte	0
 8287 2714 29       		.uleb128 0x29
 8288 2715 7C0C0000 		.4byte	.LVL267
 8289 2719 12300000 		.4byte	0x3012
 8290 271d 31270000 		.4byte	0x2731
 8291 2721 2A       		.uleb128 0x2a
 8292 2722 01       		.uleb128 0x1
ARM GAS  /var/folders/sv/kgmgr77579zbf78p2zlhkdfr0000gn/T//ccygG6jq.s 			page 157


 8293 2723 50       		.byte	0x50
 8294 2724 02       		.uleb128 0x2
 8295 2725 75       		.byte	0x75
 8296 2726 00       		.sleb128 0
 8297 2727 2A       		.uleb128 0x2a
 8298 2728 01       		.uleb128 0x1
 8299 2729 51       		.byte	0x51
 8300 272a 05       		.uleb128 0x5
 8301 272b 03       		.byte	0x3
 8302 272c 700A0000 		.4byte	.LC118
 8303 2730 00       		.byte	0
 8304 2731 29       		.uleb128 0x29
 8305 2732 880C0000 		.4byte	.LVL268
 8306 2736 F42E0000 		.4byte	0x2ef4
 8307 273a 48270000 		.4byte	0x2748
 8308 273e 2A       		.uleb128 0x2a
 8309 273f 01       		.uleb128 0x1
 8310 2740 50       		.byte	0x50
 8311 2741 05       		.uleb128 0x5
 8312 2742 03       		.byte	0x3
 8313 2743 800A0000 		.4byte	.LC119
 8314 2747 00       		.byte	0
 8315 2748 29       		.uleb128 0x29
 8316 2749 D60C0000 		.4byte	.LVL272
 8317 274d 12300000 		.4byte	0x3012
 8318 2751 65270000 		.4byte	0x2765
 8319 2755 2A       		.uleb128 0x2a
 8320 2756 01       		.uleb128 0x1
 8321 2757 50       		.byte	0x50
 8322 2758 02       		.uleb128 0x2
 8323 2759 75       		.byte	0x75
 8324 275a 00       		.sleb128 0
 8325 275b 2A       		.uleb128 0x2a
 8326 275c 01       		.uleb128 0x1
 8327 275d 51       		.byte	0x51
 8328 275e 05       		.uleb128 0x5
 8329 275f 03       		.byte	0x3
 8330 2760 A80A0000 		.4byte	.LC120
 8331 2764 00       		.byte	0
 8332 2765 29       		.uleb128 0x29
 8333 2766 1E0D0000 		.4byte	.LVL280
 8334 276a F42E0000 		.4byte	0x2ef4
 8335 276e 7C270000 		.4byte	0x277c
 8336 2772 2A       		.uleb128 0x2a
 8337 2773 01       		.uleb128 0x1
 8338 2774 50       		.byte	0x50
 8339 2775 05       		.uleb128 0x5
 8340 2776 03       		.byte	0x3
 8341 2777 340A0000 		.4byte	.LC116
 8342 277b 00       		.byte	0
 8343 277c 29       		.uleb128 0x29
 8344 277d A60D0000 		.4byte	.LVL281
 8345 2781 F42E0000 		.4byte	0x2ef4
 8346 2785 9E270000 		.4byte	0x279e
 8347 2789 2A       		.uleb128 0x2a
 8348 278a 01       		.uleb128 0x1
 8349 278b 50       		.byte	0x50
ARM GAS  /var/folders/sv/kgmgr77579zbf78p2zlhkdfr0000gn/T//ccygG6jq.s 			page 158


 8350 278c 05       		.uleb128 0x5
 8351 278d 03       		.byte	0x3
 8352 278e 0C090000 		.4byte	.LC104
 8353 2792 2A       		.uleb128 0x2a
 8354 2793 01       		.uleb128 0x1
 8355 2794 51       		.byte	0x51
 8356 2795 01       		.uleb128 0x1
 8357 2796 33       		.byte	0x33
 8358 2797 2A       		.uleb128 0x2a
 8359 2798 01       		.uleb128 0x1
 8360 2799 52       		.byte	0x52
 8361 279a 02       		.uleb128 0x2
 8362 279b 08       		.byte	0x8
 8363 279c 22       		.byte	0x22
 8364 279d 00       		.byte	0
 8365 279e 29       		.uleb128 0x29
 8366 279f AE0D0000 		.4byte	.LVL282
 8367 27a3 F42E0000 		.4byte	0x2ef4
 8368 27a7 BE270000 		.4byte	0x27be
 8369 27ab 2A       		.uleb128 0x2a
 8370 27ac 01       		.uleb128 0x1
 8371 27ad 50       		.byte	0x50
 8372 27ae 05       		.uleb128 0x5
 8373 27af 03       		.byte	0x3
 8374 27b0 20090000 		.4byte	.LC106
 8375 27b4 2A       		.uleb128 0x2a
 8376 27b5 01       		.uleb128 0x1
 8377 27b6 51       		.byte	0x51
 8378 27b7 05       		.uleb128 0x5
 8379 27b8 03       		.byte	0x3
 8380 27b9 1C090000 		.4byte	.LC105
 8381 27bd 00       		.byte	0
 8382 27be 29       		.uleb128 0x29
 8383 27bf F60D0000 		.4byte	.LVL284
 8384 27c3 F42E0000 		.4byte	0x2ef4
 8385 27c7 DC270000 		.4byte	0x27dc
 8386 27cb 2A       		.uleb128 0x2a
 8387 27cc 01       		.uleb128 0x1
 8388 27cd 50       		.byte	0x50
 8389 27ce 05       		.uleb128 0x5
 8390 27cf 03       		.byte	0x3
 8391 27d0 30090000 		.4byte	.LC107
 8392 27d4 2A       		.uleb128 0x2a
 8393 27d5 02       		.uleb128 0x2
 8394 27d6 7D       		.byte	0x7d
 8395 27d7 04       		.sleb128 4
 8396 27d8 02       		.uleb128 0x2
 8397 27d9 74       		.byte	0x74
 8398 27da 00       		.sleb128 0
 8399 27db 00       		.byte	0
 8400 27dc 29       		.uleb128 0x29
 8401 27dd 0C0E0000 		.4byte	.LVL285
 8402 27e1 F42E0000 		.4byte	0x2ef4
 8403 27e5 F3270000 		.4byte	0x27f3
 8404 27e9 2A       		.uleb128 0x2a
 8405 27ea 01       		.uleb128 0x1
 8406 27eb 50       		.byte	0x50
ARM GAS  /var/folders/sv/kgmgr77579zbf78p2zlhkdfr0000gn/T//ccygG6jq.s 			page 159


 8407 27ec 05       		.uleb128 0x5
 8408 27ed 03       		.byte	0x3
 8409 27ee 74090000 		.4byte	.LC108
 8410 27f2 00       		.byte	0
 8411 27f3 29       		.uleb128 0x29
 8412 27f4 120E0000 		.4byte	.LVL286
 8413 27f8 F42E0000 		.4byte	0x2ef4
 8414 27fc 0A280000 		.4byte	0x280a
 8415 2800 2A       		.uleb128 0x2a
 8416 2801 01       		.uleb128 0x1
 8417 2802 50       		.byte	0x50
 8418 2803 05       		.uleb128 0x5
 8419 2804 03       		.byte	0x3
 8420 2805 18000000 		.4byte	.LC4
 8421 2809 00       		.byte	0
 8422 280a 2B       		.uleb128 0x2b
 8423 280b 1A0E0000 		.4byte	.LVL288
 8424 280f 7E300000 		.4byte	0x307e
 8425 2813 29       		.uleb128 0x29
 8426 2814 200E0000 		.4byte	.LVL289
 8427 2818 F42E0000 		.4byte	0x2ef4
 8428 281c 2A280000 		.4byte	0x282a
 8429 2820 2A       		.uleb128 0x2a
 8430 2821 01       		.uleb128 0x1
 8431 2822 50       		.byte	0x50
 8432 2823 05       		.uleb128 0x5
 8433 2824 03       		.byte	0x3
 8434 2825 18000000 		.4byte	.LC4
 8435 2829 00       		.byte	0
 8436 282a 29       		.uleb128 0x29
 8437 282b 2A0E0000 		.4byte	.LVL290
 8438 282f F42E0000 		.4byte	0x2ef4
 8439 2833 41280000 		.4byte	0x2841
 8440 2837 2A       		.uleb128 0x2a
 8441 2838 01       		.uleb128 0x1
 8442 2839 50       		.byte	0x50
 8443 283a 05       		.uleb128 0x5
 8444 283b 03       		.byte	0x3
 8445 283c A0090000 		.4byte	.LC110
 8446 2840 00       		.byte	0
 8447 2841 29       		.uleb128 0x29
 8448 2842 440E0000 		.4byte	.LVL294
 8449 2846 F42E0000 		.4byte	0x2ef4
 8450 284a 58280000 		.4byte	0x2858
 8451 284e 2A       		.uleb128 0x2a
 8452 284f 01       		.uleb128 0x1
 8453 2850 50       		.byte	0x50
 8454 2851 05       		.uleb128 0x5
 8455 2852 03       		.byte	0x3
 8456 2853 B00A0000 		.4byte	.LC121
 8457 2857 00       		.byte	0
 8458 2858 29       		.uleb128 0x29
 8459 2859 4A0E0000 		.4byte	.LVL295
 8460 285d F42E0000 		.4byte	0x2ef4
 8461 2861 6F280000 		.4byte	0x286f
 8462 2865 2A       		.uleb128 0x2a
 8463 2866 01       		.uleb128 0x1
ARM GAS  /var/folders/sv/kgmgr77579zbf78p2zlhkdfr0000gn/T//ccygG6jq.s 			page 160


 8464 2867 50       		.byte	0x50
 8465 2868 05       		.uleb128 0x5
 8466 2869 03       		.byte	0x3
 8467 286a A80A0000 		.4byte	.LC120
 8468 286e 00       		.byte	0
 8469 286f 29       		.uleb128 0x29
 8470 2870 500E0000 		.4byte	.LVL296
 8471 2874 F42E0000 		.4byte	0x2ef4
 8472 2878 86280000 		.4byte	0x2886
 8473 287c 2A       		.uleb128 0x2a
 8474 287d 01       		.uleb128 0x1
 8475 287e 50       		.byte	0x50
 8476 287f 05       		.uleb128 0x5
 8477 2880 03       		.byte	0x3
 8478 2881 C40A0000 		.4byte	.LC122
 8479 2885 00       		.byte	0
 8480 2886 29       		.uleb128 0x29
 8481 2887 560E0000 		.4byte	.LVL297
 8482 288b F42E0000 		.4byte	0x2ef4
 8483 288f 9D280000 		.4byte	0x289d
 8484 2893 2A       		.uleb128 0x2a
 8485 2894 01       		.uleb128 0x1
 8486 2895 50       		.byte	0x50
 8487 2896 05       		.uleb128 0x5
 8488 2897 03       		.byte	0x3
 8489 2898 34000000 		.4byte	.LC6
 8490 289c 00       		.byte	0
 8491 289d 29       		.uleb128 0x29
 8492 289e 5C0E0000 		.4byte	.LVL298
 8493 28a2 F42E0000 		.4byte	0x2ef4
 8494 28a6 B4280000 		.4byte	0x28b4
 8495 28aa 2A       		.uleb128 0x2a
 8496 28ab 01       		.uleb128 0x1
 8497 28ac 50       		.byte	0x50
 8498 28ad 05       		.uleb128 0x5
 8499 28ae 03       		.byte	0x3
 8500 28af D80A0000 		.4byte	.LC123
 8501 28b3 00       		.byte	0
 8502 28b4 29       		.uleb128 0x29
 8503 28b5 620E0000 		.4byte	.LVL299
 8504 28b9 F42E0000 		.4byte	0x2ef4
 8505 28bd CB280000 		.4byte	0x28cb
 8506 28c1 2A       		.uleb128 0x2a
 8507 28c2 01       		.uleb128 0x1
 8508 28c3 50       		.byte	0x50
 8509 28c4 05       		.uleb128 0x5
 8510 28c5 03       		.byte	0x3
 8511 28c6 44000000 		.4byte	.LC8
 8512 28ca 00       		.byte	0
 8513 28cb 29       		.uleb128 0x29
 8514 28cc 680E0000 		.4byte	.LVL300
 8515 28d0 F42E0000 		.4byte	0x2ef4
 8516 28d4 E2280000 		.4byte	0x28e2
 8517 28d8 2A       		.uleb128 0x2a
 8518 28d9 01       		.uleb128 0x1
 8519 28da 50       		.byte	0x50
 8520 28db 05       		.uleb128 0x5
ARM GAS  /var/folders/sv/kgmgr77579zbf78p2zlhkdfr0000gn/T//ccygG6jq.s 			page 161


 8521 28dc 03       		.byte	0x3
 8522 28dd 040B0000 		.4byte	.LC124
 8523 28e1 00       		.byte	0
 8524 28e2 29       		.uleb128 0x29
 8525 28e3 6E0E0000 		.4byte	.LVL301
 8526 28e7 F42E0000 		.4byte	0x2ef4
 8527 28eb F9280000 		.4byte	0x28f9
 8528 28ef 2A       		.uleb128 0x2a
 8529 28f0 01       		.uleb128 0x1
 8530 28f1 50       		.byte	0x50
 8531 28f2 05       		.uleb128 0x5
 8532 28f3 03       		.byte	0x3
 8533 28f4 5C000000 		.4byte	.LC10
 8534 28f8 00       		.byte	0
 8535 28f9 29       		.uleb128 0x29
 8536 28fa 740E0000 		.4byte	.LVL302
 8537 28fe F42E0000 		.4byte	0x2ef4
 8538 2902 10290000 		.4byte	0x2910
 8539 2906 2A       		.uleb128 0x2a
 8540 2907 01       		.uleb128 0x1
 8541 2908 50       		.byte	0x50
 8542 2909 05       		.uleb128 0x5
 8543 290a 03       		.byte	0x3
 8544 290b 180B0000 		.4byte	.LC125
 8545 290f 00       		.byte	0
 8546 2910 29       		.uleb128 0x29
 8547 2911 7A0E0000 		.4byte	.LVL303
 8548 2915 F42E0000 		.4byte	0x2ef4
 8549 2919 27290000 		.4byte	0x2927
 8550 291d 2A       		.uleb128 0x2a
 8551 291e 01       		.uleb128 0x1
 8552 291f 50       		.byte	0x50
 8553 2920 05       		.uleb128 0x5
 8554 2921 03       		.byte	0x3
 8555 2922 E0000000 		.4byte	.LC14
 8556 2926 00       		.byte	0
 8557 2927 29       		.uleb128 0x29
 8558 2928 800E0000 		.4byte	.LVL304
 8559 292c F42E0000 		.4byte	0x2ef4
 8560 2930 3E290000 		.4byte	0x293e
 8561 2934 2A       		.uleb128 0x2a
 8562 2935 01       		.uleb128 0x1
 8563 2936 50       		.byte	0x50
 8564 2937 05       		.uleb128 0x5
 8565 2938 03       		.byte	0x3
 8566 2939 480B0000 		.4byte	.LC126
 8567 293d 00       		.byte	0
 8568 293e 29       		.uleb128 0x29
 8569 293f 860E0000 		.4byte	.LVL305
 8570 2943 F42E0000 		.4byte	0x2ef4
 8571 2947 55290000 		.4byte	0x2955
 8572 294b 2A       		.uleb128 0x2a
 8573 294c 01       		.uleb128 0x1
 8574 294d 50       		.byte	0x50
 8575 294e 05       		.uleb128 0x5
 8576 294f 03       		.byte	0x3
 8577 2950 04010000 		.4byte	.LC16
ARM GAS  /var/folders/sv/kgmgr77579zbf78p2zlhkdfr0000gn/T//ccygG6jq.s 			page 162


 8578 2954 00       		.byte	0
 8579 2955 29       		.uleb128 0x29
 8580 2956 8C0E0000 		.4byte	.LVL306
 8581 295a F42E0000 		.4byte	0x2ef4
 8582 295e 6C290000 		.4byte	0x296c
 8583 2962 2A       		.uleb128 0x2a
 8584 2963 01       		.uleb128 0x1
 8585 2964 50       		.byte	0x50
 8586 2965 05       		.uleb128 0x5
 8587 2966 03       		.byte	0x3
 8588 2967 6C0B0000 		.4byte	.LC127
 8589 296b 00       		.byte	0
 8590 296c 29       		.uleb128 0x29
 8591 296d 920E0000 		.4byte	.LVL307
 8592 2971 F42E0000 		.4byte	0x2ef4
 8593 2975 83290000 		.4byte	0x2983
 8594 2979 2A       		.uleb128 0x2a
 8595 297a 01       		.uleb128 0x1
 8596 297b 50       		.byte	0x50
 8597 297c 05       		.uleb128 0x5
 8598 297d 03       		.byte	0x3
 8599 297e 5C010000 		.4byte	.LC20
 8600 2982 00       		.byte	0
 8601 2983 29       		.uleb128 0x29
 8602 2984 980E0000 		.4byte	.LVL308
 8603 2988 F42E0000 		.4byte	0x2ef4
 8604 298c 9A290000 		.4byte	0x299a
 8605 2990 2A       		.uleb128 0x2a
 8606 2991 01       		.uleb128 0x1
 8607 2992 50       		.byte	0x50
 8608 2993 05       		.uleb128 0x5
 8609 2994 03       		.byte	0x3
 8610 2995 800B0000 		.4byte	.LC128
 8611 2999 00       		.byte	0
 8612 299a 29       		.uleb128 0x29
 8613 299b 9E0E0000 		.4byte	.LVL309
 8614 299f F42E0000 		.4byte	0x2ef4
 8615 29a3 B1290000 		.4byte	0x29b1
 8616 29a7 2A       		.uleb128 0x2a
 8617 29a8 01       		.uleb128 0x1
 8618 29a9 50       		.byte	0x50
 8619 29aa 05       		.uleb128 0x5
 8620 29ab 03       		.byte	0x3
 8621 29ac 0C020000 		.4byte	.LC25
 8622 29b0 00       		.byte	0
 8623 29b1 29       		.uleb128 0x29
 8624 29b2 A40E0000 		.4byte	.LVL310
 8625 29b6 F42E0000 		.4byte	0x2ef4
 8626 29ba C8290000 		.4byte	0x29c8
 8627 29be 2A       		.uleb128 0x2a
 8628 29bf 01       		.uleb128 0x1
 8629 29c0 50       		.byte	0x50
 8630 29c1 05       		.uleb128 0x5
 8631 29c2 03       		.byte	0x3
 8632 29c3 940B0000 		.4byte	.LC129
 8633 29c7 00       		.byte	0
 8634 29c8 29       		.uleb128 0x29
ARM GAS  /var/folders/sv/kgmgr77579zbf78p2zlhkdfr0000gn/T//ccygG6jq.s 			page 163


 8635 29c9 AA0E0000 		.4byte	.LVL311
 8636 29cd F42E0000 		.4byte	0x2ef4
 8637 29d1 DF290000 		.4byte	0x29df
 8638 29d5 2A       		.uleb128 0x2a
 8639 29d6 01       		.uleb128 0x1
 8640 29d7 50       		.byte	0x50
 8641 29d8 05       		.uleb128 0x5
 8642 29d9 03       		.byte	0x3
 8643 29da 18020000 		.4byte	.LC27
 8644 29de 00       		.byte	0
 8645 29df 29       		.uleb128 0x29
 8646 29e0 B00E0000 		.4byte	.LVL312
 8647 29e4 F42E0000 		.4byte	0x2ef4
 8648 29e8 F6290000 		.4byte	0x29f6
 8649 29ec 2A       		.uleb128 0x2a
 8650 29ed 01       		.uleb128 0x1
 8651 29ee 50       		.byte	0x50
 8652 29ef 05       		.uleb128 0x5
 8653 29f0 03       		.byte	0x3
 8654 29f1 B40B0000 		.4byte	.LC130
 8655 29f5 00       		.byte	0
 8656 29f6 29       		.uleb128 0x29
 8657 29f7 B60E0000 		.4byte	.LVL313
 8658 29fb F42E0000 		.4byte	0x2ef4
 8659 29ff 0D2A0000 		.4byte	0x2a0d
 8660 2a03 2A       		.uleb128 0x2a
 8661 2a04 01       		.uleb128 0x1
 8662 2a05 50       		.byte	0x50
 8663 2a06 05       		.uleb128 0x5
 8664 2a07 03       		.byte	0x3
 8665 2a08 C8030000 		.4byte	.LC44
 8666 2a0c 00       		.byte	0
 8667 2a0d 29       		.uleb128 0x29
 8668 2a0e BC0E0000 		.4byte	.LVL314
 8669 2a12 F42E0000 		.4byte	0x2ef4
 8670 2a16 242A0000 		.4byte	0x2a24
 8671 2a1a 2A       		.uleb128 0x2a
 8672 2a1b 01       		.uleb128 0x1
 8673 2a1c 50       		.byte	0x50
 8674 2a1d 05       		.uleb128 0x5
 8675 2a1e 03       		.byte	0x3
 8676 2a1f F80B0000 		.4byte	.LC131
 8677 2a23 00       		.byte	0
 8678 2a24 29       		.uleb128 0x29
 8679 2a25 C20E0000 		.4byte	.LVL315
 8680 2a29 F42E0000 		.4byte	0x2ef4
 8681 2a2d 3B2A0000 		.4byte	0x2a3b
 8682 2a31 2A       		.uleb128 0x2a
 8683 2a32 01       		.uleb128 0x1
 8684 2a33 50       		.byte	0x50
 8685 2a34 05       		.uleb128 0x5
 8686 2a35 03       		.byte	0x3
 8687 2a36 E8030000 		.4byte	.LC46
 8688 2a3a 00       		.byte	0
 8689 2a3b 29       		.uleb128 0x29
 8690 2a3c C80E0000 		.4byte	.LVL316
 8691 2a40 F42E0000 		.4byte	0x2ef4
ARM GAS  /var/folders/sv/kgmgr77579zbf78p2zlhkdfr0000gn/T//ccygG6jq.s 			page 164


 8692 2a44 522A0000 		.4byte	0x2a52
 8693 2a48 2A       		.uleb128 0x2a
 8694 2a49 01       		.uleb128 0x1
 8695 2a4a 50       		.byte	0x50
 8696 2a4b 05       		.uleb128 0x5
 8697 2a4c 03       		.byte	0x3
 8698 2a4d 1C0C0000 		.4byte	.LC132
 8699 2a51 00       		.byte	0
 8700 2a52 29       		.uleb128 0x29
 8701 2a53 CE0E0000 		.4byte	.LVL317
 8702 2a57 F42E0000 		.4byte	0x2ef4
 8703 2a5b 692A0000 		.4byte	0x2a69
 8704 2a5f 2A       		.uleb128 0x2a
 8705 2a60 01       		.uleb128 0x1
 8706 2a61 50       		.byte	0x50
 8707 2a62 05       		.uleb128 0x5
 8708 2a63 03       		.byte	0x3
 8709 2a64 08040000 		.4byte	.LC48
 8710 2a68 00       		.byte	0
 8711 2a69 29       		.uleb128 0x29
 8712 2a6a D40E0000 		.4byte	.LVL318
 8713 2a6e F42E0000 		.4byte	0x2ef4
 8714 2a72 802A0000 		.4byte	0x2a80
 8715 2a76 2A       		.uleb128 0x2a
 8716 2a77 01       		.uleb128 0x1
 8717 2a78 50       		.byte	0x50
 8718 2a79 05       		.uleb128 0x5
 8719 2a7a 03       		.byte	0x3
 8720 2a7b 380C0000 		.4byte	.LC133
 8721 2a7f 00       		.byte	0
 8722 2a80 29       		.uleb128 0x29
 8723 2a81 DA0E0000 		.4byte	.LVL319
 8724 2a85 F42E0000 		.4byte	0x2ef4
 8725 2a89 972A0000 		.4byte	0x2a97
 8726 2a8d 2A       		.uleb128 0x2a
 8727 2a8e 01       		.uleb128 0x1
 8728 2a8f 50       		.byte	0x50
 8729 2a90 05       		.uleb128 0x5
 8730 2a91 03       		.byte	0x3
 8731 2a92 C0040000 		.4byte	.LC60
 8732 2a96 00       		.byte	0
 8733 2a97 29       		.uleb128 0x29
 8734 2a98 E00E0000 		.4byte	.LVL320
 8735 2a9c F42E0000 		.4byte	0x2ef4
 8736 2aa0 AE2A0000 		.4byte	0x2aae
 8737 2aa4 2A       		.uleb128 0x2a
 8738 2aa5 01       		.uleb128 0x1
 8739 2aa6 50       		.byte	0x50
 8740 2aa7 05       		.uleb128 0x5
 8741 2aa8 03       		.byte	0x3
 8742 2aa9 580C0000 		.4byte	.LC134
 8743 2aad 00       		.byte	0
 8744 2aae 29       		.uleb128 0x29
 8745 2aaf E60E0000 		.4byte	.LVL321
 8746 2ab3 F42E0000 		.4byte	0x2ef4
 8747 2ab7 C52A0000 		.4byte	0x2ac5
 8748 2abb 2A       		.uleb128 0x2a
ARM GAS  /var/folders/sv/kgmgr77579zbf78p2zlhkdfr0000gn/T//ccygG6jq.s 			page 165


 8749 2abc 01       		.uleb128 0x1
 8750 2abd 50       		.byte	0x50
 8751 2abe 05       		.uleb128 0x5
 8752 2abf 03       		.byte	0x3
 8753 2ac0 740C0000 		.4byte	.LC135
 8754 2ac4 00       		.byte	0
 8755 2ac5 29       		.uleb128 0x29
 8756 2ac6 EC0E0000 		.4byte	.LVL322
 8757 2aca F42E0000 		.4byte	0x2ef4
 8758 2ace DC2A0000 		.4byte	0x2adc
 8759 2ad2 2A       		.uleb128 0x2a
 8760 2ad3 01       		.uleb128 0x1
 8761 2ad4 50       		.byte	0x50
 8762 2ad5 05       		.uleb128 0x5
 8763 2ad6 03       		.byte	0x3
 8764 2ad7 A00C0000 		.4byte	.LC136
 8765 2adb 00       		.byte	0
 8766 2adc 29       		.uleb128 0x29
 8767 2add F20E0000 		.4byte	.LVL323
 8768 2ae1 F42E0000 		.4byte	0x2ef4
 8769 2ae5 F32A0000 		.4byte	0x2af3
 8770 2ae9 2A       		.uleb128 0x2a
 8771 2aea 01       		.uleb128 0x1
 8772 2aeb 50       		.byte	0x50
 8773 2aec 05       		.uleb128 0x5
 8774 2aed 03       		.byte	0x3
 8775 2aee E40C0000 		.4byte	.LC137
 8776 2af2 00       		.byte	0
 8777 2af3 29       		.uleb128 0x29
 8778 2af4 F80E0000 		.4byte	.LVL324
 8779 2af8 F42E0000 		.4byte	0x2ef4
 8780 2afc 0A2B0000 		.4byte	0x2b0a
 8781 2b00 2A       		.uleb128 0x2a
 8782 2b01 01       		.uleb128 0x1
 8783 2b02 50       		.byte	0x50
 8784 2b03 05       		.uleb128 0x5
 8785 2b04 03       		.byte	0x3
 8786 2b05 200D0000 		.4byte	.LC138
 8787 2b09 00       		.byte	0
 8788 2b0a 29       		.uleb128 0x29
 8789 2b0b FE0E0000 		.4byte	.LVL325
 8790 2b0f F42E0000 		.4byte	0x2ef4
 8791 2b13 212B0000 		.4byte	0x2b21
 8792 2b17 2A       		.uleb128 0x2a
 8793 2b18 01       		.uleb128 0x1
 8794 2b19 50       		.byte	0x50
 8795 2b1a 05       		.uleb128 0x5
 8796 2b1b 03       		.byte	0x3
 8797 2b1c 60060000 		.4byte	.LC74
 8798 2b20 00       		.byte	0
 8799 2b21 29       		.uleb128 0x29
 8800 2b22 040F0000 		.4byte	.LVL326
 8801 2b26 F42E0000 		.4byte	0x2ef4
 8802 2b2a 382B0000 		.4byte	0x2b38
 8803 2b2e 2A       		.uleb128 0x2a
 8804 2b2f 01       		.uleb128 0x1
 8805 2b30 50       		.byte	0x50
ARM GAS  /var/folders/sv/kgmgr77579zbf78p2zlhkdfr0000gn/T//ccygG6jq.s 			page 166


 8806 2b31 05       		.uleb128 0x5
 8807 2b32 03       		.byte	0x3
 8808 2b33 480D0000 		.4byte	.LC139
 8809 2b37 00       		.byte	0
 8810 2b38 29       		.uleb128 0x29
 8811 2b39 0A0F0000 		.4byte	.LVL327
 8812 2b3d F42E0000 		.4byte	0x2ef4
 8813 2b41 4F2B0000 		.4byte	0x2b4f
 8814 2b45 2A       		.uleb128 0x2a
 8815 2b46 01       		.uleb128 0x1
 8816 2b47 50       		.byte	0x50
 8817 2b48 05       		.uleb128 0x5
 8818 2b49 03       		.byte	0x3
 8819 2b4a BC060000 		.4byte	.LC78
 8820 2b4e 00       		.byte	0
 8821 2b4f 29       		.uleb128 0x29
 8822 2b50 100F0000 		.4byte	.LVL328
 8823 2b54 F42E0000 		.4byte	0x2ef4
 8824 2b58 662B0000 		.4byte	0x2b66
 8825 2b5c 2A       		.uleb128 0x2a
 8826 2b5d 01       		.uleb128 0x1
 8827 2b5e 50       		.byte	0x50
 8828 2b5f 05       		.uleb128 0x5
 8829 2b60 03       		.byte	0x3
 8830 2b61 680D0000 		.4byte	.LC140
 8831 2b65 00       		.byte	0
 8832 2b66 29       		.uleb128 0x29
 8833 2b67 160F0000 		.4byte	.LVL329
 8834 2b6b F42E0000 		.4byte	0x2ef4
 8835 2b6f 7D2B0000 		.4byte	0x2b7d
 8836 2b73 2A       		.uleb128 0x2a
 8837 2b74 01       		.uleb128 0x1
 8838 2b75 50       		.byte	0x50
 8839 2b76 05       		.uleb128 0x5
 8840 2b77 03       		.byte	0x3
 8841 2b78 A40D0000 		.4byte	.LC141
 8842 2b7c 00       		.byte	0
 8843 2b7d 29       		.uleb128 0x29
 8844 2b7e 1C0F0000 		.4byte	.LVL330
 8845 2b82 F42E0000 		.4byte	0x2ef4
 8846 2b86 942B0000 		.4byte	0x2b94
 8847 2b8a 2A       		.uleb128 0x2a
 8848 2b8b 01       		.uleb128 0x1
 8849 2b8c 50       		.byte	0x50
 8850 2b8d 05       		.uleb128 0x5
 8851 2b8e 03       		.byte	0x3
 8852 2b8f C40D0000 		.4byte	.LC142
 8853 2b93 00       		.byte	0
 8854 2b94 29       		.uleb128 0x29
 8855 2b95 220F0000 		.4byte	.LVL331
 8856 2b99 F42E0000 		.4byte	0x2ef4
 8857 2b9d AB2B0000 		.4byte	0x2bab
 8858 2ba1 2A       		.uleb128 0x2a
 8859 2ba2 01       		.uleb128 0x1
 8860 2ba3 50       		.byte	0x50
 8861 2ba4 05       		.uleb128 0x5
 8862 2ba5 03       		.byte	0x3
ARM GAS  /var/folders/sv/kgmgr77579zbf78p2zlhkdfr0000gn/T//ccygG6jq.s 			page 167


 8863 2ba6 080E0000 		.4byte	.LC143
 8864 2baa 00       		.byte	0
 8865 2bab 29       		.uleb128 0x29
 8866 2bac 280F0000 		.4byte	.LVL332
 8867 2bb0 F42E0000 		.4byte	0x2ef4
 8868 2bb4 C22B0000 		.4byte	0x2bc2
 8869 2bb8 2A       		.uleb128 0x2a
 8870 2bb9 01       		.uleb128 0x1
 8871 2bba 50       		.byte	0x50
 8872 2bbb 05       		.uleb128 0x5
 8873 2bbc 03       		.byte	0x3
 8874 2bbd 200E0000 		.4byte	.LC144
 8875 2bc1 00       		.byte	0
 8876 2bc2 29       		.uleb128 0x29
 8877 2bc3 2E0F0000 		.4byte	.LVL333
 8878 2bc7 F42E0000 		.4byte	0x2ef4
 8879 2bcb D92B0000 		.4byte	0x2bd9
 8880 2bcf 2A       		.uleb128 0x2a
 8881 2bd0 01       		.uleb128 0x1
 8882 2bd1 50       		.byte	0x50
 8883 2bd2 05       		.uleb128 0x5
 8884 2bd3 03       		.byte	0x3
 8885 2bd4 600E0000 		.4byte	.LC145
 8886 2bd8 00       		.byte	0
 8887 2bd9 29       		.uleb128 0x29
 8888 2bda 340F0000 		.4byte	.LVL334
 8889 2bde F42E0000 		.4byte	0x2ef4
 8890 2be2 F02B0000 		.4byte	0x2bf0
 8891 2be6 2A       		.uleb128 0x2a
 8892 2be7 01       		.uleb128 0x1
 8893 2be8 50       		.byte	0x50
 8894 2be9 05       		.uleb128 0x5
 8895 2bea 03       		.byte	0x3
 8896 2beb 740E0000 		.4byte	.LC146
 8897 2bef 00       		.byte	0
 8898 2bf0 29       		.uleb128 0x29
 8899 2bf1 3A0F0000 		.4byte	.LVL335
 8900 2bf5 F42E0000 		.4byte	0x2ef4
 8901 2bf9 072C0000 		.4byte	0x2c07
 8902 2bfd 2A       		.uleb128 0x2a
 8903 2bfe 01       		.uleb128 0x1
 8904 2bff 50       		.byte	0x50
 8905 2c00 05       		.uleb128 0x5
 8906 2c01 03       		.byte	0x3
 8907 2c02 C80E0000 		.4byte	.LC147
 8908 2c06 00       		.byte	0
 8909 2c07 29       		.uleb128 0x29
 8910 2c08 400F0000 		.4byte	.LVL336
 8911 2c0c F42E0000 		.4byte	0x2ef4
 8912 2c10 1E2C0000 		.4byte	0x2c1e
 8913 2c14 2A       		.uleb128 0x2a
 8914 2c15 01       		.uleb128 0x1
 8915 2c16 50       		.byte	0x50
 8916 2c17 05       		.uleb128 0x5
 8917 2c18 03       		.byte	0x3
 8918 2c19 000F0000 		.4byte	.LC148
 8919 2c1d 00       		.byte	0
ARM GAS  /var/folders/sv/kgmgr77579zbf78p2zlhkdfr0000gn/T//ccygG6jq.s 			page 168


 8920 2c1e 29       		.uleb128 0x29
 8921 2c1f 460F0000 		.4byte	.LVL337
 8922 2c23 F42E0000 		.4byte	0x2ef4
 8923 2c27 352C0000 		.4byte	0x2c35
 8924 2c2b 2A       		.uleb128 0x2a
 8925 2c2c 01       		.uleb128 0x1
 8926 2c2d 50       		.byte	0x50
 8927 2c2e 05       		.uleb128 0x5
 8928 2c2f 03       		.byte	0x3
 8929 2c30 400F0000 		.4byte	.LC149
 8930 2c34 00       		.byte	0
 8931 2c35 29       		.uleb128 0x29
 8932 2c36 4C0F0000 		.4byte	.LVL338
 8933 2c3a F42E0000 		.4byte	0x2ef4
 8934 2c3e 4C2C0000 		.4byte	0x2c4c
 8935 2c42 2A       		.uleb128 0x2a
 8936 2c43 01       		.uleb128 0x1
 8937 2c44 50       		.byte	0x50
 8938 2c45 05       		.uleb128 0x5
 8939 2c46 03       		.byte	0x3
 8940 2c47 6C0F0000 		.4byte	.LC150
 8941 2c4b 00       		.byte	0
 8942 2c4c 29       		.uleb128 0x29
 8943 2c4d 520F0000 		.4byte	.LVL339
 8944 2c51 F42E0000 		.4byte	0x2ef4
 8945 2c55 632C0000 		.4byte	0x2c63
 8946 2c59 2A       		.uleb128 0x2a
 8947 2c5a 01       		.uleb128 0x1
 8948 2c5b 50       		.byte	0x50
 8949 2c5c 05       		.uleb128 0x5
 8950 2c5d 03       		.byte	0x3
 8951 2c5e 98080000 		.4byte	.LC98
 8952 2c62 00       		.byte	0
 8953 2c63 29       		.uleb128 0x29
 8954 2c64 580F0000 		.4byte	.LVL340
 8955 2c68 F42E0000 		.4byte	0x2ef4
 8956 2c6c 7A2C0000 		.4byte	0x2c7a
 8957 2c70 2A       		.uleb128 0x2a
 8958 2c71 01       		.uleb128 0x1
 8959 2c72 50       		.byte	0x50
 8960 2c73 05       		.uleb128 0x5
 8961 2c74 03       		.byte	0x3
 8962 2c75 A40F0000 		.4byte	.LC151
 8963 2c79 00       		.byte	0
 8964 2c7a 29       		.uleb128 0x29
 8965 2c7b 5E0F0000 		.4byte	.LVL341
 8966 2c7f F42E0000 		.4byte	0x2ef4
 8967 2c83 912C0000 		.4byte	0x2c91
 8968 2c87 2A       		.uleb128 0x2a
 8969 2c88 01       		.uleb128 0x1
 8970 2c89 50       		.byte	0x50
 8971 2c8a 05       		.uleb128 0x5
 8972 2c8b 03       		.byte	0x3
 8973 2c8c FC0F0000 		.4byte	.LC152
 8974 2c90 00       		.byte	0
 8975 2c91 29       		.uleb128 0x29
 8976 2c92 640F0000 		.4byte	.LVL342
ARM GAS  /var/folders/sv/kgmgr77579zbf78p2zlhkdfr0000gn/T//ccygG6jq.s 			page 169


 8977 2c96 F42E0000 		.4byte	0x2ef4
 8978 2c9a A82C0000 		.4byte	0x2ca8
 8979 2c9e 2A       		.uleb128 0x2a
 8980 2c9f 01       		.uleb128 0x1
 8981 2ca0 50       		.byte	0x50
 8982 2ca1 05       		.uleb128 0x5
 8983 2ca2 03       		.byte	0x3
 8984 2ca3 18100000 		.4byte	.LC153
 8985 2ca7 00       		.byte	0
 8986 2ca8 29       		.uleb128 0x29
 8987 2ca9 6A0F0000 		.4byte	.LVL343
 8988 2cad F42E0000 		.4byte	0x2ef4
 8989 2cb1 BF2C0000 		.4byte	0x2cbf
 8990 2cb5 2A       		.uleb128 0x2a
 8991 2cb6 01       		.uleb128 0x1
 8992 2cb7 50       		.byte	0x50
 8993 2cb8 05       		.uleb128 0x5
 8994 2cb9 03       		.byte	0x3
 8995 2cba F4080000 		.4byte	.LC102
 8996 2cbe 00       		.byte	0
 8997 2cbf 29       		.uleb128 0x29
 8998 2cc0 700F0000 		.4byte	.LVL344
 8999 2cc4 F42E0000 		.4byte	0x2ef4
 9000 2cc8 D62C0000 		.4byte	0x2cd6
 9001 2ccc 2A       		.uleb128 0x2a
 9002 2ccd 01       		.uleb128 0x1
 9003 2cce 50       		.byte	0x50
 9004 2ccf 05       		.uleb128 0x5
 9005 2cd0 03       		.byte	0x3
 9006 2cd1 50100000 		.4byte	.LC154
 9007 2cd5 00       		.byte	0
 9008 2cd6 29       		.uleb128 0x29
 9009 2cd7 760F0000 		.4byte	.LVL345
 9010 2cdb F42E0000 		.4byte	0x2ef4
 9011 2cdf ED2C0000 		.4byte	0x2ced
 9012 2ce3 2A       		.uleb128 0x2a
 9013 2ce4 01       		.uleb128 0x1
 9014 2ce5 50       		.byte	0x50
 9015 2ce6 05       		.uleb128 0x5
 9016 2ce7 03       		.byte	0x3
 9017 2ce8 00090000 		.4byte	.LC103
 9018 2cec 00       		.byte	0
 9019 2ced 29       		.uleb128 0x29
 9020 2cee 7C0F0000 		.4byte	.LVL346
 9021 2cf2 F42E0000 		.4byte	0x2ef4
 9022 2cf6 042D0000 		.4byte	0x2d04
 9023 2cfa 2A       		.uleb128 0x2a
 9024 2cfb 01       		.uleb128 0x1
 9025 2cfc 50       		.byte	0x50
 9026 2cfd 05       		.uleb128 0x5
 9027 2cfe 03       		.byte	0x3
 9028 2cff 74100000 		.4byte	.LC155
 9029 2d03 00       		.byte	0
 9030 2d04 29       		.uleb128 0x29
 9031 2d05 820F0000 		.4byte	.LVL347
 9032 2d09 F42E0000 		.4byte	0x2ef4
 9033 2d0d 1B2D0000 		.4byte	0x2d1b
ARM GAS  /var/folders/sv/kgmgr77579zbf78p2zlhkdfr0000gn/T//ccygG6jq.s 			page 170


 9034 2d11 2A       		.uleb128 0x2a
 9035 2d12 01       		.uleb128 0x1
 9036 2d13 50       		.byte	0x50
 9037 2d14 05       		.uleb128 0x5
 9038 2d15 03       		.byte	0x3
 9039 2d16 A0100000 		.4byte	.LC156
 9040 2d1a 00       		.byte	0
 9041 2d1b 29       		.uleb128 0x29
 9042 2d1c 880F0000 		.4byte	.LVL348
 9043 2d20 F42E0000 		.4byte	0x2ef4
 9044 2d24 322D0000 		.4byte	0x2d32
 9045 2d28 2A       		.uleb128 0x2a
 9046 2d29 01       		.uleb128 0x1
 9047 2d2a 50       		.byte	0x50
 9048 2d2b 05       		.uleb128 0x5
 9049 2d2c 03       		.byte	0x3
 9050 2d2d C0100000 		.4byte	.LC157
 9051 2d31 00       		.byte	0
 9052 2d32 2C       		.uleb128 0x2c
 9053 2d33 C20F0000 		.4byte	.LVL354
 9054 2d37 F42E0000 		.4byte	0x2ef4
 9055 2d3b 2A       		.uleb128 0x2a
 9056 2d3c 01       		.uleb128 0x1
 9057 2d3d 50       		.byte	0x50
 9058 2d3e 05       		.uleb128 0x5
 9059 2d3f 03       		.byte	0x3
 9060 2d40 18000000 		.4byte	.LC4
 9061 2d44 00       		.byte	0
 9062 2d45 00       		.byte	0
 9063 2d46 17       		.uleb128 0x17
 9064 2d47 4F100000 		.4byte	0x104f
 9065 2d4b 562D0000 		.4byte	0x2d56
 9066 2d4f 18       		.uleb128 0x18
 9067 2d50 AC040000 		.4byte	0x4ac
 9068 2d54 3F       		.byte	0x3f
 9069 2d55 00       		.byte	0
 9070 2d56 17       		.uleb128 0x17
 9071 2d57 33080000 		.4byte	0x833
 9072 2d5b 662D0000 		.4byte	0x2d66
 9073 2d5f 18       		.uleb128 0x18
 9074 2d60 AC040000 		.4byte	0x4ac
 9075 2d64 0F       		.byte	0xf
 9076 2d65 00       		.byte	0
 9077 2d66 16       		.uleb128 0x16
 9078 2d67 562D0000 		.4byte	0x2d56
 9079 2d6b 05       		.uleb128 0x5
 9080 2d6c 2C000000 		.4byte	0x2c
 9081 2d70 0A       		.uleb128 0xa
 9082 2d71 04       		.byte	0x4
 9083 2d72 43100000 		.4byte	0x1043
 9084 2d76 16       		.uleb128 0x16
 9085 2d77 25000000 		.4byte	0x25
 9086 2d7b 3D       		.uleb128 0x3d
 9087 2d7c BB140000 		.4byte	.LASF333
 9088 2d80 01       		.byte	0x1
 9089 2d81 BA02     		.2byte	0x2ba
 9090 2d83 00000000 		.4byte	.LFB258
ARM GAS  /var/folders/sv/kgmgr77579zbf78p2zlhkdfr0000gn/T//ccygG6jq.s 			page 171


 9091 2d87 44000000 		.4byte	.LFE258-.LFB258
 9092 2d8b 01       		.uleb128 0x1
 9093 2d8c 9C       		.byte	0x9c
 9094 2d8d A22D0000 		.4byte	0x2da2
 9095 2d91 3E       		.uleb128 0x3e
 9096 2d92 230B0000 		.4byte	.LASF334
 9097 2d96 01       		.byte	0x1
 9098 2d97 BA02     		.2byte	0x2ba
 9099 2d99 A22D0000 		.4byte	0x2da2
 9100 2d9d FD040000 		.4byte	.LLST33
 9101 2da1 00       		.byte	0
 9102 2da2 0A       		.uleb128 0xa
 9103 2da3 04       		.byte	0x4
 9104 2da4 ED0F0000 		.4byte	0xfed
 9105 2da8 3D       		.uleb128 0x3d
 9106 2da9 60120000 		.4byte	.LASF335
 9107 2dad 01       		.byte	0x1
 9108 2dae D202     		.2byte	0x2d2
 9109 2db0 00000000 		.4byte	.LFB259
 9110 2db4 9C000000 		.4byte	.LFE259-.LFB259
 9111 2db8 01       		.uleb128 0x1
 9112 2db9 9C       		.byte	0x9c
 9113 2dba 332E0000 		.4byte	0x2e33
 9114 2dbe 3E       		.uleb128 0x3e
 9115 2dbf E60D0000 		.4byte	.LASF284
 9116 2dc3 01       		.byte	0x1
 9117 2dc4 D302     		.2byte	0x2d3
 9118 2dc6 33080000 		.4byte	0x833
 9119 2dca 45050000 		.4byte	.LLST34
 9120 2dce 3E       		.uleb128 0x3e
 9121 2dcf 40120000 		.4byte	.LASF285
 9122 2dd3 01       		.byte	0x1
 9123 2dd4 D402     		.2byte	0x2d4
 9124 2dd6 33080000 		.4byte	0x833
 9125 2dda 63050000 		.4byte	.LLST35
 9126 2dde 3E       		.uleb128 0x3e
 9127 2ddf 2C0C0000 		.4byte	.LASF286
 9128 2de3 01       		.byte	0x1
 9129 2de4 D502     		.2byte	0x2d5
 9130 2de6 33080000 		.4byte	0x833
 9131 2dea 8C050000 		.4byte	.LLST36
 9132 2dee 3F       		.uleb128 0x3f
 9133 2def 63626600 		.ascii	"cbf\000"
 9134 2df3 01       		.byte	0x1
 9135 2df4 D602     		.2byte	0x2d6
 9136 2df6 B6100000 		.4byte	0x10b6
 9137 2dfa B5050000 		.4byte	.LLST37
 9138 2dfe 3A       		.uleb128 0x3a
 9139 2dff E1040000 		.4byte	.LASF336
 9140 2e03 01       		.byte	0x1
 9141 2e04 D802     		.2byte	0x2d8
 9142 2e06 2C000000 		.4byte	0x2c
 9143 2e0a DF050000 		.4byte	.LLST38
 9144 2e0e 34       		.uleb128 0x34
 9145 2e0f 78010000 		.4byte	.Ldebug_ranges0+0x178
 9146 2e13 38       		.uleb128 0x38
 9147 2e14 6900     		.ascii	"i\000"
ARM GAS  /var/folders/sv/kgmgr77579zbf78p2zlhkdfr0000gn/T//ccygG6jq.s 			page 172


 9148 2e16 01       		.byte	0x1
 9149 2e17 DA02     		.2byte	0x2da
 9150 2e19 2C000000 		.4byte	0x2c
 9151 2e1d 20060000 		.4byte	.LLST39
 9152 2e21 2C       		.uleb128 0x2c
 9153 2e22 40000000 		.4byte	.LVL369
 9154 2e26 12300000 		.4byte	0x3012
 9155 2e2a 2A       		.uleb128 0x2a
 9156 2e2b 01       		.uleb128 0x1
 9157 2e2c 51       		.byte	0x51
 9158 2e2d 02       		.uleb128 0x2
 9159 2e2e 74       		.byte	0x74
 9160 2e2f 00       		.sleb128 0
 9161 2e30 00       		.byte	0
 9162 2e31 00       		.byte	0
 9163 2e32 00       		.byte	0
 9164 2e33 17       		.uleb128 0x17
 9165 2e34 432E0000 		.4byte	0x2e43
 9166 2e38 432E0000 		.4byte	0x2e43
 9167 2e3c 18       		.uleb128 0x18
 9168 2e3d AC040000 		.4byte	0x4ac
 9169 2e41 18       		.byte	0x18
 9170 2e42 00       		.byte	0
 9171 2e43 05       		.uleb128 0x5
 9172 2e44 ED0F0000 		.4byte	0xfed
 9173 2e48 26       		.uleb128 0x26
 9174 2e49 B0060000 		.4byte	.LASF337
 9175 2e4d 01       		.byte	0x1
 9176 2e4e 34       		.byte	0x34
 9177 2e4f 592E0000 		.4byte	0x2e59
 9178 2e53 05       		.uleb128 0x5
 9179 2e54 03       		.byte	0x3
 9180 2e55 00000000 		.4byte	fault_vec
 9181 2e59 05       		.uleb128 0x5
 9182 2e5a 332E0000 		.4byte	0x2e33
 9183 2e5e 26       		.uleb128 0x26
 9184 2e5f 07060000 		.4byte	.LASF338
 9185 2e63 01       		.byte	0x1
 9186 2e64 35       		.byte	0x35
 9187 2e65 6B2D0000 		.4byte	0x2d6b
 9188 2e69 05       		.uleb128 0x5
 9189 2e6a 03       		.byte	0x3
 9190 2e6b 00000000 		.4byte	fault_vec_write
 9191 2e6f 17       		.uleb128 0x17
 9192 2e70 BC100000 		.4byte	0x10bc
 9193 2e74 7F2E0000 		.4byte	0x2e7f
 9194 2e78 18       		.uleb128 0x18
 9195 2e79 AC040000 		.4byte	0x4ac
 9196 2e7d 18       		.byte	0x18
 9197 2e7e 00       		.byte	0
 9198 2e7f 26       		.uleb128 0x26
 9199 2e80 3D0B0000 		.4byte	.LASF339
 9200 2e84 01       		.byte	0x1
 9201 2e85 36       		.byte	0x36
 9202 2e86 6F2E0000 		.4byte	0x2e6f
 9203 2e8a 05       		.uleb128 0x5
 9204 2e8b 03       		.byte	0x3
ARM GAS  /var/folders/sv/kgmgr77579zbf78p2zlhkdfr0000gn/T//ccygG6jq.s 			page 173


 9205 2e8c 00000000 		.4byte	callbacks
 9206 2e90 26       		.uleb128 0x26
 9207 2e91 F80C0000 		.4byte	.LASF340
 9208 2e95 01       		.byte	0x1
 9209 2e96 37       		.byte	0x37
 9210 2e97 2C000000 		.4byte	0x2c
 9211 2e9b 05       		.uleb128 0x5
 9212 2e9c 03       		.byte	0x3
 9213 2e9d 00000000 		.4byte	callback_write
 9214 2ea1 40       		.uleb128 0x40
 9215 2ea2 F3080000 		.4byte	.LASF341
 9216 2ea6 12       		.byte	0x12
 9217 2ea7 A706     		.2byte	0x6a7
 9218 2ea9 06010000 		.4byte	0x106
 9219 2ead 41       		.uleb128 0x41
 9220 2eae 636800   		.ascii	"ch\000"
 9221 2eb1 09       		.byte	0x9
 9222 2eb2 0902     		.2byte	0x209
 9223 2eb4 45040000 		.4byte	0x445
 9224 2eb8 42       		.uleb128 0x42
 9225 2eb9 8D040000 		.4byte	.LASF342
 9226 2ebd 13       		.byte	0x13
 9227 2ebe A0       		.byte	0xa0
 9228 2ebf FB0E0000 		.4byte	0xefb
 9229 2ec3 17       		.uleb128 0x17
 9230 2ec4 01010000 		.4byte	0x101
 9231 2ec8 CE2E0000 		.4byte	0x2ece
 9232 2ecc 43       		.uleb128 0x43
 9233 2ecd 00       		.byte	0
 9234 2ece 42       		.uleb128 0x42
 9235 2ecf 91120000 		.4byte	.LASF343
 9236 2ed3 14       		.byte	0x14
 9237 2ed4 56       		.byte	0x56
 9238 2ed5 D92E0000 		.4byte	0x2ed9
 9239 2ed9 05       		.uleb128 0x5
 9240 2eda C32E0000 		.4byte	0x2ec3
 9241 2ede 44       		.uleb128 0x44
 9242 2edf EB0C0000 		.4byte	.LASF344
 9243 2ee3 EB0C0000 		.4byte	.LASF344
 9244 2ee7 15       		.byte	0x15
 9245 2ee8 69       		.byte	0x69
 9246 2ee9 44       		.uleb128 0x44
 9247 2eea 23040000 		.4byte	.LASF345
 9248 2eee 23040000 		.4byte	.LASF345
 9249 2ef2 16       		.byte	0x16
 9250 2ef3 64       		.byte	0x64
 9251 2ef4 44       		.uleb128 0x44
 9252 2ef5 D3140000 		.4byte	.LASF346
 9253 2ef9 D3140000 		.4byte	.LASF346
 9254 2efd 17       		.byte	0x17
 9255 2efe 1E       		.byte	0x1e
 9256 2eff 44       		.uleb128 0x44
 9257 2f00 42130000 		.4byte	.LASF347
 9258 2f04 42130000 		.4byte	.LASF347
 9259 2f08 18       		.byte	0x18
 9260 2f09 6F       		.byte	0x6f
 9261 2f0a 44       		.uleb128 0x44
ARM GAS  /var/folders/sv/kgmgr77579zbf78p2zlhkdfr0000gn/T//ccygG6jq.s 			page 174


 9262 2f0b 35010000 		.4byte	.LASF348
 9263 2f0f 35010000 		.4byte	.LASF348
 9264 2f13 18       		.byte	0x18
 9265 2f14 70       		.byte	0x70
 9266 2f15 44       		.uleb128 0x44
 9267 2f16 2F090000 		.4byte	.LASF349
 9268 2f1a 2F090000 		.4byte	.LASF349
 9269 2f1e 14       		.byte	0x14
 9270 2f1f 23       		.byte	0x23
 9271 2f20 44       		.uleb128 0x44
 9272 2f21 F1120000 		.4byte	.LASF350
 9273 2f25 F1120000 		.4byte	.LASF350
 9274 2f29 13       		.byte	0x13
 9275 2f2a AA       		.byte	0xaa
 9276 2f2b 44       		.uleb128 0x44
 9277 2f2c 93150000 		.4byte	.LASF351
 9278 2f30 93150000 		.4byte	.LASF351
 9279 2f34 19       		.byte	0x19
 9280 2f35 CC       		.byte	0xcc
 9281 2f36 44       		.uleb128 0x44
 9282 2f37 F5140000 		.4byte	.LASF352
 9283 2f3b F5140000 		.4byte	.LASF352
 9284 2f3f 1A       		.byte	0x1a
 9285 2f40 2A       		.byte	0x2a
 9286 2f41 44       		.uleb128 0x44
 9287 2f42 9B120000 		.4byte	.LASF353
 9288 2f46 9B120000 		.4byte	.LASF353
 9289 2f4a 14       		.byte	0x14
 9290 2f4b 1D       		.byte	0x1d
 9291 2f4c 44       		.uleb128 0x44
 9292 2f4d 50150000 		.4byte	.LASF354
 9293 2f51 50150000 		.4byte	.LASF354
 9294 2f55 1A       		.byte	0x1a
 9295 2f56 45       		.byte	0x45
 9296 2f57 44       		.uleb128 0x44
 9297 2f58 4B070000 		.4byte	.LASF355
 9298 2f5c 4B070000 		.4byte	.LASF355
 9299 2f60 1B       		.byte	0x1b
 9300 2f61 42       		.byte	0x42
 9301 2f62 44       		.uleb128 0x44
 9302 2f63 A30F0000 		.4byte	.LASF356
 9303 2f67 A30F0000 		.4byte	.LASF356
 9304 2f6b 1A       		.byte	0x1a
 9305 2f6c 44       		.byte	0x44
 9306 2f6d 44       		.uleb128 0x44
 9307 2f6e BD000000 		.4byte	.LASF357
 9308 2f72 BD000000 		.4byte	.LASF357
 9309 2f76 1C       		.byte	0x1c
 9310 2f77 1D       		.byte	0x1d
 9311 2f78 44       		.uleb128 0x44
 9312 2f79 060E0000 		.4byte	.LASF358
 9313 2f7d 060E0000 		.4byte	.LASF358
 9314 2f81 1D       		.byte	0x1d
 9315 2f82 2A       		.byte	0x2a
 9316 2f83 44       		.uleb128 0x44
 9317 2f84 DF050000 		.4byte	.LASF359
 9318 2f88 DF050000 		.4byte	.LASF359
ARM GAS  /var/folders/sv/kgmgr77579zbf78p2zlhkdfr0000gn/T//ccygG6jq.s 			page 175


 9319 2f8c 1A       		.byte	0x1a
 9320 2f8d 46       		.byte	0x46
 9321 2f8e 44       		.uleb128 0x44
 9322 2f8f 73110000 		.4byte	.LASF360
 9323 2f93 73110000 		.4byte	.LASF360
 9324 2f97 13       		.byte	0x13
 9325 2f98 AC       		.byte	0xac
 9326 2f99 44       		.uleb128 0x44
 9327 2f9a 08050000 		.4byte	.LASF361
 9328 2f9e 08050000 		.4byte	.LASF361
 9329 2fa2 14       		.byte	0x14
 9330 2fa3 25       		.byte	0x25
 9331 2fa4 44       		.uleb128 0x44
 9332 2fa5 1F130000 		.4byte	.LASF362
 9333 2fa9 1F130000 		.4byte	.LASF362
 9334 2fad 1E       		.byte	0x1e
 9335 2fae 96       		.byte	0x96
 9336 2faf 44       		.uleb128 0x44
 9337 2fb0 D0090000 		.4byte	.LASF363
 9338 2fb4 D0090000 		.4byte	.LASF363
 9339 2fb8 1A       		.byte	0x1a
 9340 2fb9 43       		.byte	0x43
 9341 2fba 44       		.uleb128 0x44
 9342 2fbb D80E0000 		.4byte	.LASF364
 9343 2fbf D80E0000 		.4byte	.LASF364
 9344 2fc3 14       		.byte	0x14
 9345 2fc4 34       		.byte	0x34
 9346 2fc5 44       		.uleb128 0x44
 9347 2fc6 460A0000 		.4byte	.LASF365
 9348 2fca 460A0000 		.4byte	.LASF365
 9349 2fce 14       		.byte	0x14
 9350 2fcf 3B       		.byte	0x3b
 9351 2fd0 44       		.uleb128 0x44
 9352 2fd1 64130000 		.4byte	.LASF366
 9353 2fd5 64130000 		.4byte	.LASF366
 9354 2fd9 1F       		.byte	0x1f
 9355 2fda 20       		.byte	0x20
 9356 2fdb 44       		.uleb128 0x44
 9357 2fdc 49030000 		.4byte	.LASF367
 9358 2fe0 49030000 		.4byte	.LASF367
 9359 2fe4 1F       		.byte	0x1f
 9360 2fe5 21       		.byte	0x21
 9361 2fe6 44       		.uleb128 0x44
 9362 2fe7 FD150000 		.4byte	.LASF368
 9363 2feb FD150000 		.4byte	.LASF368
 9364 2fef 1F       		.byte	0x1f
 9365 2ff0 1E       		.byte	0x1e
 9366 2ff1 44       		.uleb128 0x44
 9367 2ff2 9F0B0000 		.4byte	.LASF369
 9368 2ff6 9F0B0000 		.4byte	.LASF369
 9369 2ffa 1F       		.byte	0x1f
 9370 2ffb 1D       		.byte	0x1d
 9371 2ffc 44       		.uleb128 0x44
 9372 2ffd C00A0000 		.4byte	.LASF370
 9373 3001 C00A0000 		.4byte	.LASF370
 9374 3005 14       		.byte	0x14
 9375 3006 30       		.byte	0x30
ARM GAS  /var/folders/sv/kgmgr77579zbf78p2zlhkdfr0000gn/T//ccygG6jq.s 			page 176


 9376 3007 44       		.uleb128 0x44
 9377 3008 82050000 		.4byte	.LASF371
 9378 300c 82050000 		.4byte	.LASF371
 9379 3010 1A       		.byte	0x1a
 9380 3011 47       		.byte	0x47
 9381 3012 44       		.uleb128 0x44
 9382 3013 650B0000 		.4byte	.LASF372
 9383 3017 650B0000 		.4byte	.LASF372
 9384 301b 20       		.byte	0x20
 9385 301c 20       		.byte	0x20
 9386 301d 44       		.uleb128 0x44
 9387 301e 5D130000 		.4byte	.LASF373
 9388 3022 5D130000 		.4byte	.LASF373
 9389 3026 20       		.byte	0x20
 9390 3027 2E       		.byte	0x2e
 9391 3028 44       		.uleb128 0x44
 9392 3029 950E0000 		.4byte	.LASF374
 9393 302d 950E0000 		.4byte	.LASF374
 9394 3031 14       		.byte	0x14
 9395 3032 1C       		.byte	0x1c
 9396 3033 45       		.uleb128 0x45
 9397 3034 EE140000 		.4byte	.LASF387
 9398 3038 EE140000 		.4byte	.LASF387
 9399 303c 44       		.uleb128 0x44
 9400 303d 77060000 		.4byte	.LASF375
 9401 3041 77060000 		.4byte	.LASF375
 9402 3045 1B       		.byte	0x1b
 9403 3046 2E       		.byte	0x2e
 9404 3047 44       		.uleb128 0x44
 9405 3048 190D0000 		.4byte	.LASF376
 9406 304c 190D0000 		.4byte	.LASF376
 9407 3050 1B       		.byte	0x1b
 9408 3051 40       		.byte	0x40
 9409 3052 44       		.uleb128 0x44
 9410 3053 14110000 		.4byte	.LASF377
 9411 3057 14110000 		.4byte	.LASF377
 9412 305b 14       		.byte	0x14
 9413 305c 41       		.byte	0x41
 9414 305d 44       		.uleb128 0x44
 9415 305e 87020000 		.4byte	.LASF378
 9416 3062 87020000 		.4byte	.LASF378
 9417 3066 14       		.byte	0x14
 9418 3067 48       		.byte	0x48
 9419 3068 44       		.uleb128 0x44
 9420 3069 CF0D0000 		.4byte	.LASF379
 9421 306d CF0D0000 		.4byte	.LASF379
 9422 3071 14       		.byte	0x14
 9423 3072 22       		.byte	0x22
 9424 3073 44       		.uleb128 0x44
 9425 3074 4C000000 		.4byte	.LASF380
 9426 3078 4C000000 		.4byte	.LASF380
 9427 307c 14       		.byte	0x14
 9428 307d 3F       		.byte	0x3f
 9429 307e 44       		.uleb128 0x44
 9430 307f 17060000 		.4byte	.LASF381
 9431 3083 17060000 		.4byte	.LASF381
 9432 3087 1A       		.byte	0x1a
ARM GAS  /var/folders/sv/kgmgr77579zbf78p2zlhkdfr0000gn/T//ccygG6jq.s 			page 177


 9433 3088 49       		.byte	0x49
 9434 3089 00       		.byte	0
 9435              		.section	.debug_abbrev,"",%progbits
 9436              	.Ldebug_abbrev0:
 9437 0000 01       		.uleb128 0x1
 9438 0001 11       		.uleb128 0x11
 9439 0002 01       		.byte	0x1
 9440 0003 25       		.uleb128 0x25
 9441 0004 0E       		.uleb128 0xe
 9442 0005 13       		.uleb128 0x13
 9443 0006 0B       		.uleb128 0xb
 9444 0007 03       		.uleb128 0x3
 9445 0008 0E       		.uleb128 0xe
 9446 0009 1B       		.uleb128 0x1b
 9447 000a 0E       		.uleb128 0xe
 9448 000b 55       		.uleb128 0x55
 9449 000c 17       		.uleb128 0x17
 9450 000d 11       		.uleb128 0x11
 9451 000e 01       		.uleb128 0x1
 9452 000f 10       		.uleb128 0x10
 9453 0010 17       		.uleb128 0x17
 9454 0011 00       		.byte	0
 9455 0012 00       		.byte	0
 9456 0013 02       		.uleb128 0x2
 9457 0014 24       		.uleb128 0x24
 9458 0015 00       		.byte	0
 9459 0016 0B       		.uleb128 0xb
 9460 0017 0B       		.uleb128 0xb
 9461 0018 3E       		.uleb128 0x3e
 9462 0019 0B       		.uleb128 0xb
 9463 001a 03       		.uleb128 0x3
 9464 001b 0E       		.uleb128 0xe
 9465 001c 00       		.byte	0
 9466 001d 00       		.byte	0
 9467 001e 03       		.uleb128 0x3
 9468 001f 24       		.uleb128 0x24
 9469 0020 00       		.byte	0
 9470 0021 0B       		.uleb128 0xb
 9471 0022 0B       		.uleb128 0xb
 9472 0023 3E       		.uleb128 0x3e
 9473 0024 0B       		.uleb128 0xb
 9474 0025 03       		.uleb128 0x3
 9475 0026 08       		.uleb128 0x8
 9476 0027 00       		.byte	0
 9477 0028 00       		.byte	0
 9478 0029 04       		.uleb128 0x4
 9479 002a 16       		.uleb128 0x16
 9480 002b 00       		.byte	0
 9481 002c 03       		.uleb128 0x3
 9482 002d 0E       		.uleb128 0xe
 9483 002e 3A       		.uleb128 0x3a
 9484 002f 0B       		.uleb128 0xb
 9485 0030 3B       		.uleb128 0x3b
 9486 0031 0B       		.uleb128 0xb
 9487 0032 49       		.uleb128 0x49
 9488 0033 13       		.uleb128 0x13
 9489 0034 00       		.byte	0
ARM GAS  /var/folders/sv/kgmgr77579zbf78p2zlhkdfr0000gn/T//ccygG6jq.s 			page 178


 9490 0035 00       		.byte	0
 9491 0036 05       		.uleb128 0x5
 9492 0037 35       		.uleb128 0x35
 9493 0038 00       		.byte	0
 9494 0039 49       		.uleb128 0x49
 9495 003a 13       		.uleb128 0x13
 9496 003b 00       		.byte	0
 9497 003c 00       		.byte	0
 9498 003d 06       		.uleb128 0x6
 9499 003e 13       		.uleb128 0x13
 9500 003f 01       		.byte	0x1
 9501 0040 03       		.uleb128 0x3
 9502 0041 0E       		.uleb128 0xe
 9503 0042 0B       		.uleb128 0xb
 9504 0043 0B       		.uleb128 0xb
 9505 0044 3A       		.uleb128 0x3a
 9506 0045 0B       		.uleb128 0xb
 9507 0046 3B       		.uleb128 0x3b
 9508 0047 0B       		.uleb128 0xb
 9509 0048 01       		.uleb128 0x1
 9510 0049 13       		.uleb128 0x13
 9511 004a 00       		.byte	0
 9512 004b 00       		.byte	0
 9513 004c 07       		.uleb128 0x7
 9514 004d 0D       		.uleb128 0xd
 9515 004e 00       		.byte	0
 9516 004f 03       		.uleb128 0x3
 9517 0050 0E       		.uleb128 0xe
 9518 0051 3A       		.uleb128 0x3a
 9519 0052 0B       		.uleb128 0xb
 9520 0053 3B       		.uleb128 0x3b
 9521 0054 0B       		.uleb128 0xb
 9522 0055 49       		.uleb128 0x49
 9523 0056 13       		.uleb128 0x13
 9524 0057 38       		.uleb128 0x38
 9525 0058 0B       		.uleb128 0xb
 9526 0059 00       		.byte	0
 9527 005a 00       		.byte	0
 9528 005b 08       		.uleb128 0x8
 9529 005c 0D       		.uleb128 0xd
 9530 005d 00       		.byte	0
 9531 005e 03       		.uleb128 0x3
 9532 005f 08       		.uleb128 0x8
 9533 0060 3A       		.uleb128 0x3a
 9534 0061 0B       		.uleb128 0xb
 9535 0062 3B       		.uleb128 0x3b
 9536 0063 05       		.uleb128 0x5
 9537 0064 49       		.uleb128 0x49
 9538 0065 13       		.uleb128 0x13
 9539 0066 38       		.uleb128 0x38
 9540 0067 0B       		.uleb128 0xb
 9541 0068 00       		.byte	0
 9542 0069 00       		.byte	0
 9543 006a 09       		.uleb128 0x9
 9544 006b 0D       		.uleb128 0xd
 9545 006c 00       		.byte	0
 9546 006d 03       		.uleb128 0x3
ARM GAS  /var/folders/sv/kgmgr77579zbf78p2zlhkdfr0000gn/T//ccygG6jq.s 			page 179


 9547 006e 0E       		.uleb128 0xe
 9548 006f 3A       		.uleb128 0x3a
 9549 0070 0B       		.uleb128 0xb
 9550 0071 3B       		.uleb128 0x3b
 9551 0072 05       		.uleb128 0x5
 9552 0073 49       		.uleb128 0x49
 9553 0074 13       		.uleb128 0x13
 9554 0075 38       		.uleb128 0x38
 9555 0076 0B       		.uleb128 0xb
 9556 0077 00       		.byte	0
 9557 0078 00       		.byte	0
 9558 0079 0A       		.uleb128 0xa
 9559 007a 0F       		.uleb128 0xf
 9560 007b 00       		.byte	0
 9561 007c 0B       		.uleb128 0xb
 9562 007d 0B       		.uleb128 0xb
 9563 007e 49       		.uleb128 0x49
 9564 007f 13       		.uleb128 0x13
 9565 0080 00       		.byte	0
 9566 0081 00       		.byte	0
 9567 0082 0B       		.uleb128 0xb
 9568 0083 13       		.uleb128 0x13
 9569 0084 01       		.byte	0x1
 9570 0085 03       		.uleb128 0x3
 9571 0086 0E       		.uleb128 0xe
 9572 0087 0B       		.uleb128 0xb
 9573 0088 0B       		.uleb128 0xb
 9574 0089 3A       		.uleb128 0x3a
 9575 008a 0B       		.uleb128 0xb
 9576 008b 3B       		.uleb128 0x3b
 9577 008c 05       		.uleb128 0x5
 9578 008d 01       		.uleb128 0x1
 9579 008e 13       		.uleb128 0x13
 9580 008f 00       		.byte	0
 9581 0090 00       		.byte	0
 9582 0091 0C       		.uleb128 0xc
 9583 0092 15       		.uleb128 0x15
 9584 0093 01       		.byte	0x1
 9585 0094 27       		.uleb128 0x27
 9586 0095 19       		.uleb128 0x19
 9587 0096 01       		.uleb128 0x1
 9588 0097 13       		.uleb128 0x13
 9589 0098 00       		.byte	0
 9590 0099 00       		.byte	0
 9591 009a 0D       		.uleb128 0xd
 9592 009b 05       		.uleb128 0x5
 9593 009c 00       		.byte	0
 9594 009d 49       		.uleb128 0x49
 9595 009e 13       		.uleb128 0x13
 9596 009f 00       		.byte	0
 9597 00a0 00       		.byte	0
 9598 00a1 0E       		.uleb128 0xe
 9599 00a2 0F       		.uleb128 0xf
 9600 00a3 00       		.byte	0
 9601 00a4 0B       		.uleb128 0xb
 9602 00a5 0B       		.uleb128 0xb
 9603 00a6 00       		.byte	0
ARM GAS  /var/folders/sv/kgmgr77579zbf78p2zlhkdfr0000gn/T//ccygG6jq.s 			page 180


 9604 00a7 00       		.byte	0
 9605 00a8 0F       		.uleb128 0xf
 9606 00a9 13       		.uleb128 0x13
 9607 00aa 01       		.byte	0x1
 9608 00ab 03       		.uleb128 0x3
 9609 00ac 0E       		.uleb128 0xe
 9610 00ad 0B       		.uleb128 0xb
 9611 00ae 05       		.uleb128 0x5
 9612 00af 3A       		.uleb128 0x3a
 9613 00b0 0B       		.uleb128 0xb
 9614 00b1 3B       		.uleb128 0x3b
 9615 00b2 05       		.uleb128 0x5
 9616 00b3 01       		.uleb128 0x1
 9617 00b4 13       		.uleb128 0x13
 9618 00b5 00       		.byte	0
 9619 00b6 00       		.byte	0
 9620 00b7 10       		.uleb128 0x10
 9621 00b8 13       		.uleb128 0x13
 9622 00b9 01       		.byte	0x1
 9623 00ba 0B       		.uleb128 0xb
 9624 00bb 0B       		.uleb128 0xb
 9625 00bc 3A       		.uleb128 0x3a
 9626 00bd 0B       		.uleb128 0xb
 9627 00be 3B       		.uleb128 0x3b
 9628 00bf 05       		.uleb128 0x5
 9629 00c0 01       		.uleb128 0x1
 9630 00c1 13       		.uleb128 0x13
 9631 00c2 00       		.byte	0
 9632 00c3 00       		.byte	0
 9633 00c4 11       		.uleb128 0x11
 9634 00c5 16       		.uleb128 0x16
 9635 00c6 00       		.byte	0
 9636 00c7 03       		.uleb128 0x3
 9637 00c8 0E       		.uleb128 0xe
 9638 00c9 3A       		.uleb128 0x3a
 9639 00ca 0B       		.uleb128 0xb
 9640 00cb 3B       		.uleb128 0x3b
 9641 00cc 05       		.uleb128 0x5
 9642 00cd 49       		.uleb128 0x49
 9643 00ce 13       		.uleb128 0x13
 9644 00cf 00       		.byte	0
 9645 00d0 00       		.byte	0
 9646 00d1 12       		.uleb128 0x12
 9647 00d2 0D       		.uleb128 0xd
 9648 00d3 00       		.byte	0
 9649 00d4 03       		.uleb128 0x3
 9650 00d5 08       		.uleb128 0x8
 9651 00d6 3A       		.uleb128 0x3a
 9652 00d7 0B       		.uleb128 0xb
 9653 00d8 3B       		.uleb128 0x3b
 9654 00d9 0B       		.uleb128 0xb
 9655 00da 49       		.uleb128 0x49
 9656 00db 13       		.uleb128 0x13
 9657 00dc 38       		.uleb128 0x38
 9658 00dd 0B       		.uleb128 0xb
 9659 00de 00       		.byte	0
 9660 00df 00       		.byte	0
ARM GAS  /var/folders/sv/kgmgr77579zbf78p2zlhkdfr0000gn/T//ccygG6jq.s 			page 181


 9661 00e0 13       		.uleb128 0x13
 9662 00e1 13       		.uleb128 0x13
 9663 00e2 01       		.byte	0x1
 9664 00e3 0B       		.uleb128 0xb
 9665 00e4 0B       		.uleb128 0xb
 9666 00e5 3A       		.uleb128 0x3a
 9667 00e6 0B       		.uleb128 0xb
 9668 00e7 3B       		.uleb128 0x3b
 9669 00e8 0B       		.uleb128 0xb
 9670 00e9 01       		.uleb128 0x1
 9671 00ea 13       		.uleb128 0x13
 9672 00eb 00       		.byte	0
 9673 00ec 00       		.byte	0
 9674 00ed 14       		.uleb128 0x14
 9675 00ee 17       		.uleb128 0x17
 9676 00ef 01       		.byte	0x1
 9677 00f0 0B       		.uleb128 0xb
 9678 00f1 0B       		.uleb128 0xb
 9679 00f2 3A       		.uleb128 0x3a
 9680 00f3 0B       		.uleb128 0xb
 9681 00f4 3B       		.uleb128 0x3b
 9682 00f5 0B       		.uleb128 0xb
 9683 00f6 01       		.uleb128 0x1
 9684 00f7 13       		.uleb128 0x13
 9685 00f8 00       		.byte	0
 9686 00f9 00       		.byte	0
 9687 00fa 15       		.uleb128 0x15
 9688 00fb 0D       		.uleb128 0xd
 9689 00fc 00       		.byte	0
 9690 00fd 03       		.uleb128 0x3
 9691 00fe 0E       		.uleb128 0xe
 9692 00ff 3A       		.uleb128 0x3a
 9693 0100 0B       		.uleb128 0xb
 9694 0101 3B       		.uleb128 0x3b
 9695 0102 05       		.uleb128 0x5
 9696 0103 49       		.uleb128 0x49
 9697 0104 13       		.uleb128 0x13
 9698 0105 00       		.byte	0
 9699 0106 00       		.byte	0
 9700 0107 16       		.uleb128 0x16
 9701 0108 26       		.uleb128 0x26
 9702 0109 00       		.byte	0
 9703 010a 49       		.uleb128 0x49
 9704 010b 13       		.uleb128 0x13
 9705 010c 00       		.byte	0
 9706 010d 00       		.byte	0
 9707 010e 17       		.uleb128 0x17
 9708 010f 01       		.uleb128 0x1
 9709 0110 01       		.byte	0x1
 9710 0111 49       		.uleb128 0x49
 9711 0112 13       		.uleb128 0x13
 9712 0113 01       		.uleb128 0x1
 9713 0114 13       		.uleb128 0x13
 9714 0115 00       		.byte	0
 9715 0116 00       		.byte	0
 9716 0117 18       		.uleb128 0x18
 9717 0118 21       		.uleb128 0x21
ARM GAS  /var/folders/sv/kgmgr77579zbf78p2zlhkdfr0000gn/T//ccygG6jq.s 			page 182


 9718 0119 00       		.byte	0
 9719 011a 49       		.uleb128 0x49
 9720 011b 13       		.uleb128 0x13
 9721 011c 2F       		.uleb128 0x2f
 9722 011d 0B       		.uleb128 0xb
 9723 011e 00       		.byte	0
 9724 011f 00       		.byte	0
 9725 0120 19       		.uleb128 0x19
 9726 0121 04       		.uleb128 0x4
 9727 0122 01       		.byte	0x1
 9728 0123 0B       		.uleb128 0xb
 9729 0124 0B       		.uleb128 0xb
 9730 0125 49       		.uleb128 0x49
 9731 0126 13       		.uleb128 0x13
 9732 0127 3A       		.uleb128 0x3a
 9733 0128 0B       		.uleb128 0xb
 9734 0129 3B       		.uleb128 0x3b
 9735 012a 0B       		.uleb128 0xb
 9736 012b 01       		.uleb128 0x1
 9737 012c 13       		.uleb128 0x13
 9738 012d 00       		.byte	0
 9739 012e 00       		.byte	0
 9740 012f 1A       		.uleb128 0x1a
 9741 0130 28       		.uleb128 0x28
 9742 0131 00       		.byte	0
 9743 0132 03       		.uleb128 0x3
 9744 0133 0E       		.uleb128 0xe
 9745 0134 1C       		.uleb128 0x1c
 9746 0135 0B       		.uleb128 0xb
 9747 0136 00       		.byte	0
 9748 0137 00       		.byte	0
 9749 0138 1B       		.uleb128 0x1b
 9750 0139 13       		.uleb128 0x13
 9751 013a 01       		.byte	0x1
 9752 013b 0B       		.uleb128 0xb
 9753 013c 05       		.uleb128 0x5
 9754 013d 3A       		.uleb128 0x3a
 9755 013e 0B       		.uleb128 0xb
 9756 013f 3B       		.uleb128 0x3b
 9757 0140 0B       		.uleb128 0xb
 9758 0141 01       		.uleb128 0x1
 9759 0142 13       		.uleb128 0x13
 9760 0143 00       		.byte	0
 9761 0144 00       		.byte	0
 9762 0145 1C       		.uleb128 0x1c
 9763 0146 0D       		.uleb128 0xd
 9764 0147 00       		.byte	0
 9765 0148 03       		.uleb128 0x3
 9766 0149 0E       		.uleb128 0xe
 9767 014a 3A       		.uleb128 0x3a
 9768 014b 0B       		.uleb128 0xb
 9769 014c 3B       		.uleb128 0x3b
 9770 014d 0B       		.uleb128 0xb
 9771 014e 49       		.uleb128 0x49
 9772 014f 13       		.uleb128 0x13
 9773 0150 38       		.uleb128 0x38
 9774 0151 05       		.uleb128 0x5
ARM GAS  /var/folders/sv/kgmgr77579zbf78p2zlhkdfr0000gn/T//ccygG6jq.s 			page 183


 9775 0152 00       		.byte	0
 9776 0153 00       		.byte	0
 9777 0154 1D       		.uleb128 0x1d
 9778 0155 2E       		.uleb128 0x2e
 9779 0156 01       		.byte	0x1
 9780 0157 03       		.uleb128 0x3
 9781 0158 0E       		.uleb128 0xe
 9782 0159 3A       		.uleb128 0x3a
 9783 015a 0B       		.uleb128 0xb
 9784 015b 3B       		.uleb128 0x3b
 9785 015c 05       		.uleb128 0x5
 9786 015d 27       		.uleb128 0x27
 9787 015e 19       		.uleb128 0x19
 9788 015f 20       		.uleb128 0x20
 9789 0160 0B       		.uleb128 0xb
 9790 0161 01       		.uleb128 0x1
 9791 0162 13       		.uleb128 0x13
 9792 0163 00       		.byte	0
 9793 0164 00       		.byte	0
 9794 0165 1E       		.uleb128 0x1e
 9795 0166 05       		.uleb128 0x5
 9796 0167 00       		.byte	0
 9797 0168 03       		.uleb128 0x3
 9798 0169 0E       		.uleb128 0xe
 9799 016a 3A       		.uleb128 0x3a
 9800 016b 0B       		.uleb128 0xb
 9801 016c 3B       		.uleb128 0x3b
 9802 016d 05       		.uleb128 0x5
 9803 016e 49       		.uleb128 0x49
 9804 016f 13       		.uleb128 0x13
 9805 0170 00       		.byte	0
 9806 0171 00       		.byte	0
 9807 0172 1F       		.uleb128 0x1f
 9808 0173 2E       		.uleb128 0x2e
 9809 0174 00       		.byte	0
 9810 0175 03       		.uleb128 0x3
 9811 0176 0E       		.uleb128 0xe
 9812 0177 3A       		.uleb128 0x3a
 9813 0178 0B       		.uleb128 0xb
 9814 0179 3B       		.uleb128 0x3b
 9815 017a 05       		.uleb128 0x5
 9816 017b 27       		.uleb128 0x27
 9817 017c 19       		.uleb128 0x19
 9818 017d 20       		.uleb128 0x20
 9819 017e 0B       		.uleb128 0xb
 9820 017f 00       		.byte	0
 9821 0180 00       		.byte	0
 9822 0181 20       		.uleb128 0x20
 9823 0182 2E       		.uleb128 0x2e
 9824 0183 00       		.byte	0
 9825 0184 03       		.uleb128 0x3
 9826 0185 0E       		.uleb128 0xe
 9827 0186 3A       		.uleb128 0x3a
 9828 0187 0B       		.uleb128 0xb
 9829 0188 3B       		.uleb128 0x3b
 9830 0189 0B       		.uleb128 0xb
 9831 018a 27       		.uleb128 0x27
ARM GAS  /var/folders/sv/kgmgr77579zbf78p2zlhkdfr0000gn/T//ccygG6jq.s 			page 184


 9832 018b 19       		.uleb128 0x19
 9833 018c 49       		.uleb128 0x49
 9834 018d 13       		.uleb128 0x13
 9835 018e 20       		.uleb128 0x20
 9836 018f 0B       		.uleb128 0xb
 9837 0190 00       		.byte	0
 9838 0191 00       		.byte	0
 9839 0192 21       		.uleb128 0x21
 9840 0193 34       		.uleb128 0x34
 9841 0194 00       		.byte	0
 9842 0195 03       		.uleb128 0x3
 9843 0196 0E       		.uleb128 0xe
 9844 0197 49       		.uleb128 0x49
 9845 0198 13       		.uleb128 0x13
 9846 0199 34       		.uleb128 0x34
 9847 019a 19       		.uleb128 0x19
 9848 019b 1C       		.uleb128 0x1c
 9849 019c 0E       		.uleb128 0xe
 9850 019d 00       		.byte	0
 9851 019e 00       		.byte	0
 9852 019f 22       		.uleb128 0x22
 9853 01a0 2E       		.uleb128 0x2e
 9854 01a1 01       		.byte	0x1
 9855 01a2 03       		.uleb128 0x3
 9856 01a3 0E       		.uleb128 0xe
 9857 01a4 3A       		.uleb128 0x3a
 9858 01a5 0B       		.uleb128 0xb
 9859 01a6 3B       		.uleb128 0x3b
 9860 01a7 05       		.uleb128 0x5
 9861 01a8 27       		.uleb128 0x27
 9862 01a9 19       		.uleb128 0x19
 9863 01aa 49       		.uleb128 0x49
 9864 01ab 13       		.uleb128 0x13
 9865 01ac 20       		.uleb128 0x20
 9866 01ad 0B       		.uleb128 0xb
 9867 01ae 01       		.uleb128 0x1
 9868 01af 13       		.uleb128 0x13
 9869 01b0 00       		.byte	0
 9870 01b1 00       		.byte	0
 9871 01b2 23       		.uleb128 0x23
 9872 01b3 2E       		.uleb128 0x2e
 9873 01b4 01       		.byte	0x1
 9874 01b5 3F       		.uleb128 0x3f
 9875 01b6 19       		.uleb128 0x19
 9876 01b7 03       		.uleb128 0x3
 9877 01b8 0E       		.uleb128 0xe
 9878 01b9 3A       		.uleb128 0x3a
 9879 01ba 0B       		.uleb128 0xb
 9880 01bb 3B       		.uleb128 0x3b
 9881 01bc 0B       		.uleb128 0xb
 9882 01bd 27       		.uleb128 0x27
 9883 01be 19       		.uleb128 0x19
 9884 01bf 11       		.uleb128 0x11
 9885 01c0 01       		.uleb128 0x1
 9886 01c1 12       		.uleb128 0x12
 9887 01c2 06       		.uleb128 0x6
 9888 01c3 40       		.uleb128 0x40
ARM GAS  /var/folders/sv/kgmgr77579zbf78p2zlhkdfr0000gn/T//ccygG6jq.s 			page 185


 9889 01c4 18       		.uleb128 0x18
 9890 01c5 9642     		.uleb128 0x2116
 9891 01c7 19       		.uleb128 0x19
 9892 01c8 01       		.uleb128 0x1
 9893 01c9 13       		.uleb128 0x13
 9894 01ca 00       		.byte	0
 9895 01cb 00       		.byte	0
 9896 01cc 24       		.uleb128 0x24
 9897 01cd 05       		.uleb128 0x5
 9898 01ce 00       		.byte	0
 9899 01cf 03       		.uleb128 0x3
 9900 01d0 08       		.uleb128 0x8
 9901 01d1 3A       		.uleb128 0x3a
 9902 01d2 0B       		.uleb128 0xb
 9903 01d3 3B       		.uleb128 0x3b
 9904 01d4 0B       		.uleb128 0xb
 9905 01d5 49       		.uleb128 0x49
 9906 01d6 13       		.uleb128 0x13
 9907 01d7 02       		.uleb128 0x2
 9908 01d8 17       		.uleb128 0x17
 9909 01d9 00       		.byte	0
 9910 01da 00       		.byte	0
 9911 01db 25       		.uleb128 0x25
 9912 01dc 34       		.uleb128 0x34
 9913 01dd 00       		.byte	0
 9914 01de 03       		.uleb128 0x3
 9915 01df 0E       		.uleb128 0xe
 9916 01e0 3A       		.uleb128 0x3a
 9917 01e1 0B       		.uleb128 0xb
 9918 01e2 3B       		.uleb128 0x3b
 9919 01e3 0B       		.uleb128 0xb
 9920 01e4 49       		.uleb128 0x49
 9921 01e5 13       		.uleb128 0x13
 9922 01e6 02       		.uleb128 0x2
 9923 01e7 17       		.uleb128 0x17
 9924 01e8 00       		.byte	0
 9925 01e9 00       		.byte	0
 9926 01ea 26       		.uleb128 0x26
 9927 01eb 34       		.uleb128 0x34
 9928 01ec 00       		.byte	0
 9929 01ed 03       		.uleb128 0x3
 9930 01ee 0E       		.uleb128 0xe
 9931 01ef 3A       		.uleb128 0x3a
 9932 01f0 0B       		.uleb128 0xb
 9933 01f1 3B       		.uleb128 0x3b
 9934 01f2 0B       		.uleb128 0xb
 9935 01f3 49       		.uleb128 0x49
 9936 01f4 13       		.uleb128 0x13
 9937 01f5 02       		.uleb128 0x2
 9938 01f6 18       		.uleb128 0x18
 9939 01f7 00       		.byte	0
 9940 01f8 00       		.byte	0
 9941 01f9 27       		.uleb128 0x27
 9942 01fa 34       		.uleb128 0x34
 9943 01fb 00       		.byte	0
 9944 01fc 03       		.uleb128 0x3
 9945 01fd 08       		.uleb128 0x8
ARM GAS  /var/folders/sv/kgmgr77579zbf78p2zlhkdfr0000gn/T//ccygG6jq.s 			page 186


 9946 01fe 3A       		.uleb128 0x3a
 9947 01ff 0B       		.uleb128 0xb
 9948 0200 3B       		.uleb128 0x3b
 9949 0201 0B       		.uleb128 0xb
 9950 0202 49       		.uleb128 0x49
 9951 0203 13       		.uleb128 0x13
 9952 0204 02       		.uleb128 0x2
 9953 0205 17       		.uleb128 0x17
 9954 0206 00       		.byte	0
 9955 0207 00       		.byte	0
 9956 0208 28       		.uleb128 0x28
 9957 0209 0B       		.uleb128 0xb
 9958 020a 01       		.byte	0x1
 9959 020b 11       		.uleb128 0x11
 9960 020c 01       		.uleb128 0x1
 9961 020d 12       		.uleb128 0x12
 9962 020e 06       		.uleb128 0x6
 9963 020f 01       		.uleb128 0x1
 9964 0210 13       		.uleb128 0x13
 9965 0211 00       		.byte	0
 9966 0212 00       		.byte	0
 9967 0213 29       		.uleb128 0x29
 9968 0214 898201   		.uleb128 0x4109
 9969 0217 01       		.byte	0x1
 9970 0218 11       		.uleb128 0x11
 9971 0219 01       		.uleb128 0x1
 9972 021a 31       		.uleb128 0x31
 9973 021b 13       		.uleb128 0x13
 9974 021c 01       		.uleb128 0x1
 9975 021d 13       		.uleb128 0x13
 9976 021e 00       		.byte	0
 9977 021f 00       		.byte	0
 9978 0220 2A       		.uleb128 0x2a
 9979 0221 8A8201   		.uleb128 0x410a
 9980 0224 00       		.byte	0
 9981 0225 02       		.uleb128 0x2
 9982 0226 18       		.uleb128 0x18
 9983 0227 9142     		.uleb128 0x2111
 9984 0229 18       		.uleb128 0x18
 9985 022a 00       		.byte	0
 9986 022b 00       		.byte	0
 9987 022c 2B       		.uleb128 0x2b
 9988 022d 898201   		.uleb128 0x4109
 9989 0230 00       		.byte	0
 9990 0231 11       		.uleb128 0x11
 9991 0232 01       		.uleb128 0x1
 9992 0233 31       		.uleb128 0x31
 9993 0234 13       		.uleb128 0x13
 9994 0235 00       		.byte	0
 9995 0236 00       		.byte	0
 9996 0237 2C       		.uleb128 0x2c
 9997 0238 898201   		.uleb128 0x4109
 9998 023b 01       		.byte	0x1
 9999 023c 11       		.uleb128 0x11
 10000 023d 01       		.uleb128 0x1
 10001 023e 31       		.uleb128 0x31
 10002 023f 13       		.uleb128 0x13
ARM GAS  /var/folders/sv/kgmgr77579zbf78p2zlhkdfr0000gn/T//ccygG6jq.s 			page 187


 10003 0240 00       		.byte	0
 10004 0241 00       		.byte	0
 10005 0242 2D       		.uleb128 0x2d
 10006 0243 1D       		.uleb128 0x1d
 10007 0244 01       		.byte	0x1
 10008 0245 31       		.uleb128 0x31
 10009 0246 13       		.uleb128 0x13
 10010 0247 11       		.uleb128 0x11
 10011 0248 01       		.uleb128 0x1
 10012 0249 12       		.uleb128 0x12
 10013 024a 06       		.uleb128 0x6
 10014 024b 58       		.uleb128 0x58
 10015 024c 0B       		.uleb128 0xb
 10016 024d 59       		.uleb128 0x59
 10017 024e 0B       		.uleb128 0xb
 10018 024f 01       		.uleb128 0x1
 10019 0250 13       		.uleb128 0x13
 10020 0251 00       		.byte	0
 10021 0252 00       		.byte	0
 10022 0253 2E       		.uleb128 0x2e
 10023 0254 1D       		.uleb128 0x1d
 10024 0255 01       		.byte	0x1
 10025 0256 31       		.uleb128 0x31
 10026 0257 13       		.uleb128 0x13
 10027 0258 11       		.uleb128 0x11
 10028 0259 01       		.uleb128 0x1
 10029 025a 12       		.uleb128 0x12
 10030 025b 06       		.uleb128 0x6
 10031 025c 58       		.uleb128 0x58
 10032 025d 0B       		.uleb128 0xb
 10033 025e 59       		.uleb128 0x59
 10034 025f 05       		.uleb128 0x5
 10035 0260 00       		.byte	0
 10036 0261 00       		.byte	0
 10037 0262 2F       		.uleb128 0x2f
 10038 0263 05       		.uleb128 0x5
 10039 0264 00       		.byte	0
 10040 0265 31       		.uleb128 0x31
 10041 0266 13       		.uleb128 0x13
 10042 0267 02       		.uleb128 0x2
 10043 0268 17       		.uleb128 0x17
 10044 0269 00       		.byte	0
 10045 026a 00       		.byte	0
 10046 026b 30       		.uleb128 0x30
 10047 026c 0B       		.uleb128 0xb
 10048 026d 01       		.byte	0x1
 10049 026e 11       		.uleb128 0x11
 10050 026f 01       		.uleb128 0x1
 10051 0270 12       		.uleb128 0x12
 10052 0271 06       		.uleb128 0x6
 10053 0272 00       		.byte	0
 10054 0273 00       		.byte	0
 10055 0274 31       		.uleb128 0x31
 10056 0275 34       		.uleb128 0x34
 10057 0276 00       		.byte	0
 10058 0277 31       		.uleb128 0x31
 10059 0278 13       		.uleb128 0x13
ARM GAS  /var/folders/sv/kgmgr77579zbf78p2zlhkdfr0000gn/T//ccygG6jq.s 			page 188


 10060 0279 00       		.byte	0
 10061 027a 00       		.byte	0
 10062 027b 32       		.uleb128 0x32
 10063 027c 0B       		.uleb128 0xb
 10064 027d 01       		.byte	0x1
 10065 027e 55       		.uleb128 0x55
 10066 027f 17       		.uleb128 0x17
 10067 0280 01       		.uleb128 0x1
 10068 0281 13       		.uleb128 0x13
 10069 0282 00       		.byte	0
 10070 0283 00       		.byte	0
 10071 0284 33       		.uleb128 0x33
 10072 0285 34       		.uleb128 0x34
 10073 0286 00       		.byte	0
 10074 0287 03       		.uleb128 0x3
 10075 0288 0E       		.uleb128 0xe
 10076 0289 3A       		.uleb128 0x3a
 10077 028a 0B       		.uleb128 0xb
 10078 028b 3B       		.uleb128 0x3b
 10079 028c 05       		.uleb128 0x5
 10080 028d 49       		.uleb128 0x49
 10081 028e 13       		.uleb128 0x13
 10082 028f 02       		.uleb128 0x2
 10083 0290 18       		.uleb128 0x18
 10084 0291 00       		.byte	0
 10085 0292 00       		.byte	0
 10086 0293 34       		.uleb128 0x34
 10087 0294 0B       		.uleb128 0xb
 10088 0295 01       		.byte	0x1
 10089 0296 55       		.uleb128 0x55
 10090 0297 17       		.uleb128 0x17
 10091 0298 00       		.byte	0
 10092 0299 00       		.byte	0
 10093 029a 35       		.uleb128 0x35
 10094 029b 1D       		.uleb128 0x1d
 10095 029c 01       		.byte	0x1
 10096 029d 31       		.uleb128 0x31
 10097 029e 13       		.uleb128 0x13
 10098 029f 52       		.uleb128 0x52
 10099 02a0 01       		.uleb128 0x1
 10100 02a1 55       		.uleb128 0x55
 10101 02a2 17       		.uleb128 0x17
 10102 02a3 58       		.uleb128 0x58
 10103 02a4 0B       		.uleb128 0xb
 10104 02a5 59       		.uleb128 0x59
 10105 02a6 0B       		.uleb128 0xb
 10106 02a7 01       		.uleb128 0x1
 10107 02a8 13       		.uleb128 0x13
 10108 02a9 00       		.byte	0
 10109 02aa 00       		.byte	0
 10110 02ab 36       		.uleb128 0x36
 10111 02ac 1D       		.uleb128 0x1d
 10112 02ad 00       		.byte	0
 10113 02ae 31       		.uleb128 0x31
 10114 02af 13       		.uleb128 0x13
 10115 02b0 52       		.uleb128 0x52
 10116 02b1 01       		.uleb128 0x1
ARM GAS  /var/folders/sv/kgmgr77579zbf78p2zlhkdfr0000gn/T//ccygG6jq.s 			page 189


 10117 02b2 55       		.uleb128 0x55
 10118 02b3 17       		.uleb128 0x17
 10119 02b4 58       		.uleb128 0x58
 10120 02b5 0B       		.uleb128 0xb
 10121 02b6 59       		.uleb128 0x59
 10122 02b7 05       		.uleb128 0x5
 10123 02b8 00       		.byte	0
 10124 02b9 00       		.byte	0
 10125 02ba 37       		.uleb128 0x37
 10126 02bb 1D       		.uleb128 0x1d
 10127 02bc 00       		.byte	0
 10128 02bd 31       		.uleb128 0x31
 10129 02be 13       		.uleb128 0x13
 10130 02bf 11       		.uleb128 0x11
 10131 02c0 01       		.uleb128 0x1
 10132 02c1 12       		.uleb128 0x12
 10133 02c2 06       		.uleb128 0x6
 10134 02c3 58       		.uleb128 0x58
 10135 02c4 0B       		.uleb128 0xb
 10136 02c5 59       		.uleb128 0x59
 10137 02c6 05       		.uleb128 0x5
 10138 02c7 00       		.byte	0
 10139 02c8 00       		.byte	0
 10140 02c9 38       		.uleb128 0x38
 10141 02ca 34       		.uleb128 0x34
 10142 02cb 00       		.byte	0
 10143 02cc 03       		.uleb128 0x3
 10144 02cd 08       		.uleb128 0x8
 10145 02ce 3A       		.uleb128 0x3a
 10146 02cf 0B       		.uleb128 0xb
 10147 02d0 3B       		.uleb128 0x3b
 10148 02d1 05       		.uleb128 0x5
 10149 02d2 49       		.uleb128 0x49
 10150 02d3 13       		.uleb128 0x13
 10151 02d4 02       		.uleb128 0x2
 10152 02d5 17       		.uleb128 0x17
 10153 02d6 00       		.byte	0
 10154 02d7 00       		.byte	0
 10155 02d8 39       		.uleb128 0x39
 10156 02d9 34       		.uleb128 0x34
 10157 02da 00       		.byte	0
 10158 02db 03       		.uleb128 0x3
 10159 02dc 08       		.uleb128 0x8
 10160 02dd 3A       		.uleb128 0x3a
 10161 02de 0B       		.uleb128 0xb
 10162 02df 3B       		.uleb128 0x3b
 10163 02e0 05       		.uleb128 0x5
 10164 02e1 49       		.uleb128 0x49
 10165 02e2 13       		.uleb128 0x13
 10166 02e3 02       		.uleb128 0x2
 10167 02e4 18       		.uleb128 0x18
 10168 02e5 00       		.byte	0
 10169 02e6 00       		.byte	0
 10170 02e7 3A       		.uleb128 0x3a
 10171 02e8 34       		.uleb128 0x34
 10172 02e9 00       		.byte	0
 10173 02ea 03       		.uleb128 0x3
ARM GAS  /var/folders/sv/kgmgr77579zbf78p2zlhkdfr0000gn/T//ccygG6jq.s 			page 190


 10174 02eb 0E       		.uleb128 0xe
 10175 02ec 3A       		.uleb128 0x3a
 10176 02ed 0B       		.uleb128 0xb
 10177 02ee 3B       		.uleb128 0x3b
 10178 02ef 05       		.uleb128 0x5
 10179 02f0 49       		.uleb128 0x49
 10180 02f1 13       		.uleb128 0x13
 10181 02f2 02       		.uleb128 0x2
 10182 02f3 17       		.uleb128 0x17
 10183 02f4 00       		.byte	0
 10184 02f5 00       		.byte	0
 10185 02f6 3B       		.uleb128 0x3b
 10186 02f7 34       		.uleb128 0x34
 10187 02f8 00       		.byte	0
 10188 02f9 03       		.uleb128 0x3
 10189 02fa 0E       		.uleb128 0xe
 10190 02fb 3A       		.uleb128 0x3a
 10191 02fc 0B       		.uleb128 0xb
 10192 02fd 3B       		.uleb128 0x3b
 10193 02fe 05       		.uleb128 0x5
 10194 02ff 49       		.uleb128 0x49
 10195 0300 13       		.uleb128 0x13
 10196 0301 00       		.byte	0
 10197 0302 00       		.byte	0
 10198 0303 3C       		.uleb128 0x3c
 10199 0304 898201   		.uleb128 0x4109
 10200 0307 01       		.byte	0x1
 10201 0308 11       		.uleb128 0x11
 10202 0309 01       		.uleb128 0x1
 10203 030a 00       		.byte	0
 10204 030b 00       		.byte	0
 10205 030c 3D       		.uleb128 0x3d
 10206 030d 2E       		.uleb128 0x2e
 10207 030e 01       		.byte	0x1
 10208 030f 3F       		.uleb128 0x3f
 10209 0310 19       		.uleb128 0x19
 10210 0311 03       		.uleb128 0x3
 10211 0312 0E       		.uleb128 0xe
 10212 0313 3A       		.uleb128 0x3a
 10213 0314 0B       		.uleb128 0xb
 10214 0315 3B       		.uleb128 0x3b
 10215 0316 05       		.uleb128 0x5
 10216 0317 27       		.uleb128 0x27
 10217 0318 19       		.uleb128 0x19
 10218 0319 11       		.uleb128 0x11
 10219 031a 01       		.uleb128 0x1
 10220 031b 12       		.uleb128 0x12
 10221 031c 06       		.uleb128 0x6
 10222 031d 40       		.uleb128 0x40
 10223 031e 18       		.uleb128 0x18
 10224 031f 9742     		.uleb128 0x2117
 10225 0321 19       		.uleb128 0x19
 10226 0322 01       		.uleb128 0x1
 10227 0323 13       		.uleb128 0x13
 10228 0324 00       		.byte	0
 10229 0325 00       		.byte	0
 10230 0326 3E       		.uleb128 0x3e
ARM GAS  /var/folders/sv/kgmgr77579zbf78p2zlhkdfr0000gn/T//ccygG6jq.s 			page 191


 10231 0327 05       		.uleb128 0x5
 10232 0328 00       		.byte	0
 10233 0329 03       		.uleb128 0x3
 10234 032a 0E       		.uleb128 0xe
 10235 032b 3A       		.uleb128 0x3a
 10236 032c 0B       		.uleb128 0xb
 10237 032d 3B       		.uleb128 0x3b
 10238 032e 05       		.uleb128 0x5
 10239 032f 49       		.uleb128 0x49
 10240 0330 13       		.uleb128 0x13
 10241 0331 02       		.uleb128 0x2
 10242 0332 17       		.uleb128 0x17
 10243 0333 00       		.byte	0
 10244 0334 00       		.byte	0
 10245 0335 3F       		.uleb128 0x3f
 10246 0336 05       		.uleb128 0x5
 10247 0337 00       		.byte	0
 10248 0338 03       		.uleb128 0x3
 10249 0339 08       		.uleb128 0x8
 10250 033a 3A       		.uleb128 0x3a
 10251 033b 0B       		.uleb128 0xb
 10252 033c 3B       		.uleb128 0x3b
 10253 033d 05       		.uleb128 0x5
 10254 033e 49       		.uleb128 0x49
 10255 033f 13       		.uleb128 0x13
 10256 0340 02       		.uleb128 0x2
 10257 0341 17       		.uleb128 0x17
 10258 0342 00       		.byte	0
 10259 0343 00       		.byte	0
 10260 0344 40       		.uleb128 0x40
 10261 0345 34       		.uleb128 0x34
 10262 0346 00       		.byte	0
 10263 0347 03       		.uleb128 0x3
 10264 0348 0E       		.uleb128 0xe
 10265 0349 3A       		.uleb128 0x3a
 10266 034a 0B       		.uleb128 0xb
 10267 034b 3B       		.uleb128 0x3b
 10268 034c 05       		.uleb128 0x5
 10269 034d 49       		.uleb128 0x49
 10270 034e 13       		.uleb128 0x13
 10271 034f 3F       		.uleb128 0x3f
 10272 0350 19       		.uleb128 0x19
 10273 0351 3C       		.uleb128 0x3c
 10274 0352 19       		.uleb128 0x19
 10275 0353 00       		.byte	0
 10276 0354 00       		.byte	0
 10277 0355 41       		.uleb128 0x41
 10278 0356 34       		.uleb128 0x34
 10279 0357 00       		.byte	0
 10280 0358 03       		.uleb128 0x3
 10281 0359 08       		.uleb128 0x8
 10282 035a 3A       		.uleb128 0x3a
 10283 035b 0B       		.uleb128 0xb
 10284 035c 3B       		.uleb128 0x3b
 10285 035d 05       		.uleb128 0x5
 10286 035e 49       		.uleb128 0x49
 10287 035f 13       		.uleb128 0x13
ARM GAS  /var/folders/sv/kgmgr77579zbf78p2zlhkdfr0000gn/T//ccygG6jq.s 			page 192


 10288 0360 3F       		.uleb128 0x3f
 10289 0361 19       		.uleb128 0x19
 10290 0362 3C       		.uleb128 0x3c
 10291 0363 19       		.uleb128 0x19
 10292 0364 00       		.byte	0
 10293 0365 00       		.byte	0
 10294 0366 42       		.uleb128 0x42
 10295 0367 34       		.uleb128 0x34
 10296 0368 00       		.byte	0
 10297 0369 03       		.uleb128 0x3
 10298 036a 0E       		.uleb128 0xe
 10299 036b 3A       		.uleb128 0x3a
 10300 036c 0B       		.uleb128 0xb
 10301 036d 3B       		.uleb128 0x3b
 10302 036e 0B       		.uleb128 0xb
 10303 036f 49       		.uleb128 0x49
 10304 0370 13       		.uleb128 0x13
 10305 0371 3F       		.uleb128 0x3f
 10306 0372 19       		.uleb128 0x19
 10307 0373 3C       		.uleb128 0x3c
 10308 0374 19       		.uleb128 0x19
 10309 0375 00       		.byte	0
 10310 0376 00       		.byte	0
 10311 0377 43       		.uleb128 0x43
 10312 0378 21       		.uleb128 0x21
 10313 0379 00       		.byte	0
 10314 037a 00       		.byte	0
 10315 037b 00       		.byte	0
 10316 037c 44       		.uleb128 0x44
 10317 037d 2E       		.uleb128 0x2e
 10318 037e 00       		.byte	0
 10319 037f 3F       		.uleb128 0x3f
 10320 0380 19       		.uleb128 0x19
 10321 0381 3C       		.uleb128 0x3c
 10322 0382 19       		.uleb128 0x19
 10323 0383 6E       		.uleb128 0x6e
 10324 0384 0E       		.uleb128 0xe
 10325 0385 03       		.uleb128 0x3
 10326 0386 0E       		.uleb128 0xe
 10327 0387 3A       		.uleb128 0x3a
 10328 0388 0B       		.uleb128 0xb
 10329 0389 3B       		.uleb128 0x3b
 10330 038a 0B       		.uleb128 0xb
 10331 038b 00       		.byte	0
 10332 038c 00       		.byte	0
 10333 038d 45       		.uleb128 0x45
 10334 038e 2E       		.uleb128 0x2e
 10335 038f 00       		.byte	0
 10336 0390 3F       		.uleb128 0x3f
 10337 0391 19       		.uleb128 0x19
 10338 0392 3C       		.uleb128 0x3c
 10339 0393 19       		.uleb128 0x19
 10340 0394 6E       		.uleb128 0x6e
 10341 0395 0E       		.uleb128 0xe
 10342 0396 03       		.uleb128 0x3
 10343 0397 0E       		.uleb128 0xe
 10344 0398 00       		.byte	0
ARM GAS  /var/folders/sv/kgmgr77579zbf78p2zlhkdfr0000gn/T//ccygG6jq.s 			page 193


 10345 0399 00       		.byte	0
 10346 039a 00       		.byte	0
 10347              		.section	.debug_loc,"",%progbits
 10348              	.Ldebug_loc0:
 10349              	.LLST0:
 10350 0000 00000000 		.4byte	.LVL0
 10351 0004 0F000000 		.4byte	.LVL1-1
 10352 0008 0100     		.2byte	0x1
 10353 000a 50       		.byte	0x50
 10354 000b 0F000000 		.4byte	.LVL1-1
 10355 000f 00110000 		.4byte	.LFE257
 10356 0013 0400     		.2byte	0x4
 10357 0015 F3       		.byte	0xf3
 10358 0016 01       		.uleb128 0x1
 10359 0017 50       		.byte	0x50
 10360 0018 9F       		.byte	0x9f
 10361 0019 00000000 		.4byte	0
 10362 001d 00000000 		.4byte	0
 10363              	.LLST1:
 10364 0021 00000000 		.4byte	.LVL0
 10365 0025 1A000000 		.4byte	.LVL2
 10366 0029 0200     		.2byte	0x2
 10367 002b 30       		.byte	0x30
 10368 002c 9F       		.byte	0x9f
 10369 002d 1A000000 		.4byte	.LVL2
 10370 0031 08010000 		.4byte	.LVL24
 10371 0035 0100     		.2byte	0x1
 10372 0037 54       		.byte	0x54
 10373 0038 08010000 		.4byte	.LVL24
 10374 003c 0E010000 		.4byte	.LVL26
 10375 0040 0200     		.2byte	0x2
 10376 0042 30       		.byte	0x30
 10377 0043 9F       		.byte	0x9f
 10378 0044 18010000 		.4byte	.LVL27
 10379 0048 C6010000 		.4byte	.LVL47
 10380 004c 0100     		.2byte	0x1
 10381 004e 54       		.byte	0x54
 10382 004f E4010000 		.4byte	.LVL52
 10383 0053 F8010000 		.4byte	.LVL56
 10384 0057 0100     		.2byte	0x1
 10385 0059 54       		.byte	0x54
 10386 005a 2E020000 		.4byte	.LVL62
 10387 005e E6020000 		.4byte	.LVL67
 10388 0062 0100     		.2byte	0x1
 10389 0064 54       		.byte	0x54
 10390 0065 BC030000 		.4byte	.LVL91
 10391 0069 8A040000 		.4byte	.LVL113
 10392 006d 0100     		.2byte	0x1
 10393 006f 54       		.byte	0x54
 10394 0070 E2040000 		.4byte	.LVL125
 10395 0074 68050000 		.4byte	.LVL129
 10396 0078 0100     		.2byte	0x1
 10397 007a 54       		.byte	0x54
 10398 007b 70050000 		.4byte	.LVL131
 10399 007f A4050000 		.4byte	.LVL134
 10400 0083 0100     		.2byte	0x1
 10401 0085 54       		.byte	0x54
ARM GAS  /var/folders/sv/kgmgr77579zbf78p2zlhkdfr0000gn/T//ccygG6jq.s 			page 194


 10402 0086 AC060000 		.4byte	.LVL140
 10403 008a 52070000 		.4byte	.LVL155
 10404 008e 0100     		.2byte	0x1
 10405 0090 54       		.byte	0x54
 10406 0091 D2070000 		.4byte	.LVL166
 10407 0095 F0070000 		.4byte	.LVL169
 10408 0099 0100     		.2byte	0x1
 10409 009b 54       		.byte	0x54
 10410 009c 16080000 		.4byte	.LVL172
 10411 00a0 34080000 		.4byte	.LVL175
 10412 00a4 0100     		.2byte	0x1
 10413 00a6 54       		.byte	0x54
 10414 00a7 D6080000 		.4byte	.LVL194
 10415 00ab 40090000 		.4byte	.LVL200
 10416 00af 0100     		.2byte	0x1
 10417 00b1 54       		.byte	0x54
 10418 00b2 EC090000 		.4byte	.LVL204
 10419 00b6 8E0A0000 		.4byte	.LVL211
 10420 00ba 0100     		.2byte	0x1
 10421 00bc 54       		.byte	0x54
 10422 00bd A00A0000 		.4byte	.LVL214
 10423 00c1 1E0B0000 		.4byte	.LVL226
 10424 00c5 0100     		.2byte	0x1
 10425 00c7 54       		.byte	0x54
 10426 00c8 B60B0000 		.4byte	.LVL250
 10427 00cc B80D0000 		.4byte	.LVL283
 10428 00d0 0100     		.2byte	0x1
 10429 00d2 54       		.byte	0x54
 10430 00d3 160E0000 		.4byte	.LVL287
 10431 00d7 920F0000 		.4byte	.LVL349
 10432 00db 0100     		.2byte	0x1
 10433 00dd 54       		.byte	0x54
 10434 00de 00000000 		.4byte	0
 10435 00e2 00000000 		.4byte	0
 10436              	.LLST2:
 10437 00e6 10000000 		.4byte	.LVL1
 10438 00ea 26000000 		.4byte	.LVL4
 10439 00ee 0100     		.2byte	0x1
 10440 00f0 50       		.byte	0x50
 10441 00f1 26000000 		.4byte	.LVL4
 10442 00f5 29000000 		.4byte	.LVL5-1
 10443 00f9 0200     		.2byte	0x2
 10444 00fb 75       		.byte	0x75
 10445 00fc 00       		.sleb128 0
 10446 00fd 2C000000 		.4byte	.LVL6
 10447 0101 33000000 		.4byte	.LVL7-1
 10448 0105 0100     		.2byte	0x1
 10449 0107 50       		.byte	0x50
 10450 0108 08010000 		.4byte	.LVL24
 10451 010c 0A010000 		.4byte	.LVL25
 10452 0110 0100     		.2byte	0x1
 10453 0112 50       		.byte	0x50
 10454 0113 00000000 		.4byte	0
 10455 0117 00000000 		.4byte	0
 10456              	.LLST3:
 10457 011b C6010000 		.4byte	.LVL47
 10458 011f C9010000 		.4byte	.LVL48-1
ARM GAS  /var/folders/sv/kgmgr77579zbf78p2zlhkdfr0000gn/T//ccygG6jq.s 			page 195


 10459 0123 0100     		.2byte	0x1
 10460 0125 50       		.byte	0x50
 10461 0126 C9010000 		.4byte	.LVL48-1
 10462 012a E4010000 		.4byte	.LVL52
 10463 012e 0100     		.2byte	0x1
 10464 0130 54       		.byte	0x54
 10465 0131 00000000 		.4byte	0
 10466 0135 00000000 		.4byte	0
 10467              	.LLST4:
 10468 0139 F8010000 		.4byte	.LVL56
 10469 013d 08020000 		.4byte	.LVL57
 10470 0141 0100     		.2byte	0x1
 10471 0143 50       		.byte	0x50
 10472 0144 08020000 		.4byte	.LVL57
 10473 0148 20020000 		.4byte	.LVL59
 10474 014c 0100     		.2byte	0x1
 10475 014e 54       		.byte	0x54
 10476 014f 20020000 		.4byte	.LVL59
 10477 0153 28020000 		.4byte	.LVL60
 10478 0157 0100     		.2byte	0x1
 10479 0159 50       		.byte	0x50
 10480 015a 28020000 		.4byte	.LVL60
 10481 015e 2E020000 		.4byte	.LVL62
 10482 0162 0100     		.2byte	0x1
 10483 0164 54       		.byte	0x54
 10484 0165 00000000 		.4byte	0
 10485 0169 00000000 		.4byte	0
 10486              	.LLST5:
 10487 016d DA020000 		.4byte	.LVL66
 10488 0171 E6020000 		.4byte	.LVL67
 10489 0175 0200     		.2byte	0x2
 10490 0177 30       		.byte	0x30
 10491 0178 9F       		.byte	0x9f
 10492 0179 E6020000 		.4byte	.LVL67
 10493 017d 6E030000 		.4byte	.LVL82
 10494 0181 0100     		.2byte	0x1
 10495 0183 55       		.byte	0x55
 10496 0184 6E030000 		.4byte	.LVL82
 10497 0188 B4030000 		.4byte	.LVL90
 10498 018c 0300     		.2byte	0x3
 10499 018e 75       		.byte	0x75
 10500 018f 7F       		.sleb128 -1
 10501 0190 9F       		.byte	0x9f
 10502 0191 B4030000 		.4byte	.LVL90
 10503 0195 BC030000 		.4byte	.LVL91
 10504 0199 0100     		.2byte	0x1
 10505 019b 55       		.byte	0x55
 10506 019c 00000000 		.4byte	0
 10507 01a0 00000000 		.4byte	0
 10508              	.LLST6:
 10509 01a4 7A040000 		.4byte	.LVL107
 10510 01a8 E2040000 		.4byte	.LVL125
 10511 01ac 0100     		.2byte	0x1
 10512 01ae 5A       		.byte	0x5a
 10513 01af 00000000 		.4byte	0
 10514 01b3 00000000 		.4byte	0
 10515              	.LLST7:
ARM GAS  /var/folders/sv/kgmgr77579zbf78p2zlhkdfr0000gn/T//ccygG6jq.s 			page 196


 10516 01b7 7E040000 		.4byte	.LVL108
 10517 01bb E2040000 		.4byte	.LVL125
 10518 01bf 0100     		.2byte	0x1
 10519 01c1 59       		.byte	0x59
 10520 01c2 00000000 		.4byte	0
 10521 01c6 00000000 		.4byte	0
 10522              	.LLST8:
 10523 01ca 82040000 		.4byte	.LVL109
 10524 01ce E2040000 		.4byte	.LVL125
 10525 01d2 0100     		.2byte	0x1
 10526 01d4 58       		.byte	0x58
 10527 01d5 00000000 		.4byte	0
 10528 01d9 00000000 		.4byte	0
 10529              	.LLST9:
 10530 01dd 84040000 		.4byte	.LVL110
 10531 01e1 E2040000 		.4byte	.LVL125
 10532 01e5 0100     		.2byte	0x1
 10533 01e7 57       		.byte	0x57
 10534 01e8 00000000 		.4byte	0
 10535 01ec 00000000 		.4byte	0
 10536              	.LLST10:
 10537 01f0 86040000 		.4byte	.LVL111
 10538 01f4 E2040000 		.4byte	.LVL125
 10539 01f8 0100     		.2byte	0x1
 10540 01fa 56       		.byte	0x56
 10541 01fb 00000000 		.4byte	0
 10542 01ff 00000000 		.4byte	0
 10543              	.LLST11:
 10544 0203 88040000 		.4byte	.LVL112
 10545 0207 E2040000 		.4byte	.LVL125
 10546 020b 0100     		.2byte	0x1
 10547 020d 55       		.byte	0x55
 10548 020e 00000000 		.4byte	0
 10549 0212 00000000 		.4byte	0
 10550              	.LLST12:
 10551 0216 8A040000 		.4byte	.LVL113
 10552 021a E2040000 		.4byte	.LVL125
 10553 021e 0100     		.2byte	0x1
 10554 0220 54       		.byte	0x54
 10555 0221 00000000 		.4byte	0
 10556 0225 00000000 		.4byte	0
 10557              	.LLST13:
 10558 0229 4E040000 		.4byte	.LVL103
 10559 022d 54040000 		.4byte	.LVL104
 10560 0231 0300     		.2byte	0x3
 10561 0233 08       		.byte	0x8
 10562 0234 20       		.byte	0x20
 10563 0235 9F       		.byte	0x9f
 10564 0236 00000000 		.4byte	0
 10565 023a 00000000 		.4byte	0
 10566              	.LLST14:
 10567 023e 70040000 		.4byte	.LVL105
 10568 0242 74040000 		.4byte	.LVL106
 10569 0246 0200     		.2byte	0x2
 10570 0248 30       		.byte	0x30
 10571 0249 9F       		.byte	0x9f
 10572 024a 00000000 		.4byte	0
ARM GAS  /var/folders/sv/kgmgr77579zbf78p2zlhkdfr0000gn/T//ccygG6jq.s 			page 197


 10573 024e 00000000 		.4byte	0
 10574              	.LLST15:
 10575 0252 70070000 		.4byte	.LVL157
 10576 0256 D2070000 		.4byte	.LVL166
 10577 025a 0100     		.2byte	0x1
 10578 025c 56       		.byte	0x56
 10579 025d 00000000 		.4byte	0
 10580 0261 00000000 		.4byte	0
 10581              	.LLST16:
 10582 0265 32080000 		.4byte	.LVL174
 10583 0269 36080000 		.4byte	.LVL176
 10584 026d 0200     		.2byte	0x2
 10585 026f 30       		.byte	0x30
 10586 0270 9F       		.byte	0x9f
 10587 0271 36080000 		.4byte	.LVL176
 10588 0275 50080000 		.4byte	.LVL180
 10589 0279 0100     		.2byte	0x1
 10590 027b 54       		.byte	0x54
 10591 027c 50080000 		.4byte	.LVL180
 10592 0280 D6080000 		.4byte	.LVL194
 10593 0284 0300     		.2byte	0x3
 10594 0286 74       		.byte	0x74
 10595 0287 7F       		.sleb128 -1
 10596 0288 9F       		.byte	0x9f
 10597 0289 00000000 		.4byte	0
 10598 028d 00000000 		.4byte	0
 10599              	.LLST17:
 10600 0291 36080000 		.4byte	.LVL176
 10601 0295 3C080000 		.4byte	.LVL177
 10602 0299 0100     		.2byte	0x1
 10603 029b 55       		.byte	0x55
 10604 029c 48080000 		.4byte	.LVL179
 10605 02a0 70080000 		.4byte	.LVL182
 10606 02a4 0100     		.2byte	0x1
 10607 02a6 50       		.byte	0x50
 10608 02a7 70080000 		.4byte	.LVL182
 10609 02ab D6080000 		.4byte	.LVL194
 10610 02af 0100     		.2byte	0x1
 10611 02b1 55       		.byte	0x55
 10612 02b2 00000000 		.4byte	0
 10613 02b6 00000000 		.4byte	0
 10614              	.LLST18:
 10615 02ba 48080000 		.4byte	.LVL179
 10616 02be 54080000 		.4byte	.LVL181
 10617 02c2 0200     		.2byte	0x2
 10618 02c4 70       		.byte	0x70
 10619 02c5 04       		.sleb128 4
 10620 02c6 00000000 		.4byte	0
 10621 02ca 00000000 		.4byte	0
 10622              	.LLST19:
 10623 02ce 7C080000 		.4byte	.LVL184
 10624 02d2 80080000 		.4byte	.LVL185
 10625 02d6 0200     		.2byte	0x2
 10626 02d8 75       		.byte	0x75
 10627 02d9 04       		.sleb128 4
 10628 02da 00000000 		.4byte	0
 10629 02de 00000000 		.4byte	0
ARM GAS  /var/folders/sv/kgmgr77579zbf78p2zlhkdfr0000gn/T//ccygG6jq.s 			page 198


 10630              	.LLST20:
 10631 02e2 36090000 		.4byte	.LVL198
 10632 02e6 3D090000 		.4byte	.LVL199-1
 10633 02ea 0200     		.2byte	0x2
 10634 02ec 90       		.byte	0x90
 10635 02ed 40       		.uleb128 0x40
 10636 02ee 00000000 		.4byte	0
 10637 02f2 00000000 		.4byte	0
 10638              	.LLST21:
 10639 02f6 FE0A0000 		.4byte	.LVL219
 10640 02fa B60B0000 		.4byte	.LVL250
 10641 02fe 0200     		.2byte	0x2
 10642 0300 90       		.byte	0x90
 10643 0301 52       		.uleb128 0x52
 10644 0302 00000000 		.4byte	0
 10645 0306 00000000 		.4byte	0
 10646              	.LLST22:
 10647 030a 040B0000 		.4byte	.LVL221
 10648 030e 070B0000 		.4byte	.LVL222-1
 10649 0312 0100     		.2byte	0x1
 10650 0314 50       		.byte	0x50
 10651 0315 070B0000 		.4byte	.LVL222-1
 10652 0319 B60B0000 		.4byte	.LVL250
 10653 031d 0100     		.2byte	0x1
 10654 031f 57       		.byte	0x57
 10655 0320 00000000 		.4byte	0
 10656 0324 00000000 		.4byte	0
 10657              	.LLST23:
 10658 0328 0C0B0000 		.4byte	.LVL223
 10659 032c 0F0B0000 		.4byte	.LVL224-1
 10660 0330 0200     		.2byte	0x2
 10661 0332 90       		.byte	0x90
 10662 0333 40       		.uleb128 0x40
 10663 0334 0F0B0000 		.4byte	.LVL224-1
 10664 0338 B60B0000 		.4byte	.LVL250
 10665 033c 0200     		.2byte	0x2
 10666 033e 90       		.byte	0x90
 10667 033f 55       		.uleb128 0x55
 10668 0340 00000000 		.4byte	0
 10669 0344 00000000 		.4byte	0
 10670              	.LLST24:
 10671 0348 5A0B0000 		.4byte	.LVL231
 10672 034c 940B0000 		.4byte	.LVL243
 10673 0350 0200     		.2byte	0x2
 10674 0352 90       		.byte	0x90
 10675 0353 54       		.uleb128 0x54
 10676 0354 940B0000 		.4byte	.LVL243
 10677 0358 9C0B0000 		.4byte	.LVL245
 10678 035c 0800     		.2byte	0x8
 10679 035e F5       		.byte	0xf5
 10680 035f 54       		.uleb128 0x54
 10681 0360 25       		.uleb128 0x25
 10682 0361 F5       		.byte	0xf5
 10683 0362 51       		.uleb128 0x51
 10684 0363 25       		.uleb128 0x25
 10685 0364 1B       		.byte	0x1b
 10686 0365 9F       		.byte	0x9f
ARM GAS  /var/folders/sv/kgmgr77579zbf78p2zlhkdfr0000gn/T//ccygG6jq.s 			page 199


 10687 0366 9C0B0000 		.4byte	.LVL245
 10688 036a A40B0000 		.4byte	.LVL247
 10689 036e 0200     		.2byte	0x2
 10690 0370 90       		.byte	0x90
 10691 0371 4E       		.uleb128 0x4e
 10692 0372 A40B0000 		.4byte	.LVL247
 10693 0376 B60B0000 		.4byte	.LVL250
 10694 037a 0800     		.2byte	0x8
 10695 037c F5       		.byte	0xf5
 10696 037d 54       		.uleb128 0x54
 10697 037e 25       		.uleb128 0x25
 10698 037f F5       		.byte	0xf5
 10699 0380 51       		.uleb128 0x51
 10700 0381 25       		.uleb128 0x25
 10701 0382 1B       		.byte	0x1b
 10702 0383 9F       		.byte	0x9f
 10703 0384 00000000 		.4byte	0
 10704 0388 00000000 		.4byte	0
 10705              	.LLST25:
 10706 038c 5A0B0000 		.4byte	.LVL231
 10707 0390 940B0000 		.4byte	.LVL243
 10708 0394 0200     		.2byte	0x2
 10709 0396 90       		.byte	0x90
 10710 0397 53       		.uleb128 0x53
 10711 0398 940B0000 		.4byte	.LVL243
 10712 039c A00B0000 		.4byte	.LVL246
 10713 03a0 0800     		.2byte	0x8
 10714 03a2 F5       		.byte	0xf5
 10715 03a3 53       		.uleb128 0x53
 10716 03a4 25       		.uleb128 0x25
 10717 03a5 F5       		.byte	0xf5
 10718 03a6 51       		.uleb128 0x51
 10719 03a7 25       		.uleb128 0x25
 10720 03a8 1B       		.byte	0x1b
 10721 03a9 9F       		.byte	0x9f
 10722 03aa A00B0000 		.4byte	.LVL246
 10723 03ae AC0B0000 		.4byte	.LVL249
 10724 03b2 0200     		.2byte	0x2
 10725 03b4 90       		.byte	0x90
 10726 03b5 4F       		.uleb128 0x4f
 10727 03b6 AC0B0000 		.4byte	.LVL249
 10728 03ba B60B0000 		.4byte	.LVL250
 10729 03be 0800     		.2byte	0x8
 10730 03c0 F5       		.byte	0xf5
 10731 03c1 53       		.uleb128 0x53
 10732 03c2 25       		.uleb128 0x25
 10733 03c3 F5       		.byte	0xf5
 10734 03c4 51       		.uleb128 0x51
 10735 03c5 25       		.uleb128 0x25
 10736 03c6 1B       		.byte	0x1b
 10737 03c7 9F       		.byte	0x9f
 10738 03c8 00000000 		.4byte	0
 10739 03cc 00000000 		.4byte	0
 10740              	.LLST26:
 10741 03d0 5A0B0000 		.4byte	.LVL231
 10742 03d4 B60B0000 		.4byte	.LVL250
 10743 03d8 0200     		.2byte	0x2
ARM GAS  /var/folders/sv/kgmgr77579zbf78p2zlhkdfr0000gn/T//ccygG6jq.s 			page 200


 10744 03da 90       		.byte	0x90
 10745 03db 51       		.uleb128 0x51
 10746 03dc 00000000 		.4byte	0
 10747 03e0 00000000 		.4byte	0
 10748              	.LLST27:
 10749 03e4 5A0B0000 		.4byte	.LVL231
 10750 03e8 940B0000 		.4byte	.LVL243
 10751 03ec 0200     		.2byte	0x2
 10752 03ee 90       		.byte	0x90
 10753 03ef 50       		.uleb128 0x50
 10754 03f0 940B0000 		.4byte	.LVL243
 10755 03f4 980B0000 		.4byte	.LVL244
 10756 03f8 0800     		.2byte	0x8
 10757 03fa F5       		.byte	0xf5
 10758 03fb 50       		.uleb128 0x50
 10759 03fc 25       		.uleb128 0x25
 10760 03fd F5       		.byte	0xf5
 10761 03fe 51       		.uleb128 0x51
 10762 03ff 25       		.uleb128 0x25
 10763 0400 1B       		.byte	0x1b
 10764 0401 9F       		.byte	0x9f
 10765 0402 980B0000 		.4byte	.LVL244
 10766 0406 A80B0000 		.4byte	.LVL248
 10767 040a 0200     		.2byte	0x2
 10768 040c 90       		.byte	0x90
 10769 040d 4D       		.uleb128 0x4d
 10770 040e A80B0000 		.4byte	.LVL248
 10771 0412 B60B0000 		.4byte	.LVL250
 10772 0416 0800     		.2byte	0x8
 10773 0418 F5       		.byte	0xf5
 10774 0419 50       		.uleb128 0x50
 10775 041a 25       		.uleb128 0x25
 10776 041b F5       		.byte	0xf5
 10777 041c 51       		.uleb128 0x51
 10778 041d 25       		.uleb128 0x25
 10779 041e 1B       		.byte	0x1b
 10780 041f 9F       		.byte	0x9f
 10781 0420 00000000 		.4byte	0
 10782 0424 00000000 		.4byte	0
 10783              	.LLST28:
 10784 0428 1C0B0000 		.4byte	.LVL225
 10785 042c 1E0B0000 		.4byte	.LVL226
 10786 0430 0200     		.2byte	0x2
 10787 0432 30       		.byte	0x30
 10788 0433 9F       		.byte	0x9f
 10789 0434 1E0B0000 		.4byte	.LVL226
 10790 0438 300B0000 		.4byte	.LVL227
 10791 043c 0100     		.2byte	0x1
 10792 043e 54       		.byte	0x54
 10793 043f 300B0000 		.4byte	.LVL227
 10794 0443 3E0B0000 		.4byte	.LVL229
 10795 0447 0300     		.2byte	0x3
 10796 0449 74       		.byte	0x74
 10797 044a 7F       		.sleb128 -1
 10798 044b 9F       		.byte	0x9f
 10799 044c 3E0B0000 		.4byte	.LVL229
 10800 0450 4A0B0000 		.4byte	.LVL230
ARM GAS  /var/folders/sv/kgmgr77579zbf78p2zlhkdfr0000gn/T//ccygG6jq.s 			page 201


 10801 0454 0100     		.2byte	0x1
 10802 0456 54       		.byte	0x54
 10803 0457 00000000 		.4byte	0
 10804 045b 00000000 		.4byte	0
 10805              	.LLST29:
 10806 045f 5A0B0000 		.4byte	.LVL231
 10807 0463 7A0B0000 		.4byte	.LVL239
 10808 0467 0700     		.2byte	0x7
 10809 0469 0A       		.byte	0xa
 10810 046a E803     		.2byte	0x3e8
 10811 046c 74       		.byte	0x74
 10812 046d 00       		.sleb128 0
 10813 046e 1C       		.byte	0x1c
 10814 046f 9F       		.byte	0x9f
 10815 0470 7A0B0000 		.4byte	.LVL239
 10816 0474 7E0B0000 		.4byte	.LVL240
 10817 0478 0700     		.2byte	0x7
 10818 047a 0A       		.byte	0xa
 10819 047b E703     		.2byte	0x3e7
 10820 047d 74       		.byte	0x74
 10821 047e 00       		.sleb128 0
 10822 047f 1C       		.byte	0x1c
 10823 0480 9F       		.byte	0x9f
 10824 0481 00000000 		.4byte	0
 10825 0485 00000000 		.4byte	0
 10826              	.LLST30:
 10827 0489 0C0D0000 		.4byte	.LVL277
 10828 048d 180D0000 		.4byte	.LVL279
 10829 0491 0200     		.2byte	0x2
 10830 0493 30       		.byte	0x30
 10831 0494 9F       		.byte	0x9f
 10832 0495 380E0000 		.4byte	.LVL292
 10833 0499 3C0E0000 		.4byte	.LVL293
 10834 049d 0200     		.2byte	0x2
 10835 049f 31       		.byte	0x31
 10836 04a0 9F       		.byte	0x9f
 10837 04a1 00000000 		.4byte	0
 10838 04a5 00000000 		.4byte	0
 10839              	.LLST31:
 10840 04a9 DE0C0000 		.4byte	.LVL273
 10841 04ad F00C0000 		.4byte	.LVL274
 10842 04b1 0200     		.2byte	0x2
 10843 04b3 30       		.byte	0x30
 10844 04b4 9F       		.byte	0x9f
 10845 04b5 F00C0000 		.4byte	.LVL274
 10846 04b9 0C0D0000 		.4byte	.LVL277
 10847 04bd 0100     		.2byte	0x1
 10848 04bf 57       		.byte	0x57
 10849 04c0 2E0E0000 		.4byte	.LVL291
 10850 04c4 3C0E0000 		.4byte	.LVL293
 10851 04c8 0100     		.2byte	0x1
 10852 04ca 57       		.byte	0x57
 10853 04cb 00000000 		.4byte	0
 10854 04cf 00000000 		.4byte	0
 10855              	.LLST32:
 10856 04d3 880F0000 		.4byte	.LVL348
 10857 04d7 920F0000 		.4byte	.LVL349
ARM GAS  /var/folders/sv/kgmgr77579zbf78p2zlhkdfr0000gn/T//ccygG6jq.s 			page 202


 10858 04db 0200     		.2byte	0x2
 10859 04dd 30       		.byte	0x30
 10860 04de 9F       		.byte	0x9f
 10861 04df 920F0000 		.4byte	.LVL349
 10862 04e3 BC0F0000 		.4byte	.LVL353
 10863 04e7 0100     		.2byte	0x1
 10864 04e9 54       		.byte	0x54
 10865 04ea C60F0000 		.4byte	.LVL355
 10866 04ee 00110000 		.4byte	.LFE257
 10867 04f2 0100     		.2byte	0x1
 10868 04f4 54       		.byte	0x54
 10869 04f5 00000000 		.4byte	0
 10870 04f9 00000000 		.4byte	0
 10871              	.LLST33:
 10872 04fd 00000000 		.4byte	.LVL358
 10873 0501 0C000000 		.4byte	.LVL359
 10874 0505 0100     		.2byte	0x1
 10875 0507 50       		.byte	0x50
 10876 0508 0C000000 		.4byte	.LVL359
 10877 050c 20000000 		.4byte	.LVL360
 10878 0510 0300     		.2byte	0x3
 10879 0512 76       		.byte	0x76
 10880 0513 70       		.sleb128 -16
 10881 0514 9F       		.byte	0x9f
 10882 0515 20000000 		.4byte	.LVL360
 10883 0519 24000000 		.4byte	.LVL361
 10884 051d 0300     		.2byte	0x3
 10885 051f 76       		.byte	0x76
 10886 0520 60       		.sleb128 -32
 10887 0521 9F       		.byte	0x9f
 10888 0522 24000000 		.4byte	.LVL361
 10889 0526 3A000000 		.4byte	.LVL362
 10890 052a 0300     		.2byte	0x3
 10891 052c 76       		.byte	0x76
 10892 052d 50       		.sleb128 -48
 10893 052e 9F       		.byte	0x9f
 10894 052f 3A000000 		.4byte	.LVL362
 10895 0533 44000000 		.4byte	.LFE258
 10896 0537 0400     		.2byte	0x4
 10897 0539 F3       		.byte	0xf3
 10898 053a 01       		.uleb128 0x1
 10899 053b 50       		.byte	0x50
 10900 053c 9F       		.byte	0x9f
 10901 053d 00000000 		.4byte	0
 10902 0541 00000000 		.4byte	0
 10903              	.LLST34:
 10904 0545 00000000 		.4byte	.LVL363
 10905 0549 1E000000 		.4byte	.LVL365
 10906 054d 0100     		.2byte	0x1
 10907 054f 50       		.byte	0x50
 10908 0550 1E000000 		.4byte	.LVL365
 10909 0554 9C000000 		.4byte	.LFE259
 10910 0558 0100     		.2byte	0x1
 10911 055a 54       		.byte	0x54
 10912 055b 00000000 		.4byte	0
 10913 055f 00000000 		.4byte	0
 10914              	.LLST35:
ARM GAS  /var/folders/sv/kgmgr77579zbf78p2zlhkdfr0000gn/T//ccygG6jq.s 			page 203


 10915 0563 00000000 		.4byte	.LVL363
 10916 0567 2A000000 		.4byte	.LVL366
 10917 056b 0100     		.2byte	0x1
 10918 056d 51       		.byte	0x51
 10919 056e 2A000000 		.4byte	.LVL366
 10920 0572 8C000000 		.4byte	.LVL374
 10921 0576 0100     		.2byte	0x1
 10922 0578 5B       		.byte	0x5b
 10923 0579 8C000000 		.4byte	.LVL374
 10924 057d 9C000000 		.4byte	.LFE259
 10925 0581 0100     		.2byte	0x1
 10926 0583 51       		.byte	0x51
 10927 0584 00000000 		.4byte	0
 10928 0588 00000000 		.4byte	0
 10929              	.LLST36:
 10930 058c 00000000 		.4byte	.LVL363
 10931 0590 2A000000 		.4byte	.LVL366
 10932 0594 0100     		.2byte	0x1
 10933 0596 52       		.byte	0x52
 10934 0597 2A000000 		.4byte	.LVL366
 10935 059b 8C000000 		.4byte	.LVL374
 10936 059f 0100     		.2byte	0x1
 10937 05a1 5A       		.byte	0x5a
 10938 05a2 8C000000 		.4byte	.LVL374
 10939 05a6 9C000000 		.4byte	.LFE259
 10940 05aa 0100     		.2byte	0x1
 10941 05ac 52       		.byte	0x52
 10942 05ad 00000000 		.4byte	0
 10943 05b1 00000000 		.4byte	0
 10944              	.LLST37:
 10945 05b5 00000000 		.4byte	.LVL363
 10946 05b9 2A000000 		.4byte	.LVL366
 10947 05bd 0100     		.2byte	0x1
 10948 05bf 53       		.byte	0x53
 10949 05c0 2A000000 		.4byte	.LVL366
 10950 05c4 8C000000 		.4byte	.LVL374
 10951 05c8 0200     		.2byte	0x2
 10952 05ca 91       		.byte	0x91
 10953 05cb 54       		.sleb128 -44
 10954 05cc 8C000000 		.4byte	.LVL374
 10955 05d0 9C000000 		.4byte	.LFE259
 10956 05d4 0100     		.2byte	0x1
 10957 05d6 53       		.byte	0x53
 10958 05d7 00000000 		.4byte	0
 10959 05db 00000000 		.4byte	0
 10960              	.LLST38:
 10961 05df 0E000000 		.4byte	.LVL364
 10962 05e3 44000000 		.4byte	.LVL370
 10963 05e7 0100     		.2byte	0x1
 10964 05e9 56       		.byte	0x56
 10965 05ea 44000000 		.4byte	.LVL370
 10966 05ee 5E000000 		.4byte	.LVL371
 10967 05f2 0100     		.2byte	0x1
 10968 05f4 59       		.byte	0x59
 10969 05f5 5E000000 		.4byte	.LVL371
 10970 05f9 64000000 		.4byte	.LVL372
 10971 05fd 0100     		.2byte	0x1
ARM GAS  /var/folders/sv/kgmgr77579zbf78p2zlhkdfr0000gn/T//ccygG6jq.s 			page 204


 10972 05ff 56       		.byte	0x56
 10973 0600 64000000 		.4byte	.LVL372
 10974 0604 8C000000 		.4byte	.LVL374
 10975 0608 0300     		.2byte	0x3
 10976 060a 76       		.byte	0x76
 10977 060b 7F       		.sleb128 -1
 10978 060c 9F       		.byte	0x9f
 10979 060d 8C000000 		.4byte	.LVL374
 10980 0611 9C000000 		.4byte	.LFE259
 10981 0615 0100     		.2byte	0x1
 10982 0617 56       		.byte	0x56
 10983 0618 00000000 		.4byte	0
 10984 061c 00000000 		.4byte	0
 10985              	.LLST39:
 10986 0620 0E000000 		.4byte	.LVL364
 10987 0624 2A000000 		.4byte	.LVL366
 10988 0628 0200     		.2byte	0x2
 10989 062a 30       		.byte	0x30
 10990 062b 9F       		.byte	0x9f
 10991 062c 2A000000 		.4byte	.LVL366
 10992 0630 44000000 		.4byte	.LVL370
 10993 0634 0100     		.2byte	0x1
 10994 0636 59       		.byte	0x59
 10995 0637 8C000000 		.4byte	.LVL374
 10996 063b 9C000000 		.4byte	.LFE259
 10997 063f 0200     		.2byte	0x2
 10998 0641 30       		.byte	0x30
 10999 0642 9F       		.byte	0x9f
 11000 0643 00000000 		.4byte	0
 11001 0647 00000000 		.4byte	0
 11002              		.section	.debug_aranges,"",%progbits
 11003 0000 2C000000 		.4byte	0x2c
 11004 0004 0200     		.2byte	0x2
 11005 0006 00000000 		.4byte	.Ldebug_info0
 11006 000a 04       		.byte	0x4
 11007 000b 00       		.byte	0
 11008 000c 0000     		.2byte	0
 11009 000e 0000     		.2byte	0
 11010 0010 00000000 		.4byte	.LFB257
 11011 0014 00110000 		.4byte	.LFE257-.LFB257
 11012 0018 00000000 		.4byte	.LFB258
 11013 001c 44000000 		.4byte	.LFE258-.LFB258
 11014 0020 00000000 		.4byte	.LFB259
 11015 0024 9C000000 		.4byte	.LFE259-.LFB259
 11016 0028 00000000 		.4byte	0
 11017 002c 00000000 		.4byte	0
 11018              		.section	.debug_ranges,"",%progbits
 11019              	.Ldebug_ranges0:
 11020 0000 E2040000 		.4byte	.LBB72
 11021 0004 68050000 		.4byte	.LBE72
 11022 0008 E4060000 		.4byte	.LBB79
 11023 000c 32070000 		.4byte	.LBE79
 11024 0010 D2070000 		.4byte	.LBB82
 11025 0014 0E080000 		.4byte	.LBE82
 11026 0018 16080000 		.4byte	.LBB84
 11027 001c 22080000 		.4byte	.LBE84
 11028 0020 00000000 		.4byte	0
ARM GAS  /var/folders/sv/kgmgr77579zbf78p2zlhkdfr0000gn/T//ccygG6jq.s 			page 205


 11029 0024 00000000 		.4byte	0
 11030 0028 E4060000 		.4byte	.LBB73
 11031 002c 32070000 		.4byte	.LBE73
 11032 0030 D2070000 		.4byte	.LBB74
 11033 0034 0E080000 		.4byte	.LBE74
 11034 0038 16080000 		.4byte	.LBB75
 11035 003c 20080000 		.4byte	.LBE75
 11036 0040 00000000 		.4byte	0
 11037 0044 00000000 		.4byte	0
 11038 0048 68050000 		.4byte	.LBB76
 11039 004c 70050000 		.4byte	.LBE76
 11040 0050 8C0C0000 		.4byte	.LBB114
 11041 0054 CE0C0000 		.4byte	.LBE114
 11042 0058 00000000 		.4byte	0
 11043 005c 00000000 		.4byte	0
 11044 0060 32070000 		.4byte	.LBB80
 11045 0064 D2070000 		.4byte	.LBE80
 11046 0068 0E080000 		.4byte	.LBB83
 11047 006c 16080000 		.4byte	.LBE83
 11048 0070 00000000 		.4byte	0
 11049 0074 00000000 		.4byte	0
 11050 0078 24080000 		.4byte	.LBB85
 11051 007c 2E080000 		.4byte	.LBE85
 11052 0080 32080000 		.4byte	.LBB101
 11053 0084 D6080000 		.4byte	.LBE101
 11054 0088 00000000 		.4byte	0
 11055 008c 00000000 		.4byte	0
 11056 0090 24080000 		.4byte	.LBB86
 11057 0094 2E080000 		.4byte	.LBE86
 11058 0098 3C080000 		.4byte	.LBB99
 11059 009c 4C080000 		.4byte	.LBE99
 11060 00a0 50080000 		.4byte	.LBB100
 11061 00a4 D6080000 		.4byte	.LBE100
 11062 00a8 00000000 		.4byte	0
 11063 00ac 00000000 		.4byte	0
 11064 00b0 24080000 		.4byte	.LBB87
 11065 00b4 26080000 		.4byte	.LBE87
 11066 00b8 52080000 		.4byte	.LBB94
 11067 00bc 54080000 		.4byte	.LBE94
 11068 00c0 00000000 		.4byte	0
 11069 00c4 00000000 		.4byte	0
 11070 00c8 24080000 		.4byte	.LBB89
 11071 00cc 26080000 		.4byte	.LBE89
 11072 00d0 52080000 		.4byte	.LBB92
 11073 00d4 54080000 		.4byte	.LBE92
 11074 00d8 00000000 		.4byte	0
 11075 00dc 00000000 		.4byte	0
 11076 00e0 8E0A0000 		.4byte	.LBB106
 11077 00e4 A00A0000 		.4byte	.LBE106
 11078 00e8 C40A0000 		.4byte	.LBB112
 11079 00ec B60B0000 		.4byte	.LBE112
 11080 00f0 00000000 		.4byte	0
 11081 00f4 00000000 		.4byte	0
 11082 00f8 8E0A0000 		.4byte	.LBB107
 11083 00fc 9C0A0000 		.4byte	.LBE107
 11084 0100 E40A0000 		.4byte	.LBB111
 11085 0104 B60B0000 		.4byte	.LBE111
ARM GAS  /var/folders/sv/kgmgr77579zbf78p2zlhkdfr0000gn/T//ccygG6jq.s 			page 206


 11086 0108 00000000 		.4byte	0
 11087 010c 00000000 		.4byte	0
 11088 0110 E60A0000 		.4byte	.LBB108
 11089 0114 EA0A0000 		.4byte	.LBE108
 11090 0118 1C0B0000 		.4byte	.LBB109
 11091 011c 560B0000 		.4byte	.LBE109
 11092 0120 00000000 		.4byte	0
 11093 0124 00000000 		.4byte	0
 11094 0128 DE0C0000 		.4byte	.LBB115
 11095 012c 180D0000 		.4byte	.LBE115
 11096 0130 2E0E0000 		.4byte	.LBB118
 11097 0134 3C0E0000 		.4byte	.LBE118
 11098 0138 00000000 		.4byte	0
 11099 013c 00000000 		.4byte	0
 11100 0140 DE0C0000 		.4byte	.LBB116
 11101 0144 0C0D0000 		.4byte	.LBE116
 11102 0148 2E0E0000 		.4byte	.LBB117
 11103 014c 3C0E0000 		.4byte	.LBE117
 11104 0150 00000000 		.4byte	0
 11105 0154 00000000 		.4byte	0
 11106 0158 3E0E0000 		.4byte	.LBB119
 11107 015c 400E0000 		.4byte	.LBE119
 11108 0160 880F0000 		.4byte	.LBB120
 11109 0164 BC0F0000 		.4byte	.LBE120
 11110 0168 C60F0000 		.4byte	.LBB121
 11111 016c 00110000 		.4byte	.LBE121
 11112 0170 00000000 		.4byte	0
 11113 0174 00000000 		.4byte	0
 11114 0178 08000000 		.4byte	.LBB122
 11115 017c 0A000000 		.4byte	.LBE122
 11116 0180 10000000 		.4byte	.LBB123
 11117 0184 12000000 		.4byte	.LBE123
 11118 0188 1A000000 		.4byte	.LBB124
 11119 018c 44000000 		.4byte	.LBE124
 11120 0190 8C000000 		.4byte	.LBB125
 11121 0194 9C000000 		.4byte	.LBE125
 11122 0198 00000000 		.4byte	0
 11123 019c 00000000 		.4byte	0
 11124 01a0 00000000 		.4byte	.LFB257
 11125 01a4 00110000 		.4byte	.LFE257
 11126 01a8 00000000 		.4byte	.LFB258
 11127 01ac 44000000 		.4byte	.LFE258
 11128 01b0 00000000 		.4byte	.LFB259
 11129 01b4 9C000000 		.4byte	.LFE259
 11130 01b8 00000000 		.4byte	0
 11131 01bc 00000000 		.4byte	0
 11132              		.section	.debug_line,"",%progbits
 11133              	.Ldebug_line0:
 11134 0000 A7070000 		.section	.debug_str,"MS",%progbits,1
 11134      0200A103 
 11134      00000201 
 11134      FB0E0D00 
 11134      01010101 
 11135              	.LASF11:
 11136 0000 6C6F6E67 		.ascii	"long int\000"
 11136      20696E74 
 11136      00
ARM GAS  /var/folders/sv/kgmgr77579zbf78p2zlhkdfr0000gn/T//ccygG6jq.s 			page 207


 11137              	.LASF57:
 11138 0009 74687265 		.ascii	"threads_queue_t\000"
 11138      6164735F 
 11138      71756575 
 11138      655F7400 
 11139              	.LASF308:
 11140 0019 766F6C74 		.ascii	"voltage_samp\000"
 11140      6167655F 
 11140      73616D70 
 11140      00
 11141              	.LASF327:
 11142 0026 72706D5F 		.ascii	"rpm_avg\000"
 11142      61766700 
 11143              	.LASF220:
 11144 002e 666F635F 		.ascii	"foc_observer_gain_slow\000"
 11144      6F627365 
 11144      72766572 
 11144      5F676169 
 11144      6E5F736C 
 11145              	.LASF111:
 11146 0045 77746D74 		.ascii	"wtmtxp\000"
 11146      787000
 11147              	.LASF380:
 11148 004c 6D635F69 		.ascii	"mc_interface_get_tachometer_value\000"
 11148      6E746572 
 11148      66616365 
 11148      5F676574 
 11148      5F746163 
 11149              	.LASF137:
 11150 006e 4D4F544F 		.ascii	"MOTOR_TYPE_BLDC\000"
 11150      525F5459 
 11150      50455F42 
 11150      4C444300 
 11151              	.LASF105:
 11152 007e 746D5F63 		.ascii	"tm_calibration_t\000"
 11152      616C6962 
 11152      72617469 
 11152      6F6E5F74 
 11152      00
 11153              	.LASF45:
 11154 008f 705F7469 		.ascii	"p_time\000"
 11154      6D6500
 11155              	.LASF120:
 11156 0096 63686172 		.ascii	"char\000"
 11156      00
 11157              	.LASF100:
 11158 009b 72656761 		.ascii	"regarm_t\000"
 11158      726D5F74 
 11158      00
 11159              	.LASF265:
 11160 00a4 6661756C 		.ascii	"fault\000"
 11160      7400
 11161              	.LASF36:
 11162 00aa 705F7072 		.ascii	"p_prio\000"
 11162      696F00
 11163              	.LASF276:
 11164 00b1 74656D70 		.ascii	"temperature\000"
ARM GAS  /var/folders/sv/kgmgr77579zbf78p2zlhkdfr0000gn/T//ccygG6jq.s 			page 208


 11164      65726174 
 11164      75726500 
 11165              	.LASF357:
 11166 00bd 656E636F 		.ascii	"encoder_is_configured\000"
 11166      6465725F 
 11166      69735F63 
 11166      6F6E6669 
 11166      67757265 
 11167              	.LASF261:
 11168 00d3 6D5F6463 		.ascii	"m_dc_f_sw\000"
 11168      5F665F73 
 11168      7700
 11169              	.LASF197:
 11170 00dd 6C6F5F69 		.ascii	"lo_in_current_min\000"
 11170      6E5F6375 
 11170      7272656E 
 11170      745F6D69 
 11170      6E00
 11171              	.LASF272:
 11172 00ef 74696D5F 		.ascii	"tim_val_samp\000"
 11172      76616C5F 
 11172      73616D70 
 11172      00
 11173              	.LASF258:
 11174 00fc 6D5F6472 		.ascii	"m_drv8301_oc_adj\000"
 11174      76383330 
 11174      315F6F63 
 11174      5F61646A 
 11174      00
 11175              	.LASF153:
 11176 010d 6379636C 		.ascii	"cycle_int_limit\000"
 11176      655F696E 
 11176      745F6C69 
 11176      6D697400 
 11177              	.LASF32:
 11178 011d 73797374 		.ascii	"systime_t\000"
 11178      696D655F 
 11178      7400
 11179              	.LASF156:
 11180 0127 636F6D6D 		.ascii	"comm_time_sum\000"
 11180      5F74696D 
 11180      655F7375 
 11180      6D00
 11181              	.LASF348:
 11182 0135 63685265 		.ascii	"chRegNextThread\000"
 11182      674E6578 
 11182      74546872 
 11182      65616400 
 11183              	.LASF118:
 11184 0145 6D5F6F77 		.ascii	"m_owner\000"
 11184      6E657200 
 11185              	.LASF114:
 11186 014d 735F7175 		.ascii	"s_queue\000"
 11186      65756500 
 11187              	.LASF77:
 11188 0155 76745F73 		.ascii	"vt_systime\000"
 11188      79737469 
ARM GAS  /var/folders/sv/kgmgr77579zbf78p2zlhkdfr0000gn/T//ccygG6jq.s 			page 209


 11188      6D6500
 11189              	.LASF47:
 11190 0160 705F6D73 		.ascii	"p_msgqueue\000"
 11190      67717565 
 11190      756500
 11191              	.LASF204:
 11192 016b 736C5F70 		.ascii	"sl_phase_advance_at_br\000"
 11192      68617365 
 11192      5F616476 
 11192      616E6365 
 11192      5F61745F 
 11193              	.LASF1:
 11194 0182 756E7369 		.ascii	"unsigned int\000"
 11194      676E6564 
 11194      20696E74 
 11194      00
 11195              	.LASF256:
 11196 018f 6D5F696E 		.ascii	"m_invert_direction\000"
 11196      76657274 
 11196      5F646972 
 11196      65637469 
 11196      6F6E00
 11197              	.LASF159:
 11198 01a2 74696D65 		.ascii	"time_at_comm\000"
 11198      5F61745F 
 11198      636F6D6D 
 11198      00
 11199              	.LASF219:
 11200 01af 666F635F 		.ascii	"foc_observer_gain\000"
 11200      6F627365 
 11200      72766572 
 11200      5F676169 
 11200      6E00
 11201              	.LASF21:
 11202 01c1 75696E74 		.ascii	"uint32_t\000"
 11202      33325F74 
 11202      00
 11203              	.LASF242:
 11204 01ca 735F7069 		.ascii	"s_pid_allow_braking\000"
 11204      645F616C 
 11204      6C6F775F 
 11204      6272616B 
 11204      696E6700 
 11205              	.LASF54:
 11206 01de 74687265 		.ascii	"threads_list_t\000"
 11206      6164735F 
 11206      6C697374 
 11206      5F7400
 11207              	.LASF163:
 11208 01ed 44525638 		.ascii	"DRV8301_OC_REPORT_ONLY\000"
 11208      3330315F 
 11208      4F435F52 
 11208      45504F52 
 11208      545F4F4E 
 11209              	.LASF169:
 11210 0204 73656E73 		.ascii	"sensor_mode\000"
 11210      6F725F6D 
ARM GAS  /var/folders/sv/kgmgr77579zbf78p2zlhkdfr0000gn/T//ccygG6jq.s 			page 210


 11210      6F646500 
 11211              	.LASF46:
 11212 0210 705F7761 		.ascii	"p_waiting\000"
 11212      6974696E 
 11212      6700
 11213              	.LASF135:
 11214 021a 464F435F 		.ascii	"FOC_SENSOR_MODE_HALL\000"
 11214      53454E53 
 11214      4F525F4D 
 11214      4F44455F 
 11214      48414C4C 
 11215              	.LASF180:
 11216 022f 6C5F6D69 		.ascii	"l_min_vin\000"
 11216      6E5F7669 
 11216      6E00
 11217              	.LASF10:
 11218 0239 5F5F696E 		.ascii	"__int32_t\000"
 11218      7433325F 
 11218      7400
 11219              	.LASF317:
 11220 0243 72706D5F 		.ascii	"rpm_dep\000"
 11220      64657000 
 11221              	.LASF301:
 11222 024b 74315F63 		.ascii	"t1_cnt\000"
 11222      6E7400
 11223              	.LASF123:
 11224 0252 50574D5F 		.ascii	"PWM_MODE_SYNCHRONOUS\000"
 11224      4D4F4445 
 11224      5F53594E 
 11224      4348524F 
 11224      4E4F5553 
 11225              	.LASF224:
 11226 0267 666F635F 		.ascii	"foc_duty_dowmramp_ki\000"
 11226      64757479 
 11226      5F646F77 
 11226      6D72616D 
 11226      705F6B69 
 11227              	.LASF191:
 11228 027c 6C5F6D61 		.ascii	"l_max_duty\000"
 11228      785F6475 
 11228      747900
 11229              	.LASF378:
 11230 0287 6D635F69 		.ascii	"mc_interface_get_last_sample_adc_isr_duration\000"
 11230      6E746572 
 11230      66616365 
 11230      5F676574 
 11230      5F6C6173 
 11231              	.LASF223:
 11232 02b5 666F635F 		.ascii	"foc_duty_dowmramp_kp\000"
 11232      64757479 
 11232      5F646F77 
 11232      6D72616D 
 11232      705F6B70 
 11233              	.LASF108:
 11234 02ca 77746F62 		.ascii	"wtobjp\000"
 11234      6A7000
 11235              	.LASF288:
ARM GAS  /var/folders/sv/kgmgr77579zbf78p2zlhkdfr0000gn/T//ccygG6jq.s 			page 211


 11236 02d1 706F7274 		.ascii	"port_lock\000"
 11236      5F6C6F63 
 11236      6B00
 11237              	.LASF84:
 11238 02db 76746C69 		.ascii	"vtlist\000"
 11238      737400
 11239              	.LASF7:
 11240 02e2 73686F72 		.ascii	"short int\000"
 11240      7420696E 
 11240      7400
 11241              	.LASF154:
 11242 02ec 6379636C 		.ascii	"cycle_int_limit_running\000"
 11242      655F696E 
 11242      745F6C69 
 11242      6D69745F 
 11242      72756E6E 
 11243              	.LASF60:
 11244 0304 63685F72 		.ascii	"ch_ready_list\000"
 11244      65616479 
 11244      5F6C6973 
 11244      7400
 11245              	.LASF86:
 11246 0312 69646C65 		.ascii	"idle_thread_wa\000"
 11246      5F746872 
 11246      6561645F 
 11246      776100
 11247              	.LASF196:
 11248 0321 6C6F5F69 		.ascii	"lo_in_current_max\000"
 11248      6E5F6375 
 11248      7272656E 
 11248      745F6D61 
 11248      7800
 11249              	.LASF386:
 11250 0333 63685654 		.ascii	"chVTTimeElapsedSinceX\000"
 11250      54696D65 
 11250      456C6170 
 11250      73656453 
 11250      696E6365 
 11251              	.LASF367:
 11252 0349 74696D65 		.ascii	"timeout_get_brake_current\000"
 11252      6F75745F 
 11252      6765745F 
 11252      6272616B 
 11252      655F6375 
 11253              	.LASF112:
 11254 0363 65776D61 		.ascii	"ewmask\000"
 11254      736B00
 11255              	.LASF177:
 11256 036a 6C5F6572 		.ascii	"l_erpm_start\000"
 11256      706D5F73 
 11256      74617274 
 11256      00
 11257              	.LASF173:
 11258 0377 6C5F696E 		.ascii	"l_in_current_min\000"
 11258      5F637572 
 11258      72656E74 
 11258      5F6D696E 
ARM GAS  /var/folders/sv/kgmgr77579zbf78p2zlhkdfr0000gn/T//ccygG6jq.s 			page 212


 11258      00
 11259              	.LASF273:
 11260 0388 74696D5F 		.ascii	"tim_current_samp\000"
 11260      63757272 
 11260      656E745F 
 11260      73616D70 
 11260      00
 11261              	.LASF257:
 11262 0399 6D5F6472 		.ascii	"m_drv8301_oc_mode\000"
 11262      76383330 
 11262      315F6F63 
 11262      5F6D6F64 
 11262      6500
 11263              	.LASF98:
 11264 03ab 444D4152 		.ascii	"DMAR\000"
 11264      00
 11265              	.LASF67:
 11266 03b0 76746675 		.ascii	"vtfunc_t\000"
 11266      6E635F74 
 11266      00
 11267              	.LASF331:
 11268 03b9 666F756E 		.ascii	"found\000"
 11268      6400
 11269              	.LASF146:
 11270 03bf 4641554C 		.ascii	"FAULT_CODE_OVER_TEMP_FET\000"
 11270      545F434F 
 11270      44455F4F 
 11270      5645525F 
 11270      54454D50 
 11271              	.LASF79:
 11272 03d8 63685F73 		.ascii	"ch_system_debug\000"
 11272      79737465 
 11272      6D5F6465 
 11272      62756700 
 11273              	.LASF115:
 11274 03e8 735F636E 		.ascii	"s_cnt\000"
 11274      7400
 11275              	.LASF184:
 11276 03ee 6C5F736C 		.ascii	"l_slow_abs_current\000"
 11276      6F775F61 
 11276      62735F63 
 11276      75727265 
 11276      6E7400
 11277              	.LASF128:
 11278 0401 6D635F63 		.ascii	"mc_comm_mode\000"
 11278      6F6D6D5F 
 11278      6D6F6465 
 11278      00
 11279              	.LASF227:
 11280 040e 666F635F 		.ascii	"foc_sl_openloop_time\000"
 11280      736C5F6F 
 11280      70656E6C 
 11280      6F6F705F 
 11280      74696D65 
 11281              	.LASF345:
 11282 0423 6368436F 		.ascii	"chCoreGetStatusX\000"
 11282      72654765 
ARM GAS  /var/folders/sv/kgmgr77579zbf78p2zlhkdfr0000gn/T//ccygG6jq.s 			page 213


 11282      74537461 
 11282      74757358 
 11282      00
 11283              	.LASF210:
 11284 0434 666F635F 		.ascii	"foc_current_ki\000"
 11284      63757272 
 11284      656E745F 
 11284      6B6900
 11285              	.LASF99:
 11286 0443 54494D5F 		.ascii	"TIM_TypeDef\000"
 11286      54797065 
 11286      44656600 
 11287              	.LASF252:
 11288 044f 6D5F6475 		.ascii	"m_duty_ramp_step\000"
 11288      74795F72 
 11288      616D705F 
 11288      73746570 
 11288      00
 11289              	.LASF209:
 11290 0460 666F635F 		.ascii	"foc_current_kp\000"
 11290      63757272 
 11290      656E745F 
 11290      6B7000
 11291              	.LASF278:
 11292 046f 6661756C 		.ascii	"fault_data\000"
 11292      745F6461 
 11292      746100
 11293              	.LASF125:
 11294 047a 6D635F70 		.ascii	"mc_pwm_mode\000"
 11294      776D5F6D 
 11294      6F646500 
 11295              	.LASF17:
 11296 0486 696E7438 		.ascii	"int8_t\000"
 11296      5F7400
 11297              	.LASF342:
 11298 048d 636F6E66 		.ascii	"conf_general_permanent_nrf_found\000"
 11298      5F67656E 
 11298      6572616C 
 11298      5F706572 
 11298      6D616E65 
 11299              	.LASF324:
 11300 04ae 746F7574 		.ascii	"tout\000"
 11300      00
 11301              	.LASF62:
 11302 04b3 725F7072 		.ascii	"r_prio\000"
 11302      696F00
 11303              	.LASF97:
 11304 04ba 42445452 		.ascii	"BDTR\000"
 11304      00
 11305              	.LASF147:
 11306 04bf 4641554C 		.ascii	"FAULT_CODE_OVER_TEMP_MOTOR\000"
 11306      545F434F 
 11306      44455F4F 
 11306      5645525F 
 11306      54454D50 
 11307              	.LASF74:
 11308 04da 76745F70 		.ascii	"vt_par\000"
ARM GAS  /var/folders/sv/kgmgr77579zbf78p2zlhkdfr0000gn/T//ccygG6jq.s 			page 214


 11308      617200
 11309              	.LASF336:
 11310 04e1 63616C6C 		.ascii	"callback_num\000"
 11310      6261636B 
 11310      5F6E756D 
 11310      00
 11311              	.LASF182:
 11312 04ee 6C5F6261 		.ascii	"l_battery_cut_start\000"
 11312      74746572 
 11312      795F6375 
 11312      745F7374 
 11312      61727400 
 11313              	.LASF0:
 11314 0502 666C6F61 		.ascii	"float\000"
 11314      7400
 11315              	.LASF361:
 11316 0508 6D635F69 		.ascii	"mc_interface_set_duty\000"
 11316      6E746572 
 11316      66616365 
 11316      5F736574 
 11316      5F647574 
 11317              	.LASF113:
 11318 051e 63685F73 		.ascii	"ch_semaphore\000"
 11318      656D6170 
 11318      686F7265 
 11318      00
 11319              	.LASF28:
 11320 052b 74707269 		.ascii	"tprio_t\000"
 11320      6F5F7400 
 11321              	.LASF93:
 11322 0533 43435231 		.ascii	"CCR1\000"
 11322      00
 11323              	.LASF94:
 11324 0538 43435232 		.ascii	"CCR2\000"
 11324      00
 11325              	.LASF95:
 11326 053d 43435233 		.ascii	"CCR3\000"
 11326      00
 11327              	.LASF96:
 11328 0542 43435234 		.ascii	"CCR4\000"
 11328      00
 11329              	.LASF69:
 11330 0547 63685F76 		.ascii	"ch_virtual_timer\000"
 11330      69727475 
 11330      616C5F74 
 11330      696D6572 
 11330      00
 11331              	.LASF90:
 11332 0558 43434D52 		.ascii	"CCMR1\000"
 11332      3100
 11333              	.LASF91:
 11334 055e 43434D52 		.ascii	"CCMR2\000"
 11334      3200
 11335              	.LASF206:
 11336 0564 736C5F62 		.ascii	"sl_bemf_coupling_k\000"
 11336      656D665F 
 11336      636F7570 
ARM GAS  /var/folders/sv/kgmgr77579zbf78p2zlhkdfr0000gn/T//ccygG6jq.s 			page 215


 11336      6C696E67 
 11336      5F6B00
 11337              	.LASF207:
 11338 0577 68616C6C 		.ascii	"hall_table\000"
 11338      5F746162 
 11338      6C6500
 11339              	.LASF371:
 11340 0582 6D637077 		.ascii	"mcpwm_foc_measure_res_ind\000"
 11340      6D5F666F 
 11340      635F6D65 
 11340      61737572 
 11340      655F7265 
 11341              	.LASF16:
 11342 059c 6C6F6E67 		.ascii	"long long unsigned int\000"
 11342      206C6F6E 
 11342      6720756E 
 11342      7369676E 
 11342      65642069 
 11343              	.LASF260:
 11344 05b3 6D5F626C 		.ascii	"m_bldc_f_sw_max\000"
 11344      64635F66 
 11344      5F73775F 
 11344      6D617800 
 11345              	.LASF104:
 11346 05c3 6F666673 		.ascii	"offset\000"
 11346      657400
 11347              	.LASF226:
 11348 05ca 666F635F 		.ascii	"foc_sl_openloop_hyst\000"
 11348      736C5F6F 
 11348      70656E6C 
 11348      6F6F705F 
 11348      68797374 
 11349              	.LASF359:
 11350 05df 6D637077 		.ascii	"mcpwm_foc_measure_inductance\000"
 11350      6D5F666F 
 11350      635F6D65 
 11350      61737572 
 11350      655F696E 
 11351              	.LASF168:
 11352 05fc 6D6F746F 		.ascii	"motor_type\000"
 11352      725F7479 
 11352      706500
 11353              	.LASF338:
 11354 0607 6661756C 		.ascii	"fault_vec_write\000"
 11354      745F7665 
 11354      635F7772 
 11354      69746500 
 11355              	.LASF381:
 11356 0617 6D637077 		.ascii	"mcpwm_foc_print_state\000"
 11356      6D5F666F 
 11356      635F7072 
 11356      696E745F 
 11356      73746174 
 11357              	.LASF271:
 11358 062d 6379636C 		.ascii	"cycles_running\000"
 11358      65735F72 
 11358      756E6E69 
ARM GAS  /var/folders/sv/kgmgr77579zbf78p2zlhkdfr0000gn/T//ccygG6jq.s 			page 216


 11358      6E6700
 11359              	.LASF8:
 11360 063c 5F5F7569 		.ascii	"__uint16_t\000"
 11360      6E743136 
 11360      5F7400
 11361              	.LASF31:
 11362 0647 636E745F 		.ascii	"cnt_t\000"
 11362      7400
 11363              	.LASF56:
 11364 064d 63685F74 		.ascii	"ch_threads_list\000"
 11364      68726561 
 11364      64735F6C 
 11364      69737400 
 11365              	.LASF171:
 11366 065d 6C5F6375 		.ascii	"l_current_min\000"
 11366      7272656E 
 11366      745F6D69 
 11366      6E00
 11367              	.LASF200:
 11368 066b 736C5F6D 		.ascii	"sl_min_erpm\000"
 11368      696E5F65 
 11368      72706D00 
 11369              	.LASF375:
 11370 0677 6D637077 		.ascii	"mcpwm_get_kv_filtered\000"
 11370      6D5F6765 
 11370      745F6B76 
 11370      5F66696C 
 11370      74657265 
 11371              	.LASF291:
 11372 068d 63685379 		.ascii	"chSysUnlock\000"
 11372      73556E6C 
 11372      6F636B00 
 11373              	.LASF138:
 11374 0699 4D4F544F 		.ascii	"MOTOR_TYPE_DC\000"
 11374      525F5459 
 11374      50455F44 
 11374      4300
 11375              	.LASF312:
 11376 06a7 6C6F775F 		.ascii	"low_duty\000"
 11376      64757479 
 11376      00
 11377              	.LASF337:
 11378 06b0 6661756C 		.ascii	"fault_vec\000"
 11378      745F7665 
 11378      6300
 11379              	.LASF38:
 11380 06ba 705F6E65 		.ascii	"p_newer\000"
 11380      77657200 
 11381              	.LASF293:
 11382 06c2 76616C75 		.ascii	"value\000"
 11382      6500
 11383              	.LASF76:
 11384 06c8 63685F76 		.ascii	"ch_virtual_timers_list\000"
 11384      69727475 
 11384      616C5F74 
 11384      696D6572 
 11384      735F6C69 
ARM GAS  /var/folders/sv/kgmgr77579zbf78p2zlhkdfr0000gn/T//ccygG6jq.s 			page 217


 11385              	.LASF124:
 11386 06df 50574D5F 		.ascii	"PWM_MODE_BIPOLAR\000"
 11386      4D4F4445 
 11386      5F424950 
 11386      4F4C4152 
 11386      00
 11387              	.LASF277:
 11388 06f0 64727638 		.ascii	"drv8301_faults\000"
 11388      3330315F 
 11388      6661756C 
 11388      747300
 11389              	.LASF33:
 11390 06ff 74687265 		.ascii	"thread_t\000"
 11390      61645F74 
 11390      00
 11391              	.LASF145:
 11392 0708 4641554C 		.ascii	"FAULT_CODE_ABS_OVER_CURRENT\000"
 11392      545F434F 
 11392      44455F41 
 11392      42535F4F 
 11392      5645525F 
 11393              	.LASF313:
 11394 0724 6379636C 		.ascii	"cycle_integrator\000"
 11394      655F696E 
 11394      74656772 
 11394      61746F72 
 11394      00
 11395              	.LASF194:
 11396 0735 6C6F5F63 		.ascii	"lo_current_max\000"
 11396      75727265 
 11396      6E745F6D 
 11396      617800
 11397              	.LASF106:
 11398 0744 7264796D 		.ascii	"rdymsg\000"
 11398      736700
 11399              	.LASF355:
 11400 074b 6D637077 		.ascii	"mcpwm_get_rpm_dep\000"
 11400      6D5F6765 
 11400      745F7270 
 11400      6D5F6465 
 11400      7000
 11401              	.LASF208:
 11402 075d 68616C6C 		.ascii	"hall_sl_erpm\000"
 11402      5F736C5F 
 11402      6572706D 
 11402      00
 11403              	.LASF281:
 11404 076a 646F7562 		.ascii	"double\000"
 11404      6C6500
 11405              	.LASF188:
 11406 0771 6C5F7465 		.ascii	"l_temp_motor_end\000"
 11406      6D705F6D 
 11406      6F746F72 
 11406      5F656E64 
 11406      00
 11407              	.LASF305:
 11408 0782 64757479 		.ascii	"duty1\000"
ARM GAS  /var/folders/sv/kgmgr77579zbf78p2zlhkdfr0000gn/T//ccygG6jq.s 			page 218


 11408      3100
 11409              	.LASF306:
 11410 0788 64757479 		.ascii	"duty2\000"
 11410      3200
 11411              	.LASF263:
 11412 078e 5F426F6F 		.ascii	"_Bool\000"
 11412      6C00
 11413              	.LASF307:
 11414 0794 64757479 		.ascii	"duty3\000"
 11414      3300
 11415              	.LASF14:
 11416 079a 6C6F6E67 		.ascii	"long long int\000"
 11416      206C6F6E 
 11416      6720696E 
 11416      7400
 11417              	.LASF382:
 11418 07a8 474E5520 		.ascii	"GNU C99 5.4.1 20160919 (release) [ARM/embedded-5-br"
 11418      43393920 
 11418      352E342E 
 11418      31203230 
 11418      31363039 
 11419 07db 616E6368 		.ascii	"anch revision 240496] -mcpu=cortex-m4 -mfloat-abi=h"
 11419      20726576 
 11419      6973696F 
 11419      6E203234 
 11419      30343936 
 11420 080e 61726420 		.ascii	"ard -mfpu=fpv4-sp-d16 -mno-thumb-interwork -mthumb "
 11420      2D6D6670 
 11420      753D6670 
 11420      76342D73 
 11420      702D6431 
 11421 0841 2D676764 		.ascii	"-ggdb -O2 -std=gnu99 -fomit-frame-pointer -falign-f"
 11421      62202D4F 
 11421      32202D73 
 11421      74643D67 
 11421      6E753939 
 11422 0874 756E6374 		.ascii	"unctions=16 -ffunction-sections -fdata-sections -fn"
 11422      696F6E73 
 11422      3D313620 
 11422      2D666675 
 11422      6E637469 
 11423 08a7 6F2D636F 		.ascii	"o-common -fsingle-precision-constant\000"
 11423      6D6D6F6E 
 11423      202D6673 
 11423      696E676C 
 11423      652D7072 
 11424              	.LASF295:
 11425 08cc 61726763 		.ascii	"argc\000"
 11425      00
 11426              	.LASF255:
 11427 08d1 6D5F7365 		.ascii	"m_sensor_port_mode\000"
 11427      6E736F72 
 11427      5F706F72 
 11427      745F6D6F 
 11427      646500
 11428              	.LASF248:
 11429 08e4 63635F6D 		.ascii	"cc_min_current\000"
ARM GAS  /var/folders/sv/kgmgr77579zbf78p2zlhkdfr0000gn/T//ccygG6jq.s 			page 219


 11429      696E5F63 
 11429      75727265 
 11429      6E7400
 11430              	.LASF341:
 11431 08f3 49544D5F 		.ascii	"ITM_RxBuffer\000"
 11431      52784275 
 11431      66666572 
 11431      00
 11432              	.LASF116:
 11433 0900 63685F6D 		.ascii	"ch_mutex\000"
 11433      75746578 
 11433      00
 11434              	.LASF15:
 11435 0909 5F5F7569 		.ascii	"__uint64_t\000"
 11435      6E743634 
 11435      5F7400
 11436              	.LASF89:
 11437 0914 44494552 		.ascii	"DIER\000"
 11437      00
 11438              	.LASF247:
 11439 0919 63635F73 		.ascii	"cc_startup_boost_duty\000"
 11439      74617274 
 11439      75705F62 
 11439      6F6F7374 
 11439      5F647574 
 11440              	.LASF349:
 11441 092f 6D635F69 		.ascii	"mc_interface_fault_to_string\000"
 11441      6E746572 
 11441      66616365 
 11441      5F666175 
 11441      6C745F74 
 11442              	.LASF230:
 11443 094c 666F635F 		.ascii	"foc_sensor_mode\000"
 11443      73656E73 
 11443      6F725F6D 
 11443      6F646500 
 11444              	.LASF211:
 11445 095c 666F635F 		.ascii	"foc_f_sw\000"
 11445      665F7377 
 11445      00
 11446              	.LASF122:
 11447 0965 50574D5F 		.ascii	"PWM_MODE_NONSYNCHRONOUS_HISW\000"
 11447      4D4F4445 
 11447      5F4E4F4E 
 11447      53594E43 
 11447      48524F4E 
 11448              	.LASF243:
 11449 0982 705F7069 		.ascii	"p_pid_kp\000"
 11449      645F6B70 
 11449      00
 11450              	.LASF183:
 11451 098b 6C5F6261 		.ascii	"l_battery_cut_end\000"
 11451      74746572 
 11451      795F6375 
 11451      745F656E 
 11451      6400
 11452              	.LASF279:
ARM GAS  /var/folders/sv/kgmgr77579zbf78p2zlhkdfr0000gn/T//ccygG6jq.s 			page 220


 11453 099d 72785F74 		.ascii	"rx_time\000"
 11453      696D6500 
 11454              	.LASF292:
 11455 09a5 63685379 		.ascii	"chSysLock\000"
 11455      734C6F63 
 11455      6B00
 11456              	.LASF250:
 11457 09af 63635F72 		.ascii	"cc_ramp_step_max\000"
 11457      616D705F 
 11457      73746570 
 11457      5F6D6178 
 11457      00
 11458              	.LASF127:
 11459 09c0 434F4D4D 		.ascii	"COMM_MODE_DELAY\000"
 11459      5F4D4F44 
 11459      455F4445 
 11459      4C415900 
 11460              	.LASF363:
 11461 09d0 6D637077 		.ascii	"mcpwm_foc_get_vq\000"
 11461      6D5F666F 
 11461      635F6765 
 11461      745F7671 
 11461      00
 11462              	.LASF40:
 11463 09e1 705F6E61 		.ascii	"p_name\000"
 11463      6D6500
 11464              	.LASF269:
 11465 09e8 64757479 		.ascii	"duty\000"
 11465      00
 11466              	.LASF132:
 11467 09ed 6D635F73 		.ascii	"mc_sensor_mode\000"
 11467      656E736F 
 11467      725F6D6F 
 11467      646500
 11468              	.LASF92:
 11469 09fc 43434552 		.ascii	"CCER\000"
 11469      00
 11470              	.LASF300:
 11471 0a01 73746174 		.ascii	"states\000"
 11471      657300
 11472              	.LASF238:
 11473 0a08 735F7069 		.ascii	"s_pid_kp\000"
 11473      645F6B70 
 11473      00
 11474              	.LASF72:
 11475 0a11 76745F64 		.ascii	"vt_delta\000"
 11475      656C7461 
 11475      00
 11476              	.LASF298:
 11477 0a1a 6D63636F 		.ascii	"mcconf_old\000"
 11477      6E665F6F 
 11477      6C6400
 11478              	.LASF42:
 11479 0a25 705F666C 		.ascii	"p_flags\000"
 11479      61677300 
 11480              	.LASF199:
 11481 0a2d 6C6F5F63 		.ascii	"lo_current_motor_min_now\000"
ARM GAS  /var/folders/sv/kgmgr77579zbf78p2zlhkdfr0000gn/T//ccygG6jq.s 			page 221


 11481      75727265 
 11481      6E745F6D 
 11481      6F746F72 
 11481      5F6D696E 
 11482              	.LASF365:
 11483 0a46 6D635F69 		.ascii	"mc_interface_get_tot_current_directional\000"
 11483      6E746572 
 11483      66616365 
 11483      5F676574 
 11483      5F746F74 
 11484              	.LASF64:
 11485 0a6f 725F6E65 		.ascii	"r_newer\000"
 11485      77657200 
 11486              	.LASF160:
 11487 0a77 6D635F72 		.ascii	"mc_rpm_dep_struct\000"
 11487      706D5F64 
 11487      65705F73 
 11487      74727563 
 11487      7400
 11488              	.LASF283:
 11489 0a89 5F746572 		.ascii	"_terminal_callback_struct\000"
 11489      6D696E61 
 11489      6C5F6361 
 11489      6C6C6261 
 11489      636B5F73 
 11490              	.LASF249:
 11491 0aa3 63635F67 		.ascii	"cc_gain\000"
 11491      61696E00 
 11492              	.LASF214:
 11493 0aab 666F635F 		.ascii	"foc_encoder_inverted\000"
 11493      656E636F 
 11493      6465725F 
 11493      696E7665 
 11493      72746564 
 11494              	.LASF370:
 11495 0ac0 6D635F69 		.ascii	"mc_interface_release_motor\000"
 11495      6E746572 
 11495      66616365 
 11495      5F72656C 
 11495      65617365 
 11496              	.LASF172:
 11497 0adb 6C5F696E 		.ascii	"l_in_current_max\000"
 11497      5F637572 
 11497      72656E74 
 11497      5F6D6178 
 11497      00
 11498              	.LASF25:
 11499 0aec 74737461 		.ascii	"tstate_t\000"
 11499      74655F74 
 11499      00
 11500              	.LASF303:
 11501 0af5 64697231 		.ascii	"dir1\000"
 11501      00
 11502              	.LASF142:
 11503 0afa 4641554C 		.ascii	"FAULT_CODE_OVER_VOLTAGE\000"
 11503      545F434F 
 11503      44455F4F 
ARM GAS  /var/folders/sv/kgmgr77579zbf78p2zlhkdfr0000gn/T//ccygG6jq.s 			page 222


 11503      5645525F 
 11503      564F4C54 
 11504              	.LASF264:
 11505 0b12 6D635F63 		.ascii	"mc_configuration\000"
 11505      6F6E6669 
 11505      67757261 
 11505      74696F6E 
 11505      00
 11506              	.LASF334:
 11507 0b23 64617461 		.ascii	"data\000"
 11507      00
 11508              	.LASF304:
 11509 0b28 64697238 		.ascii	"dir8\000"
 11509      00
 11510              	.LASF141:
 11511 0b2d 4641554C 		.ascii	"FAULT_CODE_NONE\000"
 11511      545F434F 
 11511      44455F4E 
 11511      4F4E4500 
 11512              	.LASF339:
 11513 0b3d 63616C6C 		.ascii	"callbacks\000"
 11513      6261636B 
 11513      7300
 11514              	.LASF39:
 11515 0b47 705F6F6C 		.ascii	"p_older\000"
 11515      64657200 
 11516              	.LASF310:
 11517 0b4f 63757272 		.ascii	"current2_samp\000"
 11517      656E7432 
 11517      5F73616D 
 11517      7000
 11518              	.LASF41:
 11519 0b5d 705F7374 		.ascii	"p_state\000"
 11519      61746500 
 11520              	.LASF372:
 11521 0b65 73747263 		.ascii	"strcmp\000"
 11521      6D7000
 11522              	.LASF185:
 11523 0b6c 6C5F7465 		.ascii	"l_temp_fet_start\000"
 11523      6D705F66 
 11523      65745F73 
 11523      74617274 
 11523      00
 11524              	.LASF61:
 11525 0b7d 725F7175 		.ascii	"r_queue\000"
 11525      65756500 
 11526              	.LASF18:
 11527 0b85 75696E74 		.ascii	"uint8_t\000"
 11527      385F7400 
 11528              	.LASF176:
 11529 0b8d 6C5F6D61 		.ascii	"l_max_erpm\000"
 11529      785F6572 
 11529      706D00
 11530              	.LASF297:
 11531 0b98 6D63636F 		.ascii	"mcconf\000"
 11531      6E6600
 11532              	.LASF369:
ARM GAS  /var/folders/sv/kgmgr77579zbf78p2zlhkdfr0000gn/T//ccygG6jq.s 			page 223


 11533 0b9f 74696D65 		.ascii	"timeout_configure\000"
 11533      6F75745F 
 11533      636F6E66 
 11533      69677572 
 11533      6500
 11534              	.LASF52:
 11535 0bb1 705F6D70 		.ascii	"p_mpool\000"
 11535      6F6F6C00 
 11536              	.LASF50:
 11537 0bb9 705F6D74 		.ascii	"p_mtxlist\000"
 11537      786C6973 
 11537      7400
 11538              	.LASF88:
 11539 0bc3 534D4352 		.ascii	"SMCR\000"
 11539      00
 11540              	.LASF55:
 11541 0bc8 63685F74 		.ascii	"ch_thread\000"
 11541      68726561 
 11541      6400
 11542              	.LASF205:
 11543 0bd2 736C5F63 		.ascii	"sl_cycle_int_rpm_br\000"
 11543      79636C65 
 11543      5F696E74 
 11543      5F72706D 
 11543      5F627200 
 11544              	.LASF78:
 11545 0be6 73797374 		.ascii	"system_debug_t\000"
 11545      656D5F64 
 11545      65627567 
 11545      5F7400
 11546              	.LASF328:
 11547 0bf5 73616D70 		.ascii	"samples\000"
 11547      6C657300 
 11548              	.LASF140:
 11549 0bfd 6D635F6D 		.ascii	"mc_motor_type\000"
 11549      6F746F72 
 11549      5F747970 
 11549      6500
 11550              	.LASF165:
 11551 0c0b 64727638 		.ascii	"drv8301_oc_mode\000"
 11551      3330315F 
 11551      6F635F6D 
 11551      6F646500 
 11552              	.LASF58:
 11553 0c1b 63685F74 		.ascii	"ch_threads_queue\000"
 11553      68726561 
 11553      64735F71 
 11553      75657565 
 11553      00
 11554              	.LASF286:
 11555 0c2c 6172675F 		.ascii	"arg_names\000"
 11555      6E616D65 
 11555      7300
 11556              	.LASF155:
 11557 0c36 6379636C 		.ascii	"cycle_int_limit_max\000"
 11557      655F696E 
 11557      745F6C69 
ARM GAS  /var/folders/sv/kgmgr77579zbf78p2zlhkdfr0000gn/T//ccygG6jq.s 			page 224


 11557      6D69745F 
 11557      6D617800 
 11558              	.LASF151:
 11559 0c4a 53454E53 		.ascii	"SENSOR_PORT_MODE_AS5047_SPI\000"
 11559      4F525F50 
 11559      4F52545F 
 11559      4D4F4445 
 11559      5F415335 
 11560              	.LASF179:
 11561 0c66 6C5F6D61 		.ascii	"l_max_erpm_fbrake_cc\000"
 11561      785F6572 
 11561      706D5F66 
 11561      6272616B 
 11561      655F6363 
 11562              	.LASF30:
 11563 0c7b 6576656E 		.ascii	"eventmask_t\000"
 11563      746D6173 
 11563      6B5F7400 
 11564              	.LASF29:
 11565 0c87 6D73675F 		.ascii	"msg_t\000"
 11565      7400
 11566              	.LASF316:
 11567 0c8d 6572706D 		.ascii	"erpm\000"
 11567      00
 11568              	.LASF102:
 11569 0c92 636F6E74 		.ascii	"context\000"
 11569      65787400 
 11570              	.LASF222:
 11571 0c9a 666F635F 		.ascii	"foc_pll_ki\000"
 11571      706C6C5F 
 11571      6B6900
 11572              	.LASF251:
 11573 0ca5 6D5F6661 		.ascii	"m_fault_stop_time_ms\000"
 11573      756C745F 
 11573      73746F70 
 11573      5F74696D 
 11573      655F6D73 
 11574              	.LASF161:
 11575 0cba 44525638 		.ascii	"DRV8301_OC_LIMIT\000"
 11575      3330315F 
 11575      4F435F4C 
 11575      494D4954 
 11575      00
 11576              	.LASF130:
 11577 0ccb 53454E53 		.ascii	"SENSOR_MODE_SENSORED\000"
 11577      4F525F4D 
 11577      4F44455F 
 11577      53454E53 
 11577      4F524544 
 11578              	.LASF221:
 11579 0ce0 666F635F 		.ascii	"foc_pll_kp\000"
 11579      706C6C5F 
 11579      6B7000
 11580              	.LASF344:
 11581 0ceb 63684865 		.ascii	"chHeapStatus\000"
 11581      61705374 
 11581      61747573 
ARM GAS  /var/folders/sv/kgmgr77579zbf78p2zlhkdfr0000gn/T//ccygG6jq.s 			page 225


 11581      00
 11582              	.LASF340:
 11583 0cf8 63616C6C 		.ascii	"callback_write\000"
 11583      6261636B 
 11583      5F777269 
 11583      746500
 11584              	.LASF215:
 11585 0d07 666F635F 		.ascii	"foc_encoder_ratio\000"
 11585      656E636F 
 11585      6465725F 
 11585      72617469 
 11585      6F00
 11586              	.LASF376:
 11587 0d19 6D637077 		.ascii	"mcpwm_get_last_adc_isr_duration\000"
 11587      6D5F6765 
 11587      745F6C61 
 11587      73745F61 
 11587      64635F69 
 11588              	.LASF68:
 11589 0d39 76697274 		.ascii	"virtual_timer_t\000"
 11589      75616C5F 
 11589      74696D65 
 11589      725F7400 
 11590              	.LASF73:
 11591 0d49 76745F66 		.ascii	"vt_func\000"
 11591      756E6300 
 11592              	.LASF216:
 11593 0d51 666F635F 		.ascii	"foc_motor_l\000"
 11593      6D6F746F 
 11593      725F6C00 
 11594              	.LASF190:
 11595 0d5d 6C5F6D69 		.ascii	"l_min_duty\000"
 11595      6E5F6475 
 11595      747900
 11596              	.LASF229:
 11597 0d68 666F635F 		.ascii	"foc_sl_d_current_factor\000"
 11597      736C5F64 
 11597      5F637572 
 11597      72656E74 
 11597      5F666163 
 11598              	.LASF217:
 11599 0d80 666F635F 		.ascii	"foc_motor_r\000"
 11599      6D6F746F 
 11599      725F7200 
 11600              	.LASF254:
 11601 0d8c 6D5F656E 		.ascii	"m_encoder_counts\000"
 11601      636F6465 
 11601      725F636F 
 11601      756E7473 
 11601      00
 11602              	.LASF213:
 11603 0d9d 666F635F 		.ascii	"foc_encoder_offset\000"
 11603      656E636F 
 11603      6465725F 
 11603      6F666673 
 11603      657400
 11604              	.LASF299:
ARM GAS  /var/folders/sv/kgmgr77579zbf78p2zlhkdfr0000gn/T//ccygG6jq.s 			page 226


 11605 0db0 73697A65 		.ascii	"size\000"
 11605      00
 11606              	.LASF280:
 11607 0db5 63616E5F 		.ascii	"can_status_msg\000"
 11607      73746174 
 11607      75735F6D 
 11607      736700
 11608              	.LASF51:
 11609 0dc4 705F7265 		.ascii	"p_realprio\000"
 11609      616C7072 
 11609      696F00
 11610              	.LASF379:
 11611 0dcf 6D635F69 		.ascii	"mc_interface_get_fault\000"
 11611      6E746572 
 11611      66616365 
 11611      5F676574 
 11611      5F666175 
 11612              	.LASF284:
 11613 0de6 636F6D6D 		.ascii	"command\000"
 11613      616E6400 
 11614              	.LASF27:
 11615 0dee 74736C69 		.ascii	"tslices_t\000"
 11615      6365735F 
 11615      7400
 11616              	.LASF65:
 11617 0df8 725F6F6C 		.ascii	"r_older\000"
 11617      64657200 
 11618              	.LASF270:
 11619 0e00 74616368 		.ascii	"tacho\000"
 11619      6F00
 11620              	.LASF358:
 11621 0e06 636F6D6D 		.ascii	"comm_can_get_status_msg_index\000"
 11621      5F63616E 
 11621      5F676574 
 11621      5F737461 
 11621      7475735F 
 11622              	.LASF126:
 11623 0e24 434F4D4D 		.ascii	"COMM_MODE_INTEGRATE\000"
 11623      5F4D4F44 
 11623      455F494E 
 11623      54454752 
 11623      41544500 
 11624              	.LASF332:
 11625 0e38 7465726D 		.ascii	"terminal_process_string\000"
 11625      696E616C 
 11625      5F70726F 
 11625      63657373 
 11625      5F737472 
 11626              	.LASF149:
 11627 0e50 53454E53 		.ascii	"SENSOR_PORT_MODE_HALL\000"
 11627      4F525F50 
 11627      4F52545F 
 11627      4D4F4445 
 11627      5F48414C 
 11628              	.LASF48:
 11629 0e66 705F6D73 		.ascii	"p_msg\000"
 11629      6700
ARM GAS  /var/folders/sv/kgmgr77579zbf78p2zlhkdfr0000gn/T//ccygG6jq.s 			page 227


 11630              	.LASF3:
 11631 0e6c 5F5F696E 		.ascii	"__int8_t\000"
 11631      74385F74 
 11631      00
 11632              	.LASF24:
 11633 0e75 746D6F64 		.ascii	"tmode_t\000"
 11633      655F7400 
 11634              	.LASF85:
 11635 0e7d 6D61696E 		.ascii	"mainthread\000"
 11635      74687265 
 11635      616400
 11636              	.LASF268:
 11637 0e88 766F6C74 		.ascii	"voltage\000"
 11637      61676500 
 11638              	.LASF296:
 11639 0e90 61726776 		.ascii	"argv\000"
 11639      00
 11640              	.LASF374:
 11641 0e95 6D635F69 		.ascii	"mc_interface_get_configuration\000"
 11641      6E746572 
 11641      66616365 
 11641      5F676574 
 11641      5F636F6E 
 11642              	.LASF282:
 11643 0eb4 6C6F6E67 		.ascii	"long double\000"
 11643      20646F75 
 11643      626C6500 
 11644              	.LASF231:
 11645 0ec0 666F635F 		.ascii	"foc_hall_table\000"
 11645      68616C6C 
 11645      5F746162 
 11645      6C6500
 11646              	.LASF19:
 11647 0ecf 75696E74 		.ascii	"uint16_t\000"
 11647      31365F74 
 11647      00
 11648              	.LASF364:
 11649 0ed8 6D635F69 		.ascii	"mc_interface_get_rpm\000"
 11649      6E746572 
 11649      66616365 
 11649      5F676574 
 11649      5F72706D 
 11650              	.LASF53:
 11651 0eed 74687265 		.ascii	"thread_reference_t\000"
 11651      61645F72 
 11651      65666572 
 11651      656E6365 
 11651      5F7400
 11652              	.LASF287:
 11653 0f00 7465726D 		.ascii	"terminal_callback_struct\000"
 11653      696E616C 
 11653      5F63616C 
 11653      6C626163 
 11653      6B5F7374 
 11654              	.LASF275:
 11655 0f19 636F6D6D 		.ascii	"comm_step\000"
 11655      5F737465 
ARM GAS  /var/folders/sv/kgmgr77579zbf78p2zlhkdfr0000gn/T//ccygG6jq.s 			page 228


 11655      7000
 11656              	.LASF2:
 11657 0f23 73697A65 		.ascii	"size_t\000"
 11657      5F7400
 11658              	.LASF23:
 11659 0f2a 7274636E 		.ascii	"rtcnt_t\000"
 11659      745F7400 
 11660              	.LASF228:
 11661 0f32 666F635F 		.ascii	"foc_sl_d_current_duty\000"
 11661      736C5F64 
 11661      5F637572 
 11661      72656E74 
 11661      5F647574 
 11662              	.LASF218:
 11663 0f48 666F635F 		.ascii	"foc_motor_flux_linkage\000"
 11663      6D6F746F 
 11663      725F666C 
 11663      75785F6C 
 11663      696E6B61 
 11664              	.LASF320:
 11665 0f5f 696E7665 		.ascii	"inverted\000"
 11665      72746564 
 11665      00
 11666              	.LASF239:
 11667 0f68 735F7069 		.ascii	"s_pid_ki\000"
 11667      645F6B69 
 11667      00
 11668              	.LASF129:
 11669 0f71 53454E53 		.ascii	"SENSOR_MODE_SENSORLESS\000"
 11669      4F525F4D 
 11669      4F44455F 
 11669      53454E53 
 11669      4F524C45 
 11670              	.LASF302:
 11671 0f88 74385F63 		.ascii	"t8_cnt\000"
 11671      6E7400
 11672              	.LASF175:
 11673 0f8f 6C5F6D69 		.ascii	"l_min_erpm\000"
 11673      6E5F6572 
 11673      706D00
 11674              	.LASF318:
 11675 0f9a 74797065 		.ascii	"type_old\000"
 11675      5F6F6C64 
 11675      00
 11676              	.LASF356:
 11677 0fa3 6D637077 		.ascii	"mcpwm_foc_encoder_detect\000"
 11677      6D5F666F 
 11677      635F656E 
 11677      636F6465 
 11677      725F6465 
 11678              	.LASF192:
 11679 0fbc 6C5F7761 		.ascii	"l_watt_max\000"
 11679      74745F6D 
 11679      617800
 11680              	.LASF326:
 11681 0fc7 76715F61 		.ascii	"vq_avg\000"
 11681      766700
ARM GAS  /var/folders/sv/kgmgr77579zbf78p2zlhkdfr0000gn/T//ccygG6jq.s 			page 229


 11682              	.LASF66:
 11683 0fce 725F6375 		.ascii	"r_current\000"
 11683      7272656E 
 11683      7400
 11684              	.LASF174:
 11685 0fd8 6C5F6162 		.ascii	"l_abs_current_max\000"
 11685      735F6375 
 11685      7272656E 
 11685      745F6D61 
 11685      7800
 11686              	.LASF319:
 11687 0fea 72617469 		.ascii	"ratio\000"
 11687      6F00
 11688              	.LASF143:
 11689 0ff0 4641554C 		.ascii	"FAULT_CODE_UNDER_VOLTAGE\000"
 11689      545F434F 
 11689      44455F55 
 11689      4E444552 
 11689      5F564F4C 
 11690              	.LASF117:
 11691 1009 6D5F7175 		.ascii	"m_queue\000"
 11691      65756500 
 11692              	.LASF321:
 11693 1011 63757272 		.ascii	"curr\000"
 11693      00
 11694              	.LASF232:
 11695 1016 666F635F 		.ascii	"foc_sl_erpm\000"
 11695      736C5F65 
 11695      72706D00 
 11696              	.LASF103:
 11697 1022 706F7274 		.ascii	"port_intctx\000"
 11697      5F696E74 
 11697      63747800 
 11698              	.LASF201:
 11699 102e 736C5F6D 		.ascii	"sl_min_erpm_cycle_int_limit\000"
 11699      696E5F65 
 11699      72706D5F 
 11699      6379636C 
 11699      655F696E 
 11700              	.LASF198:
 11701 104a 6C6F5F63 		.ascii	"lo_current_motor_max_now\000"
 11701      75727265 
 11701      6E745F6D 
 11701      6F746F72 
 11701      5F6D6178 
 11702              	.LASF82:
 11703 1063 63685F73 		.ascii	"ch_system\000"
 11703      79737465 
 11703      6D00
 11704              	.LASF290:
 11705 106d 5F5F7365 		.ascii	"__set_BASEPRI\000"
 11705      745F4241 
 11705      53455052 
 11705      4900
 11706              	.LASF34:
 11707 107b 705F6E65 		.ascii	"p_next\000"
 11707      787400
ARM GAS  /var/folders/sv/kgmgr77579zbf78p2zlhkdfr0000gn/T//ccygG6jq.s 			page 230


 11708              	.LASF22:
 11709 1082 75696E74 		.ascii	"uint64_t\000"
 11709      36345F74 
 11709      00
 11710              	.LASF37:
 11711 108b 705F6374 		.ascii	"p_ctx\000"
 11711      7800
 11712              	.LASF150:
 11713 1091 53454E53 		.ascii	"SENSOR_PORT_MODE_ABI\000"
 11713      4F525F50 
 11713      4F52545F 
 11713      4D4F4445 
 11713      5F414249 
 11714              	.LASF83:
 11715 10a6 726C6973 		.ascii	"rlist\000"
 11715      7400
 11716              	.LASF5:
 11717 10ac 5F5F7569 		.ascii	"__uint8_t\000"
 11717      6E74385F 
 11717      7400
 11718              	.LASF294:
 11719 10b6 73746172 		.ascii	"start\000"
 11719      7400
 11720              	.LASF170:
 11721 10bc 6C5F6375 		.ascii	"l_current_max\000"
 11721      7272656E 
 11721      745F6D61 
 11721      7800
 11722              	.LASF259:
 11723 10ca 6D5F626C 		.ascii	"m_bldc_f_sw_min\000"
 11723      64635F66 
 11723      5F73775F 
 11723      6D696E00 
 11724              	.LASF234:
 11725 10da 666F635F 		.ascii	"foc_sample_high_current\000"
 11725      73616D70 
 11725      6C655F68 
 11725      6967685F 
 11725      63757272 
 11726              	.LASF152:
 11727 10f2 73656E73 		.ascii	"sensor_port_mode\000"
 11727      6F725F70 
 11727      6F72745F 
 11727      6D6F6465 
 11727      00
 11728              	.LASF225:
 11729 1103 666F635F 		.ascii	"foc_openloop_rpm\000"
 11729      6F70656E 
 11729      6C6F6F70 
 11729      5F72706D 
 11729      00
 11730              	.LASF377:
 11731 1114 6D635F69 		.ascii	"mc_interface_get_last_inj_adc_isr_duration\000"
 11731      6E746572 
 11731      66616365 
 11731      5F676574 
 11731      5F6C6173 
ARM GAS  /var/folders/sv/kgmgr77579zbf78p2zlhkdfr0000gn/T//ccygG6jq.s 			page 231


 11732              	.LASF162:
 11733 113f 44525638 		.ascii	"DRV8301_OC_LATCH_SHUTDOWN\000"
 11733      3330315F 
 11733      4F435F4C 
 11733      41544348 
 11733      5F534855 
 11734              	.LASF203:
 11735 1159 736C5F63 		.ascii	"sl_cycle_int_limit\000"
 11735      79636C65 
 11735      5F696E74 
 11735      5F6C696D 
 11735      697400
 11736              	.LASF35:
 11737 116c 705F7072 		.ascii	"p_prev\000"
 11737      657600
 11738              	.LASF360:
 11739 1173 636F6E66 		.ascii	"conf_general_measure_flux_linkage\000"
 11739      5F67656E 
 11739      6572616C 
 11739      5F6D6561 
 11739      73757265 
 11740              	.LASF87:
 11741 1195 73697A65 		.ascii	"sizetype\000"
 11741      74797065 
 11741      00
 11742              	.LASF26:
 11743 119e 74726566 		.ascii	"trefs_t\000"
 11743      735F7400 
 11744              	.LASF245:
 11745 11a6 705F7069 		.ascii	"p_pid_kd\000"
 11745      645F6B64 
 11745      00
 11746              	.LASF13:
 11747 11af 6C6F6E67 		.ascii	"long unsigned int\000"
 11747      20756E73 
 11747      69676E65 
 11747      6420696E 
 11747      7400
 11748              	.LASF244:
 11749 11c1 705F7069 		.ascii	"p_pid_ki\000"
 11749      645F6B69 
 11749      00
 11750              	.LASF59:
 11751 11ca 72656164 		.ascii	"ready_list_t\000"
 11751      795F6C69 
 11751      73745F74 
 11751      00
 11752              	.LASF329:
 11753 11d7 69715F61 		.ascii	"iq_avg\000"
 11753      766700
 11754              	.LASF315:
 11755 11de 68616C6C 		.ascii	"hall_res\000"
 11755      5F726573 
 11755      00
 11756              	.LASF20:
 11757 11e7 696E7433 		.ascii	"int32_t\000"
 11757      325F7400 
ARM GAS  /var/folders/sv/kgmgr77579zbf78p2zlhkdfr0000gn/T//ccygG6jq.s 			page 232


 11758              	.LASF186:
 11759 11ef 6C5F7465 		.ascii	"l_temp_fet_end\000"
 11759      6D705F66 
 11759      65745F65 
 11759      6E6400
 11760              	.LASF309:
 11761 11fe 63757272 		.ascii	"current1_samp\000"
 11761      656E7431 
 11761      5F73616D 
 11761      7000
 11762              	.LASF110:
 11763 120c 77747365 		.ascii	"wtsemp\000"
 11763      6D7000
 11764              	.LASF181:
 11765 1213 6C5F6D61 		.ascii	"l_max_vin\000"
 11765      785F7669 
 11765      6E00
 11766              	.LASF133:
 11767 121d 464F435F 		.ascii	"FOC_SENSOR_MODE_SENSORLESS\000"
 11767      53454E53 
 11767      4F525F4D 
 11767      4F44455F 
 11767      53454E53 
 11768              	.LASF121:
 11769 1238 6D757465 		.ascii	"mutex_t\000"
 11769      785F7400 
 11770              	.LASF285:
 11771 1240 68656C70 		.ascii	"help\000"
 11771      00
 11772              	.LASF233:
 11773 1245 666F635F 		.ascii	"foc_sample_v0_v7\000"
 11773      73616D70 
 11773      6C655F76 
 11773      305F7637 
 11773      00
 11774              	.LASF212:
 11775 1256 666F635F 		.ascii	"foc_dt_us\000"
 11775      64745F75 
 11775      7300
 11776              	.LASF335:
 11777 1260 7465726D 		.ascii	"terminal_register_command_callback\000"
 11777      696E616C 
 11777      5F726567 
 11777      69737465 
 11777      725F636F 
 11778              	.LASF6:
 11779 1283 756E7369 		.ascii	"unsigned char\000"
 11779      676E6564 
 11779      20636861 
 11779      7200
 11780              	.LASF343:
 11781 1291 4144435F 		.ascii	"ADC_Value\000"
 11781      56616C75 
 11781      6500
 11782              	.LASF353:
 11783 129b 6D635F69 		.ascii	"mc_interface_set_configuration\000"
 11783      6E746572 
ARM GAS  /var/folders/sv/kgmgr77579zbf78p2zlhkdfr0000gn/T//ccygG6jq.s 			page 233


 11783      66616365 
 11783      5F736574 
 11783      5F636F6E 
 11784              	.LASF12:
 11785 12ba 5F5F7569 		.ascii	"__uint32_t\000"
 11785      6E743332 
 11785      5F7400
 11786              	.LASF195:
 11787 12c5 6C6F5F63 		.ascii	"lo_current_min\000"
 11787      75727265 
 11787      6E745F6D 
 11787      696E00
 11788              	.LASF75:
 11789 12d4 76697274 		.ascii	"virtual_timers_list_t\000"
 11789      75616C5F 
 11789      74696D65 
 11789      72735F6C 
 11789      6973745F 
 11790              	.LASF43:
 11791 12ea 705F7265 		.ascii	"p_refs\000"
 11791      667300
 11792              	.LASF350:
 11793 12f1 636F6E66 		.ascii	"conf_general_detect_motor_param\000"
 11793      5F67656E 
 11793      6572616C 
 11793      5F646574 
 11793      6563745F 
 11794              	.LASF148:
 11795 1311 6D635F66 		.ascii	"mc_fault_code\000"
 11795      61756C74 
 11795      5F636F64 
 11795      6500
 11796              	.LASF362:
 11797 131f 63685468 		.ascii	"chThdSleep\000"
 11797      64536C65 
 11797      657000
 11798              	.LASF134:
 11799 132a 464F435F 		.ascii	"FOC_SENSOR_MODE_ENCODER\000"
 11799      53454E53 
 11799      4F525F4D 
 11799      4F44455F 
 11799      454E434F 
 11800              	.LASF347:
 11801 1342 63685265 		.ascii	"chRegFirstThread\000"
 11801      67466972 
 11801      73745468 
 11801      72656164 
 11801      00
 11802              	.LASF44:
 11803 1353 705F7072 		.ascii	"p_preempt\000"
 11803      65656D70 
 11803      7400
 11804              	.LASF373:
 11805 135d 73747274 		.ascii	"strtok\000"
 11805      6F6B00
 11806              	.LASF366:
 11807 1364 74696D65 		.ascii	"timeout_get_timeout_msec\000"
ARM GAS  /var/folders/sv/kgmgr77579zbf78p2zlhkdfr0000gn/T//ccygG6jq.s 			page 234


 11807      6F75745F 
 11807      6765745F 
 11807      74696D65 
 11807      6F75745F 
 11808              	.LASF241:
 11809 137d 735F7069 		.ascii	"s_pid_min_erpm\000"
 11809      645F6D69 
 11809      6E5F6572 
 11809      706D00
 11810              	.LASF49:
 11811 138c 705F6570 		.ascii	"p_epending\000"
 11811      656E6469 
 11811      6E6700
 11812              	.LASF70:
 11813 1397 76745F6E 		.ascii	"vt_next\000"
 11813      65787400 
 11814              	.LASF144:
 11815 139f 4641554C 		.ascii	"FAULT_CODE_DRV\000"
 11815      545F434F 
 11815      44455F44 
 11815      525600
 11816              	.LASF235:
 11817 13ae 666F635F 		.ascii	"foc_sat_comp\000"
 11817      7361745F 
 11817      636F6D70 
 11817      00
 11818              	.LASF81:
 11819 13bb 63685F73 		.ascii	"ch_system_t\000"
 11819      79737465 
 11819      6D5F7400 
 11820              	.LASF164:
 11821 13c7 44525638 		.ascii	"DRV8301_OC_DISABLED\000"
 11821      3330315F 
 11821      4F435F44 
 11821      49534142 
 11821      4C454400 
 11822              	.LASF131:
 11823 13db 53454E53 		.ascii	"SENSOR_MODE_HYBRID\000"
 11823      4F525F4D 
 11823      4F44455F 
 11823      48594252 
 11823      494400
 11824              	.LASF109:
 11825 13ee 77747472 		.ascii	"wttrp\000"
 11825      7000
 11826              	.LASF267:
 11827 13f4 63757272 		.ascii	"current_filtered\000"
 11827      656E745F 
 11827      66696C74 
 11827      65726564 
 11827      00
 11828              	.LASF384:
 11829 1405 2F557365 		.ascii	"/Users/moslin/Documents/Project/bldc-master\000"
 11829      72732F6D 
 11829      6F736C69 
 11829      6E2F446F 
 11829      63756D65 
ARM GAS  /var/folders/sv/kgmgr77579zbf78p2zlhkdfr0000gn/T//ccygG6jq.s 			page 235


 11830              	.LASF253:
 11831 1431 6D5F6375 		.ascii	"m_current_backoff_gain\000"
 11831      7272656E 
 11831      745F6261 
 11831      636B6F66 
 11831      665F6761 
 11832              	.LASF202:
 11833 1448 736C5F6D 		.ascii	"sl_max_fullbreak_current_dir_change\000"
 11833      61785F66 
 11833      756C6C62 
 11833      7265616B 
 11833      5F637572 
 11834              	.LASF119:
 11835 146c 6D5F6E65 		.ascii	"m_next\000"
 11835      787400
 11836              	.LASF136:
 11837 1473 6D635F66 		.ascii	"mc_foc_sensor_mode\000"
 11837      6F635F73 
 11837      656E736F 
 11837      725F6D6F 
 11837      646500
 11838              	.LASF4:
 11839 1486 7369676E 		.ascii	"signed char\000"
 11839      65642063 
 11839      68617200 
 11840              	.LASF240:
 11841 1492 735F7069 		.ascii	"s_pid_kd\000"
 11841      645F6B64 
 11841      00
 11842              	.LASF325:
 11843 149b 746F7574 		.ascii	"tout_c\000"
 11843      5F6300
 11844              	.LASF9:
 11845 14a2 73686F72 		.ascii	"short unsigned int\000"
 11845      7420756E 
 11845      7369676E 
 11845      65642069 
 11845      6E7400
 11846              	.LASF63:
 11847 14b5 725F6374 		.ascii	"r_ctx\000"
 11847      7800
 11848              	.LASF333:
 11849 14bb 7465726D 		.ascii	"terminal_add_fault_data\000"
 11849      696E616C 
 11849      5F616464 
 11849      5F666175 
 11849      6C745F64 
 11850              	.LASF346:
 11851 14d3 636F6D6D 		.ascii	"commands_printf\000"
 11851      616E6473 
 11851      5F707269 
 11851      6E746600 
 11852              	.LASF101:
 11853 14e3 73746B61 		.ascii	"stkalign_t\000"
 11853      6C69676E 
 11853      5F7400
 11854              	.LASF387:
ARM GAS  /var/folders/sv/kgmgr77579zbf78p2zlhkdfr0000gn/T//ccygG6jq.s 			page 236


 11855 14ee 6D656D63 		.ascii	"memcpy\000"
 11855      707900
 11856              	.LASF352:
 11857 14f5 6D637077 		.ascii	"mcpwm_foc_set_openloop\000"
 11857      6D5F666F 
 11857      635F7365 
 11857      745F6F70 
 11857      656E6C6F 
 11858              	.LASF266:
 11859 150c 63757272 		.ascii	"current\000"
 11859      656E7400 
 11860              	.LASF330:
 11861 1514 5F5F6675 		.ascii	"__func__\000"
 11861      6E635F5F 
 11861      00
 11862              	.LASF139:
 11863 151d 4D4F544F 		.ascii	"MOTOR_TYPE_FOC\000"
 11863      525F5459 
 11863      50455F46 
 11863      4F4300
 11864              	.LASF189:
 11865 152c 6C5F7465 		.ascii	"l_temp_accel_dec\000"
 11865      6D705F61 
 11865      6363656C 
 11865      5F646563 
 11865      00
 11866              	.LASF385:
 11867 153d 63685654 		.ascii	"chVTGetSystemTimeX\000"
 11867      47657453 
 11867      79737465 
 11867      6D54696D 
 11867      655800
 11868              	.LASF354:
 11869 1550 6D637077 		.ascii	"mcpwm_foc_measure_resistance\000"
 11869      6D5F666F 
 11869      635F6D65 
 11869      61737572 
 11869      655F7265 
 11870              	.LASF311:
 11871 156d 6D696E5F 		.ascii	"min_rpm\000"
 11871      72706D00 
 11872              	.LASF289:
 11873 1575 706F7274 		.ascii	"port_unlock\000"
 11873      5F756E6C 
 11873      6F636B00 
 11874              	.LASF167:
 11875 1581 636F6D6D 		.ascii	"comm_mode\000"
 11875      5F6D6F64 
 11875      6500
 11876              	.LASF71:
 11877 158b 76745F70 		.ascii	"vt_prev\000"
 11877      72657600 
 11878              	.LASF351:
 11879 1593 73736361 		.ascii	"sscanf\000"
 11879      6E6600
 11880              	.LASF262:
 11881 159a 6D5F6E74 		.ascii	"m_ntc_motor_beta\000"
ARM GAS  /var/folders/sv/kgmgr77579zbf78p2zlhkdfr0000gn/T//ccygG6jq.s 			page 237


 11881      635F6D6F 
 11881      746F725F 
 11881      62657461 
 11881      00
 11882              	.LASF236:
 11883 15ab 666F635F 		.ascii	"foc_temp_comp\000"
 11883      74656D70 
 11883      5F636F6D 
 11883      7000
 11884              	.LASF323:
 11885 15b9 6C696E6B 		.ascii	"linkage\000"
 11885      61676500 
 11886              	.LASF193:
 11887 15c1 6C5F7761 		.ascii	"l_watt_min\000"
 11887      74745F6D 
 11887      696E00
 11888              	.LASF322:
 11889 15cc 6D696E5F 		.ascii	"min_erpm\000"
 11889      6572706D 
 11889      00
 11890              	.LASF80:
 11891 15d5 70616E69 		.ascii	"panic_msg\000"
 11891      635F6D73 
 11891      6700
 11892              	.LASF274:
 11893 15df 74696D5F 		.ascii	"tim_top\000"
 11893      746F7000 
 11894              	.LASF157:
 11895 15e7 636F6D6D 		.ascii	"comm_time_sum_min_rpm\000"
 11895      5F74696D 
 11895      655F7375 
 11895      6D5F6D69 
 11895      6E5F7270 
 11896              	.LASF368:
 11897 15fd 74696D65 		.ascii	"timeout_reset\000"
 11897      6F75745F 
 11897      72657365 
 11897      7400
 11898              	.LASF246:
 11899 160b 705F7069 		.ascii	"p_pid_ang_div\000"
 11899      645F616E 
 11899      675F6469 
 11899      7600
 11900              	.LASF166:
 11901 1619 70776D5F 		.ascii	"pwm_mode\000"
 11901      6D6F6465 
 11901      00
 11902              	.LASF107:
 11903 1622 65786974 		.ascii	"exitcode\000"
 11903      636F6465 
 11903      00
 11904              	.LASF158:
 11905 162b 636F6D6D 		.ascii	"comms\000"
 11905      7300
 11906              	.LASF383:
 11907 1631 7465726D 		.ascii	"terminal.c\000"
 11907      696E616C 
ARM GAS  /var/folders/sv/kgmgr77579zbf78p2zlhkdfr0000gn/T//ccygG6jq.s 			page 238


 11907      2E6300
 11908              	.LASF237:
 11909 163c 666F635F 		.ascii	"foc_temp_comp_base_temp\000"
 11909      74656D70 
 11909      5F636F6D 
 11909      705F6261 
 11909      73655F74 
 11910              	.LASF178:
 11911 1654 6C5F6D61 		.ascii	"l_max_erpm_fbrake\000"
 11911      785F6572 
 11911      706D5F66 
 11911      6272616B 
 11911      6500
 11912              	.LASF187:
 11913 1666 6C5F7465 		.ascii	"l_temp_motor_start\000"
 11913      6D705F6D 
 11913      6F746F72 
 11913      5F737461 
 11913      727400
 11914              	.LASF314:
 11915 1679 636F7570 		.ascii	"coupling_k\000"
 11915      6C696E67 
 11915      5F6B00
 11916              		.ident	"GCC: (GNU Tools for ARM Embedded Processors) 5.4.1 20160919 (release) [ARM/embedded-5-bran
ARM GAS  /var/folders/sv/kgmgr77579zbf78p2zlhkdfr0000gn/T//ccygG6jq.s 			page 239


DEFINED SYMBOLS
                            *ABS*:0000000000000000 terminal.c
/var/folders/sv/kgmgr77579zbf78p2zlhkdfr0000gn/T//ccygG6jq.s:23     .text.terminal_process_string:0000000000000000 $t
/var/folders/sv/kgmgr77579zbf78p2zlhkdfr0000gn/T//ccygG6jq.s:29     .text.terminal_process_string:0000000000000000 terminal_process_string
/var/folders/sv/kgmgr77579zbf78p2zlhkdfr0000gn/T//ccygG6jq.s:440    .text.terminal_process_string:0000000000000240 $d
/var/folders/sv/kgmgr77579zbf78p2zlhkdfr0000gn/T//ccygG6jq.s:479    .text.terminal_process_string:00000000000002d4 $t
/var/folders/sv/kgmgr77579zbf78p2zlhkdfr0000gn/T//ccygG6jq.s:965    .text.terminal_process_string:00000000000005e4 $d
/var/folders/sv/kgmgr77579zbf78p2zlhkdfr0000gn/T//ccygG6jq.s:1020   .text.terminal_process_string:00000000000006ac $t
/var/folders/sv/kgmgr77579zbf78p2zlhkdfr0000gn/T//ccygG6jq.s:1485   .text.terminal_process_string:0000000000000960 $d
/var/folders/sv/kgmgr77579zbf78p2zlhkdfr0000gn/T//ccygG6jq.s:1524   .text.terminal_process_string:00000000000009ec $t
/var/folders/sv/kgmgr77579zbf78p2zlhkdfr0000gn/T//ccygG6jq.s:2013   .text.terminal_process_string:0000000000000d24 $d
/var/folders/sv/kgmgr77579zbf78p2zlhkdfr0000gn/T//ccygG6jq.s:2045   .text.terminal_process_string:0000000000000d9c $t
/var/folders/sv/kgmgr77579zbf78p2zlhkdfr0000gn/T//ccygG6jq.s:2428   .text.terminal_process_string:0000000000000fd8 $d
/var/folders/sv/kgmgr77579zbf78p2zlhkdfr0000gn/T//ccygG6jq.s:2507   .text.terminal_add_fault_data:0000000000000000 $t
/var/folders/sv/kgmgr77579zbf78p2zlhkdfr0000gn/T//ccygG6jq.s:2513   .text.terminal_add_fault_data:0000000000000000 terminal_add_fault_data
/var/folders/sv/kgmgr77579zbf78p2zlhkdfr0000gn/T//ccygG6jq.s:2559   .text.terminal_add_fault_data:000000000000003c $d
/var/folders/sv/kgmgr77579zbf78p2zlhkdfr0000gn/T//ccygG6jq.s:2565   .text.terminal_register_command_callback:0000000000000000 $t
/var/folders/sv/kgmgr77579zbf78p2zlhkdfr0000gn/T//ccygG6jq.s:2571   .text.terminal_register_command_callback:0000000000000000 terminal_register_command_callback
/var/folders/sv/kgmgr77579zbf78p2zlhkdfr0000gn/T//ccygG6jq.s:2714   .text.terminal_register_command_callback:0000000000000094 $d
/var/folders/sv/kgmgr77579zbf78p2zlhkdfr0000gn/T//ccygG6jq.s:2721   .rodata.states.11547:0000000000000000 $d
/var/folders/sv/kgmgr77579zbf78p2zlhkdfr0000gn/T//ccygG6jq.s:2725   .rodata.states.11547:0000000000000000 states.11547
/var/folders/sv/kgmgr77579zbf78p2zlhkdfr0000gn/T//ccygG6jq.s:2743   .bss.fault_vec_write:0000000000000000 $d
/var/folders/sv/kgmgr77579zbf78p2zlhkdfr0000gn/T//ccygG6jq.s:2747   .bss.fault_vec_write:0000000000000000 fault_vec_write
/var/folders/sv/kgmgr77579zbf78p2zlhkdfr0000gn/T//ccygG6jq.s:2750   .rodata.str1.4:0000000000000000 $d
/var/folders/sv/kgmgr77579zbf78p2zlhkdfr0000gn/T//ccygG6jq.s:3251   .bss.fault_vec:0000000000000000 $d
/var/folders/sv/kgmgr77579zbf78p2zlhkdfr0000gn/T//ccygG6jq.s:3255   .bss.fault_vec:0000000000000000 fault_vec
/var/folders/sv/kgmgr77579zbf78p2zlhkdfr0000gn/T//ccygG6jq.s:3258   .bss.callbacks:0000000000000000 $d
/var/folders/sv/kgmgr77579zbf78p2zlhkdfr0000gn/T//ccygG6jq.s:3262   .bss.callbacks:0000000000000000 callbacks
/var/folders/sv/kgmgr77579zbf78p2zlhkdfr0000gn/T//ccygG6jq.s:3265   .bss.mcconf.11542:0000000000000000 $d
/var/folders/sv/kgmgr77579zbf78p2zlhkdfr0000gn/T//ccygG6jq.s:3269   .bss.mcconf.11542:0000000000000000 mcconf.11542
/var/folders/sv/kgmgr77579zbf78p2zlhkdfr0000gn/T//ccygG6jq.s:3272   .bss.callback_write:0000000000000000 $d
/var/folders/sv/kgmgr77579zbf78p2zlhkdfr0000gn/T//ccygG6jq.s:3276   .bss.callback_write:0000000000000000 callback_write
/var/folders/sv/kgmgr77579zbf78p2zlhkdfr0000gn/T//ccygG6jq.s:3279   .bss.mcconf_old.11543:0000000000000000 $d
/var/folders/sv/kgmgr77579zbf78p2zlhkdfr0000gn/T//ccygG6jq.s:3283   .bss.mcconf_old.11543:0000000000000000 mcconf_old.11543
                     .debug_frame:0000000000000010 $d

UNDEFINED SYMBOLS
__aeabi_f2d
strtok
mc_interface_get_configuration
memcpy
strcmp
commands_printf
mcpwm_get_kv_filtered
mc_interface_set_duty
mcpwm_get_last_adc_isr_duration
mc_interface_get_last_inj_adc_isr_duration
mc_interface_get_last_sample_adc_isr_duration
chHeapStatus
chCoreGetStatusX
chRegFirstThread
chRegNextThread
mc_interface_get_fault
mc_interface_fault_to_string
mc_interface_get_rpm
mc_interface_get_tachometer_value
sscanf
ARM GAS  /var/folders/sv/kgmgr77579zbf78p2zlhkdfr0000gn/T//ccygG6jq.s 			page 240


mc_interface_set_configuration
mcpwm_foc_measure_resistance
ADC_Value
mcpwm_get_rpm_dep
conf_general_detect_motor_param
encoder_is_configured
mcpwm_foc_encoder_detect
comm_can_get_status_msg_index
mcpwm_foc_measure_inductance
ch
conf_general_measure_flux_linkage
timeout_get_timeout_msec
timeout_get_brake_current
timeout_reset
timeout_configure
chThdSleep
mcpwm_foc_get_vq
mc_interface_get_tot_current_directional
mc_interface_release_motor
mcpwm_foc_measure_res_ind
mcpwm_foc_set_openloop
mcpwm_foc_print_state
conf_general_permanent_nrf_found
