ARM GAS  /var/folders/sv/kgmgr77579zbf78p2zlhkdfr0000gn/T//cc2SqDd0.s 			page 1


   1              		.syntax unified
   2              		.cpu cortex-m4
   3              		.eabi_attribute 27, 1
   4              		.eabi_attribute 28, 1
   5              		.fpu fpv4-sp-d16
   6              		.eabi_attribute 20, 1
   7              		.eabi_attribute 21, 1
   8              		.eabi_attribute 23, 3
   9              		.eabi_attribute 24, 1
  10              		.eabi_attribute 25, 1
  11              		.eabi_attribute 26, 1
  12              		.eabi_attribute 30, 2
  13              		.eabi_attribute 34, 1
  14              		.eabi_attribute 18, 4
  15              		.thumb
  16              		.syntax unified
  17              		.file	"terminal.c"
  18              		.text
  19              	.Ltext0:
  20              		.cfi_sections	.debug_frame
  21              		.global	__aeabi_f2d
  22              		.section	.text.terminal_process_string,"ax",%progbits
  23              		.align	2
  24              		.p2align 4,,15
  25              		.global	terminal_process_string
  26              		.thumb
  27              		.thumb_func
  28              		.type	terminal_process_string, %function
  29              	terminal_process_string:
  30              	.LFB257:
  31              		.file 1 "terminal.c"
  32              		.loc 1 57 0
  33              		.cfi_startproc
  34              		@ args = 0, pretend = 0, frame = 312
  35              		@ frame_needed = 0, uses_anonymous_args = 0
  36              	.LVL0:
  37 0000 2DE9F047 		push	{r4, r5, r6, r7, r8, r9, r10, lr}
  38              		.cfi_def_cfa_offset 32
  39              		.cfi_offset 4, -32
  40              		.cfi_offset 5, -28
  41              		.cfi_offset 6, -24
  42              		.cfi_offset 7, -20
  43              		.cfi_offset 8, -16
  44              		.cfi_offset 9, -12
  45              		.cfi_offset 10, -8
  46              		.cfi_offset 14, -4
  47 0004 2DED088B 		vpush.64	{d8, d9, d10, d11}
  48              		.cfi_def_cfa_offset 64
  49              		.cfi_offset 80, -64
  50              		.cfi_offset 81, -60
  51              		.cfi_offset 82, -56
  52              		.cfi_offset 83, -52
  53              		.cfi_offset 84, -48
  54              		.cfi_offset 85, -44
  55              		.cfi_offset 86, -40
  56              		.cfi_offset 87, -36
  57              		.loc 1 62 0
ARM GAS  /var/folders/sv/kgmgr77579zbf78p2zlhkdfr0000gn/T//cc2SqDd0.s 			page 2


  58 0008 8D49     		ldr	r1, .L182
  59              		.loc 1 57 0
  60 000a D8B0     		sub	sp, sp, #352
  61              		.cfi_def_cfa_offset 416
  62              		.loc 1 62 0
  63 000c FFF7FEFF 		bl	strtok
  64              	.LVL1:
  65              		.loc 1 63 0
  66 0010 0028     		cmp	r0, #0
  67 0012 79D0     		beq	.L155
  68 0014 17AD     		add	r5, sp, #92
  69 0016 0024     		movs	r4, #0
  70 0018 01E0     		b	.L5
  71              	.LVL2:
  72              	.L156:
  73              		.loc 1 63 0 is_stmt 0 discriminator 1
  74 001a 402C     		cmp	r4, #64
  75 001c 08D0     		beq	.L4
  76              	.LVL3:
  77              	.L5:
  78              		.loc 1 64 0 is_stmt 1
  79 001e 45F8040F 		str	r0, [r5, #4]!
  80              		.loc 1 65 0
  81 0022 8749     		ldr	r1, .L182
  82 0024 0020     		movs	r0, #0
  83              	.LVL4:
  84 0026 FFF7FEFF 		bl	strtok
  85              	.LVL5:
  86              		.loc 1 64 0
  87 002a 0134     		adds	r4, r4, #1
  88              	.LVL6:
  89              		.loc 1 63 0
  90 002c 0028     		cmp	r0, #0
  91 002e F4D1     		bne	.L156
  92              	.L4:
  93              		.loc 1 75 0
  94 0030 FFF7FEFF 		bl	mc_interface_get_configuration
  95              	.LVL7:
  96 0034 4FF4BA72 		mov	r2, #372
  97 0038 0146     		mov	r1, r0
  98 003a 8248     		ldr	r0, .L182+4
  99 003c FFF7FEFF 		bl	memcpy
 100              	.LVL8:
 101              		.loc 1 76 0
 102 0040 8049     		ldr	r1, .L182+4
 103 0042 8148     		ldr	r0, .L182+8
 104 0044 4FF4BA72 		mov	r2, #372
 105 0048 FFF7FEFF 		bl	memcpy
 106              	.LVL9:
 107              		.loc 1 78 0
 108 004c 189D     		ldr	r5, [sp, #96]
 109 004e 7F49     		ldr	r1, .L182+12
 110 0050 2846     		mov	r0, r5
 111 0052 FFF7FEFF 		bl	strcmp
 112              	.LVL10:
 113 0056 0028     		cmp	r0, #0
 114 0058 5ED0     		beq	.L157
ARM GAS  /var/folders/sv/kgmgr77579zbf78p2zlhkdfr0000gn/T//cc2SqDd0.s 			page 3


 115              		.loc 1 80 0
 116 005a 7D49     		ldr	r1, .L182+16
 117 005c 2846     		mov	r0, r5
 118 005e FFF7FEFF 		bl	strcmp
 119              	.LVL11:
 120 0062 0028     		cmp	r0, #0
 121 0064 6CD0     		beq	.L158
 122              		.loc 1 83 0
 123 0066 7B49     		ldr	r1, .L182+20
 124 0068 2846     		mov	r0, r5
 125 006a FFF7FEFF 		bl	strcmp
 126              	.LVL12:
 127 006e 0028     		cmp	r0, #0
 128 0070 72D0     		beq	.L159
 129              		.loc 1 87 0
 130 0072 7949     		ldr	r1, .L182+24
 131 0074 2846     		mov	r0, r5
 132 0076 FFF7FEFF 		bl	strcmp
 133              	.LVL13:
 134 007a 0028     		cmp	r0, #0
 135 007c 54D0     		beq	.L160
 136              		.loc 1 89 0
 137 007e 7749     		ldr	r1, .L182+28
 138 0080 2846     		mov	r0, r5
 139 0082 FFF7FEFF 		bl	strcmp
 140              	.LVL14:
 141 0086 0028     		cmp	r0, #0
 142 0088 00F09980 		beq	.L161
 143              		.loc 1 95 0
 144 008c 7449     		ldr	r1, .L182+32
 145 008e 2846     		mov	r0, r5
 146 0090 FFF7FEFF 		bl	strcmp
 147              	.LVL15:
 148 0094 0028     		cmp	r0, #0
 149 0096 00F0A580 		beq	.L162
 150              		.loc 1 109 0
 151 009a 7249     		ldr	r1, .L182+36
 152 009c 2846     		mov	r0, r5
 153 009e FFF7FEFF 		bl	strcmp
 154              	.LVL16:
 155 00a2 0028     		cmp	r0, #0
 156 00a4 00F0C380 		beq	.L163
 157              		.loc 1 111 0
 158 00a8 6F49     		ldr	r1, .L182+40
 159 00aa 2846     		mov	r0, r5
 160 00ac FFF7FEFF 		bl	strcmp
 161              	.LVL17:
 162 00b0 0028     		cmp	r0, #0
 163 00b2 7BD0     		beq	.L164
 164              		.loc 1 139 0
 165 00b4 6D49     		ldr	r1, .L182+44
 166 00b6 2846     		mov	r0, r5
 167 00b8 FFF7FEFF 		bl	strcmp
 168              	.LVL18:
 169 00bc 0028     		cmp	r0, #0
 170 00be 00F07D81 		beq	.L165
 171              		.loc 1 141 0
ARM GAS  /var/folders/sv/kgmgr77579zbf78p2zlhkdfr0000gn/T//cc2SqDd0.s 			page 4


 172 00c2 6B49     		ldr	r1, .L182+48
 173 00c4 2846     		mov	r0, r5
 174 00c6 FFF7FEFF 		bl	strcmp
 175              	.LVL19:
 176 00ca 0028     		cmp	r0, #0
 177 00cc 00F08281 		beq	.L166
 178              		.loc 1 143 0
 179 00d0 6849     		ldr	r1, .L182+52
 180 00d2 2846     		mov	r0, r5
 181 00d4 FFF7FEFF 		bl	strcmp
 182              	.LVL20:
 183 00d8 0028     		cmp	r0, #0
 184 00da 00F0B881 		beq	.L167
 185              		.loc 1 168 0
 186 00de 6649     		ldr	r1, .L182+56
 187 00e0 2846     		mov	r0, r5
 188 00e2 FFF7FEFF 		bl	strcmp
 189              	.LVL21:
 190 00e6 0028     		cmp	r0, #0
 191 00e8 00F09881 		beq	.L168
 192              		.loc 1 170 0
 193 00ec 6349     		ldr	r1, .L182+60
 194 00ee 2846     		mov	r0, r5
 195 00f0 FFF7FEFF 		bl	strcmp
 196              	.LVL22:
 197 00f4 0028     		cmp	r0, #0
 198 00f6 40F07481 		bne	.L23
 199              		.loc 1 172 0
 200 00fa 042C     		cmp	r4, #4
 201 00fc 00F0F181 		beq	.L169
 202              		.loc 1 214 0
 203 0100 5F48     		ldr	r0, .L182+64
 204 0102 FFF7FEFF 		bl	commands_printf
 205              	.LVL23:
 206 0106 02E0     		b	.L1
 207              	.LVL24:
 208              	.L155:
 209              		.loc 1 69 0
 210 0108 5E48     		ldr	r0, .L182+68
 211              	.LVL25:
 212 010a FFF7FEFF 		bl	commands_printf
 213              	.LVL26:
 214              	.L1:
 215              		.loc 1 696 0
 216 010e 58B0     		add	sp, sp, #352
 217              		.cfi_remember_state
 218              		.cfi_def_cfa_offset 64
 219              		@ sp needed
 220 0110 BDEC088B 		vldm	sp!, {d8-d11}
 221              		.cfi_restore 86
 222              		.cfi_restore 87
 223              		.cfi_restore 84
 224              		.cfi_restore 85
 225              		.cfi_restore 82
 226              		.cfi_restore 83
 227              		.cfi_restore 80
 228              		.cfi_restore 81
ARM GAS  /var/folders/sv/kgmgr77579zbf78p2zlhkdfr0000gn/T//cc2SqDd0.s 			page 5


 229              		.cfi_def_cfa_offset 32
 230 0114 BDE8F087 		pop	{r4, r5, r6, r7, r8, r9, r10, pc}
 231              	.LVL27:
 232              	.L157:
 233              		.cfi_restore_state
 234              		.loc 1 79 0
 235 0118 5B48     		ldr	r0, .L182+72
 236 011a FFF7FEFF 		bl	commands_printf
 237              	.LVL28:
 238              		.loc 1 696 0
 239 011e 58B0     		add	sp, sp, #352
 240              		.cfi_remember_state
 241              		.cfi_def_cfa_offset 64
 242              		@ sp needed
 243 0120 BDEC088B 		vldm	sp!, {d8-d11}
 244              		.cfi_restore 80
 245              		.cfi_restore 81
 246              		.cfi_restore 82
 247              		.cfi_restore 83
 248              		.cfi_restore 84
 249              		.cfi_restore 85
 250              		.cfi_restore 86
 251              		.cfi_restore 87
 252              		.cfi_def_cfa_offset 32
 253 0124 BDE8F087 		pop	{r4, r5, r6, r7, r8, r9, r10, pc}
 254              	.LVL29:
 255              	.L160:
 256              		.cfi_restore_state
 257              		.loc 1 88 0
 258 0128 FFF7FEFF 		bl	mcpwm_get_kv_filtered
 259              	.LVL30:
 260 012c 10EE100A 		vmov	r0, s0
 261 0130 FFF7FEFF 		bl	__aeabi_f2d
 262              	.LVL31:
 263 0134 0246     		mov	r2, r0
 264 0136 0B46     		mov	r3, r1
 265 0138 5448     		ldr	r0, .L182+76
 266 013a FFF7FEFF 		bl	commands_printf
 267              	.LVL32:
 268 013e E6E7     		b	.L1
 269              	.L158:
 270              		.loc 1 81 0
 271 0140 9FED530A 		vldr.32	s0, .L182+80
 272 0144 FFF7FEFF 		bl	mc_interface_set_duty
 273              	.LVL33:
 274              		.loc 1 82 0
 275 0148 5248     		ldr	r0, .L182+84
 276 014a FFF7FEFF 		bl	commands_printf
 277              	.LVL34:
 278              		.loc 1 696 0
 279 014e 58B0     		add	sp, sp, #352
 280              		.cfi_remember_state
 281              		.cfi_def_cfa_offset 64
 282              		@ sp needed
 283 0150 BDEC088B 		vldm	sp!, {d8-d11}
 284              		.cfi_restore 80
 285              		.cfi_restore 81
ARM GAS  /var/folders/sv/kgmgr77579zbf78p2zlhkdfr0000gn/T//cc2SqDd0.s 			page 6


 286              		.cfi_restore 82
 287              		.cfi_restore 83
 288              		.cfi_restore 84
 289              		.cfi_restore 85
 290              		.cfi_restore 86
 291              		.cfi_restore 87
 292              		.cfi_def_cfa_offset 32
 293 0154 BDE8F087 		pop	{r4, r5, r6, r7, r8, r9, r10, pc}
 294              	.LVL35:
 295              	.L159:
 296              		.cfi_restore_state
 297              		.loc 1 84 0
 298 0158 FFF7FEFF 		bl	mcpwm_get_last_adc_isr_duration
 299              	.LVL36:
 300 015c 9FED4E8A 		vldr.32	s16, .L182+88
 301 0160 60EE087A 		vmul.f32	s15, s0, s16
 302 0164 17EE900A 		vmov	r0, s15
 303 0168 FFF7FEFF 		bl	__aeabi_f2d
 304              	.LVL37:
 305 016c 0246     		mov	r2, r0
 306 016e 0B46     		mov	r3, r1
 307 0170 4A48     		ldr	r0, .L182+92
 308 0172 FFF7FEFF 		bl	commands_printf
 309              	.LVL38:
 310              		.loc 1 85 0
 311 0176 FFF7FEFF 		bl	mc_interface_get_last_inj_adc_isr_duration
 312              	.LVL39:
 313 017a 60EE087A 		vmul.f32	s15, s0, s16
 314 017e 17EE900A 		vmov	r0, s15
 315 0182 FFF7FEFF 		bl	__aeabi_f2d
 316              	.LVL40:
 317 0186 0246     		mov	r2, r0
 318 0188 0B46     		mov	r3, r1
 319 018a 4548     		ldr	r0, .L182+96
 320 018c FFF7FEFF 		bl	commands_printf
 321              	.LVL41:
 322              		.loc 1 86 0
 323 0190 FFF7FEFF 		bl	mc_interface_get_last_sample_adc_isr_duration
 324              	.LVL42:
 325 0194 60EE087A 		vmul.f32	s15, s0, s16
 326 0198 17EE900A 		vmov	r0, s15
 327 019c FFF7FEFF 		bl	__aeabi_f2d
 328              	.LVL43:
 329 01a0 0246     		mov	r2, r0
 330 01a2 0B46     		mov	r3, r1
 331 01a4 3F48     		ldr	r0, .L182+100
 332 01a6 FFF7FEFF 		bl	commands_printf
 333              	.LVL44:
 334 01aa B0E7     		b	.L1
 335              	.L164:
 336              		.loc 1 112 0
 337 01ac 3E4F     		ldr	r7, .L182+104
 338 01ae 3B68     		ldr	r3, [r7]
 339 01b0 002B     		cmp	r3, #0
 340 01b2 40F08F80 		bne	.L16
 341              		.loc 1 113 0
 342 01b6 3D48     		ldr	r0, .L182+108
ARM GAS  /var/folders/sv/kgmgr77579zbf78p2zlhkdfr0000gn/T//cc2SqDd0.s 			page 7


 343 01b8 FFF7FEFF 		bl	commands_printf
 344              	.LVL45:
 345 01bc A7E7     		b	.L1
 346              	.L161:
 347              	.LBB59:
 348              		.loc 1 91 0
 349 01be 11A9     		add	r1, sp, #68
 350 01c0 FFF7FEFF 		bl	chHeapStatus
 351              	.LVL46:
 352 01c4 0446     		mov	r4, r0
 353              	.LVL47:
 354              		.loc 1 92 0
 355 01c6 FFF7FEFF 		bl	chCoreGetStatusX
 356              	.LVL48:
 357 01ca 0146     		mov	r1, r0
 358 01cc 3848     		ldr	r0, .L182+112
 359 01ce FFF7FEFF 		bl	commands_printf
 360              	.LVL49:
 361              		.loc 1 93 0
 362 01d2 2146     		mov	r1, r4
 363 01d4 3748     		ldr	r0, .L182+116
 364 01d6 FFF7FEFF 		bl	commands_printf
 365              	.LVL50:
 366              		.loc 1 94 0
 367 01da 1199     		ldr	r1, [sp, #68]
 368 01dc 3648     		ldr	r0, .L182+120
 369 01de FFF7FEFF 		bl	commands_printf
 370              	.LVL51:
 371              	.LBE59:
 372 01e2 94E7     		b	.L1
 373              	.LVL52:
 374              	.L162:
 375              	.LBB60:
 376              		.loc 1 98 0
 377 01e4 3548     		ldr	r0, .L182+124
 378 01e6 364D     		ldr	r5, .L182+128
 379 01e8 FFF7FEFF 		bl	commands_printf
 380              	.LVL53:
 381              		.loc 1 99 0
 382 01ec 3548     		ldr	r0, .L182+132
 383 01ee FFF7FEFF 		bl	commands_printf
 384              	.LVL54:
 385              		.loc 1 100 0
 386 01f2 FFF7FEFF 		bl	chRegFirstThread
 387              	.LVL55:
 388 01f6 0446     		mov	r4, r0
 389              	.LVL56:
 390              	.L13:
 391              		.loc 1 105 0 discriminator 1
 392 01f8 216A     		ldr	r1, [r4, #32]
 393              		.loc 1 102 0 discriminator 1
 394 01fa A368     		ldr	r3, [r4, #8]
 395 01fc E268     		ldr	r2, [r4, #12]
 396 01fe 0391     		str	r1, [sp, #12]
 397 0200 A169     		ldr	r1, [r4, #24]
 398 0202 0291     		str	r1, [sp, #8]
 399 0204 217F     		ldrb	r1, [r4, #28]	@ zero_extendqisi2
ARM GAS  /var/folders/sv/kgmgr77579zbf78p2zlhkdfr0000gn/T//cc2SqDd0.s 			page 8


 400 0206 3048     		ldr	r0, .L182+136
 401              	.LVL57:
 402 0208 55F82110 		ldr	r1, [r5, r1, lsl #2]
 403 020c 0191     		str	r1, [sp, #4]
 404 020e A17F     		ldrb	r1, [r4, #30]	@ zero_extendqisi2
 405 0210 0139     		subs	r1, r1, #1
 406 0212 0091     		str	r1, [sp]
 407 0214 2146     		mov	r1, r4
 408 0216 FFF7FEFF 		bl	commands_printf
 409              	.LVL58:
 410              		.loc 1 106 0 discriminator 1
 411 021a 2046     		mov	r0, r4
 412 021c FFF7FEFF 		bl	chRegNextThread
 413              	.LVL59:
 414              		.loc 1 107 0 discriminator 1
 415 0220 0446     		mov	r4, r0
 416 0222 0028     		cmp	r0, #0
 417 0224 E8D1     		bne	.L13
 418              		.loc 1 108 0
 419 0226 2948     		ldr	r0, .L182+140
 420              	.LVL60:
 421 0228 FFF7FEFF 		bl	commands_printf
 422              	.LVL61:
 423              	.LBE60:
 424 022c 6FE7     		b	.L1
 425              	.LVL62:
 426              	.L163:
 427              		.loc 1 110 0
 428 022e FFF7FEFF 		bl	mc_interface_get_fault
 429              	.LVL63:
 430 0232 FFF7FEFF 		bl	mc_interface_fault_to_string
 431              	.LVL64:
 432 0236 0146     		mov	r1, r0
 433 0238 2548     		ldr	r0, .L182+144
 434 023a FFF7FEFF 		bl	commands_printf
 435              	.LVL65:
 436 023e 66E7     		b	.L1
 437              	.L183:
 438              		.align	2
 439              	.L182:
 440 0240 18000000 		.word	.LC4
 441 0244 00000000 		.word	.LANCHOR0
 442 0248 00000000 		.word	.LANCHOR1
 443 024c 34000000 		.word	.LC6
 444 0250 44000000 		.word	.LC8
 445 0254 5C000000 		.word	.LC10
 446 0258 E0000000 		.word	.LC14
 447 025c 04010000 		.word	.LC16
 448 0260 5C010000 		.word	.LC20
 449 0264 0C020000 		.word	.LC25
 450 0268 18020000 		.word	.LC27
 451 026c C8030000 		.word	.LC44
 452 0270 E8030000 		.word	.LC46
 453 0274 08040000 		.word	.LC48
 454 0278 C0040000 		.word	.LC60
 455 027c E0040000 		.word	.LC62
 456 0280 38060000 		.word	.LC73
ARM GAS  /var/folders/sv/kgmgr77579zbf78p2zlhkdfr0000gn/T//cc2SqDd0.s 			page 9


 457 0284 1C000000 		.word	.LC5
 458 0288 3C000000 		.word	.LC7
 459 028c E4000000 		.word	.LC15
 460 0290 00000000 		.word	0
 461 0294 4C000000 		.word	.LC9
 462 0298 00007A44 		.word	1148846080
 463 029c 70000000 		.word	.LC11
 464 02a0 90000000 		.word	.LC12
 465 02a4 B8000000 		.word	.LC13
 466 02a8 00000000 		.word	.LANCHOR3
 467 02ac 20020000 		.word	.LC28
 468 02b0 08010000 		.word	.LC17
 469 02b4 24010000 		.word	.LC18
 470 02b8 3C010000 		.word	.LC19
 471 02bc 64010000 		.word	.LC21
 472 02c0 00000000 		.word	.LANCHOR2
 473 02c4 A4010000 		.word	.LC22
 474 02c8 E4010000 		.word	.LC23
 475 02cc 08020000 		.word	.LC24
 476 02d0 14020000 		.word	.LC26
 477              	.L16:
 478              		.loc 1 115 0
 479 02d4 C348     		ldr	r0, .L184
 480 02d6 FFF7FEFF 		bl	commands_printf
 481              	.LVL66:
 482              	.LBB61:
 483              		.loc 1 116 0
 484 02da 3B68     		ldr	r3, [r7]
 485 02dc 002B     		cmp	r3, #0
 486 02de 7FF716AF 		ble	.L1
 487 02e2 C14E     		ldr	r6, .L184+4
 488              		.loc 1 116 0 is_stmt 0 discriminator 3
 489 02e4 0025     		movs	r5, #0
 490              	.LVL67:
 491              	.L18:
 492              		.loc 1 117 0 is_stmt 1 discriminator 3
 493 02e6 C5EBC503 		rsb	r3, r5, r5, lsl #3
 494 02ea 06EBC304 		add	r4, r6, r3, lsl #3
 495 02ee 16F83300 		ldrb	r0, [r6, r3, lsl #3]	@ zero_extendqisi2
 496 02f2 FFF7FEFF 		bl	mc_interface_fault_to_string
 497              	.LVL68:
 498 02f6 0146     		mov	r1, r0
 499 02f8 BC48     		ldr	r0, .L184+8
 500 02fa FFF7FEFF 		bl	commands_printf
 501              	.LVL69:
 502              		.loc 1 118 0 discriminator 3
 503 02fe 6068     		ldr	r0, [r4, #4]	@ float
 504 0300 FFF7FEFF 		bl	__aeabi_f2d
 505              	.LVL70:
 506 0304 0246     		mov	r2, r0
 507 0306 0B46     		mov	r3, r1
 508 0308 B948     		ldr	r0, .L184+12
 509 030a FFF7FEFF 		bl	commands_printf
 510              	.LVL71:
 511              		.loc 1 119 0 discriminator 3
 512 030e A068     		ldr	r0, [r4, #8]	@ float
 513 0310 FFF7FEFF 		bl	__aeabi_f2d
ARM GAS  /var/folders/sv/kgmgr77579zbf78p2zlhkdfr0000gn/T//cc2SqDd0.s 			page 10


 514              	.LVL72:
 515 0314 0246     		mov	r2, r0
 516 0316 0B46     		mov	r3, r1
 517 0318 B648     		ldr	r0, .L184+16
 518 031a FFF7FEFF 		bl	commands_printf
 519              	.LVL73:
 520              		.loc 1 120 0 discriminator 3
 521 031e E068     		ldr	r0, [r4, #12]	@ float
 522 0320 FFF7FEFF 		bl	__aeabi_f2d
 523              	.LVL74:
 524 0324 0246     		mov	r2, r0
 525 0326 0B46     		mov	r3, r1
 526 0328 B348     		ldr	r0, .L184+20
 527 032a FFF7FEFF 		bl	commands_printf
 528              	.LVL75:
 529              		.loc 1 121 0 discriminator 3
 530 032e 2069     		ldr	r0, [r4, #16]	@ float
 531 0330 FFF7FEFF 		bl	__aeabi_f2d
 532              	.LVL76:
 533 0334 0246     		mov	r2, r0
 534 0336 0B46     		mov	r3, r1
 535 0338 B048     		ldr	r0, .L184+24
 536 033a FFF7FEFF 		bl	commands_printf
 537              	.LVL77:
 538              		.loc 1 122 0 discriminator 3
 539 033e 6069     		ldr	r0, [r4, #20]	@ float
 540 0340 FFF7FEFF 		bl	__aeabi_f2d
 541              	.LVL78:
 542 0344 0246     		mov	r2, r0
 543 0346 0B46     		mov	r3, r1
 544 0348 AD48     		ldr	r0, .L184+28
 545 034a FFF7FEFF 		bl	commands_printf
 546              	.LVL79:
 547              		.loc 1 123 0 discriminator 3
 548 034e A169     		ldr	r1, [r4, #24]
 549 0350 AC48     		ldr	r0, .L184+32
 550 0352 FFF7FEFF 		bl	commands_printf
 551              	.LVL80:
 552              		.loc 1 124 0 discriminator 3
 553 0356 E169     		ldr	r1, [r4, #28]
 554 0358 AB48     		ldr	r0, .L184+36
 555 035a FFF7FEFF 		bl	commands_printf
 556              	.LVL81:
 557              		.loc 1 125 0 discriminator 3
 558 035e D4ED0A7A 		vldr.32	s15, [r4, #40]	@ int
 559 0362 94ED047A 		vldr.32	s14, [r4, #16]
 560 0366 A948     		ldr	r0, .L184+40
 561 0368 F8EEE77A 		vcvt.f32.s32	s15, s15
 562              		.loc 1 116 0 discriminator 3
 563 036c 0135     		adds	r5, r5, #1
 564              	.LVL82:
 565              		.loc 1 125 0 discriminator 3
 566 036e 67EE877A 		vmul.f32	s15, s15, s14
 567 0372 FDEEE77A 		vcvt.s32.f32	s15, s15
 568 0376 17EE901A 		vmov	r1, s15	@ int
 569 037a FFF7FEFF 		bl	commands_printf
 570              	.LVL83:
ARM GAS  /var/folders/sv/kgmgr77579zbf78p2zlhkdfr0000gn/T//cc2SqDd0.s 			page 11


 571              		.loc 1 126 0 discriminator 3
 572 037e 216A     		ldr	r1, [r4, #32]
 573 0380 A348     		ldr	r0, .L184+44
 574 0382 FFF7FEFF 		bl	commands_printf
 575              	.LVL84:
 576              		.loc 1 127 0 discriminator 3
 577 0386 616A     		ldr	r1, [r4, #36]
 578 0388 A248     		ldr	r0, .L184+48
 579 038a FFF7FEFF 		bl	commands_printf
 580              	.LVL85:
 581              		.loc 1 128 0 discriminator 3
 582 038e A16A     		ldr	r1, [r4, #40]
 583 0390 A148     		ldr	r0, .L184+52
 584 0392 FFF7FEFF 		bl	commands_printf
 585              	.LVL86:
 586              		.loc 1 129 0 discriminator 3
 587 0396 E16A     		ldr	r1, [r4, #44]
 588 0398 A048     		ldr	r0, .L184+56
 589 039a FFF7FEFF 		bl	commands_printf
 590              	.LVL87:
 591              		.loc 1 130 0 discriminator 3
 592 039e 206B     		ldr	r0, [r4, #48]	@ float
 593 03a0 FFF7FEFF 		bl	__aeabi_f2d
 594              	.LVL88:
 595 03a4 0246     		mov	r2, r0
 596 03a6 0B46     		mov	r3, r1
 597 03a8 9D48     		ldr	r0, .L184+60
 598 03aa FFF7FEFF 		bl	commands_printf
 599              	.LVL89:
 600              		.loc 1 136 0 discriminator 3
 601 03ae 9D48     		ldr	r0, .L184+64
 602 03b0 FFF7FEFF 		bl	commands_printf
 603              	.LVL90:
 604              		.loc 1 116 0 discriminator 3
 605 03b4 3B68     		ldr	r3, [r7]
 606 03b6 AB42     		cmp	r3, r5
 607 03b8 95DC     		bgt	.L18
 608 03ba A8E6     		b	.L1
 609              	.LVL91:
 610              	.L165:
 611              	.LBE61:
 612              		.loc 1 140 0
 613 03bc FFF7FEFF 		bl	mc_interface_get_rpm
 614              	.LVL92:
 615 03c0 10EE100A 		vmov	r0, s0
 616 03c4 FFF7FEFF 		bl	__aeabi_f2d
 617              	.LVL93:
 618 03c8 0246     		mov	r2, r0
 619 03ca 0B46     		mov	r3, r1
 620 03cc 9648     		ldr	r0, .L184+68
 621 03ce FFF7FEFF 		bl	commands_printf
 622              	.LVL94:
 623 03d2 9CE6     		b	.L1
 624              	.L166:
 625              		.loc 1 142 0
 626 03d4 FFF7FEFF 		bl	mc_interface_get_tachometer_value
 627              	.LVL95:
ARM GAS  /var/folders/sv/kgmgr77579zbf78p2zlhkdfr0000gn/T//cc2SqDd0.s 			page 12


 628 03d8 0146     		mov	r1, r0
 629 03da 9448     		ldr	r0, .L184+72
 630 03dc FFF7FEFF 		bl	commands_printf
 631              	.LVL96:
 632 03e0 95E6     		b	.L1
 633              	.L23:
 634              		.loc 1 216 0
 635 03e2 9349     		ldr	r1, .L184+76
 636 03e4 2846     		mov	r0, r5
 637 03e6 FFF7FEFF 		bl	strcmp
 638              	.LVL97:
 639 03ea 0028     		cmp	r0, #0
 640 03ec 00F05E81 		beq	.L170
 641              		.loc 1 221 0
 642 03f0 9049     		ldr	r1, .L184+80
 643 03f2 2846     		mov	r0, r5
 644 03f4 FFF7FEFF 		bl	strcmp
 645              	.LVL98:
 646 03f8 0646     		mov	r6, r0
 647 03fa 0028     		cmp	r0, #0
 648 03fc 00F01182 		beq	.L171
 649              		.loc 1 235 0
 650 0400 8D49     		ldr	r1, .L184+84
 651 0402 2846     		mov	r0, r5
 652 0404 FFF7FEFF 		bl	strcmp
 653              	.LVL99:
 654 0408 0028     		cmp	r0, #0
 655 040a 40F0B180 		bne	.L43
 656              		.loc 1 236 0
 657 040e 022C     		cmp	r4, #2
 658 0410 00F08F81 		beq	.L172
 659              	.L44:
 660              		.loc 1 264 0
 661 0414 8948     		ldr	r0, .L184+88
 662 0416 FFF7FEFF 		bl	commands_printf
 663              	.LVL100:
 664 041a 78E6     		b	.L1
 665              	.L168:
 666              		.loc 1 169 0
 667 041c 884B     		ldr	r3, .L184+92
 668 041e DFED896A 		vldr.32	s13, .L184+96
 669 0422 1B8A     		ldrh	r3, [r3, #16]
 670 0424 9FED887A 		vldr.32	s14, .L184+100
 671 0428 9BB2     		uxth	r3, r3
 672 042a 07EE903A 		vmov	s15, r3	@ int
 673 042e F8EE677A 		vcvt.f32.u32	s15, s15
 674 0432 67EEA67A 		vmul.f32	s15, s15, s13
 675 0436 67EE877A 		vmul.f32	s15, s15, s14
 676 043a 17EE900A 		vmov	r0, s15
 677 043e FFF7FEFF 		bl	__aeabi_f2d
 678              	.LVL101:
 679 0442 0246     		mov	r2, r0
 680 0444 0B46     		mov	r3, r1
 681 0446 8148     		ldr	r0, .L184+104
 682 0448 FFF7FEFF 		bl	commands_printf
 683              	.LVL102:
 684 044c 5FE6     		b	.L1
ARM GAS  /var/folders/sv/kgmgr77579zbf78p2zlhkdfr0000gn/T//cc2SqDd0.s 			page 13


 685              	.L167:
 686              	.LVL103:
 687              	.LBB62:
 688              	.LBB63:
 689              	.LBB64:
 690              	.LBB65:
 691              	.LBB66:
 692              		.file 2 "ChibiOS_3.0.2/os/ext/CMSIS/include/core_cmFunc.h"
 693              		.loc 2 546 0
 694 044e 2023     		movs	r3, #32
 695              		.syntax unified
 696              	@ 546 "ChibiOS_3.0.2/os/ext/CMSIS/include/core_cmFunc.h" 1
 697 0450 83F31188 		MSR basepri, r3
 698              	@ 0 "" 2
 699              	.LVL104:
 700              		.thumb
 701              		.syntax unified
 702              	.LBE66:
 703              	.LBE65:
 704              	.LBE64:
 705              	.LBE63:
 706              		.loc 1 145 0
 707 0454 7E4B     		ldr	r3, .L184+108
 708              		.loc 1 146 0
 709 0456 7F49     		ldr	r1, .L184+112
 710              		.loc 1 145 0
 711 0458 5A6A     		ldr	r2, [r3, #36]
 712 045a 0E92     		str	r2, [sp, #56]
 713              		.loc 1 146 0
 714 045c 4A6A     		ldr	r2, [r1, #36]
 715 045e 0F92     		str	r2, [sp, #60]
 716              		.loc 1 147 0
 717 0460 1A68     		ldr	r2, [r3]
 718 0462 C2F30012 		ubfx	r2, r2, #4, #1
 719 0466 1092     		str	r2, [sp, #64]
 720              		.loc 1 148 0
 721 0468 0A68     		ldr	r2, [r1]
 722 046a C2F30012 		ubfx	r2, r2, #4, #1
 723 046e 1192     		str	r2, [sp, #68]
 724              	.LVL105:
 725              	.LBB67:
 726              	.LBB68:
 727              	.LBB69:
 728              	.LBB70:
 729              	.LBB71:
 730              		.loc 2 546 0
 731              		.syntax unified
 732              	@ 546 "ChibiOS_3.0.2/os/ext/CMSIS/include/core_cmFunc.h" 1
 733 0470 80F31188 		MSR basepri, r0
 734              	@ 0 "" 2
 735              	.LVL106:
 736              		.thumb
 737              		.syntax unified
 738              	.LBE71:
 739              	.LBE70:
 740              	.LBE69:
 741              	.LBE68:
ARM GAS  /var/folders/sv/kgmgr77579zbf78p2zlhkdfr0000gn/T//cc2SqDd0.s 			page 14


 742              	.LBE67:
 743              		.loc 1 157 0
 744 0474 7848     		ldr	r0, .L184+116
 745              		.loc 1 150 0
 746 0476 D3F834A0 		ldr	r10, [r3, #52]
 747              	.LVL107:
 748              		.loc 1 151 0
 749 047a D3F83890 		ldr	r9, [r3, #56]
 750              	.LVL108:
 751              		.loc 1 152 0
 752 047e D3F83C80 		ldr	r8, [r3, #60]
 753              	.LVL109:
 754              		.loc 1 153 0
 755 0482 DF6A     		ldr	r7, [r3, #44]
 756              	.LVL110:
 757              		.loc 1 154 0
 758 0484 4E6B     		ldr	r6, [r1, #52]
 759              	.LVL111:
 760              		.loc 1 155 0
 761 0486 1D6C     		ldr	r5, [r3, #64]
 762              	.LVL112:
 763              		.loc 1 156 0
 764 0488 8C6B     		ldr	r4, [r1, #56]
 765              	.LVL113:
 766              		.loc 1 157 0
 767 048a 0E99     		ldr	r1, [sp, #56]
 768 048c FFF7FEFF 		bl	commands_printf
 769              	.LVL114:
 770              		.loc 1 158 0
 771 0490 0F99     		ldr	r1, [sp, #60]
 772 0492 7248     		ldr	r0, .L184+120
 773 0494 FFF7FEFF 		bl	commands_printf
 774              	.LVL115:
 775              		.loc 1 159 0
 776 0498 5146     		mov	r1, r10
 777 049a 7148     		ldr	r0, .L184+124
 778 049c FFF7FEFF 		bl	commands_printf
 779              	.LVL116:
 780              		.loc 1 160 0
 781 04a0 4946     		mov	r1, r9
 782 04a2 7048     		ldr	r0, .L184+128
 783 04a4 FFF7FEFF 		bl	commands_printf
 784              	.LVL117:
 785              		.loc 1 161 0
 786 04a8 4146     		mov	r1, r8
 787 04aa 6F48     		ldr	r0, .L184+132
 788 04ac FFF7FEFF 		bl	commands_printf
 789              	.LVL118:
 790              		.loc 1 162 0
 791 04b0 3946     		mov	r1, r7
 792 04b2 6E48     		ldr	r0, .L184+136
 793 04b4 FFF7FEFF 		bl	commands_printf
 794              	.LVL119:
 795              		.loc 1 163 0
 796 04b8 1099     		ldr	r1, [sp, #64]
 797 04ba 6D48     		ldr	r0, .L184+140
 798 04bc FFF7FEFF 		bl	commands_printf
ARM GAS  /var/folders/sv/kgmgr77579zbf78p2zlhkdfr0000gn/T//cc2SqDd0.s 			page 15


 799              	.LVL120:
 800              		.loc 1 164 0
 801 04c0 1199     		ldr	r1, [sp, #68]
 802 04c2 6C48     		ldr	r0, .L184+144
 803 04c4 FFF7FEFF 		bl	commands_printf
 804              	.LVL121:
 805              		.loc 1 165 0
 806 04c8 3146     		mov	r1, r6
 807 04ca 6B48     		ldr	r0, .L184+148
 808 04cc FFF7FEFF 		bl	commands_printf
 809              	.LVL122:
 810              		.loc 1 166 0
 811 04d0 2946     		mov	r1, r5
 812 04d2 6A48     		ldr	r0, .L184+152
 813 04d4 FFF7FEFF 		bl	commands_printf
 814              	.LVL123:
 815              		.loc 1 167 0
 816 04d8 2146     		mov	r1, r4
 817 04da 6948     		ldr	r0, .L184+156
 818 04dc FFF7FEFF 		bl	commands_printf
 819              	.LVL124:
 820              	.LBE62:
 821 04e0 15E6     		b	.L1
 822              	.LVL125:
 823              	.L169:
 824              	.LBB72:
 825              		.loc 1 173 0
 826 04e2 684B     		ldr	r3, .L184+160
 827              		.loc 1 176 0
 828 04e4 6849     		ldr	r1, .L184+164
 829 04e6 1998     		ldr	r0, [sp, #100]
 830              		.loc 1 173 0
 831 04e8 0B93     		str	r3, [sp, #44]	@ float
 832              		.loc 1 176 0
 833 04ea 0BAA     		add	r2, sp, #44
 834              		.loc 1 174 0
 835 04ec 0C93     		str	r3, [sp, #48]	@ float
 836              		.loc 1 175 0
 837 04ee 0D93     		str	r3, [sp, #52]	@ float
 838              		.loc 1 176 0
 839 04f0 FFF7FEFF 		bl	sscanf
 840              	.LVL126:
 841              		.loc 1 177 0
 842 04f4 0CAA     		add	r2, sp, #48
 843 04f6 6449     		ldr	r1, .L184+164
 844 04f8 1A98     		ldr	r0, [sp, #104]
 845 04fa FFF7FEFF 		bl	sscanf
 846              	.LVL127:
 847              		.loc 1 178 0
 848 04fe 0DAA     		add	r2, sp, #52
 849 0500 1B98     		ldr	r0, [sp, #108]
 850 0502 6149     		ldr	r1, .L184+164
 851 0504 FFF7FEFF 		bl	sscanf
 852              	.LVL128:
 853              		.loc 1 180 0
 854 0508 9DED0B0A 		vldr.32	s0, [sp, #44]
 855 050c B5EEC00A 		vcmpe.f32	s0, #0
ARM GAS  /var/folders/sv/kgmgr77579zbf78p2zlhkdfr0000gn/T//cc2SqDd0.s 			page 16


 856 0510 F1EE10FA 		vmrs	APSR_nzcv, FPSCR
 857 0514 28DD     		ble	.L85
 858              		.loc 1 180 0 is_stmt 0 discriminator 1
 859 0516 5D4B     		ldr	r3, .L184+168
 860 0518 D3ED017A 		vldr.32	s15, [r3, #4]
 861 051c B4EEE70A 		vcmpe.f32	s0, s15
 862 0520 F1EE10FA 		vmrs	APSR_nzcv, FPSCR
 863 0524 20D5     		bpl	.L85
 864              		.loc 1 181 0 is_stmt 1 discriminator 2
 865 0526 DDED0C0A 		vldr.32	s1, [sp, #48]
 866              		.loc 1 180 0 discriminator 2
 867 052a F2EE047A 		vmov.f32	s15, #1.0e+1
 868 052e F4EEE70A 		vcmpe.f32	s1, s15
 869 0532 F1EE10FA 		vmrs	APSR_nzcv, FPSCR
 870 0536 17DD     		ble	.L85
 871              		.loc 1 181 0
 872 0538 DFED557A 		vldr.32	s15, .L184+172
 873 053c F4EEE70A 		vcmpe.f32	s1, s15
 874 0540 F1EE10FA 		vmrs	APSR_nzcv, FPSCR
 875 0544 10D5     		bpl	.L85
 876              		.loc 1 182 0 discriminator 1
 877 0546 9DED0D1A 		vldr.32	s2, [sp, #52]
 878              		.loc 1 181 0 discriminator 1
 879 054a DFED527A 		vldr.32	s15, .L184+176
 880 054e B4EEE71A 		vcmpe.f32	s2, s15
 881 0552 F1EE10FA 		vmrs	APSR_nzcv, FPSCR
 882 0556 07DD     		ble	.L85
 883              		.loc 1 182 0
 884 0558 DFED4F7A 		vldr.32	s15, .L184+180
 885 055c B4EEE71A 		vcmpe.f32	s2, s15
 886 0560 F1EE10FA 		vmrs	APSR_nzcv, FPSCR
 887 0564 00F1BE80 		bmi	.L173
 888              	.LVL129:
 889              	.L85:
 890              	.LBE72:
 891              	.LBB76:
 892              		.loc 1 552 0
 893 0568 4C48     		ldr	r0, .L184+184
 894 056a FFF7FEFF 		bl	commands_printf
 895              	.LVL130:
 896 056e CEE5     		b	.L1
 897              	.LVL131:
 898              	.L43:
 899              	.LBE76:
 900              		.loc 1 266 0
 901 0570 4B49     		ldr	r1, .L184+188
 902 0572 2846     		mov	r0, r5
 903 0574 FFF7FEFF 		bl	strcmp
 904              	.LVL132:
 905 0578 0028     		cmp	r0, #0
 906 057a 40F0AC81 		bne	.L51
 907              		.loc 1 267 0
 908 057e 022C     		cmp	r4, #2
 909 0580 7FF448AF 		bne	.L44
 910              	.LBB77:
 911              		.loc 1 268 0
 912 0584 11AC     		add	r4, sp, #68
ARM GAS  /var/folders/sv/kgmgr77579zbf78p2zlhkdfr0000gn/T//cc2SqDd0.s 			page 17


 913              	.LVL133:
 914 0586 3F4B     		ldr	r3, .L184+160
 915              		.loc 1 269 0
 916 0588 1998     		ldr	r0, [sp, #100]
 917 058a 3F49     		ldr	r1, .L184+164
 918              		.loc 1 268 0
 919 058c 1193     		str	r3, [sp, #68]	@ float
 920              		.loc 1 269 0
 921 058e 2246     		mov	r2, r4
 922 0590 FFF7FEFF 		bl	sscanf
 923              	.LVL134:
 924              		.loc 1 271 0
 925 0594 D4ED007A 		vldr.32	s15, [r4]
 926 0598 F5EEC07A 		vcmpe.f32	s15, #0
 927 059c F1EE10FA 		vmrs	APSR_nzcv, FPSCR
 928 05a0 E2DD     		ble	.L85
 929              		.loc 1 271 0 is_stmt 0 discriminator 1
 930 05a2 3A4D     		ldr	r5, .L184+168
 931 05a4 95ED017A 		vldr.32	s14, [r5, #4]
 932 05a8 F4EEC77A 		vcmpe.f32	s15, s14
 933 05ac F1EE10FA 		vmrs	APSR_nzcv, FPSCR
 934 05b0 DAD8     		bhi	.L85
 935              		.loc 1 272 0 is_stmt 1
 936 05b2 0323     		movs	r3, #3
 937              		.loc 1 273 0
 938 05b4 2846     		mov	r0, r5
 939              		.loc 1 272 0
 940 05b6 AB70     		strb	r3, [r5, #2]
 941              		.loc 1 273 0
 942 05b8 FFF7FEFF 		bl	mc_interface_set_configuration
 943              	.LVL135:
 944              		.loc 1 275 0
 945 05bc 4FF4FA60 		mov	r0, #2000
 946 05c0 94ED000A 		vldr.32	s0, [r4]
 947 05c4 FFF7FEFF 		bl	mcpwm_foc_measure_resistance
 948              	.LVL136:
 949 05c8 10EE100A 		vmov	r0, s0
 950 05cc FFF7FEFF 		bl	__aeabi_f2d
 951              	.LVL137:
 952 05d0 0246     		mov	r2, r0
 953 05d2 0B46     		mov	r3, r1
 954 05d4 3348     		ldr	r0, .L184+192
 955 05d6 FFF7FEFF 		bl	commands_printf
 956              	.LVL138:
 957              		.loc 1 277 0
 958 05da 3348     		ldr	r0, .L184+196
 959 05dc FFF7FEFF 		bl	mc_interface_set_configuration
 960              	.LVL139:
 961 05e0 95E5     		b	.L1
 962              	.L185:
 963 05e2 00BF     		.align	2
 964              	.L184:
 965 05e4 44020000 		.word	.LC29
 966 05e8 00000000 		.word	.LANCHOR4
 967 05ec 78020000 		.word	.LC30
 968 05f0 90020000 		.word	.LC31
 969 05f4 A8020000 		.word	.LC32
ARM GAS  /var/folders/sv/kgmgr77579zbf78p2zlhkdfr0000gn/T//cc2SqDd0.s 			page 18


 970 05f8 C0020000 		.word	.LC33
 971 05fc D8020000 		.word	.LC34
 972 0600 F0020000 		.word	.LC35
 973 0604 08030000 		.word	.LC36
 974 0608 20030000 		.word	.LC37
 975 060c 38030000 		.word	.LC38
 976 0610 50030000 		.word	.LC39
 977 0614 68030000 		.word	.LC40
 978 0618 80030000 		.word	.LC41
 979 061c 98030000 		.word	.LC42
 980 0620 B0030000 		.word	.LC43
 981 0624 18000000 		.word	.LC4
 982 0628 CC030000 		.word	.LC45
 983 062c F0030000 		.word	.LC47
 984 0630 60060000 		.word	.LC74
 985 0634 BC060000 		.word	.LC78
 986 0638 98070000 		.word	.LC86
 987 063c F4070000 		.word	.LC91
 988 0640 00000000 		.word	ADC_Value
 989 0644 6740533A 		.word	978534503
 990 0648 74D19541 		.word	1100337524
 991 064c C8040000 		.word	.LC61
 992 0650 00000140 		.word	1073807360
 993 0654 00040140 		.word	1073808384
 994 0658 0C040000 		.word	.LC49
 995 065c 1C040000 		.word	.LC50
 996 0660 2C040000 		.word	.LC51
 997 0664 3C040000 		.word	.LC52
 998 0668 4C040000 		.word	.LC53
 999 066c 5C040000 		.word	.LC54
 1000 0670 64040000 		.word	.LC55
 1001 0674 70040000 		.word	.LC56
 1002 0678 7C040000 		.word	.LC57
 1003 067c 90040000 		.word	.LC58
 1004 0680 A8040000 		.word	.LC59
 1005 0684 000080BF 		.word	-1082130432
 1006 0688 F0040000 		.word	.LC63
 1007 068c 00000000 		.word	.LANCHOR0
 1008 0690 00803B45 		.word	1161527296
 1009 0694 0AD7A33C 		.word	1017370378
 1010 0698 CDCC4C3F 		.word	1061997773
 1011 069c 20060000 		.word	.LC72
 1012 06a0 1C080000 		.word	.LC92
 1013 06a4 28080000 		.word	.LC93
 1014 06a8 00000000 		.word	.LANCHOR1
 1015              	.LVL140:
 1016              	.L170:
 1017              	.LBE77:
 1018              	.LBB78:
 1019              		.loc 1 217 0 discriminator 7
 1020 06ac 11A8     		add	r0, sp, #68
 1021 06ae FFF7FEFF 		bl	mcpwm_get_rpm_dep
 1022              	.LVL141:
 1023              		.loc 1 218 0 discriminator 7
 1024 06b2 1198     		ldr	r0, [sp, #68]	@ float
 1025 06b4 FFF7FEFF 		bl	__aeabi_f2d
 1026              	.LVL142:
ARM GAS  /var/folders/sv/kgmgr77579zbf78p2zlhkdfr0000gn/T//cc2SqDd0.s 			page 19


 1027 06b8 0246     		mov	r2, r0
 1028 06ba 0B46     		mov	r3, r1
 1029 06bc A848     		ldr	r0, .L186
 1030 06be FFF7FEFF 		bl	commands_printf
 1031              	.LVL143:
 1032              		.loc 1 219 0 discriminator 7
 1033 06c2 1298     		ldr	r0, [sp, #72]	@ float
 1034 06c4 FFF7FEFF 		bl	__aeabi_f2d
 1035              	.LVL144:
 1036 06c8 0246     		mov	r2, r0
 1037 06ca 0B46     		mov	r3, r1
 1038 06cc A548     		ldr	r0, .L186+4
 1039 06ce FFF7FEFF 		bl	commands_printf
 1040              	.LVL145:
 1041              		.loc 1 220 0 discriminator 7
 1042 06d2 1398     		ldr	r0, [sp, #76]	@ float
 1043 06d4 FFF7FEFF 		bl	__aeabi_f2d
 1044              	.LVL146:
 1045 06d8 0246     		mov	r2, r0
 1046 06da 0B46     		mov	r3, r1
 1047 06dc A248     		ldr	r0, .L186+8
 1048 06de FFF7FEFF 		bl	commands_printf
 1049              	.LVL147:
 1050              	.LBE78:
 1051 06e2 14E5     		b	.L1
 1052              	.L173:
 1053              	.LBB79:
 1054              	.LBB73:
 1055              		.loc 1 188 0
 1056 06e4 10AB     		add	r3, sp, #64
 1057 06e6 11AA     		add	r2, sp, #68
 1058 06e8 0FA9     		add	r1, sp, #60
 1059 06ea 0EA8     		add	r0, sp, #56
 1060 06ec FFF7FEFF 		bl	conf_general_detect_motor_param
 1061              	.LVL148:
 1062 06f0 0028     		cmp	r0, #0
 1063 06f2 00F09280 		beq	.L32
 1064              		.loc 1 189 0
 1065 06f6 0E98     		ldr	r0, [sp, #56]	@ float
 1066 06f8 FFF7FEFF 		bl	__aeabi_f2d
 1067              	.LVL149:
 1068 06fc 0246     		mov	r2, r0
 1069 06fe 0B46     		mov	r3, r1
 1070 0700 9A48     		ldr	r0, .L186+12
 1071 0702 FFF7FEFF 		bl	commands_printf
 1072              	.LVL150:
 1073              		.loc 1 190 0
 1074 0706 0F98     		ldr	r0, [sp, #60]	@ float
 1075 0708 FFF7FEFF 		bl	__aeabi_f2d
 1076              	.LVL151:
 1077 070c 0246     		mov	r2, r0
 1078 070e 0B46     		mov	r3, r1
 1079 0710 9748     		ldr	r0, .L186+16
 1080 0712 FFF7FEFF 		bl	commands_printf
 1081              	.LVL152:
 1082              		.loc 1 192 0
 1083 0716 109B     		ldr	r3, [sp, #64]
ARM GAS  /var/folders/sv/kgmgr77579zbf78p2zlhkdfr0000gn/T//cc2SqDd0.s 			page 20


 1084 0718 002B     		cmp	r3, #0
 1085 071a 7CD0     		beq	.L174
 1086              		.loc 1 197 0
 1087 071c 591C     		adds	r1, r3, #1
 1088 071e 5CD0     		beq	.L175
 1089              		.loc 1 202 0
 1090 0720 9A1C     		adds	r2, r3, #2
 1091 0722 56D0     		beq	.L176
 1092              		.loc 1 204 0
 1093 0724 0333     		adds	r3, r3, #3
 1094 0726 7FF4F2AC 		bne	.L1
 1095              		.loc 1 205 0
 1096 072a 9248     		ldr	r0, .L186+20
 1097 072c FFF7FEFF 		bl	commands_printf
 1098              	.LVL153:
 1099 0730 EDE4     		b	.L1
 1100              	.L172:
 1101              	.LBE73:
 1102              	.LBE79:
 1103              	.LBB80:
 1104              		.loc 1 237 0
 1105 0732 914B     		ldr	r3, .L186+24
 1106              		.loc 1 238 0
 1107 0734 1998     		ldr	r0, [sp, #100]
 1108 0736 9149     		ldr	r1, .L186+28
 1109              		.loc 1 237 0
 1110 0738 0F93     		str	r3, [sp, #60]	@ float
 1111              		.loc 1 238 0
 1112 073a 0FAA     		add	r2, sp, #60
 1113 073c FFF7FEFF 		bl	sscanf
 1114              	.LVL154:
 1115              		.loc 1 240 0
 1116 0740 DDED0F7A 		vldr.32	s15, [sp, #60]
 1117 0744 F5EEC07A 		vcmpe.f32	s15, #0
 1118 0748 F1EE10FA 		vmrs	APSR_nzcv, FPSCR
 1119 074c 7FF70CAF 		ble	.L85
 1120              		.loc 1 240 0 is_stmt 0 discriminator 1
 1121 0750 8B4D     		ldr	r5, .L186+32
 1122 0752 95ED017A 		vldr.32	s14, [r5, #4]
 1123 0756 F4EEC77A 		vcmpe.f32	s15, s14
 1124 075a F1EE10FA 		vmrs	APSR_nzcv, FPSCR
 1125 075e 3FF603AF 		bhi	.L85
 1126              		.loc 1 241 0 is_stmt 1
 1127 0762 FFF7FEFF 		bl	encoder_is_configured
 1128              	.LVL155:
 1129 0766 0028     		cmp	r0, #0
 1130 0768 51D0     		beq	.L48
 1131              	.LBB81:
 1132              		.loc 1 243 0
 1133 076a 0323     		movs	r3, #3
 1134              		.loc 1 244 0
 1135 076c 2846     		mov	r0, r5
 1136              		.loc 1 242 0
 1137 076e AE78     		ldrb	r6, [r5, #2]	@ zero_extendqisi2
 1138              	.LVL156:
 1139              		.loc 1 243 0
 1140 0770 AB70     		strb	r3, [r5, #2]
ARM GAS  /var/folders/sv/kgmgr77579zbf78p2zlhkdfr0000gn/T//cc2SqDd0.s 			page 21


 1141              		.loc 1 246 0
 1142 0772 0024     		movs	r4, #0
 1143              	.LVL157:
 1144              		.loc 1 244 0
 1145 0774 FFF7FEFF 		bl	mc_interface_set_configuration
 1146              	.LVL158:
 1147              		.loc 1 248 0
 1148 0778 0027     		movs	r7, #0
 1149              		.loc 1 249 0
 1150 077a 9DED0F0A 		vldr.32	s0, [sp, #60]
 1151              		.loc 1 246 0
 1152 077e 1094     		str	r4, [sp, #64]	@ float
 1153              		.loc 1 249 0
 1154 0780 11AA     		add	r2, sp, #68
 1155 0782 0EAB     		add	r3, sp, #56
 1156 0784 10A9     		add	r1, sp, #64
 1157 0786 0120     		movs	r0, #1
 1158              		.loc 1 247 0
 1159 0788 1194     		str	r4, [sp, #68]	@ float
 1160              		.loc 1 248 0
 1161 078a 8DF83870 		strb	r7, [sp, #56]
 1162              		.loc 1 249 0
 1163 078e FFF7FEFF 		bl	mcpwm_foc_encoder_detect
 1164              	.LVL159:
 1165              		.loc 1 252 0
 1166 0792 2846     		mov	r0, r5
 1167              		.loc 1 251 0
 1168 0794 AE70     		strb	r6, [r5, #2]
 1169              		.loc 1 252 0
 1170 0796 FFF7FEFF 		bl	mc_interface_set_configuration
 1171              	.LVL160:
 1172              		.loc 1 254 0
 1173 079a 1098     		ldr	r0, [sp, #64]	@ float
 1174 079c FFF7FEFF 		bl	__aeabi_f2d
 1175              	.LVL161:
 1176 07a0 0246     		mov	r2, r0
 1177 07a2 0B46     		mov	r3, r1
 1178 07a4 7748     		ldr	r0, .L186+36
 1179 07a6 FFF7FEFF 		bl	commands_printf
 1180              	.LVL162:
 1181              		.loc 1 255 0
 1182 07aa 1198     		ldr	r0, [sp, #68]	@ float
 1183 07ac FFF7FEFF 		bl	__aeabi_f2d
 1184              	.LVL163:
 1185 07b0 0246     		mov	r2, r0
 1186 07b2 0B46     		mov	r3, r1
 1187 07b4 7448     		ldr	r0, .L186+40
 1188 07b6 FFF7FEFF 		bl	commands_printf
 1189              	.LVL164:
 1190              		.loc 1 256 0
 1191 07ba 9DF83810 		ldrb	r1, [sp, #56]	@ zero_extendqisi2
 1192 07be 734A     		ldr	r2, .L186+44
 1193 07c0 734B     		ldr	r3, .L186+48
 1194 07c2 7448     		ldr	r0, .L186+52
 1195 07c4 B942     		cmp	r1, r7
 1196 07c6 14BF     		ite	ne
 1197 07c8 1146     		movne	r1, r2
ARM GAS  /var/folders/sv/kgmgr77579zbf78p2zlhkdfr0000gn/T//cc2SqDd0.s 			page 22


 1198 07ca 1946     		moveq	r1, r3
 1199 07cc FFF7FEFF 		bl	commands_printf
 1200              	.LVL165:
 1201              	.LBE81:
 1202 07d0 9DE4     		b	.L1
 1203              	.LVL166:
 1204              	.L176:
 1205              	.LBE80:
 1206              	.LBB82:
 1207              	.LBB74:
 1208              		.loc 1 203 0
 1209 07d2 7148     		ldr	r0, .L186+56
 1210 07d4 FFF7FEFF 		bl	commands_printf
 1211              	.LVL167:
 1212 07d8 99E4     		b	.L1
 1213              	.L175:
 1214              		.loc 1 198 0
 1215 07da 7048     		ldr	r0, .L186+60
 1216              	.L152:
 1217 07dc FFF7FEFF 		bl	commands_printf
 1218              	.LVL168:
 1219              		.loc 1 199 0
 1220 07e0 9DF94700 		ldrsb	r0, [sp, #71]
 1221 07e4 9DF94A60 		ldrsb	r6, [sp, #74]
 1222 07e8 9DF94950 		ldrsb	r5, [sp, #73]
 1223 07ec 9DF94840 		ldrsb	r4, [sp, #72]
 1224              	.LVL169:
 1225 07f0 9DF94B70 		ldrsb	r7, [sp, #75]
 1226 07f4 9DF94630 		ldrsb	r3, [sp, #70]
 1227 07f8 9DF94520 		ldrsb	r2, [sp, #69]
 1228 07fc 9DF94410 		ldrsb	r1, [sp, #68]
 1229 0800 0497     		str	r7, [sp, #16]
 1230 0802 8DE87100 		stmia	sp, {r0, r4, r5, r6}
 1231 0806 6648     		ldr	r0, .L186+64
 1232 0808 FFF7FEFF 		bl	commands_printf
 1233              	.LVL170:
 1234 080c 7FE4     		b	.L1
 1235              	.LVL171:
 1236              	.L48:
 1237              	.LBE74:
 1238              	.LBE82:
 1239              	.LBB83:
 1240              		.loc 1 258 0
 1241 080e 6548     		ldr	r0, .L186+68
 1242 0810 FFF7FEFF 		bl	commands_printf
 1243              	.LVL172:
 1244 0814 7BE4     		b	.L1
 1245              	.L174:
 1246              	.LBE83:
 1247              	.LBB84:
 1248              	.LBB75:
 1249              		.loc 1 193 0
 1250 0816 6448     		ldr	r0, .L186+72
 1251 0818 E0E7     		b	.L152
 1252              	.L32:
 1253              		.loc 1 208 0
 1254 081a 6448     		ldr	r0, .L186+76
ARM GAS  /var/folders/sv/kgmgr77579zbf78p2zlhkdfr0000gn/T//cc2SqDd0.s 			page 23


 1255 081c FFF7FEFF 		bl	commands_printf
 1256              	.LVL173:
 1257              	.LBE75:
 1258              		.loc 1 182 0
 1259 0820 75E4     		b	.L1
 1260              	.L171:
 1261              	.LBE84:
 1262              		.loc 1 222 0
 1263 0822 6348     		ldr	r0, .L186+80
 1264              	.LBB85:
 1265              	.LBB86:
 1266              	.LBB87:
 1267              	.LBB88:
 1268              	.LBB89:
 1269              	.LBB90:
 1270              		.file 3 "ChibiOS_3.0.2/os/rt/include/chvt.h"
 1271              		.loc 3 231 0
 1272 0824 634F     		ldr	r7, .L186+84
 1273              	.LBE90:
 1274              	.LBE89:
 1275              	.LBE88:
 1276              	.LBE87:
 1277              		.loc 1 226 0
 1278 0826 9FED648A 		vldr.32	s16, .L186+88
 1279              		.loc 1 229 0
 1280 082a DFED648A 		vldr.32	s17, .L186+92
 1281              	.LBE86:
 1282              	.LBE85:
 1283              		.loc 1 222 0
 1284 082e FFF7FEFF 		bl	commands_printf
 1285              	.LVL174:
 1286              	.LBB101:
 1287              		.loc 1 223 0
 1288 0832 3446     		mov	r4, r6
 1289              	.LVL175:
 1290 0834 02E0     		b	.L42
 1291              	.LVL176:
 1292              	.L40:
 1293              		.loc 1 223 0 is_stmt 0 discriminator 2
 1294 0836 0A2C     		cmp	r4, #10
 1295 0838 3FF469AC 		beq	.L1
 1296              	.LVL177:
 1297              	.L42:
 1298              	.LBB99:
 1299              		.loc 1 224 0 is_stmt 1
 1300 083c 2046     		mov	r0, r4
 1301 083e FFF7FEFF 		bl	comm_can_get_status_msg_index
 1302              	.LVL178:
 1303              		.loc 1 226 0
 1304 0842 0168     		ldr	r1, [r0]
 1305 0844 0029     		cmp	r1, #0
 1306              		.loc 1 224 0
 1307 0846 0546     		mov	r5, r0
 1308              	.LVL179:
 1309              		.loc 1 226 0
 1310 0848 B7EE007A 		vmov.f32	s14, #1.0e+0
 1311              	.LBE99:
ARM GAS  /var/folders/sv/kgmgr77579zbf78p2zlhkdfr0000gn/T//cc2SqDd0.s 			page 24


 1312              		.loc 1 223 0
 1313 084c 04F10104 		add	r4, r4, #1
 1314              	.LVL180:
 1315              	.LBB100:
 1316              		.loc 1 226 0
 1317 0850 F1DB     		blt	.L40
 1318              	.LBB94:
 1319              	.LBB93:
 1320              	.LBB92:
 1321              	.LBB91:
 1322              		.loc 3 231 0 discriminator 1
 1323 0852 BB6A     		ldr	r3, [r7, #40]
 1324              	.LVL181:
 1325              	.LBE91:
 1326              	.LBE92:
 1327              	.LBE93:
 1328              	.LBE94:
 1329              		.loc 1 226 0 discriminator 1
 1330 0854 4268     		ldr	r2, [r0, #4]
 1331 0856 9B1A     		subs	r3, r3, r2
 1332 0858 07EE903A 		vmov	s15, r3	@ int
 1333 085c F8EE677A 		vcvt.f32.u32	s15, s15
 1334 0860 C7EE886A 		vdiv.f32	s13, s15, s16
 1335 0864 F4EEC76A 		vcmpe.f32	s13, s14
 1336 0868 F1EE10FA 		vmrs	APSR_nzcv, FPSCR
 1337 086c E3D5     		bpl	.L40
 1338              		.loc 1 227 0
 1339 086e 5448     		ldr	r0, .L186+96
 1340              	.LVL182:
 1341 0870 FFF7FEFF 		bl	commands_printf
 1342              	.LVL183:
 1343              		.loc 1 228 0
 1344 0874 6968     		ldr	r1, [r5, #4]
 1345 0876 5348     		ldr	r0, .L186+100
 1346 0878 FFF7FEFF 		bl	commands_printf
 1347              	.LVL184:
 1348              		.loc 1 229 0
 1349 087c 6A68     		ldr	r2, [r5, #4]
 1350              	.LBB95:
 1351              	.LBB96:
 1352              	.LBB97:
 1353              	.LBB98:
 1354              		.loc 3 231 0
 1355 087e BB6A     		ldr	r3, [r7, #40]
 1356              	.LVL185:
 1357              	.LBE98:
 1358              	.LBE97:
 1359              	.LBE96:
 1360              	.LBE95:
 1361              		.loc 1 229 0
 1362 0880 9B1A     		subs	r3, r3, r2
 1363 0882 07EE903A 		vmov	s15, r3	@ int
 1364 0886 F8EE677A 		vcvt.f32.u32	s15, s15
 1365 088a 87EE887A 		vdiv.f32	s14, s15, s16
 1366 088e 67EE287A 		vmul.f32	s15, s14, s17
 1367 0892 17EE900A 		vmov	r0, s15
 1368 0896 FFF7FEFF 		bl	__aeabi_f2d
ARM GAS  /var/folders/sv/kgmgr77579zbf78p2zlhkdfr0000gn/T//cc2SqDd0.s 			page 25


 1369              	.LVL186:
 1370 089a 0246     		mov	r2, r0
 1371 089c 0B46     		mov	r3, r1
 1372 089e 4A48     		ldr	r0, .L186+104
 1373 08a0 FFF7FEFF 		bl	commands_printf
 1374              	.LVL187:
 1375              		.loc 1 230 0
 1376 08a4 A868     		ldr	r0, [r5, #8]	@ float
 1377 08a6 FFF7FEFF 		bl	__aeabi_f2d
 1378              	.LVL188:
 1379 08aa 0246     		mov	r2, r0
 1380 08ac 0B46     		mov	r3, r1
 1381 08ae 4748     		ldr	r0, .L186+108
 1382 08b0 FFF7FEFF 		bl	commands_printf
 1383              	.LVL189:
 1384              		.loc 1 231 0
 1385 08b4 E868     		ldr	r0, [r5, #12]	@ float
 1386 08b6 FFF7FEFF 		bl	__aeabi_f2d
 1387              	.LVL190:
 1388 08ba 0246     		mov	r2, r0
 1389 08bc 0B46     		mov	r3, r1
 1390 08be 4448     		ldr	r0, .L186+112
 1391 08c0 FFF7FEFF 		bl	commands_printf
 1392              	.LVL191:
 1393              		.loc 1 232 0
 1394 08c4 2869     		ldr	r0, [r5, #16]	@ float
 1395 08c6 FFF7FEFF 		bl	__aeabi_f2d
 1396              	.LVL192:
 1397 08ca 0246     		mov	r2, r0
 1398 08cc 0B46     		mov	r3, r1
 1399 08ce 4148     		ldr	r0, .L186+116
 1400 08d0 FFF7FEFF 		bl	commands_printf
 1401              	.LVL193:
 1402 08d4 AFE7     		b	.L40
 1403              	.LVL194:
 1404              	.L51:
 1405              	.LBE100:
 1406              	.LBE101:
 1407              		.loc 1 284 0
 1408 08d6 4049     		ldr	r1, .L186+120
 1409 08d8 2846     		mov	r0, r5
 1410 08da FFF7FEFF 		bl	strcmp
 1411              	.LVL195:
 1412 08de 0028     		cmp	r0, #0
 1413 08e0 40F08480 		bne	.L56
 1414              		.loc 1 285 0
 1415 08e4 022C     		cmp	r4, #2
 1416 08e6 7FF495AD 		bne	.L44
 1417              	.LBB102:
 1418              		.loc 1 286 0
 1419 08ea 234B     		ldr	r3, .L186+24
 1420              		.loc 1 287 0
 1421 08ec 1998     		ldr	r0, [sp, #100]
 1422 08ee 2349     		ldr	r1, .L186+28
 1423              		.loc 1 286 0
 1424 08f0 1093     		str	r3, [sp, #64]	@ float
 1425              		.loc 1 287 0
ARM GAS  /var/folders/sv/kgmgr77579zbf78p2zlhkdfr0000gn/T//cc2SqDd0.s 			page 26


 1426 08f2 10AA     		add	r2, sp, #64
 1427 08f4 FFF7FEFF 		bl	sscanf
 1428              	.LVL196:
 1429              		.loc 1 289 0
 1430 08f8 DDED107A 		vldr.32	s15, [sp, #64]
 1431 08fc F5EEC07A 		vcmpe.f32	s15, #0
 1432 0900 F1EE10FA 		vmrs	APSR_nzcv, FPSCR
 1433 0904 7FF730AE 		ble	.L85
 1434              		.loc 1 289 0 is_stmt 0 discriminator 1
 1435 0908 9FED347A 		vldr.32	s14, .L186+124
 1436 090c F4EEC77A 		vcmpe.f32	s15, s14
 1437 0910 F1EE10FA 		vmrs	APSR_nzcv, FPSCR
 1438 0914 7FF528AE 		bpl	.L85
 1439              	.LBB103:
 1440              		.loc 1 290 0 is_stmt 1
 1441 0918 194B     		ldr	r3, .L186+32
 1442              		.loc 1 291 0
 1443 091a 314A     		ldr	r2, .L186+128
 1444 091c C3F8AC20 		str	r2, [r3, #172]	@ float
 1445              		.loc 1 292 0
 1446 0920 1846     		mov	r0, r3
 1447              		.loc 1 290 0
 1448 0922 0321     		movs	r1, #3
 1449 0924 9970     		strb	r1, [r3, #2]
 1450              		.loc 1 292 0
 1451 0926 FFF7FEFF 		bl	mc_interface_set_configuration
 1452              	.LVL197:
 1453              		.loc 1 295 0
 1454 092a 11A9     		add	r1, sp, #68
 1455 092c C820     		movs	r0, #200
 1456 092e 9DED100A 		vldr.32	s0, [sp, #64]
 1457 0932 FFF7FEFF 		bl	mcpwm_foc_measure_inductance
 1458              	.LVL198:
 1459              		.loc 1 296 0
 1460 0936 10EE100A 		vmov	r0, s0
 1461 093a FFF7FEFF 		bl	__aeabi_f2d
 1462              	.LVL199:
 1463 093e 0446     		mov	r4, r0
 1464              	.LVL200:
 1465 0940 1198     		ldr	r0, [sp, #68]	@ float
 1466 0942 0D46     		mov	r5, r1
 1467 0944 FFF7FEFF 		bl	__aeabi_f2d
 1468              	.LVL201:
 1469 0948 2246     		mov	r2, r4
 1470 094a CDE90001 		strd	r0, [sp]
 1471 094e 2B46     		mov	r3, r5
 1472 0950 2448     		ldr	r0, .L186+132
 1473 0952 FFF7FEFF 		bl	commands_printf
 1474              	.LVL202:
 1475              		.loc 1 298 0
 1476 0956 2448     		ldr	r0, .L186+136
 1477 0958 FFF7FEFF 		bl	mc_interface_set_configuration
 1478              	.LVL203:
 1479              	.LBE103:
 1480              		.loc 1 289 0
 1481 095c FFF7D7BB 		b	.L1
 1482              	.L187:
ARM GAS  /var/folders/sv/kgmgr77579zbf78p2zlhkdfr0000gn/T//cc2SqDd0.s 			page 27


 1483              		.align	2
 1484              	.L186:
 1485 0960 68060000 		.word	.LC75
 1486 0964 80060000 		.word	.LC76
 1487 0968 A0060000 		.word	.LC77
 1488 096c F4040000 		.word	.LC64
 1489 0970 14050000 		.word	.LC65
 1490 0974 B8050000 		.word	.LC70
 1491 0978 000080BF 		.word	-1082130432
 1492 097c F0040000 		.word	.LC63
 1493 0980 00000000 		.word	.LANCHOR0
 1494 0984 AC070000 		.word	.LC87
 1495 0988 BC070000 		.word	.LC88
 1496 098c 00000000 		.word	.LC0
 1497 0990 08000000 		.word	.LC1
 1498 0994 CC070000 		.word	.LC89
 1499 0998 88050000 		.word	.LC69
 1500 099c 68050000 		.word	.LC68
 1501 09a0 48050000 		.word	.LC67
 1502 09a4 DC070000 		.word	.LC90
 1503 09a8 2C050000 		.word	.LC66
 1504 09ac E8050000 		.word	.LC71
 1505 09b0 C8060000 		.word	.LC79
 1506 09b4 00000000 		.word	ch
 1507 09b8 00401C46 		.word	1176256512
 1508 09bc 00007A44 		.word	1148846080
 1509 09c0 F8060000 		.word	.LC80
 1510 09c4 10070000 		.word	.LC81
 1511 09c8 28070000 		.word	.LC82
 1512 09cc 44070000 		.word	.LC83
 1513 09d0 60070000 		.word	.LC84
 1514 09d4 7C070000 		.word	.LC85
 1515 09d8 40080000 		.word	.LC94
 1516 09dc 6666663F 		.word	1063675494
 1517 09e0 00803B45 		.word	1161527296
 1518 09e4 4C080000 		.word	.LC95
 1519 09e8 00000000 		.word	.LANCHOR1
 1520              	.LVL204:
 1521              	.L56:
 1522              	.LBE102:
 1523              		.loc 1 305 0
 1524 09ec CD49     		ldr	r1, .L188
 1525 09ee 2846     		mov	r0, r5
 1526 09f0 FFF7FEFF 		bl	strcmp
 1527              	.LVL205:
 1528 09f4 0028     		cmp	r0, #0
 1529 09f6 53D1     		bne	.L61
 1530              		.loc 1 306 0
 1531 09f8 052C     		cmp	r4, #5
 1532 09fa 7FF40BAD 		bne	.L44
 1533              	.LBB104:
 1534              		.loc 1 307 0
 1535 09fe CA4B     		ldr	r3, .L188+4
 1536              		.loc 1 311 0
 1537 0a00 CA49     		ldr	r1, .L188+8
 1538 0a02 1998     		ldr	r0, [sp, #100]
 1539              		.loc 1 307 0
ARM GAS  /var/folders/sv/kgmgr77579zbf78p2zlhkdfr0000gn/T//cc2SqDd0.s 			page 28


 1540 0a04 0D93     		str	r3, [sp, #52]	@ float
 1541              		.loc 1 311 0
 1542 0a06 0DAA     		add	r2, sp, #52
 1543              		.loc 1 308 0
 1544 0a08 0E93     		str	r3, [sp, #56]	@ float
 1545              		.loc 1 309 0
 1546 0a0a 0F93     		str	r3, [sp, #60]	@ float
 1547              		.loc 1 310 0
 1548 0a0c 1093     		str	r3, [sp, #64]	@ float
 1549              		.loc 1 311 0
 1550 0a0e FFF7FEFF 		bl	sscanf
 1551              	.LVL206:
 1552              		.loc 1 312 0
 1553 0a12 0EAA     		add	r2, sp, #56
 1554 0a14 C549     		ldr	r1, .L188+8
 1555 0a16 1A98     		ldr	r0, [sp, #104]
 1556 0a18 FFF7FEFF 		bl	sscanf
 1557              	.LVL207:
 1558              		.loc 1 313 0
 1559 0a1c 0FAA     		add	r2, sp, #60
 1560 0a1e C349     		ldr	r1, .L188+8
 1561 0a20 1B98     		ldr	r0, [sp, #108]
 1562 0a22 FFF7FEFF 		bl	sscanf
 1563              	.LVL208:
 1564              		.loc 1 314 0
 1565 0a26 10AA     		add	r2, sp, #64
 1566 0a28 1C98     		ldr	r0, [sp, #112]
 1567 0a2a C049     		ldr	r1, .L188+8
 1568 0a2c FFF7FEFF 		bl	sscanf
 1569              	.LVL209:
 1570              		.loc 1 316 0
 1571 0a30 9DED0D0A 		vldr.32	s0, [sp, #52]
 1572 0a34 B5EEC00A 		vcmpe.f32	s0, #0
 1573 0a38 F1EE10FA 		vmrs	APSR_nzcv, FPSCR
 1574 0a3c 7FF794AD 		ble	.L85
 1575              		.loc 1 316 0 is_stmt 0 discriminator 1
 1576 0a40 BB4B     		ldr	r3, .L188+12
 1577 0a42 D3ED017A 		vldr.32	s15, [r3, #4]
 1578 0a46 B4EEE70A 		vcmpe.f32	s0, s15
 1579 0a4a F1EE10FA 		vmrs	APSR_nzcv, FPSCR
 1580 0a4e 3FF68BAD 		bhi	.L85
 1581              		.loc 1 316 0 discriminator 2
 1582 0a52 9DED0F1A 		vldr.32	s2, [sp, #60]
 1583 0a56 B5EEC01A 		vcmpe.f32	s2, #0
 1584 0a5a F1EE10FA 		vmrs	APSR_nzcv, FPSCR
 1585 0a5e 7FF783AD 		ble	.L85
 1586              		.loc 1 316 0 discriminator 3
 1587 0a62 DDED0E0A 		vldr.32	s1, [sp, #56]
 1588 0a66 DFEDB37A 		vldr.32	s15, .L188+16
 1589 0a6a F4EEE70A 		vcmpe.f32	s1, s15
 1590 0a6e F1EE10FA 		vmrs	APSR_nzcv, FPSCR
 1591 0a72 7FF779AD 		ble	.L85
 1592              		.loc 1 316 0 discriminator 4
 1593 0a76 DDED101A 		vldr.32	s3, [sp, #64]
 1594 0a7a F5EEC01A 		vcmpe.f32	s3, #0
 1595 0a7e F1EE10FA 		vmrs	APSR_nzcv, FPSCR
 1596 0a82 FFF671AD 		blt	.L85
ARM GAS  /var/folders/sv/kgmgr77579zbf78p2zlhkdfr0000gn/T//cc2SqDd0.s 			page 29


 1597              	.LBB105:
 1598              		.loc 1 318 0 is_stmt 1
 1599 0a86 11A8     		add	r0, sp, #68
 1600 0a88 FFF7FEFF 		bl	conf_general_measure_flux_linkage
 1601              	.LVL210:
 1602              		.loc 1 319 0
 1603 0a8c 1198     		ldr	r0, [sp, #68]	@ float
 1604              	.LVL211:
 1605              	.L153:
 1606              	.LBE105:
 1607              	.LBE104:
 1608              	.LBB106:
 1609              	.LBB107:
 1610              		.loc 1 382 0
 1611 0a8e FFF7FEFF 		bl	__aeabi_f2d
 1612              	.LVL212:
 1613 0a92 0246     		mov	r2, r0
 1614 0a94 0B46     		mov	r3, r1
 1615 0a96 A848     		ldr	r0, .L188+20
 1616 0a98 FFF7FEFF 		bl	commands_printf
 1617              	.LVL213:
 1618              	.LBE107:
 1619 0a9c FFF737BB 		b	.L1
 1620              	.LVL214:
 1621              	.L61:
 1622              	.LBE106:
 1623              		.loc 1 326 0
 1624 0aa0 A649     		ldr	r1, .L188+24
 1625 0aa2 2846     		mov	r0, r5
 1626 0aa4 FFF7FEFF 		bl	strcmp
 1627              	.LVL215:
 1628 0aa8 0028     		cmp	r0, #0
 1629 0aaa 00F08580 		beq	.L177
 1630              		.loc 1 337 0
 1631 0aae A449     		ldr	r1, .L188+28
 1632 0ab0 2846     		mov	r0, r5
 1633 0ab2 FFF7FEFF 		bl	strcmp
 1634              	.LVL216:
 1635 0ab6 0646     		mov	r6, r0
 1636 0ab8 0028     		cmp	r0, #0
 1637 0aba 40F09F80 		bne	.L70
 1638              		.loc 1 338 0
 1639 0abe 022C     		cmp	r4, #2
 1640 0ac0 7FF4A8AC 		bne	.L44
 1641              	.LBB112:
 1642              		.loc 1 339 0
 1643 0ac4 11AC     		add	r4, sp, #68
 1644              	.LVL217:
 1645 0ac6 984B     		ldr	r3, .L188+4
 1646              		.loc 1 340 0
 1647 0ac8 1998     		ldr	r0, [sp, #100]
 1648 0aca 9849     		ldr	r1, .L188+8
 1649              		.loc 1 339 0
 1650 0acc 2360     		str	r3, [r4]	@ float
 1651              		.loc 1 340 0
 1652 0ace 2246     		mov	r2, r4
 1653 0ad0 FFF7FEFF 		bl	sscanf
ARM GAS  /var/folders/sv/kgmgr77579zbf78p2zlhkdfr0000gn/T//cc2SqDd0.s 			page 30


 1654              	.LVL218:
 1655              		.loc 1 342 0
 1656 0ad4 D4ED007A 		vldr.32	s15, [r4]
 1657 0ad8 F5EEC07A 		vcmpe.f32	s15, #0
 1658 0adc F1EE10FA 		vmrs	APSR_nzcv, FPSCR
 1659 0ae0 7FF742AD 		ble	.L85
 1660              	.LBB111:
 1661              		.loc 1 343 0
 1662 0ae4 924D     		ldr	r5, .L188+12
 1663              	.LBB108:
 1664              		.loc 1 354 0
 1665 0ae6 9FED978A 		vldr.32	s16, .L188+32
 1666              	.LBE108:
 1667              		.loc 1 343 0
 1668 0aea 0323     		movs	r3, #3
 1669              		.loc 1 344 0
 1670 0aec 2846     		mov	r0, r5
 1671              		.loc 1 343 0
 1672 0aee AB70     		strb	r3, [r5, #2]
 1673              		.loc 1 344 0
 1674 0af0 FFF7FEFF 		bl	mc_interface_set_configuration
 1675              	.LVL219:
 1676              		.loc 1 345 0
 1677 0af4 D5ED317A 		vldr.32	s15, [r5, #196]
 1678 0af8 B7EE089A 		vmov.f32	s18, #1.5e+0
 1679 0afc 27EE899A 		vmul.f32	s18, s15, s18
 1680              	.LVL220:
 1681              		.loc 1 348 0
 1682 0b00 FFF7FEFF 		bl	timeout_get_timeout_msec
 1683              	.LVL221:
 1684 0b04 0746     		mov	r7, r0
 1685              	.LVL222:
 1686              		.loc 1 349 0
 1687 0b06 FFF7FEFF 		bl	timeout_get_brake_current
 1688              	.LVL223:
 1689 0b0a F0EE40AA 		vmov.f32	s21, s0
 1690              	.LVL224:
 1691              		.loc 1 350 0
 1692 0b0e FFF7FEFF 		bl	timeout_reset
 1693              	.LVL225:
 1694              		.loc 1 351 0
 1695 0b12 9FED8D0A 		vldr.32	s0, .L188+36
 1696 0b16 4EF66020 		movw	r0, #60000
 1697 0b1a FFF7FEFF 		bl	timeout_configure
 1698              	.LVL226:
 1699              	.LBB109:
 1700              		.loc 1 353 0
 1701 0b1e 3546     		mov	r5, r6
 1702              	.LVL227:
 1703              	.L73:
 1704              		.loc 1 354 0 discriminator 3
 1705 0b20 07EE905A 		vmov	s15, r5	@ int
 1706 0b24 B8EEE77A 		vcvt.f32.s32	s14, s15
 1707 0b28 D4ED007A 		vldr.32	s15, [r4]
 1708 0b2c 87EE080A 		vdiv.f32	s0, s14, s16
 1709              		.loc 1 353 0 discriminator 3
 1710 0b30 0135     		adds	r5, r5, #1
ARM GAS  /var/folders/sv/kgmgr77579zbf78p2zlhkdfr0000gn/T//cc2SqDd0.s 			page 31


 1711              	.LVL228:
 1712              		.loc 1 354 0 discriminator 3
 1713 0b32 20EE270A 		vmul.f32	s0, s0, s15
 1714 0b36 FFF7FEFF 		bl	mc_interface_set_duty
 1715              	.LVL229:
 1716              		.loc 1 355 0 discriminator 3
 1717 0b3a C820     		movs	r0, #200
 1718 0b3c FFF7FEFF 		bl	chThdSleep
 1719              	.LVL230:
 1720              		.loc 1 353 0 discriminator 3
 1721 0b40 642D     		cmp	r5, #100
 1722 0b42 EDD1     		bne	.L73
 1723 0b44 9FED808A 		vldr.32	s16, .L188+36
 1724 0b48 4FF47A74 		mov	r4, #1000
 1725 0b4c F0EE488A 		vmov.f32	s17, s16
 1726 0b50 F0EE489A 		vmov.f32	s19, s16
 1727 0b54 B0EE48AA 		vmov.f32	s20, s16
 1728              	.LBE109:
 1729              	.LBB110:
 1730              		.loc 1 366 0 discriminator 3
 1731 0b58 B7EE00BA 		vmov.f32	s22, #1.0e+0
 1732              	.L74:
 1733              	.LVL231:
 1734              		.loc 1 363 0 discriminator 3
 1735 0b5c FFF7FEFF 		bl	mcpwm_foc_get_vq
 1736              	.LVL232:
 1737 0b60 3AEE00AA 		vadd.f32	s20, s20, s0
 1738              	.LVL233:
 1739              		.loc 1 364 0 discriminator 3
 1740 0b64 FFF7FEFF 		bl	mc_interface_get_rpm
 1741              	.LVL234:
 1742 0b68 79EE809A 		vadd.f32	s19, s19, s0
 1743              	.LVL235:
 1744              		.loc 1 365 0 discriminator 3
 1745 0b6c FFF7FEFF 		bl	mc_interface_get_tot_current_directional
 1746              	.LVL236:
 1747              		.loc 1 367 0 discriminator 3
 1748 0b70 0A20     		movs	r0, #10
 1749              		.loc 1 365 0 discriminator 3
 1750 0b72 38EE008A 		vadd.f32	s16, s16, s0
 1751              	.LVL237:
 1752              		.loc 1 367 0 discriminator 3
 1753 0b76 FFF7FEFF 		bl	chThdSleep
 1754              	.LVL238:
 1755              		.loc 1 362 0 discriminator 3
 1756 0b7a 013C     		subs	r4, r4, #1
 1757              	.LVL239:
 1758              		.loc 1 366 0 discriminator 3
 1759 0b7c 78EE8B8A 		vadd.f32	s17, s17, s22
 1760              	.LVL240:
 1761              		.loc 1 362 0 discriminator 3
 1762 0b80 ECD1     		bne	.L74
 1763              	.LBE110:
 1764              		.loc 1 370 0
 1765 0b82 FFF7FEFF 		bl	mc_interface_release_motor
 1766              	.LVL241:
 1767              		.loc 1 371 0
ARM GAS  /var/folders/sv/kgmgr77579zbf78p2zlhkdfr0000gn/T//cc2SqDd0.s 			page 32


 1768 0b86 7148     		ldr	r0, .L188+40
 1769 0b88 FFF7FEFF 		bl	mc_interface_set_configuration
 1770              	.LVL242:
 1771              		.loc 1 374 0
 1772 0b8c 3846     		mov	r0, r7
 1773 0b8e B0EE6A0A 		vmov.f32	s0, s21
 1774 0b92 FFF7FEFF 		bl	timeout_configure
 1775              	.LVL243:
 1776              		.loc 1 382 0
 1777 0b96 C8EE286A 		vdiv.f32	s13, s16, s17
 1778              	.LVL244:
 1779 0b9a 8AEE287A 		vdiv.f32	s14, s20, s17
 1780              	.LVL245:
 1781 0b9e C9EEA87A 		vdiv.f32	s15, s19, s17
 1782              	.LVL246:
 1783 0ba2 A9EE667A 		vfms.f32	s14, s18, s13
 1784              	.LVL247:
 1785 0ba6 DFED6A6A 		vldr.32	s13, .L188+44
 1786              	.LVL248:
 1787 0baa 67EEA67A 		vmul.f32	s15, s15, s13
 1788              	.LVL249:
 1789 0bae C7EE276A 		vdiv.f32	s13, s14, s15
 1790 0bb2 16EE900A 		vmov	r0, s13
 1791 0bb6 6AE7     		b	.L153
 1792              	.LVL250:
 1793              	.L177:
 1794              	.LBE111:
 1795              	.LBE112:
 1796              	.LBB113:
 1797              		.loc 1 327 0 discriminator 21
 1798 0bb8 5D4B     		ldr	r3, .L188+12
 1799 0bba 0322     		movs	r2, #3
 1800              		.loc 1 328 0 discriminator 21
 1801 0bbc 1846     		mov	r0, r3
 1802              		.loc 1 327 0 discriminator 21
 1803 0bbe 9A70     		strb	r2, [r3, #2]
 1804              		.loc 1 328 0 discriminator 21
 1805 0bc0 FFF7FEFF 		bl	mc_interface_set_configuration
 1806              	.LVL251:
 1807              		.loc 1 330 0 discriminator 21
 1808 0bc4 0023     		movs	r3, #0
 1809              		.loc 1 332 0 discriminator 21
 1810 0bc6 11A9     		add	r1, sp, #68
 1811 0bc8 10A8     		add	r0, sp, #64
 1812              		.loc 1 330 0 discriminator 21
 1813 0bca 1093     		str	r3, [sp, #64]	@ float
 1814              		.loc 1 331 0 discriminator 21
 1815 0bcc 1193     		str	r3, [sp, #68]	@ float
 1816              		.loc 1 332 0 discriminator 21
 1817 0bce FFF7FEFF 		bl	mcpwm_foc_measure_res_ind
 1818              	.LVL252:
 1819              		.loc 1 333 0 discriminator 21
 1820 0bd2 1098     		ldr	r0, [sp, #64]	@ float
 1821 0bd4 FFF7FEFF 		bl	__aeabi_f2d
 1822              	.LVL253:
 1823 0bd8 0246     		mov	r2, r0
 1824 0bda 0B46     		mov	r3, r1
ARM GAS  /var/folders/sv/kgmgr77579zbf78p2zlhkdfr0000gn/T//cc2SqDd0.s 			page 33


 1825 0bdc 5D48     		ldr	r0, .L188+48
 1826 0bde FFF7FEFF 		bl	commands_printf
 1827              	.LVL254:
 1828              		.loc 1 334 0 discriminator 21
 1829 0be2 1198     		ldr	r0, [sp, #68]	@ float
 1830 0be4 FFF7FEFF 		bl	__aeabi_f2d
 1831              	.LVL255:
 1832 0be8 0246     		mov	r2, r0
 1833 0bea 0B46     		mov	r3, r1
 1834 0bec 5A48     		ldr	r0, .L188+52
 1835 0bee FFF7FEFF 		bl	commands_printf
 1836              	.LVL256:
 1837              		.loc 1 336 0 discriminator 21
 1838 0bf2 5648     		ldr	r0, .L188+40
 1839 0bf4 FFF7FEFF 		bl	mc_interface_set_configuration
 1840              	.LVL257:
 1841              	.LBE113:
 1842 0bf8 FFF789BA 		b	.L1
 1843              	.L70:
 1844              		.loc 1 389 0
 1845 0bfc 5749     		ldr	r1, .L188+56
 1846 0bfe 2846     		mov	r0, r5
 1847 0c00 FFF7FEFF 		bl	strcmp
 1848              	.LVL258:
 1849 0c04 0028     		cmp	r0, #0
 1850 0c06 00F00681 		beq	.L178
 1851              		.loc 1 392 0
 1852 0c0a 5549     		ldr	r1, .L188+60
 1853 0c0c 2846     		mov	r0, r5
 1854 0c0e FFF7FEFF 		bl	strcmp
 1855              	.LVL259:
 1856 0c12 0028     		cmp	r0, #0
 1857 0c14 00F0C280 		beq	.L179
 1858              		.loc 1 403 0
 1859 0c18 5249     		ldr	r1, .L188+64
 1860 0c1a 2846     		mov	r0, r5
 1861 0c1c FFF7FEFF 		bl	strcmp
 1862              	.LVL260:
 1863 0c20 0028     		cmp	r0, #0
 1864 0c22 00F0FF80 		beq	.L80
 1865              		.loc 1 427 0
 1866 0c26 5049     		ldr	r1, .L188+68
 1867 0c28 2846     		mov	r0, r5
 1868 0c2a FFF7FEFF 		bl	strcmp
 1869              	.LVL261:
 1870 0c2e 0028     		cmp	r0, #0
 1871 0c30 00F0F880 		beq	.L80
 1872              		.loc 1 454 0
 1873 0c34 4D49     		ldr	r1, .L188+72
 1874 0c36 2846     		mov	r0, r5
 1875 0c38 FFF7FEFF 		bl	strcmp
 1876              	.LVL262:
 1877 0c3c 0028     		cmp	r0, #0
 1878 0c3e 00F0F180 		beq	.L80
 1879              		.loc 1 479 0
 1880 0c42 4B49     		ldr	r1, .L188+76
 1881 0c44 2846     		mov	r0, r5
ARM GAS  /var/folders/sv/kgmgr77579zbf78p2zlhkdfr0000gn/T//cc2SqDd0.s 			page 34


 1882 0c46 FFF7FEFF 		bl	strcmp
 1883              	.LVL263:
 1884 0c4a 0028     		cmp	r0, #0
 1885 0c4c 00F0EA80 		beq	.L80
 1886              		.loc 1 485 0
 1887 0c50 4849     		ldr	r1, .L188+80
 1888 0c52 2846     		mov	r0, r5
 1889 0c54 FFF7FEFF 		bl	strcmp
 1890              	.LVL264:
 1891 0c58 0028     		cmp	r0, #0
 1892 0c5a 00F0E380 		beq	.L80
 1893              		.loc 1 491 0
 1894 0c5e 4649     		ldr	r1, .L188+84
 1895 0c60 2846     		mov	r0, r5
 1896 0c62 FFF7FEFF 		bl	strcmp
 1897              	.LVL265:
 1898 0c66 0028     		cmp	r0, #0
 1899 0c68 57D0     		beq	.L82
 1900              		.loc 1 515 0
 1901 0c6a 4449     		ldr	r1, .L188+88
 1902 0c6c 2846     		mov	r0, r5
 1903 0c6e FFF7FEFF 		bl	strcmp
 1904              	.LVL266:
 1905 0c72 0028     		cmp	r0, #0
 1906 0c74 51D0     		beq	.L82
 1907              		.loc 1 542 0
 1908 0c76 4249     		ldr	r1, .L188+92
 1909 0c78 2846     		mov	r0, r5
 1910 0c7a FFF7FEFF 		bl	strcmp
 1911              	.LVL267:
 1912 0c7e 38BB     		cbnz	r0, .L83
 1913              		.loc 1 543 0
 1914 0c80 032C     		cmp	r4, #3
 1915 0c82 04D0     		beq	.L180
 1916              		.loc 1 555 0
 1917 0c84 3F48     		ldr	r0, .L188+96
 1918 0c86 FFF7FEFF 		bl	commands_printf
 1919              	.LVL268:
 1920 0c8a FFF740BA 		b	.L1
 1921              	.L180:
 1922              	.LBB114:
 1923              		.loc 1 544 0
 1924 0c8e 264B     		ldr	r3, .L188+4
 1925              		.loc 1 546 0
 1926 0c90 2649     		ldr	r1, .L188+8
 1927 0c92 1998     		ldr	r0, [sp, #100]
 1928              		.loc 1 544 0
 1929 0c94 1093     		str	r3, [sp, #64]	@ float
 1930              		.loc 1 546 0
 1931 0c96 10AA     		add	r2, sp, #64
 1932              		.loc 1 545 0
 1933 0c98 1193     		str	r3, [sp, #68]	@ float
 1934              		.loc 1 546 0
 1935 0c9a FFF7FEFF 		bl	sscanf
 1936              	.LVL269:
 1937              		.loc 1 547 0
 1938 0c9e 11AA     		add	r2, sp, #68
ARM GAS  /var/folders/sv/kgmgr77579zbf78p2zlhkdfr0000gn/T//cc2SqDd0.s 			page 35


 1939 0ca0 1A98     		ldr	r0, [sp, #104]
 1940 0ca2 2249     		ldr	r1, .L188+8
 1941 0ca4 FFF7FEFF 		bl	sscanf
 1942              	.LVL270:
 1943              		.loc 1 549 0
 1944 0ca8 9DED100A 		vldr.32	s0, [sp, #64]
 1945 0cac B5EEC00A 		vcmpe.f32	s0, #0
 1946 0cb0 F1EE10FA 		vmrs	APSR_nzcv, FPSCR
 1947 0cb4 FFF658AC 		blt	.L85
 1948              		.loc 1 549 0 is_stmt 0 discriminator 1
 1949 0cb8 DDED110A 		vldr.32	s1, [sp, #68]
 1950 0cbc F5EEC00A 		vcmpe.f32	s1, #0
 1951 0cc0 F1EE10FA 		vmrs	APSR_nzcv, FPSCR
 1952 0cc4 FFF650AC 		blt	.L85
 1953              		.loc 1 550 0 is_stmt 1
 1954 0cc8 FFF7FEFF 		bl	mcpwm_foc_set_openloop
 1955              	.LVL271:
 1956 0ccc FFF71FBA 		b	.L1
 1957              	.L83:
 1958              	.LBE114:
 1959              		.loc 1 560 0
 1960 0cd0 2D49     		ldr	r1, .L188+100
 1961 0cd2 2846     		mov	r0, r5
 1962 0cd4 FFF7FEFF 		bl	strcmp
 1963              	.LVL272:
 1964 0cd8 0646     		mov	r6, r0
 1965 0cda 0028     		cmp	r0, #0
 1966 0cdc 00F0AE80 		beq	.L89
 1967              	.LVL273:
 1968              	.LBB115:
 1969              	.LBB116:
 1970              		.loc 1 683 0 discriminator 1
 1971 0ce0 2A4B     		ldr	r3, .L188+104
 1972 0ce2 D3F80080 		ldr	r8, [r3]
 1973 0ce6 B8F1000F 		cmp	r8, #0
 1974 0cea 10DD     		ble	.L91
 1975 0cec DFF8A8A0 		ldr	r10, .L188+116
 1976              		.loc 1 683 0 is_stmt 0
 1977 0cf0 0027     		movs	r7, #0
 1978              	.LVL274:
 1979              	.L100:
 1980              		.loc 1 684 0 is_stmt 1
 1981 0cf2 3E01     		lsls	r6, r7, #4
 1982 0cf4 2846     		mov	r0, r5
 1983 0cf6 5AF80610 		ldr	r1, [r10, r6]
 1984 0cfa DFF89C90 		ldr	r9, .L188+116
 1985 0cfe FFF7FEFF 		bl	strcmp
 1986              	.LVL275:
 1987              		.loc 1 683 0
 1988 0d02 0137     		adds	r7, r7, #1
 1989              	.LVL276:
 1990              		.loc 1 684 0
 1991 0d04 0028     		cmp	r0, #0
 1992 0d06 00F09280 		beq	.L181
 1993              		.loc 1 683 0 discriminator 2
 1994 0d0a B845     		cmp	r8, r7
 1995 0d0c F1D1     		bne	.L100
ARM GAS  /var/folders/sv/kgmgr77579zbf78p2zlhkdfr0000gn/T//cc2SqDd0.s 			page 36


 1996              	.LVL277:
 1997              	.L91:
 1998              	.LBE116:
 1999              		.loc 1 692 0
 2000 0d0e 2946     		mov	r1, r5
 2001 0d10 1F48     		ldr	r0, .L188+108
 2002 0d12 FFF7FEFF 		bl	commands_printf
 2003              	.LVL278:
 2004 0d16 FFF7FAB9 		b	.L1
 2005              	.LVL279:
 2006              	.L82:
 2007              	.LBE115:
 2008              		.loc 1 513 0
 2009 0d1a 1E48     		ldr	r0, .L188+112
 2010 0d1c FFF7FEFF 		bl	commands_printf
 2011              	.LVL280:
 2012 0d20 FFF7F5B9 		b	.L1
 2013              	.L189:
 2014              		.align	2
 2015              	.L188:
 2016 0d24 74080000 		.word	.LC96
 2017 0d28 000080BF 		.word	-1082130432
 2018 0d2c F0040000 		.word	.LC63
 2019 0d30 00000000 		.word	.LANCHOR0
 2020 0d34 0AD7A33C 		.word	1017370378
 2021 0d38 84080000 		.word	.LC97
 2022 0d3c 98080000 		.word	.LC98
 2023 0d40 E0080000 		.word	.LC101
 2024 0d44 0000C842 		.word	1120403456
 2025 0d48 00000000 		.word	0
 2026 0d4c 00000000 		.word	.LANCHOR1
 2027 0d50 5077D63D 		.word	1037465424
 2028 0d54 A8080000 		.word	.LC99
 2029 0d58 C0080000 		.word	.LC100
 2030 0d5c F4080000 		.word	.LC102
 2031 0d60 00090000 		.word	.LC103
 2032 0d64 8C090000 		.word	.LC109
 2033 0d68 C8090000 		.word	.LC111
 2034 0d6c DC090000 		.word	.LC112
 2035 0d70 F0090000 		.word	.LC113
 2036 0d74 080A0000 		.word	.LC114
 2037 0d78 200A0000 		.word	.LC115
 2038 0d7c 5C0A0000 		.word	.LC117
 2039 0d80 700A0000 		.word	.LC118
 2040 0d84 800A0000 		.word	.LC119
 2041 0d88 A80A0000 		.word	.LC120
 2042 0d8c 00000000 		.word	.LANCHOR5
 2043 0d90 30110000 		.word	.LC161
 2044 0d94 340A0000 		.word	.LC116
 2045 0d98 00000000 		.word	.LANCHOR6
 2046              	.L179:
 2047              		.loc 1 393 0
 2048 0d9c 2222     		movs	r2, #34
 2049 0d9e 0321     		movs	r1, #3
 2050 0da0 8D48     		ldr	r0, .L190
 2051 0da2 FFF7FEFF 		bl	commands_printf
 2052              	.LVL281:
ARM GAS  /var/folders/sv/kgmgr77579zbf78p2zlhkdfr0000gn/T//cc2SqDd0.s 			page 37


 2053              		.loc 1 395 0
 2054 0da6 8D49     		ldr	r1, .L190+4
 2055 0da8 8D48     		ldr	r0, .L190+8
 2056 0daa FFF7FEFF 		bl	commands_printf
 2057              	.LVL282:
 2058              		.loc 1 400 0
 2059 0dae 8D48     		ldr	r0, .L190+12
 2060              		.loc 1 398 0
 2061 0db0 8D4B     		ldr	r3, .L190+16
 2062 0db2 8E4A     		ldr	r2, .L190+20
 2063 0db4 8E49     		ldr	r1, .L190+24
 2064              		.loc 1 397 0
 2065 0db6 0478     		ldrb	r4, [r0]	@ zero_extendqisi2
 2066              	.LVL283:
 2067 0db8 1B78     		ldrb	r3, [r3]	@ zero_extendqisi2
 2068 0dba 1278     		ldrb	r2, [r2]	@ zero_extendqisi2
 2069 0dbc 0978     		ldrb	r1, [r1]	@ zero_extendqisi2
 2070 0dbe 0894     		str	r4, [sp, #32]
 2071 0dc0 10F8014C 		ldrb	r4, [r0, #-1]	@ zero_extendqisi2
 2072 0dc4 0794     		str	r4, [sp, #28]
 2073 0dc6 10F8024C 		ldrb	r4, [r0, #-2]	@ zero_extendqisi2
 2074 0dca 0694     		str	r4, [sp, #24]
 2075 0dcc 10F8034C 		ldrb	r4, [r0, #-3]	@ zero_extendqisi2
 2076 0dd0 0594     		str	r4, [sp, #20]
 2077 0dd2 10F8044C 		ldrb	r4, [r0, #-4]	@ zero_extendqisi2
 2078 0dd6 0494     		str	r4, [sp, #16]
 2079 0dd8 10F8054C 		ldrb	r4, [r0, #-5]	@ zero_extendqisi2
 2080 0ddc 0394     		str	r4, [sp, #12]
 2081 0dde 10F8064C 		ldrb	r4, [r0, #-6]	@ zero_extendqisi2
 2082 0de2 0294     		str	r4, [sp, #8]
 2083 0de4 10F8074C 		ldrb	r4, [r0, #-7]	@ zero_extendqisi2
 2084 0de8 0194     		str	r4, [sp, #4]
 2085              		.loc 1 398 0
 2086 0dea 0838     		subs	r0, r0, #8
 2087              		.loc 1 397 0
 2088 0dec 0078     		ldrb	r0, [r0]	@ zero_extendqisi2
 2089 0dee 0090     		str	r0, [sp]
 2090 0df0 8048     		ldr	r0, .L190+28
 2091 0df2 FFF7FEFF 		bl	commands_printf
 2092              	.LVL284:
 2093              		.loc 1 401 0
 2094 0df6 804B     		ldr	r3, .L190+32
 2095 0df8 804A     		ldr	r2, .L190+36
 2096 0dfa 1978     		ldrb	r1, [r3]	@ zero_extendqisi2
 2097 0dfc 804B     		ldr	r3, .L190+40
 2098 0dfe 8148     		ldr	r0, .L190+44
 2099 0e00 0029     		cmp	r1, #0
 2100 0e02 14BF     		ite	ne
 2101 0e04 1146     		movne	r1, r2
 2102 0e06 1946     		moveq	r1, r3
 2103 0e08 FFF7FEFF 		bl	commands_printf
 2104              	.LVL285:
 2105              		.loc 1 402 0
 2106 0e0c 7E48     		ldr	r0, .L190+48
 2107 0e0e FFF7FEFF 		bl	commands_printf
 2108              	.LVL286:
 2109 0e12 FFF77CB9 		b	.L1
ARM GAS  /var/folders/sv/kgmgr77579zbf78p2zlhkdfr0000gn/T//cc2SqDd0.s 			page 38


 2110              	.LVL287:
 2111              	.L178:
 2112              		.loc 1 390 0
 2113 0e16 FFF7FEFF 		bl	mcpwm_foc_print_state
 2114              	.LVL288:
 2115              		.loc 1 391 0
 2116 0e1a 7B48     		ldr	r0, .L190+48
 2117 0e1c FFF7FEFF 		bl	commands_printf
 2118              	.LVL289:
 2119 0e20 FFF775B9 		b	.L1
 2120              	.L80:
 2121              		.loc 1 425 0
 2122 0e24 7948     		ldr	r0, .L190+52
 2123 0e26 FFF7FEFF 		bl	commands_printf
 2124              	.LVL290:
 2125 0e2a FFF770B9 		b	.L1
 2126              	.LVL291:
 2127              	.L181:
 2128              	.LBB118:
 2129              	.LBB117:
 2130              		.loc 1 685 0
 2131 0e2e 4E44     		add	r6, r6, r9
 2132 0e30 18A9     		add	r1, sp, #96
 2133 0e32 F368     		ldr	r3, [r6, #12]
 2134 0e34 2046     		mov	r0, r4
 2135 0e36 9847     		blx	r3
 2136              	.LVL292:
 2137 0e38 FFF769B9 		b	.L1
 2138              	.LVL293:
 2139              	.L89:
 2140              	.LBE117:
 2141              	.LBE118:
 2142              		.loc 1 561 0
 2143 0e3c 7448     		ldr	r0, .L190+56
 2144              	.LBB119:
 2145              		.loc 1 666 0
 2146 0e3e 754F     		ldr	r7, .L190+60
 2147              	.LBE119:
 2148              		.loc 1 561 0
 2149 0e40 FFF7FEFF 		bl	commands_printf
 2150              	.LVL294:
 2151              		.loc 1 562 0
 2152 0e44 7448     		ldr	r0, .L190+64
 2153 0e46 FFF7FEFF 		bl	commands_printf
 2154              	.LVL295:
 2155              		.loc 1 563 0
 2156 0e4a 7448     		ldr	r0, .L190+68
 2157 0e4c FFF7FEFF 		bl	commands_printf
 2158              	.LVL296:
 2159              		.loc 1 565 0
 2160 0e50 7348     		ldr	r0, .L190+72
 2161 0e52 FFF7FEFF 		bl	commands_printf
 2162              	.LVL297:
 2163              		.loc 1 566 0
 2164 0e56 7348     		ldr	r0, .L190+76
 2165 0e58 FFF7FEFF 		bl	commands_printf
 2166              	.LVL298:
ARM GAS  /var/folders/sv/kgmgr77579zbf78p2zlhkdfr0000gn/T//cc2SqDd0.s 			page 39


 2167              		.loc 1 568 0
 2168 0e5c 7248     		ldr	r0, .L190+80
 2169 0e5e FFF7FEFF 		bl	commands_printf
 2170              	.LVL299:
 2171              		.loc 1 569 0
 2172 0e62 7248     		ldr	r0, .L190+84
 2173 0e64 FFF7FEFF 		bl	commands_printf
 2174              	.LVL300:
 2175              		.loc 1 571 0
 2176 0e68 7148     		ldr	r0, .L190+88
 2177 0e6a FFF7FEFF 		bl	commands_printf
 2178              	.LVL301:
 2179              		.loc 1 572 0
 2180 0e6e 7148     		ldr	r0, .L190+92
 2181 0e70 FFF7FEFF 		bl	commands_printf
 2182              	.LVL302:
 2183              		.loc 1 574 0
 2184 0e74 7048     		ldr	r0, .L190+96
 2185 0e76 FFF7FEFF 		bl	commands_printf
 2186              	.LVL303:
 2187              		.loc 1 575 0
 2188 0e7a 7048     		ldr	r0, .L190+100
 2189 0e7c FFF7FEFF 		bl	commands_printf
 2190              	.LVL304:
 2191              		.loc 1 577 0
 2192 0e80 6F48     		ldr	r0, .L190+104
 2193 0e82 FFF7FEFF 		bl	commands_printf
 2194              	.LVL305:
 2195              		.loc 1 578 0
 2196 0e86 6F48     		ldr	r0, .L190+108
 2197 0e88 FFF7FEFF 		bl	commands_printf
 2198              	.LVL306:
 2199              		.loc 1 580 0
 2200 0e8c 6E48     		ldr	r0, .L190+112
 2201 0e8e FFF7FEFF 		bl	commands_printf
 2202              	.LVL307:
 2203              		.loc 1 581 0
 2204 0e92 6E48     		ldr	r0, .L190+116
 2205 0e94 FFF7FEFF 		bl	commands_printf
 2206              	.LVL308:
 2207              		.loc 1 583 0
 2208 0e98 6D48     		ldr	r0, .L190+120
 2209 0e9a FFF7FEFF 		bl	commands_printf
 2210              	.LVL309:
 2211              		.loc 1 584 0
 2212 0e9e 6D48     		ldr	r0, .L190+124
 2213 0ea0 FFF7FEFF 		bl	commands_printf
 2214              	.LVL310:
 2215              		.loc 1 586 0
 2216 0ea4 6C48     		ldr	r0, .L190+128
 2217 0ea6 FFF7FEFF 		bl	commands_printf
 2218              	.LVL311:
 2219              		.loc 1 587 0
 2220 0eaa 6C48     		ldr	r0, .L190+132
 2221 0eac FFF7FEFF 		bl	commands_printf
 2222              	.LVL312:
 2223              		.loc 1 589 0
ARM GAS  /var/folders/sv/kgmgr77579zbf78p2zlhkdfr0000gn/T//cc2SqDd0.s 			page 40


 2224 0eb0 6B48     		ldr	r0, .L190+136
 2225 0eb2 FFF7FEFF 		bl	commands_printf
 2226              	.LVL313:
 2227              		.loc 1 590 0
 2228 0eb6 6B48     		ldr	r0, .L190+140
 2229 0eb8 FFF7FEFF 		bl	commands_printf
 2230              	.LVL314:
 2231              		.loc 1 592 0
 2232 0ebc 6A48     		ldr	r0, .L190+144
 2233 0ebe FFF7FEFF 		bl	commands_printf
 2234              	.LVL315:
 2235              		.loc 1 593 0
 2236 0ec2 6A48     		ldr	r0, .L190+148
 2237 0ec4 FFF7FEFF 		bl	commands_printf
 2238              	.LVL316:
 2239              		.loc 1 595 0
 2240 0ec8 6948     		ldr	r0, .L190+152
 2241 0eca FFF7FEFF 		bl	commands_printf
 2242              	.LVL317:
 2243              		.loc 1 596 0
 2244 0ece 6948     		ldr	r0, .L190+156
 2245 0ed0 FFF7FEFF 		bl	commands_printf
 2246              	.LVL318:
 2247              		.loc 1 598 0
 2248 0ed4 6848     		ldr	r0, .L190+160
 2249 0ed6 FFF7FEFF 		bl	commands_printf
 2250              	.LVL319:
 2251              		.loc 1 599 0
 2252 0eda 6848     		ldr	r0, .L190+164
 2253 0edc FFF7FEFF 		bl	commands_printf
 2254              	.LVL320:
 2255              		.loc 1 601 0
 2256 0ee0 6748     		ldr	r0, .L190+168
 2257 0ee2 FFF7FEFF 		bl	commands_printf
 2258              	.LVL321:
 2259              		.loc 1 602 0
 2260 0ee6 6748     		ldr	r0, .L190+172
 2261 0ee8 FFF7FEFF 		bl	commands_printf
 2262              	.LVL322:
 2263              		.loc 1 603 0
 2264 0eec 6648     		ldr	r0, .L190+176
 2265 0eee FFF7FEFF 		bl	commands_printf
 2266              	.LVL323:
 2267              		.loc 1 604 0
 2268 0ef2 6648     		ldr	r0, .L190+180
 2269 0ef4 FFF7FEFF 		bl	commands_printf
 2270              	.LVL324:
 2271              		.loc 1 606 0
 2272 0ef8 6548     		ldr	r0, .L190+184
 2273 0efa FFF7FEFF 		bl	commands_printf
 2274              	.LVL325:
 2275              		.loc 1 607 0
 2276 0efe 6548     		ldr	r0, .L190+188
 2277 0f00 FFF7FEFF 		bl	commands_printf
 2278              	.LVL326:
 2279              		.loc 1 609 0
 2280 0f04 6448     		ldr	r0, .L190+192
ARM GAS  /var/folders/sv/kgmgr77579zbf78p2zlhkdfr0000gn/T//cc2SqDd0.s 			page 41


 2281 0f06 FFF7FEFF 		bl	commands_printf
 2282              	.LVL327:
 2283              		.loc 1 610 0
 2284 0f0a 6448     		ldr	r0, .L190+196
 2285 0f0c FFF7FEFF 		bl	commands_printf
 2286              	.LVL328:
 2287              		.loc 1 612 0
 2288 0f10 6348     		ldr	r0, .L190+200
 2289 0f12 FFF7FEFF 		bl	commands_printf
 2290              	.LVL329:
 2291              		.loc 1 613 0
 2292 0f16 6348     		ldr	r0, .L190+204
 2293 0f18 FFF7FEFF 		bl	commands_printf
 2294              	.LVL330:
 2295              		.loc 1 615 0
 2296 0f1c 6248     		ldr	r0, .L190+208
 2297 0f1e FFF7FEFF 		bl	commands_printf
 2298              	.LVL331:
 2299              		.loc 1 616 0
 2300 0f22 6248     		ldr	r0, .L190+212
 2301 0f24 FFF7FEFF 		bl	commands_printf
 2302              	.LVL332:
 2303              		.loc 1 618 0
 2304 0f28 6148     		ldr	r0, .L190+216
 2305 0f2a FFF7FEFF 		bl	commands_printf
 2306              	.LVL333:
 2307              		.loc 1 619 0
 2308 0f2e 6148     		ldr	r0, .L190+220
 2309 0f30 FFF7FEFF 		bl	commands_printf
 2310              	.LVL334:
 2311              		.loc 1 621 0
 2312 0f34 6048     		ldr	r0, .L190+224
 2313 0f36 FFF7FEFF 		bl	commands_printf
 2314              	.LVL335:
 2315              		.loc 1 622 0
 2316 0f3a 6048     		ldr	r0, .L190+228
 2317 0f3c FFF7FEFF 		bl	commands_printf
 2318              	.LVL336:
 2319              		.loc 1 623 0
 2320 0f40 5F48     		ldr	r0, .L190+232
 2321 0f42 FFF7FEFF 		bl	commands_printf
 2322              	.LVL337:
 2323              		.loc 1 624 0
 2324 0f46 5F48     		ldr	r0, .L190+236
 2325 0f48 FFF7FEFF 		bl	commands_printf
 2326              	.LVL338:
 2327              		.loc 1 626 0
 2328 0f4c 5E48     		ldr	r0, .L190+240
 2329 0f4e FFF7FEFF 		bl	commands_printf
 2330              	.LVL339:
 2331              		.loc 1 627 0
 2332 0f52 5E48     		ldr	r0, .L190+244
 2333 0f54 FFF7FEFF 		bl	commands_printf
 2334              	.LVL340:
 2335              		.loc 1 629 0
 2336 0f58 5D48     		ldr	r0, .L190+248
 2337 0f5a FFF7FEFF 		bl	commands_printf
ARM GAS  /var/folders/sv/kgmgr77579zbf78p2zlhkdfr0000gn/T//cc2SqDd0.s 			page 42


 2338              	.LVL341:
 2339              		.loc 1 630 0
 2340 0f5e 5D48     		ldr	r0, .L190+252
 2341 0f60 FFF7FEFF 		bl	commands_printf
 2342              	.LVL342:
 2343              		.loc 1 632 0
 2344 0f64 5C48     		ldr	r0, .L190+256
 2345 0f66 FFF7FEFF 		bl	commands_printf
 2346              	.LVL343:
 2347              		.loc 1 633 0
 2348 0f6a 5C48     		ldr	r0, .L190+260
 2349 0f6c FFF7FEFF 		bl	commands_printf
 2350              	.LVL344:
 2351              		.loc 1 635 0
 2352 0f70 5B48     		ldr	r0, .L190+264
 2353 0f72 FFF7FEFF 		bl	commands_printf
 2354              	.LVL345:
 2355              		.loc 1 636 0
 2356 0f76 5B48     		ldr	r0, .L190+268
 2357 0f78 FFF7FEFF 		bl	commands_printf
 2358              	.LVL346:
 2359              		.loc 1 663 0
 2360 0f7c 5A48     		ldr	r0, .L190+272
 2361 0f7e FFF7FEFF 		bl	commands_printf
 2362              	.LVL347:
 2363              		.loc 1 664 0
 2364 0f82 5A48     		ldr	r0, .L190+276
 2365 0f84 FFF7FEFF 		bl	commands_printf
 2366              	.LVL348:
 2367              	.LBB120:
 2368              		.loc 1 666 0
 2369 0f88 3B68     		ldr	r3, [r7]
 2370 0f8a 002B     		cmp	r3, #0
 2371 0f8c 16DD     		ble	.L98
 2372 0f8e 584D     		ldr	r5, .L190+280
 2373 0f90 3446     		mov	r4, r6
 2374              	.LVL349:
 2375              	.L97:
 2376              		.loc 1 667 0
 2377 0f92 2B68     		ldr	r3, [r5]
 2378              		.loc 1 668 0
 2379 0f94 5748     		ldr	r0, .L190+284
 2380 0f96 1A46     		mov	r2, r3
 2381              		.loc 1 667 0
 2382 0f98 CBB1     		cbz	r3, .L93
 2383              		.loc 1 668 0
 2384 0f9a 55F8081C 		ldr	r1, [r5, #-8]
 2385 0f9e FFF7FEFF 		bl	commands_printf
 2386              	.LVL350:
 2387              	.L94:
 2388              		.loc 1 673 0
 2389 0fa2 55F8043C 		ldr	r3, [r5, #-4]
 2390              		.loc 1 674 0
 2391 0fa6 5448     		ldr	r0, .L190+288
 2392 0fa8 1946     		mov	r1, r3
 2393              		.loc 1 673 0
 2394 0faa 63B1     		cbz	r3, .L95
ARM GAS  /var/folders/sv/kgmgr77579zbf78p2zlhkdfr0000gn/T//cc2SqDd0.s 			page 43


 2395              		.loc 1 674 0
 2396 0fac FFF7FEFF 		bl	commands_printf
 2397              	.LVL351:
 2398              	.L96:
 2399              		.loc 1 666 0 discriminator 2
 2400 0fb0 3B68     		ldr	r3, [r7]
 2401 0fb2 0134     		adds	r4, r4, #1
 2402              	.LVL352:
 2403 0fb4 A342     		cmp	r3, r4
 2404 0fb6 05F11005 		add	r5, r5, #16
 2405 0fba EADC     		bgt	.L97
 2406              	.LVL353:
 2407              	.L98:
 2408              	.LBE120:
 2409              		.loc 1 680 0
 2410 0fbc 1248     		ldr	r0, .L190+48
 2411 0fbe FFF7FEFF 		bl	commands_printf
 2412              	.LVL354:
 2413 0fc2 FFF7A4B8 		b	.L1
 2414              	.LVL355:
 2415              	.L95:
 2416              	.LBB121:
 2417              		.loc 1 676 0
 2418 0fc6 4D48     		ldr	r0, .L190+292
 2419 0fc8 FFF7FEFF 		bl	commands_printf
 2420              	.LVL356:
 2421 0fcc F0E7     		b	.L96
 2422              	.L93:
 2423              		.loc 1 670 0
 2424 0fce 55F8080C 		ldr	r0, [r5, #-8]
 2425 0fd2 FFF7FEFF 		bl	commands_printf
 2426              	.LVL357:
 2427 0fd6 E4E7     		b	.L94
 2428              	.L191:
 2429              		.align	2
 2430              	.L190:
 2431 0fd8 0C090000 		.word	.LC104
 2432 0fdc 1C090000 		.word	.LC105
 2433 0fe0 20090000 		.word	.LC106
 2434 0fe4 1B7AFF1F 		.word	536836635
 2435 0fe8 127AFF1F 		.word	536836626
 2436 0fec 117AFF1F 		.word	536836625
 2437 0ff0 107AFF1F 		.word	536836624
 2438 0ff4 30090000 		.word	.LC107
 2439 0ff8 00000000 		.word	conf_general_permanent_nrf_found
 2440 0ffc 10000000 		.word	.LC2
 2441 1000 14000000 		.word	.LC3
 2442 1004 74090000 		.word	.LC108
 2443 1008 18000000 		.word	.LC4
 2444 100c A0090000 		.word	.LC110
 2445 1010 B00A0000 		.word	.LC121
 2446 1014 00000000 		.word	.LANCHOR5
 2447 1018 A80A0000 		.word	.LC120
 2448 101c C40A0000 		.word	.LC122
 2449 1020 34000000 		.word	.LC6
 2450 1024 D80A0000 		.word	.LC123
 2451 1028 44000000 		.word	.LC8
ARM GAS  /var/folders/sv/kgmgr77579zbf78p2zlhkdfr0000gn/T//cc2SqDd0.s 			page 44


 2452 102c 040B0000 		.word	.LC124
 2453 1030 5C000000 		.word	.LC10
 2454 1034 180B0000 		.word	.LC125
 2455 1038 E0000000 		.word	.LC14
 2456 103c 480B0000 		.word	.LC126
 2457 1040 04010000 		.word	.LC16
 2458 1044 6C0B0000 		.word	.LC127
 2459 1048 5C010000 		.word	.LC20
 2460 104c 800B0000 		.word	.LC128
 2461 1050 0C020000 		.word	.LC25
 2462 1054 940B0000 		.word	.LC129
 2463 1058 18020000 		.word	.LC27
 2464 105c B40B0000 		.word	.LC130
 2465 1060 C8030000 		.word	.LC44
 2466 1064 F80B0000 		.word	.LC131
 2467 1068 E8030000 		.word	.LC46
 2468 106c 1C0C0000 		.word	.LC132
 2469 1070 08040000 		.word	.LC48
 2470 1074 380C0000 		.word	.LC133
 2471 1078 C0040000 		.word	.LC60
 2472 107c 580C0000 		.word	.LC134
 2473 1080 740C0000 		.word	.LC135
 2474 1084 A00C0000 		.word	.LC136
 2475 1088 E40C0000 		.word	.LC137
 2476 108c 200D0000 		.word	.LC138
 2477 1090 60060000 		.word	.LC74
 2478 1094 480D0000 		.word	.LC139
 2479 1098 BC060000 		.word	.LC78
 2480 109c 680D0000 		.word	.LC140
 2481 10a0 A40D0000 		.word	.LC141
 2482 10a4 C40D0000 		.word	.LC142
 2483 10a8 080E0000 		.word	.LC143
 2484 10ac 200E0000 		.word	.LC144
 2485 10b0 600E0000 		.word	.LC145
 2486 10b4 740E0000 		.word	.LC146
 2487 10b8 C80E0000 		.word	.LC147
 2488 10bc 000F0000 		.word	.LC148
 2489 10c0 400F0000 		.word	.LC149
 2490 10c4 6C0F0000 		.word	.LC150
 2491 10c8 98080000 		.word	.LC98
 2492 10cc A40F0000 		.word	.LC151
 2493 10d0 FC0F0000 		.word	.LC152
 2494 10d4 18100000 		.word	.LC153
 2495 10d8 F4080000 		.word	.LC102
 2496 10dc 50100000 		.word	.LC154
 2497 10e0 00090000 		.word	.LC103
 2498 10e4 74100000 		.word	.LC155
 2499 10e8 A0100000 		.word	.LC156
 2500 10ec C0100000 		.word	.LC157
 2501 10f0 08000000 		.word	.LANCHOR6+8
 2502 10f4 F0100000 		.word	.LC158
 2503 10f8 F8100000 		.word	.LC159
 2504 10fc 00110000 		.word	.LC160
 2505              	.LBE121:
 2506              		.cfi_endproc
 2507              	.LFE257:
 2508              		.size	terminal_process_string, .-terminal_process_string
ARM GAS  /var/folders/sv/kgmgr77579zbf78p2zlhkdfr0000gn/T//cc2SqDd0.s 			page 45


 2509              		.section	.text.terminal_add_fault_data,"ax",%progbits
 2510              		.align	2
 2511              		.p2align 4,,15
 2512              		.global	terminal_add_fault_data
 2513              		.thumb
 2514              		.thumb_func
 2515              		.type	terminal_add_fault_data, %function
 2516              	terminal_add_fault_data:
 2517              	.LFB258:
 2518              		.loc 1 698 0
 2519              		.cfi_startproc
 2520              		@ args = 0, pretend = 0, frame = 0
 2521              		@ frame_needed = 0, uses_anonymous_args = 0
 2522              	.LVL358:
 2523 0000 F0B5     		push	{r4, r5, r6, r7, lr}
 2524              		.cfi_def_cfa_offset 20
 2525              		.cfi_offset 4, -20
 2526              		.cfi_offset 5, -16
 2527              		.cfi_offset 6, -12
 2528              		.cfi_offset 7, -8
 2529              		.cfi_offset 14, -4
 2530              		.loc 1 699 0
 2531 0002 0E4F     		ldr	r7, .L195
 2532 0004 0E4D     		ldr	r5, .L195+4
 2533 0006 3C68     		ldr	r4, [r7]
 2534 0008 0646     		mov	r6, r0
 2535 000a 0FCE     		ldmia	r6!, {r0, r1, r2, r3}
 2536              	.LVL359:
 2537 000c 04F1010E 		add	lr, r4, #1
 2538 0010 C4EBC404 		rsb	r4, r4, r4, lsl #3
 2539 0014 05EBC404 		add	r4, r5, r4, lsl #3
 2540 0018 C7F800E0 		str	lr, [r7]
 2541 001c 0FC4     		stmia	r4!, {r0, r1, r2, r3}
 2542 001e 0FCE     		ldmia	r6!, {r0, r1, r2, r3}
 2543              	.LVL360:
 2544 0020 0FC4     		stmia	r4!, {r0, r1, r2, r3}
 2545 0022 0FCE     		ldmia	r6!, {r0, r1, r2, r3}
 2546              	.LVL361:
 2547 0024 0FC4     		stmia	r4!, {r0, r1, r2, r3}
 2548 0026 96E80300 		ldmia	r6, {r0, r1}
 2549 002a 84E80300 		stmia	r4, {r0, r1}
 2550              		.loc 1 700 0
 2551 002e 3B68     		ldr	r3, [r7]
 2552 0030 182B     		cmp	r3, #24
 2553              		.loc 1 701 0
 2554 0032 C4BF     		itt	gt
 2555 0034 0023     		movgt	r3, #0
 2556 0036 3B60     		strgt	r3, [r7]
 2557 0038 F0BD     		pop	{r4, r5, r6, r7, pc}
 2558              	.LVL362:
 2559              	.L196:
 2560 003a 00BF     		.align	2
 2561              	.L195:
 2562 003c 00000000 		.word	.LANCHOR3
 2563 0040 00000000 		.word	.LANCHOR4
 2564              		.cfi_endproc
 2565              	.LFE258:
ARM GAS  /var/folders/sv/kgmgr77579zbf78p2zlhkdfr0000gn/T//cc2SqDd0.s 			page 46


 2566              		.size	terminal_add_fault_data, .-terminal_add_fault_data
 2567              		.section	.text.terminal_register_command_callback,"ax",%progbits
 2568              		.align	2
 2569              		.p2align 4,,15
 2570              		.global	terminal_register_command_callback
 2571              		.thumb
 2572              		.thumb_func
 2573              		.type	terminal_register_command_callback, %function
 2574              	terminal_register_command_callback:
 2575              	.LFB259:
 2576              		.loc 1 726 0
 2577              		.cfi_startproc
 2578              		@ args = 0, pretend = 0, frame = 8
 2579              		@ frame_needed = 0, uses_anonymous_args = 0
 2580              	.LVL363:
 2581 0000 2DE9F04F 		push	{r4, r5, r6, r7, r8, r9, r10, fp, lr}
 2582              		.cfi_def_cfa_offset 36
 2583              		.cfi_offset 4, -36
 2584              		.cfi_offset 5, -32
 2585              		.cfi_offset 6, -28
 2586              		.cfi_offset 7, -24
 2587              		.cfi_offset 8, -20
 2588              		.cfi_offset 9, -16
 2589              		.cfi_offset 10, -12
 2590              		.cfi_offset 11, -8
 2591              		.cfi_offset 14, -4
 2592              		.loc 1 728 0
 2593 0004 DFF89080 		ldr	r8, .L213+4
 2594              	.LBB122:
 2595              		.loc 1 732 0
 2596 0008 224F     		ldr	r7, .L213
 2597              	.LBE122:
 2598              		.loc 1 728 0
 2599 000a D8F80060 		ldr	r6, [r8]
 2600              	.LVL364:
 2601              		.loc 1 726 0
 2602 000e 83B0     		sub	sp, sp, #12
 2603              		.cfi_def_cfa_offset 48
 2604              	.LBB123:
 2605              		.loc 1 730 0
 2606 0010 002E     		cmp	r6, #0
 2607              	.LBE123:
 2608              		.loc 1 726 0
 2609 0012 0446     		mov	r4, r0
 2610 0014 8B46     		mov	fp, r1
 2611 0016 9246     		mov	r10, r2
 2612 0018 0193     		str	r3, [sp, #4]
 2613              	.LBB124:
 2614              		.loc 1 730 0
 2615 001a 20DD     		ble	.L198
 2616              		.loc 1 732 0
 2617 001c 3868     		ldr	r0, [r7]
 2618              	.LVL365:
 2619 001e 8442     		cmp	r4, r0
 2620 0020 34D0     		beq	.L204
 2621 0022 3D46     		mov	r5, r7
 2622 0024 4FF00009 		mov	r9, #0
ARM GAS  /var/folders/sv/kgmgr77579zbf78p2zlhkdfr0000gn/T//cc2SqDd0.s 			page 47


 2623 0028 07E0     		b	.L200
 2624              	.LVL366:
 2625              	.L211:
 2626              		.loc 1 730 0 discriminator 2
 2627 002a 09F10109 		add	r9, r9, #1
 2628              	.LVL367:
 2629 002e 4E45     		cmp	r6, r9
 2630 0030 15D0     		beq	.L198
 2631              		.loc 1 732 0
 2632 0032 55F8100F 		ldr	r0, [r5, #16]!
 2633 0036 A042     		cmp	r0, r4
 2634 0038 04D0     		beq	.L199
 2635              	.LVL368:
 2636              	.L200:
 2637              		.loc 1 738 0
 2638 003a 2146     		mov	r1, r4
 2639 003c FFF7FEFF 		bl	strcmp
 2640              	.LVL369:
 2641 0040 0028     		cmp	r0, #0
 2642 0042 F2D1     		bne	.L211
 2643              	.LVL370:
 2644              	.L199:
 2645              	.LBE124:
 2646              		.loc 1 744 0
 2647 0044 4FEA0913 		lsl	r3, r9, #4
 2648 0048 FA18     		adds	r2, r7, r3
 2649 004a FC50     		str	r4, [r7, r3]
 2650              		.loc 1 747 0
 2651 004c 019B     		ldr	r3, [sp, #4]
 2652              		.loc 1 745 0
 2653 004e C2F804B0 		str	fp, [r2, #4]
 2654              		.loc 1 746 0
 2655 0052 C2F808A0 		str	r10, [r2, #8]
 2656              		.loc 1 747 0
 2657 0056 D360     		str	r3, [r2, #12]
 2658              		.loc 1 755 0
 2659 0058 03B0     		add	sp, sp, #12
 2660              		.cfi_remember_state
 2661              		.cfi_def_cfa_offset 36
 2662              		@ sp needed
 2663 005a BDE8F08F 		pop	{r4, r5, r6, r7, r8, r9, r10, fp, pc}
 2664              	.LVL371:
 2665              	.L198:
 2666              		.cfi_restore_state
 2667              		.loc 1 744 0
 2668 005e 3201     		lsls	r2, r6, #4
 2669 0060 BB18     		adds	r3, r7, r2
 2670              		.loc 1 750 0
 2671 0062 0136     		adds	r6, r6, #1
 2672              	.LVL372:
 2673              		.loc 1 744 0
 2674 0064 BC50     		str	r4, [r7, r2]
 2675              		.loc 1 751 0
 2676 0066 182E     		cmp	r6, #24
 2677              		.loc 1 747 0
 2678 0068 019A     		ldr	r2, [sp, #4]
 2679              		.loc 1 745 0
ARM GAS  /var/folders/sv/kgmgr77579zbf78p2zlhkdfr0000gn/T//cc2SqDd0.s 			page 48


 2680 006a C3F804B0 		str	fp, [r3, #4]
 2681              		.loc 1 746 0
 2682 006e C3F808A0 		str	r10, [r3, #8]
 2683              		.loc 1 747 0
 2684 0072 DA60     		str	r2, [r3, #12]
 2685              		.loc 1 751 0
 2686 0074 05DD     		ble	.L212
 2687              		.loc 1 752 0
 2688 0076 0023     		movs	r3, #0
 2689 0078 C8F80030 		str	r3, [r8]
 2690              		.loc 1 755 0
 2691 007c 03B0     		add	sp, sp, #12
 2692              		.cfi_remember_state
 2693              		.cfi_def_cfa_offset 36
 2694              		@ sp needed
 2695 007e BDE8F08F 		pop	{r4, r5, r6, r7, r8, r9, r10, fp, pc}
 2696              	.LVL373:
 2697              	.L212:
 2698              		.cfi_restore_state
 2699              		.loc 1 750 0
 2700 0082 C8F80060 		str	r6, [r8]
 2701              		.loc 1 755 0
 2702 0086 03B0     		add	sp, sp, #12
 2703              		.cfi_remember_state
 2704              		.cfi_def_cfa_offset 36
 2705              		@ sp needed
 2706 0088 BDE8F08F 		pop	{r4, r5, r6, r7, r8, r9, r10, fp, pc}
 2707              	.LVL374:
 2708              	.L204:
 2709              		.cfi_restore_state
 2710              	.LBB125:
 2711              		.loc 1 730 0
 2712 008c 4FF00009 		mov	r9, #0
 2713 0090 D8E7     		b	.L199
 2714              	.L214:
 2715 0092 00BF     		.align	2
 2716              	.L213:
 2717 0094 00000000 		.word	.LANCHOR6
 2718 0098 00000000 		.word	.LANCHOR5
 2719              	.LBE125:
 2720              		.cfi_endproc
 2721              	.LFE259:
 2722              		.size	terminal_register_command_callback, .-terminal_register_command_callback
 2723              		.section	.bss.mcconf.11548,"aw",%nobits
 2724              		.align	2
 2725              		.set	.LANCHOR0,. + 0
 2726              		.type	mcconf.11548, %object
 2727              		.size	mcconf.11548, 372
 2728              	mcconf.11548:
 2729 0000 00000000 		.space	372
 2729      00000000 
 2729      00000000 
 2729      00000000 
 2729      00000000 
 2730              		.section	.bss.mcconf_old.11549,"aw",%nobits
 2731              		.align	2
 2732              		.set	.LANCHOR1,. + 0
ARM GAS  /var/folders/sv/kgmgr77579zbf78p2zlhkdfr0000gn/T//cc2SqDd0.s 			page 49


 2733              		.type	mcconf_old.11549, %object
 2734              		.size	mcconf_old.11549, 372
 2735              	mcconf_old.11549:
 2736 0000 00000000 		.space	372
 2736      00000000 
 2736      00000000 
 2736      00000000 
 2736      00000000 
 2737              		.section	.rodata.states.11553,"a",%progbits
 2738              		.align	2
 2739              		.set	.LANCHOR2,. + 0
 2740              		.type	states.11553, %object
 2741              		.size	states.11553, 64
 2742              	states.11553:
 2743 0000 70110000 		.word	.LC162
 2744 0004 78110000 		.word	.LC163
 2745 0008 80110000 		.word	.LC164
 2746 000c 88110000 		.word	.LC165
 2747 0010 94110000 		.word	.LC166
 2748 0014 9C110000 		.word	.LC167
 2749 0018 A4110000 		.word	.LC168
 2750 001c AC110000 		.word	.LC169
 2751 0020 B4110000 		.word	.LC170
 2752 0024 C0110000 		.word	.LC171
 2753 0028 C8110000 		.word	.LC172
 2754 002c D0110000 		.word	.LC173
 2755 0030 DC110000 		.word	.LC174
 2756 0034 E4110000 		.word	.LC175
 2757 0038 EC110000 		.word	.LC176
 2758 003c F4110000 		.word	.LC177
 2759              		.section	.bss.fault_vec_write,"aw",%nobits
 2760              		.align	2
 2761              		.set	.LANCHOR3,. + 0
 2762              		.type	fault_vec_write, %object
 2763              		.size	fault_vec_write, 4
 2764              	fault_vec_write:
 2765 0000 00000000 		.space	4
 2766              		.section	.rodata.str1.4,"aMS",%progbits,1
 2767              		.align	2
 2768              	.LC0:
 2769 0000 74727565 		.ascii	"true\000"
 2769      00
 2770 0005 000000   		.space	3
 2771              	.LC1:
 2772 0008 66616C73 		.ascii	"false\000"
 2772      6500
 2773 000e 0000     		.space	2
 2774              	.LC2:
 2775 0010 59657300 		.ascii	"Yes\000"
 2776              	.LC3:
 2777 0014 4E6F00   		.ascii	"No\000"
 2778 0017 00       		.space	1
 2779              	.LC4:
 2780 0018 2000     		.ascii	" \000"
 2781 001a 0000     		.space	2
 2782              	.LC5:
 2783 001c 4E6F2063 		.ascii	"No command received\012\000"
ARM GAS  /var/folders/sv/kgmgr77579zbf78p2zlhkdfr0000gn/T//cc2SqDd0.s 			page 50


 2783      6F6D6D61 
 2783      6E642072 
 2783      65636569 
 2783      7665640A 
 2784 0031 000000   		.space	3
 2785              	.LC6:
 2786 0034 70696E67 		.ascii	"ping\000"
 2786      00
 2787 0039 000000   		.space	3
 2788              	.LC7:
 2789 003c 706F6E67 		.ascii	"pong\012\000"
 2789      0A00
 2790 0042 0000     		.space	2
 2791              	.LC8:
 2792 0044 73746F70 		.ascii	"stop\000"
 2792      00
 2793 0049 000000   		.space	3
 2794              	.LC9:
 2795 004c 4D6F746F 		.ascii	"Motor stopped\012\000"
 2795      72207374 
 2795      6F707065 
 2795      640A00
 2796 005b 00       		.space	1
 2797              	.LC10:
 2798 005c 6C617374 		.ascii	"last_adc_duration\000"
 2798      5F616463 
 2798      5F647572 
 2798      6174696F 
 2798      6E00
 2799 006e 0000     		.space	2
 2800              	.LC11:
 2801 0070 4C617465 		.ascii	"Latest ADC duration: %.4f ms\000"
 2801      73742041 
 2801      44432064 
 2801      75726174 
 2801      696F6E3A 
 2802 008d 000000   		.space	3
 2803              	.LC12:
 2804 0090 4C617465 		.ascii	"Latest injected ADC duration: %.4f ms\000"
 2804      73742069 
 2804      6E6A6563 
 2804      74656420 
 2804      41444320 
 2805 00b6 0000     		.space	2
 2806              	.LC13:
 2807 00b8 4C617465 		.ascii	"Latest sample ADC duration: %.4f ms\012\000"
 2807      73742073 
 2807      616D706C 
 2807      65204144 
 2807      43206475 
 2808 00dd 000000   		.space	3
 2809              	.LC14:
 2810 00e0 6B7600   		.ascii	"kv\000"
 2811 00e3 00       		.space	1
 2812              	.LC15:
 2813 00e4 43616C63 		.ascii	"Calculated KV: %.2f rpm/volt\012\000"
 2813      756C6174 
ARM GAS  /var/folders/sv/kgmgr77579zbf78p2zlhkdfr0000gn/T//cc2SqDd0.s 			page 51


 2813      6564204B 
 2813      563A2025 
 2813      2E326620 
 2814 0102 0000     		.space	2
 2815              	.LC16:
 2816 0104 6D656D00 		.ascii	"mem\000"
 2817              	.LC17:
 2818 0108 636F7265 		.ascii	"core free memory : %u bytes\000"
 2818      20667265 
 2818      65206D65 
 2818      6D6F7279 
 2818      203A2025 
 2819              	.LC18:
 2820 0124 68656170 		.ascii	"heap fragments   : %u\000"
 2820      20667261 
 2820      676D656E 
 2820      74732020 
 2820      203A2025 
 2821 013a 0000     		.space	2
 2822              	.LC19:
 2823 013c 68656170 		.ascii	"heap free total  : %u bytes\012\000"
 2823      20667265 
 2823      6520746F 
 2823      74616C20 
 2823      203A2025 
 2824 0159 000000   		.space	3
 2825              	.LC20:
 2826 015c 74687265 		.ascii	"threads\000"
 2826      61647300 
 2827              	.LC21:
 2828 0164 20202020 		.ascii	"    addr    stack prio refs     state           nam"
 2828      61646472 
 2828      20202020 
 2828      73746163 
 2828      6B207072 
 2829 0197 65207469 		.ascii	"e time    \000"
 2829      6D652020 
 2829      202000
 2830 01a2 0000     		.space	2
 2831              	.LC22:
 2832 01a4 2D2D2D2D 		.ascii	"---------------------------------------------------"
 2832      2D2D2D2D 
 2832      2D2D2D2D 
 2832      2D2D2D2D 
 2832      2D2D2D2D 
 2833 01d7 2D2D2D2D 		.ascii	"----------\000"
 2833      2D2D2D2D 
 2833      2D2D00
 2834 01e2 0000     		.space	2
 2835              	.LC23:
 2836 01e4 252E386C 		.ascii	"%.8lx %.8lx %4lu %4lu %9s %14s %lu\000"
 2836      7820252E 
 2836      386C7820 
 2836      25346C75 
 2836      2025346C 
 2837 0207 00       		.space	1
 2838              	.LC24:
ARM GAS  /var/folders/sv/kgmgr77579zbf78p2zlhkdfr0000gn/T//cc2SqDd0.s 			page 52


 2839 0208 00       		.ascii	"\000"
 2840 0209 000000   		.space	3
 2841              	.LC25:
 2842 020c 6661756C 		.ascii	"fault\000"
 2842      7400
 2843 0212 0000     		.space	2
 2844              	.LC26:
 2845 0214 25730A00 		.ascii	"%s\012\000"
 2846              	.LC27:
 2847 0218 6661756C 		.ascii	"faults\000"
 2847      747300
 2848 021f 00       		.space	1
 2849              	.LC28:
 2850 0220 4E6F2066 		.ascii	"No faults registered since startup\012\000"
 2850      61756C74 
 2850      73207265 
 2850      67697374 
 2850      65726564 
 2851              	.LC29:
 2852 0244 54686520 		.ascii	"The following faults were registered since start:\012"
 2852      666F6C6C 
 2852      6F77696E 
 2852      67206661 
 2852      756C7473 
 2853 0276 00       		.ascii	"\000"
 2854 0277 00       		.space	1
 2855              	.LC30:
 2856 0278 4661756C 		.ascii	"Fault            : %s\000"
 2856      74202020 
 2856      20202020 
 2856      20202020 
 2856      203A2025 
 2857 028e 0000     		.space	2
 2858              	.LC31:
 2859 0290 43757272 		.ascii	"Current          : %.1f\000"
 2859      656E7420 
 2859      20202020 
 2859      20202020 
 2859      203A2025 
 2860              	.LC32:
 2861 02a8 43757272 		.ascii	"Current filtered : %.1f\000"
 2861      656E7420 
 2861      66696C74 
 2861      65726564 
 2861      203A2025 
 2862              	.LC33:
 2863 02c0 566F6C74 		.ascii	"Voltage          : %.2f\000"
 2863      61676520 
 2863      20202020 
 2863      20202020 
 2863      203A2025 
 2864              	.LC34:
 2865 02d8 44757479 		.ascii	"Duty             : %.3f\000"
 2865      20202020 
 2865      20202020 
 2865      20202020 
 2865      203A2025 
ARM GAS  /var/folders/sv/kgmgr77579zbf78p2zlhkdfr0000gn/T//cc2SqDd0.s 			page 53


 2866              	.LC35:
 2867 02f0 52504D20 		.ascii	"RPM              : %.1f\000"
 2867      20202020 
 2867      20202020 
 2867      20202020 
 2867      203A2025 
 2868              	.LC36:
 2869 0308 54616368 		.ascii	"Tacho            : %d\000"
 2869      6F202020 
 2869      20202020 
 2869      20202020 
 2869      203A2025 
 2870 031e 0000     		.space	2
 2871              	.LC37:
 2872 0320 4379636C 		.ascii	"Cycles running   : %d\000"
 2872      65732072 
 2872      756E6E69 
 2872      6E672020 
 2872      203A2025 
 2873 0336 0000     		.space	2
 2874              	.LC38:
 2875 0338 54494D20 		.ascii	"TIM duty         : %d\000"
 2875      64757479 
 2875      20202020 
 2875      20202020 
 2875      203A2025 
 2876 034e 0000     		.space	2
 2877              	.LC39:
 2878 0350 54494D20 		.ascii	"TIM val samp     : %d\000"
 2878      76616C20 
 2878      73616D70 
 2878      20202020 
 2878      203A2025 
 2879 0366 0000     		.space	2
 2880              	.LC40:
 2881 0368 54494D20 		.ascii	"TIM current samp : %d\000"
 2881      63757272 
 2881      656E7420 
 2881      73616D70 
 2881      203A2025 
 2882 037e 0000     		.space	2
 2883              	.LC41:
 2884 0380 54494D20 		.ascii	"TIM top          : %d\000"
 2884      746F7020 
 2884      20202020 
 2884      20202020 
 2884      203A2025 
 2885 0396 0000     		.space	2
 2886              	.LC42:
 2887 0398 436F6D6D 		.ascii	"Comm step        : %d\000"
 2887      20737465 
 2887      70202020 
 2887      20202020 
 2887      203A2025 
 2888 03ae 0000     		.space	2
 2889              	.LC43:
 2890 03b0 54656D70 		.ascii	"Temperature      : %.2f\000"
ARM GAS  /var/folders/sv/kgmgr77579zbf78p2zlhkdfr0000gn/T//cc2SqDd0.s 			page 54


 2890      65726174 
 2890      75726520 
 2890      20202020 
 2890      203A2025 
 2891              	.LC44:
 2892 03c8 72706D00 		.ascii	"rpm\000"
 2893              	.LC45:
 2894 03cc 456C6563 		.ascii	"Electrical RPM: %.2f rpm\012\000"
 2894      74726963 
 2894      616C2052 
 2894      504D3A20 
 2894      252E3266 
 2895 03e6 0000     		.space	2
 2896              	.LC46:
 2897 03e8 74616368 		.ascii	"tacho\000"
 2897      6F00
 2898 03ee 0000     		.space	2
 2899              	.LC47:
 2900 03f0 54616368 		.ascii	"Tachometer counts: %i\012\000"
 2900      6F6D6574 
 2900      65722063 
 2900      6F756E74 
 2900      733A2025 
 2901 0407 00       		.space	1
 2902              	.LC48:
 2903 0408 74696D00 		.ascii	"tim\000"
 2904              	.LC49:
 2905 040c 54696D31 		.ascii	"Tim1 CNT: %i\000"
 2905      20434E54 
 2905      3A202569 
 2905      00
 2906 0419 000000   		.space	3
 2907              	.LC50:
 2908 041c 54696D38 		.ascii	"Tim8 CNT: %u\000"
 2908      20434E54 
 2908      3A202575 
 2908      00
 2909 0429 000000   		.space	3
 2910              	.LC51:
 2911 042c 44757479 		.ascii	"Duty cycle1: %u\000"
 2911      20637963 
 2911      6C65313A 
 2911      20257500 
 2912              	.LC52:
 2913 043c 44757479 		.ascii	"Duty cycle2: %u\000"
 2913      20637963 
 2913      6C65323A 
 2913      20257500 
 2914              	.LC53:
 2915 044c 44757479 		.ascii	"Duty cycle3: %u\000"
 2915      20637963 
 2915      6C65333A 
 2915      20257500 
 2916              	.LC54:
 2917 045c 546F703A 		.ascii	"Top: %u\000"
 2917      20257500 
 2918              	.LC55:
ARM GAS  /var/folders/sv/kgmgr77579zbf78p2zlhkdfr0000gn/T//cc2SqDd0.s 			page 55


 2919 0464 44697231 		.ascii	"Dir1: %u\000"
 2919      3A202575 
 2919      00
 2920 046d 000000   		.space	3
 2921              	.LC56:
 2922 0470 44697238 		.ascii	"Dir8: %u\000"
 2922      3A202575 
 2922      00
 2923 0479 000000   		.space	3
 2924              	.LC57:
 2925 047c 566F6C74 		.ascii	"Voltage sample: %u\000"
 2925      61676520 
 2925      73616D70 
 2925      6C653A20 
 2925      257500
 2926 048f 00       		.space	1
 2927              	.LC58:
 2928 0490 43757272 		.ascii	"Current 1 sample: %u\000"
 2928      656E7420 
 2928      31207361 
 2928      6D706C65 
 2928      3A202575 
 2929 04a5 000000   		.space	3
 2930              	.LC59:
 2931 04a8 43757272 		.ascii	"Current 2 sample: %u\012\000"
 2931      656E7420 
 2931      32207361 
 2931      6D706C65 
 2931      3A202575 
 2932 04be 0000     		.space	2
 2933              	.LC60:
 2934 04c0 766F6C74 		.ascii	"volt\000"
 2934      00
 2935 04c5 000000   		.space	3
 2936              	.LC61:
 2937 04c8 496E7075 		.ascii	"Input voltage: %.2f\012\000"
 2937      7420766F 
 2937      6C746167 
 2937      653A2025 
 2937      2E32660A 
 2938 04dd 000000   		.space	3
 2939              	.LC62:
 2940 04e0 70617261 		.ascii	"param_detect\000"
 2940      6D5F6465 
 2940      74656374 
 2940      00
 2941 04ed 000000   		.space	3
 2942              	.LC63:
 2943 04f0 256600   		.ascii	"%f\000"
 2944 04f3 00       		.space	1
 2945              	.LC64:
 2946 04f4 4379636C 		.ascii	"Cycle integrator limit: %.2f\000"
 2946      6520696E 
 2946      74656772 
 2946      61746F72 
 2946      206C696D 
 2947 0511 000000   		.space	3
ARM GAS  /var/folders/sv/kgmgr77579zbf78p2zlhkdfr0000gn/T//cc2SqDd0.s 			page 56


 2948              	.LC65:
 2949 0514 436F7570 		.ascii	"Coupling factor: %.2f\000"
 2949      6C696E67 
 2949      20666163 
 2949      746F723A 
 2949      20252E32 
 2950 052a 0000     		.space	2
 2951              	.LC66:
 2952 052c 44657465 		.ascii	"Detected hall sensor table:\000"
 2952      63746564 
 2952      2068616C 
 2952      6C207365 
 2952      6E736F72 
 2953              	.LC67:
 2954 0548 25692C20 		.ascii	"%i, %i, %i, %i, %i, %i, %i, %i\012\000"
 2954      25692C20 
 2954      25692C20 
 2954      25692C20 
 2954      25692C20 
 2955              	.LC68:
 2956 0568 48616C6C 		.ascii	"Hall sensor detection failed:\000"
 2956      2073656E 
 2956      736F7220 
 2956      64657465 
 2956      6374696F 
 2957 0586 0000     		.space	2
 2958              	.LC69:
 2959 0588 57533238 		.ascii	"WS2811 enabled. Hall sensors cannot be used.\012\000"
 2959      31312065 
 2959      6E61626C 
 2959      65642E20 
 2959      48616C6C 
 2960 05b6 0000     		.space	2
 2961              	.LC70:
 2962 05b8 456E636F 		.ascii	"Encoder enabled. Hall sensors cannot be used.\012\000"
 2962      64657220 
 2962      656E6162 
 2962      6C65642E 
 2962      2048616C 
 2963 05e7 00       		.space	1
 2964              	.LC71:
 2965 05e8 44657465 		.ascii	"Detection failed. Try again with different paramete"
 2965      6374696F 
 2965      6E206661 
 2965      696C6564 
 2965      2E205472 
 2966 061b 72732E0A 		.ascii	"rs.\012\000"
 2966      00
 2967              	.LC72:
 2968 0620 496E7661 		.ascii	"Invalid argument(s).\012\000"
 2968      6C696420 
 2968      61726775 
 2968      6D656E74 
 2968      2873292E 
 2969 0636 0000     		.space	2
 2970              	.LC73:
 2971 0638 54686973 		.ascii	"This command requires three arguments.\012\000"
ARM GAS  /var/folders/sv/kgmgr77579zbf78p2zlhkdfr0000gn/T//cc2SqDd0.s 			page 57


 2971      20636F6D 
 2971      6D616E64 
 2971      20726571 
 2971      75697265 
 2972              	.LC74:
 2973 0660 72706D5F 		.ascii	"rpm_dep\000"
 2973      64657000 
 2974              	.LC75:
 2975 0668 4379636C 		.ascii	"Cycle int limit: %.2f\000"
 2975      6520696E 
 2975      74206C69 
 2975      6D69743A 
 2975      20252E32 
 2976 067e 0000     		.space	2
 2977              	.LC76:
 2978 0680 4379636C 		.ascii	"Cycle int limit running: %.2f\000"
 2978      6520696E 
 2978      74206C69 
 2978      6D697420 
 2978      72756E6E 
 2979 069e 0000     		.space	2
 2980              	.LC77:
 2981 06a0 4379636C 		.ascii	"Cycle int limit max: %.2f\012\000"
 2981      6520696E 
 2981      74206C69 
 2981      6D697420 
 2981      6D61783A 
 2982 06bb 00       		.space	1
 2983              	.LC78:
 2984 06bc 63616E5F 		.ascii	"can_devs\000"
 2984      64657673 
 2984      00
 2985 06c5 000000   		.space	3
 2986              	.LC79:
 2987 06c8 43414E20 		.ascii	"CAN devices seen on the bus the past second:\012\000"
 2987      64657669 
 2987      63657320 
 2987      7365656E 
 2987      206F6E20 
 2988 06f6 0000     		.space	2
 2989              	.LC80:
 2990 06f8 49442020 		.ascii	"ID                 : %i\000"
 2990      20202020 
 2990      20202020 
 2990      20202020 
 2990      2020203A 
 2991              	.LC81:
 2992 0710 52582054 		.ascii	"RX Time            : %i\000"
 2992      696D6520 
 2992      20202020 
 2992      20202020 
 2992      2020203A 
 2993              	.LC82:
 2994 0728 41676520 		.ascii	"Age (milliseconds) : %.2f\000"
 2994      286D696C 
 2994      6C697365 
 2994      636F6E64 
ARM GAS  /var/folders/sv/kgmgr77579zbf78p2zlhkdfr0000gn/T//cc2SqDd0.s 			page 58


 2994      7329203A 
 2995 0742 0000     		.space	2
 2996              	.LC83:
 2997 0744 52504D20 		.ascii	"RPM                : %.2f\000"
 2997      20202020 
 2997      20202020 
 2997      20202020 
 2997      2020203A 
 2998 075e 0000     		.space	2
 2999              	.LC84:
 3000 0760 43757272 		.ascii	"Current            : %.2f\000"
 3000      656E7420 
 3000      20202020 
 3000      20202020 
 3000      2020203A 
 3001 077a 0000     		.space	2
 3002              	.LC85:
 3003 077c 44757479 		.ascii	"Duty               : %.2f\012\000"
 3003      20202020 
 3003      20202020 
 3003      20202020 
 3003      2020203A 
 3004 0797 00       		.space	1
 3005              	.LC86:
 3006 0798 666F635F 		.ascii	"foc_encoder_detect\000"
 3006      656E636F 
 3006      6465725F 
 3006      64657465 
 3006      637400
 3007 07ab 00       		.space	1
 3008              	.LC87:
 3009 07ac 4F666673 		.ascii	"Offset   : %.2f\000"
 3009      65742020 
 3009      203A2025 
 3009      2E326600 
 3010              	.LC88:
 3011 07bc 52617469 		.ascii	"Ratio    : %.2f\000"
 3011      6F202020 
 3011      203A2025 
 3011      2E326600 
 3012              	.LC89:
 3013 07cc 496E7665 		.ascii	"Inverted : %s\012\000"
 3013      72746564 
 3013      203A2025 
 3013      730A00
 3014 07db 00       		.space	1
 3015              	.LC90:
 3016 07dc 456E636F 		.ascii	"Encoder not enabled.\012\000"
 3016      64657220 
 3016      6E6F7420 
 3016      656E6162 
 3016      6C65642E 
 3017 07f2 0000     		.space	2
 3018              	.LC91:
 3019 07f4 54686973 		.ascii	"This command requires one argument.\012\000"
 3019      20636F6D 
 3019      6D616E64 
ARM GAS  /var/folders/sv/kgmgr77579zbf78p2zlhkdfr0000gn/T//cc2SqDd0.s 			page 59


 3019      20726571 
 3019      75697265 
 3020 0819 000000   		.space	3
 3021              	.LC92:
 3022 081c 6D656173 		.ascii	"measure_res\000"
 3022      7572655F 
 3022      72657300 
 3023              	.LC93:
 3024 0828 52657369 		.ascii	"Resistance: %.6f ohm\012\000"
 3024      7374616E 
 3024      63653A20 
 3024      252E3666 
 3024      206F686D 
 3025 083e 0000     		.space	2
 3026              	.LC94:
 3027 0840 6D656173 		.ascii	"measure_ind\000"
 3027      7572655F 
 3027      696E6400 
 3028              	.LC95:
 3029 084c 496E6475 		.ascii	"Inductance: %.2f microhenry (%.2f A)\012\000"
 3029      6374616E 
 3029      63653A20 
 3029      252E3266 
 3029      206D6963 
 3030 0872 0000     		.space	2
 3031              	.LC96:
 3032 0874 6D656173 		.ascii	"measure_linkage\000"
 3032      7572655F 
 3032      6C696E6B 
 3032      61676500 
 3033              	.LC97:
 3034 0884 466C7578 		.ascii	"Flux linkage: %.7f\012\000"
 3034      206C696E 
 3034      6B616765 
 3034      3A20252E 
 3034      37660A00 
 3035              	.LC98:
 3036 0898 6D656173 		.ascii	"measure_res_ind\000"
 3036      7572655F 
 3036      7265735F 
 3036      696E6400 
 3037              	.LC99:
 3038 08a8 52657369 		.ascii	"Resistance: %.6f ohm\000"
 3038      7374616E 
 3038      63653A20 
 3038      252E3666 
 3038      206F686D 
 3039 08bd 000000   		.space	3
 3040              	.LC100:
 3041 08c0 496E6475 		.ascii	"Inductance: %.2f microhenry\012\000"
 3041      6374616E 
 3041      63653A20 
 3041      252E3266 
 3041      206D6963 
 3042 08dd 000000   		.space	3
 3043              	.LC101:
 3044 08e0 6D656173 		.ascii	"measure_linkage_foc\000"
ARM GAS  /var/folders/sv/kgmgr77579zbf78p2zlhkdfr0000gn/T//cc2SqDd0.s 			page 60


 3044      7572655F 
 3044      6C696E6B 
 3044      6167655F 
 3044      666F6300 
 3045              	.LC102:
 3046 08f4 666F635F 		.ascii	"foc_state\000"
 3046      73746174 
 3046      6500
 3047 08fe 0000     		.space	2
 3048              	.LC103:
 3049 0900 68775F73 		.ascii	"hw_status\000"
 3049      74617475 
 3049      7300
 3050 090a 0000     		.space	2
 3051              	.LC104:
 3052 090c 4669726D 		.ascii	"Firmware: %d.%d\000"
 3052      77617265 
 3052      3A202564 
 3052      2E256400 
 3053              	.LC105:
 3054 091c 34313000 		.ascii	"410\000"
 3055              	.LC106:
 3056 0920 48617264 		.ascii	"Hardware: %s\000"
 3056      77617265 
 3056      3A202573 
 3056      00
 3057 092d 000000   		.space	3
 3058              	.LC107:
 3059 0930 55554944 		.ascii	"UUID: %02X %02X %02X %02X %02X %02X %02X %02X %02X "
 3059      3A202530 
 3059      32582025 
 3059      30325820 
 3059      25303258 
 3060 0963 25303258 		.ascii	"%02X %02X %02X\000"
 3060      20253032 
 3060      58202530 
 3060      325800
 3061 0972 0000     		.space	2
 3062              	.LC108:
 3063 0974 5065726D 		.ascii	"Permanent NRF found: %s\000"
 3063      616E656E 
 3063      74204E52 
 3063      4620666F 
 3063      756E643A 
 3064              	.LC109:
 3065 098c 64727638 		.ascii	"drv8301_read_reg\000"
 3065      3330315F 
 3065      72656164 
 3065      5F726567 
 3065      00
 3066 099d 000000   		.space	3
 3067              	.LC110:
 3068 09a0 54686973 		.ascii	"This hardware does not have a DRV8301.\012\000"
 3068      20686172 
 3068      64776172 
 3068      6520646F 
 3068      6573206E 
ARM GAS  /var/folders/sv/kgmgr77579zbf78p2zlhkdfr0000gn/T//cc2SqDd0.s 			page 61


 3069              	.LC111:
 3070 09c8 64727638 		.ascii	"drv8301_write_reg\000"
 3070      3330315F 
 3070      77726974 
 3070      655F7265 
 3070      6700
 3071 09da 0000     		.space	2
 3072              	.LC112:
 3073 09dc 64727638 		.ascii	"drv8301_set_oc_adj\000"
 3073      3330315F 
 3073      7365745F 
 3073      6F635F61 
 3073      646A00
 3074 09ef 00       		.space	1
 3075              	.LC113:
 3076 09f0 64727638 		.ascii	"drv8301_print_faults\000"
 3076      3330315F 
 3076      7072696E 
 3076      745F6661 
 3076      756C7473 
 3077 0a05 000000   		.space	3
 3078              	.LC114:
 3079 0a08 64727638 		.ascii	"drv8301_reset_faults\000"
 3079      3330315F 
 3079      72657365 
 3079      745F6661 
 3079      756C7473 
 3080 0a1d 000000   		.space	3
 3081              	.LC115:
 3082 0a20 64727638 		.ascii	"drv8305_read_reg\000"
 3082      3330355F 
 3082      72656164 
 3082      5F726567 
 3082      00
 3083 0a31 000000   		.space	3
 3084              	.LC116:
 3085 0a34 54686973 		.ascii	"This hardware does not have a DRV8305.\012\000"
 3085      20686172 
 3085      64776172 
 3085      6520646F 
 3085      6573206E 
 3086              	.LC117:
 3087 0a5c 64727638 		.ascii	"drv8305_write_reg\000"
 3087      3330355F 
 3087      77726974 
 3087      655F7265 
 3087      6700
 3088 0a6e 0000     		.space	2
 3089              	.LC118:
 3090 0a70 666F635F 		.ascii	"foc_openloop\000"
 3090      6F70656E 
 3090      6C6F6F70 
 3090      00
 3091 0a7d 000000   		.space	3
 3092              	.LC119:
 3093 0a80 54686973 		.ascii	"This command requires two arguments.\012\000"
 3093      20636F6D 
ARM GAS  /var/folders/sv/kgmgr77579zbf78p2zlhkdfr0000gn/T//cc2SqDd0.s 			page 62


 3093      6D616E64 
 3093      20726571 
 3093      75697265 
 3094 0aa6 0000     		.space	2
 3095              	.LC120:
 3096 0aa8 68656C70 		.ascii	"help\000"
 3096      00
 3097 0aad 000000   		.space	3
 3098              	.LC121:
 3099 0ab0 56616C69 		.ascii	"Valid commands are:\000"
 3099      6420636F 
 3099      6D6D616E 
 3099      64732061 
 3099      72653A00 
 3100              	.LC122:
 3101 0ac4 20205368 		.ascii	"  Show this help\000"
 3101      6F772074 
 3101      68697320 
 3101      68656C70 
 3101      00
 3102 0ad5 000000   		.space	3
 3103              	.LC123:
 3104 0ad8 20205072 		.ascii	"  Print pong here to see if the reply works\000"
 3104      696E7420 
 3104      706F6E67 
 3104      20686572 
 3104      6520746F 
 3105              	.LC124:
 3106 0b04 20205374 		.ascii	"  Stop the motor\000"
 3106      6F702074 
 3106      6865206D 
 3106      6F746F72 
 3106      00
 3107 0b15 000000   		.space	3
 3108              	.LC125:
 3109 0b18 20205468 		.ascii	"  The time the latest ADC interrupt consumed\000"
 3109      65207469 
 3109      6D652074 
 3109      6865206C 
 3109      61746573 
 3110 0b45 000000   		.space	3
 3111              	.LC126:
 3112 0b48 20205468 		.ascii	"  The calculated kv of the motor\000"
 3112      65206361 
 3112      6C63756C 
 3112      61746564 
 3112      206B7620 
 3113 0b69 000000   		.space	3
 3114              	.LC127:
 3115 0b6c 20205368 		.ascii	"  Show memory usage\000"
 3115      6F77206D 
 3115      656D6F72 
 3115      79207573 
 3115      61676500 
 3116              	.LC128:
 3117 0b80 20204C69 		.ascii	"  List all threads\000"
 3117      73742061 
ARM GAS  /var/folders/sv/kgmgr77579zbf78p2zlhkdfr0000gn/T//cc2SqDd0.s 			page 63


 3117      6C6C2074 
 3117      68726561 
 3117      647300
 3118 0b93 00       		.space	1
 3119              	.LC129:
 3120 0b94 20205072 		.ascii	"  Prints the current fault code\000"
 3120      696E7473 
 3120      20746865 
 3120      20637572 
 3120      72656E74 
 3121              	.LC130:
 3122 0bb4 20205072 		.ascii	"  Prints all stored fault codes and conditions when"
 3122      696E7473 
 3122      20616C6C 
 3122      2073746F 
 3122      72656420 
 3123 0be7 20746865 		.ascii	" they arrived\000"
 3123      79206172 
 3123      72697665 
 3123      6400
 3124 0bf5 000000   		.space	3
 3125              	.LC131:
 3126 0bf8 20205072 		.ascii	"  Prints the current electrical RPM\000"
 3126      696E7473 
 3126      20746865 
 3126      20637572 
 3126      72656E74 
 3127              	.LC132:
 3128 0c1c 20205072 		.ascii	"  Prints tachometer value\000"
 3128      696E7473 
 3128      20746163 
 3128      686F6D65 
 3128      74657220 
 3129 0c36 0000     		.space	2
 3130              	.LC133:
 3131 0c38 20205072 		.ascii	"  Prints tim1 and tim8 settings\000"
 3131      696E7473 
 3131      2074696D 
 3131      3120616E 
 3131      64207469 
 3132              	.LC134:
 3133 0c58 20205072 		.ascii	"  Prints different voltages\000"
 3133      696E7473 
 3133      20646966 
 3133      66657265 
 3133      6E742076 
 3134              	.LC135:
 3135 0c74 70617261 		.ascii	"param_detect [current] [min_rpm] [low_duty]\000"
 3135      6D5F6465 
 3135      74656374 
 3135      205B6375 
 3135      7272656E 
 3136              	.LC136:
 3137 0ca0 20205370 		.ascii	"  Spin up the motor in COMM_MODE_DELAY and compute "
 3137      696E2075 
 3137      70207468 
 3137      65206D6F 
ARM GAS  /var/folders/sv/kgmgr77579zbf78p2zlhkdfr0000gn/T//cc2SqDd0.s 			page 64


 3137      746F7220 
 3138 0cd3 69747320 		.ascii	"its parameters.\000"
 3138      70617261 
 3138      6D657465 
 3138      72732E00 
 3139 0ce3 00       		.space	1
 3140              	.LC137:
 3141 0ce4 20205468 		.ascii	"  This test should be performed without load on the"
 3141      69732074 
 3141      65737420 
 3141      73686F75 
 3141      6C642062 
 3142 0d17 206D6F74 		.ascii	" motor.\000"
 3142      6F722E00 
 3143 0d1f 00       		.space	1
 3144              	.LC138:
 3145 0d20 20204578 		.ascii	"  Example: param_detect 5.0 600 0.06\000"
 3145      616D706C 
 3145      653A2070 
 3145      6172616D 
 3145      5F646574 
 3146 0d45 000000   		.space	3
 3147              	.LC139:
 3148 0d48 20205072 		.ascii	"  Prints some rpm-dep values\000"
 3148      696E7473 
 3148      20736F6D 
 3148      65207270 
 3148      6D2D6465 
 3149 0d65 000000   		.space	3
 3150              	.LC140:
 3151 0d68 20205072 		.ascii	"  Prints all CAN devices seen on the bus the past s"
 3151      696E7473 
 3151      20616C6C 
 3151      2043414E 
 3151      20646576 
 3152 0d9b 65636F6E 		.ascii	"econd\000"
 3152      6400
 3153 0da1 000000   		.space	3
 3154              	.LC141:
 3155 0da4 666F635F 		.ascii	"foc_encoder_detect [current]\000"
 3155      656E636F 
 3155      6465725F 
 3155      64657465 
 3155      6374205B 
 3156 0dc1 000000   		.space	3
 3157              	.LC142:
 3158 0dc4 20205275 		.ascii	"  Run the motor at 1Hz on open loop and compute enc"
 3158      6E207468 
 3158      65206D6F 
 3158      746F7220 
 3158      61742031 
 3159 0df7 6F646572 		.ascii	"oder settings\000"
 3159      20736574 
 3159      74696E67 
 3159      7300
 3160 0e05 000000   		.space	3
 3161              	.LC143:
ARM GAS  /var/folders/sv/kgmgr77579zbf78p2zlhkdfr0000gn/T//cc2SqDd0.s 			page 65


 3162 0e08 6D656173 		.ascii	"measure_res [current]\000"
 3162      7572655F 
 3162      72657320 
 3162      5B637572 
 3162      72656E74 
 3163 0e1e 0000     		.space	2
 3164              	.LC144:
 3165 0e20 20204C6F 		.ascii	"  Lock the motor with a current and calculate its r"
 3165      636B2074 
 3165      6865206D 
 3165      6F746F72 
 3165      20776974 
 3166 0e53 65736973 		.ascii	"esistance\000"
 3166      74616E63 
 3166      6500
 3167 0e5d 000000   		.space	3
 3168              	.LC145:
 3169 0e60 6D656173 		.ascii	"measure_ind [duty]\000"
 3169      7572655F 
 3169      696E6420 
 3169      5B647574 
 3169      795D00
 3170 0e73 00       		.space	1
 3171              	.LC146:
 3172 0e74 20205365 		.ascii	"  Send short voltage pulses, measure the current an"
 3172      6E642073 
 3172      686F7274 
 3172      20766F6C 
 3172      74616765 
 3173 0ea7 64206361 		.ascii	"d calculate the motor inductance\000"
 3173      6C63756C 
 3173      61746520 
 3173      74686520 
 3173      6D6F746F 
 3174              	.LC147:
 3175 0ec8 6D656173 		.ascii	"measure_linkage [current] [duty] [min_rpm] [motor_r"
 3175      7572655F 
 3175      6C696E6B 
 3175      61676520 
 3175      5B637572 
 3176 0efb 65735D00 		.ascii	"es]\000"
 3177 0eff 00       		.space	1
 3178              	.LC148:
 3179 0f00 20205275 		.ascii	"  Run the motor in BLDC delay mode and measure the "
 3179      6E207468 
 3179      65206D6F 
 3179      746F7220 
 3179      696E2042 
 3180 0f33 666C7578 		.ascii	"flux linkage\000"
 3180      206C696E 
 3180      6B616765 
 3180      00
 3181              	.LC149:
 3182 0f40 20206578 		.ascii	"  example measure_linkage 5 0.5 700 0.076\000"
 3182      616D706C 
 3182      65206D65 
 3182      61737572 
ARM GAS  /var/folders/sv/kgmgr77579zbf78p2zlhkdfr0000gn/T//cc2SqDd0.s 			page 66


 3182      655F6C69 
 3183 0f6a 0000     		.space	2
 3184              	.LC150:
 3185 0f6c 20207469 		.ascii	"  tip: measure the resistance with measure_res firs"
 3185      703A206D 
 3185      65617375 
 3185      72652074 
 3185      68652072 
 3186 0f9f 7400     		.ascii	"t\000"
 3187 0fa1 000000   		.space	3
 3188              	.LC151:
 3189 0fa4 20204D65 		.ascii	"  Measure the motor resistance and inductance with "
 3189      61737572 
 3189      65207468 
 3189      65206D6F 
 3189      746F7220 
 3190 0fd7 616E2069 		.ascii	"an incremental adaptive algorithm.\000"
 3190      6E637265 
 3190      6D656E74 
 3190      616C2061 
 3190      64617074 
 3191 0ffa 0000     		.space	2
 3192              	.LC152:
 3193 0ffc 6D656173 		.ascii	"measure_linkage_foc [duty]\000"
 3193      7572655F 
 3193      6C696E6B 
 3193      6167655F 
 3193      666F6320 
 3194 1017 00       		.space	1
 3195              	.LC153:
 3196 1018 20205275 		.ascii	"  Run the motor with FOC and measure the flux linka"
 3196      6E207468 
 3196      65206D6F 
 3196      746F7220 
 3196      77697468 
 3197 104b 67652E00 		.ascii	"ge.\000"
 3198 104f 00       		.space	1
 3199              	.LC154:
 3200 1050 20205072 		.ascii	"  Print some FOC state variables.\000"
 3200      696E7420 
 3200      736F6D65 
 3200      20464F43 
 3200      20737461 
 3201 1072 0000     		.space	2
 3202              	.LC155:
 3203 1074 20205072 		.ascii	"  Print some hardware status information.\000"
 3203      696E7420 
 3203      736F6D65 
 3203      20686172 
 3203      64776172 
 3204 109e 0000     		.space	2
 3205              	.LC156:
 3206 10a0 666F635F 		.ascii	"foc_openloop [current] [erpm]\000"
 3206      6F70656E 
 3206      6C6F6F70 
 3206      205B6375 
 3206      7272656E 
ARM GAS  /var/folders/sv/kgmgr77579zbf78p2zlhkdfr0000gn/T//cc2SqDd0.s 			page 67


 3207 10be 0000     		.space	2
 3208              	.LC157:
 3209 10c0 20204372 		.ascii	"  Create an open loop rotating current vector.\000"
 3209      65617465 
 3209      20616E20 
 3209      6F70656E 
 3209      206C6F6F 
 3210 10ef 00       		.space	1
 3211              	.LC158:
 3212 10f0 25732025 		.ascii	"%s %s\000"
 3212      7300
 3213 10f6 0000     		.space	2
 3214              	.LC159:
 3215 10f8 20202573 		.ascii	"  %s\000"
 3215      00
 3216 10fd 000000   		.space	3
 3217              	.LC160:
 3218 1100 20205468 		.ascii	"  There is no help available for this command.\000"
 3218      65726520 
 3218      6973206E 
 3218      6F206865 
 3218      6C702061 
 3219 112f 00       		.space	1
 3220              	.LC161:
 3221 1130 496E7661 		.ascii	"Invalid command: %s\012type help to list all availa"
 3221      6C696420 
 3221      636F6D6D 
 3221      616E643A 
 3221      2025730A 
 3222 1160 626C6520 		.ascii	"ble commands\012\000"
 3222      636F6D6D 
 3222      616E6473 
 3222      0A00
 3223 116e 0000     		.space	2
 3224              	.LC162:
 3225 1170 52454144 		.ascii	"READY\000"
 3225      5900
 3226 1176 0000     		.space	2
 3227              	.LC163:
 3228 1178 43555252 		.ascii	"CURRENT\000"
 3228      454E5400 
 3229              	.LC164:
 3230 1180 57545354 		.ascii	"WTSTART\000"
 3230      41525400 
 3231              	.LC165:
 3232 1188 53555350 		.ascii	"SUSPENDED\000"
 3232      454E4445 
 3232      4400
 3233 1192 0000     		.space	2
 3234              	.LC166:
 3235 1194 51554555 		.ascii	"QUEUED\000"
 3235      454400
 3236 119b 00       		.space	1
 3237              	.LC167:
 3238 119c 57545345 		.ascii	"WTSEM\000"
 3238      4D00
 3239 11a2 0000     		.space	2
ARM GAS  /var/folders/sv/kgmgr77579zbf78p2zlhkdfr0000gn/T//cc2SqDd0.s 			page 68


 3240              	.LC168:
 3241 11a4 57544D54 		.ascii	"WTMTX\000"
 3241      5800
 3242 11aa 0000     		.space	2
 3243              	.LC169:
 3244 11ac 5754434F 		.ascii	"WTCOND\000"
 3244      4E4400
 3245 11b3 00       		.space	1
 3246              	.LC170:
 3247 11b4 534C4545 		.ascii	"SLEEPING\000"
 3247      50494E47 
 3247      00
 3248 11bd 000000   		.space	3
 3249              	.LC171:
 3250 11c0 57544558 		.ascii	"WTEXIT\000"
 3250      495400
 3251 11c7 00       		.space	1
 3252              	.LC172:
 3253 11c8 57544F52 		.ascii	"WTOREVT\000"
 3253      45565400 
 3254              	.LC173:
 3255 11d0 5754414E 		.ascii	"WTANDEVT\000"
 3255      44455654 
 3255      00
 3256 11d9 000000   		.space	3
 3257              	.LC174:
 3258 11dc 534E444D 		.ascii	"SNDMSGQ\000"
 3258      53475100 
 3259              	.LC175:
 3260 11e4 534E444D 		.ascii	"SNDMSG\000"
 3260      534700
 3261 11eb 00       		.space	1
 3262              	.LC176:
 3263 11ec 57544D53 		.ascii	"WTMSG\000"
 3263      4700
 3264 11f2 0000     		.space	2
 3265              	.LC177:
 3266 11f4 46494E41 		.ascii	"FINAL\000"
 3266      4C00
 3267              		.section	.bss.fault_vec,"aw",%nobits
 3268              		.align	2
 3269              		.set	.LANCHOR4,. + 0
 3270              		.type	fault_vec, %object
 3271              		.size	fault_vec, 1400
 3272              	fault_vec:
 3273 0000 00000000 		.space	1400
 3273      00000000 
 3273      00000000 
 3273      00000000 
 3273      00000000 
 3274              		.section	.bss.callbacks,"aw",%nobits
 3275              		.align	2
 3276              		.set	.LANCHOR6,. + 0
 3277              		.type	callbacks, %object
 3278              		.size	callbacks, 400
 3279              	callbacks:
 3280 0000 00000000 		.space	400
ARM GAS  /var/folders/sv/kgmgr77579zbf78p2zlhkdfr0000gn/T//cc2SqDd0.s 			page 69


 3280      00000000 
 3280      00000000 
 3280      00000000 
 3280      00000000 
 3281              		.section	.bss.callback_write,"aw",%nobits
 3282              		.align	2
 3283              		.set	.LANCHOR5,. + 0
 3284              		.type	callback_write, %object
 3285              		.size	callback_write, 4
 3286              	callback_write:
 3287 0000 00000000 		.space	4
 3288              		.text
 3289              	.Letext0:
 3290              		.file 4 "/usr/local/Cellar/gcc-arm-none-eabi/20160928/lib/gcc/arm-none-eabi/5.4.1/include/stddef.h
 3291              		.file 5 "/usr/local/Cellar/gcc-arm-none-eabi/20160928/arm-none-eabi/include/machine/_default_types
 3292              		.file 6 "/usr/local/Cellar/gcc-arm-none-eabi/20160928/arm-none-eabi/include/sys/_stdint.h"
 3293              		.file 7 "ChibiOS_3.0.2/os/rt/ports/ARMCMx/compilers/GCC/chtypes.h"
 3294              		.file 8 "ChibiOS_3.0.2/os/rt/include/chsystypes.h"
 3295              		.file 9 "ChibiOS_3.0.2/os/rt/include/chschd.h"
 3296              		.file 10 "ChibiOS_3.0.2/os/ext/CMSIS/ST/stm32f407xx.h"
 3297              		.file 11 "ChibiOS_3.0.2/os/rt/ports/ARMCMx/chcore.h"
 3298              		.file 12 "ChibiOS_3.0.2/os/rt/ports/ARMCMx/chcore_v7m.h"
 3299              		.file 13 "ChibiOS_3.0.2/os/rt/include/chtm.h"
 3300              		.file 14 "ChibiOS_3.0.2/os/rt/include/chsem.h"
 3301              		.file 15 "ChibiOS_3.0.2/os/rt/include/chmtx.h"
 3302              		.file 16 "./datatypes.h"
 3303              		.file 17 "ChibiOS_3.0.2/os/rt/include/chsys.h"
 3304              		.file 18 "ChibiOS_3.0.2/os/ext/CMSIS/include/core_cm4.h"
 3305              		.file 19 "./conf_general.h"
 3306              		.file 20 "mc_interface.h"
 3307              		.file 21 "ChibiOS_3.0.2/os/rt/include/chheap.h"
 3308              		.file 22 "ChibiOS_3.0.2/os/rt/include/chmemcore.h"
 3309              		.file 23 "commands.h"
 3310              		.file 24 "ChibiOS_3.0.2/os/rt/include/chregistry.h"
 3311              		.file 25 "/usr/local/Cellar/gcc-arm-none-eabi/20160928/arm-none-eabi/include/stdio.h"
 3312              		.file 26 "mcpwm_foc.h"
 3313              		.file 27 "mcpwm.h"
 3314              		.file 28 "encoder.h"
 3315              		.file 29 "comm_can.h"
 3316              		.file 30 "ChibiOS_3.0.2/os/rt/include/chthreads.h"
 3317              		.file 31 "timeout.h"
 3318              		.file 32 "/usr/local/Cellar/gcc-arm-none-eabi/20160928/arm-none-eabi/include/string.h"