ARM GAS  /var/folders/sv/kgmgr77579zbf78p2zlhkdfr0000gn/T//ccSmwAAq.s 			page 1


   1              		.syntax unified
   2              		.cpu cortex-m4
   3              		.eabi_attribute 27, 1
   4              		.eabi_attribute 28, 1
   5              		.fpu fpv4-sp-d16
   6              		.eabi_attribute 20, 1
   7              		.eabi_attribute 21, 1
   8              		.eabi_attribute 23, 3
   9              		.eabi_attribute 24, 1
  10              		.eabi_attribute 25, 1
  11              		.eabi_attribute 26, 1
  12              		.eabi_attribute 30, 2
  13              		.eabi_attribute 34, 1
  14              		.eabi_attribute 18, 4
  15              		.thumb
  16              		.syntax unified
  17              		.file	"uart.c"
  18              		.text
  19              	.Ltext0:
  20              		.cfi_sections	.debug_frame
  21              		.section	.text.uartInit,"ax",%progbits
  22              		.align	2
  23              		.p2align 4,,15
  24              		.global	uartInit
  25              		.thumb
  26              		.thumb_func
  27              		.type	uartInit, %function
  28              	uartInit:
  29              	.LFB256:
  30              		.file 1 "ChibiOS_3.0.2/os/hal/src/uart.c"
  31              		.loc 1 56 0
  32              		.cfi_startproc
  33              		@ args = 0, pretend = 0, frame = 0
  34              		@ frame_needed = 0, uses_anonymous_args = 0
  35              		@ link register save eliminated.
  36              		.loc 1 58 0
  37 0000 FFF7FEBF 		b	uart_lld_init
  38              	.LVL0:
  39              		.cfi_endproc
  40              	.LFE256:
  41              		.size	uartInit, .-uartInit
  42              		.section	.text.uartObjectInit,"ax",%progbits
  43              		.align	2
  44              		.p2align 4,,15
  45              		.global	uartObjectInit
  46              		.thumb
  47              		.thumb_func
  48              		.type	uartObjectInit, %function
  49              	uartObjectInit:
  50              	.LFB257:
  51              		.loc 1 68 0
  52              		.cfi_startproc
  53              		@ args = 0, pretend = 0, frame = 0
  54              		@ frame_needed = 0, uses_anonymous_args = 0
  55              		@ link register save eliminated.
  56              	.LVL1:
  57              		.loc 1 71 0
ARM GAS  /var/folders/sv/kgmgr77579zbf78p2zlhkdfr0000gn/T//ccSmwAAq.s 			page 2


  58 0000 0023     		movs	r3, #0
  59              		.loc 1 70 0
  60 0002 0122     		movs	r2, #1
  61 0004 0270     		strb	r2, [r0]
  62              		.loc 1 71 0
  63 0006 4370     		strb	r3, [r0, #1]
  64              		.loc 1 72 0
  65 0008 8370     		strb	r3, [r0, #2]
  66              		.loc 1 73 0
  67 000a 4360     		str	r3, [r0, #4]
  68 000c 7047     		bx	lr
  69              		.cfi_endproc
  70              	.LFE257:
  71              		.size	uartObjectInit, .-uartObjectInit
  72 000e 00BF     		.section	.text.uartStart,"ax",%progbits
  73              		.align	2
  74              		.p2align 4,,15
  75              		.global	uartStart
  76              		.thumb
  77              		.thumb_func
  78              		.type	uartStart, %function
  79              	uartStart:
  80              	.LFB258:
  81              		.loc 1 88 0
  82              		.cfi_startproc
  83              		@ args = 0, pretend = 0, frame = 0
  84              		@ frame_needed = 0, uses_anonymous_args = 0
  85              	.LVL2:
  86 0000 10B5     		push	{r4, lr}
  87              		.cfi_def_cfa_offset 8
  88              		.cfi_offset 4, -8
  89              		.cfi_offset 14, -4
  90              	.LBB102:
  91              	.LBB103:
  92              	.LBB104:
  93              	.LBB105:
  94              	.LBB106:
  95              		.file 2 "ChibiOS_3.0.2/os/ext/CMSIS/include/core_cmFunc.h"
  96              		.loc 2 546 0
  97 0002 2023     		movs	r3, #32
  98              	.LBE106:
  99              	.LBE105:
 100              	.LBE104:
 101              	.LBE103:
 102              	.LBE102:
 103              		.loc 1 88 0
 104 0004 0446     		mov	r4, r0
 105              	.LBB111:
 106              	.LBB110:
 107              	.LBB109:
 108              	.LBB108:
 109              	.LBB107:
 110              		.loc 2 546 0
 111              		.syntax unified
 112              	@ 546 "ChibiOS_3.0.2/os/ext/CMSIS/include/core_cmFunc.h" 1
 113 0006 83F31188 		MSR basepri, r3
 114              	@ 0 "" 2
ARM GAS  /var/folders/sv/kgmgr77579zbf78p2zlhkdfr0000gn/T//ccSmwAAq.s 			page 3


 115              	.LVL3:
 116              		.thumb
 117              		.syntax unified
 118              	.LBE107:
 119              	.LBE108:
 120              	.LBE109:
 121              	.LBE110:
 122              	.LBE111:
 123              		.loc 1 96 0
 124 000a 4160     		str	r1, [r0, #4]
 125              		.loc 1 97 0
 126 000c FFF7FEFF 		bl	uart_lld_start
 127              	.LVL4:
 128              		.loc 1 98 0
 129 0010 0223     		movs	r3, #2
 130 0012 2370     		strb	r3, [r4]
 131              	.LVL5:
 132              	.LBB112:
 133              	.LBB113:
 134              	.LBB114:
 135              	.LBB115:
 136              	.LBB116:
 137              	.LBB117:
 138              		.loc 2 546 0
 139 0014 0023     		movs	r3, #0
 140              		.syntax unified
 141              	@ 546 "ChibiOS_3.0.2/os/ext/CMSIS/include/core_cmFunc.h" 1
 142 0016 83F31188 		MSR basepri, r3
 143              	@ 0 "" 2
 144              	.LVL6:
 145              		.thumb
 146              		.syntax unified
 147 001a 10BD     		pop	{r4, pc}
 148              	.LBE117:
 149              	.LBE116:
 150              	.LBE115:
 151              	.LBE114:
 152              	.LBE113:
 153              	.LBE112:
 154              		.cfi_endproc
 155              	.LFE258:
 156              		.size	uartStart, .-uartStart
 157              		.section	.text.uartStop,"ax",%progbits
 158              		.align	2
 159              		.p2align 4,,15
 160              		.global	uartStop
 161              		.thumb
 162              		.thumb_func
 163              		.type	uartStop, %function
 164              	uartStop:
 165              	.LFB259:
 166              		.loc 1 109 0
 167              		.cfi_startproc
 168              		@ args = 0, pretend = 0, frame = 0
 169              		@ frame_needed = 0, uses_anonymous_args = 0
 170              	.LVL7:
 171 0000 10B5     		push	{r4, lr}
ARM GAS  /var/folders/sv/kgmgr77579zbf78p2zlhkdfr0000gn/T//ccSmwAAq.s 			page 4


 172              		.cfi_def_cfa_offset 8
 173              		.cfi_offset 4, -8
 174              		.cfi_offset 14, -4
 175              	.LBB118:
 176              	.LBB119:
 177              	.LBB120:
 178              	.LBB121:
 179              	.LBB122:
 180              		.loc 2 546 0
 181 0002 2023     		movs	r3, #32
 182              	.LBE122:
 183              	.LBE121:
 184              	.LBE120:
 185              	.LBE119:
 186              	.LBE118:
 187              		.loc 1 109 0
 188 0004 0446     		mov	r4, r0
 189              	.LBB127:
 190              	.LBB126:
 191              	.LBB125:
 192              	.LBB124:
 193              	.LBB123:
 194              		.loc 2 546 0
 195              		.syntax unified
 196              	@ 546 "ChibiOS_3.0.2/os/ext/CMSIS/include/core_cmFunc.h" 1
 197 0006 83F31188 		MSR basepri, r3
 198              	@ 0 "" 2
 199              	.LVL8:
 200              		.thumb
 201              		.syntax unified
 202              	.LBE123:
 203              	.LBE124:
 204              	.LBE125:
 205              	.LBE126:
 206              	.LBE127:
 207              		.loc 1 117 0
 208 000a FFF7FEFF 		bl	uart_lld_stop
 209              	.LVL9:
 210              		.loc 1 119 0
 211 000e 0023     		movs	r3, #0
 212              		.loc 1 118 0
 213 0010 0122     		movs	r2, #1
 214 0012 2270     		strb	r2, [r4]
 215              		.loc 1 119 0
 216 0014 6370     		strb	r3, [r4, #1]
 217              		.loc 1 120 0
 218 0016 A370     		strb	r3, [r4, #2]
 219              	.LVL10:
 220              	.LBB128:
 221              	.LBB129:
 222              	.LBB130:
 223              	.LBB131:
 224              	.LBB132:
 225              	.LBB133:
 226              		.loc 2 546 0
 227              		.syntax unified
 228              	@ 546 "ChibiOS_3.0.2/os/ext/CMSIS/include/core_cmFunc.h" 1
ARM GAS  /var/folders/sv/kgmgr77579zbf78p2zlhkdfr0000gn/T//ccSmwAAq.s 			page 5


 229 0018 83F31188 		MSR basepri, r3
 230              	@ 0 "" 2
 231              	.LVL11:
 232              		.thumb
 233              		.syntax unified
 234 001c 10BD     		pop	{r4, pc}
 235              	.LBE133:
 236              	.LBE132:
 237              	.LBE131:
 238              	.LBE130:
 239              	.LBE129:
 240              	.LBE128:
 241              		.cfi_endproc
 242              	.LFE259:
 243              		.size	uartStop, .-uartStop
 244 001e 00BF     		.section	.text.uartStartSend,"ax",%progbits
 245              		.align	2
 246              		.p2align 4,,15
 247              		.global	uartStartSend
 248              		.thumb
 249              		.thumb_func
 250              		.type	uartStartSend, %function
 251              	uartStartSend:
 252              	.LFB260:
 253              		.loc 1 135 0
 254              		.cfi_startproc
 255              		@ args = 0, pretend = 0, frame = 0
 256              		@ frame_needed = 0, uses_anonymous_args = 0
 257              	.LVL12:
 258 0000 10B5     		push	{r4, lr}
 259              		.cfi_def_cfa_offset 8
 260              		.cfi_offset 4, -8
 261              		.cfi_offset 14, -4
 262              	.LBB134:
 263              	.LBB135:
 264              	.LBB136:
 265              	.LBB137:
 266              	.LBB138:
 267              		.loc 2 546 0
 268 0002 2023     		movs	r3, #32
 269              	.LBE138:
 270              	.LBE137:
 271              	.LBE136:
 272              	.LBE135:
 273              	.LBE134:
 274              		.loc 1 135 0
 275 0004 0446     		mov	r4, r0
 276              	.LBB143:
 277              	.LBB142:
 278              	.LBB141:
 279              	.LBB140:
 280              	.LBB139:
 281              		.loc 2 546 0
 282              		.syntax unified
 283              	@ 546 "ChibiOS_3.0.2/os/ext/CMSIS/include/core_cmFunc.h" 1
 284 0006 83F31188 		MSR basepri, r3
 285              	@ 0 "" 2
ARM GAS  /var/folders/sv/kgmgr77579zbf78p2zlhkdfr0000gn/T//ccSmwAAq.s 			page 6


 286              	.LVL13:
 287              		.thumb
 288              		.syntax unified
 289              	.LBE139:
 290              	.LBE140:
 291              	.LBE141:
 292              	.LBE142:
 293              	.LBE143:
 294              		.loc 1 143 0
 295 000a FFF7FEFF 		bl	uart_lld_start_send
 296              	.LVL14:
 297              		.loc 1 144 0
 298 000e 0123     		movs	r3, #1
 299 0010 6370     		strb	r3, [r4, #1]
 300              	.LVL15:
 301              	.LBB144:
 302              	.LBB145:
 303              	.LBB146:
 304              	.LBB147:
 305              	.LBB148:
 306              	.LBB149:
 307              		.loc 2 546 0
 308 0012 0023     		movs	r3, #0
 309              		.syntax unified
 310              	@ 546 "ChibiOS_3.0.2/os/ext/CMSIS/include/core_cmFunc.h" 1
 311 0014 83F31188 		MSR basepri, r3
 312              	@ 0 "" 2
 313              	.LVL16:
 314              		.thumb
 315              		.syntax unified
 316 0018 10BD     		pop	{r4, pc}
 317              	.LBE149:
 318              	.LBE148:
 319              	.LBE147:
 320              	.LBE146:
 321              	.LBE145:
 322              	.LBE144:
 323              		.cfi_endproc
 324              	.LFE260:
 325              		.size	uartStartSend, .-uartStartSend
 326 001a 00BF     		.section	.text.uartStartSendI,"ax",%progbits
 327              		.align	2
 328              		.p2align 4,,15
 329              		.global	uartStartSendI
 330              		.thumb
 331              		.thumb_func
 332              		.type	uartStartSendI, %function
 333              	uartStartSendI:
 334              	.LFB261:
 335              		.loc 1 160 0
 336              		.cfi_startproc
 337              		@ args = 0, pretend = 0, frame = 0
 338              		@ frame_needed = 0, uses_anonymous_args = 0
 339              	.LVL17:
 340 0000 10B5     		push	{r4, lr}
 341              		.cfi_def_cfa_offset 8
 342              		.cfi_offset 4, -8
ARM GAS  /var/folders/sv/kgmgr77579zbf78p2zlhkdfr0000gn/T//ccSmwAAq.s 			page 7


 343              		.cfi_offset 14, -4
 344              		.loc 1 160 0
 345 0002 0446     		mov	r4, r0
 346              		.loc 1 167 0
 347 0004 FFF7FEFF 		bl	uart_lld_start_send
 348              	.LVL18:
 349              		.loc 1 168 0
 350 0008 0123     		movs	r3, #1
 351 000a 6370     		strb	r3, [r4, #1]
 352 000c 10BD     		pop	{r4, pc}
 353              		.cfi_endproc
 354              	.LFE261:
 355              		.size	uartStartSendI, .-uartStartSendI
 356 000e 00BF     		.section	.text.uartStopSend,"ax",%progbits
 357              		.align	2
 358              		.p2align 4,,15
 359              		.global	uartStopSend
 360              		.thumb
 361              		.thumb_func
 362              		.type	uartStopSend, %function
 363              	uartStopSend:
 364              	.LFB262:
 365              		.loc 1 183 0
 366              		.cfi_startproc
 367              		@ args = 0, pretend = 0, frame = 0
 368              		@ frame_needed = 0, uses_anonymous_args = 0
 369              	.LVL19:
 370              	.LBB150:
 371              	.LBB151:
 372              	.LBB152:
 373              	.LBB153:
 374              	.LBB154:
 375              		.loc 2 546 0
 376 0000 2022     		movs	r2, #32
 377              		.syntax unified
 378              	@ 546 "ChibiOS_3.0.2/os/ext/CMSIS/include/core_cmFunc.h" 1
 379 0002 82F31188 		MSR basepri, r2
 380              	@ 0 "" 2
 381              	.LVL20:
 382              		.thumb
 383              		.syntax unified
 384              	.LBE154:
 385              	.LBE153:
 386              	.LBE152:
 387              	.LBE151:
 388              	.LBE150:
 389              		.loc 1 191 0
 390 0006 4278     		ldrb	r2, [r0, #1]	@ zero_extendqisi2
 391 0008 012A     		cmp	r2, #1
 392 000a 04D0     		beq	.L17
 393              		.loc 1 196 0
 394 000c 0020     		movs	r0, #0
 395              	.LVL21:
 396              	.LBB155:
 397              	.LBB156:
 398              	.LBB157:
 399              	.LBB158:
ARM GAS  /var/folders/sv/kgmgr77579zbf78p2zlhkdfr0000gn/T//ccSmwAAq.s 			page 8


 400              	.LBB159:
 401              	.LBB160:
 402              		.loc 2 546 0
 403 000e 0023     		movs	r3, #0
 404              		.syntax unified
 405              	@ 546 "ChibiOS_3.0.2/os/ext/CMSIS/include/core_cmFunc.h" 1
 406 0010 83F31188 		MSR basepri, r3
 407              	@ 0 "" 2
 408              	.LVL22:
 409              		.thumb
 410              		.syntax unified
 411              	.LBE160:
 412              	.LBE159:
 413              	.LBE158:
 414              	.LBE157:
 415              	.LBE156:
 416              	.LBE155:
 417              		.loc 1 201 0
 418 0014 7047     		bx	lr
 419              	.LVL23:
 420              	.L17:
 421              		.loc 1 183 0
 422 0016 10B5     		push	{r4, lr}
 423              		.cfi_def_cfa_offset 8
 424              		.cfi_offset 4, -8
 425              		.cfi_offset 14, -4
 426 0018 0446     		mov	r4, r0
 427              		.loc 1 192 0
 428 001a FFF7FEFF 		bl	uart_lld_stop_send
 429              	.LVL24:
 430              		.loc 1 193 0
 431 001e 0023     		movs	r3, #0
 432 0020 6370     		strb	r3, [r4, #1]
 433              	.LVL25:
 434              	.LBB166:
 435              	.LBB165:
 436              	.LBB164:
 437              	.LBB163:
 438              	.LBB162:
 439              	.LBB161:
 440              		.loc 2 546 0
 441 0022 0023     		movs	r3, #0
 442              		.syntax unified
 443              	@ 546 "ChibiOS_3.0.2/os/ext/CMSIS/include/core_cmFunc.h" 1
 444 0024 83F31188 		MSR basepri, r3
 445              	@ 0 "" 2
 446              	.LVL26:
 447              		.thumb
 448              		.syntax unified
 449              	.LBE161:
 450              	.LBE162:
 451              	.LBE163:
 452              	.LBE164:
 453              	.LBE165:
 454              	.LBE166:
 455              		.loc 1 201 0
 456 0028 10BD     		pop	{r4, pc}
ARM GAS  /var/folders/sv/kgmgr77579zbf78p2zlhkdfr0000gn/T//ccSmwAAq.s 			page 9


 457              		.cfi_endproc
 458              	.LFE262:
 459              		.size	uartStopSend, .-uartStopSend
 460 002a 00BF     		.section	.text.uartStopSendI,"ax",%progbits
 461              		.align	2
 462              		.p2align 4,,15
 463              		.global	uartStopSendI
 464              		.thumb
 465              		.thumb_func
 466              		.type	uartStopSendI, %function
 467              	uartStopSendI:
 468              	.LFB263:
 469              		.loc 1 216 0
 470              		.cfi_startproc
 471              		@ args = 0, pretend = 0, frame = 0
 472              		@ frame_needed = 0, uses_anonymous_args = 0
 473              	.LVL27:
 474              		.loc 1 222 0
 475 0000 4278     		ldrb	r2, [r0, #1]	@ zero_extendqisi2
 476 0002 012A     		cmp	r2, #1
 477 0004 01D0     		beq	.L23
 478              		.loc 1 227 0
 479 0006 0020     		movs	r0, #0
 480              	.LVL28:
 481 0008 7047     		bx	lr
 482              	.LVL29:
 483              	.L23:
 484              		.loc 1 216 0
 485 000a 10B5     		push	{r4, lr}
 486              		.cfi_def_cfa_offset 8
 487              		.cfi_offset 4, -8
 488              		.cfi_offset 14, -4
 489 000c 0446     		mov	r4, r0
 490              	.LBB167:
 491              		.loc 1 223 0
 492 000e FFF7FEFF 		bl	uart_lld_stop_send
 493              	.LVL30:
 494              		.loc 1 224 0
 495 0012 0023     		movs	r3, #0
 496 0014 6370     		strb	r3, [r4, #1]
 497              		.loc 1 225 0
 498 0016 10BD     		pop	{r4, pc}
 499              	.LBE167:
 500              		.cfi_endproc
 501              	.LFE263:
 502              		.size	uartStopSendI, .-uartStopSendI
 503              		.section	.text.uartStartReceive,"ax",%progbits
 504              		.align	2
 505              		.p2align 4,,15
 506              		.global	uartStartReceive
 507              		.thumb
 508              		.thumb_func
 509              		.type	uartStartReceive, %function
 510              	uartStartReceive:
 511              	.LFB264:
 512              		.loc 1 241 0
 513              		.cfi_startproc
ARM GAS  /var/folders/sv/kgmgr77579zbf78p2zlhkdfr0000gn/T//ccSmwAAq.s 			page 10


 514              		@ args = 0, pretend = 0, frame = 0
 515              		@ frame_needed = 0, uses_anonymous_args = 0
 516              	.LVL31:
 517 0000 10B5     		push	{r4, lr}
 518              		.cfi_def_cfa_offset 8
 519              		.cfi_offset 4, -8
 520              		.cfi_offset 14, -4
 521              	.LBB168:
 522              	.LBB169:
 523              	.LBB170:
 524              	.LBB171:
 525              	.LBB172:
 526              		.loc 2 546 0
 527 0002 2023     		movs	r3, #32
 528              	.LBE172:
 529              	.LBE171:
 530              	.LBE170:
 531              	.LBE169:
 532              	.LBE168:
 533              		.loc 1 241 0
 534 0004 0446     		mov	r4, r0
 535              	.LBB177:
 536              	.LBB176:
 537              	.LBB175:
 538              	.LBB174:
 539              	.LBB173:
 540              		.loc 2 546 0
 541              		.syntax unified
 542              	@ 546 "ChibiOS_3.0.2/os/ext/CMSIS/include/core_cmFunc.h" 1
 543 0006 83F31188 		MSR basepri, r3
 544              	@ 0 "" 2
 545              	.LVL32:
 546              		.thumb
 547              		.syntax unified
 548              	.LBE173:
 549              	.LBE174:
 550              	.LBE175:
 551              	.LBE176:
 552              	.LBE177:
 553              		.loc 1 249 0
 554 000a FFF7FEFF 		bl	uart_lld_start_receive
 555              	.LVL33:
 556              		.loc 1 250 0
 557 000e 0123     		movs	r3, #1
 558 0010 A370     		strb	r3, [r4, #2]
 559              	.LVL34:
 560              	.LBB178:
 561              	.LBB179:
 562              	.LBB180:
 563              	.LBB181:
 564              	.LBB182:
 565              	.LBB183:
 566              		.loc 2 546 0
 567 0012 0023     		movs	r3, #0
 568              		.syntax unified
 569              	@ 546 "ChibiOS_3.0.2/os/ext/CMSIS/include/core_cmFunc.h" 1
 570 0014 83F31188 		MSR basepri, r3
ARM GAS  /var/folders/sv/kgmgr77579zbf78p2zlhkdfr0000gn/T//ccSmwAAq.s 			page 11


 571              	@ 0 "" 2
 572              	.LVL35:
 573              		.thumb
 574              		.syntax unified
 575 0018 10BD     		pop	{r4, pc}
 576              	.LBE183:
 577              	.LBE182:
 578              	.LBE181:
 579              	.LBE180:
 580              	.LBE179:
 581              	.LBE178:
 582              		.cfi_endproc
 583              	.LFE264:
 584              		.size	uartStartReceive, .-uartStartReceive
 585 001a 00BF     		.section	.text.uartStartReceiveI,"ax",%progbits
 586              		.align	2
 587              		.p2align 4,,15
 588              		.global	uartStartReceiveI
 589              		.thumb
 590              		.thumb_func
 591              		.type	uartStartReceiveI, %function
 592              	uartStartReceiveI:
 593              	.LFB265:
 594              		.loc 1 266 0
 595              		.cfi_startproc
 596              		@ args = 0, pretend = 0, frame = 0
 597              		@ frame_needed = 0, uses_anonymous_args = 0
 598              	.LVL36:
 599 0000 10B5     		push	{r4, lr}
 600              		.cfi_def_cfa_offset 8
 601              		.cfi_offset 4, -8
 602              		.cfi_offset 14, -4
 603              		.loc 1 266 0
 604 0002 0446     		mov	r4, r0
 605              		.loc 1 273 0
 606 0004 FFF7FEFF 		bl	uart_lld_start_receive
 607              	.LVL37:
 608              		.loc 1 274 0
 609 0008 0123     		movs	r3, #1
 610 000a A370     		strb	r3, [r4, #2]
 611 000c 10BD     		pop	{r4, pc}
 612              		.cfi_endproc
 613              	.LFE265:
 614              		.size	uartStartReceiveI, .-uartStartReceiveI
 615 000e 00BF     		.section	.text.uartStopReceive,"ax",%progbits
 616              		.align	2
 617              		.p2align 4,,15
 618              		.global	uartStopReceive
 619              		.thumb
 620              		.thumb_func
 621              		.type	uartStopReceive, %function
 622              	uartStopReceive:
 623              	.LFB266:
 624              		.loc 1 289 0
 625              		.cfi_startproc
 626              		@ args = 0, pretend = 0, frame = 0
 627              		@ frame_needed = 0, uses_anonymous_args = 0
ARM GAS  /var/folders/sv/kgmgr77579zbf78p2zlhkdfr0000gn/T//ccSmwAAq.s 			page 12


 628              	.LVL38:
 629              	.LBB184:
 630              	.LBB185:
 631              	.LBB186:
 632              	.LBB187:
 633              	.LBB188:
 634              		.loc 2 546 0
 635 0000 2022     		movs	r2, #32
 636              		.syntax unified
 637              	@ 546 "ChibiOS_3.0.2/os/ext/CMSIS/include/core_cmFunc.h" 1
 638 0002 82F31188 		MSR basepri, r2
 639              	@ 0 "" 2
 640              	.LVL39:
 641              		.thumb
 642              		.syntax unified
 643              	.LBE188:
 644              	.LBE187:
 645              	.LBE186:
 646              	.LBE185:
 647              	.LBE184:
 648              		.loc 1 297 0
 649 0006 8278     		ldrb	r2, [r0, #2]	@ zero_extendqisi2
 650 0008 012A     		cmp	r2, #1
 651 000a 04D0     		beq	.L33
 652              		.loc 1 302 0
 653 000c 0020     		movs	r0, #0
 654              	.LVL40:
 655              	.LBB189:
 656              	.LBB190:
 657              	.LBB191:
 658              	.LBB192:
 659              	.LBB193:
 660              	.LBB194:
 661              		.loc 2 546 0
 662 000e 0023     		movs	r3, #0
 663              		.syntax unified
 664              	@ 546 "ChibiOS_3.0.2/os/ext/CMSIS/include/core_cmFunc.h" 1
 665 0010 83F31188 		MSR basepri, r3
 666              	@ 0 "" 2
 667              	.LVL41:
 668              		.thumb
 669              		.syntax unified
 670              	.LBE194:
 671              	.LBE193:
 672              	.LBE192:
 673              	.LBE191:
 674              	.LBE190:
 675              	.LBE189:
 676              		.loc 1 307 0
 677 0014 7047     		bx	lr
 678              	.LVL42:
 679              	.L33:
 680              		.loc 1 289 0
 681 0016 10B5     		push	{r4, lr}
 682              		.cfi_def_cfa_offset 8
 683              		.cfi_offset 4, -8
 684              		.cfi_offset 14, -4
ARM GAS  /var/folders/sv/kgmgr77579zbf78p2zlhkdfr0000gn/T//ccSmwAAq.s 			page 13


 685 0018 0446     		mov	r4, r0
 686              		.loc 1 298 0
 687 001a FFF7FEFF 		bl	uart_lld_stop_receive
 688              	.LVL43:
 689              		.loc 1 299 0
 690 001e 0023     		movs	r3, #0
 691 0020 A370     		strb	r3, [r4, #2]
 692              	.LVL44:
 693              	.LBB200:
 694              	.LBB199:
 695              	.LBB198:
 696              	.LBB197:
 697              	.LBB196:
 698              	.LBB195:
 699              		.loc 2 546 0
 700 0022 0023     		movs	r3, #0
 701              		.syntax unified
 702              	@ 546 "ChibiOS_3.0.2/os/ext/CMSIS/include/core_cmFunc.h" 1
 703 0024 83F31188 		MSR basepri, r3
 704              	@ 0 "" 2
 705              	.LVL45:
 706              		.thumb
 707              		.syntax unified
 708              	.LBE195:
 709              	.LBE196:
 710              	.LBE197:
 711              	.LBE198:
 712              	.LBE199:
 713              	.LBE200:
 714              		.loc 1 307 0
 715 0028 10BD     		pop	{r4, pc}
 716              		.cfi_endproc
 717              	.LFE266:
 718              		.size	uartStopReceive, .-uartStopReceive
 719 002a 00BF     		.section	.text.uartStopReceiveI,"ax",%progbits
 720              		.align	2
 721              		.p2align 4,,15
 722              		.global	uartStopReceiveI
 723              		.thumb
 724              		.thumb_func
 725              		.type	uartStopReceiveI, %function
 726              	uartStopReceiveI:
 727              	.LFB267:
 728              		.loc 1 322 0
 729              		.cfi_startproc
 730              		@ args = 0, pretend = 0, frame = 0
 731              		@ frame_needed = 0, uses_anonymous_args = 0
 732              	.LVL46:
 733              		.loc 1 328 0
 734 0000 8278     		ldrb	r2, [r0, #2]	@ zero_extendqisi2
 735 0002 012A     		cmp	r2, #1
 736 0004 01D0     		beq	.L39
 737              		.loc 1 333 0
 738 0006 0020     		movs	r0, #0
 739              	.LVL47:
 740 0008 7047     		bx	lr
 741              	.LVL48:
ARM GAS  /var/folders/sv/kgmgr77579zbf78p2zlhkdfr0000gn/T//ccSmwAAq.s 			page 14


 742              	.L39:
 743              		.loc 1 322 0
 744 000a 10B5     		push	{r4, lr}
 745              		.cfi_def_cfa_offset 8
 746              		.cfi_offset 4, -8
 747              		.cfi_offset 14, -4
 748 000c 0446     		mov	r4, r0
 749              	.LBB201:
 750              		.loc 1 329 0
 751 000e FFF7FEFF 		bl	uart_lld_stop_receive
 752              	.LVL49:
 753              		.loc 1 330 0
 754 0012 0023     		movs	r3, #0
 755 0014 A370     		strb	r3, [r4, #2]
 756              		.loc 1 331 0
 757 0016 10BD     		pop	{r4, pc}
 758              	.LBE201:
 759              		.cfi_endproc
 760              	.LFE267:
 761              		.size	uartStopReceiveI, .-uartStopReceiveI
 762              		.text
 763              	.Letext0:
 764              		.file 3 "/usr/local/Cellar/gcc-arm-none-eabi/20160928/lib/gcc/arm-none-eabi/5.4.1/include/stddef.h
 765              		.file 4 "/usr/local/Cellar/gcc-arm-none-eabi/20160928/arm-none-eabi/include/machine/_default_types
 766              		.file 5 "/usr/local/Cellar/gcc-arm-none-eabi/20160928/arm-none-eabi/include/sys/_stdint.h"
 767              		.file 6 "ChibiOS_3.0.2/os/rt/ports/ARMCMx/compilers/GCC/chtypes.h"
 768              		.file 7 "ChibiOS_3.0.2/os/rt/include/chsystypes.h"
 769              		.file 8 "ChibiOS_3.0.2/os/rt/include/chschd.h"
 770              		.file 9 "ChibiOS_3.0.2/os/ext/CMSIS/ST/stm32f407xx.h"
 771              		.file 10 "ChibiOS_3.0.2/os/rt/ports/ARMCMx/chcore.h"
 772              		.file 11 "ChibiOS_3.0.2/os/rt/ports/ARMCMx/chcore_v7m.h"
 773              		.file 12 "ChibiOS_3.0.2/os/rt/include/chtm.h"
 774              		.file 13 "ChibiOS_3.0.2/os/rt/include/chsem.h"
 775              		.file 14 "ChibiOS_3.0.2/os/rt/include/chmtx.h"
 776              		.file 15 "ChibiOS_3.0.2/os/hal/ports/STM32/STM32F4xx/stm32_dma.h"
 777              		.file 16 "ChibiOS_3.0.2/os/hal/include/uart.h"
 778              		.file 17 "ChibiOS_3.0.2/os/hal/ports/STM32/LLD/USARTv1/uart_lld.h"
 779              		.file 18 "ChibiOS_3.0.2/os/rt/include/chsys.h"
 780              		.file 19 "ChibiOS_3.0.2/os/hal/osal/rt/osal.h"
 781              		.file 20 "ChibiOS_3.0.2/os/ext/CMSIS/include/core_cm4.h"