ARM GAS  /var/folders/sv/kgmgr77579zbf78p2zlhkdfr0000gn/T//ccSmwAAq.s 			page 1


   1              		.syntax unified
   2              		.cpu cortex-m4
   3              		.eabi_attribute 27, 1
   4              		.eabi_attribute 28, 1
   5              		.fpu fpv4-sp-d16
   6              		.eabi_attribute 20, 1
   7              		.eabi_attribute 21, 1
   8              		.eabi_attribute 23, 3
   9              		.eabi_attribute 24, 1
  10              		.eabi_attribute 25, 1
  11              		.eabi_attribute 26, 1
  12              		.eabi_attribute 30, 2
  13              		.eabi_attribute 34, 1
  14              		.eabi_attribute 18, 4
  15              		.thumb
  16              		.syntax unified
  17              		.file	"uart.c"
  18              		.text
  19              	.Ltext0:
  20              		.cfi_sections	.debug_frame
  21              		.section	.text.uartInit,"ax",%progbits
  22              		.align	2
  23              		.p2align 4,,15
  24              		.global	uartInit
  25              		.thumb
  26              		.thumb_func
  27              		.type	uartInit, %function
  28              	uartInit:
  29              	.LFB256:
  30              		.file 1 "ChibiOS_3.0.2/os/hal/src/uart.c"
  31              		.loc 1 56 0
  32              		.cfi_startproc
  33              		@ args = 0, pretend = 0, frame = 0
  34              		@ frame_needed = 0, uses_anonymous_args = 0
  35              		@ link register save eliminated.
  36              		.loc 1 58 0
  37 0000 FFF7FEBF 		b	uart_lld_init
  38              	.LVL0:
  39              		.cfi_endproc
  40              	.LFE256:
  41              		.size	uartInit, .-uartInit
  42              		.section	.text.uartObjectInit,"ax",%progbits
  43              		.align	2
  44              		.p2align 4,,15
  45              		.global	uartObjectInit
  46              		.thumb
  47              		.thumb_func
  48              		.type	uartObjectInit, %function
  49              	uartObjectInit:
  50              	.LFB257:
  51              		.loc 1 68 0
  52              		.cfi_startproc
  53              		@ args = 0, pretend = 0, frame = 0
  54              		@ frame_needed = 0, uses_anonymous_args = 0
  55              		@ link register save eliminated.
  56              	.LVL1:
  57              		.loc 1 71 0
ARM GAS  /var/folders/sv/kgmgr77579zbf78p2zlhkdfr0000gn/T//ccSmwAAq.s 			page 2


  58 0000 0023     		movs	r3, #0
  59              		.loc 1 70 0
  60 0002 0122     		movs	r2, #1
  61 0004 0270     		strb	r2, [r0]
  62              		.loc 1 71 0
  63 0006 4370     		strb	r3, [r0, #1]
  64              		.loc 1 72 0
  65 0008 8370     		strb	r3, [r0, #2]
  66              		.loc 1 73 0
  67 000a 4360     		str	r3, [r0, #4]
  68 000c 7047     		bx	lr
  69              		.cfi_endproc
  70              	.LFE257:
  71              		.size	uartObjectInit, .-uartObjectInit
  72 000e 00BF     		.section	.text.uartStart,"ax",%progbits
  73              		.align	2
  74              		.p2align 4,,15
  75              		.global	uartStart
  76              		.thumb
  77              		.thumb_func
  78              		.type	uartStart, %function
  79              	uartStart:
  80              	.LFB258:
  81              		.loc 1 88 0
  82              		.cfi_startproc
  83              		@ args = 0, pretend = 0, frame = 0
  84              		@ frame_needed = 0, uses_anonymous_args = 0
  85              	.LVL2:
  86 0000 10B5     		push	{r4, lr}
  87              		.cfi_def_cfa_offset 8
  88              		.cfi_offset 4, -8
  89              		.cfi_offset 14, -4
  90              	.LBB102:
  91              	.LBB103:
  92              	.LBB104:
  93              	.LBB105:
  94              	.LBB106:
  95              		.file 2 "ChibiOS_3.0.2/os/ext/CMSIS/include/core_cmFunc.h"
  96              		.loc 2 546 0
  97 0002 2023     		movs	r3, #32
  98              	.LBE106:
  99              	.LBE105:
 100              	.LBE104:
 101              	.LBE103:
 102              	.LBE102:
 103              		.loc 1 88 0
 104 0004 0446     		mov	r4, r0
 105              	.LBB111:
 106              	.LBB110:
 107              	.LBB109:
 108              	.LBB108:
 109              	.LBB107:
 110              		.loc 2 546 0
 111              		.syntax unified
 112              	@ 546 "ChibiOS_3.0.2/os/ext/CMSIS/include/core_cmFunc.h" 1
 113 0006 83F31188 		MSR basepri, r3
 114              	@ 0 "" 2
ARM GAS  /var/folders/sv/kgmgr77579zbf78p2zlhkdfr0000gn/T//ccSmwAAq.s 			page 3


 115              	.LVL3:
 116              		.thumb
 117              		.syntax unified
 118              	.LBE107:
 119              	.LBE108:
 120              	.LBE109:
 121              	.LBE110:
 122              	.LBE111:
 123              		.loc 1 96 0
 124 000a 4160     		str	r1, [r0, #4]
 125              		.loc 1 97 0
 126 000c FFF7FEFF 		bl	uart_lld_start
 127              	.LVL4:
 128              		.loc 1 98 0
 129 0010 0223     		movs	r3, #2
 130 0012 2370     		strb	r3, [r4]
 131              	.LVL5:
 132              	.LBB112:
 133              	.LBB113:
 134              	.LBB114:
 135              	.LBB115:
 136              	.LBB116:
 137              	.LBB117:
 138              		.loc 2 546 0
 139 0014 0023     		movs	r3, #0
 140              		.syntax unified
 141              	@ 546 "ChibiOS_3.0.2/os/ext/CMSIS/include/core_cmFunc.h" 1
 142 0016 83F31188 		MSR basepri, r3
 143              	@ 0 "" 2
 144              	.LVL6:
 145              		.thumb
 146              		.syntax unified
 147 001a 10BD     		pop	{r4, pc}
 148              	.LBE117:
 149              	.LBE116:
 150              	.LBE115:
 151              	.LBE114:
 152              	.LBE113:
 153              	.LBE112:
 154              		.cfi_endproc
 155              	.LFE258:
 156              		.size	uartStart, .-uartStart
 157              		.section	.text.uartStop,"ax",%progbits
 158              		.align	2
 159              		.p2align 4,,15
 160              		.global	uartStop
 161              		.thumb
 162              		.thumb_func
 163              		.type	uartStop, %function
 164              	uartStop:
 165              	.LFB259:
 166              		.loc 1 109 0
 167              		.cfi_startproc
 168              		@ args = 0, pretend = 0, frame = 0
 169              		@ frame_needed = 0, uses_anonymous_args = 0
 170              	.LVL7:
 171 0000 10B5     		push	{r4, lr}
ARM GAS  /var/folders/sv/kgmgr77579zbf78p2zlhkdfr0000gn/T//ccSmwAAq.s 			page 4


 172              		.cfi_def_cfa_offset 8
 173              		.cfi_offset 4, -8
 174              		.cfi_offset 14, -4
 175              	.LBB118:
 176              	.LBB119:
 177              	.LBB120:
 178              	.LBB121:
 179              	.LBB122:
 180              		.loc 2 546 0
 181 0002 2023     		movs	r3, #32
 182              	.LBE122:
 183              	.LBE121:
 184              	.LBE120:
 185              	.LBE119:
 186              	.LBE118:
 187              		.loc 1 109 0
 188 0004 0446     		mov	r4, r0
 189              	.LBB127:
 190              	.LBB126:
 191              	.LBB125:
 192              	.LBB124:
 193              	.LBB123:
 194              		.loc 2 546 0
 195              		.syntax unified
 196              	@ 546 "ChibiOS_3.0.2/os/ext/CMSIS/include/core_cmFunc.h" 1
 197 0006 83F31188 		MSR basepri, r3
 198              	@ 0 "" 2
 199              	.LVL8:
 200              		.thumb
 201              		.syntax unified
 202              	.LBE123:
 203              	.LBE124:
 204              	.LBE125:
 205              	.LBE126:
 206              	.LBE127:
 207              		.loc 1 117 0
 208 000a FFF7FEFF 		bl	uart_lld_stop
 209              	.LVL9:
 210              		.loc 1 119 0
 211 000e 0023     		movs	r3, #0
 212              		.loc 1 118 0
 213 0010 0122     		movs	r2, #1
 214 0012 2270     		strb	r2, [r4]
 215              		.loc 1 119 0
 216 0014 6370     		strb	r3, [r4, #1]
 217              		.loc 1 120 0
 218 0016 A370     		strb	r3, [r4, #2]
 219              	.LVL10:
 220              	.LBB128:
 221              	.LBB129:
 222              	.LBB130:
 223              	.LBB131:
 224              	.LBB132:
 225              	.LBB133:
 226              		.loc 2 546 0
 227              		.syntax unified
 228              	@ 546 "ChibiOS_3.0.2/os/ext/CMSIS/include/core_cmFunc.h" 1
ARM GAS  /var/folders/sv/kgmgr77579zbf78p2zlhkdfr0000gn/T//ccSmwAAq.s 			page 5


 229 0018 83F31188 		MSR basepri, r3
 230              	@ 0 "" 2
 231              	.LVL11:
 232              		.thumb
 233              		.syntax unified
 234 001c 10BD     		pop	{r4, pc}
 235              	.LBE133:
 236              	.LBE132:
 237              	.LBE131:
 238              	.LBE130:
 239              	.LBE129:
 240              	.LBE128:
 241              		.cfi_endproc
 242              	.LFE259:
 243              		.size	uartStop, .-uartStop
 244 001e 00BF     		.section	.text.uartStartSend,"ax",%progbits
 245              		.align	2
 246              		.p2align 4,,15
 247              		.global	uartStartSend
 248              		.thumb
 249              		.thumb_func
 250              		.type	uartStartSend, %function
 251              	uartStartSend:
 252              	.LFB260:
 253              		.loc 1 135 0
 254              		.cfi_startproc
 255              		@ args = 0, pretend = 0, frame = 0
 256              		@ frame_needed = 0, uses_anonymous_args = 0
 257              	.LVL12:
 258 0000 10B5     		push	{r4, lr}
 259              		.cfi_def_cfa_offset 8
 260              		.cfi_offset 4, -8
 261              		.cfi_offset 14, -4
 262              	.LBB134:
 263              	.LBB135:
 264              	.LBB136:
 265              	.LBB137:
 266              	.LBB138:
 267              		.loc 2 546 0
 268 0002 2023     		movs	r3, #32
 269              	.LBE138:
 270              	.LBE137:
 271              	.LBE136:
 272              	.LBE135:
 273              	.LBE134:
 274              		.loc 1 135 0
 275 0004 0446     		mov	r4, r0
 276              	.LBB143:
 277              	.LBB142:
 278              	.LBB141:
 279              	.LBB140:
 280              	.LBB139:
 281              		.loc 2 546 0
 282              		.syntax unified
 283              	@ 546 "ChibiOS_3.0.2/os/ext/CMSIS/include/core_cmFunc.h" 1
 284 0006 83F31188 		MSR basepri, r3
 285              	@ 0 "" 2
ARM GAS  /var/folders/sv/kgmgr77579zbf78p2zlhkdfr0000gn/T//ccSmwAAq.s 			page 6


 286              	.LVL13:
 287              		.thumb
 288              		.syntax unified
 289              	.LBE139:
 290              	.LBE140:
 291              	.LBE141:
 292              	.LBE142:
 293              	.LBE143:
 294              		.loc 1 143 0
 295 000a FFF7FEFF 		bl	uart_lld_start_send
 296              	.LVL14:
 297              		.loc 1 144 0
 298 000e 0123     		movs	r3, #1
 299 0010 6370     		strb	r3, [r4, #1]
 300              	.LVL15:
 301              	.LBB144:
 302              	.LBB145:
 303              	.LBB146:
 304              	.LBB147:
 305              	.LBB148:
 306              	.LBB149:
 307              		.loc 2 546 0
 308 0012 0023     		movs	r3, #0
 309              		.syntax unified
 310              	@ 546 "ChibiOS_3.0.2/os/ext/CMSIS/include/core_cmFunc.h" 1
 311 0014 83F31188 		MSR basepri, r3
 312              	@ 0 "" 2
 313              	.LVL16:
 314              		.thumb
 315              		.syntax unified
 316 0018 10BD     		pop	{r4, pc}
 317              	.LBE149:
 318              	.LBE148:
 319              	.LBE147:
 320              	.LBE146:
 321              	.LBE145:
 322              	.LBE144:
 323              		.cfi_endproc
 324              	.LFE260:
 325              		.size	uartStartSend, .-uartStartSend
 326 001a 00BF     		.section	.text.uartStartSendI,"ax",%progbits
 327              		.align	2
 328              		.p2align 4,,15
 329              		.global	uartStartSendI
 330              		.thumb
 331              		.thumb_func
 332              		.type	uartStartSendI, %function
 333              	uartStartSendI:
 334              	.LFB261:
 335              		.loc 1 160 0
 336              		.cfi_startproc
 337              		@ args = 0, pretend = 0, frame = 0
 338              		@ frame_needed = 0, uses_anonymous_args = 0
 339              	.LVL17:
 340 0000 10B5     		push	{r4, lr}
 341              		.cfi_def_cfa_offset 8
 342              		.cfi_offset 4, -8
ARM GAS  /var/folders/sv/kgmgr77579zbf78p2zlhkdfr0000gn/T//ccSmwAAq.s 			page 7


 343              		.cfi_offset 14, -4
 344              		.loc 1 160 0
 345 0002 0446     		mov	r4, r0
 346              		.loc 1 167 0
 347 0004 FFF7FEFF 		bl	uart_lld_start_send
 348              	.LVL18:
 349              		.loc 1 168 0
 350 0008 0123     		movs	r3, #1
 351 000a 6370     		strb	r3, [r4, #1]
 352 000c 10BD     		pop	{r4, pc}
 353              		.cfi_endproc
 354              	.LFE261:
 355              		.size	uartStartSendI, .-uartStartSendI
 356 000e 00BF     		.section	.text.uartStopSend,"ax",%progbits
 357              		.align	2
 358              		.p2align 4,,15
 359              		.global	uartStopSend
 360              		.thumb
 361              		.thumb_func
 362              		.type	uartStopSend, %function
 363              	uartStopSend:
 364              	.LFB262:
 365              		.loc 1 183 0
 366              		.cfi_startproc
 367              		@ args = 0, pretend = 0, frame = 0
 368              		@ frame_needed = 0, uses_anonymous_args = 0
 369              	.LVL19:
 370              	.LBB150:
 371              	.LBB151:
 372              	.LBB152:
 373              	.LBB153:
 374              	.LBB154:
 375              		.loc 2 546 0
 376 0000 2022     		movs	r2, #32
 377              		.syntax unified
 378              	@ 546 "ChibiOS_3.0.2/os/ext/CMSIS/include/core_cmFunc.h" 1
 379 0002 82F31188 		MSR basepri, r2
 380              	@ 0 "" 2
 381              	.LVL20:
 382              		.thumb
 383              		.syntax unified
 384              	.LBE154:
 385              	.LBE153:
 386              	.LBE152:
 387              	.LBE151:
 388              	.LBE150:
 389              		.loc 1 191 0
 390 0006 4278     		ldrb	r2, [r0, #1]	@ zero_extendqisi2
 391 0008 012A     		cmp	r2, #1
 392 000a 04D0     		beq	.L17
 393              		.loc 1 196 0
 394 000c 0020     		movs	r0, #0
 395              	.LVL21:
 396              	.LBB155:
 397              	.LBB156:
 398              	.LBB157:
 399              	.LBB158:
ARM GAS  /var/folders/sv/kgmgr77579zbf78p2zlhkdfr0000gn/T//ccSmwAAq.s 			page 8


 400              	.LBB159:
 401              	.LBB160:
 402              		.loc 2 546 0
 403 000e 0023     		movs	r3, #0
 404              		.syntax unified
 405              	@ 546 "ChibiOS_3.0.2/os/ext/CMSIS/include/core_cmFunc.h" 1
 406 0010 83F31188 		MSR basepri, r3
 407              	@ 0 "" 2
 408              	.LVL22:
 409              		.thumb
 410              		.syntax unified
 411              	.LBE160:
 412              	.LBE159:
 413              	.LBE158:
 414              	.LBE157:
 415              	.LBE156:
 416              	.LBE155:
 417              		.loc 1 201 0
 418 0014 7047     		bx	lr
 419              	.LVL23:
 420              	.L17:
 421              		.loc 1 183 0
 422 0016 10B5     		push	{r4, lr}
 423              		.cfi_def_cfa_offset 8
 424              		.cfi_offset 4, -8
 425              		.cfi_offset 14, -4
 426 0018 0446     		mov	r4, r0
 427              		.loc 1 192 0
 428 001a FFF7FEFF 		bl	uart_lld_stop_send
 429              	.LVL24:
 430              		.loc 1 193 0
 431 001e 0023     		movs	r3, #0
 432 0020 6370     		strb	r3, [r4, #1]
 433              	.LVL25:
 434              	.LBB166:
 435              	.LBB165:
 436              	.LBB164:
 437              	.LBB163:
 438              	.LBB162:
 439              	.LBB161:
 440              		.loc 2 546 0
 441 0022 0023     		movs	r3, #0
 442              		.syntax unified
 443              	@ 546 "ChibiOS_3.0.2/os/ext/CMSIS/include/core_cmFunc.h" 1
 444 0024 83F31188 		MSR basepri, r3
 445              	@ 0 "" 2
 446              	.LVL26:
 447              		.thumb
 448              		.syntax unified
 449              	.LBE161:
 450              	.LBE162:
 451              	.LBE163:
 452              	.LBE164:
 453              	.LBE165:
 454              	.LBE166:
 455              		.loc 1 201 0
 456 0028 10BD     		pop	{r4, pc}
ARM GAS  /var/folders/sv/kgmgr77579zbf78p2zlhkdfr0000gn/T//ccSmwAAq.s 			page 9


 457              		.cfi_endproc
 458              	.LFE262:
 459              		.size	uartStopSend, .-uartStopSend
 460 002a 00BF     		.section	.text.uartStopSendI,"ax",%progbits
 461              		.align	2
 462              		.p2align 4,,15
 463              		.global	uartStopSendI
 464              		.thumb
 465              		.thumb_func
 466              		.type	uartStopSendI, %function
 467              	uartStopSendI:
 468              	.LFB263:
 469              		.loc 1 216 0
 470              		.cfi_startproc
 471              		@ args = 0, pretend = 0, frame = 0
 472              		@ frame_needed = 0, uses_anonymous_args = 0
 473              	.LVL27:
 474              		.loc 1 222 0
 475 0000 4278     		ldrb	r2, [r0, #1]	@ zero_extendqisi2
 476 0002 012A     		cmp	r2, #1
 477 0004 01D0     		beq	.L23
 478              		.loc 1 227 0
 479 0006 0020     		movs	r0, #0
 480              	.LVL28:
 481 0008 7047     		bx	lr
 482              	.LVL29:
 483              	.L23:
 484              		.loc 1 216 0
 485 000a 10B5     		push	{r4, lr}
 486              		.cfi_def_cfa_offset 8
 487              		.cfi_offset 4, -8
 488              		.cfi_offset 14, -4
 489 000c 0446     		mov	r4, r0
 490              	.LBB167:
 491              		.loc 1 223 0
 492 000e FFF7FEFF 		bl	uart_lld_stop_send
 493              	.LVL30:
 494              		.loc 1 224 0
 495 0012 0023     		movs	r3, #0
 496 0014 6370     		strb	r3, [r4, #1]
 497              		.loc 1 225 0
 498 0016 10BD     		pop	{r4, pc}
 499              	.LBE167:
 500              		.cfi_endproc
 501              	.LFE263:
 502              		.size	uartStopSendI, .-uartStopSendI
 503              		.section	.text.uartStartReceive,"ax",%progbits
 504              		.align	2
 505              		.p2align 4,,15
 506              		.global	uartStartReceive
 507              		.thumb
 508              		.thumb_func
 509              		.type	uartStartReceive, %function
 510              	uartStartReceive:
 511              	.LFB264:
 512              		.loc 1 241 0
 513              		.cfi_startproc
ARM GAS  /var/folders/sv/kgmgr77579zbf78p2zlhkdfr0000gn/T//ccSmwAAq.s 			page 10


 514              		@ args = 0, pretend = 0, frame = 0
 515              		@ frame_needed = 0, uses_anonymous_args = 0
 516              	.LVL31:
 517 0000 10B5     		push	{r4, lr}
 518              		.cfi_def_cfa_offset 8
 519              		.cfi_offset 4, -8
 520              		.cfi_offset 14, -4
 521              	.LBB168:
 522              	.LBB169:
 523              	.LBB170:
 524              	.LBB171:
 525              	.LBB172:
 526              		.loc 2 546 0
 527 0002 2023     		movs	r3, #32
 528              	.LBE172:
 529              	.LBE171:
 530              	.LBE170:
 531              	.LBE169:
 532              	.LBE168:
 533              		.loc 1 241 0
 534 0004 0446     		mov	r4, r0
 535              	.LBB177:
 536              	.LBB176:
 537              	.LBB175:
 538              	.LBB174:
 539              	.LBB173:
 540              		.loc 2 546 0
 541              		.syntax unified
 542              	@ 546 "ChibiOS_3.0.2/os/ext/CMSIS/include/core_cmFunc.h" 1
 543 0006 83F31188 		MSR basepri, r3
 544              	@ 0 "" 2
 545              	.LVL32:
 546              		.thumb
 547              		.syntax unified
 548              	.LBE173:
 549              	.LBE174:
 550              	.LBE175:
 551              	.LBE176:
 552              	.LBE177:
 553              		.loc 1 249 0
 554 000a FFF7FEFF 		bl	uart_lld_start_receive
 555              	.LVL33:
 556              		.loc 1 250 0
 557 000e 0123     		movs	r3, #1
 558 0010 A370     		strb	r3, [r4, #2]
 559              	.LVL34:
 560              	.LBB178:
 561              	.LBB179:
 562              	.LBB180:
 563              	.LBB181:
 564              	.LBB182:
 565              	.LBB183:
 566              		.loc 2 546 0
 567 0012 0023     		movs	r3, #0
 568              		.syntax unified
 569              	@ 546 "ChibiOS_3.0.2/os/ext/CMSIS/include/core_cmFunc.h" 1
 570 0014 83F31188 		MSR basepri, r3
ARM GAS  /var/folders/sv/kgmgr77579zbf78p2zlhkdfr0000gn/T//ccSmwAAq.s 			page 11


 571              	@ 0 "" 2
 572              	.LVL35:
 573              		.thumb
 574              		.syntax unified
 575 0018 10BD     		pop	{r4, pc}
 576              	.LBE183:
 577              	.LBE182:
 578              	.LBE181:
 579              	.LBE180:
 580              	.LBE179:
 581              	.LBE178:
 582              		.cfi_endproc
 583              	.LFE264:
 584              		.size	uartStartReceive, .-uartStartReceive
 585 001a 00BF     		.section	.text.uartStartReceiveI,"ax",%progbits
 586              		.align	2
 587              		.p2align 4,,15
 588              		.global	uartStartReceiveI
 589              		.thumb
 590              		.thumb_func
 591              		.type	uartStartReceiveI, %function
 592              	uartStartReceiveI:
 593              	.LFB265:
 594              		.loc 1 266 0
 595              		.cfi_startproc
 596              		@ args = 0, pretend = 0, frame = 0
 597              		@ frame_needed = 0, uses_anonymous_args = 0
 598              	.LVL36:
 599 0000 10B5     		push	{r4, lr}
 600              		.cfi_def_cfa_offset 8
 601              		.cfi_offset 4, -8
 602              		.cfi_offset 14, -4
 603              		.loc 1 266 0
 604 0002 0446     		mov	r4, r0
 605              		.loc 1 273 0
 606 0004 FFF7FEFF 		bl	uart_lld_start_receive
 607              	.LVL37:
 608              		.loc 1 274 0
 609 0008 0123     		movs	r3, #1
 610 000a A370     		strb	r3, [r4, #2]
 611 000c 10BD     		pop	{r4, pc}
 612              		.cfi_endproc
 613              	.LFE265:
 614              		.size	uartStartReceiveI, .-uartStartReceiveI
 615 000e 00BF     		.section	.text.uartStopReceive,"ax",%progbits
 616              		.align	2
 617              		.p2align 4,,15
 618              		.global	uartStopReceive
 619              		.thumb
 620              		.thumb_func
 621              		.type	uartStopReceive, %function
 622              	uartStopReceive:
 623              	.LFB266:
 624              		.loc 1 289 0
 625              		.cfi_startproc
 626              		@ args = 0, pretend = 0, frame = 0
 627              		@ frame_needed = 0, uses_anonymous_args = 0
ARM GAS  /var/folders/sv/kgmgr77579zbf78p2zlhkdfr0000gn/T//ccSmwAAq.s 			page 12


 628              	.LVL38:
 629              	.LBB184:
 630              	.LBB185:
 631              	.LBB186:
 632              	.LBB187:
 633              	.LBB188:
 634              		.loc 2 546 0
 635 0000 2022     		movs	r2, #32
 636              		.syntax unified
 637              	@ 546 "ChibiOS_3.0.2/os/ext/CMSIS/include/core_cmFunc.h" 1
 638 0002 82F31188 		MSR basepri, r2
 639              	@ 0 "" 2
 640              	.LVL39:
 641              		.thumb
 642              		.syntax unified
 643              	.LBE188:
 644              	.LBE187:
 645              	.LBE186:
 646              	.LBE185:
 647              	.LBE184:
 648              		.loc 1 297 0
 649 0006 8278     		ldrb	r2, [r0, #2]	@ zero_extendqisi2
 650 0008 012A     		cmp	r2, #1
 651 000a 04D0     		beq	.L33
 652              		.loc 1 302 0
 653 000c 0020     		movs	r0, #0
 654              	.LVL40:
 655              	.LBB189:
 656              	.LBB190:
 657              	.LBB191:
 658              	.LBB192:
 659              	.LBB193:
 660              	.LBB194:
 661              		.loc 2 546 0
 662 000e 0023     		movs	r3, #0
 663              		.syntax unified
 664              	@ 546 "ChibiOS_3.0.2/os/ext/CMSIS/include/core_cmFunc.h" 1
 665 0010 83F31188 		MSR basepri, r3
 666              	@ 0 "" 2
 667              	.LVL41:
 668              		.thumb
 669              		.syntax unified
 670              	.LBE194:
 671              	.LBE193:
 672              	.LBE192:
 673              	.LBE191:
 674              	.LBE190:
 675              	.LBE189:
 676              		.loc 1 307 0
 677 0014 7047     		bx	lr
 678              	.LVL42:
 679              	.L33:
 680              		.loc 1 289 0
 681 0016 10B5     		push	{r4, lr}
 682              		.cfi_def_cfa_offset 8
 683              		.cfi_offset 4, -8
 684              		.cfi_offset 14, -4
ARM GAS  /var/folders/sv/kgmgr77579zbf78p2zlhkdfr0000gn/T//ccSmwAAq.s 			page 13


 685 0018 0446     		mov	r4, r0
 686              		.loc 1 298 0
 687 001a FFF7FEFF 		bl	uart_lld_stop_receive
 688              	.LVL43:
 689              		.loc 1 299 0
 690 001e 0023     		movs	r3, #0
 691 0020 A370     		strb	r3, [r4, #2]
 692              	.LVL44:
 693              	.LBB200:
 694              	.LBB199:
 695              	.LBB198:
 696              	.LBB197:
 697              	.LBB196:
 698              	.LBB195:
 699              		.loc 2 546 0
 700 0022 0023     		movs	r3, #0
 701              		.syntax unified
 702              	@ 546 "ChibiOS_3.0.2/os/ext/CMSIS/include/core_cmFunc.h" 1
 703 0024 83F31188 		MSR basepri, r3
 704              	@ 0 "" 2
 705              	.LVL45:
 706              		.thumb
 707              		.syntax unified
 708              	.LBE195:
 709              	.LBE196:
 710              	.LBE197:
 711              	.LBE198:
 712              	.LBE199:
 713              	.LBE200:
 714              		.loc 1 307 0
 715 0028 10BD     		pop	{r4, pc}
 716              		.cfi_endproc
 717              	.LFE266:
 718              		.size	uartStopReceive, .-uartStopReceive
 719 002a 00BF     		.section	.text.uartStopReceiveI,"ax",%progbits
 720              		.align	2
 721              		.p2align 4,,15
 722              		.global	uartStopReceiveI
 723              		.thumb
 724              		.thumb_func
 725              		.type	uartStopReceiveI, %function
 726              	uartStopReceiveI:
 727              	.LFB267:
 728              		.loc 1 322 0
 729              		.cfi_startproc
 730              		@ args = 0, pretend = 0, frame = 0
 731              		@ frame_needed = 0, uses_anonymous_args = 0
 732              	.LVL46:
 733              		.loc 1 328 0
 734 0000 8278     		ldrb	r2, [r0, #2]	@ zero_extendqisi2
 735 0002 012A     		cmp	r2, #1
 736 0004 01D0     		beq	.L39
 737              		.loc 1 333 0
 738 0006 0020     		movs	r0, #0
 739              	.LVL47:
 740 0008 7047     		bx	lr
 741              	.LVL48:
ARM GAS  /var/folders/sv/kgmgr77579zbf78p2zlhkdfr0000gn/T//ccSmwAAq.s 			page 14


 742              	.L39:
 743              		.loc 1 322 0
 744 000a 10B5     		push	{r4, lr}
 745              		.cfi_def_cfa_offset 8
 746              		.cfi_offset 4, -8
 747              		.cfi_offset 14, -4
 748 000c 0446     		mov	r4, r0
 749              	.LBB201:
 750              		.loc 1 329 0
 751 000e FFF7FEFF 		bl	uart_lld_stop_receive
 752              	.LVL49:
 753              		.loc 1 330 0
 754 0012 0023     		movs	r3, #0
 755 0014 A370     		strb	r3, [r4, #2]
 756              		.loc 1 331 0
 757 0016 10BD     		pop	{r4, pc}
 758              	.LBE201:
 759              		.cfi_endproc
 760              	.LFE267:
 761              		.size	uartStopReceiveI, .-uartStopReceiveI
 762              		.text
 763              	.Letext0:
 764              		.file 3 "/usr/local/Cellar/gcc-arm-none-eabi/20160928/lib/gcc/arm-none-eabi/5.4.1/include/stddef.h
 765              		.file 4 "/usr/local/Cellar/gcc-arm-none-eabi/20160928/arm-none-eabi/include/machine/_default_types
 766              		.file 5 "/usr/local/Cellar/gcc-arm-none-eabi/20160928/arm-none-eabi/include/sys/_stdint.h"
 767              		.file 6 "ChibiOS_3.0.2/os/rt/ports/ARMCMx/compilers/GCC/chtypes.h"
 768              		.file 7 "ChibiOS_3.0.2/os/rt/include/chsystypes.h"
 769              		.file 8 "ChibiOS_3.0.2/os/rt/include/chschd.h"
 770              		.file 9 "ChibiOS_3.0.2/os/ext/CMSIS/ST/stm32f407xx.h"
 771              		.file 10 "ChibiOS_3.0.2/os/rt/ports/ARMCMx/chcore.h"
 772              		.file 11 "ChibiOS_3.0.2/os/rt/ports/ARMCMx/chcore_v7m.h"
 773              		.file 12 "ChibiOS_3.0.2/os/rt/include/chtm.h"
 774              		.file 13 "ChibiOS_3.0.2/os/rt/include/chsem.h"
 775              		.file 14 "ChibiOS_3.0.2/os/rt/include/chmtx.h"
 776              		.file 15 "ChibiOS_3.0.2/os/hal/ports/STM32/STM32F4xx/stm32_dma.h"
 777              		.file 16 "ChibiOS_3.0.2/os/hal/include/uart.h"
 778              		.file 17 "ChibiOS_3.0.2/os/hal/ports/STM32/LLD/USARTv1/uart_lld.h"
 779              		.file 18 "ChibiOS_3.0.2/os/rt/include/chsys.h"
 780              		.file 19 "ChibiOS_3.0.2/os/hal/osal/rt/osal.h"
 781              		.file 20 "ChibiOS_3.0.2/os/ext/CMSIS/include/core_cm4.h"
 782              		.section	.debug_info,"",%progbits
 783              	.Ldebug_info0:
 784 0000 06140000 		.4byte	0x1406
 785 0004 0400     		.2byte	0x4
 786 0006 00000000 		.4byte	.Ldebug_abbrev0
 787 000a 04       		.byte	0x4
 788 000b 01       		.uleb128 0x1
 789 000c 32070000 		.4byte	.LASF184
 790 0010 0C       		.byte	0xc
 791 0011 52020000 		.4byte	.LASF185
 792 0015 64080000 		.4byte	.LASF186
 793 0019 90000000 		.4byte	.Ldebug_ranges0+0x90
 794 001d 00000000 		.4byte	0
 795 0021 00000000 		.4byte	.Ldebug_line0
 796 0025 02       		.uleb128 0x2
 797 0026 04       		.byte	0x4
 798 0027 05       		.byte	0x5
ARM GAS  /var/folders/sv/kgmgr77579zbf78p2zlhkdfr0000gn/T//ccSmwAAq.s 			page 15


 799 0028 696E7400 		.ascii	"int\000"
 800 002c 03       		.uleb128 0x3
 801 002d 2F000000 		.4byte	.LASF2
 802 0031 03       		.byte	0x3
 803 0032 D8       		.byte	0xd8
 804 0033 37000000 		.4byte	0x37
 805 0037 04       		.uleb128 0x4
 806 0038 04       		.byte	0x4
 807 0039 07       		.byte	0x7
 808 003a 78020000 		.4byte	.LASF0
 809 003e 04       		.uleb128 0x4
 810 003f 01       		.byte	0x1
 811 0040 06       		.byte	0x6
 812 0041 27010000 		.4byte	.LASF1
 813 0045 03       		.uleb128 0x3
 814 0046 50000000 		.4byte	.LASF3
 815 004a 04       		.byte	0x4
 816 004b 1D       		.byte	0x1d
 817 004c 50000000 		.4byte	0x50
 818 0050 04       		.uleb128 0x4
 819 0051 01       		.byte	0x1
 820 0052 08       		.byte	0x8
 821 0053 F9040000 		.4byte	.LASF4
 822 0057 04       		.uleb128 0x4
 823 0058 02       		.byte	0x2
 824 0059 05       		.byte	0x5
 825 005a 24050000 		.4byte	.LASF5
 826 005e 03       		.uleb128 0x3
 827 005f 3A060000 		.4byte	.LASF6
 828 0063 04       		.byte	0x4
 829 0064 2B       		.byte	0x2b
 830 0065 69000000 		.4byte	0x69
 831 0069 04       		.uleb128 0x4
 832 006a 02       		.byte	0x2
 833 006b 07       		.byte	0x7
 834 006c D1020000 		.4byte	.LASF7
 835 0070 03       		.uleb128 0x3
 836 0071 5F030000 		.4byte	.LASF8
 837 0075 04       		.byte	0x4
 838 0076 3F       		.byte	0x3f
 839 0077 7B000000 		.4byte	0x7b
 840 007b 04       		.uleb128 0x4
 841 007c 04       		.byte	0x4
 842 007d 05       		.byte	0x5
 843 007e 83010000 		.4byte	.LASF9
 844 0082 03       		.uleb128 0x3
 845 0083 73060000 		.4byte	.LASF10
 846 0087 04       		.byte	0x4
 847 0088 41       		.byte	0x41
 848 0089 8D000000 		.4byte	0x8d
 849 008d 04       		.uleb128 0x4
 850 008e 04       		.byte	0x4
 851 008f 07       		.byte	0x7
 852 0090 00060000 		.4byte	.LASF11
 853 0094 04       		.uleb128 0x4
 854 0095 08       		.byte	0x8
 855 0096 05       		.byte	0x5
ARM GAS  /var/folders/sv/kgmgr77579zbf78p2zlhkdfr0000gn/T//ccSmwAAq.s 			page 16


 856 0097 19010000 		.4byte	.LASF12
 857 009b 03       		.uleb128 0x3
 858 009c 64040000 		.4byte	.LASF13
 859 00a0 04       		.byte	0x4
 860 00a1 5B       		.byte	0x5b
 861 00a2 A6000000 		.4byte	0xa6
 862 00a6 04       		.uleb128 0x4
 863 00a7 08       		.byte	0x8
 864 00a8 07       		.byte	0x7
 865 00a9 8C000000 		.4byte	.LASF14
 866 00ad 03       		.uleb128 0x3
 867 00ae 5C080000 		.4byte	.LASF15
 868 00b2 05       		.byte	0x5
 869 00b3 18       		.byte	0x18
 870 00b4 45000000 		.4byte	0x45
 871 00b8 03       		.uleb128 0x3
 872 00b9 B6010000 		.4byte	.LASF16
 873 00bd 05       		.byte	0x5
 874 00be 24       		.byte	0x24
 875 00bf 5E000000 		.4byte	0x5e
 876 00c3 03       		.uleb128 0x3
 877 00c4 F1040000 		.4byte	.LASF17
 878 00c8 05       		.byte	0x5
 879 00c9 2C       		.byte	0x2c
 880 00ca 70000000 		.4byte	0x70
 881 00ce 03       		.uleb128 0x3
 882 00cf 06090000 		.4byte	.LASF18
 883 00d3 05       		.byte	0x5
 884 00d4 30       		.byte	0x30
 885 00d5 82000000 		.4byte	0x82
 886 00d9 03       		.uleb128 0x3
 887 00da 47000000 		.4byte	.LASF19
 888 00de 05       		.byte	0x5
 889 00df 3C       		.byte	0x3c
 890 00e0 9B000000 		.4byte	0x9b
 891 00e4 05       		.uleb128 0x5
 892 00e5 B8000000 		.4byte	0xb8
 893 00e9 05       		.uleb128 0x5
 894 00ea C3000000 		.4byte	0xc3
 895 00ee 05       		.uleb128 0x5
 896 00ef CE000000 		.4byte	0xce
 897 00f3 03       		.uleb128 0x3
 898 00f4 DC060000 		.4byte	.LASF20
 899 00f8 06       		.byte	0x6
 900 00f9 45       		.byte	0x45
 901 00fa CE000000 		.4byte	0xce
 902 00fe 03       		.uleb128 0x3
 903 00ff 33030000 		.4byte	.LASF21
 904 0103 06       		.byte	0x6
 905 0104 48       		.byte	0x48
 906 0105 AD000000 		.4byte	0xad
 907 0109 03       		.uleb128 0x3
 908 010a 9D010000 		.4byte	.LASF22
 909 010e 06       		.byte	0x6
 910 010f 49       		.byte	0x49
 911 0110 AD000000 		.4byte	0xad
 912 0114 03       		.uleb128 0x3
ARM GAS  /var/folders/sv/kgmgr77579zbf78p2zlhkdfr0000gn/T//ccSmwAAq.s 			page 17


 913 0115 75040000 		.4byte	.LASF23
 914 0119 06       		.byte	0x6
 915 011a 4A       		.byte	0x4a
 916 011b AD000000 		.4byte	0xad
 917 011f 03       		.uleb128 0x3
 918 0120 69010000 		.4byte	.LASF24
 919 0124 06       		.byte	0x6
 920 0125 4B       		.byte	0x4b
 921 0126 AD000000 		.4byte	0xad
 922 012a 03       		.uleb128 0x3
 923 012b B5040000 		.4byte	.LASF25
 924 012f 06       		.byte	0x6
 925 0130 4C       		.byte	0x4c
 926 0131 CE000000 		.4byte	0xce
 927 0135 03       		.uleb128 0x3
 928 0136 0A030000 		.4byte	.LASF26
 929 013a 06       		.byte	0x6
 930 013b 4D       		.byte	0x4d
 931 013c C3000000 		.4byte	0xc3
 932 0140 03       		.uleb128 0x3
 933 0141 53030000 		.4byte	.LASF27
 934 0145 06       		.byte	0x6
 935 0146 4F       		.byte	0x4f
 936 0147 CE000000 		.4byte	0xce
 937 014b 03       		.uleb128 0x3
 938 014c EA030000 		.4byte	.LASF28
 939 0150 06       		.byte	0x6
 940 0151 51       		.byte	0x51
 941 0152 C3000000 		.4byte	0xc3
 942 0156 03       		.uleb128 0x3
 943 0157 55060000 		.4byte	.LASF29
 944 015b 07       		.byte	0x7
 945 015c 33       		.byte	0x33
 946 015d CE000000 		.4byte	0xce
 947 0161 03       		.uleb128 0x3
 948 0162 45060000 		.4byte	.LASF30
 949 0166 07       		.byte	0x7
 950 0167 3F       		.byte	0x3f
 951 0168 6C010000 		.4byte	0x16c
 952 016c 06       		.uleb128 0x6
 953 016d FA020000 		.4byte	.LASF52
 954 0171 48       		.byte	0x48
 955 0172 08       		.byte	0x8
 956 0173 C2       		.byte	0xc2
 957 0174 71020000 		.4byte	0x271
 958 0178 07       		.uleb128 0x7
 959 0179 55050000 		.4byte	.LASF31
 960 017d 08       		.byte	0x8
 961 017e C3       		.byte	0xc3
 962 017f 7C020000 		.4byte	0x27c
 963 0183 00       		.byte	0
 964 0184 07       		.uleb128 0x7
 965 0185 8D040000 		.4byte	.LASF32
 966 0189 08       		.byte	0x8
 967 018a C5       		.byte	0xc5
 968 018b 7C020000 		.4byte	0x27c
 969 018f 04       		.byte	0x4
ARM GAS  /var/folders/sv/kgmgr77579zbf78p2zlhkdfr0000gn/T//ccSmwAAq.s 			page 18


 970 0190 07       		.uleb128 0x7
 971 0191 F4000000 		.4byte	.LASF33
 972 0195 08       		.byte	0x8
 973 0196 C7       		.byte	0xc7
 974 0197 2A010000 		.4byte	0x12a
 975 019b 08       		.byte	0x8
 976 019c 07       		.uleb128 0x7
 977 019d 0F090000 		.4byte	.LASF34
 978 01a1 08       		.byte	0x8
 979 01a2 C8       		.byte	0xc8
 980 01a3 7E050000 		.4byte	0x57e
 981 01a7 0C       		.byte	0xc
 982 01a8 07       		.uleb128 0x7
 983 01a9 DB010000 		.4byte	.LASF35
 984 01ad 08       		.byte	0x8
 985 01ae CA       		.byte	0xca
 986 01af 7C020000 		.4byte	0x27c
 987 01b3 10       		.byte	0x10
 988 01b4 07       		.uleb128 0x7
 989 01b5 0A040000 		.4byte	.LASF36
 990 01b9 08       		.byte	0x8
 991 01ba CB       		.byte	0xcb
 992 01bb 7C020000 		.4byte	0x27c
 993 01bf 14       		.byte	0x14
 994 01c0 07       		.uleb128 0x7
 995 01c1 15070000 		.4byte	.LASF37
 996 01c5 08       		.byte	0x8
 997 01c6 D2       		.byte	0xd2
 998 01c7 C3070000 		.4byte	0x7c3
 999 01cb 18       		.byte	0x18
 1000 01cc 07       		.uleb128 0x7
 1001 01cd 2E050000 		.4byte	.LASF38
 1002 01d1 08       		.byte	0x8
 1003 01d2 DD       		.byte	0xdd
 1004 01d3 09010000 		.4byte	0x109
 1005 01d7 1C       		.byte	0x1c
 1006 01d8 07       		.uleb128 0x7
 1007 01d9 BF080000 		.4byte	.LASF39
 1008 01dd 08       		.byte	0x8
 1009 01de E1       		.byte	0xe1
 1010 01df FE000000 		.4byte	0xfe
 1011 01e3 1D       		.byte	0x1d
 1012 01e4 07       		.uleb128 0x7
 1013 01e5 1C070000 		.4byte	.LASF40
 1014 01e9 08       		.byte	0x8
 1015 01ea E6       		.byte	0xe6
 1016 01eb 14010000 		.4byte	0x114
 1017 01ef 1E       		.byte	0x1e
 1018 01f0 07       		.uleb128 0x7
 1019 01f1 36050000 		.4byte	.LASF41
 1020 01f5 08       		.byte	0x8
 1021 01f6 EC       		.byte	0xec
 1022 01f7 1F010000 		.4byte	0x11f
 1023 01fb 1F       		.byte	0x1f
 1024 01fc 07       		.uleb128 0x7
 1025 01fd C4060000 		.4byte	.LASF42
 1026 0201 08       		.byte	0x8
ARM GAS  /var/folders/sv/kgmgr77579zbf78p2zlhkdfr0000gn/T//ccSmwAAq.s 			page 19


 1027 0202 F3       		.byte	0xf3
 1028 0203 D5070000 		.4byte	0x7d5
 1029 0207 20       		.byte	0x20
 1030 0208 08       		.uleb128 0x8
 1031 0209 705F7500 		.ascii	"p_u\000"
 1032 020d 08       		.byte	0x8
 1033 020e 3101     		.2byte	0x131
 1034 0210 FE060000 		.4byte	0x6fe
 1035 0214 24       		.byte	0x24
 1036 0215 09       		.uleb128 0x9
 1037 0216 15090000 		.4byte	.LASF43
 1038 021a 08       		.byte	0x8
 1039 021b 3601     		.2byte	0x136
 1040 021d 82020000 		.4byte	0x282
 1041 0221 28       		.byte	0x28
 1042 0222 09       		.uleb128 0x9
 1043 0223 E4060000 		.4byte	.LASF44
 1044 0227 08       		.byte	0x8
 1045 0228 3C01     		.2byte	0x13c
 1046 022a A6020000 		.4byte	0x2a6
 1047 022e 2C       		.byte	0x2c
 1048 022f 09       		.uleb128 0x9
 1049 0230 E7080000 		.4byte	.LASF45
 1050 0234 08       		.byte	0x8
 1051 0235 4001     		.2byte	0x140
 1052 0237 35010000 		.4byte	0x135
 1053 023b 34       		.byte	0x34
 1054 023c 09       		.uleb128 0x9
 1055 023d A7050000 		.4byte	.LASF46
 1056 0241 08       		.byte	0x8
 1057 0242 4601     		.2byte	0x146
 1058 0244 40010000 		.4byte	0x140
 1059 0248 38       		.byte	0x38
 1060 0249 09       		.uleb128 0x9
 1061 024a 1A050000 		.4byte	.LASF47
 1062 024e 08       		.byte	0x8
 1063 024f 4D01     		.2byte	0x14d
 1064 0251 BD070000 		.4byte	0x7bd
 1065 0255 3C       		.byte	0x3c
 1066 0256 09       		.uleb128 0x9
 1067 0257 5F060000 		.4byte	.LASF48
 1068 025b 08       		.byte	0x8
 1069 025c 5101     		.2byte	0x151
 1070 025e 2A010000 		.4byte	0x12a
 1071 0262 40       		.byte	0x40
 1072 0263 09       		.uleb128 0x9
 1073 0264 45010000 		.4byte	.LASF49
 1074 0268 08       		.byte	0x8
 1075 0269 5801     		.2byte	0x158
 1076 026b 59030000 		.4byte	0x359
 1077 026f 44       		.byte	0x44
 1078 0270 00       		.byte	0
 1079 0271 03       		.uleb128 0x3
 1080 0272 AD030000 		.4byte	.LASF50
 1081 0276 07       		.byte	0x7
 1082 0277 44       		.byte	0x44
 1083 0278 7C020000 		.4byte	0x27c
ARM GAS  /var/folders/sv/kgmgr77579zbf78p2zlhkdfr0000gn/T//ccSmwAAq.s 			page 20


 1084 027c 0A       		.uleb128 0xa
 1085 027d 04       		.byte	0x4
 1086 027e 61010000 		.4byte	0x161
 1087 0282 03       		.uleb128 0x3
 1088 0283 B0080000 		.4byte	.LASF51
 1089 0287 07       		.byte	0x7
 1090 0288 49       		.byte	0x49
 1091 0289 8D020000 		.4byte	0x28d
 1092 028d 06       		.uleb128 0x6
 1093 028e DD050000 		.4byte	.LASF53
 1094 0292 04       		.byte	0x4
 1095 0293 08       		.byte	0x8
 1096 0294 B0       		.byte	0xb0
 1097 0295 A6020000 		.4byte	0x2a6
 1098 0299 07       		.uleb128 0x7
 1099 029a 55050000 		.4byte	.LASF31
 1100 029e 08       		.byte	0x8
 1101 029f B1       		.byte	0xb1
 1102 02a0 7C020000 		.4byte	0x27c
 1103 02a4 00       		.byte	0
 1104 02a5 00       		.byte	0
 1105 02a6 03       		.uleb128 0x3
 1106 02a7 05070000 		.4byte	.LASF54
 1107 02ab 07       		.byte	0x7
 1108 02ac 50       		.byte	0x50
 1109 02ad B1020000 		.4byte	0x2b1
 1110 02b1 06       		.uleb128 0x6
 1111 02b2 E3000000 		.4byte	.LASF55
 1112 02b6 08       		.byte	0x8
 1113 02b7 08       		.byte	0x8
 1114 02b8 B7       		.byte	0xb7
 1115 02b9 D6020000 		.4byte	0x2d6
 1116 02bd 07       		.uleb128 0x7
 1117 02be 55050000 		.4byte	.LASF31
 1118 02c2 08       		.byte	0x8
 1119 02c3 B8       		.byte	0xb8
 1120 02c4 7C020000 		.4byte	0x27c
 1121 02c8 00       		.byte	0
 1122 02c9 07       		.uleb128 0x7
 1123 02ca 8D040000 		.4byte	.LASF32
 1124 02ce 08       		.byte	0x8
 1125 02cf B9       		.byte	0xb9
 1126 02d0 7C020000 		.4byte	0x27c
 1127 02d4 04       		.byte	0x4
 1128 02d5 00       		.byte	0
 1129 02d6 03       		.uleb128 0x3
 1130 02d7 1D000000 		.4byte	.LASF56
 1131 02db 07       		.byte	0x7
 1132 02dc 57       		.byte	0x57
 1133 02dd E1020000 		.4byte	0x2e1
 1134 02e1 0B       		.uleb128 0xb
 1135 02e2 45030000 		.4byte	.LASF57
 1136 02e6 1C       		.byte	0x1c
 1137 02e7 08       		.byte	0x8
 1138 02e8 9001     		.2byte	0x190
 1139 02ea 3D030000 		.4byte	0x33d
 1140 02ee 09       		.uleb128 0x9
ARM GAS  /var/folders/sv/kgmgr77579zbf78p2zlhkdfr0000gn/T//ccSmwAAq.s 			page 21


 1141 02ef CA050000 		.4byte	.LASF58
 1142 02f3 08       		.byte	0x8
 1143 02f4 9101     		.2byte	0x191
 1144 02f6 A6020000 		.4byte	0x2a6
 1145 02fa 00       		.byte	0
 1146 02fb 09       		.uleb128 0x9
 1147 02fc 40050000 		.4byte	.LASF59
 1148 0300 08       		.byte	0x8
 1149 0301 9201     		.2byte	0x192
 1150 0303 2A010000 		.4byte	0x12a
 1151 0307 08       		.byte	0x8
 1152 0308 09       		.uleb128 0x9
 1153 0309 12040000 		.4byte	.LASF60
 1154 030d 08       		.byte	0x8
 1155 030e 9401     		.2byte	0x194
 1156 0310 7E050000 		.4byte	0x57e
 1157 0314 0C       		.byte	0xc
 1158 0315 09       		.uleb128 0x9
 1159 0316 0A020000 		.4byte	.LASF61
 1160 031a 08       		.byte	0x8
 1161 031b 9701     		.2byte	0x197
 1162 031d 7C020000 		.4byte	0x27c
 1163 0321 10       		.byte	0x10
 1164 0322 09       		.uleb128 0x9
 1165 0323 57040000 		.4byte	.LASF62
 1166 0327 08       		.byte	0x8
 1167 0328 9801     		.2byte	0x198
 1168 032a 7C020000 		.4byte	0x27c
 1169 032e 14       		.byte	0x14
 1170 032f 09       		.uleb128 0x9
 1171 0330 4D040000 		.4byte	.LASF63
 1172 0334 08       		.byte	0x8
 1173 0335 9B01     		.2byte	0x19b
 1174 0337 7C020000 		.4byte	0x27c
 1175 033b 18       		.byte	0x18
 1176 033c 00       		.byte	0
 1177 033d 03       		.uleb128 0x3
 1178 033e 6A060000 		.4byte	.LASF64
 1179 0342 07       		.byte	0x7
 1180 0343 5C       		.byte	0x5c
 1181 0344 48030000 		.4byte	0x348
 1182 0348 0A       		.uleb128 0xa
 1183 0349 04       		.byte	0x4
 1184 034a 4E030000 		.4byte	0x34e
 1185 034e 0C       		.uleb128 0xc
 1186 034f 59030000 		.4byte	0x359
 1187 0353 0D       		.uleb128 0xd
 1188 0354 59030000 		.4byte	0x359
 1189 0358 00       		.byte	0
 1190 0359 0E       		.uleb128 0xe
 1191 035a 04       		.byte	0x4
 1192 035b 03       		.uleb128 0x3
 1193 035c 7D040000 		.4byte	.LASF65
 1194 0360 07       		.byte	0x7
 1195 0361 61       		.byte	0x61
 1196 0362 66030000 		.4byte	0x366
 1197 0366 0B       		.uleb128 0xb
ARM GAS  /var/folders/sv/kgmgr77579zbf78p2zlhkdfr0000gn/T//ccSmwAAq.s 			page 22


 1198 0367 CB060000 		.4byte	.LASF66
 1199 036b 14       		.byte	0x14
 1200 036c 08       		.byte	0x8
 1201 036d 6B01     		.2byte	0x16b
 1202 036f B5030000 		.4byte	0x3b5
 1203 0373 09       		.uleb128 0x9
 1204 0374 85020000 		.4byte	.LASF67
 1205 0378 08       		.byte	0x8
 1206 0379 6C01     		.2byte	0x16c
 1207 037b DA070000 		.4byte	0x7da
 1208 037f 00       		.byte	0
 1209 0380 09       		.uleb128 0x9
 1210 0381 12020000 		.4byte	.LASF68
 1211 0385 08       		.byte	0x8
 1212 0386 6D01     		.2byte	0x16d
 1213 0388 DA070000 		.4byte	0x7da
 1214 038c 04       		.byte	0x4
 1215 038d 09       		.uleb128 0x9
 1216 038e 9A020000 		.4byte	.LASF69
 1217 0392 08       		.byte	0x8
 1218 0393 6E01     		.2byte	0x16e
 1219 0395 56010000 		.4byte	0x156
 1220 0399 08       		.byte	0x8
 1221 039a 09       		.uleb128 0x9
 1222 039b 37040000 		.4byte	.LASF70
 1223 039f 08       		.byte	0x8
 1224 03a0 6F01     		.2byte	0x16f
 1225 03a2 3D030000 		.4byte	0x33d
 1226 03a6 0C       		.byte	0xc
 1227 03a7 09       		.uleb128 0x9
 1228 03a8 FE060000 		.4byte	.LASF71
 1229 03ac 08       		.byte	0x8
 1230 03ad 7101     		.2byte	0x171
 1231 03af 59030000 		.4byte	0x359
 1232 03b3 10       		.byte	0x10
 1233 03b4 00       		.byte	0
 1234 03b5 03       		.uleb128 0x3
 1235 03b6 B5000000 		.4byte	.LASF72
 1236 03ba 07       		.byte	0x7
 1237 03bb 66       		.byte	0x66
 1238 03bc C0030000 		.4byte	0x3c0
 1239 03c0 0B       		.uleb128 0xb
 1240 03c1 C0030000 		.4byte	.LASF73
 1241 03c5 10       		.byte	0x10
 1242 03c6 08       		.byte	0x8
 1243 03c7 7B01     		.2byte	0x17b
 1244 03c9 02040000 		.4byte	0x402
 1245 03cd 09       		.uleb128 0x9
 1246 03ce 85020000 		.4byte	.LASF67
 1247 03d2 08       		.byte	0x8
 1248 03d3 7C01     		.2byte	0x17c
 1249 03d5 DA070000 		.4byte	0x7da
 1250 03d9 00       		.byte	0
 1251 03da 09       		.uleb128 0x9
 1252 03db 12020000 		.4byte	.LASF68
 1253 03df 08       		.byte	0x8
 1254 03e0 7E01     		.2byte	0x17e
ARM GAS  /var/folders/sv/kgmgr77579zbf78p2zlhkdfr0000gn/T//ccSmwAAq.s 			page 23


 1255 03e2 DA070000 		.4byte	0x7da
 1256 03e6 04       		.byte	0x4
 1257 03e7 09       		.uleb128 0x9
 1258 03e8 9A020000 		.4byte	.LASF69
 1259 03ec 08       		.byte	0x8
 1260 03ed 8001     		.2byte	0x180
 1261 03ef 56010000 		.4byte	0x156
 1262 03f3 08       		.byte	0x8
 1263 03f4 09       		.uleb128 0x9
 1264 03f5 D2050000 		.4byte	.LASF74
 1265 03f9 08       		.byte	0x8
 1266 03fa 8201     		.2byte	0x182
 1267 03fc D5070000 		.4byte	0x7d5
 1268 0400 0C       		.byte	0xc
 1269 0401 00       		.byte	0
 1270 0402 03       		.uleb128 0x3
 1271 0403 A3020000 		.4byte	.LASF75
 1272 0407 07       		.byte	0x7
 1273 0408 6B       		.byte	0x6b
 1274 0409 0D040000 		.4byte	0x40d
 1275 040d 0B       		.uleb128 0xb
 1276 040e DB040000 		.4byte	.LASF76
 1277 0412 04       		.byte	0x4
 1278 0413 08       		.byte	0x8
 1279 0414 A201     		.2byte	0x1a2
 1280 0416 28040000 		.4byte	0x428
 1281 041a 09       		.uleb128 0x9
 1282 041b A0060000 		.4byte	.LASF77
 1283 041f 08       		.byte	0x8
 1284 0420 AA01     		.2byte	0x1aa
 1285 0422 E0070000 		.4byte	0x7e0
 1286 0426 00       		.byte	0
 1287 0427 00       		.byte	0
 1288 0428 03       		.uleb128 0x3
 1289 0429 10030000 		.4byte	.LASF78
 1290 042d 07       		.byte	0x7
 1291 042e 70       		.byte	0x70
 1292 042f 33040000 		.4byte	0x433
 1293 0433 0F       		.uleb128 0xf
 1294 0434 79010000 		.4byte	.LASF79
 1295 0438 5802     		.2byte	0x258
 1296 043a 08       		.byte	0x8
 1297 043b C201     		.2byte	0x1c2
 1298 043d 8F040000 		.4byte	0x48f
 1299 0441 09       		.uleb128 0x9
 1300 0442 56080000 		.4byte	.LASF80
 1301 0446 08       		.byte	0x8
 1302 0447 C601     		.2byte	0x1c6
 1303 0449 D6020000 		.4byte	0x2d6
 1304 044d 00       		.byte	0
 1305 044e 09       		.uleb128 0x9
 1306 044f 75000000 		.4byte	.LASF81
 1307 0453 08       		.byte	0x8
 1308 0454 CA01     		.2byte	0x1ca
 1309 0456 B5030000 		.4byte	0x3b5
 1310 045a 1C       		.byte	0x1c
 1311 045b 08       		.uleb128 0x8
ARM GAS  /var/folders/sv/kgmgr77579zbf78p2zlhkdfr0000gn/T//ccSmwAAq.s 			page 24


 1312 045c 64626700 		.ascii	"dbg\000"
 1313 0460 08       		.byte	0x8
 1314 0461 CE01     		.2byte	0x1ce
 1315 0463 02040000 		.4byte	0x402
 1316 0467 2C       		.byte	0x2c
 1317 0468 09       		.uleb128 0x9
 1318 0469 AA000000 		.4byte	.LASF82
 1319 046d 08       		.byte	0x8
 1320 046e D201     		.2byte	0x1d2
 1321 0470 61010000 		.4byte	0x161
 1322 0474 30       		.byte	0x30
 1323 0475 08       		.uleb128 0x8
 1324 0476 746D00   		.ascii	"tm\000"
 1325 0479 08       		.byte	0x8
 1326 047a D701     		.2byte	0x1d7
 1327 047c F3060000 		.4byte	0x6f3
 1328 0480 78       		.byte	0x78
 1329 0481 09       		.uleb128 0x9
 1330 0482 34020000 		.4byte	.LASF83
 1331 0486 08       		.byte	0x8
 1332 0487 E301     		.2byte	0x1e3
 1333 0489 E5070000 		.4byte	0x7e5
 1334 048d 80       		.byte	0x80
 1335 048e 00       		.byte	0
 1336 048f 04       		.uleb128 0x4
 1337 0490 04       		.byte	0x4
 1338 0491 07       		.byte	0x7
 1339 0492 90080000 		.4byte	.LASF84
 1340 0496 10       		.uleb128 0x10
 1341 0497 18       		.byte	0x18
 1342 0498 09       		.byte	0x9
 1343 0499 6B01     		.2byte	0x16b
 1344 049b ED040000 		.4byte	0x4ed
 1345 049f 08       		.uleb128 0x8
 1346 04a0 435200   		.ascii	"CR\000"
 1347 04a3 09       		.byte	0x9
 1348 04a4 6D01     		.2byte	0x16d
 1349 04a6 EE000000 		.4byte	0xee
 1350 04aa 00       		.byte	0
 1351 04ab 09       		.uleb128 0x9
 1352 04ac D6040000 		.4byte	.LASF85
 1353 04b0 09       		.byte	0x9
 1354 04b1 6E01     		.2byte	0x16e
 1355 04b3 EE000000 		.4byte	0xee
 1356 04b7 04       		.byte	0x4
 1357 04b8 08       		.uleb128 0x8
 1358 04b9 50415200 		.ascii	"PAR\000"
 1359 04bd 09       		.byte	0x9
 1360 04be 6F01     		.2byte	0x16f
 1361 04c0 EE000000 		.4byte	0xee
 1362 04c4 08       		.byte	0x8
 1363 04c5 09       		.uleb128 0x9
 1364 04c6 2A000000 		.4byte	.LASF86
 1365 04ca 09       		.byte	0x9
 1366 04cb 7001     		.2byte	0x170
 1367 04cd EE000000 		.4byte	0xee
 1368 04d1 0C       		.byte	0xc
ARM GAS  /var/folders/sv/kgmgr77579zbf78p2zlhkdfr0000gn/T//ccSmwAAq.s 			page 25


 1369 04d2 09       		.uleb128 0x9
 1370 04d3 EF060000 		.4byte	.LASF87
 1371 04d7 09       		.byte	0x9
 1372 04d8 7101     		.2byte	0x171
 1373 04da EE000000 		.4byte	0xee
 1374 04de 10       		.byte	0x10
 1375 04df 08       		.uleb128 0x8
 1376 04e0 46435200 		.ascii	"FCR\000"
 1377 04e4 09       		.byte	0x9
 1378 04e5 7201     		.2byte	0x172
 1379 04e7 EE000000 		.4byte	0xee
 1380 04eb 14       		.byte	0x14
 1381 04ec 00       		.byte	0
 1382 04ed 11       		.uleb128 0x11
 1383 04ee B1060000 		.4byte	.LASF88
 1384 04f2 09       		.byte	0x9
 1385 04f3 7301     		.2byte	0x173
 1386 04f5 96040000 		.4byte	0x496
 1387 04f9 10       		.uleb128 0x10
 1388 04fa 1C       		.byte	0x1c
 1389 04fb 09       		.byte	0x9
 1390 04fc 0903     		.2byte	0x309
 1391 04fe 5C050000 		.4byte	0x55c
 1392 0502 08       		.uleb128 0x8
 1393 0503 535200   		.ascii	"SR\000"
 1394 0506 09       		.byte	0x9
 1395 0507 0B03     		.2byte	0x30b
 1396 0509 EE000000 		.4byte	0xee
 1397 050d 00       		.byte	0
 1398 050e 08       		.uleb128 0x8
 1399 050f 445200   		.ascii	"DR\000"
 1400 0512 09       		.byte	0x9
 1401 0513 0C03     		.2byte	0x30c
 1402 0515 EE000000 		.4byte	0xee
 1403 0519 04       		.byte	0x4
 1404 051a 08       		.uleb128 0x8
 1405 051b 42525200 		.ascii	"BRR\000"
 1406 051f 09       		.byte	0x9
 1407 0520 0D03     		.2byte	0x30d
 1408 0522 EE000000 		.4byte	0xee
 1409 0526 08       		.byte	0x8
 1410 0527 08       		.uleb128 0x8
 1411 0528 43523100 		.ascii	"CR1\000"
 1412 052c 09       		.byte	0x9
 1413 052d 0E03     		.2byte	0x30e
 1414 052f EE000000 		.4byte	0xee
 1415 0533 0C       		.byte	0xc
 1416 0534 08       		.uleb128 0x8
 1417 0535 43523200 		.ascii	"CR2\000"
 1418 0539 09       		.byte	0x9
 1419 053a 0F03     		.2byte	0x30f
 1420 053c EE000000 		.4byte	0xee
 1421 0540 10       		.byte	0x10
 1422 0541 08       		.uleb128 0x8
 1423 0542 43523300 		.ascii	"CR3\000"
 1424 0546 09       		.byte	0x9
 1425 0547 1003     		.2byte	0x310
ARM GAS  /var/folders/sv/kgmgr77579zbf78p2zlhkdfr0000gn/T//ccSmwAAq.s 			page 26


 1426 0549 EE000000 		.4byte	0xee
 1427 054d 14       		.byte	0x14
 1428 054e 09       		.uleb128 0x9
 1429 054f 5F040000 		.4byte	.LASF89
 1430 0553 09       		.byte	0x9
 1431 0554 1103     		.2byte	0x311
 1432 0556 EE000000 		.4byte	0xee
 1433 055a 18       		.byte	0x18
 1434 055b 00       		.byte	0
 1435 055c 11       		.uleb128 0x11
 1436 055d 1C030000 		.4byte	.LASF90
 1437 0561 09       		.byte	0x9
 1438 0562 1203     		.2byte	0x312
 1439 0564 F9040000 		.4byte	0x4f9
 1440 0568 03       		.uleb128 0x3
 1441 0569 C1050000 		.4byte	.LASF91
 1442 056d 0A       		.byte	0xa
 1443 056e 65       		.byte	0x65
 1444 056f 59030000 		.4byte	0x359
 1445 0573 03       		.uleb128 0x3
 1446 0574 69030000 		.4byte	.LASF92
 1447 0578 0A       		.byte	0xa
 1448 0579 6D       		.byte	0x6d
 1449 057a D9000000 		.4byte	0xd9
 1450 057e 06       		.uleb128 0x6
 1451 057f C9020000 		.4byte	.LASF93
 1452 0583 04       		.byte	0x4
 1453 0584 0A       		.byte	0xa
 1454 0585 89       		.byte	0x89
 1455 0586 97050000 		.4byte	0x597
 1456 058a 12       		.uleb128 0x12
 1457 058b 72313300 		.ascii	"r13\000"
 1458 058f 0A       		.byte	0xa
 1459 0590 8A       		.byte	0x8a
 1460 0591 D8060000 		.4byte	0x6d8
 1461 0595 00       		.byte	0
 1462 0596 00       		.byte	0
 1463 0597 06       		.uleb128 0x6
 1464 0598 69000000 		.4byte	.LASF94
 1465 059c 64       		.byte	0x64
 1466 059d 0B       		.byte	0xb
 1467 059e F4       		.byte	0xf4
 1468 059f D8060000 		.4byte	0x6d8
 1469 05a3 12       		.uleb128 0x12
 1470 05a4 73313600 		.ascii	"s16\000"
 1471 05a8 0B       		.byte	0xb
 1472 05a9 F6       		.byte	0xf6
 1473 05aa 68050000 		.4byte	0x568
 1474 05ae 00       		.byte	0
 1475 05af 12       		.uleb128 0x12
 1476 05b0 73313700 		.ascii	"s17\000"
 1477 05b4 0B       		.byte	0xb
 1478 05b5 F7       		.byte	0xf7
 1479 05b6 68050000 		.4byte	0x568
 1480 05ba 04       		.byte	0x4
 1481 05bb 12       		.uleb128 0x12
 1482 05bc 73313800 		.ascii	"s18\000"
ARM GAS  /var/folders/sv/kgmgr77579zbf78p2zlhkdfr0000gn/T//ccSmwAAq.s 			page 27


 1483 05c0 0B       		.byte	0xb
 1484 05c1 F8       		.byte	0xf8
 1485 05c2 68050000 		.4byte	0x568
 1486 05c6 08       		.byte	0x8
 1487 05c7 12       		.uleb128 0x12
 1488 05c8 73313900 		.ascii	"s19\000"
 1489 05cc 0B       		.byte	0xb
 1490 05cd F9       		.byte	0xf9
 1491 05ce 68050000 		.4byte	0x568
 1492 05d2 0C       		.byte	0xc
 1493 05d3 12       		.uleb128 0x12
 1494 05d4 73323000 		.ascii	"s20\000"
 1495 05d8 0B       		.byte	0xb
 1496 05d9 FA       		.byte	0xfa
 1497 05da 68050000 		.4byte	0x568
 1498 05de 10       		.byte	0x10
 1499 05df 12       		.uleb128 0x12
 1500 05e0 73323100 		.ascii	"s21\000"
 1501 05e4 0B       		.byte	0xb
 1502 05e5 FB       		.byte	0xfb
 1503 05e6 68050000 		.4byte	0x568
 1504 05ea 14       		.byte	0x14
 1505 05eb 12       		.uleb128 0x12
 1506 05ec 73323200 		.ascii	"s22\000"
 1507 05f0 0B       		.byte	0xb
 1508 05f1 FC       		.byte	0xfc
 1509 05f2 68050000 		.4byte	0x568
 1510 05f6 18       		.byte	0x18
 1511 05f7 12       		.uleb128 0x12
 1512 05f8 73323300 		.ascii	"s23\000"
 1513 05fc 0B       		.byte	0xb
 1514 05fd FD       		.byte	0xfd
 1515 05fe 68050000 		.4byte	0x568
 1516 0602 1C       		.byte	0x1c
 1517 0603 12       		.uleb128 0x12
 1518 0604 73323400 		.ascii	"s24\000"
 1519 0608 0B       		.byte	0xb
 1520 0609 FE       		.byte	0xfe
 1521 060a 68050000 		.4byte	0x568
 1522 060e 20       		.byte	0x20
 1523 060f 12       		.uleb128 0x12
 1524 0610 73323500 		.ascii	"s25\000"
 1525 0614 0B       		.byte	0xb
 1526 0615 FF       		.byte	0xff
 1527 0616 68050000 		.4byte	0x568
 1528 061a 24       		.byte	0x24
 1529 061b 08       		.uleb128 0x8
 1530 061c 73323600 		.ascii	"s26\000"
 1531 0620 0B       		.byte	0xb
 1532 0621 0001     		.2byte	0x100
 1533 0623 68050000 		.4byte	0x568
 1534 0627 28       		.byte	0x28
 1535 0628 08       		.uleb128 0x8
 1536 0629 73323700 		.ascii	"s27\000"
 1537 062d 0B       		.byte	0xb
 1538 062e 0101     		.2byte	0x101
 1539 0630 68050000 		.4byte	0x568
ARM GAS  /var/folders/sv/kgmgr77579zbf78p2zlhkdfr0000gn/T//ccSmwAAq.s 			page 28


 1540 0634 2C       		.byte	0x2c
 1541 0635 08       		.uleb128 0x8
 1542 0636 73323800 		.ascii	"s28\000"
 1543 063a 0B       		.byte	0xb
 1544 063b 0201     		.2byte	0x102
 1545 063d 68050000 		.4byte	0x568
 1546 0641 30       		.byte	0x30
 1547 0642 08       		.uleb128 0x8
 1548 0643 73323900 		.ascii	"s29\000"
 1549 0647 0B       		.byte	0xb
 1550 0648 0301     		.2byte	0x103
 1551 064a 68050000 		.4byte	0x568
 1552 064e 34       		.byte	0x34
 1553 064f 08       		.uleb128 0x8
 1554 0650 73333000 		.ascii	"s30\000"
 1555 0654 0B       		.byte	0xb
 1556 0655 0401     		.2byte	0x104
 1557 0657 68050000 		.4byte	0x568
 1558 065b 38       		.byte	0x38
 1559 065c 08       		.uleb128 0x8
 1560 065d 73333100 		.ascii	"s31\000"
 1561 0661 0B       		.byte	0xb
 1562 0662 0501     		.2byte	0x105
 1563 0664 68050000 		.4byte	0x568
 1564 0668 3C       		.byte	0x3c
 1565 0669 08       		.uleb128 0x8
 1566 066a 723400   		.ascii	"r4\000"
 1567 066d 0B       		.byte	0xb
 1568 066e 0701     		.2byte	0x107
 1569 0670 68050000 		.4byte	0x568
 1570 0674 40       		.byte	0x40
 1571 0675 08       		.uleb128 0x8
 1572 0676 723500   		.ascii	"r5\000"
 1573 0679 0B       		.byte	0xb
 1574 067a 0801     		.2byte	0x108
 1575 067c 68050000 		.4byte	0x568
 1576 0680 44       		.byte	0x44
 1577 0681 08       		.uleb128 0x8
 1578 0682 723600   		.ascii	"r6\000"
 1579 0685 0B       		.byte	0xb
 1580 0686 0901     		.2byte	0x109
 1581 0688 68050000 		.4byte	0x568
 1582 068c 48       		.byte	0x48
 1583 068d 08       		.uleb128 0x8
 1584 068e 723700   		.ascii	"r7\000"
 1585 0691 0B       		.byte	0xb
 1586 0692 0A01     		.2byte	0x10a
 1587 0694 68050000 		.4byte	0x568
 1588 0698 4C       		.byte	0x4c
 1589 0699 08       		.uleb128 0x8
 1590 069a 723800   		.ascii	"r8\000"
 1591 069d 0B       		.byte	0xb
 1592 069e 0B01     		.2byte	0x10b
 1593 06a0 68050000 		.4byte	0x568
 1594 06a4 50       		.byte	0x50
 1595 06a5 08       		.uleb128 0x8
 1596 06a6 723900   		.ascii	"r9\000"
ARM GAS  /var/folders/sv/kgmgr77579zbf78p2zlhkdfr0000gn/T//ccSmwAAq.s 			page 29


 1597 06a9 0B       		.byte	0xb
 1598 06aa 0C01     		.2byte	0x10c
 1599 06ac 68050000 		.4byte	0x568
 1600 06b0 54       		.byte	0x54
 1601 06b1 08       		.uleb128 0x8
 1602 06b2 72313000 		.ascii	"r10\000"
 1603 06b6 0B       		.byte	0xb
 1604 06b7 0D01     		.2byte	0x10d
 1605 06b9 68050000 		.4byte	0x568
 1606 06bd 58       		.byte	0x58
 1607 06be 08       		.uleb128 0x8
 1608 06bf 72313100 		.ascii	"r11\000"
 1609 06c3 0B       		.byte	0xb
 1610 06c4 0E01     		.2byte	0x10e
 1611 06c6 68050000 		.4byte	0x568
 1612 06ca 5C       		.byte	0x5c
 1613 06cb 08       		.uleb128 0x8
 1614 06cc 6C7200   		.ascii	"lr\000"
 1615 06cf 0B       		.byte	0xb
 1616 06d0 0F01     		.2byte	0x10f
 1617 06d2 68050000 		.4byte	0x568
 1618 06d6 60       		.byte	0x60
 1619 06d7 00       		.byte	0
 1620 06d8 0A       		.uleb128 0xa
 1621 06d9 04       		.byte	0x4
 1622 06da 97050000 		.4byte	0x597
 1623 06de 13       		.uleb128 0x13
 1624 06df 04       		.byte	0x4
 1625 06e0 0C       		.byte	0xc
 1626 06e1 38       		.byte	0x38
 1627 06e2 F3060000 		.4byte	0x6f3
 1628 06e6 07       		.uleb128 0x7
 1629 06e7 AA060000 		.4byte	.LASF95
 1630 06eb 0C       		.byte	0xc
 1631 06ec 3C       		.byte	0x3c
 1632 06ed F3000000 		.4byte	0xf3
 1633 06f1 00       		.byte	0
 1634 06f2 00       		.byte	0
 1635 06f3 03       		.uleb128 0x3
 1636 06f4 F9030000 		.4byte	.LASF96
 1637 06f8 0C       		.byte	0xc
 1638 06f9 3D       		.byte	0x3d
 1639 06fa DE060000 		.4byte	0x6de
 1640 06fe 14       		.uleb128 0x14
 1641 06ff 04       		.byte	0x4
 1642 0700 08       		.byte	0x8
 1643 0701 FA       		.byte	0xfa
 1644 0702 5B070000 		.4byte	0x75b
 1645 0706 15       		.uleb128 0x15
 1646 0707 40000000 		.4byte	.LASF97
 1647 070b 08       		.byte	0x8
 1648 070c 0101     		.2byte	0x101
 1649 070e 35010000 		.4byte	0x135
 1650 0712 15       		.uleb128 0x15
 1651 0713 2A030000 		.4byte	.LASF98
 1652 0717 08       		.byte	0x8
 1653 0718 0801     		.2byte	0x108
ARM GAS  /var/folders/sv/kgmgr77579zbf78p2zlhkdfr0000gn/T//ccSmwAAq.s 			page 30


 1654 071a 35010000 		.4byte	0x135
 1655 071e 15       		.uleb128 0x15
 1656 071f 47050000 		.4byte	.LASF99
 1657 0723 08       		.byte	0x8
 1658 0724 0F01     		.2byte	0x10f
 1659 0726 59030000 		.4byte	0x359
 1660 072a 15       		.uleb128 0x15
 1661 072b D7030000 		.4byte	.LASF100
 1662 072f 08       		.byte	0x8
 1663 0730 1601     		.2byte	0x116
 1664 0732 5B070000 		.4byte	0x75b
 1665 0736 15       		.uleb128 0x15
 1666 0737 93020000 		.4byte	.LASF101
 1667 073b 08       		.byte	0x8
 1668 073c 1E01     		.2byte	0x11e
 1669 073e 86070000 		.4byte	0x786
 1670 0742 15       		.uleb128 0x15
 1671 0743 99060000 		.4byte	.LASF102
 1672 0747 08       		.byte	0x8
 1673 0748 2701     		.2byte	0x127
 1674 074a BD070000 		.4byte	0x7bd
 1675 074e 15       		.uleb128 0x15
 1676 074f 4E050000 		.4byte	.LASF103
 1677 0753 08       		.byte	0x8
 1678 0754 2F01     		.2byte	0x12f
 1679 0756 40010000 		.4byte	0x140
 1680 075a 00       		.byte	0
 1681 075b 0A       		.uleb128 0xa
 1682 075c 04       		.byte	0x4
 1683 075d 71020000 		.4byte	0x271
 1684 0761 06       		.uleb128 0x6
 1685 0762 9A050000 		.4byte	.LASF104
 1686 0766 0C       		.byte	0xc
 1687 0767 0D       		.byte	0xd
 1688 0768 34       		.byte	0x34
 1689 0769 86070000 		.4byte	0x786
 1690 076d 07       		.uleb128 0x7
 1691 076e E3010000 		.4byte	.LASF105
 1692 0772 0D       		.byte	0xd
 1693 0773 35       		.byte	0x35
 1694 0774 A6020000 		.4byte	0x2a6
 1695 0778 00       		.byte	0
 1696 0779 07       		.uleb128 0x7
 1697 077a C3020000 		.4byte	.LASF106
 1698 077e 0D       		.byte	0xd
 1699 077f 37       		.byte	0x37
 1700 0780 4B010000 		.4byte	0x14b
 1701 0784 08       		.byte	0x8
 1702 0785 00       		.byte	0
 1703 0786 0A       		.uleb128 0xa
 1704 0787 04       		.byte	0x4
 1705 0788 61070000 		.4byte	0x761
 1706 078c 06       		.uleb128 0x6
 1707 078d A1080000 		.4byte	.LASF107
 1708 0791 10       		.byte	0x10
 1709 0792 0E       		.byte	0xe
 1710 0793 39       		.byte	0x39
ARM GAS  /var/folders/sv/kgmgr77579zbf78p2zlhkdfr0000gn/T//ccSmwAAq.s 			page 31


 1711 0794 BD070000 		.4byte	0x7bd
 1712 0798 07       		.uleb128 0x7
 1713 0799 55010000 		.4byte	.LASF108
 1714 079d 0E       		.byte	0xe
 1715 079e 3A       		.byte	0x3a
 1716 079f A6020000 		.4byte	0x2a6
 1717 07a3 00       		.byte	0
 1718 07a4 07       		.uleb128 0x7
 1719 07a5 FE080000 		.4byte	.LASF109
 1720 07a9 0E       		.byte	0xe
 1721 07aa 3C       		.byte	0x3c
 1722 07ab 7C020000 		.4byte	0x27c
 1723 07af 08       		.byte	0x8
 1724 07b0 07       		.uleb128 0x7
 1725 07b1 4E060000 		.4byte	.LASF110
 1726 07b5 0E       		.byte	0xe
 1727 07b6 3E       		.byte	0x3e
 1728 07b7 00080000 		.4byte	0x800
 1729 07bb 0C       		.byte	0xc
 1730 07bc 00       		.byte	0
 1731 07bd 0A       		.uleb128 0xa
 1732 07be 04       		.byte	0x4
 1733 07bf 8C070000 		.4byte	0x78c
 1734 07c3 0A       		.uleb128 0xa
 1735 07c4 04       		.byte	0x4
 1736 07c5 D0070000 		.4byte	0x7d0
 1737 07c9 04       		.uleb128 0x4
 1738 07ca 01       		.byte	0x1
 1739 07cb 08       		.byte	0x8
 1740 07cc 21060000 		.4byte	.LASF111
 1741 07d0 16       		.uleb128 0x16
 1742 07d1 C9070000 		.4byte	0x7c9
 1743 07d5 05       		.uleb128 0x5
 1744 07d6 56010000 		.4byte	0x156
 1745 07da 0A       		.uleb128 0xa
 1746 07db 04       		.byte	0x4
 1747 07dc 5B030000 		.4byte	0x35b
 1748 07e0 05       		.uleb128 0x5
 1749 07e1 C3070000 		.4byte	0x7c3
 1750 07e5 17       		.uleb128 0x17
 1751 07e6 73050000 		.4byte	0x573
 1752 07ea F5070000 		.4byte	0x7f5
 1753 07ee 18       		.uleb128 0x18
 1754 07ef 8F040000 		.4byte	0x48f
 1755 07f3 3A       		.byte	0x3a
 1756 07f4 00       		.byte	0
 1757 07f5 03       		.uleb128 0x3
 1758 07f6 26020000 		.4byte	.LASF112
 1759 07fa 0E       		.byte	0xe
 1760 07fb 34       		.byte	0x34
 1761 07fc 8C070000 		.4byte	0x78c
 1762 0800 0A       		.uleb128 0xa
 1763 0801 04       		.byte	0x4
 1764 0802 F5070000 		.4byte	0x7f5
 1765 0806 04       		.uleb128 0x4
 1766 0807 04       		.byte	0x4
 1767 0808 04       		.byte	0x4
ARM GAS  /var/folders/sv/kgmgr77579zbf78p2zlhkdfr0000gn/T//ccSmwAAq.s 			page 32


 1768 0809 6F040000 		.4byte	.LASF113
 1769 080d 04       		.uleb128 0x4
 1770 080e 01       		.byte	0x1
 1771 080f 02       		.byte	0x2
 1772 0810 EB040000 		.4byte	.LASF114
 1773 0814 13       		.uleb128 0x13
 1774 0815 0C       		.byte	0xc
 1775 0816 0F       		.byte	0xf
 1776 0817 DA       		.byte	0xda
 1777 0818 59080000 		.4byte	0x859
 1778 081c 07       		.uleb128 0x7
 1779 081d CF040000 		.4byte	.LASF115
 1780 0821 0F       		.byte	0xf
 1781 0822 DB       		.byte	0xdb
 1782 0823 59080000 		.4byte	0x859
 1783 0827 00       		.byte	0
 1784 0828 07       		.uleb128 0x7
 1785 0829 B2050000 		.4byte	.LASF116
 1786 082d 0F       		.byte	0xf
 1787 082e DC       		.byte	0xdc
 1788 082f 5F080000 		.4byte	0x85f
 1789 0833 04       		.byte	0x4
 1790 0834 07       		.uleb128 0x7
 1791 0835 BC020000 		.4byte	.LASF117
 1792 0839 0F       		.byte	0xf
 1793 083a DD       		.byte	0xdd
 1794 083b AD000000 		.4byte	0xad
 1795 083f 08       		.byte	0x8
 1796 0840 07       		.uleb128 0x7
 1797 0841 F4060000 		.4byte	.LASF118
 1798 0845 0F       		.byte	0xf
 1799 0846 DF       		.byte	0xdf
 1800 0847 AD000000 		.4byte	0xad
 1801 084b 09       		.byte	0x9
 1802 084c 07       		.uleb128 0x7
 1803 084d A3000000 		.4byte	.LASF119
 1804 0851 0F       		.byte	0xf
 1805 0852 E0       		.byte	0xe0
 1806 0853 AD000000 		.4byte	0xad
 1807 0857 0A       		.byte	0xa
 1808 0858 00       		.byte	0
 1809 0859 0A       		.uleb128 0xa
 1810 085a 04       		.byte	0x4
 1811 085b ED040000 		.4byte	0x4ed
 1812 085f 0A       		.uleb128 0xa
 1813 0860 04       		.byte	0x4
 1814 0861 EE000000 		.4byte	0xee
 1815 0865 03       		.uleb128 0x3
 1816 0866 94040000 		.4byte	.LASF120
 1817 086a 0F       		.byte	0xf
 1818 086b E1       		.byte	0xe1
 1819 086c 14080000 		.4byte	0x814
 1820 0870 0A       		.uleb128 0xa
 1821 0871 04       		.byte	0x4
 1822 0872 76080000 		.4byte	0x876
 1823 0876 16       		.uleb128 0x16
 1824 0877 65080000 		.4byte	0x865
ARM GAS  /var/folders/sv/kgmgr77579zbf78p2zlhkdfr0000gn/T//ccSmwAAq.s 			page 33


 1825 087b 19       		.uleb128 0x19
 1826 087c 01       		.byte	0x1
 1827 087d 50000000 		.4byte	0x50
 1828 0881 10       		.byte	0x10
 1829 0882 3D       		.byte	0x3d
 1830 0883 9A080000 		.4byte	0x89a
 1831 0887 1A       		.uleb128 0x1a
 1832 0888 E4020000 		.4byte	.LASF121
 1833 088c 00       		.byte	0
 1834 088d 1A       		.uleb128 0x1a
 1835 088e F0020000 		.4byte	.LASF122
 1836 0892 01       		.byte	0x1
 1837 0893 1A       		.uleb128 0x1a
 1838 0894 74030000 		.4byte	.LASF123
 1839 0898 02       		.byte	0x2
 1840 0899 00       		.byte	0
 1841 089a 03       		.uleb128 0x3
 1842 089b 5C050000 		.4byte	.LASF124
 1843 089f 10       		.byte	0x10
 1844 08a0 41       		.byte	0x41
 1845 08a1 7B080000 		.4byte	0x87b
 1846 08a5 19       		.uleb128 0x19
 1847 08a6 01       		.byte	0x1
 1848 08a7 50000000 		.4byte	0x50
 1849 08ab 10       		.byte	0x10
 1850 08ac 46       		.byte	0x46
 1851 08ad C4080000 		.4byte	0x8c4
 1852 08b1 1A       		.uleb128 0x1a
 1853 08b2 8C060000 		.4byte	.LASF125
 1854 08b6 00       		.byte	0
 1855 08b7 1A       		.uleb128 0x1a
 1856 08b8 43020000 		.4byte	.LASF126
 1857 08bc 01       		.byte	0x1
 1858 08bd 1A       		.uleb128 0x1a
 1859 08be 89050000 		.4byte	.LASF127
 1860 08c2 02       		.byte	0x2
 1861 08c3 00       		.byte	0
 1862 08c4 03       		.uleb128 0x3
 1863 08c5 3F040000 		.4byte	.LASF128
 1864 08c9 10       		.byte	0x10
 1865 08ca 4A       		.byte	0x4a
 1866 08cb A5080000 		.4byte	0x8a5
 1867 08cf 19       		.uleb128 0x19
 1868 08d0 01       		.byte	0x1
 1869 08d1 50000000 		.4byte	0x50
 1870 08d5 10       		.byte	0x10
 1871 08d6 4F       		.byte	0x4f
 1872 08d7 EE080000 		.4byte	0x8ee
 1873 08db 1A       		.uleb128 0x1a
 1874 08dc 2D060000 		.4byte	.LASF129
 1875 08e0 00       		.byte	0
 1876 08e1 1A       		.uleb128 0x1a
 1877 08e2 9E030000 		.4byte	.LASF130
 1878 08e6 01       		.byte	0x1
 1879 08e7 1A       		.uleb128 0x1a
 1880 08e8 8D030000 		.4byte	.LASF131
 1881 08ec 02       		.byte	0x2
ARM GAS  /var/folders/sv/kgmgr77579zbf78p2zlhkdfr0000gn/T//ccSmwAAq.s 			page 34


 1882 08ed 00       		.byte	0
 1883 08ee 03       		.uleb128 0x3
 1884 08ef EB010000 		.4byte	.LASF132
 1885 08f3 10       		.byte	0x10
 1886 08f4 53       		.byte	0x53
 1887 08f5 CF080000 		.4byte	0x8cf
 1888 08f9 11       		.uleb128 0x11
 1889 08fa 18040000 		.4byte	.LASF133
 1890 08fe 11       		.byte	0x11
 1891 08ff B101     		.2byte	0x1b1
 1892 0901 CE000000 		.4byte	0xce
 1893 0905 11       		.uleb128 0x11
 1894 0906 FF010000 		.4byte	.LASF134
 1895 090a 11       		.byte	0x11
 1896 090b B601     		.2byte	0x1b6
 1897 090d 11090000 		.4byte	0x911
 1898 0911 0B       		.uleb128 0xb
 1899 0912 FF010000 		.4byte	.LASF134
 1900 0916 1C       		.byte	0x1c
 1901 0917 11       		.byte	0x11
 1902 0918 FE01     		.2byte	0x1fe
 1903 091a 94090000 		.4byte	0x994
 1904 091e 09       		.uleb128 0x9
 1905 091f 73010000 		.4byte	.LASF135
 1906 0923 11       		.byte	0x11
 1907 0924 0202     		.2byte	0x202
 1908 0926 9A080000 		.4byte	0x89a
 1909 092a 00       		.byte	0
 1910 092b 09       		.uleb128 0x9
 1911 092c FB000000 		.4byte	.LASF136
 1912 0930 11       		.byte	0x11
 1913 0931 0602     		.2byte	0x206
 1914 0933 C4080000 		.4byte	0x8c4
 1915 0937 01       		.byte	0x1
 1916 0938 09       		.uleb128 0x9
 1917 0939 4D010000 		.4byte	.LASF137
 1918 093d 11       		.byte	0x11
 1919 093e 0A02     		.2byte	0x20a
 1920 0940 EE080000 		.4byte	0x8ee
 1921 0944 02       		.byte	0x2
 1922 0945 09       		.uleb128 0x9
 1923 0946 26060000 		.4byte	.LASF138
 1924 094a 11       		.byte	0x11
 1925 094b 0E02     		.2byte	0x20e
 1926 094d 860A0000 		.4byte	0xa86
 1927 0951 04       		.byte	0x4
 1928 0952 09       		.uleb128 0x9
 1929 0953 72020000 		.4byte	.LASF139
 1930 0957 11       		.byte	0x11
 1931 0958 1602     		.2byte	0x216
 1932 095a 910A0000 		.4byte	0xa91
 1933 095e 08       		.byte	0x8
 1934 095f 09       		.uleb128 0x9
 1935 0960 99080000 		.4byte	.LASF140
 1936 0964 11       		.byte	0x11
 1937 0965 1A02     		.2byte	0x21a
 1938 0967 CE000000 		.4byte	0xce
ARM GAS  /var/folders/sv/kgmgr77579zbf78p2zlhkdfr0000gn/T//ccSmwAAq.s 			page 35


 1939 096b 0C       		.byte	0xc
 1940 096c 09       		.uleb128 0x9
 1941 096d 17000000 		.4byte	.LASF141
 1942 0971 11       		.byte	0x11
 1943 0972 1E02     		.2byte	0x21e
 1944 0974 70080000 		.4byte	0x870
 1945 0978 10       		.byte	0x10
 1946 0979 09       		.uleb128 0x9
 1947 097a F9010000 		.4byte	.LASF142
 1948 097e 11       		.byte	0x11
 1949 097f 2202     		.2byte	0x222
 1950 0981 70080000 		.4byte	0x870
 1951 0985 14       		.byte	0x14
 1952 0986 09       		.uleb128 0x9
 1953 0987 7C000000 		.4byte	.LASF143
 1954 098b 11       		.byte	0x11
 1955 098c 2602     		.2byte	0x226
 1956 098e E4000000 		.4byte	0xe4
 1957 0992 18       		.byte	0x18
 1958 0993 00       		.byte	0
 1959 0994 11       		.uleb128 0x11
 1960 0995 33010000 		.4byte	.LASF144
 1961 0999 11       		.byte	0x11
 1962 099a BD01     		.2byte	0x1bd
 1963 099c A0090000 		.4byte	0x9a0
 1964 09a0 0A       		.uleb128 0xa
 1965 09a1 04       		.byte	0x4
 1966 09a2 A6090000 		.4byte	0x9a6
 1967 09a6 0C       		.uleb128 0xc
 1968 09a7 B1090000 		.4byte	0x9b1
 1969 09ab 0D       		.uleb128 0xd
 1970 09ac B1090000 		.4byte	0x9b1
 1971 09b0 00       		.byte	0
 1972 09b1 0A       		.uleb128 0xa
 1973 09b2 04       		.byte	0x4
 1974 09b3 05090000 		.4byte	0x905
 1975 09b7 11       		.uleb128 0x11
 1976 09b8 ED050000 		.4byte	.LASF145
 1977 09bc 11       		.byte	0x11
 1978 09bd C501     		.2byte	0x1c5
 1979 09bf C3090000 		.4byte	0x9c3
 1980 09c3 0A       		.uleb128 0xa
 1981 09c4 04       		.byte	0x4
 1982 09c5 C9090000 		.4byte	0x9c9
 1983 09c9 0C       		.uleb128 0xc
 1984 09ca D9090000 		.4byte	0x9d9
 1985 09ce 0D       		.uleb128 0xd
 1986 09cf B1090000 		.4byte	0x9b1
 1987 09d3 0D       		.uleb128 0xd
 1988 09d4 B8000000 		.4byte	0xb8
 1989 09d8 00       		.byte	0
 1990 09d9 11       		.uleb128 0x11
 1991 09da B2020000 		.4byte	.LASF146
 1992 09de 11       		.byte	0x11
 1993 09df CD01     		.2byte	0x1cd
 1994 09e1 E5090000 		.4byte	0x9e5
 1995 09e5 0A       		.uleb128 0xa
ARM GAS  /var/folders/sv/kgmgr77579zbf78p2zlhkdfr0000gn/T//ccSmwAAq.s 			page 36


 1996 09e6 04       		.byte	0x4
 1997 09e7 EB090000 		.4byte	0x9eb
 1998 09eb 0C       		.uleb128 0xc
 1999 09ec FB090000 		.4byte	0x9fb
 2000 09f0 0D       		.uleb128 0xd
 2001 09f1 B1090000 		.4byte	0x9b1
 2002 09f5 0D       		.uleb128 0xd
 2003 09f6 F9080000 		.4byte	0x8f9
 2004 09fa 00       		.byte	0
 2005 09fb 10       		.uleb128 0x10
 2006 09fc 20       		.byte	0x20
 2007 09fd 11       		.byte	0x11
 2008 09fe D301     		.2byte	0x1d3
 2009 0a00 7A0A0000 		.4byte	0xa7a
 2010 0a04 09       		.uleb128 0x9
 2011 0a05 B7050000 		.4byte	.LASF147
 2012 0a09 11       		.byte	0x11
 2013 0a0a D701     		.2byte	0x1d7
 2014 0a0c 94090000 		.4byte	0x994
 2015 0a10 00       		.byte	0
 2016 0a11 09       		.uleb128 0x9
 2017 0a12 3B030000 		.4byte	.LASF148
 2018 0a16 11       		.byte	0x11
 2019 0a17 DB01     		.2byte	0x1db
 2020 0a19 94090000 		.4byte	0x994
 2021 0a1d 04       		.byte	0x4
 2022 0a1e 09       		.uleb128 0x9
 2023 0a1f 2E040000 		.4byte	.LASF149
 2024 0a23 11       		.byte	0x11
 2025 0a24 DF01     		.2byte	0x1df
 2026 0a26 94090000 		.4byte	0x994
 2027 0a2a 08       		.byte	0x8
 2028 0a2b 09       		.uleb128 0x9
 2029 0a2c 36000000 		.4byte	.LASF150
 2030 0a30 11       		.byte	0x11
 2031 0a31 E301     		.2byte	0x1e3
 2032 0a33 B7090000 		.4byte	0x9b7
 2033 0a37 0C       		.byte	0xc
 2034 0a38 09       		.uleb128 0x9
 2035 0a39 F0030000 		.4byte	.LASF151
 2036 0a3d 11       		.byte	0x11
 2037 0a3e E701     		.2byte	0x1e7
 2038 0a40 D9090000 		.4byte	0x9d9
 2039 0a44 10       		.byte	0x10
 2040 0a45 09       		.uleb128 0x9
 2041 0a46 AA080000 		.4byte	.LASF152
 2042 0a4a 11       		.byte	0x11
 2043 0a4b EC01     		.2byte	0x1ec
 2044 0a4d CE000000 		.4byte	0xce
 2045 0a51 14       		.byte	0x14
 2046 0a52 08       		.uleb128 0x8
 2047 0a53 63723100 		.ascii	"cr1\000"
 2048 0a57 11       		.byte	0x11
 2049 0a58 F001     		.2byte	0x1f0
 2050 0a5a B8000000 		.4byte	0xb8
 2051 0a5e 18       		.byte	0x18
 2052 0a5f 08       		.uleb128 0x8
ARM GAS  /var/folders/sv/kgmgr77579zbf78p2zlhkdfr0000gn/T//ccSmwAAq.s 			page 37


 2053 0a60 63723200 		.ascii	"cr2\000"
 2054 0a64 11       		.byte	0x11
 2055 0a65 F401     		.2byte	0x1f4
 2056 0a67 B8000000 		.4byte	0xb8
 2057 0a6b 1A       		.byte	0x1a
 2058 0a6c 08       		.uleb128 0x8
 2059 0a6d 63723300 		.ascii	"cr3\000"
 2060 0a71 11       		.byte	0x11
 2061 0a72 F801     		.2byte	0x1f8
 2062 0a74 B8000000 		.4byte	0xb8
 2063 0a78 1C       		.byte	0x1c
 2064 0a79 00       		.byte	0
 2065 0a7a 11       		.uleb128 0x11
 2066 0a7b CB000000 		.4byte	.LASF153
 2067 0a7f 11       		.byte	0x11
 2068 0a80 F901     		.2byte	0x1f9
 2069 0a82 FB090000 		.4byte	0x9fb
 2070 0a86 0A       		.uleb128 0xa
 2071 0a87 04       		.byte	0x4
 2072 0a88 8C0A0000 		.4byte	0xa8c
 2073 0a8c 16       		.uleb128 0x16
 2074 0a8d 7A0A0000 		.4byte	0xa7a
 2075 0a91 0A       		.uleb128 0xa
 2076 0a92 04       		.byte	0x4
 2077 0a93 5C050000 		.4byte	0x55c
 2078 0a97 1B       		.uleb128 0x1b
 2079 0a98 7E060000 		.4byte	.LASF157
 2080 0a9c 02       		.byte	0x2
 2081 0a9d 2002     		.2byte	0x220
 2082 0a9f 03       		.byte	0x3
 2083 0aa0 B10A0000 		.4byte	0xab1
 2084 0aa4 1C       		.uleb128 0x1c
 2085 0aa5 2E020000 		.4byte	.LASF187
 2086 0aa9 02       		.byte	0x2
 2087 0aaa 2002     		.2byte	0x220
 2088 0aac CE000000 		.4byte	0xce
 2089 0ab0 00       		.byte	0
 2090 0ab1 1D       		.uleb128 0x1d
 2091 0ab2 82000000 		.4byte	.LASF154
 2092 0ab6 0B       		.byte	0xb
 2093 0ab7 BC01     		.2byte	0x1bc
 2094 0ab9 03       		.byte	0x3
 2095 0aba 1D       		.uleb128 0x1d
 2096 0abb 5D010000 		.4byte	.LASF155
 2097 0abf 0B       		.byte	0xb
 2098 0ac0 CA01     		.2byte	0x1ca
 2099 0ac2 03       		.byte	0x3
 2100 0ac3 1D       		.uleb128 0x1d
 2101 0ac4 71050000 		.4byte	.LASF156
 2102 0ac8 12       		.byte	0x12
 2103 0ac9 5A01     		.2byte	0x15a
 2104 0acb 03       		.byte	0x3
 2105 0acc 1B       		.uleb128 0x1b
 2106 0acd DB080000 		.4byte	.LASF158
 2107 0ad1 12       		.byte	0x12
 2108 0ad2 6601     		.2byte	0x166
 2109 0ad4 03       		.byte	0x3
ARM GAS  /var/folders/sv/kgmgr77579zbf78p2zlhkdfr0000gn/T//ccSmwAAq.s 			page 38


 2110 0ad5 E70A0000 		.4byte	0xae7
 2111 0ad9 1E       		.uleb128 0x1e
 2112 0ada 68050000 		.4byte	.LASF166
 2113 0ade F70A0000 		.4byte	0xaf7
 2114 0ae2 DB080000 		.4byte	.LASF158
 2115 0ae6 00       		.byte	0
 2116 0ae7 17       		.uleb128 0x17
 2117 0ae8 D0070000 		.4byte	0x7d0
 2118 0aec F70A0000 		.4byte	0xaf7
 2119 0af0 18       		.uleb128 0x18
 2120 0af1 8F040000 		.4byte	0x48f
 2121 0af5 0B       		.byte	0xb
 2122 0af6 00       		.byte	0
 2123 0af7 16       		.uleb128 0x16
 2124 0af8 E70A0000 		.4byte	0xae7
 2125 0afc 1D       		.uleb128 0x1d
 2126 0afd 7B050000 		.4byte	.LASF159
 2127 0b01 13       		.byte	0x13
 2128 0b02 F601     		.2byte	0x1f6
 2129 0b04 03       		.byte	0x3
 2130 0b05 1D       		.uleb128 0x1d
 2131 0b06 1A020000 		.4byte	.LASF160
 2132 0b0a 13       		.byte	0x13
 2133 0b0b EB01     		.2byte	0x1eb
 2134 0b0d 03       		.byte	0x3
 2135 0b0e 1F       		.uleb128 0x1f
 2136 0b0f 3C010000 		.4byte	.LASF161
 2137 0b13 01       		.byte	0x1
 2138 0b14 38       		.byte	0x38
 2139 0b15 00000000 		.4byte	.LFB256
 2140 0b19 04000000 		.4byte	.LFE256-.LFB256
 2141 0b1d 01       		.uleb128 0x1
 2142 0b1e 9C       		.byte	0x9c
 2143 0b1f 2D0B0000 		.4byte	0xb2d
 2144 0b23 20       		.uleb128 0x20
 2145 0b24 04000000 		.4byte	.LVL0
 2146 0b28 B5130000 		.4byte	0x13b5
 2147 0b2c 00       		.byte	0
 2148 0b2d 1F       		.uleb128 0x1f
 2149 0b2e 5A000000 		.4byte	.LASF162
 2150 0b32 01       		.byte	0x1
 2151 0b33 44       		.byte	0x44
 2152 0b34 00000000 		.4byte	.LFB257
 2153 0b38 0E000000 		.4byte	.LFE257-.LFB257
 2154 0b3c 01       		.uleb128 0x1
 2155 0b3d 9C       		.byte	0x9c
 2156 0b3e 500B0000 		.4byte	0xb50
 2157 0b42 21       		.uleb128 0x21
 2158 0b43 04030000 		.4byte	.LASF164
 2159 0b47 01       		.byte	0x1
 2160 0b48 44       		.byte	0x44
 2161 0b49 B1090000 		.4byte	0x9b1
 2162 0b4d 01       		.uleb128 0x1
 2163 0b4e 50       		.byte	0x50
 2164 0b4f 00       		.byte	0
 2165 0b50 1F       		.uleb128 0x1f
 2166 0b51 24040000 		.4byte	.LASF163
ARM GAS  /var/folders/sv/kgmgr77579zbf78p2zlhkdfr0000gn/T//ccSmwAAq.s 			page 39


 2167 0b55 01       		.byte	0x1
 2168 0b56 58       		.byte	0x58
 2169 0b57 00000000 		.4byte	.LFB258
 2170 0b5b 1C000000 		.4byte	.LFE258-.LFB258
 2171 0b5f 01       		.uleb128 0x1
 2172 0b60 9C       		.byte	0x9c
 2173 0b61 4C0C0000 		.4byte	0xc4c
 2174 0b65 22       		.uleb128 0x22
 2175 0b66 04030000 		.4byte	.LASF164
 2176 0b6a 01       		.byte	0x1
 2177 0b6b 58       		.byte	0x58
 2178 0b6c B1090000 		.4byte	0x9b1
 2179 0b70 00000000 		.4byte	.LLST0
 2180 0b74 22       		.uleb128 0x22
 2181 0b75 26060000 		.4byte	.LASF138
 2182 0b79 01       		.byte	0x1
 2183 0b7a 58       		.byte	0x58
 2184 0b7b 860A0000 		.4byte	0xa86
 2185 0b7f 1E000000 		.4byte	.LLST1
 2186 0b83 23       		.uleb128 0x23
 2187 0b84 68050000 		.4byte	.LASF166
 2188 0b88 5C0C0000 		.4byte	0xc5c
 2189 0b8c 24       		.uleb128 0x24
 2190 0b8d 050B0000 		.4byte	0xb05
 2191 0b91 02000000 		.4byte	.LBB102
 2192 0b95 00000000 		.4byte	.Ldebug_ranges0+0
 2193 0b99 01       		.byte	0x1
 2194 0b9a 5C       		.byte	0x5c
 2195 0b9b DC0B0000 		.4byte	0xbdc
 2196 0b9f 25       		.uleb128 0x25
 2197 0ba0 C30A0000 		.4byte	0xac3
 2198 0ba4 02000000 		.4byte	.LBB103
 2199 0ba8 00000000 		.4byte	.Ldebug_ranges0+0
 2200 0bac 13       		.byte	0x13
 2201 0bad ED01     		.2byte	0x1ed
 2202 0baf 25       		.uleb128 0x25
 2203 0bb0 B10A0000 		.4byte	0xab1
 2204 0bb4 02000000 		.4byte	.LBB104
 2205 0bb8 00000000 		.4byte	.Ldebug_ranges0+0
 2206 0bbc 12       		.byte	0x12
 2207 0bbd 5C01     		.2byte	0x15c
 2208 0bbf 25       		.uleb128 0x25
 2209 0bc0 970A0000 		.4byte	0xa97
 2210 0bc4 02000000 		.4byte	.LBB105
 2211 0bc8 00000000 		.4byte	.Ldebug_ranges0+0
 2212 0bcc 0B       		.byte	0xb
 2213 0bcd BF01     		.2byte	0x1bf
 2214 0bcf 26       		.uleb128 0x26
 2215 0bd0 A40A0000 		.4byte	0xaa4
 2216 0bd4 3F000000 		.4byte	.LLST2
 2217 0bd8 00       		.byte	0
 2218 0bd9 00       		.byte	0
 2219 0bda 00       		.byte	0
 2220 0bdb 00       		.byte	0
 2221 0bdc 27       		.uleb128 0x27
 2222 0bdd FC0A0000 		.4byte	0xafc
 2223 0be1 14000000 		.4byte	.LBB112
ARM GAS  /var/folders/sv/kgmgr77579zbf78p2zlhkdfr0000gn/T//ccSmwAAq.s 			page 40


 2224 0be5 08000000 		.4byte	.LBE112-.LBB112
 2225 0be9 01       		.byte	0x1
 2226 0bea 63       		.byte	0x63
 2227 0beb 3B0C0000 		.4byte	0xc3b
 2228 0bef 28       		.uleb128 0x28
 2229 0bf0 CC0A0000 		.4byte	0xacc
 2230 0bf4 14000000 		.4byte	.LBB113
 2231 0bf8 08000000 		.4byte	.LBE113-.LBB113
 2232 0bfc 13       		.byte	0x13
 2233 0bfd F801     		.2byte	0x1f8
 2234 0bff 29       		.uleb128 0x29
 2235 0c00 14000000 		.4byte	.LBB114
 2236 0c04 08000000 		.4byte	.LBE114-.LBB114
 2237 0c08 2A       		.uleb128 0x2a
 2238 0c09 D90A0000 		.4byte	0xad9
 2239 0c0d 28       		.uleb128 0x28
 2240 0c0e BA0A0000 		.4byte	0xaba
 2241 0c12 14000000 		.4byte	.LBB115
 2242 0c16 08000000 		.4byte	.LBE115-.LBB115
 2243 0c1a 12       		.byte	0x12
 2244 0c1b 7301     		.2byte	0x173
 2245 0c1d 28       		.uleb128 0x28
 2246 0c1e 970A0000 		.4byte	0xa97
 2247 0c22 14000000 		.4byte	.LBB116
 2248 0c26 08000000 		.4byte	.LBE116-.LBB116
 2249 0c2a 0B       		.byte	0xb
 2250 0c2b CD01     		.2byte	0x1cd
 2251 0c2d 26       		.uleb128 0x26
 2252 0c2e A40A0000 		.4byte	0xaa4
 2253 0c32 54000000 		.4byte	.LLST3
 2254 0c36 00       		.byte	0
 2255 0c37 00       		.byte	0
 2256 0c38 00       		.byte	0
 2257 0c39 00       		.byte	0
 2258 0c3a 00       		.byte	0
 2259 0c3b 2B       		.uleb128 0x2b
 2260 0c3c 10000000 		.4byte	.LVL4
 2261 0c40 C1130000 		.4byte	0x13c1
 2262 0c44 2C       		.uleb128 0x2c
 2263 0c45 01       		.uleb128 0x1
 2264 0c46 50       		.byte	0x50
 2265 0c47 02       		.uleb128 0x2
 2266 0c48 74       		.byte	0x74
 2267 0c49 00       		.sleb128 0
 2268 0c4a 00       		.byte	0
 2269 0c4b 00       		.byte	0
 2270 0c4c 17       		.uleb128 0x17
 2271 0c4d D0070000 		.4byte	0x7d0
 2272 0c51 5C0C0000 		.4byte	0xc5c
 2273 0c55 18       		.uleb128 0x18
 2274 0c56 8F040000 		.4byte	0x48f
 2275 0c5a 09       		.byte	0x9
 2276 0c5b 00       		.byte	0
 2277 0c5c 16       		.uleb128 0x16
 2278 0c5d 4C0C0000 		.4byte	0xc4c
 2279 0c61 1F       		.uleb128 0x1f
 2280 0c62 F7050000 		.4byte	.LASF165
ARM GAS  /var/folders/sv/kgmgr77579zbf78p2zlhkdfr0000gn/T//ccSmwAAq.s 			page 41


 2281 0c66 01       		.byte	0x1
 2282 0c67 6D       		.byte	0x6d
 2283 0c68 00000000 		.4byte	.LFB259
 2284 0c6c 1E000000 		.4byte	.LFE259-.LFB259
 2285 0c70 01       		.uleb128 0x1
 2286 0c71 9C       		.byte	0x9c
 2287 0c72 4E0D0000 		.4byte	0xd4e
 2288 0c76 22       		.uleb128 0x22
 2289 0c77 04030000 		.4byte	.LASF164
 2290 0c7b 01       		.byte	0x1
 2291 0c7c 6D       		.byte	0x6d
 2292 0c7d B1090000 		.4byte	0x9b1
 2293 0c81 68000000 		.4byte	.LLST4
 2294 0c85 23       		.uleb128 0x23
 2295 0c86 68050000 		.4byte	.LASF166
 2296 0c8a 5E0D0000 		.4byte	0xd5e
 2297 0c8e 24       		.uleb128 0x24
 2298 0c8f 050B0000 		.4byte	0xb05
 2299 0c93 02000000 		.4byte	.LBB118
 2300 0c97 18000000 		.4byte	.Ldebug_ranges0+0x18
 2301 0c9b 01       		.byte	0x1
 2302 0c9c 71       		.byte	0x71
 2303 0c9d DE0C0000 		.4byte	0xcde
 2304 0ca1 25       		.uleb128 0x25
 2305 0ca2 C30A0000 		.4byte	0xac3
 2306 0ca6 02000000 		.4byte	.LBB119
 2307 0caa 18000000 		.4byte	.Ldebug_ranges0+0x18
 2308 0cae 13       		.byte	0x13
 2309 0caf ED01     		.2byte	0x1ed
 2310 0cb1 25       		.uleb128 0x25
 2311 0cb2 B10A0000 		.4byte	0xab1
 2312 0cb6 02000000 		.4byte	.LBB120
 2313 0cba 18000000 		.4byte	.Ldebug_ranges0+0x18
 2314 0cbe 12       		.byte	0x12
 2315 0cbf 5C01     		.2byte	0x15c
 2316 0cc1 25       		.uleb128 0x25
 2317 0cc2 970A0000 		.4byte	0xa97
 2318 0cc6 02000000 		.4byte	.LBB121
 2319 0cca 18000000 		.4byte	.Ldebug_ranges0+0x18
 2320 0cce 0B       		.byte	0xb
 2321 0ccf BF01     		.2byte	0x1bf
 2322 0cd1 26       		.uleb128 0x26
 2323 0cd2 A40A0000 		.4byte	0xaa4
 2324 0cd6 86000000 		.4byte	.LLST5
 2325 0cda 00       		.byte	0
 2326 0cdb 00       		.byte	0
 2327 0cdc 00       		.byte	0
 2328 0cdd 00       		.byte	0
 2329 0cde 27       		.uleb128 0x27
 2330 0cdf FC0A0000 		.4byte	0xafc
 2331 0ce3 18000000 		.4byte	.LBB128
 2332 0ce7 06000000 		.4byte	.LBE128-.LBB128
 2333 0ceb 01       		.byte	0x1
 2334 0cec 79       		.byte	0x79
 2335 0ced 3D0D0000 		.4byte	0xd3d
 2336 0cf1 28       		.uleb128 0x28
 2337 0cf2 CC0A0000 		.4byte	0xacc
ARM GAS  /var/folders/sv/kgmgr77579zbf78p2zlhkdfr0000gn/T//ccSmwAAq.s 			page 42


 2338 0cf6 18000000 		.4byte	.LBB129
 2339 0cfa 06000000 		.4byte	.LBE129-.LBB129
 2340 0cfe 13       		.byte	0x13
 2341 0cff F801     		.2byte	0x1f8
 2342 0d01 29       		.uleb128 0x29
 2343 0d02 18000000 		.4byte	.LBB130
 2344 0d06 06000000 		.4byte	.LBE130-.LBB130
 2345 0d0a 2A       		.uleb128 0x2a
 2346 0d0b D90A0000 		.4byte	0xad9
 2347 0d0f 28       		.uleb128 0x28
 2348 0d10 BA0A0000 		.4byte	0xaba
 2349 0d14 18000000 		.4byte	.LBB131
 2350 0d18 06000000 		.4byte	.LBE131-.LBB131
 2351 0d1c 12       		.byte	0x12
 2352 0d1d 7301     		.2byte	0x173
 2353 0d1f 28       		.uleb128 0x28
 2354 0d20 970A0000 		.4byte	0xa97
 2355 0d24 18000000 		.4byte	.LBB132
 2356 0d28 06000000 		.4byte	.LBE132-.LBB132
 2357 0d2c 0B       		.byte	0xb
 2358 0d2d CD01     		.2byte	0x1cd
 2359 0d2f 26       		.uleb128 0x26
 2360 0d30 A40A0000 		.4byte	0xaa4
 2361 0d34 9B000000 		.4byte	.LLST6
 2362 0d38 00       		.byte	0
 2363 0d39 00       		.byte	0
 2364 0d3a 00       		.byte	0
 2365 0d3b 00       		.byte	0
 2366 0d3c 00       		.byte	0
 2367 0d3d 2B       		.uleb128 0x2b
 2368 0d3e 0E000000 		.4byte	.LVL9
 2369 0d42 CD130000 		.4byte	0x13cd
 2370 0d46 2C       		.uleb128 0x2c
 2371 0d47 01       		.uleb128 0x1
 2372 0d48 50       		.byte	0x50
 2373 0d49 02       		.uleb128 0x2
 2374 0d4a 74       		.byte	0x74
 2375 0d4b 00       		.sleb128 0
 2376 0d4c 00       		.byte	0
 2377 0d4d 00       		.byte	0
 2378 0d4e 17       		.uleb128 0x17
 2379 0d4f D0070000 		.4byte	0x7d0
 2380 0d53 5E0D0000 		.4byte	0xd5e
 2381 0d57 18       		.uleb128 0x18
 2382 0d58 8F040000 		.4byte	0x48f
 2383 0d5c 08       		.byte	0x8
 2384 0d5d 00       		.byte	0
 2385 0d5e 16       		.uleb128 0x16
 2386 0d5f 4E0D0000 		.4byte	0xd4e
 2387 0d63 1F       		.uleb128 0x1f
 2388 0d64 CD010000 		.4byte	.LASF167
 2389 0d68 01       		.byte	0x1
 2390 0d69 87       		.byte	0x87
 2391 0d6a 00000000 		.4byte	.LFB260
 2392 0d6e 1A000000 		.4byte	.LFE260-.LFB260
 2393 0d72 01       		.uleb128 0x1
 2394 0d73 9C       		.byte	0x9c
ARM GAS  /var/folders/sv/kgmgr77579zbf78p2zlhkdfr0000gn/T//ccSmwAAq.s 			page 43


 2395 0d74 7A0E0000 		.4byte	0xe7a
 2396 0d78 22       		.uleb128 0x22
 2397 0d79 04030000 		.4byte	.LASF164
 2398 0d7d 01       		.byte	0x1
 2399 0d7e 87       		.byte	0x87
 2400 0d7f B1090000 		.4byte	0x9b1
 2401 0d83 AF000000 		.4byte	.LLST7
 2402 0d87 2D       		.uleb128 0x2d
 2403 0d88 6E00     		.ascii	"n\000"
 2404 0d8a 01       		.byte	0x1
 2405 0d8b 87       		.byte	0x87
 2406 0d8c 2C000000 		.4byte	0x2c
 2407 0d90 CD000000 		.4byte	.LLST8
 2408 0d94 22       		.uleb128 0x22
 2409 0d95 8D020000 		.4byte	.LASF168
 2410 0d99 01       		.byte	0x1
 2411 0d9a 87       		.byte	0x87
 2412 0d9b 7A0E0000 		.4byte	0xe7a
 2413 0d9f EE000000 		.4byte	.LLST9
 2414 0da3 23       		.uleb128 0x23
 2415 0da4 68050000 		.4byte	.LASF166
 2416 0da8 910E0000 		.4byte	0xe91
 2417 0dac 24       		.uleb128 0x24
 2418 0dad 050B0000 		.4byte	0xb05
 2419 0db1 02000000 		.4byte	.LBB134
 2420 0db5 30000000 		.4byte	.Ldebug_ranges0+0x30
 2421 0db9 01       		.byte	0x1
 2422 0dba 8B       		.byte	0x8b
 2423 0dbb FC0D0000 		.4byte	0xdfc
 2424 0dbf 25       		.uleb128 0x25
 2425 0dc0 C30A0000 		.4byte	0xac3
 2426 0dc4 02000000 		.4byte	.LBB135
 2427 0dc8 30000000 		.4byte	.Ldebug_ranges0+0x30
 2428 0dcc 13       		.byte	0x13
 2429 0dcd ED01     		.2byte	0x1ed
 2430 0dcf 25       		.uleb128 0x25
 2431 0dd0 B10A0000 		.4byte	0xab1
 2432 0dd4 02000000 		.4byte	.LBB136
 2433 0dd8 30000000 		.4byte	.Ldebug_ranges0+0x30
 2434 0ddc 12       		.byte	0x12
 2435 0ddd 5C01     		.2byte	0x15c
 2436 0ddf 25       		.uleb128 0x25
 2437 0de0 970A0000 		.4byte	0xa97
 2438 0de4 02000000 		.4byte	.LBB137
 2439 0de8 30000000 		.4byte	.Ldebug_ranges0+0x30
 2440 0dec 0B       		.byte	0xb
 2441 0ded BF01     		.2byte	0x1bf
 2442 0def 26       		.uleb128 0x26
 2443 0df0 A40A0000 		.4byte	0xaa4
 2444 0df4 0F010000 		.4byte	.LLST10
 2445 0df8 00       		.byte	0
 2446 0df9 00       		.byte	0
 2447 0dfa 00       		.byte	0
 2448 0dfb 00       		.byte	0
 2449 0dfc 27       		.uleb128 0x27
 2450 0dfd FC0A0000 		.4byte	0xafc
 2451 0e01 12000000 		.4byte	.LBB144
ARM GAS  /var/folders/sv/kgmgr77579zbf78p2zlhkdfr0000gn/T//ccSmwAAq.s 			page 44


 2452 0e05 08000000 		.4byte	.LBE144-.LBB144
 2453 0e09 01       		.byte	0x1
 2454 0e0a 91       		.byte	0x91
 2455 0e0b 5B0E0000 		.4byte	0xe5b
 2456 0e0f 28       		.uleb128 0x28
 2457 0e10 CC0A0000 		.4byte	0xacc
 2458 0e14 12000000 		.4byte	.LBB145
 2459 0e18 08000000 		.4byte	.LBE145-.LBB145
 2460 0e1c 13       		.byte	0x13
 2461 0e1d F801     		.2byte	0x1f8
 2462 0e1f 29       		.uleb128 0x29
 2463 0e20 12000000 		.4byte	.LBB146
 2464 0e24 08000000 		.4byte	.LBE146-.LBB146
 2465 0e28 2A       		.uleb128 0x2a
 2466 0e29 D90A0000 		.4byte	0xad9
 2467 0e2d 28       		.uleb128 0x28
 2468 0e2e BA0A0000 		.4byte	0xaba
 2469 0e32 12000000 		.4byte	.LBB147
 2470 0e36 08000000 		.4byte	.LBE147-.LBB147
 2471 0e3a 12       		.byte	0x12
 2472 0e3b 7301     		.2byte	0x173
 2473 0e3d 28       		.uleb128 0x28
 2474 0e3e 970A0000 		.4byte	0xa97
 2475 0e42 12000000 		.4byte	.LBB148
 2476 0e46 08000000 		.4byte	.LBE148-.LBB148
 2477 0e4a 0B       		.byte	0xb
 2478 0e4b CD01     		.2byte	0x1cd
 2479 0e4d 26       		.uleb128 0x26
 2480 0e4e A40A0000 		.4byte	0xaa4
 2481 0e52 24010000 		.4byte	.LLST11
 2482 0e56 00       		.byte	0
 2483 0e57 00       		.byte	0
 2484 0e58 00       		.byte	0
 2485 0e59 00       		.byte	0
 2486 0e5a 00       		.byte	0
 2487 0e5b 2B       		.uleb128 0x2b
 2488 0e5c 0E000000 		.4byte	.LVL14
 2489 0e60 D9130000 		.4byte	0x13d9
 2490 0e64 2C       		.uleb128 0x2c
 2491 0e65 01       		.uleb128 0x1
 2492 0e66 50       		.byte	0x50
 2493 0e67 02       		.uleb128 0x2
 2494 0e68 74       		.byte	0x74
 2495 0e69 00       		.sleb128 0
 2496 0e6a 2C       		.uleb128 0x2c
 2497 0e6b 01       		.uleb128 0x1
 2498 0e6c 51       		.byte	0x51
 2499 0e6d 03       		.uleb128 0x3
 2500 0e6e F3       		.byte	0xf3
 2501 0e6f 01       		.uleb128 0x1
 2502 0e70 51       		.byte	0x51
 2503 0e71 2C       		.uleb128 0x2c
 2504 0e72 01       		.uleb128 0x1
 2505 0e73 52       		.byte	0x52
 2506 0e74 03       		.uleb128 0x3
 2507 0e75 F3       		.byte	0xf3
 2508 0e76 01       		.uleb128 0x1
ARM GAS  /var/folders/sv/kgmgr77579zbf78p2zlhkdfr0000gn/T//ccSmwAAq.s 			page 45


 2509 0e77 52       		.byte	0x52
 2510 0e78 00       		.byte	0
 2511 0e79 00       		.byte	0
 2512 0e7a 0A       		.uleb128 0xa
 2513 0e7b 04       		.byte	0x4
 2514 0e7c 800E0000 		.4byte	0xe80
 2515 0e80 2E       		.uleb128 0x2e
 2516 0e81 17       		.uleb128 0x17
 2517 0e82 D0070000 		.4byte	0x7d0
 2518 0e86 910E0000 		.4byte	0xe91
 2519 0e8a 18       		.uleb128 0x18
 2520 0e8b 8F040000 		.4byte	0x48f
 2521 0e8f 0D       		.byte	0xd
 2522 0e90 00       		.byte	0
 2523 0e91 16       		.uleb128 0x16
 2524 0e92 810E0000 		.4byte	0xe81
 2525 0e96 1F       		.uleb128 0x1f
 2526 0e97 23070000 		.4byte	.LASF169
 2527 0e9b 01       		.byte	0x1
 2528 0e9c A0       		.byte	0xa0
 2529 0e9d 00000000 		.4byte	.LFB261
 2530 0ea1 0E000000 		.4byte	.LFE261-.LFB261
 2531 0ea5 01       		.uleb128 0x1
 2532 0ea6 9C       		.byte	0x9c
 2533 0ea7 FE0E0000 		.4byte	0xefe
 2534 0eab 22       		.uleb128 0x22
 2535 0eac 04030000 		.4byte	.LASF164
 2536 0eb0 01       		.byte	0x1
 2537 0eb1 A0       		.byte	0xa0
 2538 0eb2 B1090000 		.4byte	0x9b1
 2539 0eb6 38010000 		.4byte	.LLST12
 2540 0eba 2D       		.uleb128 0x2d
 2541 0ebb 6E00     		.ascii	"n\000"
 2542 0ebd 01       		.byte	0x1
 2543 0ebe A0       		.byte	0xa0
 2544 0ebf 2C000000 		.4byte	0x2c
 2545 0ec3 56010000 		.4byte	.LLST13
 2546 0ec7 22       		.uleb128 0x22
 2547 0ec8 8D020000 		.4byte	.LASF168
 2548 0ecc 01       		.byte	0x1
 2549 0ecd A0       		.byte	0xa0
 2550 0ece 7A0E0000 		.4byte	0xe7a
 2551 0ed2 77010000 		.4byte	.LLST14
 2552 0ed6 23       		.uleb128 0x23
 2553 0ed7 68050000 		.4byte	.LASF166
 2554 0edb 0E0F0000 		.4byte	0xf0e
 2555 0edf 2B       		.uleb128 0x2b
 2556 0ee0 08000000 		.4byte	.LVL18
 2557 0ee4 D9130000 		.4byte	0x13d9
 2558 0ee8 2C       		.uleb128 0x2c
 2559 0ee9 01       		.uleb128 0x1
 2560 0eea 50       		.byte	0x50
 2561 0eeb 02       		.uleb128 0x2
 2562 0eec 74       		.byte	0x74
 2563 0eed 00       		.sleb128 0
 2564 0eee 2C       		.uleb128 0x2c
 2565 0eef 01       		.uleb128 0x1
ARM GAS  /var/folders/sv/kgmgr77579zbf78p2zlhkdfr0000gn/T//ccSmwAAq.s 			page 46


 2566 0ef0 51       		.byte	0x51
 2567 0ef1 03       		.uleb128 0x3
 2568 0ef2 F3       		.byte	0xf3
 2569 0ef3 01       		.uleb128 0x1
 2570 0ef4 51       		.byte	0x51
 2571 0ef5 2C       		.uleb128 0x2c
 2572 0ef6 01       		.uleb128 0x1
 2573 0ef7 52       		.byte	0x52
 2574 0ef8 03       		.uleb128 0x3
 2575 0ef9 F3       		.byte	0xf3
 2576 0efa 01       		.uleb128 0x1
 2577 0efb 52       		.byte	0x52
 2578 0efc 00       		.byte	0
 2579 0efd 00       		.byte	0
 2580 0efe 17       		.uleb128 0x17
 2581 0eff D0070000 		.4byte	0x7d0
 2582 0f03 0E0F0000 		.4byte	0xf0e
 2583 0f07 18       		.uleb128 0x18
 2584 0f08 8F040000 		.4byte	0x48f
 2585 0f0c 0E       		.byte	0xe
 2586 0f0d 00       		.byte	0
 2587 0f0e 16       		.uleb128 0x16
 2588 0f0f FE0E0000 		.4byte	0xefe
 2589 0f13 2F       		.uleb128 0x2f
 2590 0f14 DD030000 		.4byte	.LASF170
 2591 0f18 01       		.byte	0x1
 2592 0f19 B7       		.byte	0xb7
 2593 0f1a 2C000000 		.4byte	0x2c
 2594 0f1e 00000000 		.4byte	.LFB262
 2595 0f22 2A000000 		.4byte	.LFE262-.LFB262
 2596 0f26 01       		.uleb128 0x1
 2597 0f27 9C       		.byte	0x9c
 2598 0f28 0D100000 		.4byte	0x100d
 2599 0f2c 22       		.uleb128 0x22
 2600 0f2d 04030000 		.4byte	.LASF164
 2601 0f31 01       		.byte	0x1
 2602 0f32 B7       		.byte	0xb7
 2603 0f33 B1090000 		.4byte	0x9b1
 2604 0f37 98010000 		.4byte	.LLST15
 2605 0f3b 30       		.uleb128 0x30
 2606 0f3c 6E00     		.ascii	"n\000"
 2607 0f3e 01       		.byte	0x1
 2608 0f3f B8       		.byte	0xb8
 2609 0f40 2C000000 		.4byte	0x2c
 2610 0f44 CF010000 		.4byte	.LLST16
 2611 0f48 23       		.uleb128 0x23
 2612 0f49 68050000 		.4byte	.LASF166
 2613 0f4d 1D100000 		.4byte	0x101d
 2614 0f51 27       		.uleb128 0x27
 2615 0f52 050B0000 		.4byte	0xb05
 2616 0f56 00000000 		.4byte	.LBB150
 2617 0f5a 06000000 		.4byte	.LBE150-.LBB150
 2618 0f5e 01       		.byte	0x1
 2619 0f5f BC       		.byte	0xbc
 2620 0f60 A10F0000 		.4byte	0xfa1
 2621 0f64 28       		.uleb128 0x28
 2622 0f65 C30A0000 		.4byte	0xac3
ARM GAS  /var/folders/sv/kgmgr77579zbf78p2zlhkdfr0000gn/T//ccSmwAAq.s 			page 47


 2623 0f69 00000000 		.4byte	.LBB151
 2624 0f6d 06000000 		.4byte	.LBE151-.LBB151
 2625 0f71 13       		.byte	0x13
 2626 0f72 ED01     		.2byte	0x1ed
 2627 0f74 28       		.uleb128 0x28
 2628 0f75 B10A0000 		.4byte	0xab1
 2629 0f79 00000000 		.4byte	.LBB152
 2630 0f7d 06000000 		.4byte	.LBE152-.LBB152
 2631 0f81 12       		.byte	0x12
 2632 0f82 5C01     		.2byte	0x15c
 2633 0f84 28       		.uleb128 0x28
 2634 0f85 970A0000 		.4byte	0xa97
 2635 0f89 00000000 		.4byte	.LBB153
 2636 0f8d 06000000 		.4byte	.LBE153-.LBB153
 2637 0f91 0B       		.byte	0xb
 2638 0f92 BF01     		.2byte	0x1bf
 2639 0f94 26       		.uleb128 0x26
 2640 0f95 A40A0000 		.4byte	0xaa4
 2641 0f99 ED010000 		.4byte	.LLST17
 2642 0f9d 00       		.byte	0
 2643 0f9e 00       		.byte	0
 2644 0f9f 00       		.byte	0
 2645 0fa0 00       		.byte	0
 2646 0fa1 24       		.uleb128 0x24
 2647 0fa2 FC0A0000 		.4byte	0xafc
 2648 0fa6 0E000000 		.4byte	.LBB155
 2649 0faa 48000000 		.4byte	.Ldebug_ranges0+0x48
 2650 0fae 01       		.byte	0x1
 2651 0faf C6       		.byte	0xc6
 2652 0fb0 FC0F0000 		.4byte	0xffc
 2653 0fb4 25       		.uleb128 0x25
 2654 0fb5 CC0A0000 		.4byte	0xacc
 2655 0fb9 0E000000 		.4byte	.LBB156
 2656 0fbd 48000000 		.4byte	.Ldebug_ranges0+0x48
 2657 0fc1 13       		.byte	0x13
 2658 0fc2 F801     		.2byte	0x1f8
 2659 0fc4 31       		.uleb128 0x31
 2660 0fc5 48000000 		.4byte	.Ldebug_ranges0+0x48
 2661 0fc9 2A       		.uleb128 0x2a
 2662 0fca D90A0000 		.4byte	0xad9
 2663 0fce 25       		.uleb128 0x25
 2664 0fcf BA0A0000 		.4byte	0xaba
 2665 0fd3 0E000000 		.4byte	.LBB158
 2666 0fd7 48000000 		.4byte	.Ldebug_ranges0+0x48
 2667 0fdb 12       		.byte	0x12
 2668 0fdc 7301     		.2byte	0x173
 2669 0fde 25       		.uleb128 0x25
 2670 0fdf 970A0000 		.4byte	0xa97
 2671 0fe3 0E000000 		.4byte	.LBB159
 2672 0fe7 48000000 		.4byte	.Ldebug_ranges0+0x48
 2673 0feb 0B       		.byte	0xb
 2674 0fec CD01     		.2byte	0x1cd
 2675 0fee 26       		.uleb128 0x26
 2676 0fef A40A0000 		.4byte	0xaa4
 2677 0ff3 02020000 		.4byte	.LLST18
 2678 0ff7 00       		.byte	0
 2679 0ff8 00       		.byte	0
ARM GAS  /var/folders/sv/kgmgr77579zbf78p2zlhkdfr0000gn/T//ccSmwAAq.s 			page 48


 2680 0ff9 00       		.byte	0
 2681 0ffa 00       		.byte	0
 2682 0ffb 00       		.byte	0
 2683 0ffc 2B       		.uleb128 0x2b
 2684 0ffd 1E000000 		.4byte	.LVL24
 2685 1001 E5130000 		.4byte	0x13e5
 2686 1005 2C       		.uleb128 0x2c
 2687 1006 01       		.uleb128 0x1
 2688 1007 50       		.byte	0x50
 2689 1008 02       		.uleb128 0x2
 2690 1009 74       		.byte	0x74
 2691 100a 00       		.sleb128 0
 2692 100b 00       		.byte	0
 2693 100c 00       		.byte	0
 2694 100d 17       		.uleb128 0x17
 2695 100e D0070000 		.4byte	0x7d0
 2696 1012 1D100000 		.4byte	0x101d
 2697 1016 18       		.uleb128 0x18
 2698 1017 8F040000 		.4byte	0x48f
 2699 101b 0C       		.byte	0xc
 2700 101c 00       		.byte	0
 2701 101d 16       		.uleb128 0x16
 2702 101e 0D100000 		.4byte	0x100d
 2703 1022 2F       		.uleb128 0x2f
 2704 1023 7F030000 		.4byte	.LASF171
 2705 1027 01       		.byte	0x1
 2706 1028 D8       		.byte	0xd8
 2707 1029 2C000000 		.4byte	0x2c
 2708 102d 00000000 		.4byte	.LFB263
 2709 1031 18000000 		.4byte	.LFE263-.LFB263
 2710 1035 01       		.uleb128 0x1
 2711 1036 9C       		.byte	0x9c
 2712 1037 79100000 		.4byte	0x1079
 2713 103b 22       		.uleb128 0x22
 2714 103c 04030000 		.4byte	.LASF164
 2715 1040 01       		.byte	0x1
 2716 1041 D8       		.byte	0xd8
 2717 1042 B1090000 		.4byte	0x9b1
 2718 1046 22020000 		.4byte	.LLST19
 2719 104a 23       		.uleb128 0x23
 2720 104b 68050000 		.4byte	.LASF166
 2721 104f 79100000 		.4byte	0x1079
 2722 1053 29       		.uleb128 0x29
 2723 1054 0E000000 		.4byte	.LBB167
 2724 1058 0A000000 		.4byte	.LBE167-.LBB167
 2725 105c 32       		.uleb128 0x32
 2726 105d 6E00     		.ascii	"n\000"
 2727 105f 01       		.byte	0x1
 2728 1060 DF       		.byte	0xdf
 2729 1061 2C000000 		.4byte	0x2c
 2730 1065 01       		.uleb128 0x1
 2731 1066 50       		.byte	0x50
 2732 1067 2B       		.uleb128 0x2b
 2733 1068 12000000 		.4byte	.LVL30
 2734 106c E5130000 		.4byte	0x13e5
 2735 1070 2C       		.uleb128 0x2c
 2736 1071 01       		.uleb128 0x1
ARM GAS  /var/folders/sv/kgmgr77579zbf78p2zlhkdfr0000gn/T//ccSmwAAq.s 			page 49


 2737 1072 50       		.byte	0x50
 2738 1073 02       		.uleb128 0x2
 2739 1074 74       		.byte	0x74
 2740 1075 00       		.sleb128 0
 2741 1076 00       		.byte	0
 2742 1077 00       		.byte	0
 2743 1078 00       		.byte	0
 2744 1079 16       		.uleb128 0x16
 2745 107a 810E0000 		.4byte	0xe81
 2746 107e 1F       		.uleb128 0x1f
 2747 107f ED080000 		.4byte	.LASF172
 2748 1083 01       		.byte	0x1
 2749 1084 F1       		.byte	0xf1
 2750 1085 00000000 		.4byte	.LFB264
 2751 1089 1A000000 		.4byte	.LFE264-.LFB264
 2752 108d 01       		.uleb128 0x1
 2753 108e 9C       		.byte	0x9c
 2754 108f 95110000 		.4byte	0x1195
 2755 1093 22       		.uleb128 0x22
 2756 1094 04030000 		.4byte	.LASF164
 2757 1098 01       		.byte	0x1
 2758 1099 F1       		.byte	0xf1
 2759 109a B1090000 		.4byte	0x9b1
 2760 109e 59020000 		.4byte	.LLST20
 2761 10a2 2D       		.uleb128 0x2d
 2762 10a3 6E00     		.ascii	"n\000"
 2763 10a5 01       		.byte	0x1
 2764 10a6 F1       		.byte	0xf1
 2765 10a7 2C000000 		.4byte	0x2c
 2766 10ab 77020000 		.4byte	.LLST21
 2767 10af 22       		.uleb128 0x22
 2768 10b0 7C000000 		.4byte	.LASF143
 2769 10b4 01       		.byte	0x1
 2770 10b5 F1       		.byte	0xf1
 2771 10b6 59030000 		.4byte	0x359
 2772 10ba 98020000 		.4byte	.LLST22
 2773 10be 23       		.uleb128 0x23
 2774 10bf 68050000 		.4byte	.LASF166
 2775 10c3 A5110000 		.4byte	0x11a5
 2776 10c7 24       		.uleb128 0x24
 2777 10c8 050B0000 		.4byte	0xb05
 2778 10cc 02000000 		.4byte	.LBB168
 2779 10d0 60000000 		.4byte	.Ldebug_ranges0+0x60
 2780 10d4 01       		.byte	0x1
 2781 10d5 F5       		.byte	0xf5
 2782 10d6 17110000 		.4byte	0x1117
 2783 10da 25       		.uleb128 0x25
 2784 10db C30A0000 		.4byte	0xac3
 2785 10df 02000000 		.4byte	.LBB169
 2786 10e3 60000000 		.4byte	.Ldebug_ranges0+0x60
 2787 10e7 13       		.byte	0x13
 2788 10e8 ED01     		.2byte	0x1ed
 2789 10ea 25       		.uleb128 0x25
 2790 10eb B10A0000 		.4byte	0xab1
 2791 10ef 02000000 		.4byte	.LBB170
 2792 10f3 60000000 		.4byte	.Ldebug_ranges0+0x60
 2793 10f7 12       		.byte	0x12
ARM GAS  /var/folders/sv/kgmgr77579zbf78p2zlhkdfr0000gn/T//ccSmwAAq.s 			page 50


 2794 10f8 5C01     		.2byte	0x15c
 2795 10fa 25       		.uleb128 0x25
 2796 10fb 970A0000 		.4byte	0xa97
 2797 10ff 02000000 		.4byte	.LBB171
 2798 1103 60000000 		.4byte	.Ldebug_ranges0+0x60
 2799 1107 0B       		.byte	0xb
 2800 1108 BF01     		.2byte	0x1bf
 2801 110a 26       		.uleb128 0x26
 2802 110b A40A0000 		.4byte	0xaa4
 2803 110f B9020000 		.4byte	.LLST23
 2804 1113 00       		.byte	0
 2805 1114 00       		.byte	0
 2806 1115 00       		.byte	0
 2807 1116 00       		.byte	0
 2808 1117 27       		.uleb128 0x27
 2809 1118 FC0A0000 		.4byte	0xafc
 2810 111c 12000000 		.4byte	.LBB178
 2811 1120 08000000 		.4byte	.LBE178-.LBB178
 2812 1124 01       		.byte	0x1
 2813 1125 FB       		.byte	0xfb
 2814 1126 76110000 		.4byte	0x1176
 2815 112a 28       		.uleb128 0x28
 2816 112b CC0A0000 		.4byte	0xacc
 2817 112f 12000000 		.4byte	.LBB179
 2818 1133 08000000 		.4byte	.LBE179-.LBB179
 2819 1137 13       		.byte	0x13
 2820 1138 F801     		.2byte	0x1f8
 2821 113a 29       		.uleb128 0x29
 2822 113b 12000000 		.4byte	.LBB180
 2823 113f 08000000 		.4byte	.LBE180-.LBB180
 2824 1143 2A       		.uleb128 0x2a
 2825 1144 D90A0000 		.4byte	0xad9
 2826 1148 28       		.uleb128 0x28
 2827 1149 BA0A0000 		.4byte	0xaba
 2828 114d 12000000 		.4byte	.LBB181
 2829 1151 08000000 		.4byte	.LBE181-.LBB181
 2830 1155 12       		.byte	0x12
 2831 1156 7301     		.2byte	0x173
 2832 1158 28       		.uleb128 0x28
 2833 1159 970A0000 		.4byte	0xa97
 2834 115d 12000000 		.4byte	.LBB182
 2835 1161 08000000 		.4byte	.LBE182-.LBB182
 2836 1165 0B       		.byte	0xb
 2837 1166 CD01     		.2byte	0x1cd
 2838 1168 26       		.uleb128 0x26
 2839 1169 A40A0000 		.4byte	0xaa4
 2840 116d CE020000 		.4byte	.LLST24
 2841 1171 00       		.byte	0
 2842 1172 00       		.byte	0
 2843 1173 00       		.byte	0
 2844 1174 00       		.byte	0
 2845 1175 00       		.byte	0
 2846 1176 2B       		.uleb128 0x2b
 2847 1177 0E000000 		.4byte	.LVL33
 2848 117b F1130000 		.4byte	0x13f1
 2849 117f 2C       		.uleb128 0x2c
 2850 1180 01       		.uleb128 0x1
ARM GAS  /var/folders/sv/kgmgr77579zbf78p2zlhkdfr0000gn/T//ccSmwAAq.s 			page 51


 2851 1181 50       		.byte	0x50
 2852 1182 02       		.uleb128 0x2
 2853 1183 74       		.byte	0x74
 2854 1184 00       		.sleb128 0
 2855 1185 2C       		.uleb128 0x2c
 2856 1186 01       		.uleb128 0x1
 2857 1187 51       		.byte	0x51
 2858 1188 03       		.uleb128 0x3
 2859 1189 F3       		.byte	0xf3
 2860 118a 01       		.uleb128 0x1
 2861 118b 51       		.byte	0x51
 2862 118c 2C       		.uleb128 0x2c
 2863 118d 01       		.uleb128 0x1
 2864 118e 52       		.byte	0x52
 2865 118f 03       		.uleb128 0x3
 2866 1190 F3       		.byte	0xf3
 2867 1191 01       		.uleb128 0x1
 2868 1192 52       		.byte	0x52
 2869 1193 00       		.byte	0
 2870 1194 00       		.byte	0
 2871 1195 17       		.uleb128 0x17
 2872 1196 D0070000 		.4byte	0x7d0
 2873 119a A5110000 		.4byte	0x11a5
 2874 119e 18       		.uleb128 0x18
 2875 119f 8F040000 		.4byte	0x48f
 2876 11a3 10       		.byte	0x10
 2877 11a4 00       		.byte	0
 2878 11a5 16       		.uleb128 0x16
 2879 11a6 95110000 		.4byte	0x1195
 2880 11aa 33       		.uleb128 0x33
 2881 11ab BD040000 		.4byte	.LASF173
 2882 11af 01       		.byte	0x1
 2883 11b0 0A01     		.2byte	0x10a
 2884 11b2 00000000 		.4byte	.LFB265
 2885 11b6 0E000000 		.4byte	.LFE265-.LFB265
 2886 11ba 01       		.uleb128 0x1
 2887 11bb 9C       		.byte	0x9c
 2888 11bc 16120000 		.4byte	0x1216
 2889 11c0 34       		.uleb128 0x34
 2890 11c1 04030000 		.4byte	.LASF164
 2891 11c5 01       		.byte	0x1
 2892 11c6 0A01     		.2byte	0x10a
 2893 11c8 B1090000 		.4byte	0x9b1
 2894 11cc E2020000 		.4byte	.LLST25
 2895 11d0 35       		.uleb128 0x35
 2896 11d1 6E00     		.ascii	"n\000"
 2897 11d3 01       		.byte	0x1
 2898 11d4 0A01     		.2byte	0x10a
 2899 11d6 2C000000 		.4byte	0x2c
 2900 11da 00030000 		.4byte	.LLST26
 2901 11de 34       		.uleb128 0x34
 2902 11df 7C000000 		.4byte	.LASF143
 2903 11e3 01       		.byte	0x1
 2904 11e4 0A01     		.2byte	0x10a
 2905 11e6 59030000 		.4byte	0x359
 2906 11ea 21030000 		.4byte	.LLST27
 2907 11ee 23       		.uleb128 0x23
ARM GAS  /var/folders/sv/kgmgr77579zbf78p2zlhkdfr0000gn/T//ccSmwAAq.s 			page 52


 2908 11ef 68050000 		.4byte	.LASF166
 2909 11f3 26120000 		.4byte	0x1226
 2910 11f7 2B       		.uleb128 0x2b
 2911 11f8 08000000 		.4byte	.LVL37
 2912 11fc F1130000 		.4byte	0x13f1
 2913 1200 2C       		.uleb128 0x2c
 2914 1201 01       		.uleb128 0x1
 2915 1202 50       		.byte	0x50
 2916 1203 02       		.uleb128 0x2
 2917 1204 74       		.byte	0x74
 2918 1205 00       		.sleb128 0
 2919 1206 2C       		.uleb128 0x2c
 2920 1207 01       		.uleb128 0x1
 2921 1208 51       		.byte	0x51
 2922 1209 03       		.uleb128 0x3
 2923 120a F3       		.byte	0xf3
 2924 120b 01       		.uleb128 0x1
 2925 120c 51       		.byte	0x51
 2926 120d 2C       		.uleb128 0x2c
 2927 120e 01       		.uleb128 0x1
 2928 120f 52       		.byte	0x52
 2929 1210 03       		.uleb128 0x3
 2930 1211 F3       		.byte	0xf3
 2931 1212 01       		.uleb128 0x1
 2932 1213 52       		.byte	0x52
 2933 1214 00       		.byte	0
 2934 1215 00       		.byte	0
 2935 1216 17       		.uleb128 0x17
 2936 1217 D0070000 		.4byte	0x7d0
 2937 121b 26120000 		.4byte	0x1226
 2938 121f 18       		.uleb128 0x18
 2939 1220 8F040000 		.4byte	0x48f
 2940 1224 11       		.byte	0x11
 2941 1225 00       		.byte	0
 2942 1226 16       		.uleb128 0x16
 2943 1227 16120000 		.4byte	0x1216
 2944 122b 36       		.uleb128 0x36
 2945 122c A6010000 		.4byte	.LASF174
 2946 1230 01       		.byte	0x1
 2947 1231 2101     		.2byte	0x121
 2948 1233 2C000000 		.4byte	0x2c
 2949 1237 00000000 		.4byte	.LFB266
 2950 123b 2A000000 		.4byte	.LFE266-.LFB266
 2951 123f 01       		.uleb128 0x1
 2952 1240 9C       		.byte	0x9c
 2953 1241 2A130000 		.4byte	0x132a
 2954 1245 34       		.uleb128 0x34
 2955 1246 04030000 		.4byte	.LASF164
 2956 124a 01       		.byte	0x1
 2957 124b 2101     		.2byte	0x121
 2958 124d B1090000 		.4byte	0x9b1
 2959 1251 42030000 		.4byte	.LLST28
 2960 1255 37       		.uleb128 0x37
 2961 1256 6E00     		.ascii	"n\000"
 2962 1258 01       		.byte	0x1
 2963 1259 2201     		.2byte	0x122
 2964 125b 2C000000 		.4byte	0x2c
ARM GAS  /var/folders/sv/kgmgr77579zbf78p2zlhkdfr0000gn/T//ccSmwAAq.s 			page 53


 2965 125f 79030000 		.4byte	.LLST29
 2966 1263 23       		.uleb128 0x23
 2967 1264 68050000 		.4byte	.LASF166
 2968 1268 3A130000 		.4byte	0x133a
 2969 126c 38       		.uleb128 0x38
 2970 126d 050B0000 		.4byte	0xb05
 2971 1271 00000000 		.4byte	.LBB184
 2972 1275 06000000 		.4byte	.LBE184-.LBB184
 2973 1279 01       		.byte	0x1
 2974 127a 2601     		.2byte	0x126
 2975 127c BD120000 		.4byte	0x12bd
 2976 1280 28       		.uleb128 0x28
 2977 1281 C30A0000 		.4byte	0xac3
 2978 1285 00000000 		.4byte	.LBB185
 2979 1289 06000000 		.4byte	.LBE185-.LBB185
 2980 128d 13       		.byte	0x13
 2981 128e ED01     		.2byte	0x1ed
 2982 1290 28       		.uleb128 0x28
 2983 1291 B10A0000 		.4byte	0xab1
 2984 1295 00000000 		.4byte	.LBB186
 2985 1299 06000000 		.4byte	.LBE186-.LBB186
 2986 129d 12       		.byte	0x12
 2987 129e 5C01     		.2byte	0x15c
 2988 12a0 28       		.uleb128 0x28
 2989 12a1 970A0000 		.4byte	0xa97
 2990 12a5 00000000 		.4byte	.LBB187
 2991 12a9 06000000 		.4byte	.LBE187-.LBB187
 2992 12ad 0B       		.byte	0xb
 2993 12ae BF01     		.2byte	0x1bf
 2994 12b0 26       		.uleb128 0x26
 2995 12b1 A40A0000 		.4byte	0xaa4
 2996 12b5 97030000 		.4byte	.LLST30
 2997 12b9 00       		.byte	0
 2998 12ba 00       		.byte	0
 2999 12bb 00       		.byte	0
 3000 12bc 00       		.byte	0
 3001 12bd 39       		.uleb128 0x39
 3002 12be FC0A0000 		.4byte	0xafc
 3003 12c2 0E000000 		.4byte	.LBB189
 3004 12c6 78000000 		.4byte	.Ldebug_ranges0+0x78
 3005 12ca 01       		.byte	0x1
 3006 12cb 3001     		.2byte	0x130
 3007 12cd 19130000 		.4byte	0x1319
 3008 12d1 25       		.uleb128 0x25
 3009 12d2 CC0A0000 		.4byte	0xacc
 3010 12d6 0E000000 		.4byte	.LBB190
 3011 12da 78000000 		.4byte	.Ldebug_ranges0+0x78
 3012 12de 13       		.byte	0x13
 3013 12df F801     		.2byte	0x1f8
 3014 12e1 31       		.uleb128 0x31
 3015 12e2 78000000 		.4byte	.Ldebug_ranges0+0x78
 3016 12e6 2A       		.uleb128 0x2a
 3017 12e7 D90A0000 		.4byte	0xad9
 3018 12eb 25       		.uleb128 0x25
 3019 12ec BA0A0000 		.4byte	0xaba
 3020 12f0 0E000000 		.4byte	.LBB192
 3021 12f4 78000000 		.4byte	.Ldebug_ranges0+0x78
ARM GAS  /var/folders/sv/kgmgr77579zbf78p2zlhkdfr0000gn/T//ccSmwAAq.s 			page 54


 3022 12f8 12       		.byte	0x12
 3023 12f9 7301     		.2byte	0x173
 3024 12fb 25       		.uleb128 0x25
 3025 12fc 970A0000 		.4byte	0xa97
 3026 1300 0E000000 		.4byte	.LBB193
 3027 1304 78000000 		.4byte	.Ldebug_ranges0+0x78
 3028 1308 0B       		.byte	0xb
 3029 1309 CD01     		.2byte	0x1cd
 3030 130b 26       		.uleb128 0x26
 3031 130c A40A0000 		.4byte	0xaa4
 3032 1310 AC030000 		.4byte	.LLST31
 3033 1314 00       		.byte	0
 3034 1315 00       		.byte	0
 3035 1316 00       		.byte	0
 3036 1317 00       		.byte	0
 3037 1318 00       		.byte	0
 3038 1319 2B       		.uleb128 0x2b
 3039 131a 1E000000 		.4byte	.LVL43
 3040 131e FD130000 		.4byte	0x13fd
 3041 1322 2C       		.uleb128 0x2c
 3042 1323 01       		.uleb128 0x1
 3043 1324 50       		.byte	0x50
 3044 1325 02       		.uleb128 0x2
 3045 1326 74       		.byte	0x74
 3046 1327 00       		.sleb128 0
 3047 1328 00       		.byte	0
 3048 1329 00       		.byte	0
 3049 132a 17       		.uleb128 0x17
 3050 132b D0070000 		.4byte	0x7d0
 3051 132f 3A130000 		.4byte	0x133a
 3052 1333 18       		.uleb128 0x18
 3053 1334 8F040000 		.4byte	0x48f
 3054 1338 0F       		.byte	0xf
 3055 1339 00       		.byte	0
 3056 133a 16       		.uleb128 0x16
 3057 133b 2A130000 		.4byte	0x132a
 3058 133f 36       		.uleb128 0x36
 3059 1340 8C010000 		.4byte	.LASF175
 3060 1344 01       		.byte	0x1
 3061 1345 4201     		.2byte	0x142
 3062 1347 2C000000 		.4byte	0x2c
 3063 134b 00000000 		.4byte	.LFB267
 3064 134f 18000000 		.4byte	.LFE267-.LFB267
 3065 1353 01       		.uleb128 0x1
 3066 1354 9C       		.byte	0x9c
 3067 1355 99130000 		.4byte	0x1399
 3068 1359 34       		.uleb128 0x34
 3069 135a 04030000 		.4byte	.LASF164
 3070 135e 01       		.byte	0x1
 3071 135f 4201     		.2byte	0x142
 3072 1361 B1090000 		.4byte	0x9b1
 3073 1365 CC030000 		.4byte	.LLST32
 3074 1369 23       		.uleb128 0x23
 3075 136a 68050000 		.4byte	.LASF166
 3076 136e 99130000 		.4byte	0x1399
 3077 1372 29       		.uleb128 0x29
 3078 1373 0E000000 		.4byte	.LBB201
ARM GAS  /var/folders/sv/kgmgr77579zbf78p2zlhkdfr0000gn/T//ccSmwAAq.s 			page 55


 3079 1377 0A000000 		.4byte	.LBE201-.LBB201
 3080 137b 3A       		.uleb128 0x3a
 3081 137c 6E00     		.ascii	"n\000"
 3082 137e 01       		.byte	0x1
 3083 137f 4901     		.2byte	0x149
 3084 1381 2C000000 		.4byte	0x2c
 3085 1385 01       		.uleb128 0x1
 3086 1386 50       		.byte	0x50
 3087 1387 2B       		.uleb128 0x2b
 3088 1388 12000000 		.4byte	.LVL49
 3089 138c FD130000 		.4byte	0x13fd
 3090 1390 2C       		.uleb128 0x2c
 3091 1391 01       		.uleb128 0x1
 3092 1392 50       		.byte	0x50
 3093 1393 02       		.uleb128 0x2
 3094 1394 74       		.byte	0x74
 3095 1395 00       		.sleb128 0
 3096 1396 00       		.byte	0
 3097 1397 00       		.byte	0
 3098 1398 00       		.byte	0
 3099 1399 16       		.uleb128 0x16
 3100 139a 95110000 		.4byte	0x1195
 3101 139e 3B       		.uleb128 0x3b
 3102 139f D6000000 		.4byte	.LASF176
 3103 13a3 14       		.byte	0x14
 3104 13a4 A706     		.2byte	0x6a7
 3105 13a6 E9000000 		.4byte	0xe9
 3106 13aa 3C       		.uleb128 0x3c
 3107 13ab 636800   		.ascii	"ch\000"
 3108 13ae 08       		.byte	0x8
 3109 13af 0902     		.2byte	0x209
 3110 13b1 28040000 		.4byte	0x428
 3111 13b5 3D       		.uleb128 0x3d
 3112 13b6 BF010000 		.4byte	.LASF177
 3113 13ba BF010000 		.4byte	.LASF177
 3114 13be 11       		.byte	0x11
 3115 13bf 4C02     		.2byte	0x24c
 3116 13c1 3D       		.uleb128 0x3d
 3117 13c2 12060000 		.4byte	.LASF178
 3118 13c6 12060000 		.4byte	.LASF178
 3119 13ca 11       		.byte	0x11
 3120 13cb 4D02     		.2byte	0x24d
 3121 13cd 3D       		.uleb128 0x3d
 3122 13ce A7040000 		.4byte	.LASF179
 3123 13d2 A7040000 		.4byte	.LASF179
 3124 13d6 11       		.byte	0x11
 3125 13d7 4E02     		.2byte	0x24e
 3126 13d9 3D       		.uleb128 0x3d
 3127 13da C7080000 		.4byte	.LASF180
 3128 13de C7080000 		.4byte	.LASF180
 3129 13e2 11       		.byte	0x11
 3130 13e3 4F02     		.2byte	0x24f
 3131 13e5 3D       		.uleb128 0x3d
 3132 13e6 07050000 		.4byte	.LASF181
 3133 13ea 07050000 		.4byte	.LASF181
 3134 13ee 11       		.byte	0x11
 3135 13ef 5002     		.2byte	0x250
ARM GAS  /var/folders/sv/kgmgr77579zbf78p2zlhkdfr0000gn/T//ccSmwAAq.s 			page 56


 3136 13f1 3D       		.uleb128 0x3d
 3137 13f2 00000000 		.4byte	.LASF182
 3138 13f6 00000000 		.4byte	.LASF182
 3139 13fa 11       		.byte	0x11
 3140 13fb 5102     		.2byte	0x251
 3141 13fd 3D       		.uleb128 0x3d
 3142 13fe 03010000 		.4byte	.LASF183
 3143 1402 03010000 		.4byte	.LASF183
 3144 1406 11       		.byte	0x11
 3145 1407 5202     		.2byte	0x252
 3146 1409 00       		.byte	0
 3147              		.section	.debug_abbrev,"",%progbits
 3148              	.Ldebug_abbrev0:
 3149 0000 01       		.uleb128 0x1
 3150 0001 11       		.uleb128 0x11
 3151 0002 01       		.byte	0x1
 3152 0003 25       		.uleb128 0x25
 3153 0004 0E       		.uleb128 0xe
 3154 0005 13       		.uleb128 0x13
 3155 0006 0B       		.uleb128 0xb
 3156 0007 03       		.uleb128 0x3
 3157 0008 0E       		.uleb128 0xe
 3158 0009 1B       		.uleb128 0x1b
 3159 000a 0E       		.uleb128 0xe
 3160 000b 55       		.uleb128 0x55
 3161 000c 17       		.uleb128 0x17
 3162 000d 11       		.uleb128 0x11
 3163 000e 01       		.uleb128 0x1
 3164 000f 10       		.uleb128 0x10
 3165 0010 17       		.uleb128 0x17
 3166 0011 00       		.byte	0
 3167 0012 00       		.byte	0
 3168 0013 02       		.uleb128 0x2
 3169 0014 24       		.uleb128 0x24
 3170 0015 00       		.byte	0
 3171 0016 0B       		.uleb128 0xb
 3172 0017 0B       		.uleb128 0xb
 3173 0018 3E       		.uleb128 0x3e
 3174 0019 0B       		.uleb128 0xb
 3175 001a 03       		.uleb128 0x3
 3176 001b 08       		.uleb128 0x8
 3177 001c 00       		.byte	0
 3178 001d 00       		.byte	0
 3179 001e 03       		.uleb128 0x3
 3180 001f 16       		.uleb128 0x16
 3181 0020 00       		.byte	0
 3182 0021 03       		.uleb128 0x3
 3183 0022 0E       		.uleb128 0xe
 3184 0023 3A       		.uleb128 0x3a
 3185 0024 0B       		.uleb128 0xb
 3186 0025 3B       		.uleb128 0x3b
 3187 0026 0B       		.uleb128 0xb
 3188 0027 49       		.uleb128 0x49
 3189 0028 13       		.uleb128 0x13
 3190 0029 00       		.byte	0
 3191 002a 00       		.byte	0
 3192 002b 04       		.uleb128 0x4
ARM GAS  /var/folders/sv/kgmgr77579zbf78p2zlhkdfr0000gn/T//ccSmwAAq.s 			page 57


 3193 002c 24       		.uleb128 0x24
 3194 002d 00       		.byte	0
 3195 002e 0B       		.uleb128 0xb
 3196 002f 0B       		.uleb128 0xb
 3197 0030 3E       		.uleb128 0x3e
 3198 0031 0B       		.uleb128 0xb
 3199 0032 03       		.uleb128 0x3
 3200 0033 0E       		.uleb128 0xe
 3201 0034 00       		.byte	0
 3202 0035 00       		.byte	0
 3203 0036 05       		.uleb128 0x5
 3204 0037 35       		.uleb128 0x35
 3205 0038 00       		.byte	0
 3206 0039 49       		.uleb128 0x49
 3207 003a 13       		.uleb128 0x13
 3208 003b 00       		.byte	0
 3209 003c 00       		.byte	0
 3210 003d 06       		.uleb128 0x6
 3211 003e 13       		.uleb128 0x13
 3212 003f 01       		.byte	0x1
 3213 0040 03       		.uleb128 0x3
 3214 0041 0E       		.uleb128 0xe
 3215 0042 0B       		.uleb128 0xb
 3216 0043 0B       		.uleb128 0xb
 3217 0044 3A       		.uleb128 0x3a
 3218 0045 0B       		.uleb128 0xb
 3219 0046 3B       		.uleb128 0x3b
 3220 0047 0B       		.uleb128 0xb
 3221 0048 01       		.uleb128 0x1
 3222 0049 13       		.uleb128 0x13
 3223 004a 00       		.byte	0
 3224 004b 00       		.byte	0
 3225 004c 07       		.uleb128 0x7
 3226 004d 0D       		.uleb128 0xd
 3227 004e 00       		.byte	0
 3228 004f 03       		.uleb128 0x3
 3229 0050 0E       		.uleb128 0xe
 3230 0051 3A       		.uleb128 0x3a
 3231 0052 0B       		.uleb128 0xb
 3232 0053 3B       		.uleb128 0x3b
 3233 0054 0B       		.uleb128 0xb
 3234 0055 49       		.uleb128 0x49
 3235 0056 13       		.uleb128 0x13
 3236 0057 38       		.uleb128 0x38
 3237 0058 0B       		.uleb128 0xb
 3238 0059 00       		.byte	0
 3239 005a 00       		.byte	0
 3240 005b 08       		.uleb128 0x8
 3241 005c 0D       		.uleb128 0xd
 3242 005d 00       		.byte	0
 3243 005e 03       		.uleb128 0x3
 3244 005f 08       		.uleb128 0x8
 3245 0060 3A       		.uleb128 0x3a
 3246 0061 0B       		.uleb128 0xb
 3247 0062 3B       		.uleb128 0x3b
 3248 0063 05       		.uleb128 0x5
 3249 0064 49       		.uleb128 0x49
ARM GAS  /var/folders/sv/kgmgr77579zbf78p2zlhkdfr0000gn/T//ccSmwAAq.s 			page 58


 3250 0065 13       		.uleb128 0x13
 3251 0066 38       		.uleb128 0x38
 3252 0067 0B       		.uleb128 0xb
 3253 0068 00       		.byte	0
 3254 0069 00       		.byte	0
 3255 006a 09       		.uleb128 0x9
 3256 006b 0D       		.uleb128 0xd
 3257 006c 00       		.byte	0
 3258 006d 03       		.uleb128 0x3
 3259 006e 0E       		.uleb128 0xe
 3260 006f 3A       		.uleb128 0x3a
 3261 0070 0B       		.uleb128 0xb
 3262 0071 3B       		.uleb128 0x3b
 3263 0072 05       		.uleb128 0x5
 3264 0073 49       		.uleb128 0x49
 3265 0074 13       		.uleb128 0x13
 3266 0075 38       		.uleb128 0x38
 3267 0076 0B       		.uleb128 0xb
 3268 0077 00       		.byte	0
 3269 0078 00       		.byte	0
 3270 0079 0A       		.uleb128 0xa
 3271 007a 0F       		.uleb128 0xf
 3272 007b 00       		.byte	0
 3273 007c 0B       		.uleb128 0xb
 3274 007d 0B       		.uleb128 0xb
 3275 007e 49       		.uleb128 0x49
 3276 007f 13       		.uleb128 0x13
 3277 0080 00       		.byte	0
 3278 0081 00       		.byte	0
 3279 0082 0B       		.uleb128 0xb
 3280 0083 13       		.uleb128 0x13
 3281 0084 01       		.byte	0x1
 3282 0085 03       		.uleb128 0x3
 3283 0086 0E       		.uleb128 0xe
 3284 0087 0B       		.uleb128 0xb
 3285 0088 0B       		.uleb128 0xb
 3286 0089 3A       		.uleb128 0x3a
 3287 008a 0B       		.uleb128 0xb
 3288 008b 3B       		.uleb128 0x3b
 3289 008c 05       		.uleb128 0x5
 3290 008d 01       		.uleb128 0x1
 3291 008e 13       		.uleb128 0x13
 3292 008f 00       		.byte	0
 3293 0090 00       		.byte	0
 3294 0091 0C       		.uleb128 0xc
 3295 0092 15       		.uleb128 0x15
 3296 0093 01       		.byte	0x1
 3297 0094 27       		.uleb128 0x27
 3298 0095 19       		.uleb128 0x19
 3299 0096 01       		.uleb128 0x1
 3300 0097 13       		.uleb128 0x13
 3301 0098 00       		.byte	0
 3302 0099 00       		.byte	0
 3303 009a 0D       		.uleb128 0xd
 3304 009b 05       		.uleb128 0x5
 3305 009c 00       		.byte	0
 3306 009d 49       		.uleb128 0x49
ARM GAS  /var/folders/sv/kgmgr77579zbf78p2zlhkdfr0000gn/T//ccSmwAAq.s 			page 59


 3307 009e 13       		.uleb128 0x13
 3308 009f 00       		.byte	0
 3309 00a0 00       		.byte	0
 3310 00a1 0E       		.uleb128 0xe
 3311 00a2 0F       		.uleb128 0xf
 3312 00a3 00       		.byte	0
 3313 00a4 0B       		.uleb128 0xb
 3314 00a5 0B       		.uleb128 0xb
 3315 00a6 00       		.byte	0
 3316 00a7 00       		.byte	0
 3317 00a8 0F       		.uleb128 0xf
 3318 00a9 13       		.uleb128 0x13
 3319 00aa 01       		.byte	0x1
 3320 00ab 03       		.uleb128 0x3
 3321 00ac 0E       		.uleb128 0xe
 3322 00ad 0B       		.uleb128 0xb
 3323 00ae 05       		.uleb128 0x5
 3324 00af 3A       		.uleb128 0x3a
 3325 00b0 0B       		.uleb128 0xb
 3326 00b1 3B       		.uleb128 0x3b
 3327 00b2 05       		.uleb128 0x5
 3328 00b3 01       		.uleb128 0x1
 3329 00b4 13       		.uleb128 0x13
 3330 00b5 00       		.byte	0
 3331 00b6 00       		.byte	0
 3332 00b7 10       		.uleb128 0x10
 3333 00b8 13       		.uleb128 0x13
 3334 00b9 01       		.byte	0x1
 3335 00ba 0B       		.uleb128 0xb
 3336 00bb 0B       		.uleb128 0xb
 3337 00bc 3A       		.uleb128 0x3a
 3338 00bd 0B       		.uleb128 0xb
 3339 00be 3B       		.uleb128 0x3b
 3340 00bf 05       		.uleb128 0x5
 3341 00c0 01       		.uleb128 0x1
 3342 00c1 13       		.uleb128 0x13
 3343 00c2 00       		.byte	0
 3344 00c3 00       		.byte	0
 3345 00c4 11       		.uleb128 0x11
 3346 00c5 16       		.uleb128 0x16
 3347 00c6 00       		.byte	0
 3348 00c7 03       		.uleb128 0x3
 3349 00c8 0E       		.uleb128 0xe
 3350 00c9 3A       		.uleb128 0x3a
 3351 00ca 0B       		.uleb128 0xb
 3352 00cb 3B       		.uleb128 0x3b
 3353 00cc 05       		.uleb128 0x5
 3354 00cd 49       		.uleb128 0x49
 3355 00ce 13       		.uleb128 0x13
 3356 00cf 00       		.byte	0
 3357 00d0 00       		.byte	0
 3358 00d1 12       		.uleb128 0x12
 3359 00d2 0D       		.uleb128 0xd
 3360 00d3 00       		.byte	0
 3361 00d4 03       		.uleb128 0x3
 3362 00d5 08       		.uleb128 0x8
 3363 00d6 3A       		.uleb128 0x3a
ARM GAS  /var/folders/sv/kgmgr77579zbf78p2zlhkdfr0000gn/T//ccSmwAAq.s 			page 60


 3364 00d7 0B       		.uleb128 0xb
 3365 00d8 3B       		.uleb128 0x3b
 3366 00d9 0B       		.uleb128 0xb
 3367 00da 49       		.uleb128 0x49
 3368 00db 13       		.uleb128 0x13
 3369 00dc 38       		.uleb128 0x38
 3370 00dd 0B       		.uleb128 0xb
 3371 00de 00       		.byte	0
 3372 00df 00       		.byte	0
 3373 00e0 13       		.uleb128 0x13
 3374 00e1 13       		.uleb128 0x13
 3375 00e2 01       		.byte	0x1
 3376 00e3 0B       		.uleb128 0xb
 3377 00e4 0B       		.uleb128 0xb
 3378 00e5 3A       		.uleb128 0x3a
 3379 00e6 0B       		.uleb128 0xb
 3380 00e7 3B       		.uleb128 0x3b
 3381 00e8 0B       		.uleb128 0xb
 3382 00e9 01       		.uleb128 0x1
 3383 00ea 13       		.uleb128 0x13
 3384 00eb 00       		.byte	0
 3385 00ec 00       		.byte	0
 3386 00ed 14       		.uleb128 0x14
 3387 00ee 17       		.uleb128 0x17
 3388 00ef 01       		.byte	0x1
 3389 00f0 0B       		.uleb128 0xb
 3390 00f1 0B       		.uleb128 0xb
 3391 00f2 3A       		.uleb128 0x3a
 3392 00f3 0B       		.uleb128 0xb
 3393 00f4 3B       		.uleb128 0x3b
 3394 00f5 0B       		.uleb128 0xb
 3395 00f6 01       		.uleb128 0x1
 3396 00f7 13       		.uleb128 0x13
 3397 00f8 00       		.byte	0
 3398 00f9 00       		.byte	0
 3399 00fa 15       		.uleb128 0x15
 3400 00fb 0D       		.uleb128 0xd
 3401 00fc 00       		.byte	0
 3402 00fd 03       		.uleb128 0x3
 3403 00fe 0E       		.uleb128 0xe
 3404 00ff 3A       		.uleb128 0x3a
 3405 0100 0B       		.uleb128 0xb
 3406 0101 3B       		.uleb128 0x3b
 3407 0102 05       		.uleb128 0x5
 3408 0103 49       		.uleb128 0x49
 3409 0104 13       		.uleb128 0x13
 3410 0105 00       		.byte	0
 3411 0106 00       		.byte	0
 3412 0107 16       		.uleb128 0x16
 3413 0108 26       		.uleb128 0x26
 3414 0109 00       		.byte	0
 3415 010a 49       		.uleb128 0x49
 3416 010b 13       		.uleb128 0x13
 3417 010c 00       		.byte	0
 3418 010d 00       		.byte	0
 3419 010e 17       		.uleb128 0x17
 3420 010f 01       		.uleb128 0x1
ARM GAS  /var/folders/sv/kgmgr77579zbf78p2zlhkdfr0000gn/T//ccSmwAAq.s 			page 61


 3421 0110 01       		.byte	0x1
 3422 0111 49       		.uleb128 0x49
 3423 0112 13       		.uleb128 0x13
 3424 0113 01       		.uleb128 0x1
 3425 0114 13       		.uleb128 0x13
 3426 0115 00       		.byte	0
 3427 0116 00       		.byte	0
 3428 0117 18       		.uleb128 0x18
 3429 0118 21       		.uleb128 0x21
 3430 0119 00       		.byte	0
 3431 011a 49       		.uleb128 0x49
 3432 011b 13       		.uleb128 0x13
 3433 011c 2F       		.uleb128 0x2f
 3434 011d 0B       		.uleb128 0xb
 3435 011e 00       		.byte	0
 3436 011f 00       		.byte	0
 3437 0120 19       		.uleb128 0x19
 3438 0121 04       		.uleb128 0x4
 3439 0122 01       		.byte	0x1
 3440 0123 0B       		.uleb128 0xb
 3441 0124 0B       		.uleb128 0xb
 3442 0125 49       		.uleb128 0x49
 3443 0126 13       		.uleb128 0x13
 3444 0127 3A       		.uleb128 0x3a
 3445 0128 0B       		.uleb128 0xb
 3446 0129 3B       		.uleb128 0x3b
 3447 012a 0B       		.uleb128 0xb
 3448 012b 01       		.uleb128 0x1
 3449 012c 13       		.uleb128 0x13
 3450 012d 00       		.byte	0
 3451 012e 00       		.byte	0
 3452 012f 1A       		.uleb128 0x1a
 3453 0130 28       		.uleb128 0x28
 3454 0131 00       		.byte	0
 3455 0132 03       		.uleb128 0x3
 3456 0133 0E       		.uleb128 0xe
 3457 0134 1C       		.uleb128 0x1c
 3458 0135 0B       		.uleb128 0xb
 3459 0136 00       		.byte	0
 3460 0137 00       		.byte	0
 3461 0138 1B       		.uleb128 0x1b
 3462 0139 2E       		.uleb128 0x2e
 3463 013a 01       		.byte	0x1
 3464 013b 03       		.uleb128 0x3
 3465 013c 0E       		.uleb128 0xe
 3466 013d 3A       		.uleb128 0x3a
 3467 013e 0B       		.uleb128 0xb
 3468 013f 3B       		.uleb128 0x3b
 3469 0140 05       		.uleb128 0x5
 3470 0141 27       		.uleb128 0x27
 3471 0142 19       		.uleb128 0x19
 3472 0143 20       		.uleb128 0x20
 3473 0144 0B       		.uleb128 0xb
 3474 0145 01       		.uleb128 0x1
 3475 0146 13       		.uleb128 0x13
 3476 0147 00       		.byte	0
 3477 0148 00       		.byte	0
ARM GAS  /var/folders/sv/kgmgr77579zbf78p2zlhkdfr0000gn/T//ccSmwAAq.s 			page 62


 3478 0149 1C       		.uleb128 0x1c
 3479 014a 05       		.uleb128 0x5
 3480 014b 00       		.byte	0
 3481 014c 03       		.uleb128 0x3
 3482 014d 0E       		.uleb128 0xe
 3483 014e 3A       		.uleb128 0x3a
 3484 014f 0B       		.uleb128 0xb
 3485 0150 3B       		.uleb128 0x3b
 3486 0151 05       		.uleb128 0x5
 3487 0152 49       		.uleb128 0x49
 3488 0153 13       		.uleb128 0x13
 3489 0154 00       		.byte	0
 3490 0155 00       		.byte	0
 3491 0156 1D       		.uleb128 0x1d
 3492 0157 2E       		.uleb128 0x2e
 3493 0158 00       		.byte	0
 3494 0159 03       		.uleb128 0x3
 3495 015a 0E       		.uleb128 0xe
 3496 015b 3A       		.uleb128 0x3a
 3497 015c 0B       		.uleb128 0xb
 3498 015d 3B       		.uleb128 0x3b
 3499 015e 05       		.uleb128 0x5
 3500 015f 27       		.uleb128 0x27
 3501 0160 19       		.uleb128 0x19
 3502 0161 20       		.uleb128 0x20
 3503 0162 0B       		.uleb128 0xb
 3504 0163 00       		.byte	0
 3505 0164 00       		.byte	0
 3506 0165 1E       		.uleb128 0x1e
 3507 0166 34       		.uleb128 0x34
 3508 0167 00       		.byte	0
 3509 0168 03       		.uleb128 0x3
 3510 0169 0E       		.uleb128 0xe
 3511 016a 49       		.uleb128 0x49
 3512 016b 13       		.uleb128 0x13
 3513 016c 34       		.uleb128 0x34
 3514 016d 19       		.uleb128 0x19
 3515 016e 1C       		.uleb128 0x1c
 3516 016f 0E       		.uleb128 0xe
 3517 0170 00       		.byte	0
 3518 0171 00       		.byte	0
 3519 0172 1F       		.uleb128 0x1f
 3520 0173 2E       		.uleb128 0x2e
 3521 0174 01       		.byte	0x1
 3522 0175 3F       		.uleb128 0x3f
 3523 0176 19       		.uleb128 0x19
 3524 0177 03       		.uleb128 0x3
 3525 0178 0E       		.uleb128 0xe
 3526 0179 3A       		.uleb128 0x3a
 3527 017a 0B       		.uleb128 0xb
 3528 017b 3B       		.uleb128 0x3b
 3529 017c 0B       		.uleb128 0xb
 3530 017d 27       		.uleb128 0x27
 3531 017e 19       		.uleb128 0x19
 3532 017f 11       		.uleb128 0x11
 3533 0180 01       		.uleb128 0x1
 3534 0181 12       		.uleb128 0x12
ARM GAS  /var/folders/sv/kgmgr77579zbf78p2zlhkdfr0000gn/T//ccSmwAAq.s 			page 63


 3535 0182 06       		.uleb128 0x6
 3536 0183 40       		.uleb128 0x40
 3537 0184 18       		.uleb128 0x18
 3538 0185 9742     		.uleb128 0x2117
 3539 0187 19       		.uleb128 0x19
 3540 0188 01       		.uleb128 0x1
 3541 0189 13       		.uleb128 0x13
 3542 018a 00       		.byte	0
 3543 018b 00       		.byte	0
 3544 018c 20       		.uleb128 0x20
 3545 018d 898201   		.uleb128 0x4109
 3546 0190 00       		.byte	0
 3547 0191 11       		.uleb128 0x11
 3548 0192 01       		.uleb128 0x1
 3549 0193 9542     		.uleb128 0x2115
 3550 0195 19       		.uleb128 0x19
 3551 0196 31       		.uleb128 0x31
 3552 0197 13       		.uleb128 0x13
 3553 0198 00       		.byte	0
 3554 0199 00       		.byte	0
 3555 019a 21       		.uleb128 0x21
 3556 019b 05       		.uleb128 0x5
 3557 019c 00       		.byte	0
 3558 019d 03       		.uleb128 0x3
 3559 019e 0E       		.uleb128 0xe
 3560 019f 3A       		.uleb128 0x3a
 3561 01a0 0B       		.uleb128 0xb
 3562 01a1 3B       		.uleb128 0x3b
 3563 01a2 0B       		.uleb128 0xb
 3564 01a3 49       		.uleb128 0x49
 3565 01a4 13       		.uleb128 0x13
 3566 01a5 02       		.uleb128 0x2
 3567 01a6 18       		.uleb128 0x18
 3568 01a7 00       		.byte	0
 3569 01a8 00       		.byte	0
 3570 01a9 22       		.uleb128 0x22
 3571 01aa 05       		.uleb128 0x5
 3572 01ab 00       		.byte	0
 3573 01ac 03       		.uleb128 0x3
 3574 01ad 0E       		.uleb128 0xe
 3575 01ae 3A       		.uleb128 0x3a
 3576 01af 0B       		.uleb128 0xb
 3577 01b0 3B       		.uleb128 0x3b
 3578 01b1 0B       		.uleb128 0xb
 3579 01b2 49       		.uleb128 0x49
 3580 01b3 13       		.uleb128 0x13
 3581 01b4 02       		.uleb128 0x2
 3582 01b5 17       		.uleb128 0x17
 3583 01b6 00       		.byte	0
 3584 01b7 00       		.byte	0
 3585 01b8 23       		.uleb128 0x23
 3586 01b9 34       		.uleb128 0x34
 3587 01ba 00       		.byte	0
 3588 01bb 03       		.uleb128 0x3
 3589 01bc 0E       		.uleb128 0xe
 3590 01bd 49       		.uleb128 0x49
 3591 01be 13       		.uleb128 0x13
ARM GAS  /var/folders/sv/kgmgr77579zbf78p2zlhkdfr0000gn/T//ccSmwAAq.s 			page 64


 3592 01bf 34       		.uleb128 0x34
 3593 01c0 19       		.uleb128 0x19
 3594 01c1 00       		.byte	0
 3595 01c2 00       		.byte	0
 3596 01c3 24       		.uleb128 0x24
 3597 01c4 1D       		.uleb128 0x1d
 3598 01c5 01       		.byte	0x1
 3599 01c6 31       		.uleb128 0x31
 3600 01c7 13       		.uleb128 0x13
 3601 01c8 52       		.uleb128 0x52
 3602 01c9 01       		.uleb128 0x1
 3603 01ca 55       		.uleb128 0x55
 3604 01cb 17       		.uleb128 0x17
 3605 01cc 58       		.uleb128 0x58
 3606 01cd 0B       		.uleb128 0xb
 3607 01ce 59       		.uleb128 0x59
 3608 01cf 0B       		.uleb128 0xb
 3609 01d0 01       		.uleb128 0x1
 3610 01d1 13       		.uleb128 0x13
 3611 01d2 00       		.byte	0
 3612 01d3 00       		.byte	0
 3613 01d4 25       		.uleb128 0x25
 3614 01d5 1D       		.uleb128 0x1d
 3615 01d6 01       		.byte	0x1
 3616 01d7 31       		.uleb128 0x31
 3617 01d8 13       		.uleb128 0x13
 3618 01d9 52       		.uleb128 0x52
 3619 01da 01       		.uleb128 0x1
 3620 01db 55       		.uleb128 0x55
 3621 01dc 17       		.uleb128 0x17
 3622 01dd 58       		.uleb128 0x58
 3623 01de 0B       		.uleb128 0xb
 3624 01df 59       		.uleb128 0x59
 3625 01e0 05       		.uleb128 0x5
 3626 01e1 00       		.byte	0
 3627 01e2 00       		.byte	0
 3628 01e3 26       		.uleb128 0x26
 3629 01e4 05       		.uleb128 0x5
 3630 01e5 00       		.byte	0
 3631 01e6 31       		.uleb128 0x31
 3632 01e7 13       		.uleb128 0x13
 3633 01e8 02       		.uleb128 0x2
 3634 01e9 17       		.uleb128 0x17
 3635 01ea 00       		.byte	0
 3636 01eb 00       		.byte	0
 3637 01ec 27       		.uleb128 0x27
 3638 01ed 1D       		.uleb128 0x1d
 3639 01ee 01       		.byte	0x1
 3640 01ef 31       		.uleb128 0x31
 3641 01f0 13       		.uleb128 0x13
 3642 01f1 11       		.uleb128 0x11
 3643 01f2 01       		.uleb128 0x1
 3644 01f3 12       		.uleb128 0x12
 3645 01f4 06       		.uleb128 0x6
 3646 01f5 58       		.uleb128 0x58
 3647 01f6 0B       		.uleb128 0xb
 3648 01f7 59       		.uleb128 0x59
ARM GAS  /var/folders/sv/kgmgr77579zbf78p2zlhkdfr0000gn/T//ccSmwAAq.s 			page 65


 3649 01f8 0B       		.uleb128 0xb
 3650 01f9 01       		.uleb128 0x1
 3651 01fa 13       		.uleb128 0x13
 3652 01fb 00       		.byte	0
 3653 01fc 00       		.byte	0
 3654 01fd 28       		.uleb128 0x28
 3655 01fe 1D       		.uleb128 0x1d
 3656 01ff 01       		.byte	0x1
 3657 0200 31       		.uleb128 0x31
 3658 0201 13       		.uleb128 0x13
 3659 0202 11       		.uleb128 0x11
 3660 0203 01       		.uleb128 0x1
 3661 0204 12       		.uleb128 0x12
 3662 0205 06       		.uleb128 0x6
 3663 0206 58       		.uleb128 0x58
 3664 0207 0B       		.uleb128 0xb
 3665 0208 59       		.uleb128 0x59
 3666 0209 05       		.uleb128 0x5
 3667 020a 00       		.byte	0
 3668 020b 00       		.byte	0
 3669 020c 29       		.uleb128 0x29
 3670 020d 0B       		.uleb128 0xb
 3671 020e 01       		.byte	0x1
 3672 020f 11       		.uleb128 0x11
 3673 0210 01       		.uleb128 0x1
 3674 0211 12       		.uleb128 0x12
 3675 0212 06       		.uleb128 0x6
 3676 0213 00       		.byte	0
 3677 0214 00       		.byte	0
 3678 0215 2A       		.uleb128 0x2a
 3679 0216 34       		.uleb128 0x34
 3680 0217 00       		.byte	0
 3681 0218 31       		.uleb128 0x31
 3682 0219 13       		.uleb128 0x13
 3683 021a 00       		.byte	0
 3684 021b 00       		.byte	0
 3685 021c 2B       		.uleb128 0x2b
 3686 021d 898201   		.uleb128 0x4109
 3687 0220 01       		.byte	0x1
 3688 0221 11       		.uleb128 0x11
 3689 0222 01       		.uleb128 0x1
 3690 0223 31       		.uleb128 0x31
 3691 0224 13       		.uleb128 0x13
 3692 0225 00       		.byte	0
 3693 0226 00       		.byte	0
 3694 0227 2C       		.uleb128 0x2c
 3695 0228 8A8201   		.uleb128 0x410a
 3696 022b 00       		.byte	0
 3697 022c 02       		.uleb128 0x2
 3698 022d 18       		.uleb128 0x18
 3699 022e 9142     		.uleb128 0x2111
 3700 0230 18       		.uleb128 0x18
 3701 0231 00       		.byte	0
 3702 0232 00       		.byte	0
 3703 0233 2D       		.uleb128 0x2d
 3704 0234 05       		.uleb128 0x5
 3705 0235 00       		.byte	0
ARM GAS  /var/folders/sv/kgmgr77579zbf78p2zlhkdfr0000gn/T//ccSmwAAq.s 			page 66


 3706 0236 03       		.uleb128 0x3
 3707 0237 08       		.uleb128 0x8
 3708 0238 3A       		.uleb128 0x3a
 3709 0239 0B       		.uleb128 0xb
 3710 023a 3B       		.uleb128 0x3b
 3711 023b 0B       		.uleb128 0xb
 3712 023c 49       		.uleb128 0x49
 3713 023d 13       		.uleb128 0x13
 3714 023e 02       		.uleb128 0x2
 3715 023f 17       		.uleb128 0x17
 3716 0240 00       		.byte	0
 3717 0241 00       		.byte	0
 3718 0242 2E       		.uleb128 0x2e
 3719 0243 26       		.uleb128 0x26
 3720 0244 00       		.byte	0
 3721 0245 00       		.byte	0
 3722 0246 00       		.byte	0
 3723 0247 2F       		.uleb128 0x2f
 3724 0248 2E       		.uleb128 0x2e
 3725 0249 01       		.byte	0x1
 3726 024a 3F       		.uleb128 0x3f
 3727 024b 19       		.uleb128 0x19
 3728 024c 03       		.uleb128 0x3
 3729 024d 0E       		.uleb128 0xe
 3730 024e 3A       		.uleb128 0x3a
 3731 024f 0B       		.uleb128 0xb
 3732 0250 3B       		.uleb128 0x3b
 3733 0251 0B       		.uleb128 0xb
 3734 0252 27       		.uleb128 0x27
 3735 0253 19       		.uleb128 0x19
 3736 0254 49       		.uleb128 0x49
 3737 0255 13       		.uleb128 0x13
 3738 0256 11       		.uleb128 0x11
 3739 0257 01       		.uleb128 0x1
 3740 0258 12       		.uleb128 0x12
 3741 0259 06       		.uleb128 0x6
 3742 025a 40       		.uleb128 0x40
 3743 025b 18       		.uleb128 0x18
 3744 025c 9742     		.uleb128 0x2117
 3745 025e 19       		.uleb128 0x19
 3746 025f 01       		.uleb128 0x1
 3747 0260 13       		.uleb128 0x13
 3748 0261 00       		.byte	0
 3749 0262 00       		.byte	0
 3750 0263 30       		.uleb128 0x30
 3751 0264 34       		.uleb128 0x34
 3752 0265 00       		.byte	0
 3753 0266 03       		.uleb128 0x3
 3754 0267 08       		.uleb128 0x8
 3755 0268 3A       		.uleb128 0x3a
 3756 0269 0B       		.uleb128 0xb
 3757 026a 3B       		.uleb128 0x3b
 3758 026b 0B       		.uleb128 0xb
 3759 026c 49       		.uleb128 0x49
 3760 026d 13       		.uleb128 0x13
 3761 026e 02       		.uleb128 0x2
 3762 026f 17       		.uleb128 0x17
ARM GAS  /var/folders/sv/kgmgr77579zbf78p2zlhkdfr0000gn/T//ccSmwAAq.s 			page 67


 3763 0270 00       		.byte	0
 3764 0271 00       		.byte	0
 3765 0272 31       		.uleb128 0x31
 3766 0273 0B       		.uleb128 0xb
 3767 0274 01       		.byte	0x1
 3768 0275 55       		.uleb128 0x55
 3769 0276 17       		.uleb128 0x17
 3770 0277 00       		.byte	0
 3771 0278 00       		.byte	0
 3772 0279 32       		.uleb128 0x32
 3773 027a 34       		.uleb128 0x34
 3774 027b 00       		.byte	0
 3775 027c 03       		.uleb128 0x3
 3776 027d 08       		.uleb128 0x8
 3777 027e 3A       		.uleb128 0x3a
 3778 027f 0B       		.uleb128 0xb
 3779 0280 3B       		.uleb128 0x3b
 3780 0281 0B       		.uleb128 0xb
 3781 0282 49       		.uleb128 0x49
 3782 0283 13       		.uleb128 0x13
 3783 0284 02       		.uleb128 0x2
 3784 0285 18       		.uleb128 0x18
 3785 0286 00       		.byte	0
 3786 0287 00       		.byte	0
 3787 0288 33       		.uleb128 0x33
 3788 0289 2E       		.uleb128 0x2e
 3789 028a 01       		.byte	0x1
 3790 028b 3F       		.uleb128 0x3f
 3791 028c 19       		.uleb128 0x19
 3792 028d 03       		.uleb128 0x3
 3793 028e 0E       		.uleb128 0xe
 3794 028f 3A       		.uleb128 0x3a
 3795 0290 0B       		.uleb128 0xb
 3796 0291 3B       		.uleb128 0x3b
 3797 0292 05       		.uleb128 0x5
 3798 0293 27       		.uleb128 0x27
 3799 0294 19       		.uleb128 0x19
 3800 0295 11       		.uleb128 0x11
 3801 0296 01       		.uleb128 0x1
 3802 0297 12       		.uleb128 0x12
 3803 0298 06       		.uleb128 0x6
 3804 0299 40       		.uleb128 0x40
 3805 029a 18       		.uleb128 0x18
 3806 029b 9742     		.uleb128 0x2117
 3807 029d 19       		.uleb128 0x19
 3808 029e 01       		.uleb128 0x1
 3809 029f 13       		.uleb128 0x13
 3810 02a0 00       		.byte	0
 3811 02a1 00       		.byte	0
 3812 02a2 34       		.uleb128 0x34
 3813 02a3 05       		.uleb128 0x5
 3814 02a4 00       		.byte	0
 3815 02a5 03       		.uleb128 0x3
 3816 02a6 0E       		.uleb128 0xe
 3817 02a7 3A       		.uleb128 0x3a
 3818 02a8 0B       		.uleb128 0xb
 3819 02a9 3B       		.uleb128 0x3b
ARM GAS  /var/folders/sv/kgmgr77579zbf78p2zlhkdfr0000gn/T//ccSmwAAq.s 			page 68


 3820 02aa 05       		.uleb128 0x5
 3821 02ab 49       		.uleb128 0x49
 3822 02ac 13       		.uleb128 0x13
 3823 02ad 02       		.uleb128 0x2
 3824 02ae 17       		.uleb128 0x17
 3825 02af 00       		.byte	0
 3826 02b0 00       		.byte	0
 3827 02b1 35       		.uleb128 0x35
 3828 02b2 05       		.uleb128 0x5
 3829 02b3 00       		.byte	0
 3830 02b4 03       		.uleb128 0x3
 3831 02b5 08       		.uleb128 0x8
 3832 02b6 3A       		.uleb128 0x3a
 3833 02b7 0B       		.uleb128 0xb
 3834 02b8 3B       		.uleb128 0x3b
 3835 02b9 05       		.uleb128 0x5
 3836 02ba 49       		.uleb128 0x49
 3837 02bb 13       		.uleb128 0x13
 3838 02bc 02       		.uleb128 0x2
 3839 02bd 17       		.uleb128 0x17
 3840 02be 00       		.byte	0
 3841 02bf 00       		.byte	0
 3842 02c0 36       		.uleb128 0x36
 3843 02c1 2E       		.uleb128 0x2e
 3844 02c2 01       		.byte	0x1
 3845 02c3 3F       		.uleb128 0x3f
 3846 02c4 19       		.uleb128 0x19
 3847 02c5 03       		.uleb128 0x3
 3848 02c6 0E       		.uleb128 0xe
 3849 02c7 3A       		.uleb128 0x3a
 3850 02c8 0B       		.uleb128 0xb
 3851 02c9 3B       		.uleb128 0x3b
 3852 02ca 05       		.uleb128 0x5
 3853 02cb 27       		.uleb128 0x27
 3854 02cc 19       		.uleb128 0x19
 3855 02cd 49       		.uleb128 0x49
 3856 02ce 13       		.uleb128 0x13
 3857 02cf 11       		.uleb128 0x11
 3858 02d0 01       		.uleb128 0x1
 3859 02d1 12       		.uleb128 0x12
 3860 02d2 06       		.uleb128 0x6
 3861 02d3 40       		.uleb128 0x40
 3862 02d4 18       		.uleb128 0x18
 3863 02d5 9742     		.uleb128 0x2117
 3864 02d7 19       		.uleb128 0x19
 3865 02d8 01       		.uleb128 0x1
 3866 02d9 13       		.uleb128 0x13
 3867 02da 00       		.byte	0
 3868 02db 00       		.byte	0
 3869 02dc 37       		.uleb128 0x37
 3870 02dd 34       		.uleb128 0x34
 3871 02de 00       		.byte	0
 3872 02df 03       		.uleb128 0x3
 3873 02e0 08       		.uleb128 0x8
 3874 02e1 3A       		.uleb128 0x3a
 3875 02e2 0B       		.uleb128 0xb
 3876 02e3 3B       		.uleb128 0x3b
ARM GAS  /var/folders/sv/kgmgr77579zbf78p2zlhkdfr0000gn/T//ccSmwAAq.s 			page 69


 3877 02e4 05       		.uleb128 0x5
 3878 02e5 49       		.uleb128 0x49
 3879 02e6 13       		.uleb128 0x13
 3880 02e7 02       		.uleb128 0x2
 3881 02e8 17       		.uleb128 0x17
 3882 02e9 00       		.byte	0
 3883 02ea 00       		.byte	0
 3884 02eb 38       		.uleb128 0x38
 3885 02ec 1D       		.uleb128 0x1d
 3886 02ed 01       		.byte	0x1
 3887 02ee 31       		.uleb128 0x31
 3888 02ef 13       		.uleb128 0x13
 3889 02f0 11       		.uleb128 0x11
 3890 02f1 01       		.uleb128 0x1
 3891 02f2 12       		.uleb128 0x12
 3892 02f3 06       		.uleb128 0x6
 3893 02f4 58       		.uleb128 0x58
 3894 02f5 0B       		.uleb128 0xb
 3895 02f6 59       		.uleb128 0x59
 3896 02f7 05       		.uleb128 0x5
 3897 02f8 01       		.uleb128 0x1
 3898 02f9 13       		.uleb128 0x13
 3899 02fa 00       		.byte	0
 3900 02fb 00       		.byte	0
 3901 02fc 39       		.uleb128 0x39
 3902 02fd 1D       		.uleb128 0x1d
 3903 02fe 01       		.byte	0x1
 3904 02ff 31       		.uleb128 0x31
 3905 0300 13       		.uleb128 0x13
 3906 0301 52       		.uleb128 0x52
 3907 0302 01       		.uleb128 0x1
 3908 0303 55       		.uleb128 0x55
 3909 0304 17       		.uleb128 0x17
 3910 0305 58       		.uleb128 0x58
 3911 0306 0B       		.uleb128 0xb
 3912 0307 59       		.uleb128 0x59
 3913 0308 05       		.uleb128 0x5
 3914 0309 01       		.uleb128 0x1
 3915 030a 13       		.uleb128 0x13
 3916 030b 00       		.byte	0
 3917 030c 00       		.byte	0
 3918 030d 3A       		.uleb128 0x3a
 3919 030e 34       		.uleb128 0x34
 3920 030f 00       		.byte	0
 3921 0310 03       		.uleb128 0x3
 3922 0311 08       		.uleb128 0x8
 3923 0312 3A       		.uleb128 0x3a
 3924 0313 0B       		.uleb128 0xb
 3925 0314 3B       		.uleb128 0x3b
 3926 0315 05       		.uleb128 0x5
 3927 0316 49       		.uleb128 0x49
 3928 0317 13       		.uleb128 0x13
 3929 0318 02       		.uleb128 0x2
 3930 0319 18       		.uleb128 0x18
 3931 031a 00       		.byte	0
 3932 031b 00       		.byte	0
 3933 031c 3B       		.uleb128 0x3b
ARM GAS  /var/folders/sv/kgmgr77579zbf78p2zlhkdfr0000gn/T//ccSmwAAq.s 			page 70


 3934 031d 34       		.uleb128 0x34
 3935 031e 00       		.byte	0
 3936 031f 03       		.uleb128 0x3
 3937 0320 0E       		.uleb128 0xe
 3938 0321 3A       		.uleb128 0x3a
 3939 0322 0B       		.uleb128 0xb
 3940 0323 3B       		.uleb128 0x3b
 3941 0324 05       		.uleb128 0x5
 3942 0325 49       		.uleb128 0x49
 3943 0326 13       		.uleb128 0x13
 3944 0327 3F       		.uleb128 0x3f
 3945 0328 19       		.uleb128 0x19
 3946 0329 3C       		.uleb128 0x3c
 3947 032a 19       		.uleb128 0x19
 3948 032b 00       		.byte	0
 3949 032c 00       		.byte	0
 3950 032d 3C       		.uleb128 0x3c
 3951 032e 34       		.uleb128 0x34
 3952 032f 00       		.byte	0
 3953 0330 03       		.uleb128 0x3
 3954 0331 08       		.uleb128 0x8
 3955 0332 3A       		.uleb128 0x3a
 3956 0333 0B       		.uleb128 0xb
 3957 0334 3B       		.uleb128 0x3b
 3958 0335 05       		.uleb128 0x5
 3959 0336 49       		.uleb128 0x49
 3960 0337 13       		.uleb128 0x13
 3961 0338 3F       		.uleb128 0x3f
 3962 0339 19       		.uleb128 0x19
 3963 033a 3C       		.uleb128 0x3c
 3964 033b 19       		.uleb128 0x19
 3965 033c 00       		.byte	0
 3966 033d 00       		.byte	0
 3967 033e 3D       		.uleb128 0x3d
 3968 033f 2E       		.uleb128 0x2e
 3969 0340 00       		.byte	0
 3970 0341 3F       		.uleb128 0x3f
 3971 0342 19       		.uleb128 0x19
 3972 0343 3C       		.uleb128 0x3c
 3973 0344 19       		.uleb128 0x19
 3974 0345 6E       		.uleb128 0x6e
 3975 0346 0E       		.uleb128 0xe
 3976 0347 03       		.uleb128 0x3
 3977 0348 0E       		.uleb128 0xe
 3978 0349 3A       		.uleb128 0x3a
 3979 034a 0B       		.uleb128 0xb
 3980 034b 3B       		.uleb128 0x3b
 3981 034c 05       		.uleb128 0x5
 3982 034d 00       		.byte	0
 3983 034e 00       		.byte	0
 3984 034f 00       		.byte	0
 3985              		.section	.debug_loc,"",%progbits
 3986              	.Ldebug_loc0:
 3987              	.LLST0:
 3988 0000 00000000 		.4byte	.LVL2
 3989 0004 0F000000 		.4byte	.LVL4-1
 3990 0008 0100     		.2byte	0x1
ARM GAS  /var/folders/sv/kgmgr77579zbf78p2zlhkdfr0000gn/T//ccSmwAAq.s 			page 71


 3991 000a 50       		.byte	0x50
 3992 000b 0F000000 		.4byte	.LVL4-1
 3993 000f 1C000000 		.4byte	.LFE258
 3994 0013 0100     		.2byte	0x1
 3995 0015 54       		.byte	0x54
 3996 0016 00000000 		.4byte	0
 3997 001a 00000000 		.4byte	0
 3998              	.LLST1:
 3999 001e 00000000 		.4byte	.LVL2
 4000 0022 0F000000 		.4byte	.LVL4-1
 4001 0026 0100     		.2byte	0x1
 4002 0028 51       		.byte	0x51
 4003 0029 0F000000 		.4byte	.LVL4-1
 4004 002d 1C000000 		.4byte	.LFE258
 4005 0031 0400     		.2byte	0x4
 4006 0033 F3       		.byte	0xf3
 4007 0034 01       		.uleb128 0x1
 4008 0035 51       		.byte	0x51
 4009 0036 9F       		.byte	0x9f
 4010 0037 00000000 		.4byte	0
 4011 003b 00000000 		.4byte	0
 4012              	.LLST2:
 4013 003f 00000000 		.4byte	.LVL2
 4014 0043 0A000000 		.4byte	.LVL3
 4015 0047 0300     		.2byte	0x3
 4016 0049 08       		.byte	0x8
 4017 004a 20       		.byte	0x20
 4018 004b 9F       		.byte	0x9f
 4019 004c 00000000 		.4byte	0
 4020 0050 00000000 		.4byte	0
 4021              	.LLST3:
 4022 0054 14000000 		.4byte	.LVL5
 4023 0058 1A000000 		.4byte	.LVL6
 4024 005c 0200     		.2byte	0x2
 4025 005e 30       		.byte	0x30
 4026 005f 9F       		.byte	0x9f
 4027 0060 00000000 		.4byte	0
 4028 0064 00000000 		.4byte	0
 4029              	.LLST4:
 4030 0068 00000000 		.4byte	.LVL7
 4031 006c 0D000000 		.4byte	.LVL9-1
 4032 0070 0100     		.2byte	0x1
 4033 0072 50       		.byte	0x50
 4034 0073 0D000000 		.4byte	.LVL9-1
 4035 0077 1E000000 		.4byte	.LFE259
 4036 007b 0100     		.2byte	0x1
 4037 007d 54       		.byte	0x54
 4038 007e 00000000 		.4byte	0
 4039 0082 00000000 		.4byte	0
 4040              	.LLST5:
 4041 0086 00000000 		.4byte	.LVL7
 4042 008a 0A000000 		.4byte	.LVL8
 4043 008e 0300     		.2byte	0x3
 4044 0090 08       		.byte	0x8
 4045 0091 20       		.byte	0x20
 4046 0092 9F       		.byte	0x9f
 4047 0093 00000000 		.4byte	0
ARM GAS  /var/folders/sv/kgmgr77579zbf78p2zlhkdfr0000gn/T//ccSmwAAq.s 			page 72


 4048 0097 00000000 		.4byte	0
 4049              	.LLST6:
 4050 009b 18000000 		.4byte	.LVL10
 4051 009f 1C000000 		.4byte	.LVL11
 4052 00a3 0200     		.2byte	0x2
 4053 00a5 30       		.byte	0x30
 4054 00a6 9F       		.byte	0x9f
 4055 00a7 00000000 		.4byte	0
 4056 00ab 00000000 		.4byte	0
 4057              	.LLST7:
 4058 00af 00000000 		.4byte	.LVL12
 4059 00b3 0D000000 		.4byte	.LVL14-1
 4060 00b7 0100     		.2byte	0x1
 4061 00b9 50       		.byte	0x50
 4062 00ba 0D000000 		.4byte	.LVL14-1
 4063 00be 1A000000 		.4byte	.LFE260
 4064 00c2 0100     		.2byte	0x1
 4065 00c4 54       		.byte	0x54
 4066 00c5 00000000 		.4byte	0
 4067 00c9 00000000 		.4byte	0
 4068              	.LLST8:
 4069 00cd 00000000 		.4byte	.LVL12
 4070 00d1 0D000000 		.4byte	.LVL14-1
 4071 00d5 0100     		.2byte	0x1
 4072 00d7 51       		.byte	0x51
 4073 00d8 0D000000 		.4byte	.LVL14-1
 4074 00dc 1A000000 		.4byte	.LFE260
 4075 00e0 0400     		.2byte	0x4
 4076 00e2 F3       		.byte	0xf3
 4077 00e3 01       		.uleb128 0x1
 4078 00e4 51       		.byte	0x51
 4079 00e5 9F       		.byte	0x9f
 4080 00e6 00000000 		.4byte	0
 4081 00ea 00000000 		.4byte	0
 4082              	.LLST9:
 4083 00ee 00000000 		.4byte	.LVL12
 4084 00f2 0D000000 		.4byte	.LVL14-1
 4085 00f6 0100     		.2byte	0x1
 4086 00f8 52       		.byte	0x52
 4087 00f9 0D000000 		.4byte	.LVL14-1
 4088 00fd 1A000000 		.4byte	.LFE260
 4089 0101 0400     		.2byte	0x4
 4090 0103 F3       		.byte	0xf3
 4091 0104 01       		.uleb128 0x1
 4092 0105 52       		.byte	0x52
 4093 0106 9F       		.byte	0x9f
 4094 0107 00000000 		.4byte	0
 4095 010b 00000000 		.4byte	0
 4096              	.LLST10:
 4097 010f 00000000 		.4byte	.LVL12
 4098 0113 0A000000 		.4byte	.LVL13
 4099 0117 0300     		.2byte	0x3
 4100 0119 08       		.byte	0x8
 4101 011a 20       		.byte	0x20
 4102 011b 9F       		.byte	0x9f
 4103 011c 00000000 		.4byte	0
 4104 0120 00000000 		.4byte	0
ARM GAS  /var/folders/sv/kgmgr77579zbf78p2zlhkdfr0000gn/T//ccSmwAAq.s 			page 73


 4105              	.LLST11:
 4106 0124 12000000 		.4byte	.LVL15
 4107 0128 18000000 		.4byte	.LVL16
 4108 012c 0200     		.2byte	0x2
 4109 012e 30       		.byte	0x30
 4110 012f 9F       		.byte	0x9f
 4111 0130 00000000 		.4byte	0
 4112 0134 00000000 		.4byte	0
 4113              	.LLST12:
 4114 0138 00000000 		.4byte	.LVL17
 4115 013c 07000000 		.4byte	.LVL18-1
 4116 0140 0100     		.2byte	0x1
 4117 0142 50       		.byte	0x50
 4118 0143 07000000 		.4byte	.LVL18-1
 4119 0147 0E000000 		.4byte	.LFE261
 4120 014b 0100     		.2byte	0x1
 4121 014d 54       		.byte	0x54
 4122 014e 00000000 		.4byte	0
 4123 0152 00000000 		.4byte	0
 4124              	.LLST13:
 4125 0156 00000000 		.4byte	.LVL17
 4126 015a 07000000 		.4byte	.LVL18-1
 4127 015e 0100     		.2byte	0x1
 4128 0160 51       		.byte	0x51
 4129 0161 07000000 		.4byte	.LVL18-1
 4130 0165 0E000000 		.4byte	.LFE261
 4131 0169 0400     		.2byte	0x4
 4132 016b F3       		.byte	0xf3
 4133 016c 01       		.uleb128 0x1
 4134 016d 51       		.byte	0x51
 4135 016e 9F       		.byte	0x9f
 4136 016f 00000000 		.4byte	0
 4137 0173 00000000 		.4byte	0
 4138              	.LLST14:
 4139 0177 00000000 		.4byte	.LVL17
 4140 017b 07000000 		.4byte	.LVL18-1
 4141 017f 0100     		.2byte	0x1
 4142 0181 52       		.byte	0x52
 4143 0182 07000000 		.4byte	.LVL18-1
 4144 0186 0E000000 		.4byte	.LFE261
 4145 018a 0400     		.2byte	0x4
 4146 018c F3       		.byte	0xf3
 4147 018d 01       		.uleb128 0x1
 4148 018e 52       		.byte	0x52
 4149 018f 9F       		.byte	0x9f
 4150 0190 00000000 		.4byte	0
 4151 0194 00000000 		.4byte	0
 4152              	.LLST15:
 4153 0198 00000000 		.4byte	.LVL19
 4154 019c 0E000000 		.4byte	.LVL21
 4155 01a0 0100     		.2byte	0x1
 4156 01a2 50       		.byte	0x50
 4157 01a3 0E000000 		.4byte	.LVL21
 4158 01a7 16000000 		.4byte	.LVL23
 4159 01ab 0400     		.2byte	0x4
 4160 01ad F3       		.byte	0xf3
 4161 01ae 01       		.uleb128 0x1
ARM GAS  /var/folders/sv/kgmgr77579zbf78p2zlhkdfr0000gn/T//ccSmwAAq.s 			page 74


 4162 01af 50       		.byte	0x50
 4163 01b0 9F       		.byte	0x9f
 4164 01b1 16000000 		.4byte	.LVL23
 4165 01b5 1D000000 		.4byte	.LVL24-1
 4166 01b9 0100     		.2byte	0x1
 4167 01bb 50       		.byte	0x50
 4168 01bc 1D000000 		.4byte	.LVL24-1
 4169 01c0 2A000000 		.4byte	.LFE262
 4170 01c4 0100     		.2byte	0x1
 4171 01c6 54       		.byte	0x54
 4172 01c7 00000000 		.4byte	0
 4173 01cb 00000000 		.4byte	0
 4174              	.LLST16:
 4175 01cf 0E000000 		.4byte	.LVL21
 4176 01d3 16000000 		.4byte	.LVL23
 4177 01d7 0100     		.2byte	0x1
 4178 01d9 50       		.byte	0x50
 4179 01da 1E000000 		.4byte	.LVL24
 4180 01de 2A000000 		.4byte	.LFE262
 4181 01e2 0100     		.2byte	0x1
 4182 01e4 50       		.byte	0x50
 4183 01e5 00000000 		.4byte	0
 4184 01e9 00000000 		.4byte	0
 4185              	.LLST17:
 4186 01ed 00000000 		.4byte	.LVL19
 4187 01f1 06000000 		.4byte	.LVL20
 4188 01f5 0300     		.2byte	0x3
 4189 01f7 08       		.byte	0x8
 4190 01f8 20       		.byte	0x20
 4191 01f9 9F       		.byte	0x9f
 4192 01fa 00000000 		.4byte	0
 4193 01fe 00000000 		.4byte	0
 4194              	.LLST18:
 4195 0202 0E000000 		.4byte	.LVL21
 4196 0206 14000000 		.4byte	.LVL22
 4197 020a 0200     		.2byte	0x2
 4198 020c 30       		.byte	0x30
 4199 020d 9F       		.byte	0x9f
 4200 020e 22000000 		.4byte	.LVL25
 4201 0212 28000000 		.4byte	.LVL26
 4202 0216 0200     		.2byte	0x2
 4203 0218 30       		.byte	0x30
 4204 0219 9F       		.byte	0x9f
 4205 021a 00000000 		.4byte	0
 4206 021e 00000000 		.4byte	0
 4207              	.LLST19:
 4208 0222 00000000 		.4byte	.LVL27
 4209 0226 08000000 		.4byte	.LVL28
 4210 022a 0100     		.2byte	0x1
 4211 022c 50       		.byte	0x50
 4212 022d 08000000 		.4byte	.LVL28
 4213 0231 0A000000 		.4byte	.LVL29
 4214 0235 0400     		.2byte	0x4
 4215 0237 F3       		.byte	0xf3
 4216 0238 01       		.uleb128 0x1
 4217 0239 50       		.byte	0x50
 4218 023a 9F       		.byte	0x9f
ARM GAS  /var/folders/sv/kgmgr77579zbf78p2zlhkdfr0000gn/T//ccSmwAAq.s 			page 75


 4219 023b 0A000000 		.4byte	.LVL29
 4220 023f 11000000 		.4byte	.LVL30-1
 4221 0243 0100     		.2byte	0x1
 4222 0245 50       		.byte	0x50
 4223 0246 11000000 		.4byte	.LVL30-1
 4224 024a 18000000 		.4byte	.LFE263
 4225 024e 0100     		.2byte	0x1
 4226 0250 54       		.byte	0x54
 4227 0251 00000000 		.4byte	0
 4228 0255 00000000 		.4byte	0
 4229              	.LLST20:
 4230 0259 00000000 		.4byte	.LVL31
 4231 025d 0D000000 		.4byte	.LVL33-1
 4232 0261 0100     		.2byte	0x1
 4233 0263 50       		.byte	0x50
 4234 0264 0D000000 		.4byte	.LVL33-1
 4235 0268 1A000000 		.4byte	.LFE264
 4236 026c 0100     		.2byte	0x1
 4237 026e 54       		.byte	0x54
 4238 026f 00000000 		.4byte	0
 4239 0273 00000000 		.4byte	0
 4240              	.LLST21:
 4241 0277 00000000 		.4byte	.LVL31
 4242 027b 0D000000 		.4byte	.LVL33-1
 4243 027f 0100     		.2byte	0x1
 4244 0281 51       		.byte	0x51
 4245 0282 0D000000 		.4byte	.LVL33-1
 4246 0286 1A000000 		.4byte	.LFE264
 4247 028a 0400     		.2byte	0x4
 4248 028c F3       		.byte	0xf3
 4249 028d 01       		.uleb128 0x1
 4250 028e 51       		.byte	0x51
 4251 028f 9F       		.byte	0x9f
 4252 0290 00000000 		.4byte	0
 4253 0294 00000000 		.4byte	0
 4254              	.LLST22:
 4255 0298 00000000 		.4byte	.LVL31
 4256 029c 0D000000 		.4byte	.LVL33-1
 4257 02a0 0100     		.2byte	0x1
 4258 02a2 52       		.byte	0x52
 4259 02a3 0D000000 		.4byte	.LVL33-1
 4260 02a7 1A000000 		.4byte	.LFE264
 4261 02ab 0400     		.2byte	0x4
 4262 02ad F3       		.byte	0xf3
 4263 02ae 01       		.uleb128 0x1
 4264 02af 52       		.byte	0x52
 4265 02b0 9F       		.byte	0x9f
 4266 02b1 00000000 		.4byte	0
 4267 02b5 00000000 		.4byte	0
 4268              	.LLST23:
 4269 02b9 00000000 		.4byte	.LVL31
 4270 02bd 0A000000 		.4byte	.LVL32
 4271 02c1 0300     		.2byte	0x3
 4272 02c3 08       		.byte	0x8
 4273 02c4 20       		.byte	0x20
 4274 02c5 9F       		.byte	0x9f
 4275 02c6 00000000 		.4byte	0
ARM GAS  /var/folders/sv/kgmgr77579zbf78p2zlhkdfr0000gn/T//ccSmwAAq.s 			page 76


 4276 02ca 00000000 		.4byte	0
 4277              	.LLST24:
 4278 02ce 12000000 		.4byte	.LVL34
 4279 02d2 18000000 		.4byte	.LVL35
 4280 02d6 0200     		.2byte	0x2
 4281 02d8 30       		.byte	0x30
 4282 02d9 9F       		.byte	0x9f
 4283 02da 00000000 		.4byte	0
 4284 02de 00000000 		.4byte	0
 4285              	.LLST25:
 4286 02e2 00000000 		.4byte	.LVL36
 4287 02e6 07000000 		.4byte	.LVL37-1
 4288 02ea 0100     		.2byte	0x1
 4289 02ec 50       		.byte	0x50
 4290 02ed 07000000 		.4byte	.LVL37-1
 4291 02f1 0E000000 		.4byte	.LFE265
 4292 02f5 0100     		.2byte	0x1
 4293 02f7 54       		.byte	0x54
 4294 02f8 00000000 		.4byte	0
 4295 02fc 00000000 		.4byte	0
 4296              	.LLST26:
 4297 0300 00000000 		.4byte	.LVL36
 4298 0304 07000000 		.4byte	.LVL37-1
 4299 0308 0100     		.2byte	0x1
 4300 030a 51       		.byte	0x51
 4301 030b 07000000 		.4byte	.LVL37-1
 4302 030f 0E000000 		.4byte	.LFE265
 4303 0313 0400     		.2byte	0x4
 4304 0315 F3       		.byte	0xf3
 4305 0316 01       		.uleb128 0x1
 4306 0317 51       		.byte	0x51
 4307 0318 9F       		.byte	0x9f
 4308 0319 00000000 		.4byte	0
 4309 031d 00000000 		.4byte	0
 4310              	.LLST27:
 4311 0321 00000000 		.4byte	.LVL36
 4312 0325 07000000 		.4byte	.LVL37-1
 4313 0329 0100     		.2byte	0x1
 4314 032b 52       		.byte	0x52
 4315 032c 07000000 		.4byte	.LVL37-1
 4316 0330 0E000000 		.4byte	.LFE265
 4317 0334 0400     		.2byte	0x4
 4318 0336 F3       		.byte	0xf3
 4319 0337 01       		.uleb128 0x1
 4320 0338 52       		.byte	0x52
 4321 0339 9F       		.byte	0x9f
 4322 033a 00000000 		.4byte	0
 4323 033e 00000000 		.4byte	0
 4324              	.LLST28:
 4325 0342 00000000 		.4byte	.LVL38
 4326 0346 0E000000 		.4byte	.LVL40
 4327 034a 0100     		.2byte	0x1
 4328 034c 50       		.byte	0x50
 4329 034d 0E000000 		.4byte	.LVL40
 4330 0351 16000000 		.4byte	.LVL42
 4331 0355 0400     		.2byte	0x4
 4332 0357 F3       		.byte	0xf3
ARM GAS  /var/folders/sv/kgmgr77579zbf78p2zlhkdfr0000gn/T//ccSmwAAq.s 			page 77


 4333 0358 01       		.uleb128 0x1
 4334 0359 50       		.byte	0x50
 4335 035a 9F       		.byte	0x9f
 4336 035b 16000000 		.4byte	.LVL42
 4337 035f 1D000000 		.4byte	.LVL43-1
 4338 0363 0100     		.2byte	0x1
 4339 0365 50       		.byte	0x50
 4340 0366 1D000000 		.4byte	.LVL43-1
 4341 036a 2A000000 		.4byte	.LFE266
 4342 036e 0100     		.2byte	0x1
 4343 0370 54       		.byte	0x54
 4344 0371 00000000 		.4byte	0
 4345 0375 00000000 		.4byte	0
 4346              	.LLST29:
 4347 0379 0E000000 		.4byte	.LVL40
 4348 037d 16000000 		.4byte	.LVL42
 4349 0381 0100     		.2byte	0x1
 4350 0383 50       		.byte	0x50
 4351 0384 1E000000 		.4byte	.LVL43
 4352 0388 2A000000 		.4byte	.LFE266
 4353 038c 0100     		.2byte	0x1
 4354 038e 50       		.byte	0x50
 4355 038f 00000000 		.4byte	0
 4356 0393 00000000 		.4byte	0
 4357              	.LLST30:
 4358 0397 00000000 		.4byte	.LVL38
 4359 039b 06000000 		.4byte	.LVL39
 4360 039f 0300     		.2byte	0x3
 4361 03a1 08       		.byte	0x8
 4362 03a2 20       		.byte	0x20
 4363 03a3 9F       		.byte	0x9f
 4364 03a4 00000000 		.4byte	0
 4365 03a8 00000000 		.4byte	0
 4366              	.LLST31:
 4367 03ac 0E000000 		.4byte	.LVL40
 4368 03b0 14000000 		.4byte	.LVL41
 4369 03b4 0200     		.2byte	0x2
 4370 03b6 30       		.byte	0x30
 4371 03b7 9F       		.byte	0x9f
 4372 03b8 22000000 		.4byte	.LVL44
 4373 03bc 28000000 		.4byte	.LVL45
 4374 03c0 0200     		.2byte	0x2
 4375 03c2 30       		.byte	0x30
 4376 03c3 9F       		.byte	0x9f
 4377 03c4 00000000 		.4byte	0
 4378 03c8 00000000 		.4byte	0
 4379              	.LLST32:
 4380 03cc 00000000 		.4byte	.LVL46
 4381 03d0 08000000 		.4byte	.LVL47
 4382 03d4 0100     		.2byte	0x1
 4383 03d6 50       		.byte	0x50
 4384 03d7 08000000 		.4byte	.LVL47
 4385 03db 0A000000 		.4byte	.LVL48
 4386 03df 0400     		.2byte	0x4
 4387 03e1 F3       		.byte	0xf3
 4388 03e2 01       		.uleb128 0x1
 4389 03e3 50       		.byte	0x50
ARM GAS  /var/folders/sv/kgmgr77579zbf78p2zlhkdfr0000gn/T//ccSmwAAq.s 			page 78


 4390 03e4 9F       		.byte	0x9f
 4391 03e5 0A000000 		.4byte	.LVL48
 4392 03e9 11000000 		.4byte	.LVL49-1
 4393 03ed 0100     		.2byte	0x1
 4394 03ef 50       		.byte	0x50
 4395 03f0 11000000 		.4byte	.LVL49-1
 4396 03f4 18000000 		.4byte	.LFE267
 4397 03f8 0100     		.2byte	0x1
 4398 03fa 54       		.byte	0x54
 4399 03fb 00000000 		.4byte	0
 4400 03ff 00000000 		.4byte	0
 4401              		.section	.debug_aranges,"",%progbits
 4402 0000 74000000 		.4byte	0x74
 4403 0004 0200     		.2byte	0x2
 4404 0006 00000000 		.4byte	.Ldebug_info0
 4405 000a 04       		.byte	0x4
 4406 000b 00       		.byte	0
 4407 000c 0000     		.2byte	0
 4408 000e 0000     		.2byte	0
 4409 0010 00000000 		.4byte	.LFB256
 4410 0014 04000000 		.4byte	.LFE256-.LFB256
 4411 0018 00000000 		.4byte	.LFB257
 4412 001c 0E000000 		.4byte	.LFE257-.LFB257
 4413 0020 00000000 		.4byte	.LFB258
 4414 0024 1C000000 		.4byte	.LFE258-.LFB258
 4415 0028 00000000 		.4byte	.LFB259
 4416 002c 1E000000 		.4byte	.LFE259-.LFB259
 4417 0030 00000000 		.4byte	.LFB260
 4418 0034 1A000000 		.4byte	.LFE260-.LFB260
 4419 0038 00000000 		.4byte	.LFB261
 4420 003c 0E000000 		.4byte	.LFE261-.LFB261
 4421 0040 00000000 		.4byte	.LFB262
 4422 0044 2A000000 		.4byte	.LFE262-.LFB262
 4423 0048 00000000 		.4byte	.LFB263
 4424 004c 18000000 		.4byte	.LFE263-.LFB263
 4425 0050 00000000 		.4byte	.LFB264
 4426 0054 1A000000 		.4byte	.LFE264-.LFB264
 4427 0058 00000000 		.4byte	.LFB265
 4428 005c 0E000000 		.4byte	.LFE265-.LFB265
 4429 0060 00000000 		.4byte	.LFB266
 4430 0064 2A000000 		.4byte	.LFE266-.LFB266
 4431 0068 00000000 		.4byte	.LFB267
 4432 006c 18000000 		.4byte	.LFE267-.LFB267
 4433 0070 00000000 		.4byte	0
 4434 0074 00000000 		.4byte	0
 4435              		.section	.debug_ranges,"",%progbits
 4436              	.Ldebug_ranges0:
 4437 0000 02000000 		.4byte	.LBB102
 4438 0004 04000000 		.4byte	.LBE102
 4439 0008 06000000 		.4byte	.LBB111
 4440 000c 0A000000 		.4byte	.LBE111
 4441 0010 00000000 		.4byte	0
 4442 0014 00000000 		.4byte	0
 4443 0018 02000000 		.4byte	.LBB118
 4444 001c 04000000 		.4byte	.LBE118
 4445 0020 06000000 		.4byte	.LBB127
 4446 0024 0A000000 		.4byte	.LBE127
ARM GAS  /var/folders/sv/kgmgr77579zbf78p2zlhkdfr0000gn/T//ccSmwAAq.s 			page 79


 4447 0028 00000000 		.4byte	0
 4448 002c 00000000 		.4byte	0
 4449 0030 02000000 		.4byte	.LBB134
 4450 0034 04000000 		.4byte	.LBE134
 4451 0038 06000000 		.4byte	.LBB143
 4452 003c 0A000000 		.4byte	.LBE143
 4453 0040 00000000 		.4byte	0
 4454 0044 00000000 		.4byte	0
 4455 0048 0E000000 		.4byte	.LBB155
 4456 004c 14000000 		.4byte	.LBE155
 4457 0050 22000000 		.4byte	.LBB166
 4458 0054 28000000 		.4byte	.LBE166
 4459 0058 00000000 		.4byte	0
 4460 005c 00000000 		.4byte	0
 4461 0060 02000000 		.4byte	.LBB168
 4462 0064 04000000 		.4byte	.LBE168
 4463 0068 06000000 		.4byte	.LBB177
 4464 006c 0A000000 		.4byte	.LBE177
 4465 0070 00000000 		.4byte	0
 4466 0074 00000000 		.4byte	0
 4467 0078 0E000000 		.4byte	.LBB189
 4468 007c 14000000 		.4byte	.LBE189
 4469 0080 22000000 		.4byte	.LBB200
 4470 0084 28000000 		.4byte	.LBE200
 4471 0088 00000000 		.4byte	0
 4472 008c 00000000 		.4byte	0
 4473 0090 00000000 		.4byte	.LFB256
 4474 0094 04000000 		.4byte	.LFE256
 4475 0098 00000000 		.4byte	.LFB257
 4476 009c 0E000000 		.4byte	.LFE257
 4477 00a0 00000000 		.4byte	.LFB258
 4478 00a4 1C000000 		.4byte	.LFE258
 4479 00a8 00000000 		.4byte	.LFB259
 4480 00ac 1E000000 		.4byte	.LFE259
 4481 00b0 00000000 		.4byte	.LFB260
 4482 00b4 1A000000 		.4byte	.LFE260
 4483 00b8 00000000 		.4byte	.LFB261
 4484 00bc 0E000000 		.4byte	.LFE261
 4485 00c0 00000000 		.4byte	.LFB262
 4486 00c4 2A000000 		.4byte	.LFE262
 4487 00c8 00000000 		.4byte	.LFB263
 4488 00cc 18000000 		.4byte	.LFE263
 4489 00d0 00000000 		.4byte	.LFB264
 4490 00d4 1A000000 		.4byte	.LFE264
 4491 00d8 00000000 		.4byte	.LFB265
 4492 00dc 0E000000 		.4byte	.LFE265
 4493 00e0 00000000 		.4byte	.LFB266
 4494 00e4 2A000000 		.4byte	.LFE266
 4495 00e8 00000000 		.4byte	.LFB267
 4496 00ec 18000000 		.4byte	.LFE267
 4497 00f0 00000000 		.4byte	0
 4498 00f4 00000000 		.4byte	0
 4499              		.section	.debug_line,"",%progbits
 4500              	.Ldebug_line0:
 4501 0000 0F050000 		.section	.debug_str,"MS",%progbits,1
 4501      02005603 
 4501      00000201 
ARM GAS  /var/folders/sv/kgmgr77579zbf78p2zlhkdfr0000gn/T//ccSmwAAq.s 			page 80


 4501      FB0E0D00 
 4501      01010101 
 4502              	.LASF182:
 4503 0000 75617274 		.ascii	"uart_lld_start_receive\000"
 4503      5F6C6C64 
 4503      5F737461 
 4503      72745F72 
 4503      65636569 
 4504              	.LASF141:
 4505 0017 646D6172 		.ascii	"dmarx\000"
 4505      7800
 4506              	.LASF56:
 4507 001d 72656164 		.ascii	"ready_list_t\000"
 4507      795F6C69 
 4507      73745F74 
 4507      00
 4508              	.LASF86:
 4509 002a 4D304152 		.ascii	"M0AR\000"
 4509      00
 4510              	.LASF2:
 4511 002f 73697A65 		.ascii	"size_t\000"
 4511      5F7400
 4512              	.LASF150:
 4513 0036 72786368 		.ascii	"rxchar_cb\000"
 4513      61725F63 
 4513      6200
 4514              	.LASF97:
 4515 0040 7264796D 		.ascii	"rdymsg\000"
 4515      736700
 4516              	.LASF19:
 4517 0047 75696E74 		.ascii	"uint64_t\000"
 4517      36345F74 
 4517      00
 4518              	.LASF3:
 4519 0050 5F5F7569 		.ascii	"__uint8_t\000"
 4519      6E74385F 
 4519      7400
 4520              	.LASF162:
 4521 005a 75617274 		.ascii	"uartObjectInit\000"
 4521      4F626A65 
 4521      6374496E 
 4521      697400
 4522              	.LASF94:
 4523 0069 706F7274 		.ascii	"port_intctx\000"
 4523      5F696E74 
 4523      63747800 
 4524              	.LASF81:
 4525 0075 76746C69 		.ascii	"vtlist\000"
 4525      737400
 4526              	.LASF143:
 4527 007c 72786275 		.ascii	"rxbuf\000"
 4527      6600
 4528              	.LASF154:
 4529 0082 706F7274 		.ascii	"port_lock\000"
 4529      5F6C6F63 
 4529      6B00
 4530              	.LASF14:
ARM GAS  /var/folders/sv/kgmgr77579zbf78p2zlhkdfr0000gn/T//ccSmwAAq.s 			page 81


 4531 008c 6C6F6E67 		.ascii	"long long unsigned int\000"
 4531      206C6F6E 
 4531      6720756E 
 4531      7369676E 
 4531      65642069 
 4532              	.LASF119:
 4533 00a3 76656374 		.ascii	"vector\000"
 4533      6F7200
 4534              	.LASF82:
 4535 00aa 6D61696E 		.ascii	"mainthread\000"
 4535      74687265 
 4535      616400
 4536              	.LASF72:
 4537 00b5 76697274 		.ascii	"virtual_timers_list_t\000"
 4537      75616C5F 
 4537      74696D65 
 4537      72735F6C 
 4537      6973745F 
 4538              	.LASF153:
 4539 00cb 55415254 		.ascii	"UARTConfig\000"
 4539      436F6E66 
 4539      696700
 4540              	.LASF176:
 4541 00d6 49544D5F 		.ascii	"ITM_RxBuffer\000"
 4541      52784275 
 4541      66666572 
 4541      00
 4542              	.LASF55:
 4543 00e3 63685F74 		.ascii	"ch_threads_queue\000"
 4543      68726561 
 4543      64735F71 
 4543      75657565 
 4543      00
 4544              	.LASF33:
 4545 00f4 705F7072 		.ascii	"p_prio\000"
 4545      696F00
 4546              	.LASF136:
 4547 00fb 74787374 		.ascii	"txstate\000"
 4547      61746500 
 4548              	.LASF183:
 4549 0103 75617274 		.ascii	"uart_lld_stop_receive\000"
 4549      5F6C6C64 
 4549      5F73746F 
 4549      705F7265 
 4549      63656976 
 4550              	.LASF12:
 4551 0119 6C6F6E67 		.ascii	"long long int\000"
 4551      206C6F6E 
 4551      6720696E 
 4551      7400
 4552              	.LASF1:
 4553 0127 7369676E 		.ascii	"signed char\000"
 4553      65642063 
 4553      68617200 
 4554              	.LASF144:
 4555 0133 75617274 		.ascii	"uartcb_t\000"
 4555      63625F74 
ARM GAS  /var/folders/sv/kgmgr77579zbf78p2zlhkdfr0000gn/T//ccSmwAAq.s 			page 82


 4555      00
 4556              	.LASF161:
 4557 013c 75617274 		.ascii	"uartInit\000"
 4557      496E6974 
 4557      00
 4558              	.LASF49:
 4559 0145 705F6D70 		.ascii	"p_mpool\000"
 4559      6F6F6C00 
 4560              	.LASF137:
 4561 014d 72787374 		.ascii	"rxstate\000"
 4561      61746500 
 4562              	.LASF108:
 4563 0155 6D5F7175 		.ascii	"m_queue\000"
 4563      65756500 
 4564              	.LASF155:
 4565 015d 706F7274 		.ascii	"port_unlock\000"
 4565      5F756E6C 
 4565      6F636B00 
 4566              	.LASF24:
 4567 0169 74736C69 		.ascii	"tslices_t\000"
 4567      6365735F 
 4567      7400
 4568              	.LASF135:
 4569 0173 73746174 		.ascii	"state\000"
 4569      6500
 4570              	.LASF79:
 4571 0179 63685F73 		.ascii	"ch_system\000"
 4571      79737465 
 4571      6D00
 4572              	.LASF9:
 4573 0183 6C6F6E67 		.ascii	"long int\000"
 4573      20696E74 
 4573      00
 4574              	.LASF175:
 4575 018c 75617274 		.ascii	"uartStopReceiveI\000"
 4575      53746F70 
 4575      52656365 
 4575      69766549 
 4575      00
 4576              	.LASF22:
 4577 019d 74737461 		.ascii	"tstate_t\000"
 4577      74655F74 
 4577      00
 4578              	.LASF174:
 4579 01a6 75617274 		.ascii	"uartStopReceive\000"
 4579      53746F70 
 4579      52656365 
 4579      69766500 
 4580              	.LASF16:
 4581 01b6 75696E74 		.ascii	"uint16_t\000"
 4581      31365F74 
 4581      00
 4582              	.LASF177:
 4583 01bf 75617274 		.ascii	"uart_lld_init\000"
 4583      5F6C6C64 
 4583      5F696E69 
 4583      7400
ARM GAS  /var/folders/sv/kgmgr77579zbf78p2zlhkdfr0000gn/T//ccSmwAAq.s 			page 83


 4584              	.LASF167:
 4585 01cd 75617274 		.ascii	"uartStartSend\000"
 4585      53746172 
 4585      7453656E 
 4585      6400
 4586              	.LASF35:
 4587 01db 705F6E65 		.ascii	"p_newer\000"
 4587      77657200 
 4588              	.LASF105:
 4589 01e3 735F7175 		.ascii	"s_queue\000"
 4589      65756500 
 4590              	.LASF132:
 4591 01eb 75617274 		.ascii	"uartrxstate_t\000"
 4591      72787374 
 4591      6174655F 
 4591      7400
 4592              	.LASF142:
 4593 01f9 646D6174 		.ascii	"dmatx\000"
 4593      7800
 4594              	.LASF134:
 4595 01ff 55415254 		.ascii	"UARTDriver\000"
 4595      44726976 
 4595      657200
 4596              	.LASF61:
 4597 020a 725F6E65 		.ascii	"r_newer\000"
 4597      77657200 
 4598              	.LASF68:
 4599 0212 76745F70 		.ascii	"vt_prev\000"
 4599      72657600 
 4600              	.LASF160:
 4601 021a 6F73616C 		.ascii	"osalSysLock\000"
 4601      5379734C 
 4601      6F636B00 
 4602              	.LASF112:
 4603 0226 6D757465 		.ascii	"mutex_t\000"
 4603      785F7400 
 4604              	.LASF187:
 4605 022e 76616C75 		.ascii	"value\000"
 4605      6500
 4606              	.LASF83:
 4607 0234 69646C65 		.ascii	"idle_thread_wa\000"
 4607      5F746872 
 4607      6561645F 
 4607      776100
 4608              	.LASF126:
 4609 0243 55415254 		.ascii	"UART_TX_ACTIVE\000"
 4609      5F54585F 
 4609      41435449 
 4609      564500
 4610              	.LASF185:
 4611 0252 43686962 		.ascii	"ChibiOS_3.0.2/os/hal/src/uart.c\000"
 4611      694F535F 
 4611      332E302E 
 4611      322F6F73 
 4611      2F68616C 
 4612              	.LASF139:
 4613 0272 75736172 		.ascii	"usart\000"
ARM GAS  /var/folders/sv/kgmgr77579zbf78p2zlhkdfr0000gn/T//ccSmwAAq.s 			page 84


 4613      7400
 4614              	.LASF0:
 4615 0278 756E7369 		.ascii	"unsigned int\000"
 4615      676E6564 
 4615      20696E74 
 4615      00
 4616              	.LASF67:
 4617 0285 76745F6E 		.ascii	"vt_next\000"
 4617      65787400 
 4618              	.LASF168:
 4619 028d 74786275 		.ascii	"txbuf\000"
 4619      6600
 4620              	.LASF101:
 4621 0293 77747365 		.ascii	"wtsemp\000"
 4621      6D7000
 4622              	.LASF69:
 4623 029a 76745F64 		.ascii	"vt_delta\000"
 4623      656C7461 
 4623      00
 4624              	.LASF75:
 4625 02a3 73797374 		.ascii	"system_debug_t\000"
 4625      656D5F64 
 4625      65627567 
 4625      5F7400
 4626              	.LASF146:
 4627 02b2 75617274 		.ascii	"uartecb_t\000"
 4627      6563625F 
 4627      7400
 4628              	.LASF117:
 4629 02bc 69736869 		.ascii	"ishift\000"
 4629      667400
 4630              	.LASF106:
 4631 02c3 735F636E 		.ascii	"s_cnt\000"
 4631      7400
 4632              	.LASF93:
 4633 02c9 636F6E74 		.ascii	"context\000"
 4633      65787400 
 4634              	.LASF7:
 4635 02d1 73686F72 		.ascii	"short unsigned int\000"
 4635      7420756E 
 4635      7369676E 
 4635      65642069 
 4635      6E7400
 4636              	.LASF121:
 4637 02e4 55415254 		.ascii	"UART_UNINIT\000"
 4637      5F554E49 
 4637      4E495400 
 4638              	.LASF122:
 4639 02f0 55415254 		.ascii	"UART_STOP\000"
 4639      5F53544F 
 4639      5000
 4640              	.LASF52:
 4641 02fa 63685F74 		.ascii	"ch_thread\000"
 4641      68726561 
 4641      6400
 4642              	.LASF164:
 4643 0304 75617274 		.ascii	"uartp\000"
ARM GAS  /var/folders/sv/kgmgr77579zbf78p2zlhkdfr0000gn/T//ccSmwAAq.s 			page 85


 4643      7000
 4644              	.LASF26:
 4645 030a 6D73675F 		.ascii	"msg_t\000"
 4645      7400
 4646              	.LASF78:
 4647 0310 63685F73 		.ascii	"ch_system_t\000"
 4647      79737465 
 4647      6D5F7400 
 4648              	.LASF90:
 4649 031c 55534152 		.ascii	"USART_TypeDef\000"
 4649      545F5479 
 4649      70654465 
 4649      6600
 4650              	.LASF98:
 4651 032a 65786974 		.ascii	"exitcode\000"
 4651      636F6465 
 4651      00
 4652              	.LASF21:
 4653 0333 746D6F64 		.ascii	"tmode_t\000"
 4653      655F7400 
 4654              	.LASF148:
 4655 033b 7478656E 		.ascii	"txend2_cb\000"
 4655      64325F63 
 4655      6200
 4656              	.LASF57:
 4657 0345 63685F72 		.ascii	"ch_ready_list\000"
 4657      65616479 
 4657      5F6C6973 
 4657      7400
 4658              	.LASF27:
 4659 0353 6576656E 		.ascii	"eventmask_t\000"
 4659      746D6173 
 4659      6B5F7400 
 4660              	.LASF8:
 4661 035f 5F5F696E 		.ascii	"__int32_t\000"
 4661      7433325F 
 4661      7400
 4662              	.LASF92:
 4663 0369 73746B61 		.ascii	"stkalign_t\000"
 4663      6C69676E 
 4663      5F7400
 4664              	.LASF123:
 4665 0374 55415254 		.ascii	"UART_READY\000"
 4665      5F524541 
 4665      445900
 4666              	.LASF171:
 4667 037f 75617274 		.ascii	"uartStopSendI\000"
 4667      53746F70 
 4667      53656E64 
 4667      4900
 4668              	.LASF131:
 4669 038d 55415254 		.ascii	"UART_RX_COMPLETE\000"
 4669      5F52585F 
 4669      434F4D50 
 4669      4C455445 
 4669      00
 4670              	.LASF130:
ARM GAS  /var/folders/sv/kgmgr77579zbf78p2zlhkdfr0000gn/T//ccSmwAAq.s 			page 86


 4671 039e 55415254 		.ascii	"UART_RX_ACTIVE\000"
 4671      5F52585F 
 4671      41435449 
 4671      564500
 4672              	.LASF50:
 4673 03ad 74687265 		.ascii	"thread_reference_t\000"
 4673      61645F72 
 4673      65666572 
 4673      656E6365 
 4673      5F7400
 4674              	.LASF73:
 4675 03c0 63685F76 		.ascii	"ch_virtual_timers_list\000"
 4675      69727475 
 4675      616C5F74 
 4675      696D6572 
 4675      735F6C69 
 4676              	.LASF100:
 4677 03d7 77747472 		.ascii	"wttrp\000"
 4677      7000
 4678              	.LASF170:
 4679 03dd 75617274 		.ascii	"uartStopSend\000"
 4679      53746F70 
 4679      53656E64 
 4679      00
 4680              	.LASF28:
 4681 03ea 636E745F 		.ascii	"cnt_t\000"
 4681      7400
 4682              	.LASF151:
 4683 03f0 72786572 		.ascii	"rxerr_cb\000"
 4683      725F6362 
 4683      00
 4684              	.LASF96:
 4685 03f9 746D5F63 		.ascii	"tm_calibration_t\000"
 4685      616C6962 
 4685      72617469 
 4685      6F6E5F74 
 4685      00
 4686              	.LASF36:
 4687 040a 705F6F6C 		.ascii	"p_older\000"
 4687      64657200 
 4688              	.LASF60:
 4689 0412 725F6374 		.ascii	"r_ctx\000"
 4689      7800
 4690              	.LASF133:
 4691 0418 75617274 		.ascii	"uartflags_t\000"
 4691      666C6167 
 4691      735F7400 
 4692              	.LASF163:
 4693 0424 75617274 		.ascii	"uartStart\000"
 4693      53746172 
 4693      7400
 4694              	.LASF149:
 4695 042e 7278656E 		.ascii	"rxend_cb\000"
 4695      645F6362 
 4695      00
 4696              	.LASF70:
 4697 0437 76745F66 		.ascii	"vt_func\000"
ARM GAS  /var/folders/sv/kgmgr77579zbf78p2zlhkdfr0000gn/T//ccSmwAAq.s 			page 87


 4697      756E6300 
 4698              	.LASF128:
 4699 043f 75617274 		.ascii	"uarttxstate_t\000"
 4699      74787374 
 4699      6174655F 
 4699      7400
 4700              	.LASF63:
 4701 044d 725F6375 		.ascii	"r_current\000"
 4701      7272656E 
 4701      7400
 4702              	.LASF62:
 4703 0457 725F6F6C 		.ascii	"r_older\000"
 4703      64657200 
 4704              	.LASF89:
 4705 045f 47545052 		.ascii	"GTPR\000"
 4705      00
 4706              	.LASF13:
 4707 0464 5F5F7569 		.ascii	"__uint64_t\000"
 4707      6E743634 
 4707      5F7400
 4708              	.LASF113:
 4709 046f 666C6F61 		.ascii	"float\000"
 4709      7400
 4710              	.LASF23:
 4711 0475 74726566 		.ascii	"trefs_t\000"
 4711      735F7400 
 4712              	.LASF65:
 4713 047d 76697274 		.ascii	"virtual_timer_t\000"
 4713      75616C5F 
 4713      74696D65 
 4713      725F7400 
 4714              	.LASF32:
 4715 048d 705F7072 		.ascii	"p_prev\000"
 4715      657600
 4716              	.LASF120:
 4717 0494 73746D33 		.ascii	"stm32_dma_stream_t\000"
 4717      325F646D 
 4717      615F7374 
 4717      7265616D 
 4717      5F7400
 4718              	.LASF179:
 4719 04a7 75617274 		.ascii	"uart_lld_stop\000"
 4719      5F6C6C64 
 4719      5F73746F 
 4719      7000
 4720              	.LASF25:
 4721 04b5 74707269 		.ascii	"tprio_t\000"
 4721      6F5F7400 
 4722              	.LASF173:
 4723 04bd 75617274 		.ascii	"uartStartReceiveI\000"
 4723      53746172 
 4723      74526563 
 4723      65697665 
 4723      4900
 4724              	.LASF115:
 4725 04cf 73747265 		.ascii	"stream\000"
 4725      616D00
ARM GAS  /var/folders/sv/kgmgr77579zbf78p2zlhkdfr0000gn/T//ccSmwAAq.s 			page 88


 4726              	.LASF85:
 4727 04d6 4E445452 		.ascii	"NDTR\000"
 4727      00
 4728              	.LASF76:
 4729 04db 63685F73 		.ascii	"ch_system_debug\000"
 4729      79737465 
 4729      6D5F6465 
 4729      62756700 
 4730              	.LASF114:
 4731 04eb 5F426F6F 		.ascii	"_Bool\000"
 4731      6C00
 4732              	.LASF17:
 4733 04f1 696E7433 		.ascii	"int32_t\000"
 4733      325F7400 
 4734              	.LASF4:
 4735 04f9 756E7369 		.ascii	"unsigned char\000"
 4735      676E6564 
 4735      20636861 
 4735      7200
 4736              	.LASF181:
 4737 0507 75617274 		.ascii	"uart_lld_stop_send\000"
 4737      5F6C6C64 
 4737      5F73746F 
 4737      705F7365 
 4737      6E6400
 4738              	.LASF47:
 4739 051a 705F6D74 		.ascii	"p_mtxlist\000"
 4739      786C6973 
 4739      7400
 4740              	.LASF5:
 4741 0524 73686F72 		.ascii	"short int\000"
 4741      7420696E 
 4741      7400
 4742              	.LASF38:
 4743 052e 705F7374 		.ascii	"p_state\000"
 4743      61746500 
 4744              	.LASF41:
 4745 0536 705F7072 		.ascii	"p_preempt\000"
 4745      65656D70 
 4745      7400
 4746              	.LASF59:
 4747 0540 725F7072 		.ascii	"r_prio\000"
 4747      696F00
 4748              	.LASF99:
 4749 0547 77746F62 		.ascii	"wtobjp\000"
 4749      6A7000
 4750              	.LASF103:
 4751 054e 65776D61 		.ascii	"ewmask\000"
 4751      736B00
 4752              	.LASF31:
 4753 0555 705F6E65 		.ascii	"p_next\000"
 4753      787400
 4754              	.LASF124:
 4755 055c 75617274 		.ascii	"uartstate_t\000"
 4755      73746174 
 4755      655F7400 
 4756              	.LASF166:
ARM GAS  /var/folders/sv/kgmgr77579zbf78p2zlhkdfr0000gn/T//ccSmwAAq.s 			page 89


 4757 0568 5F5F6675 		.ascii	"__func__\000"
 4757      6E635F5F 
 4757      00
 4758              	.LASF156:
 4759 0571 63685379 		.ascii	"chSysLock\000"
 4759      734C6F63 
 4759      6B00
 4760              	.LASF159:
 4761 057b 6F73616C 		.ascii	"osalSysUnlock\000"
 4761      53797355 
 4761      6E6C6F63 
 4761      6B00
 4762              	.LASF127:
 4763 0589 55415254 		.ascii	"UART_TX_COMPLETE\000"
 4763      5F54585F 
 4763      434F4D50 
 4763      4C455445 
 4763      00
 4764              	.LASF104:
 4765 059a 63685F73 		.ascii	"ch_semaphore\000"
 4765      656D6170 
 4765      686F7265 
 4765      00
 4766              	.LASF46:
 4767 05a7 705F6570 		.ascii	"p_epending\000"
 4767      656E6469 
 4767      6E6700
 4768              	.LASF116:
 4769 05b2 69666372 		.ascii	"ifcr\000"
 4769      00
 4770              	.LASF147:
 4771 05b7 7478656E 		.ascii	"txend1_cb\000"
 4771      64315F63 
 4771      6200
 4772              	.LASF91:
 4773 05c1 72656761 		.ascii	"regarm_t\000"
 4773      726D5F74 
 4773      00
 4774              	.LASF58:
 4775 05ca 725F7175 		.ascii	"r_queue\000"
 4775      65756500 
 4776              	.LASF74:
 4777 05d2 76745F73 		.ascii	"vt_systime\000"
 4777      79737469 
 4777      6D6500
 4778              	.LASF53:
 4779 05dd 63685F74 		.ascii	"ch_threads_list\000"
 4779      68726561 
 4779      64735F6C 
 4779      69737400 
 4780              	.LASF145:
 4781 05ed 75617274 		.ascii	"uartccb_t\000"
 4781      6363625F 
 4781      7400
 4782              	.LASF165:
 4783 05f7 75617274 		.ascii	"uartStop\000"
 4783      53746F70 
ARM GAS  /var/folders/sv/kgmgr77579zbf78p2zlhkdfr0000gn/T//ccSmwAAq.s 			page 90


 4783      00
 4784              	.LASF11:
 4785 0600 6C6F6E67 		.ascii	"long unsigned int\000"
 4785      20756E73 
 4785      69676E65 
 4785      6420696E 
 4785      7400
 4786              	.LASF178:
 4787 0612 75617274 		.ascii	"uart_lld_start\000"
 4787      5F6C6C64 
 4787      5F737461 
 4787      727400
 4788              	.LASF111:
 4789 0621 63686172 		.ascii	"char\000"
 4789      00
 4790              	.LASF138:
 4791 0626 636F6E66 		.ascii	"config\000"
 4791      696700
 4792              	.LASF129:
 4793 062d 55415254 		.ascii	"UART_RX_IDLE\000"
 4793      5F52585F 
 4793      49444C45 
 4793      00
 4794              	.LASF6:
 4795 063a 5F5F7569 		.ascii	"__uint16_t\000"
 4795      6E743136 
 4795      5F7400
 4796              	.LASF30:
 4797 0645 74687265 		.ascii	"thread_t\000"
 4797      61645F74 
 4797      00
 4798              	.LASF110:
 4799 064e 6D5F6E65 		.ascii	"m_next\000"
 4799      787400
 4800              	.LASF29:
 4801 0655 73797374 		.ascii	"systime_t\000"
 4801      696D655F 
 4801      7400
 4802              	.LASF48:
 4803 065f 705F7265 		.ascii	"p_realprio\000"
 4803      616C7072 
 4803      696F00
 4804              	.LASF64:
 4805 066a 76746675 		.ascii	"vtfunc_t\000"
 4805      6E635F74 
 4805      00
 4806              	.LASF10:
 4807 0673 5F5F7569 		.ascii	"__uint32_t\000"
 4807      6E743332 
 4807      5F7400
 4808              	.LASF157:
 4809 067e 5F5F7365 		.ascii	"__set_BASEPRI\000"
 4809      745F4241 
 4809      53455052 
 4809      4900
 4810              	.LASF125:
 4811 068c 55415254 		.ascii	"UART_TX_IDLE\000"
ARM GAS  /var/folders/sv/kgmgr77579zbf78p2zlhkdfr0000gn/T//ccSmwAAq.s 			page 91


 4811      5F54585F 
 4811      49444C45 
 4811      00
 4812              	.LASF102:
 4813 0699 77746D74 		.ascii	"wtmtxp\000"
 4813      787000
 4814              	.LASF77:
 4815 06a0 70616E69 		.ascii	"panic_msg\000"
 4815      635F6D73 
 4815      6700
 4816              	.LASF95:
 4817 06aa 6F666673 		.ascii	"offset\000"
 4817      657400
 4818              	.LASF88:
 4819 06b1 444D415F 		.ascii	"DMA_Stream_TypeDef\000"
 4819      53747265 
 4819      616D5F54 
 4819      79706544 
 4819      656600
 4820              	.LASF42:
 4821 06c4 705F7469 		.ascii	"p_time\000"
 4821      6D6500
 4822              	.LASF66:
 4823 06cb 63685F76 		.ascii	"ch_virtual_timer\000"
 4823      69727475 
 4823      616C5F74 
 4823      696D6572 
 4823      00
 4824              	.LASF20:
 4825 06dc 7274636E 		.ascii	"rtcnt_t\000"
 4825      745F7400 
 4826              	.LASF44:
 4827 06e4 705F6D73 		.ascii	"p_msgqueue\000"
 4827      67717565 
 4827      756500
 4828              	.LASF87:
 4829 06ef 4D314152 		.ascii	"M1AR\000"
 4829      00
 4830              	.LASF118:
 4831 06f4 73656C66 		.ascii	"selfindex\000"
 4831      696E6465 
 4831      7800
 4832              	.LASF71:
 4833 06fe 76745F70 		.ascii	"vt_par\000"
 4833      617200
 4834              	.LASF54:
 4835 0705 74687265 		.ascii	"threads_queue_t\000"
 4835      6164735F 
 4835      71756575 
 4835      655F7400 
 4836              	.LASF37:
 4837 0715 705F6E61 		.ascii	"p_name\000"
 4837      6D6500
 4838              	.LASF40:
 4839 071c 705F7265 		.ascii	"p_refs\000"
 4839      667300
 4840              	.LASF169:
ARM GAS  /var/folders/sv/kgmgr77579zbf78p2zlhkdfr0000gn/T//ccSmwAAq.s 			page 92


 4841 0723 75617274 		.ascii	"uartStartSendI\000"
 4841      53746172 
 4841      7453656E 
 4841      644900
 4842              	.LASF184:
 4843 0732 474E5520 		.ascii	"GNU C99 5.4.1 20160919 (release) [ARM/embedded-5-br"
 4843      43393920 
 4843      352E342E 
 4843      31203230 
 4843      31363039 
 4844 0765 616E6368 		.ascii	"anch revision 240496] -mcpu=cortex-m4 -mfloat-abi=h"
 4844      20726576 
 4844      6973696F 
 4844      6E203234 
 4844      30343936 
 4845 0798 61726420 		.ascii	"ard -mfpu=fpv4-sp-d16 -mno-thumb-interwork -mthumb "
 4845      2D6D6670 
 4845      753D6670 
 4845      76342D73 
 4845      702D6431 
 4846 07cb 2D676764 		.ascii	"-ggdb -O2 -std=gnu99 -fomit-frame-pointer -falign-f"
 4846      62202D4F 
 4846      32202D73 
 4846      74643D67 
 4846      6E753939 
 4847 07fe 756E6374 		.ascii	"unctions=16 -ffunction-sections -fdata-sections -fn"
 4847      696F6E73 
 4847      3D313620 
 4847      2D666675 
 4847      6E637469 
 4848 0831 6F2D636F 		.ascii	"o-common -fsingle-precision-constant\000"
 4848      6D6D6F6E 
 4848      202D6673 
 4848      696E676C 
 4848      652D7072 
 4849              	.LASF80:
 4850 0856 726C6973 		.ascii	"rlist\000"
 4850      7400
 4851              	.LASF15:
 4852 085c 75696E74 		.ascii	"uint8_t\000"
 4852      385F7400 
 4853              	.LASF186:
 4854 0864 2F557365 		.ascii	"/Users/moslin/Documents/Project/bldc-master\000"
 4854      72732F6D 
 4854      6F736C69 
 4854      6E2F446F 
 4854      63756D65 
 4855              	.LASF84:
 4856 0890 73697A65 		.ascii	"sizetype\000"
 4856      74797065 
 4856      00
 4857              	.LASF140:
 4858 0899 646D616D 		.ascii	"dmamode\000"
 4858      6F646500 
 4859              	.LASF107:
 4860 08a1 63685F6D 		.ascii	"ch_mutex\000"
 4860      75746578 
ARM GAS  /var/folders/sv/kgmgr77579zbf78p2zlhkdfr0000gn/T//ccSmwAAq.s 			page 93


 4860      00
 4861              	.LASF152:
 4862 08aa 73706565 		.ascii	"speed\000"
 4862      6400
 4863              	.LASF51:
 4864 08b0 74687265 		.ascii	"threads_list_t\000"
 4864      6164735F 
 4864      6C697374 
 4864      5F7400
 4865              	.LASF39:
 4866 08bf 705F666C 		.ascii	"p_flags\000"
 4866      61677300 
 4867              	.LASF180:
 4868 08c7 75617274 		.ascii	"uart_lld_start_send\000"
 4868      5F6C6C64 
 4868      5F737461 
 4868      72745F73 
 4868      656E6400 
 4869              	.LASF158:
 4870 08db 63685379 		.ascii	"chSysUnlock\000"
 4870      73556E6C 
 4870      6F636B00 
 4871              	.LASF45:
 4872 08e7 705F6D73 		.ascii	"p_msg\000"
 4872      6700
 4873              	.LASF172:
 4874 08ed 75617274 		.ascii	"uartStartReceive\000"
 4874      53746172 
 4874      74526563 
 4874      65697665 
 4874      00
 4875              	.LASF109:
 4876 08fe 6D5F6F77 		.ascii	"m_owner\000"
 4876      6E657200 
 4877              	.LASF18:
 4878 0906 75696E74 		.ascii	"uint32_t\000"
 4878      33325F74 
 4878      00
 4879              	.LASF34:
 4880 090f 705F6374 		.ascii	"p_ctx\000"
 4880      7800
 4881              	.LASF43:
 4882 0915 705F7761 		.ascii	"p_waiting\000"
 4882      6974696E 
 4882      6700
 4883              		.ident	"GCC: (GNU Tools for ARM Embedded Processors) 5.4.1 20160919 (release) [ARM/embedded-5-bran
ARM GAS  /var/folders/sv/kgmgr77579zbf78p2zlhkdfr0000gn/T//ccSmwAAq.s 			page 94


DEFINED SYMBOLS
                            *ABS*:0000000000000000 uart.c
/var/folders/sv/kgmgr77579zbf78p2zlhkdfr0000gn/T//ccSmwAAq.s:22     .text.uartInit:0000000000000000 $t
/var/folders/sv/kgmgr77579zbf78p2zlhkdfr0000gn/T//ccSmwAAq.s:28     .text.uartInit:0000000000000000 uartInit
/var/folders/sv/kgmgr77579zbf78p2zlhkdfr0000gn/T//ccSmwAAq.s:43     .text.uartObjectInit:0000000000000000 $t
/var/folders/sv/kgmgr77579zbf78p2zlhkdfr0000gn/T//ccSmwAAq.s:49     .text.uartObjectInit:0000000000000000 uartObjectInit
/var/folders/sv/kgmgr77579zbf78p2zlhkdfr0000gn/T//ccSmwAAq.s:73     .text.uartStart:0000000000000000 $t
/var/folders/sv/kgmgr77579zbf78p2zlhkdfr0000gn/T//ccSmwAAq.s:79     .text.uartStart:0000000000000000 uartStart
/var/folders/sv/kgmgr77579zbf78p2zlhkdfr0000gn/T//ccSmwAAq.s:158    .text.uartStop:0000000000000000 $t
/var/folders/sv/kgmgr77579zbf78p2zlhkdfr0000gn/T//ccSmwAAq.s:164    .text.uartStop:0000000000000000 uartStop
/var/folders/sv/kgmgr77579zbf78p2zlhkdfr0000gn/T//ccSmwAAq.s:245    .text.uartStartSend:0000000000000000 $t
/var/folders/sv/kgmgr77579zbf78p2zlhkdfr0000gn/T//ccSmwAAq.s:251    .text.uartStartSend:0000000000000000 uartStartSend
/var/folders/sv/kgmgr77579zbf78p2zlhkdfr0000gn/T//ccSmwAAq.s:327    .text.uartStartSendI:0000000000000000 $t
/var/folders/sv/kgmgr77579zbf78p2zlhkdfr0000gn/T//ccSmwAAq.s:333    .text.uartStartSendI:0000000000000000 uartStartSendI
/var/folders/sv/kgmgr77579zbf78p2zlhkdfr0000gn/T//ccSmwAAq.s:357    .text.uartStopSend:0000000000000000 $t
/var/folders/sv/kgmgr77579zbf78p2zlhkdfr0000gn/T//ccSmwAAq.s:363    .text.uartStopSend:0000000000000000 uartStopSend
/var/folders/sv/kgmgr77579zbf78p2zlhkdfr0000gn/T//ccSmwAAq.s:461    .text.uartStopSendI:0000000000000000 $t
/var/folders/sv/kgmgr77579zbf78p2zlhkdfr0000gn/T//ccSmwAAq.s:467    .text.uartStopSendI:0000000000000000 uartStopSendI
/var/folders/sv/kgmgr77579zbf78p2zlhkdfr0000gn/T//ccSmwAAq.s:504    .text.uartStartReceive:0000000000000000 $t
/var/folders/sv/kgmgr77579zbf78p2zlhkdfr0000gn/T//ccSmwAAq.s:510    .text.uartStartReceive:0000000000000000 uartStartReceive
/var/folders/sv/kgmgr77579zbf78p2zlhkdfr0000gn/T//ccSmwAAq.s:586    .text.uartStartReceiveI:0000000000000000 $t
/var/folders/sv/kgmgr77579zbf78p2zlhkdfr0000gn/T//ccSmwAAq.s:592    .text.uartStartReceiveI:0000000000000000 uartStartReceiveI
/var/folders/sv/kgmgr77579zbf78p2zlhkdfr0000gn/T//ccSmwAAq.s:616    .text.uartStopReceive:0000000000000000 $t
/var/folders/sv/kgmgr77579zbf78p2zlhkdfr0000gn/T//ccSmwAAq.s:622    .text.uartStopReceive:0000000000000000 uartStopReceive
/var/folders/sv/kgmgr77579zbf78p2zlhkdfr0000gn/T//ccSmwAAq.s:720    .text.uartStopReceiveI:0000000000000000 $t
/var/folders/sv/kgmgr77579zbf78p2zlhkdfr0000gn/T//ccSmwAAq.s:726    .text.uartStopReceiveI:0000000000000000 uartStopReceiveI
                     .debug_frame:0000000000000010 $d

UNDEFINED SYMBOLS
uart_lld_init
uart_lld_start
uart_lld_stop
uart_lld_start_send
uart_lld_stop_send
uart_lld_start_receive
uart_lld_stop_receive
