ARM GAS  /var/folders/sv/kgmgr77579zbf78p2zlhkdfr0000gn/T//ccL7oYzt.s 			page 1


   1              		.syntax unified
   2              		.cpu cortex-m4
   3              		.eabi_attribute 27, 1
   4              		.eabi_attribute 28, 1
   5              		.fpu fpv4-sp-d16
   6              		.eabi_attribute 20, 1
   7              		.eabi_attribute 21, 1
   8              		.eabi_attribute 23, 3
   9              		.eabi_attribute 24, 1
  10              		.eabi_attribute 25, 1
  11              		.eabi_attribute 26, 1
  12              		.eabi_attribute 30, 2
  13              		.eabi_attribute 34, 1
  14              		.eabi_attribute 18, 4
  15              		.thumb
  16              		.syntax unified
  17              		.file	"usb.c"
  18              		.text
  19              	.Ltext0:
  20              		.cfi_sections	.debug_frame
  21              		.section	.text.usbInit,"ax",%progbits
  22              		.align	2
  23              		.p2align 4,,15
  24              		.global	usbInit
  25              		.thumb
  26              		.thumb_func
  27              		.type	usbInit, %function
  28              	usbInit:
  29              	.LFB259:
  30              		.file 1 "ChibiOS_3.0.2/os/hal/src/usb.c"
  31              		.loc 1 254 0
  32              		.cfi_startproc
  33              		@ args = 0, pretend = 0, frame = 0
  34              		@ frame_needed = 0, uses_anonymous_args = 0
  35              		@ link register save eliminated.
  36              		.loc 1 256 0
  37 0000 FFF7FEBF 		b	usb_lld_init
  38              	.LVL0:
  39              		.cfi_endproc
  40              	.LFE259:
  41              		.size	usbInit, .-usbInit
  42              		.section	.text.usbObjectInit,"ax",%progbits
  43              		.align	2
  44              		.p2align 4,,15
  45              		.global	usbObjectInit
  46              		.thumb
  47              		.thumb_func
  48              		.type	usbObjectInit, %function
  49              	usbObjectInit:
  50              	.LFB260:
  51              		.loc 1 266 0
  52              		.cfi_startproc
  53              		@ args = 0, pretend = 0, frame = 0
  54              		@ frame_needed = 0, uses_anonymous_args = 0
  55              		@ link register save eliminated.
  56              	.LVL1:
  57              		.loc 1 270 0
ARM GAS  /var/folders/sv/kgmgr77579zbf78p2zlhkdfr0000gn/T//ccL7oYzt.s 			page 2


  58 0000 0023     		movs	r3, #0
  59              		.loc 1 269 0
  60 0002 0122     		movs	r2, #1
  61 0004 0270     		strb	r2, [r0]
  62              		.loc 1 270 0
  63 0006 4360     		str	r3, [r0, #4]
  64              	.LVL2:
  65              		.loc 1 272 0
  66 0008 C361     		str	r3, [r0, #28]
  67              		.loc 1 273 0
  68 000a 8362     		str	r3, [r0, #40]
  69              	.LVL3:
  70              		.loc 1 272 0
  71 000c 0362     		str	r3, [r0, #32]
  72              		.loc 1 273 0
  73 000e C362     		str	r3, [r0, #44]
  74              	.LVL4:
  75              		.loc 1 272 0
  76 0010 4362     		str	r3, [r0, #36]
  77              		.loc 1 273 0
  78 0012 0363     		str	r3, [r0, #48]
  79              	.LVL5:
  80              		.loc 1 275 0
  81 0014 0381     		strh	r3, [r0, #8]	@ movhi
  82              		.loc 1 276 0
  83 0016 4381     		strh	r3, [r0, #10]	@ movhi
  84 0018 7047     		bx	lr
  85              		.cfi_endproc
  86              	.LFE260:
  87              		.size	usbObjectInit, .-usbObjectInit
  88 001a 00BF     		.section	.text.usbStart,"ax",%progbits
  89              		.align	2
  90              		.p2align 4,,15
  91              		.global	usbStart
  92              		.thumb
  93              		.thumb_func
  94              		.type	usbStart, %function
  95              	usbStart:
  96              	.LFB261:
  97              		.loc 1 287 0
  98              		.cfi_startproc
  99              		@ args = 0, pretend = 0, frame = 0
 100              		@ frame_needed = 0, uses_anonymous_args = 0
 101              	.LVL6:
 102 0000 38B5     		push	{r3, r4, r5, lr}
 103              		.cfi_def_cfa_offset 16
 104              		.cfi_offset 3, -16
 105              		.cfi_offset 4, -12
 106              		.cfi_offset 5, -8
 107              		.cfi_offset 14, -4
 108              		.loc 1 287 0
 109 0002 0446     		mov	r4, r0
 110              	.LBB212:
 111              	.LBB213:
 112              	.LBB214:
 113              	.LBB215:
 114              	.LBB216:
ARM GAS  /var/folders/sv/kgmgr77579zbf78p2zlhkdfr0000gn/T//ccL7oYzt.s 			page 3


 115              		.file 2 "ChibiOS_3.0.2/os/ext/CMSIS/include/core_cmFunc.h"
 116              		.loc 2 546 0
 117 0004 2023     		movs	r3, #32
 118              		.syntax unified
 119              	@ 546 "ChibiOS_3.0.2/os/ext/CMSIS/include/core_cmFunc.h" 1
 120 0006 83F31188 		MSR basepri, r3
 121              	@ 0 "" 2
 122              	.LVL7:
 123              		.thumb
 124              		.syntax unified
 125              	.LBE216:
 126              	.LBE215:
 127              	.LBE214:
 128              	.LBE213:
 129              	.LBE212:
 130              		.loc 1 297 0
 131 000a 0025     		movs	r5, #0
 132              		.loc 1 295 0
 133 000c 4160     		str	r1, [r0, #4]
 134              	.LVL8:
 135              		.loc 1 297 0
 136 000e C560     		str	r5, [r0, #12]
 137              	.LVL9:
 138 0010 0561     		str	r5, [r0, #16]
 139              	.LVL10:
 140 0012 4561     		str	r5, [r0, #20]
 141              	.LVL11:
 142 0014 8561     		str	r5, [r0, #24]
 143              	.LVL12:
 144              		.loc 1 299 0
 145 0016 FFF7FEFF 		bl	usb_lld_start
 146              	.LVL13:
 147              		.loc 1 300 0
 148 001a 0223     		movs	r3, #2
 149 001c 2370     		strb	r3, [r4]
 150              	.LVL14:
 151              	.LBB217:
 152              	.LBB218:
 153              	.LBB219:
 154              	.LBB220:
 155              	.LBB221:
 156              	.LBB222:
 157              		.loc 2 546 0
 158              		.syntax unified
 159              	@ 546 "ChibiOS_3.0.2/os/ext/CMSIS/include/core_cmFunc.h" 1
 160 001e 85F31188 		MSR basepri, r5
 161              	@ 0 "" 2
 162              	.LVL15:
 163              		.thumb
 164              		.syntax unified
 165 0022 38BD     		pop	{r3, r4, r5, pc}
 166              	.LBE222:
 167              	.LBE221:
 168              	.LBE220:
 169              	.LBE219:
 170              	.LBE218:
 171              	.LBE217:
ARM GAS  /var/folders/sv/kgmgr77579zbf78p2zlhkdfr0000gn/T//ccL7oYzt.s 			page 4


 172              		.cfi_endproc
 173              	.LFE261:
 174              		.size	usbStart, .-usbStart
 175              		.section	.text.usbStop,"ax",%progbits
 176              		.align	2
 177              		.p2align 4,,15
 178              		.global	usbStop
 179              		.thumb
 180              		.thumb_func
 181              		.type	usbStop, %function
 182              	usbStop:
 183              	.LFB262:
 184              		.loc 1 311 0
 185              		.cfi_startproc
 186              		@ args = 0, pretend = 0, frame = 0
 187              		@ frame_needed = 0, uses_anonymous_args = 0
 188              	.LVL16:
 189 0000 10B5     		push	{r4, lr}
 190              		.cfi_def_cfa_offset 8
 191              		.cfi_offset 4, -8
 192              		.cfi_offset 14, -4
 193              	.LBB223:
 194              	.LBB224:
 195              	.LBB225:
 196              	.LBB226:
 197              	.LBB227:
 198              		.loc 2 546 0
 199 0002 2023     		movs	r3, #32
 200              	.LBE227:
 201              	.LBE226:
 202              	.LBE225:
 203              	.LBE224:
 204              	.LBE223:
 205              		.loc 1 311 0
 206 0004 0446     		mov	r4, r0
 207              	.LBB232:
 208              	.LBB231:
 209              	.LBB230:
 210              	.LBB229:
 211              	.LBB228:
 212              		.loc 2 546 0
 213              		.syntax unified
 214              	@ 546 "ChibiOS_3.0.2/os/ext/CMSIS/include/core_cmFunc.h" 1
 215 0006 83F31188 		MSR basepri, r3
 216              	@ 0 "" 2
 217              	.LVL17:
 218              		.thumb
 219              		.syntax unified
 220              	.LBE228:
 221              	.LBE229:
 222              	.LBE230:
 223              	.LBE231:
 224              	.LBE232:
 225              		.loc 1 319 0
 226 000a FFF7FEFF 		bl	usb_lld_stop
 227              	.LVL18:
 228              		.loc 1 320 0
ARM GAS  /var/folders/sv/kgmgr77579zbf78p2zlhkdfr0000gn/T//ccL7oYzt.s 			page 5


 229 000e 0123     		movs	r3, #1
 230 0010 2370     		strb	r3, [r4]
 231              	.LVL19:
 232              	.LBB233:
 233              	.LBB234:
 234              	.LBB235:
 235              	.LBB236:
 236              	.LBB237:
 237              	.LBB238:
 238              		.loc 2 546 0
 239 0012 0023     		movs	r3, #0
 240              		.syntax unified
 241              	@ 546 "ChibiOS_3.0.2/os/ext/CMSIS/include/core_cmFunc.h" 1
 242 0014 83F31188 		MSR basepri, r3
 243              	@ 0 "" 2
 244              	.LVL20:
 245              		.thumb
 246              		.syntax unified
 247 0018 10BD     		pop	{r4, pc}
 248              	.LBE238:
 249              	.LBE237:
 250              	.LBE236:
 251              	.LBE235:
 252              	.LBE234:
 253              	.LBE233:
 254              		.cfi_endproc
 255              	.LFE262:
 256              		.size	usbStop, .-usbStop
 257 001a 00BF     		.section	.text.usbInitEndpointI,"ax",%progbits
 258              		.align	2
 259              		.p2align 4,,15
 260              		.global	usbInitEndpointI
 261              		.thumb
 262              		.thumb_func
 263              		.type	usbInitEndpointI, %function
 264              	usbInitEndpointI:
 265              	.LFB263:
 266              		.loc 1 338 0
 267              		.cfi_startproc
 268              		@ args = 0, pretend = 0, frame = 0
 269              		@ frame_needed = 0, uses_anonymous_args = 0
 270              		@ link register save eliminated.
 271              	.LVL21:
 272              		.loc 1 347 0
 273 0000 5369     		ldr	r3, [r2, #20]
 274              		.loc 1 338 0
 275 0002 10B4     		push	{r4}
 276              		.cfi_def_cfa_offset 4
 277              		.cfi_offset 4, -4
 278              		.loc 1 347 0
 279 0004 2BB1     		cbz	r3, .L8
 280              		.loc 1 348 0
 281 0006 0024     		movs	r4, #0
 282 0008 1C60     		str	r4, [r3]	@ unaligned
 283 000a 5C60     		str	r4, [r3, #4]	@ unaligned
 284 000c 9C60     		str	r4, [r3, #8]	@ unaligned
 285 000e DC60     		str	r4, [r3, #12]	@ unaligned
ARM GAS  /var/folders/sv/kgmgr77579zbf78p2zlhkdfr0000gn/T//ccL7oYzt.s 			page 6


 286 0010 1C61     		str	r4, [r3, #16]	@ unaligned
 287              	.L8:
 288              		.loc 1 350 0
 289 0012 9369     		ldr	r3, [r2, #24]
 290 0014 2BB1     		cbz	r3, .L9
 291              		.loc 1 351 0
 292 0016 0024     		movs	r4, #0
 293 0018 1C60     		str	r4, [r3]	@ unaligned
 294 001a 5C60     		str	r4, [r3, #4]	@ unaligned
 295 001c 9C60     		str	r4, [r3, #8]	@ unaligned
 296 001e DC60     		str	r4, [r3, #12]	@ unaligned
 297 0020 1C61     		str	r4, [r3, #16]	@ unaligned
 298              	.L9:
 299              		.loc 1 354 0
 300 0022 00EB8103 		add	r3, r0, r1, lsl #2
 301              		.loc 1 358 0
 302 0026 5DF8044B 		ldr	r4, [sp], #4
 303              		.cfi_restore 4
 304              		.cfi_def_cfa_offset 0
 305              		.loc 1 354 0
 306 002a DA60     		str	r2, [r3, #12]
 307              		.loc 1 357 0
 308 002c FFF7FEBF 		b	usb_lld_init_endpoint
 309              	.LVL22:
 310              		.cfi_endproc
 311              	.LFE263:
 312              		.size	usbInitEndpointI, .-usbInitEndpointI
 313              		.section	.text.usbDisableEndpointsI,"ax",%progbits
 314              		.align	2
 315              		.p2align 4,,15
 316              		.global	usbDisableEndpointsI
 317              		.thumb
 318              		.thumb_func
 319              		.type	usbDisableEndpointsI, %function
 320              	usbDisableEndpointsI:
 321              	.LFB264:
 322              		.loc 1 371 0
 323              		.cfi_startproc
 324              		@ args = 0, pretend = 0, frame = 0
 325              		@ frame_needed = 0, uses_anonymous_args = 0
 326              		@ link register save eliminated.
 327              	.LVL23:
 328 0000 10B4     		push	{r4}
 329              		.cfi_def_cfa_offset 4
 330              		.cfi_offset 4, -4
 331              		.loc 1 379 0
 332 0002 4189     		ldrh	r1, [r0, #10]
 333              		.loc 1 378 0
 334 0004 0489     		ldrh	r4, [r0, #8]
 335              		.loc 1 381 0
 336 0006 0022     		movs	r2, #0
 337              		.loc 1 378 0
 338 0008 24F00104 		bic	r4, r4, #1
 339              		.loc 1 379 0
 340 000c 21F00101 		bic	r1, r1, #1
 341              		.loc 1 378 0
 342 0010 0481     		strh	r4, [r0, #8]	@ movhi
ARM GAS  /var/folders/sv/kgmgr77579zbf78p2zlhkdfr0000gn/T//ccL7oYzt.s 			page 7


 343              		.loc 1 381 0
 344 0012 0261     		str	r2, [r0, #16]
 345              		.loc 1 379 0
 346 0014 4181     		strh	r1, [r0, #10]	@ movhi
 347              	.LVL24:
 348              		.loc 1 381 0
 349 0016 4261     		str	r2, [r0, #20]
 350              	.LVL25:
 351 0018 8261     		str	r2, [r0, #24]
 352              	.LVL26:
 353              		.loc 1 386 0
 354 001a 5DF8044B 		ldr	r4, [sp], #4
 355              		.cfi_restore 4
 356              		.cfi_def_cfa_offset 0
 357              		.loc 1 385 0
 358 001e FFF7FEBF 		b	usb_lld_disable_endpoints
 359              	.LVL27:
 360              		.cfi_endproc
 361              	.LFE264:
 362              		.size	usbDisableEndpointsI, .-usbDisableEndpointsI
 363 0022 00BF     		.section	.text.usbPrepareReceive,"ax",%progbits
 364              		.align	2
 365              		.p2align 4,,15
 366              		.global	usbPrepareReceive
 367              		.thumb
 368              		.thumb_func
 369              		.type	usbPrepareReceive, %function
 370              	usbPrepareReceive:
 371              	.LFB265:
 372              		.loc 1 400 0
 373              		.cfi_startproc
 374              		@ args = 0, pretend = 0, frame = 0
 375              		@ frame_needed = 0, uses_anonymous_args = 0
 376              		@ link register save eliminated.
 377              	.LVL28:
 378 0000 30B4     		push	{r4, r5}
 379              		.cfi_def_cfa_offset 8
 380              		.cfi_offset 4, -8
 381              		.cfi_offset 5, -4
 382              		.loc 1 401 0
 383 0002 00EB8104 		add	r4, r0, r1, lsl #2
 384              		.loc 1 403 0
 385 0006 0025     		movs	r5, #0
 386              		.loc 1 401 0
 387 0008 E468     		ldr	r4, [r4, #12]
 388 000a A469     		ldr	r4, [r4, #24]
 389              	.LVL29:
 390              		.loc 1 404 0
 391 000c E260     		str	r2, [r4, #12]
 392              		.loc 1 405 0
 393 000e 6360     		str	r3, [r4, #4]
 394              		.loc 1 403 0
 395 0010 2570     		strb	r5, [r4]
 396              		.loc 1 406 0
 397 0012 A560     		str	r5, [r4, #8]
 398              		.loc 1 409 0
 399 0014 30BC     		pop	{r4, r5}
ARM GAS  /var/folders/sv/kgmgr77579zbf78p2zlhkdfr0000gn/T//ccL7oYzt.s 			page 8


 400              		.cfi_restore 5
 401              		.cfi_restore 4
 402              		.cfi_def_cfa_offset 0
 403              	.LVL30:
 404              		.loc 1 408 0
 405 0016 FFF7FEBF 		b	usb_lld_prepare_receive
 406              	.LVL31:
 407              		.cfi_endproc
 408              	.LFE265:
 409              		.size	usbPrepareReceive, .-usbPrepareReceive
 410 001a 00BF     		.section	.text.usbPrepareTransmit,"ax",%progbits
 411              		.align	2
 412              		.p2align 4,,15
 413              		.global	usbPrepareTransmit
 414              		.thumb
 415              		.thumb_func
 416              		.type	usbPrepareTransmit, %function
 417              	usbPrepareTransmit:
 418              	.LFB266:
 419              		.loc 1 426 0
 420              		.cfi_startproc
 421              		@ args = 0, pretend = 0, frame = 0
 422              		@ frame_needed = 0, uses_anonymous_args = 0
 423              		@ link register save eliminated.
 424              	.LVL32:
 425 0000 30B4     		push	{r4, r5}
 426              		.cfi_def_cfa_offset 8
 427              		.cfi_offset 4, -8
 428              		.cfi_offset 5, -4
 429              		.loc 1 427 0
 430 0002 00EB8104 		add	r4, r0, r1, lsl #2
 431              		.loc 1 429 0
 432 0006 0025     		movs	r5, #0
 433              		.loc 1 427 0
 434 0008 E468     		ldr	r4, [r4, #12]
 435 000a 6469     		ldr	r4, [r4, #20]
 436              	.LVL33:
 437              		.loc 1 430 0
 438 000c E260     		str	r2, [r4, #12]
 439              		.loc 1 431 0
 440 000e 6360     		str	r3, [r4, #4]
 441              		.loc 1 429 0
 442 0010 2570     		strb	r5, [r4]
 443              		.loc 1 432 0
 444 0012 A560     		str	r5, [r4, #8]
 445              		.loc 1 435 0
 446 0014 30BC     		pop	{r4, r5}
 447              		.cfi_restore 5
 448              		.cfi_restore 4
 449              		.cfi_def_cfa_offset 0
 450              	.LVL34:
 451              		.loc 1 434 0
 452 0016 FFF7FEBF 		b	usb_lld_prepare_transmit
 453              	.LVL35:
 454              		.cfi_endproc
 455              	.LFE266:
 456              		.size	usbPrepareTransmit, .-usbPrepareTransmit
ARM GAS  /var/folders/sv/kgmgr77579zbf78p2zlhkdfr0000gn/T//ccL7oYzt.s 			page 9


 457 001a 00BF     		.section	.text.usbPrepareQueuedReceive,"ax",%progbits
 458              		.align	2
 459              		.p2align 4,,15
 460              		.global	usbPrepareQueuedReceive
 461              		.thumb
 462              		.thumb_func
 463              		.type	usbPrepareQueuedReceive, %function
 464              	usbPrepareQueuedReceive:
 465              	.LFB267:
 466              		.loc 1 455 0
 467              		.cfi_startproc
 468              		@ args = 0, pretend = 0, frame = 0
 469              		@ frame_needed = 0, uses_anonymous_args = 0
 470              		@ link register save eliminated.
 471              	.LVL36:
 472 0000 70B4     		push	{r4, r5, r6}
 473              		.cfi_def_cfa_offset 12
 474              		.cfi_offset 4, -12
 475              		.cfi_offset 5, -8
 476              		.cfi_offset 6, -4
 477              		.loc 1 456 0
 478 0002 00EB8104 		add	r4, r0, r1, lsl #2
 479              		.loc 1 458 0
 480 0006 0126     		movs	r6, #1
 481              		.loc 1 456 0
 482 0008 E468     		ldr	r4, [r4, #12]
 483 000a A469     		ldr	r4, [r4, #24]
 484              	.LVL37:
 485              		.loc 1 461 0
 486 000c 0025     		movs	r5, #0
 487              		.loc 1 459 0
 488 000e E260     		str	r2, [r4, #12]
 489              		.loc 1 460 0
 490 0010 6360     		str	r3, [r4, #4]
 491              		.loc 1 458 0
 492 0012 2670     		strb	r6, [r4]
 493              		.loc 1 461 0
 494 0014 A560     		str	r5, [r4, #8]
 495              		.loc 1 464 0
 496 0016 70BC     		pop	{r4, r5, r6}
 497              		.cfi_restore 6
 498              		.cfi_restore 5
 499              		.cfi_restore 4
 500              		.cfi_def_cfa_offset 0
 501              	.LVL38:
 502              		.loc 1 463 0
 503 0018 FFF7FEBF 		b	usb_lld_prepare_receive
 504              	.LVL39:
 505              		.cfi_endproc
 506              	.LFE267:
 507              		.size	usbPrepareQueuedReceive, .-usbPrepareQueuedReceive
 508              		.section	.text.usbPrepareQueuedTransmit,"ax",%progbits
 509              		.align	2
 510              		.p2align 4,,15
 511              		.global	usbPrepareQueuedTransmit
 512              		.thumb
 513              		.thumb_func
ARM GAS  /var/folders/sv/kgmgr77579zbf78p2zlhkdfr0000gn/T//ccL7oYzt.s 			page 10


 514              		.type	usbPrepareQueuedTransmit, %function
 515              	usbPrepareQueuedTransmit:
 516              	.LFB268:
 517              		.loc 1 481 0
 518              		.cfi_startproc
 519              		@ args = 0, pretend = 0, frame = 0
 520              		@ frame_needed = 0, uses_anonymous_args = 0
 521              		@ link register save eliminated.
 522              	.LVL40:
 523 0000 70B4     		push	{r4, r5, r6}
 524              		.cfi_def_cfa_offset 12
 525              		.cfi_offset 4, -12
 526              		.cfi_offset 5, -8
 527              		.cfi_offset 6, -4
 528              		.loc 1 482 0
 529 0002 00EB8104 		add	r4, r0, r1, lsl #2
 530              		.loc 1 484 0
 531 0006 0126     		movs	r6, #1
 532              		.loc 1 482 0
 533 0008 E468     		ldr	r4, [r4, #12]
 534 000a 6469     		ldr	r4, [r4, #20]
 535              	.LVL41:
 536              		.loc 1 487 0
 537 000c 0025     		movs	r5, #0
 538              		.loc 1 485 0
 539 000e E260     		str	r2, [r4, #12]
 540              		.loc 1 486 0
 541 0010 6360     		str	r3, [r4, #4]
 542              		.loc 1 484 0
 543 0012 2670     		strb	r6, [r4]
 544              		.loc 1 487 0
 545 0014 A560     		str	r5, [r4, #8]
 546              		.loc 1 490 0
 547 0016 70BC     		pop	{r4, r5, r6}
 548              		.cfi_restore 6
 549              		.cfi_restore 5
 550              		.cfi_restore 4
 551              		.cfi_def_cfa_offset 0
 552              	.LVL42:
 553              		.loc 1 489 0
 554 0018 FFF7FEBF 		b	usb_lld_prepare_transmit
 555              	.LVL43:
 556              		.cfi_endproc
 557              	.LFE268:
 558              		.size	usbPrepareQueuedTransmit, .-usbPrepareQueuedTransmit
 559              		.section	.text.usbStartReceiveI,"ax",%progbits
 560              		.align	2
 561              		.p2align 4,,15
 562              		.global	usbStartReceiveI
 563              		.thumb
 564              		.thumb_func
 565              		.type	usbStartReceiveI, %function
 566              	usbStartReceiveI:
 567              	.LFB269:
 568              		.loc 1 506 0
 569              		.cfi_startproc
 570              		@ args = 0, pretend = 0, frame = 0
ARM GAS  /var/folders/sv/kgmgr77579zbf78p2zlhkdfr0000gn/T//ccL7oYzt.s 			page 11


 571              		@ frame_needed = 0, uses_anonymous_args = 0
 572              	.LVL44:
 573              		.loc 1 511 0
 574 0000 0122     		movs	r2, #1
 575              		.loc 1 506 0
 576 0002 70B5     		push	{r4, r5, r6, lr}
 577              		.cfi_def_cfa_offset 16
 578              		.cfi_offset 4, -16
 579              		.cfi_offset 5, -12
 580              		.cfi_offset 6, -8
 581              		.cfi_offset 14, -4
 582              		.loc 1 511 0
 583 0004 02FA01F3 		lsl	r3, r2, r1
 584 0008 4489     		ldrh	r4, [r0, #10]
 585 000a 9BB2     		uxth	r3, r3
 586 000c 14EA0306 		ands	r6, r4, r3
 587 0010 01D0     		beq	.L32
 588              		.loc 1 512 0
 589 0012 1046     		mov	r0, r2
 590              	.LVL45:
 591              		.loc 1 518 0
 592 0014 70BD     		pop	{r4, r5, r6, pc}
 593              	.LVL46:
 594              	.L32:
 595              		.loc 1 515 0
 596 0016 2343     		orrs	r3, r3, r4
 597 0018 4381     		strh	r3, [r0, #10]	@ movhi
 598              		.loc 1 516 0
 599 001a FFF7FEFF 		bl	usb_lld_start_out
 600              	.LVL47:
 601              		.loc 1 517 0
 602 001e 3046     		mov	r0, r6
 603 0020 70BD     		pop	{r4, r5, r6, pc}
 604              		.cfi_endproc
 605              	.LFE269:
 606              		.size	usbStartReceiveI, .-usbStartReceiveI
 607 0022 00BF     		.section	.text.usbStartTransmitI,"ax",%progbits
 608              		.align	2
 609              		.p2align 4,,15
 610              		.global	usbStartTransmitI
 611              		.thumb
 612              		.thumb_func
 613              		.type	usbStartTransmitI, %function
 614              	usbStartTransmitI:
 615              	.LFB270:
 616              		.loc 1 534 0
 617              		.cfi_startproc
 618              		@ args = 0, pretend = 0, frame = 0
 619              		@ frame_needed = 0, uses_anonymous_args = 0
 620              	.LVL48:
 621              		.loc 1 539 0
 622 0000 0122     		movs	r2, #1
 623              		.loc 1 534 0
 624 0002 70B5     		push	{r4, r5, r6, lr}
 625              		.cfi_def_cfa_offset 16
 626              		.cfi_offset 4, -16
 627              		.cfi_offset 5, -12
ARM GAS  /var/folders/sv/kgmgr77579zbf78p2zlhkdfr0000gn/T//ccL7oYzt.s 			page 12


 628              		.cfi_offset 6, -8
 629              		.cfi_offset 14, -4
 630              		.loc 1 539 0
 631 0004 02FA01F3 		lsl	r3, r2, r1
 632 0008 0489     		ldrh	r4, [r0, #8]
 633 000a 9BB2     		uxth	r3, r3
 634 000c 14EA0306 		ands	r6, r4, r3
 635 0010 01D0     		beq	.L37
 636              		.loc 1 540 0
 637 0012 1046     		mov	r0, r2
 638              	.LVL49:
 639              		.loc 1 546 0
 640 0014 70BD     		pop	{r4, r5, r6, pc}
 641              	.LVL50:
 642              	.L37:
 643              		.loc 1 543 0
 644 0016 2343     		orrs	r3, r3, r4
 645 0018 0381     		strh	r3, [r0, #8]	@ movhi
 646              		.loc 1 544 0
 647 001a FFF7FEFF 		bl	usb_lld_start_in
 648              	.LVL51:
 649              		.loc 1 545 0
 650 001e 3046     		mov	r0, r6
 651 0020 70BD     		pop	{r4, r5, r6, pc}
 652              		.cfi_endproc
 653              	.LFE270:
 654              		.size	usbStartTransmitI, .-usbStartTransmitI
 655 0022 00BF     		.section	.text.usbStallReceiveI,"ax",%progbits
 656              		.align	2
 657              		.p2align 4,,15
 658              		.global	usbStallReceiveI
 659              		.thumb
 660              		.thumb_func
 661              		.type	usbStallReceiveI, %function
 662              	usbStallReceiveI:
 663              	.LFB271:
 664              		.loc 1 560 0
 665              		.cfi_startproc
 666              		@ args = 0, pretend = 0, frame = 0
 667              		@ frame_needed = 0, uses_anonymous_args = 0
 668              	.LVL52:
 669 0000 10B5     		push	{r4, lr}
 670              		.cfi_def_cfa_offset 8
 671              		.cfi_offset 4, -8
 672              		.cfi_offset 14, -4
 673              		.loc 1 565 0
 674 0002 0123     		movs	r3, #1
 675 0004 4489     		ldrh	r4, [r0, #10]
 676 0006 03FA01F2 		lsl	r2, r3, r1
 677 000a 1440     		ands	r4, r2, r4
 678 000c 01D0     		beq	.L42
 679              		.loc 1 566 0
 680 000e 1846     		mov	r0, r3
 681              	.LVL53:
 682              		.loc 1 571 0
 683 0010 10BD     		pop	{r4, pc}
 684              	.LVL54:
ARM GAS  /var/folders/sv/kgmgr77579zbf78p2zlhkdfr0000gn/T//ccL7oYzt.s 			page 13


 685              	.L42:
 686              		.loc 1 569 0
 687 0012 FFF7FEFF 		bl	usb_lld_stall_out
 688              	.LVL55:
 689              		.loc 1 570 0
 690 0016 2046     		mov	r0, r4
 691 0018 10BD     		pop	{r4, pc}
 692              		.cfi_endproc
 693              	.LFE271:
 694              		.size	usbStallReceiveI, .-usbStallReceiveI
 695 001a 00BF     		.section	.text.usbStallTransmitI,"ax",%progbits
 696              		.align	2
 697              		.p2align 4,,15
 698              		.global	usbStallTransmitI
 699              		.thumb
 700              		.thumb_func
 701              		.type	usbStallTransmitI, %function
 702              	usbStallTransmitI:
 703              	.LFB272:
 704              		.loc 1 585 0
 705              		.cfi_startproc
 706              		@ args = 0, pretend = 0, frame = 0
 707              		@ frame_needed = 0, uses_anonymous_args = 0
 708              	.LVL56:
 709 0000 10B5     		push	{r4, lr}
 710              		.cfi_def_cfa_offset 8
 711              		.cfi_offset 4, -8
 712              		.cfi_offset 14, -4
 713              		.loc 1 590 0
 714 0002 0123     		movs	r3, #1
 715 0004 0489     		ldrh	r4, [r0, #8]
 716 0006 03FA01F2 		lsl	r2, r3, r1
 717 000a 1440     		ands	r4, r2, r4
 718 000c 01D0     		beq	.L47
 719              		.loc 1 591 0
 720 000e 1846     		mov	r0, r3
 721              	.LVL57:
 722              		.loc 1 596 0
 723 0010 10BD     		pop	{r4, pc}
 724              	.LVL58:
 725              	.L47:
 726              		.loc 1 594 0
 727 0012 FFF7FEFF 		bl	usb_lld_stall_in
 728              	.LVL59:
 729              		.loc 1 595 0
 730 0016 2046     		mov	r0, r4
 731 0018 10BD     		pop	{r4, pc}
 732              		.cfi_endproc
 733              	.LFE272:
 734              		.size	usbStallTransmitI, .-usbStallTransmitI
 735 001a 00BF     		.section	.text._usb_reset,"ax",%progbits
 736              		.align	2
 737              		.p2align 4,,15
 738              		.global	_usb_reset
 739              		.thumb
 740              		.thumb_func
 741              		.type	_usb_reset, %function
ARM GAS  /var/folders/sv/kgmgr77579zbf78p2zlhkdfr0000gn/T//ccL7oYzt.s 			page 14


 742              	_usb_reset:
 743              	.LFB273:
 744              		.loc 1 607 0
 745              		.cfi_startproc
 746              		@ args = 0, pretend = 0, frame = 0
 747              		@ frame_needed = 0, uses_anonymous_args = 0
 748              		@ link register save eliminated.
 749              	.LVL60:
 750              		.loc 1 611 0
 751 0000 0022     		movs	r2, #0
 752              		.loc 1 610 0
 753 0002 0221     		movs	r1, #2
 754 0004 0170     		strb	r1, [r0]
 755              		.loc 1 611 0
 756 0006 A0F84C20 		strh	r2, [r0, #76]	@ movhi
 757              		.loc 1 612 0
 758 000a 80F84E20 		strb	r2, [r0, #78]
 759              		.loc 1 613 0
 760 000e 80F84F20 		strb	r2, [r0, #79]
 761              		.loc 1 614 0
 762 0012 0281     		strh	r2, [r0, #8]	@ movhi
 763              		.loc 1 615 0
 764 0014 4281     		strh	r2, [r0, #10]	@ movhi
 765              	.LVL61:
 766              		.loc 1 619 0
 767 0016 C260     		str	r2, [r0, #12]
 768              	.LVL62:
 769 0018 0261     		str	r2, [r0, #16]
 770              	.LVL63:
 771 001a 4261     		str	r2, [r0, #20]
 772              	.LVL64:
 773 001c 8261     		str	r2, [r0, #24]
 774              	.LVL65:
 775              		.loc 1 623 0
 776 001e 80F83420 		strb	r2, [r0, #52]
 777              		.loc 1 626 0
 778 0022 FFF7FEBF 		b	usb_lld_reset
 779              	.LVL66:
 780              		.cfi_endproc
 781              	.LFE273:
 782              		.size	_usb_reset, .-_usb_reset
 783 0026 00BF     		.section	.text._usb_ep0setup,"ax",%progbits
 784              		.align	2
 785              		.p2align 4,,15
 786              		.global	_usb_ep0setup
 787              		.thumb
 788              		.thumb_func
 789              		.type	_usb_ep0setup, %function
 790              	_usb_ep0setup:
 791              	.LFB274:
 792              		.loc 1 639 0
 793              		.cfi_startproc
 794              		@ args = 0, pretend = 0, frame = 0
 795              		@ frame_needed = 0, uses_anonymous_args = 0
 796              	.LVL67:
 797 0000 F8B5     		push	{r3, r4, r5, r6, r7, lr}
 798              		.cfi_def_cfa_offset 24
ARM GAS  /var/folders/sv/kgmgr77579zbf78p2zlhkdfr0000gn/T//ccL7oYzt.s 			page 15


 799              		.cfi_offset 3, -24
 800              		.cfi_offset 4, -20
 801              		.cfi_offset 5, -16
 802              		.cfi_offset 6, -12
 803              		.cfi_offset 7, -8
 804              		.cfi_offset 14, -4
 805              		.loc 1 642 0
 806 0002 0023     		movs	r3, #0
 807              		.loc 1 639 0
 808 0004 0446     		mov	r4, r0
 809              		.loc 1 642 0
 810 0006 80F83430 		strb	r3, [r0, #52]
 811              		.loc 1 643 0
 812 000a 00F14402 		add	r2, r0, #68
 813 000e FFF7FEFF 		bl	usb_lld_read_setup
 814              	.LVL68:
 815              		.loc 1 648 0
 816 0012 6368     		ldr	r3, [r4, #4]
 817 0014 9B68     		ldr	r3, [r3, #8]
 818 0016 002B     		cmp	r3, #0
 819 0018 36D0     		beq	.L54
 820              		.loc 1 649 0 discriminator 1
 821 001a 2046     		mov	r0, r4
 822 001c 9847     		blx	r3
 823              	.LVL69:
 824              		.loc 1 648 0 discriminator 1
 825 001e 0028     		cmp	r0, #0
 826 0020 32D0     		beq	.L54
 827 0022 E06B     		ldr	r0, [r4, #60]
 828 0024 94F84430 		ldrb	r3, [r4, #68]	@ zero_extendqisi2
 829              	.L99:
 830              		.loc 1 676 0
 831 0028 94F84B10 		ldrb	r1, [r4, #75]	@ zero_extendqisi2
 832 002c 94F84A20 		ldrb	r2, [r4, #74]	@ zero_extendqisi2
 833 0030 42EA0122 		orr	r2, r2, r1, lsl #8
 834              	.LVL70:
 835              		.loc 1 678 0
 836 0034 8242     		cmp	r2, r0
 837              		.loc 1 679 0
 838 0036 3CBF     		itt	cc
 839 0038 E263     		strcc	r2, [r4, #60]
 840 003a 1046     		movcc	r0, r2
 841              		.loc 1 681 0
 842 003c 1A06     		lsls	r2, r3, #24
 843              	.LVL71:
 844 003e 00F1AB80 		bmi	.L135
 845              		.loc 1 707 0
 846 0042 0028     		cmp	r0, #0
 847 0044 00F08B80 		beq	.L96
 848              	.LBB311:
 849              	.LBB312:
 850              		.loc 1 401 0
 851 0048 E368     		ldr	r3, [r4, #12]
 852              	.LBE312:
 853              	.LBE311:
 854              		.loc 1 710 0
 855 004a A56B     		ldr	r5, [r4, #56]
ARM GAS  /var/folders/sv/kgmgr77579zbf78p2zlhkdfr0000gn/T//ccL7oYzt.s 			page 16


 856              	.LVL72:
 857              	.LBB315:
 858              	.LBB313:
 859              		.loc 1 401 0
 860 004c 9B69     		ldr	r3, [r3, #24]
 861              	.LVL73:
 862              		.loc 1 403 0
 863 004e 0022     		movs	r2, #0
 864              	.LBE313:
 865              	.LBE315:
 866              		.loc 1 709 0
 867 0050 0421     		movs	r1, #4
 868              	.LVL74:
 869 0052 84F83410 		strb	r1, [r4, #52]
 870              	.LBB316:
 871              	.LBB314:
 872              		.loc 1 408 0
 873 0056 1146     		mov	r1, r2
 874              		.loc 1 404 0
 875 0058 DD60     		str	r5, [r3, #12]
 876              	.LVL75:
 877              		.loc 1 405 0
 878 005a 5860     		str	r0, [r3, #4]
 879              		.loc 1 403 0
 880 005c 1A70     		strb	r2, [r3]
 881              		.loc 1 406 0
 882 005e 9A60     		str	r2, [r3, #8]
 883              	.LVL76:
 884              	.L132:
 885              		.loc 1 408 0
 886 0060 2046     		mov	r0, r4
 887 0062 FFF7FEFF 		bl	usb_lld_prepare_receive
 888              	.LVL77:
 889              	.LBE314:
 890              	.LBE316:
 891              	.LBB317:
 892              	.LBB318:
 893              	.LBB319:
 894              	.LBB320:
 895              	.LBB321:
 896              	.LBB322:
 897              		.loc 2 546 0
 898 0066 2023     		movs	r3, #32
 899              		.syntax unified
 900              	@ 546 "ChibiOS_3.0.2/os/ext/CMSIS/include/core_cmFunc.h" 1
 901 0068 83F31188 		MSR basepri, r3
 902              	@ 0 "" 2
 903              	.LVL78:
 904              		.thumb
 905              		.syntax unified
 906              	.LBE322:
 907              	.LBE321:
 908              	.LBE320:
 909              	.LBE319:
 910              	.LBE318:
 911              	.LBE317:
 912              	.LBB323:
ARM GAS  /var/folders/sv/kgmgr77579zbf78p2zlhkdfr0000gn/T//ccL7oYzt.s 			page 17


 913              	.LBB324:
 914              		.loc 1 511 0
 915 006c 6389     		ldrh	r3, [r4, #10]
 916 006e 13F00101 		ands	r1, r3, #1
 917 0072 05D1     		bne	.L98
 918              		.loc 1 515 0
 919 0074 43F00103 		orr	r3, r3, #1
 920 0078 6381     		strh	r3, [r4, #10]	@ movhi
 921              		.loc 1 516 0
 922 007a 2046     		mov	r0, r4
 923 007c FFF7FEFF 		bl	usb_lld_start_out
 924              	.LVL79:
 925              	.L98:
 926              	.LBE324:
 927              	.LBE323:
 928              	.LBB325:
 929              	.LBB326:
 930              	.LBB327:
 931              	.LBB328:
 932              	.LBB329:
 933              	.LBB330:
 934              		.loc 2 546 0
 935 0080 0023     		movs	r3, #0
 936              		.syntax unified
 937              	@ 546 "ChibiOS_3.0.2/os/ext/CMSIS/include/core_cmFunc.h" 1
 938 0082 83F31188 		MSR basepri, r3
 939              	@ 0 "" 2
 940              	.LVL80:
 941              		.thumb
 942              		.syntax unified
 943 0086 F8BD     		pop	{r3, r4, r5, r6, r7, pc}
 944              	.LVL81:
 945              	.L54:
 946              	.LBE330:
 947              	.LBE329:
 948              	.LBE328:
 949              	.LBE327:
 950              	.LBE326:
 951              	.LBE325:
 952              		.loc 1 654 0
 953 0088 94F84430 		ldrb	r3, [r4, #68]	@ zero_extendqisi2
 954 008c 13F06007 		ands	r7, r3, #96
 955 0090 1E46     		mov	r6, r3
 956 0092 11D0     		beq	.L136
 957              	.L51:
 958              		.loc 1 660 0
 959 0094 0021     		movs	r1, #0
 960 0096 2046     		mov	r0, r4
 961 0098 FFF7FEFF 		bl	usb_lld_stall_in
 962              	.LVL82:
 963              		.loc 1 661 0
 964 009c 0021     		movs	r1, #0
 965 009e 2046     		mov	r0, r4
 966 00a0 FFF7FEFF 		bl	usb_lld_stall_out
 967              	.LVL83:
 968              		.loc 1 662 0
 969 00a4 6368     		ldr	r3, [r4, #4]
ARM GAS  /var/folders/sv/kgmgr77579zbf78p2zlhkdfr0000gn/T//ccL7oYzt.s 			page 18


 970 00a6 1B68     		ldr	r3, [r3]
 971 00a8 13B1     		cbz	r3, .L88
 972              		.loc 1 662 0 is_stmt 0 discriminator 1
 973 00aa 0521     		movs	r1, #5
 974 00ac 2046     		mov	r0, r4
 975 00ae 9847     		blx	r3
 976              	.LVL84:
 977              	.L88:
 978              		.loc 1 663 0 is_stmt 1
 979 00b0 0623     		movs	r3, #6
 980 00b2 84F83430 		strb	r3, [r4, #52]
 981              		.loc 1 664 0
 982 00b6 F8BD     		pop	{r3, r4, r5, r6, r7, pc}
 983              	.LVL85:
 984              	.L136:
 985              	.LBB331:
 986              	.LBB332:
 987              		.loc 1 88 0
 988 00b8 94F84500 		ldrb	r0, [r4, #69]	@ zero_extendqisi2
 989 00bc 03F07F02 		and	r2, r3, #127
 990 00c0 42EA0025 		orr	r5, r2, r0, lsl #8
 991 00c4 B5F5407F 		cmp	r5, #768
 992 00c8 00F0EB80 		beq	.L56
 993 00cc 16D9     		bls	.L137
 994 00ce B5F5C06F 		cmp	r5, #1536
 995 00d2 00F0CE80 		beq	.L64
 996 00d6 2FD9     		bls	.L138
 997 00d8 B5F5106F 		cmp	r5, #2304
 998 00dc 76D0     		beq	.L68
 999 00de 40F60242 		movw	r2, #3074
 1000 00e2 9542     		cmp	r5, r2
 1001 00e4 00F0EF80 		beq	.L61
 1002 00e8 B5F5006F 		cmp	r5, #2048
 1003 00ec D2D1     		bne	.L51
 1004              		.loc 1 141 0
 1005 00ee 04F14F02 		add	r2, r4, #79
 1006 00f2 0120     		movs	r0, #1
 1007 00f4 2764     		str	r7, [r4, #64]
 1008 00f6 A263     		str	r2, [r4, #56]
 1009 00f8 E063     		str	r0, [r4, #60]
 1010 00fa 95E7     		b	.L99
 1011              	.L137:
 1012              		.loc 1 88 0
 1013 00fc 022D     		cmp	r5, #2
 1014 00fe 00F0A280 		beq	.L58
 1015 0102 40F29780 		bls	.L139
 1016 0106 B5F5807F 		cmp	r5, #256
 1017 010a 00F08480 		beq	.L62
 1018 010e B5F5817F 		cmp	r5, #258
 1019 0112 BFD1     		bne	.L51
 1020              		.loc 1 201 0
 1021 0114 94F84630 		ldrb	r3, [r4, #70]	@ zero_extendqisi2
 1022 0118 002B     		cmp	r3, #0
 1023 011a BBD1     		bne	.L51
 1024              		.loc 1 205 0
 1025 011c 94F84830 		ldrb	r3, [r4, #72]	@ zero_extendqisi2
 1026 0120 13F00F01 		ands	r1, r3, #15
ARM GAS  /var/folders/sv/kgmgr77579zbf78p2zlhkdfr0000gn/T//ccL7oYzt.s 			page 19


 1027 0124 15D0     		beq	.L86
 1028              		.loc 1 206 0
 1029 0126 1E06     		lsls	r6, r3, #24
 1030              		.loc 1 207 0
 1031 0128 2046     		mov	r0, r4
 1032              		.loc 1 206 0
 1033 012a 00F1F480 		bmi	.L140
 1034              	.LVL86:
 1035              		.loc 1 210 0
 1036 012e FFF7FEFF 		bl	usb_lld_clear_out
 1037              	.LVL87:
 1038 0132 94F84460 		ldrb	r6, [r4, #68]	@ zero_extendqisi2
 1039 0136 0CE0     		b	.L86
 1040              	.L138:
 1041              		.loc 1 88 0
 1042 0138 40F20233 		movw	r3, #770
 1043 013c 9D42     		cmp	r5, r3
 1044 013e 57D0     		beq	.L66
 1045 0140 B5F5A06F 		cmp	r5, #1280
 1046 0144 A6D1     		bne	.L51
 1047              		.loc 1 118 0
 1048 0146 B4F84430 		ldrh	r3, [r4, #68]
 1049 014a B3F5A06F 		cmp	r3, #1280
 1050 014e 00F0D080 		beq	.L141
 1051              	.L86:
 1052              		.loc 1 229 0
 1053 0152 0023     		movs	r3, #0
 1054 0154 A363     		str	r3, [r4, #56]
 1055 0156 E363     		str	r3, [r4, #60]
 1056 0158 2364     		str	r3, [r4, #64]
 1057              	.L72:
 1058              	.LVL88:
 1059              	.LBE332:
 1060              	.LBE331:
 1061              		.loc 1 681 0
 1062 015a 3306     		lsls	r3, r6, #24
 1063 015c 2AD4     		bmi	.L93
 1064              	.LVL89:
 1065              	.L96:
 1066              	.LBB336:
 1067              	.LBB337:
 1068              		.loc 1 427 0
 1069 015e E368     		ldr	r3, [r4, #12]
 1070 0160 5A69     		ldr	r2, [r3, #20]
 1071              	.LBE337:
 1072              	.LBE336:
 1073              		.loc 1 718 0
 1074 0162 0521     		movs	r1, #5
 1075              	.LBB340:
 1076              	.LBB338:
 1077              		.loc 1 429 0
 1078 0164 0023     		movs	r3, #0
 1079              	.LBE338:
 1080              	.LBE340:
 1081              		.loc 1 718 0
 1082 0166 84F83410 		strb	r1, [r4, #52]
 1083              	.LVL90:
ARM GAS  /var/folders/sv/kgmgr77579zbf78p2zlhkdfr0000gn/T//ccL7oYzt.s 			page 20


 1084              	.LBB341:
 1085              	.LBB339:
 1086              		.loc 1 434 0
 1087 016a 1946     		mov	r1, r3
 1088              		.loc 1 429 0
 1089 016c 1370     		strb	r3, [r2]
 1090              		.loc 1 430 0
 1091 016e D360     		str	r3, [r2, #12]
 1092              		.loc 1 431 0
 1093 0170 5360     		str	r3, [r2, #4]
 1094              		.loc 1 432 0
 1095 0172 9360     		str	r3, [r2, #8]
 1096              	.LVL91:
 1097              	.L133:
 1098              		.loc 1 434 0
 1099 0174 2046     		mov	r0, r4
 1100 0176 FFF7FEFF 		bl	usb_lld_prepare_transmit
 1101              	.LVL92:
 1102              	.LBE339:
 1103              	.LBE341:
 1104              	.LBB342:
 1105              	.LBB343:
 1106              	.LBB344:
 1107              	.LBB345:
 1108              	.LBB346:
 1109              	.LBB347:
 1110              		.loc 2 546 0
 1111 017a 2023     		movs	r3, #32
 1112              		.syntax unified
 1113              	@ 546 "ChibiOS_3.0.2/os/ext/CMSIS/include/core_cmFunc.h" 1
 1114 017c 83F31188 		MSR basepri, r3
 1115              	@ 0 "" 2
 1116              	.LVL93:
 1117              		.thumb
 1118              		.syntax unified
 1119              	.LBE347:
 1120              	.LBE346:
 1121              	.LBE345:
 1122              	.LBE344:
 1123              	.LBE343:
 1124              	.LBE342:
 1125              	.LBB348:
 1126              	.LBB349:
 1127              		.loc 1 539 0
 1128 0180 2389     		ldrh	r3, [r4, #8]
 1129 0182 13F00101 		ands	r1, r3, #1
 1130 0186 7FF47BAF 		bne	.L98
 1131              		.loc 1 543 0
 1132 018a 43F00103 		orr	r3, r3, #1
 1133 018e 2381     		strh	r3, [r4, #8]	@ movhi
 1134              		.loc 1 544 0
 1135 0190 2046     		mov	r0, r4
 1136 0192 FFF7FEFF 		bl	usb_lld_start_in
 1137              	.LVL94:
 1138 0196 73E7     		b	.L98
 1139              	.LVL95:
 1140              	.L135:
ARM GAS  /var/folders/sv/kgmgr77579zbf78p2zlhkdfr0000gn/T//ccL7oYzt.s 			page 21


 1141              	.LBE349:
 1142              	.LBE348:
 1143              		.loc 1 683 0
 1144 0198 60B1     		cbz	r0, .L93
 1145              	.LBB350:
 1146              	.LBB351:
 1147              		.loc 1 427 0
 1148 019a E368     		ldr	r3, [r4, #12]
 1149              	.LBE351:
 1150              	.LBE350:
 1151              		.loc 1 686 0
 1152 019c A56B     		ldr	r5, [r4, #56]
 1153              	.LVL96:
 1154              	.LBB354:
 1155              	.LBB352:
 1156              		.loc 1 427 0
 1157 019e 5B69     		ldr	r3, [r3, #20]
 1158              	.LVL97:
 1159              		.loc 1 429 0
 1160 01a0 0022     		movs	r2, #0
 1161              	.LBE352:
 1162              	.LBE354:
 1163              		.loc 1 685 0
 1164 01a2 0121     		movs	r1, #1
 1165              	.LVL98:
 1166 01a4 84F83410 		strb	r1, [r4, #52]
 1167              	.LBB355:
 1168              	.LBB353:
 1169              		.loc 1 434 0
 1170 01a8 1146     		mov	r1, r2
 1171              		.loc 1 430 0
 1172 01aa DD60     		str	r5, [r3, #12]
 1173              	.LVL99:
 1174              		.loc 1 431 0
 1175 01ac 5860     		str	r0, [r3, #4]
 1176              		.loc 1 429 0
 1177 01ae 1A70     		strb	r2, [r3]
 1178              		.loc 1 432 0
 1179 01b0 9A60     		str	r2, [r3, #8]
 1180 01b2 DFE7     		b	.L133
 1181              	.LVL100:
 1182              	.L93:
 1183              	.LBE353:
 1184              	.LBE355:
 1185              	.LBB356:
 1186              	.LBB357:
 1187              		.loc 1 401 0
 1188 01b4 E368     		ldr	r3, [r4, #12]
 1189 01b6 9A69     		ldr	r2, [r3, #24]
 1190              	.LBE357:
 1191              	.LBE356:
 1192              		.loc 1 694 0
 1193 01b8 0321     		movs	r1, #3
 1194              	.LBB360:
 1195              	.LBB358:
 1196              		.loc 1 403 0
 1197 01ba 0023     		movs	r3, #0
ARM GAS  /var/folders/sv/kgmgr77579zbf78p2zlhkdfr0000gn/T//ccL7oYzt.s 			page 22


 1198              	.LBE358:
 1199              	.LBE360:
 1200              		.loc 1 694 0
 1201 01bc 84F83410 		strb	r1, [r4, #52]
 1202              	.LVL101:
 1203              	.LBB361:
 1204              	.LBB359:
 1205              		.loc 1 408 0
 1206 01c0 1946     		mov	r1, r3
 1207              		.loc 1 403 0
 1208 01c2 1370     		strb	r3, [r2]
 1209              		.loc 1 404 0
 1210 01c4 D360     		str	r3, [r2, #12]
 1211              		.loc 1 405 0
 1212 01c6 5360     		str	r3, [r2, #4]
 1213              		.loc 1 406 0
 1214 01c8 9360     		str	r3, [r2, #8]
 1215 01ca 49E7     		b	.L132
 1216              	.LVL102:
 1217              	.L68:
 1218              	.LBE359:
 1219              	.LBE361:
 1220              	.LBB362:
 1221              	.LBB335:
 1222              		.loc 1 145 0
 1223 01cc 94F84630 		ldrb	r3, [r4, #70]	@ zero_extendqisi2
 1224 01d0 84F84F30 		strb	r3, [r4, #79]
 1225              		.loc 1 146 0
 1226 01d4 002B     		cmp	r3, #0
 1227 01d6 7DD1     		bne	.L76
 1228              		.loc 1 147 0
 1229 01d8 0323     		movs	r3, #3
 1230 01da 2370     		strb	r3, [r4]
 1231              	.L77:
 1232              		.loc 1 152 0
 1233 01dc 6368     		ldr	r3, [r4, #4]
 1234 01de 1B68     		ldr	r3, [r3]
 1235 01e0 002B     		cmp	r3, #0
 1236 01e2 B6D0     		beq	.L86
 1237 01e4 0221     		movs	r1, #2
 1238 01e6 2046     		mov	r0, r4
 1239 01e8 9847     		blx	r3
 1240              	.LVL103:
 1241 01ea 94F84460 		ldrb	r6, [r4, #68]	@ zero_extendqisi2
 1242 01ee B0E7     		b	.L86
 1243              	.L66:
 1244              		.loc 1 217 0
 1245 01f0 94F84630 		ldrb	r3, [r4, #70]	@ zero_extendqisi2
 1246 01f4 002B     		cmp	r3, #0
 1247 01f6 7FF44DAF 		bne	.L51
 1248              		.loc 1 221 0
 1249 01fa 94F84830 		ldrb	r3, [r4, #72]	@ zero_extendqisi2
 1250 01fe 13F00F01 		ands	r1, r3, #15
 1251 0202 A6D0     		beq	.L86
 1252              		.loc 1 222 0
 1253 0204 1D06     		lsls	r5, r3, #24
 1254              		.loc 1 223 0
ARM GAS  /var/folders/sv/kgmgr77579zbf78p2zlhkdfr0000gn/T//ccL7oYzt.s 			page 23


 1255 0206 2046     		mov	r0, r4
 1256              		.loc 1 222 0
 1257 0208 00F18A80 		bmi	.L142
 1258              	.LVL104:
 1259              		.loc 1 226 0
 1260 020c FFF7FEFF 		bl	usb_lld_stall_out
 1261              	.LVL105:
 1262 0210 94F84460 		ldrb	r6, [r4, #68]	@ zero_extendqisi2
 1263 0214 9DE7     		b	.L86
 1264              	.L62:
 1265              		.loc 1 98 0
 1266 0216 94F84630 		ldrb	r3, [r4, #70]	@ zero_extendqisi2
 1267 021a 012B     		cmp	r3, #1
 1268 021c 7FF43AAF 		bne	.L51
 1269              		.loc 1 99 0
 1270 0220 B4F84C30 		ldrh	r3, [r4, #76]
 1271              		.loc 1 100 0
 1272 0224 A763     		str	r7, [r4, #56]
 1273              		.loc 1 99 0
 1274 0226 23F00203 		bic	r3, r3, #2
 1275              		.loc 1 100 0
 1276 022a E763     		str	r7, [r4, #60]
 1277 022c 2764     		str	r7, [r4, #64]
 1278              		.loc 1 99 0
 1279 022e A4F84C30 		strh	r3, [r4, #76]	@ movhi
 1280 0232 92E7     		b	.L72
 1281              	.L139:
 1282              		.loc 1 88 0
 1283 0234 002D     		cmp	r5, #0
 1284 0236 43D1     		bne	.L143
 1285              		.loc 1 93 0
 1286 0238 04F14C02 		add	r2, r4, #76
 1287 023c 0220     		movs	r0, #2
 1288 023e 2564     		str	r5, [r4, #64]
 1289 0240 A263     		str	r2, [r4, #56]
 1290 0242 E063     		str	r0, [r4, #60]
 1291 0244 F0E6     		b	.L99
 1292              	.L58:
 1293              		.loc 1 165 0
 1294 0246 94F84810 		ldrb	r1, [r4, #72]	@ zero_extendqisi2
 1295 024a 11F0800F 		tst	r1, #128
 1296              		.loc 1 166 0
 1297 024e 2046     		mov	r0, r4
 1298 0250 01F00F01 		and	r1, r1, #15
 1299              		.loc 1 165 0
 1300 0254 41D1     		bne	.L144
 1301              	.LVL106:
 1302              		.loc 1 183 0
 1303 0256 FFF7FEFF 		bl	usb_lld_get_status_out
 1304              	.LVL107:
 1305 025a 0128     		cmp	r0, #1
 1306 025c 41D0     		beq	.L82
 1307              	.L129:
 1308 025e 0228     		cmp	r0, #2
 1309 0260 7FF418AF 		bne	.L51
 1310              		.loc 1 191 0
 1311 0264 314B     		ldr	r3, .L145
ARM GAS  /var/folders/sv/kgmgr77579zbf78p2zlhkdfr0000gn/T//ccL7oYzt.s 			page 24


 1312 0266 A363     		str	r3, [r4, #56]
 1313 0268 E063     		str	r0, [r4, #60]
 1314 026a 2764     		str	r7, [r4, #64]
 1315 026c 94F84430 		ldrb	r3, [r4, #68]	@ zero_extendqisi2
 1316 0270 DAE6     		b	.L99
 1317              	.L64:
 1318              		.loc 1 129 0
 1319 0272 94F84900 		ldrb	r0, [r4, #73]	@ zero_extendqisi2
 1320 0276 6168     		ldr	r1, [r4, #4]
 1321 0278 94F84830 		ldrb	r3, [r4, #72]	@ zero_extendqisi2
 1322 027c 4D68     		ldr	r5, [r1, #4]
 1323 027e 94F84620 		ldrb	r2, [r4, #70]	@ zero_extendqisi2
 1324 0282 94F84710 		ldrb	r1, [r4, #71]	@ zero_extendqisi2
 1325 0286 43EA0023 		orr	r3, r3, r0, lsl #8
 1326 028a 2046     		mov	r0, r4
 1327 028c A847     		blx	r5
 1328              	.LVL108:
 1329              		.loc 1 132 0
 1330 028e 0028     		cmp	r0, #0
 1331 0290 3FF400AF 		beq	.L51
 1332              		.loc 1 136 0
 1333 0294 09C8     		ldmia	r0, {r0, r3}
 1334              	.LVL109:
 1335 0296 2764     		str	r7, [r4, #64]
 1336 0298 A363     		str	r3, [r4, #56]
 1337 029a E063     		str	r0, [r4, #60]
 1338 029c 94F84430 		ldrb	r3, [r4, #68]	@ zero_extendqisi2
 1339 02a0 C2E6     		b	.L99
 1340              	.L56:
 1341              		.loc 1 107 0
 1342 02a2 94F84630 		ldrb	r3, [r4, #70]	@ zero_extendqisi2
 1343 02a6 012B     		cmp	r3, #1
 1344 02a8 7FF4F4AE 		bne	.L51
 1345              		.loc 1 108 0
 1346 02ac B4F84C30 		ldrh	r3, [r4, #76]
 1347              		.loc 1 109 0
 1348 02b0 A763     		str	r7, [r4, #56]
 1349              		.loc 1 108 0
 1350 02b2 43F00203 		orr	r3, r3, #2
 1351              		.loc 1 109 0
 1352 02b6 E763     		str	r7, [r4, #60]
 1353 02b8 2764     		str	r7, [r4, #64]
 1354              		.loc 1 108 0
 1355 02ba A4F84C30 		strh	r3, [r4, #76]	@ movhi
 1356 02be 4CE7     		b	.L72
 1357              	.L143:
 1358              		.loc 1 88 0
 1359 02c0 012D     		cmp	r5, #1
 1360 02c2 7FF4E7AE 		bne	.L51
 1361              	.L61:
 1362              		.loc 1 160 0
 1363 02c6 1A4A     		ldr	r2, .L145+4
 1364 02c8 A263     		str	r2, [r4, #56]
 1365 02ca 0220     		movs	r0, #2
 1366 02cc 0022     		movs	r2, #0
 1367 02ce E063     		str	r0, [r4, #60]
 1368 02d0 2264     		str	r2, [r4, #64]
ARM GAS  /var/folders/sv/kgmgr77579zbf78p2zlhkdfr0000gn/T//ccL7oYzt.s 			page 25


 1369 02d2 A9E6     		b	.L99
 1370              	.L76:
 1371              		.loc 1 150 0
 1372 02d4 0423     		movs	r3, #4
 1373 02d6 2370     		strb	r3, [r4]
 1374 02d8 80E7     		b	.L77
 1375              	.LVL110:
 1376              	.L144:
 1377              		.loc 1 166 0
 1378 02da FFF7FEFF 		bl	usb_lld_get_status_in
 1379              	.LVL111:
 1380 02de 0128     		cmp	r0, #1
 1381 02e0 BDD1     		bne	.L129
 1382              	.L82:
 1383              		.loc 1 186 0
 1384 02e2 144B     		ldr	r3, .L145+8
 1385 02e4 A363     		str	r3, [r4, #56]
 1386 02e6 E563     		str	r5, [r4, #60]
 1387 02e8 2764     		str	r7, [r4, #64]
 1388 02ea 2846     		mov	r0, r5
 1389 02ec 94F84430 		ldrb	r3, [r4, #68]	@ zero_extendqisi2
 1390 02f0 9AE6     		b	.L99
 1391              	.L141:
 1392              	.LVL112:
 1393              	.LBB333:
 1394              	.LBB334:
 1395              		.loc 1 66 0
 1396 02f2 94F84630 		ldrb	r3, [r4, #70]	@ zero_extendqisi2
 1397 02f6 84F84E30 		strb	r3, [r4, #78]
 1398              		.loc 1 67 0
 1399 02fa 2046     		mov	r0, r4
 1400 02fc FFF7FEFF 		bl	usb_lld_set_address
 1401              	.LVL113:
 1402              		.loc 1 68 0
 1403 0300 6368     		ldr	r3, [r4, #4]
 1404 0302 1B68     		ldr	r3, [r3]
 1405 0304 13B1     		cbz	r3, .L75
 1406 0306 0121     		movs	r1, #1
 1407 0308 2046     		mov	r0, r4
 1408 030a 9847     		blx	r3
 1409              	.LVL114:
 1410              	.L75:
 1411              		.loc 1 69 0
 1412 030c 0323     		movs	r3, #3
 1413 030e 94F84460 		ldrb	r6, [r4, #68]	@ zero_extendqisi2
 1414 0312 2370     		strb	r3, [r4]
 1415 0314 1DE7     		b	.L86
 1416              	.LVL115:
 1417              	.L140:
 1418              	.LBE334:
 1419              	.LBE333:
 1420              		.loc 1 207 0
 1421 0316 FFF7FEFF 		bl	usb_lld_clear_in
 1422              	.LVL116:
 1423 031a 94F84460 		ldrb	r6, [r4, #68]	@ zero_extendqisi2
 1424 031e 18E7     		b	.L86
 1425              	.LVL117:
ARM GAS  /var/folders/sv/kgmgr77579zbf78p2zlhkdfr0000gn/T//ccL7oYzt.s 			page 26


 1426              	.L142:
 1427              		.loc 1 223 0
 1428 0320 FFF7FEFF 		bl	usb_lld_stall_in
 1429              	.LVL118:
 1430 0324 94F84460 		ldrb	r6, [r4, #68]	@ zero_extendqisi2
 1431 0328 13E7     		b	.L86
 1432              	.L146:
 1433 032a 00BF     		.align	2
 1434              	.L145:
 1435 032c 00000000 		.word	.LANCHOR2
 1436 0330 00000000 		.word	.LANCHOR0
 1437 0334 00000000 		.word	.LANCHOR1
 1438              	.LBE335:
 1439              	.LBE362:
 1440              		.cfi_endproc
 1441              	.LFE274:
 1442              		.size	_usb_ep0setup, .-_usb_ep0setup
 1443              		.section	.text._usb_ep0in,"ax",%progbits
 1444              		.align	2
 1445              		.p2align 4,,15
 1446              		.global	_usb_ep0in
 1447              		.thumb
 1448              		.thumb_func
 1449              		.type	_usb_ep0in, %function
 1450              	_usb_ep0in:
 1451              	.LFB275:
 1452              		.loc 1 741 0
 1453              		.cfi_startproc
 1454              		@ args = 0, pretend = 0, frame = 0
 1455              		@ frame_needed = 0, uses_anonymous_args = 0
 1456              	.LVL119:
 1457              		.loc 1 745 0
 1458 0000 90F83430 		ldrb	r3, [r0, #52]	@ zero_extendqisi2
 1459              		.loc 1 741 0
 1460 0004 10B5     		push	{r4, lr}
 1461              		.cfi_def_cfa_offset 8
 1462              		.cfi_offset 4, -8
 1463              		.cfi_offset 14, -4
 1464              		.loc 1 741 0
 1465 0006 0446     		mov	r4, r0
 1466              		.loc 1 745 0
 1467 0008 062B     		cmp	r3, #6
 1468 000a 15D8     		bhi	.L147
 1469 000c DFE803F0 		tbb	[pc, r3]
 1470              	.L150:
 1471 0010 04       		.byte	(.L149-.L150)/2
 1472 0011 3B       		.byte	(.L151-.L150)/2
 1473 0012 1C       		.byte	(.L152-.L150)/2
 1474 0013 04       		.byte	(.L149-.L150)/2
 1475 0014 04       		.byte	(.L149-.L150)/2
 1476 0015 15       		.byte	(.L153-.L150)/2
 1477 0016 04       		.byte	(.L149-.L150)/2
 1478 0017 00       		.p2align 1
 1479              	.L149:
 1480              		.loc 1 790 0
 1481 0018 0021     		movs	r1, #0
 1482              	.LVL120:
ARM GAS  /var/folders/sv/kgmgr77579zbf78p2zlhkdfr0000gn/T//ccL7oYzt.s 			page 27


 1483 001a FFF7FEFF 		bl	usb_lld_stall_in
 1484              	.LVL121:
 1485              		.loc 1 791 0
 1486 001e 0021     		movs	r1, #0
 1487 0020 2046     		mov	r0, r4
 1488 0022 FFF7FEFF 		bl	usb_lld_stall_out
 1489              	.LVL122:
 1490              		.loc 1 792 0
 1491 0026 6368     		ldr	r3, [r4, #4]
 1492 0028 1B68     		ldr	r3, [r3]
 1493 002a 13B1     		cbz	r3, .L159
 1494              		.loc 1 792 0 is_stmt 0 discriminator 1
 1495 002c 0521     		movs	r1, #5
 1496 002e 2046     		mov	r0, r4
 1497 0030 9847     		blx	r3
 1498              	.LVL123:
 1499              	.L159:
 1500              		.loc 1 793 0 is_stmt 1
 1501 0032 0623     		movs	r3, #6
 1502 0034 84F83430 		strb	r3, [r4, #52]
 1503              	.L147:
 1504 0038 10BD     		pop	{r4, pc}
 1505              	.LVL124:
 1506              	.L153:
 1507              		.loc 1 775 0
 1508 003a 036C     		ldr	r3, [r0, #64]
 1509 003c 03B1     		cbz	r3, .L158
 1510              		.loc 1 776 0
 1511 003e 9847     		blx	r3
 1512              	.LVL125:
 1513              	.L158:
 1514              		.loc 1 778 0
 1515 0040 0023     		movs	r3, #0
 1516 0042 84F83430 		strb	r3, [r4, #52]
 1517              		.loc 1 779 0
 1518 0046 10BD     		pop	{r4, pc}
 1519              	.LVL126:
 1520              	.L152:
 1521 0048 C368     		ldr	r3, [r0, #12]
 1522              	.LVL127:
 1523              	.L155:
 1524              	.LBB363:
 1525              	.LBB364:
 1526              		.loc 1 401 0
 1527 004a 9A69     		ldr	r2, [r3, #24]
 1528              	.LBE364:
 1529              	.LBE363:
 1530              		.loc 1 763 0
 1531 004c 0321     		movs	r1, #3
 1532              	.LBB367:
 1533              	.LBB365:
 1534              		.loc 1 403 0
 1535 004e 0023     		movs	r3, #0
 1536              	.LBE365:
 1537              	.LBE367:
 1538              		.loc 1 763 0
 1539 0050 84F83410 		strb	r1, [r4, #52]
ARM GAS  /var/folders/sv/kgmgr77579zbf78p2zlhkdfr0000gn/T//ccL7oYzt.s 			page 28


 1540              	.LVL128:
 1541              	.LBB368:
 1542              	.LBB366:
 1543              		.loc 1 408 0
 1544 0054 2046     		mov	r0, r4
 1545 0056 1946     		mov	r1, r3
 1546              		.loc 1 403 0
 1547 0058 1370     		strb	r3, [r2]
 1548              		.loc 1 404 0
 1549 005a D360     		str	r3, [r2, #12]
 1550              		.loc 1 405 0
 1551 005c 5360     		str	r3, [r2, #4]
 1552              		.loc 1 406 0
 1553 005e 9360     		str	r3, [r2, #8]
 1554              		.loc 1 408 0
 1555 0060 FFF7FEFF 		bl	usb_lld_prepare_receive
 1556              	.LVL129:
 1557              	.LBE366:
 1558              	.LBE368:
 1559              	.LBB369:
 1560              	.LBB370:
 1561              	.LBB371:
 1562              	.LBB372:
 1563              	.LBB373:
 1564              	.LBB374:
 1565              		.loc 2 546 0
 1566 0064 2023     		movs	r3, #32
 1567              		.syntax unified
 1568              	@ 546 "ChibiOS_3.0.2/os/ext/CMSIS/include/core_cmFunc.h" 1
 1569 0066 83F31188 		MSR basepri, r3
 1570              	@ 0 "" 2
 1571              	.LVL130:
 1572              		.thumb
 1573              		.syntax unified
 1574              	.LBE374:
 1575              	.LBE373:
 1576              	.LBE372:
 1577              	.LBE371:
 1578              	.LBE370:
 1579              	.LBE369:
 1580              	.LBB375:
 1581              	.LBB376:
 1582              		.loc 1 511 0
 1583 006a 6389     		ldrh	r3, [r4, #10]
 1584 006c 13F00101 		ands	r1, r3, #1
 1585 0070 05D1     		bne	.L157
 1586              		.loc 1 515 0
 1587 0072 43F00103 		orr	r3, r3, #1
 1588 0076 6381     		strh	r3, [r4, #10]	@ movhi
 1589              		.loc 1 516 0
 1590 0078 2046     		mov	r0, r4
 1591 007a FFF7FEFF 		bl	usb_lld_start_out
 1592              	.LVL131:
 1593              	.L157:
 1594              	.LBE376:
 1595              	.LBE375:
 1596              	.LBB377:
ARM GAS  /var/folders/sv/kgmgr77579zbf78p2zlhkdfr0000gn/T//ccL7oYzt.s 			page 29


 1597              	.LBB378:
 1598              	.LBB379:
 1599              	.LBB380:
 1600              	.LBB381:
 1601              	.LBB382:
 1602              		.loc 2 546 0
 1603 007e 0023     		movs	r3, #0
 1604              		.syntax unified
 1605              	@ 546 "ChibiOS_3.0.2/os/ext/CMSIS/include/core_cmFunc.h" 1
 1606 0080 83F31188 		MSR basepri, r3
 1607              	@ 0 "" 2
 1608              	.LVL132:
 1609              		.thumb
 1610              		.syntax unified
 1611 0084 10BD     		pop	{r4, pc}
 1612              	.LVL133:
 1613              	.L151:
 1614              	.LBE382:
 1615              	.LBE381:
 1616              	.LBE380:
 1617              	.LBE379:
 1618              	.LBE378:
 1619              	.LBE377:
 1620              		.loc 1 751 0
 1621 0086 90F84B10 		ldrb	r1, [r0, #75]	@ zero_extendqisi2
 1622              	.LVL134:
 1623 008a 90F84A30 		ldrb	r3, [r0, #74]	@ zero_extendqisi2
 1624 008e C26B     		ldr	r2, [r0, #60]
 1625 0090 43EA0123 		orr	r3, r3, r1, lsl #8
 1626 0094 9342     		cmp	r3, r2
 1627              		.loc 1 752 0
 1628 0096 C368     		ldr	r3, [r0, #12]
 1629              		.loc 1 751 0
 1630 0098 D7D9     		bls	.L155
 1631              		.loc 1 751 0 is_stmt 0 discriminator 1
 1632 009a 188A     		ldrh	r0, [r3, #16]
 1633              	.LVL135:
 1634 009c B2FBF0F1 		udiv	r1, r2, r0
 1635              	.LVL136:
 1636 00a0 00FB1122 		mls	r2, r0, r1, r2
 1637 00a4 002A     		cmp	r2, #0
 1638 00a6 D0D1     		bne	.L155
 1639              	.LVL137:
 1640              	.LBB383:
 1641              	.LBB384:
 1642              		.loc 1 427 0 is_stmt 1
 1643 00a8 5B69     		ldr	r3, [r3, #20]
 1644              	.LVL138:
 1645              		.loc 1 434 0
 1646 00aa 1146     		mov	r1, r2
 1647              		.loc 1 429 0
 1648 00ac 1A70     		strb	r2, [r3]
 1649              	.LVL139:
 1650              		.loc 1 430 0
 1651 00ae DA60     		str	r2, [r3, #12]
 1652              		.loc 1 431 0
 1653 00b0 5A60     		str	r2, [r3, #4]
ARM GAS  /var/folders/sv/kgmgr77579zbf78p2zlhkdfr0000gn/T//ccL7oYzt.s 			page 30


 1654              		.loc 1 432 0
 1655 00b2 9A60     		str	r2, [r3, #8]
 1656              		.loc 1 434 0
 1657 00b4 2046     		mov	r0, r4
 1658 00b6 FFF7FEFF 		bl	usb_lld_prepare_transmit
 1659              	.LVL140:
 1660              	.LBE384:
 1661              	.LBE383:
 1662              	.LBB385:
 1663              	.LBB386:
 1664              	.LBB387:
 1665              	.LBB388:
 1666              	.LBB389:
 1667              	.LBB390:
 1668              		.loc 2 546 0
 1669 00ba 2023     		movs	r3, #32
 1670              		.syntax unified
 1671              	@ 546 "ChibiOS_3.0.2/os/ext/CMSIS/include/core_cmFunc.h" 1
 1672 00bc 83F31188 		MSR basepri, r3
 1673              	@ 0 "" 2
 1674              	.LVL141:
 1675              		.thumb
 1676              		.syntax unified
 1677              	.LBE390:
 1678              	.LBE389:
 1679              	.LBE388:
 1680              	.LBE387:
 1681              	.LBE386:
 1682              	.LBE385:
 1683              	.LBB391:
 1684              	.LBB392:
 1685              		.loc 1 539 0
 1686 00c0 2389     		ldrh	r3, [r4, #8]
 1687 00c2 13F00101 		ands	r1, r3, #1
 1688 00c6 05D1     		bne	.L156
 1689              		.loc 1 543 0
 1690 00c8 43F00103 		orr	r3, r3, #1
 1691 00cc 2381     		strh	r3, [r4, #8]	@ movhi
 1692              		.loc 1 544 0
 1693 00ce 2046     		mov	r0, r4
 1694 00d0 FFF7FEFF 		bl	usb_lld_start_in
 1695              	.LVL142:
 1696              	.L156:
 1697              	.LBE392:
 1698              	.LBE391:
 1699              	.LBB393:
 1700              	.LBB394:
 1701              	.LBB395:
 1702              	.LBB396:
 1703              	.LBB397:
 1704              	.LBB398:
 1705              		.loc 2 546 0
 1706 00d4 0023     		movs	r3, #0
 1707              		.syntax unified
 1708              	@ 546 "ChibiOS_3.0.2/os/ext/CMSIS/include/core_cmFunc.h" 1
 1709 00d6 83F31188 		MSR basepri, r3
 1710              	@ 0 "" 2
ARM GAS  /var/folders/sv/kgmgr77579zbf78p2zlhkdfr0000gn/T//ccL7oYzt.s 			page 31


 1711              	.LVL143:
 1712              		.thumb
 1713              		.syntax unified
 1714              	.LBE398:
 1715              	.LBE397:
 1716              	.LBE396:
 1717              	.LBE395:
 1718              	.LBE394:
 1719              	.LBE393:
 1720              		.loc 1 757 0
 1721 00da 0223     		movs	r3, #2
 1722 00dc 84F83430 		strb	r3, [r4, #52]
 1723              		.loc 1 758 0
 1724 00e0 10BD     		pop	{r4, pc}
 1725              		.cfi_endproc
 1726              	.LFE275:
 1727              		.size	_usb_ep0in, .-_usb_ep0in
 1728 00e2 00BF     		.section	.text._usb_ep0out,"ax",%progbits
 1729              		.align	2
 1730              		.p2align 4,,15
 1731              		.global	_usb_ep0out
 1732              		.thumb
 1733              		.thumb_func
 1734              		.type	_usb_ep0out, %function
 1735              	_usb_ep0out:
 1736              	.LFB276:
 1737              		.loc 1 810 0
 1738              		.cfi_startproc
 1739              		@ args = 0, pretend = 0, frame = 0
 1740              		@ frame_needed = 0, uses_anonymous_args = 0
 1741              	.LVL144:
 1742              		.loc 1 813 0
 1743 0000 90F83420 		ldrb	r2, [r0, #52]	@ zero_extendqisi2
 1744 0004 062A     		cmp	r2, #6
 1745 0006 0CD8     		bhi	.L184
 1746 0008 0123     		movs	r3, #1
 1747 000a 9340     		lsls	r3, r3, r2
 1748 000c 13F0670F 		tst	r3, #103
 1749              		.loc 1 810 0
 1750 0010 10B5     		push	{r4, lr}
 1751              		.cfi_def_cfa_offset 8
 1752              		.cfi_offset 4, -8
 1753              		.cfi_offset 14, -4
 1754 0012 0446     		mov	r4, r0
 1755 0014 12D1     		bne	.L169
 1756 0016 13F00802 		ands	r2, r3, #8
 1757 001a 03D1     		bne	.L170
 1758 001c DB06     		lsls	r3, r3, #27
 1759 001e 1ED4     		bmi	.L185
 1760              	.L167:
 1761 0020 10BD     		pop	{r4, pc}
 1762              	.L184:
 1763              		.cfi_def_cfa_offset 0
 1764              		.cfi_restore 4
 1765              		.cfi_restore 14
 1766 0022 7047     		bx	lr
 1767              	.L170:
ARM GAS  /var/folders/sv/kgmgr77579zbf78p2zlhkdfr0000gn/T//ccL7oYzt.s 			page 32


 1768              		.cfi_def_cfa_offset 8
 1769              		.cfi_offset 4, -8
 1770              		.cfi_offset 14, -4
 1771              		.loc 1 830 0
 1772 0024 C368     		ldr	r3, [r0, #12]
 1773 0026 9B69     		ldr	r3, [r3, #24]
 1774 0028 9B68     		ldr	r3, [r3, #8]
 1775 002a 002B     		cmp	r3, #0
 1776 002c F8D1     		bne	.L167
 1777              		.loc 1 834 0
 1778 002e 036C     		ldr	r3, [r0, #64]
 1779 0030 03B1     		cbz	r3, .L172
 1780              		.loc 1 835 0
 1781 0032 9847     		blx	r3
 1782              	.LVL145:
 1783              	.L172:
 1784              		.loc 1 837 0
 1785 0034 0023     		movs	r3, #0
 1786 0036 84F83430 		strb	r3, [r4, #52]
 1787              		.loc 1 838 0
 1788 003a 10BD     		pop	{r4, pc}
 1789              	.LVL146:
 1790              	.L169:
 1791              		.loc 1 850 0
 1792 003c 0021     		movs	r1, #0
 1793              	.LVL147:
 1794 003e FFF7FEFF 		bl	usb_lld_stall_in
 1795              	.LVL148:
 1796              		.loc 1 851 0
 1797 0042 0021     		movs	r1, #0
 1798 0044 2046     		mov	r0, r4
 1799 0046 FFF7FEFF 		bl	usb_lld_stall_out
 1800              	.LVL149:
 1801              		.loc 1 852 0
 1802 004a 6368     		ldr	r3, [r4, #4]
 1803 004c 1B68     		ldr	r3, [r3]
 1804 004e 13B1     		cbz	r3, .L173
 1805              		.loc 1 852 0 is_stmt 0 discriminator 1
 1806 0050 0521     		movs	r1, #5
 1807 0052 2046     		mov	r0, r4
 1808 0054 9847     		blx	r3
 1809              	.LVL150:
 1810              	.L173:
 1811              		.loc 1 853 0 is_stmt 1
 1812 0056 0623     		movs	r3, #6
 1813 0058 84F83430 		strb	r3, [r4, #52]
 1814 005c 10BD     		pop	{r4, pc}
 1815              	.LVL151:
 1816              	.L185:
 1817              	.LBB399:
 1818              	.LBB400:
 1819              		.loc 1 427 0
 1820 005e C368     		ldr	r3, [r0, #12]
 1821 0060 5B69     		ldr	r3, [r3, #20]
 1822              	.LBE400:
 1823              	.LBE399:
 1824              		.loc 1 816 0
ARM GAS  /var/folders/sv/kgmgr77579zbf78p2zlhkdfr0000gn/T//ccL7oYzt.s 			page 33


 1825 0062 0521     		movs	r1, #5
 1826              	.LVL152:
 1827 0064 80F83410 		strb	r1, [r0, #52]
 1828              	.LVL153:
 1829              	.LBB402:
 1830              	.LBB401:
 1831              		.loc 1 429 0
 1832 0068 1A70     		strb	r2, [r3]
 1833              		.loc 1 430 0
 1834 006a DA60     		str	r2, [r3, #12]
 1835              		.loc 1 431 0
 1836 006c 5A60     		str	r2, [r3, #4]
 1837              		.loc 1 432 0
 1838 006e 9A60     		str	r2, [r3, #8]
 1839              		.loc 1 434 0
 1840 0070 1146     		mov	r1, r2
 1841 0072 FFF7FEFF 		bl	usb_lld_prepare_transmit
 1842              	.LVL154:
 1843              	.LBE401:
 1844              	.LBE402:
 1845              	.LBB403:
 1846              	.LBB404:
 1847              	.LBB405:
 1848              	.LBB406:
 1849              	.LBB407:
 1850              	.LBB408:
 1851              		.loc 2 546 0
 1852 0076 2023     		movs	r3, #32
 1853              		.syntax unified
 1854              	@ 546 "ChibiOS_3.0.2/os/ext/CMSIS/include/core_cmFunc.h" 1
 1855 0078 83F31188 		MSR basepri, r3
 1856              	@ 0 "" 2
 1857              	.LVL155:
 1858              		.thumb
 1859              		.syntax unified
 1860              	.LBE408:
 1861              	.LBE407:
 1862              	.LBE406:
 1863              	.LBE405:
 1864              	.LBE404:
 1865              	.LBE403:
 1866              	.LBB409:
 1867              	.LBB410:
 1868              		.loc 1 539 0
 1869 007c 2389     		ldrh	r3, [r4, #8]
 1870 007e 13F00101 		ands	r1, r3, #1
 1871 0082 03D0     		beq	.L186
 1872              	.L171:
 1873              	.LVL156:
 1874              	.LBE410:
 1875              	.LBE409:
 1876              	.LBB412:
 1877              	.LBB413:
 1878              	.LBB414:
 1879              	.LBB415:
 1880              	.LBB416:
 1881              	.LBB417:
ARM GAS  /var/folders/sv/kgmgr77579zbf78p2zlhkdfr0000gn/T//ccL7oYzt.s 			page 34


 1882              		.loc 2 546 0
 1883 0084 0023     		movs	r3, #0
 1884              		.syntax unified
 1885              	@ 546 "ChibiOS_3.0.2/os/ext/CMSIS/include/core_cmFunc.h" 1
 1886 0086 83F31188 		MSR basepri, r3
 1887              	@ 0 "" 2
 1888              	.LVL157:
 1889              		.thumb
 1890              		.syntax unified
 1891 008a 10BD     		pop	{r4, pc}
 1892              	.LVL158:
 1893              	.L186:
 1894              	.LBE417:
 1895              	.LBE416:
 1896              	.LBE415:
 1897              	.LBE414:
 1898              	.LBE413:
 1899              	.LBE412:
 1900              	.LBB418:
 1901              	.LBB411:
 1902              		.loc 1 543 0
 1903 008c 43F00103 		orr	r3, r3, #1
 1904 0090 2381     		strh	r3, [r4, #8]	@ movhi
 1905              		.loc 1 544 0
 1906 0092 2046     		mov	r0, r4
 1907 0094 FFF7FEFF 		bl	usb_lld_start_in
 1908              	.LVL159:
 1909 0098 F4E7     		b	.L171
 1910              	.LBE411:
 1911              	.LBE418:
 1912              		.cfi_endproc
 1913              	.LFE276:
 1914              		.size	_usb_ep0out, .-_usb_ep0out
 1915 009a 00BF     		.section	.rodata.zero_status,"a",%progbits
 1916              		.align	2
 1917              		.set	.LANCHOR0,. + 0
 1918              		.type	zero_status, %object
 1919              		.size	zero_status, 2
 1920              	zero_status:
 1921 0000 0000     		.space	2
 1922              		.section	.rodata.active_status,"a",%progbits
 1923              		.align	2
 1924              		.set	.LANCHOR2,. + 0
 1925              		.type	active_status, %object
 1926              		.size	active_status, 2
 1927              	active_status:
 1928 0000 0000     		.space	2
 1929              		.section	.rodata.halted_status,"a",%progbits
 1930              		.align	2
 1931              		.set	.LANCHOR1,. + 0
 1932              		.type	halted_status, %object
 1933              		.size	halted_status, 2
 1934              	halted_status:
 1935 0000 01       		.byte	1
 1936 0001 00       		.byte	0
 1937              		.text
 1938              	.Letext0:
ARM GAS  /var/folders/sv/kgmgr77579zbf78p2zlhkdfr0000gn/T//ccL7oYzt.s 			page 35


 1939              		.file 3 "/usr/local/Cellar/gcc-arm-none-eabi/20160928/lib/gcc/arm-none-eabi/5.4.1/include/stddef.h
 1940              		.file 4 "/usr/local/Cellar/gcc-arm-none-eabi/20160928/arm-none-eabi/include/machine/_default_types
 1941              		.file 5 "/usr/local/Cellar/gcc-arm-none-eabi/20160928/arm-none-eabi/include/sys/_stdint.h"
 1942              		.file 6 "ChibiOS_3.0.2/os/rt/ports/ARMCMx/compilers/GCC/chtypes.h"
 1943              		.file 7 "ChibiOS_3.0.2/os/rt/include/chsystypes.h"
 1944              		.file 8 "ChibiOS_3.0.2/os/rt/include/chschd.h"
 1945              		.file 9 "ChibiOS_3.0.2/os/rt/ports/ARMCMx/chcore.h"
 1946              		.file 10 "ChibiOS_3.0.2/os/rt/ports/ARMCMx/chcore_v7m.h"
 1947              		.file 11 "ChibiOS_3.0.2/os/rt/include/chtm.h"
 1948              		.file 12 "ChibiOS_3.0.2/os/rt/include/chsem.h"
 1949              		.file 13 "ChibiOS_3.0.2/os/rt/include/chmtx.h"
 1950              		.file 14 "ChibiOS_3.0.2/os/rt/include/chqueues.h"
 1951              		.file 15 "ChibiOS_3.0.2/os/hal/include/usb.h"
 1952              		.file 16 "ChibiOS_3.0.2/os/hal/ports/STM32/LLD/OTGv1/usb_lld.h"
 1953              		.file 17 "ChibiOS_3.0.2/os/hal/ports/STM32/LLD/OTGv1/stm32_otg.h"
 1954              		.file 18 "ChibiOS_3.0.2/os/rt/include/chsys.h"
 1955              		.file 19 "ChibiOS_3.0.2/os/hal/osal/rt/osal.h"
 1956              		.file 20 "ChibiOS_3.0.2/os/ext/CMSIS/include/core_cm4.h"