ARM GAS  /var/folders/sv/kgmgr77579zbf78p2zlhkdfr0000gn/T//ccRS1V9P.s 			page 1


   1              		.syntax unified
   2              		.cpu cortex-m4
   3              		.eabi_attribute 27, 1
   4              		.eabi_attribute 28, 1
   5              		.fpu fpv4-sp-d16
   6              		.eabi_attribute 20, 1
   7              		.eabi_attribute 21, 1
   8              		.eabi_attribute 23, 3
   9              		.eabi_attribute 24, 1
  10              		.eabi_attribute 25, 1
  11              		.eabi_attribute 26, 1
  12              		.eabi_attribute 30, 2
  13              		.eabi_attribute 34, 1
  14              		.eabi_attribute 18, 4
  15              		.thumb
  16              		.syntax unified
  17              		.file	"ws2811.c"
  18              		.text
  19              	.Ltext0:
  20              		.cfi_sections	.debug_frame
  21              		.section	.text.rgb_to_local,"ax",%progbits
  22              		.align	2
  23              		.p2align 4,,15
  24              		.thumb
  25              		.thumb_func
  26              		.type	rgb_to_local, %function
  27              	rgb_to_local:
  28              	.LFB263:
  29              		.file 1 "ws2811.c"
  30              		.loc 1 239 0
  31              		.cfi_startproc
  32              		@ args = 0, pretend = 0, frame = 0
  33              		@ frame_needed = 0, uses_anonymous_args = 0
  34              	.LVL0:
  35              		.loc 1 244 0
  36 0000 104B     		ldr	r3, .L3
  37 0002 1B68     		ldr	r3, [r3]
  38              		.loc 1 239 0
  39 0004 30B5     		push	{r4, r5, lr}
  40              		.cfi_def_cfa_offset 12
  41              		.cfi_offset 4, -12
  42              		.cfi_offset 5, -8
  43              		.cfi_offset 14, -4
  44              		.loc 1 244 0
  45 0006 C0F30741 		ubfx	r1, r0, #16, #8
  46              		.loc 1 248 0
  47 000a 0F4D     		ldr	r5, .L3+4
  48 000c 0F4C     		ldr	r4, .L3+8
  49              	.LVL1:
  50              		.loc 1 244 0
  51 000e 03FB01F1 		mul	r1, r3, r1
  52              	.LVL2:
  53              		.loc 1 245 0
  54 0012 C0F30722 		ubfx	r2, r0, #8, #8
  55              		.loc 1 248 0
  56 0016 A5FB01E1 		umull	lr, r1, r5, r1
  57              	.LVL3:
ARM GAS  /var/folders/sv/kgmgr77579zbf78p2zlhkdfr0000gn/T//ccRS1V9P.s 			page 2


  58              		.loc 1 246 0
  59 001a C0B2     		uxtb	r0, r0
  60              	.LVL4:
  61              		.loc 1 245 0
  62 001c 03FB02F2 		mul	r2, r3, r2
  63              	.LVL5:
  64              		.loc 1 248 0
  65 0020 4909     		lsrs	r1, r1, #5
  66              		.loc 1 249 0
  67 0022 A5FB02E2 		umull	lr, r2, r5, r2
  68              	.LVL6:
  69              		.loc 1 246 0
  70 0026 03FB00F3 		mul	r3, r3, r0
  71              	.LVL7:
  72              		.loc 1 250 0
  73 002a A5FB0303 		umull	r0, r3, r5, r3
  74              	.LVL8:
  75              		.loc 1 249 0
  76 002e 5209     		lsrs	r2, r2, #5
  77              		.loc 1 248 0
  78 0030 605C     		ldrb	r0, [r4, r1]	@ zero_extendqisi2
  79              	.LVL9:
  80              		.loc 1 249 0
  81 0032 A15C     		ldrb	r1, [r4, r2]	@ zero_extendqisi2
  82              	.LVL10:
  83              		.loc 1 250 0
  84 0034 5B09     		lsrs	r3, r3, #5
  85              		.loc 1 252 0
  86 0036 0202     		lsls	r2, r0, #8
  87              		.loc 1 250 0
  88 0038 E05C     		ldrb	r0, [r4, r3]	@ zero_extendqisi2
  89              	.LVL11:
  90              		.loc 1 252 0
  91 003a 42EA0143 		orr	r3, r2, r1, lsl #16
  92              		.loc 1 253 0
  93 003e 1843     		orrs	r0, r0, r3
  94              	.LVL12:
  95 0040 30BD     		pop	{r4, r5, pc}
  96              	.LVL13:
  97              	.L4:
  98 0042 00BF     		.align	2
  99              	.L3:
 100 0044 00000000 		.word	.LANCHOR0
 101 0048 1F85EB51 		.word	1374389535
 102 004c 00000000 		.word	.LANCHOR1
 103              		.cfi_endproc
 104              	.LFE263:
 105              		.size	rgb_to_local, .-rgb_to_local
 106              		.section	.text.ws2811_set_led_color.part.0,"ax",%progbits
 107              		.align	2
 108              		.p2align 4,,15
 109              		.thumb
 110              		.thumb_func
 111              		.type	ws2811_set_led_color.part.0, %function
 112              	ws2811_set_led_color.part.0:
 113              	.LFB264:
 114              		.loc 1 170 0
ARM GAS  /var/folders/sv/kgmgr77579zbf78p2zlhkdfr0000gn/T//ccRS1V9P.s 			page 3


 115              		.cfi_startproc
 116              		@ args = 0, pretend = 0, frame = 0
 117              		@ frame_needed = 0, uses_anonymous_args = 0
 118              	.LVL14:
 119 0000 10B5     		push	{r4, lr}
 120              		.cfi_def_cfa_offset 8
 121              		.cfi_offset 4, -8
 122              		.cfi_offset 14, -4
 123              	.LBB9:
 124              		.loc 1 172 0
 125 0002 0E4B     		ldr	r3, .L12
 126              	.LBE9:
 127              		.loc 1 170 0
 128 0004 0446     		mov	r4, r0
 129              	.LBB10:
 130              		.loc 1 174 0
 131 0006 0846     		mov	r0, r1
 132              	.LVL15:
 133              		.loc 1 172 0
 134 0008 43F82410 		str	r1, [r3, r4, lsl #2]
 135 000c 04EB4404 		add	r4, r4, r4, lsl #1
 136              	.LVL16:
 137              		.loc 1 174 0
 138 0010 FFF7FEFF 		bl	rgb_to_local
 139              	.LVL17:
 140 0014 2401     		lsls	r4, r4, #4
 141 0016 0A4B     		ldr	r3, .L12+4
 142 0018 04F13002 		add	r2, r4, #48
 143 001c 1A44     		add	r2, r2, r3
 144              		.loc 1 179 0
 145 001e 5321     		movs	r1, #83
 146 0020 2344     		add	r3, r3, r4
 147              		.loc 1 181 0
 148 0022 1424     		movs	r4, #20
 149              	.LVL18:
 150              	.L8:
 151              		.loc 1 178 0
 152 0024 10F4000F 		tst	r0, #8388608
 153              		.loc 1 179 0
 154 0028 14BF     		ite	ne
 155 002a 1980     		strhne	r1, [r3]	@ movhi
 156              		.loc 1 181 0
 157 002c 1C80     		strheq	r4, [r3]	@ movhi
 158 002e 0233     		adds	r3, r3, #2
 159              		.loc 1 177 0
 160 0030 9342     		cmp	r3, r2
 161              		.loc 1 183 0
 162 0032 4FEA4000 		lsl	r0, r0, #1
 163              	.LVL19:
 164              		.loc 1 177 0
 165 0036 F5D1     		bne	.L8
 166              	.LBE10:
 167              		.loc 1 186 0
 168 0038 10BD     		pop	{r4, pc}
 169              	.L13:
 170 003a 00BF     		.align	2
 171              	.L12:
ARM GAS  /var/folders/sv/kgmgr77579zbf78p2zlhkdfr0000gn/T//ccRS1V9P.s 			page 4


 172 003c 00000000 		.word	.LANCHOR2
 173 0040 00000000 		.word	.LANCHOR3
 174              		.cfi_endproc
 175              	.LFE264:
 176              		.size	ws2811_set_led_color.part.0, .-ws2811_set_led_color.part.0
 177              		.section	.text.ws2811_init,"ax",%progbits
 178              		.align	2
 179              		.p2align 4,,15
 180              		.global	ws2811_init
 181              		.thumb
 182              		.thumb_func
 183              		.type	ws2811_init, %function
 184              	ws2811_init:
 185              	.LFB256:
 186              		.loc 1 43 0
 187              		.cfi_startproc
 188              		@ args = 0, pretend = 0, frame = 96
 189              		@ frame_needed = 0, uses_anonymous_args = 0
 190 0000 2DE9F041 		push	{r4, r5, r6, r7, r8, lr}
 191              		.cfi_def_cfa_offset 24
 192              		.cfi_offset 4, -24
 193              		.cfi_offset 5, -20
 194              		.cfi_offset 6, -16
 195              		.cfi_offset 7, -12
 196              		.cfi_offset 8, -8
 197              		.cfi_offset 14, -4
 198 0004 2DED028B 		vpush.64	{d8}
 199              		.cfi_def_cfa_offset 32
 200              		.cfi_offset 80, -32
 201              		.cfi_offset 81, -28
 202              		.loc 1 48 0
 203 0008 594B     		ldr	r3, .L28
 204 000a 5A4F     		ldr	r7, .L28+4
 205 000c 6422     		movs	r2, #100
 206 000e 1A60     		str	r2, [r3]
 207              	.LVL20:
 208              		.loc 1 43 0
 209 0010 98B0     		sub	sp, sp, #96
 210              		.cfi_def_cfa_offset 128
 211 0012 07F17401 		add	r1, r7, #116
 212              		.loc 1 48 0
 213 0016 3B46     		mov	r3, r7
 214              		.loc 1 54 0
 215 0018 0022     		movs	r2, #0
 216              	.LVL21:
 217              	.L15:
 218              		.loc 1 54 0 is_stmt 0 discriminator 3
 219 001a 43F8042F 		str	r2, [r3, #4]!
 220              		.loc 1 53 0 is_stmt 1 discriminator 3
 221 001e 9942     		cmp	r1, r3
 222 0020 FBD1     		bne	.L15
 223 0022 554C     		ldr	r4, .L28+8
 224              	.LBB11:
 225              		.loc 1 64 0
 226 0024 1426     		movs	r6, #20
 227 0026 04F5AE68 		add	r8, r4, #1392
 228              		.loc 1 62 0
ARM GAS  /var/folders/sv/kgmgr77579zbf78p2zlhkdfr0000gn/T//ccRS1V9P.s 			page 5


 229 002a 5325     		movs	r5, #83
 230              	.L19:
 231              		.loc 1 58 0
 232 002c 57F8040F 		ldr	r0, [r7, #4]!
 233 0030 FFF7FEFF 		bl	rgb_to_local
 234              	.LVL22:
 235 0034 A4F13003 		sub	r3, r4, #48
 236              	.LVL23:
 237              	.L18:
 238              		.loc 1 61 0
 239 0038 0202     		lsls	r2, r0, #8
 240              		.loc 1 62 0
 241 003a 4CBF     		ite	mi
 242 003c 1D80     		strhmi	r5, [r3]	@ movhi
 243              		.loc 1 64 0
 244 003e 1E80     		strhpl	r6, [r3]	@ movhi
 245 0040 0233     		adds	r3, r3, #2
 246              		.loc 1 60 0
 247 0042 9C42     		cmp	r4, r3
 248              		.loc 1 66 0
 249 0044 4FEA4000 		lsl	r0, r0, #1
 250              	.LVL24:
 251              		.loc 1 60 0
 252 0048 F6D1     		bne	.L18
 253 004a 3034     		adds	r4, r4, #48
 254              	.LBE11:
 255              		.loc 1 57 0 discriminator 2
 256 004c 4445     		cmp	r4, r8
 257 004e EDD1     		bne	.L19
 258 0050 4A4B     		ldr	r3, .L28+12
 259              		.loc 1 73 0
 260 0052 0021     		movs	r1, #0
 261 0054 03F16402 		add	r2, r3, #100
 262              	.L20:
 263              		.loc 1 73 0 is_stmt 0 discriminator 3
 264 0058 23F8021F 		strh	r1, [r3, #2]!	@ movhi
 265              		.loc 1 72 0 is_stmt 1 discriminator 3
 266 005c 9342     		cmp	r3, r2
 267 005e FBD1     		bne	.L20
 268 0060 474D     		ldr	r5, .L28+16
 269              	.LBB12:
 270              		.loc 1 78 0
 271 0062 9FED488A 		vldr.32	s16, .L28+20
 272              	.LBE12:
 273              		.loc 1 72 0
 274 0066 0024     		movs	r4, #0
 275              	.LVL25:
 276              	.L21:
 277              	.LBB13:
 278              		.loc 1 78 0 discriminator 3
 279 0068 07EE904A 		vmov	s15, r4	@ int
 280 006c B8EEE70A 		vcvt.f32.s32	s0, s15
 281 0070 DFED450A 		vldr.32	s1, .L28+24
 282 0074 80EE080A 		vdiv.f32	s0, s0, s16
 283 0078 FFF7FEFF 		bl	powf
 284              	.LVL26:
 285              		.loc 1 77 0 discriminator 3
ARM GAS  /var/folders/sv/kgmgr77579zbf78p2zlhkdfr0000gn/T//ccRS1V9P.s 			page 6


 286 007c 0134     		adds	r4, r4, #1
 287              	.LVL27:
 288              		.loc 1 78 0 discriminator 3
 289 007e 20EE080A 		vmul.f32	s0, s0, s16
 290 0082 FFF7FEFF 		bl	roundf
 291              	.LVL28:
 292 0086 FDEEC07A 		vcvt.s32.f32	s15, s0
 293              		.loc 1 77 0 discriminator 3
 294 008a B4F5807F 		cmp	r4, #256
 295              		.loc 1 78 0 discriminator 3
 296 008e 17EE903A 		vmov	r3, s15	@ int
 297 0092 05F8013F 		strb	r3, [r5, #1]!
 298              		.loc 1 77 0 discriminator 3
 299 0096 E7D1     		bne	.L21
 300              	.LBE13:
 301              		.loc 1 82 0
 302 0098 4FF48772 		mov	r2, #270
 303 009c 8021     		movs	r1, #128
 304 009e 3B48     		ldr	r0, .L28+28
 305              		.loc 1 104 0
 306 00a0 3B4F     		ldr	r7, .L28+32
 307              		.loc 1 82 0
 308 00a2 FFF7FEFF 		bl	_pal_lld_setgroupmode
 309              	.LVL29:
 310              		.loc 1 94 0
 311 00a6 0121     		movs	r1, #1
 312 00a8 4FF40010 		mov	r0, #2097152
 313 00ac FFF7FEFF 		bl	RCC_AHB1PeriphClockCmd
 314              	.LVL30:
 315              		.loc 1 97 0
 316 00b0 3848     		ldr	r0, .L28+36
 317 00b2 FFF7FEFF 		bl	DMA_DeInit
 318              	.LVL31:
 319              		.loc 1 98 0
 320 00b6 3849     		ldr	r1, .L28+40
 321              		.loc 1 111 0
 322 00b8 1294     		str	r4, [sp, #72]
 323              		.loc 1 98 0
 324 00ba 0A91     		str	r1, [sp, #40]
 325              		.loc 1 103 0
 326 00bc 4FF08064 		mov	r4, #67108864
 327              	.LVL32:
 328              		.loc 1 105 0
 329 00c0 4022     		movs	r2, #64
 330              		.loc 1 106 0
 331 00c2 40F2EA23 		movw	r3, #746
 332              		.loc 1 109 0
 333 00c6 4FF40061 		mov	r1, #2048
 334              		.loc 1 107 0
 335 00ca 0025     		movs	r5, #0
 336              		.loc 1 108 0
 337 00cc 4FF48066 		mov	r6, #1024
 338              		.loc 1 103 0
 339 00d0 0994     		str	r4, [sp, #36]
 340              		.loc 1 105 0
 341 00d2 0C92     		str	r2, [sp, #48]
 342              		.loc 1 106 0
ARM GAS  /var/folders/sv/kgmgr77579zbf78p2zlhkdfr0000gn/T//ccRS1V9P.s 			page 7


 343 00d4 0D93     		str	r3, [sp, #52]
 344              		.loc 1 112 0
 345 00d6 4FF40032 		mov	r2, #131072
 346              		.loc 1 114 0
 347 00da 0323     		movs	r3, #3
 348              		.loc 1 109 0
 349 00dc 1091     		str	r1, [sp, #64]
 350              		.loc 1 119 0
 351 00de 2D48     		ldr	r0, .L28+36
 352              		.loc 1 112 0
 353 00e0 1392     		str	r2, [sp, #76]
 354              		.loc 1 119 0
 355 00e2 09A9     		add	r1, sp, #36
 356              		.loc 1 110 0
 357 00e4 4FF40054 		mov	r4, #8192
 358              		.loc 1 114 0
 359 00e8 1593     		str	r3, [sp, #84]
 360              		.loc 1 110 0
 361 00ea 1194     		str	r4, [sp, #68]
 362              		.loc 1 104 0
 363 00ec 0B97     		str	r7, [sp, #44]
 364              		.loc 1 107 0
 365 00ee 0E95     		str	r5, [sp, #56]
 366              		.loc 1 113 0
 367 00f0 1495     		str	r5, [sp, #80]
 368              		.loc 1 115 0
 369 00f2 1695     		str	r5, [sp, #88]
 370              		.loc 1 116 0
 371 00f4 1795     		str	r5, [sp, #92]
 372              		.loc 1 108 0
 373 00f6 0F96     		str	r6, [sp, #60]
 374              		.loc 1 119 0
 375 00f8 FFF7FEFF 		bl	DMA_Init
 376              	.LVL33:
 377              		.loc 1 124 0
 378 00fc 0121     		movs	r1, #1
 379 00fe 0420     		movs	r0, #4
 380 0100 FFF7FEFF 		bl	RCC_APB1PeriphClockCmd
 381              	.LVL34:
 382              		.loc 1 129 0
 383 0104 6823     		movs	r3, #104
 384              		.loc 1 133 0
 385 0106 01A9     		add	r1, sp, #4
 386 0108 2448     		ldr	r0, .L28+44
 387              		.loc 1 129 0
 388 010a 0293     		str	r3, [sp, #8]
 389              		.loc 1 137 0
 390 010c 0124     		movs	r4, #1
 391              		.loc 1 127 0
 392 010e ADF80450 		strh	r5, [sp, #4]	@ movhi
 393              		.loc 1 128 0
 394 0112 ADF80650 		strh	r5, [sp, #6]	@ movhi
 395              		.loc 1 130 0
 396 0116 ADF80C50 		strh	r5, [sp, #12]	@ movhi
 397              		.loc 1 131 0
 398 011a 8DF80E50 		strb	r5, [sp, #14]
 399              		.loc 1 133 0
ARM GAS  /var/folders/sv/kgmgr77579zbf78p2zlhkdfr0000gn/T//ccRS1V9P.s 			page 8


 400 011e FFF7FEFF 		bl	TIM_TimeBaseInit
 401              	.LVL35:
 402              		.loc 1 136 0
 403 0122 6023     		movs	r3, #96
 404              		.loc 1 138 0
 405 0124 3A88     		ldrh	r2, [r7]
 406              		.loc 1 142 0
 407 0126 1D48     		ldr	r0, .L28+44
 408              		.loc 1 136 0
 409 0128 ADF81030 		strh	r3, [sp, #16]	@ movhi
 410              		.loc 1 142 0
 411 012c 04A9     		add	r1, sp, #16
 412              		.loc 1 138 0
 413 012e 0692     		str	r2, [sp, #24]
 414              		.loc 1 139 0
 415 0130 ADF81C50 		strh	r5, [sp, #28]	@ movhi
 416              		.loc 1 137 0
 417 0134 ADF81240 		strh	r4, [sp, #18]	@ movhi
 418              		.loc 1 142 0
 419 0138 FFF7FEFF 		bl	TIM_OC2Init
 420              	.LVL36:
 421              		.loc 1 143 0
 422 013c 0821     		movs	r1, #8
 423 013e 1748     		ldr	r0, .L28+44
 424 0140 FFF7FEFF 		bl	TIM_OC2PreloadConfig
 425              	.LVL37:
 426              		.loc 1 150 0
 427 0144 2146     		mov	r1, r4
 428 0146 1548     		ldr	r0, .L28+44
 429 0148 FFF7FEFF 		bl	TIM_Cmd
 430              	.LVL38:
 431              		.loc 1 154 0
 432 014c 2146     		mov	r1, r4
 433 014e 1148     		ldr	r0, .L28+36
 434 0150 FFF7FEFF 		bl	DMA_Cmd
 435              	.LVL39:
 436              		.loc 1 161 0
 437 0154 2246     		mov	r2, r4
 438 0156 3146     		mov	r1, r6
 439 0158 1048     		ldr	r0, .L28+44
 440 015a FFF7FEFF 		bl	TIM_DMACmd
 441              	.LVL40:
 442              		.loc 1 167 0
 443 015e 2146     		mov	r1, r4
 444 0160 0E48     		ldr	r0, .L28+44
 445 0162 FFF7FEFF 		bl	TIM_CtrlPWMOutputs
 446              	.LVL41:
 447              		.loc 1 168 0
 448 0166 18B0     		add	sp, sp, #96
 449              		.cfi_def_cfa_offset 32
 450              		@ sp needed
 451 0168 BDEC028B 		vldm	sp!, {d8}
 452              		.cfi_restore 80
 453              		.cfi_restore 81
 454              		.cfi_def_cfa_offset 24
 455 016c BDE8F081 		pop	{r4, r5, r6, r7, r8, pc}
 456              	.L29:
ARM GAS  /var/folders/sv/kgmgr77579zbf78p2zlhkdfr0000gn/T//ccRS1V9P.s 			page 9


 457              		.align	2
 458              	.L28:
 459 0170 00000000 		.word	.LANCHOR0
 460 0174 FCFFFFFF 		.word	.LANCHOR2-4
 461 0178 30000000 		.word	.LANCHOR3+48
 462 017c 6C050000 		.word	.LANCHOR3+1388
 463 0180 FFFFFFFF 		.word	.LANCHOR1-1
 464 0184 00007F43 		.word	1132396544
 465 0188 E4380E40 		.word	1074673892
 466 018c 00040240 		.word	1073873920
 467 0190 00000000 		.word	.LANCHOR3
 468 0194 58600240 		.word	1073897560
 469 0198 38080040 		.word	1073743928
 470 019c 00080040 		.word	1073743872
 471              		.cfi_endproc
 472              	.LFE256:
 473              		.size	ws2811_init, .-ws2811_init
 474              		.section	.text.ws2811_set_led_color,"ax",%progbits
 475              		.align	2
 476              		.p2align 4,,15
 477              		.global	ws2811_set_led_color
 478              		.thumb
 479              		.thumb_func
 480              		.type	ws2811_set_led_color, %function
 481              	ws2811_set_led_color:
 482              	.LFB257:
 483              		.loc 1 170 0
 484              		.cfi_startproc
 485              		@ args = 0, pretend = 0, frame = 0
 486              		@ frame_needed = 0, uses_anonymous_args = 0
 487              		@ link register save eliminated.
 488              	.LVL42:
 489              		.loc 1 171 0
 490 0000 1B28     		cmp	r0, #27
 491 0002 01D8     		bhi	.L30
 492 0004 FFF7FEBF 		b	ws2811_set_led_color.part.0
 493              	.LVL43:
 494              	.L30:
 495 0008 7047     		bx	lr
 496              		.cfi_endproc
 497              	.LFE257:
 498              		.size	ws2811_set_led_color, .-ws2811_set_led_color
 499 000a 00BF     		.section	.text.ws2811_get_led_color,"ax",%progbits
 500              		.align	2
 501              		.p2align 4,,15
 502              		.global	ws2811_get_led_color
 503              		.thumb
 504              		.thumb_func
 505              		.type	ws2811_get_led_color, %function
 506              	ws2811_get_led_color:
 507              	.LFB258:
 508              		.loc 1 188 0
 509              		.cfi_startproc
 510              		@ args = 0, pretend = 0, frame = 0
 511              		@ frame_needed = 0, uses_anonymous_args = 0
 512              		@ link register save eliminated.
 513              	.LVL44:
ARM GAS  /var/folders/sv/kgmgr77579zbf78p2zlhkdfr0000gn/T//ccRS1V9P.s 			page 10


 514              		.loc 1 189 0
 515 0000 1B28     		cmp	r0, #27
 516              		.loc 1 190 0
 517 0002 9ABF     		itte	ls
 518 0004 024B     		ldrls	r3, .L35
 519 0006 53F82000 		ldrls	r0, [r3, r0, lsl #2]
 520              	.LVL45:
 521              		.loc 1 193 0
 522 000a 0020     		movhi	r0, #0
 523              		.loc 1 194 0
 524 000c 7047     		bx	lr
 525              	.L36:
 526 000e 00BF     		.align	2
 527              	.L35:
 528 0010 00000000 		.word	.LANCHOR2
 529              		.cfi_endproc
 530              	.LFE258:
 531              		.size	ws2811_get_led_color, .-ws2811_get_led_color
 532              		.section	.text.ws2811_all_off,"ax",%progbits
 533              		.align	2
 534              		.p2align 4,,15
 535              		.global	ws2811_all_off
 536              		.thumb
 537              		.thumb_func
 538              		.type	ws2811_all_off, %function
 539              	ws2811_all_off:
 540              	.LFB259:
 541              		.loc 1 196 0
 542              		.cfi_startproc
 543              		@ args = 0, pretend = 0, frame = 0
 544              		@ frame_needed = 0, uses_anonymous_args = 0
 545              		@ link register save eliminated.
 546              	.LVL46:
 547 0000 084B     		ldr	r3, .L42
 548              		.loc 1 200 0
 549 0002 0021     		movs	r1, #0
 550 0004 03F17002 		add	r2, r3, #112
 551              	.LVL47:
 552              	.L38:
 553              		.loc 1 200 0 is_stmt 0 discriminator 3
 554 0008 43F8041F 		str	r1, [r3, #4]!
 555              		.loc 1 199 0 is_stmt 1 discriminator 3
 556 000c 9342     		cmp	r3, r2
 557 000e FBD1     		bne	.L38
 558 0010 054B     		ldr	r3, .L42+4
 559              		.loc 1 204 0
 560 0012 1421     		movs	r1, #20
 561 0014 03F5A862 		add	r2, r3, #1344
 562              	.L39:
 563              		.loc 1 204 0 is_stmt 0 discriminator 3
 564 0018 23F8021F 		strh	r1, [r3, #2]!	@ movhi
 565              		.loc 1 203 0 is_stmt 1 discriminator 3
 566 001c 9342     		cmp	r3, r2
 567 001e FBD1     		bne	.L39
 568              		.loc 1 206 0
 569 0020 7047     		bx	lr
 570              	.L43:
ARM GAS  /var/folders/sv/kgmgr77579zbf78p2zlhkdfr0000gn/T//ccRS1V9P.s 			page 11


 571 0022 00BF     		.align	2
 572              	.L42:
 573 0024 FCFFFFFF 		.word	.LANCHOR2-4
 574 0028 FEFFFFFF 		.word	.LANCHOR3-2
 575              		.cfi_endproc
 576              	.LFE259:
 577              		.size	ws2811_all_off, .-ws2811_all_off
 578              		.section	.text.ws2811_set_all,"ax",%progbits
 579              		.align	2
 580              		.p2align 4,,15
 581              		.global	ws2811_set_all
 582              		.thumb
 583              		.thumb_func
 584              		.type	ws2811_set_all, %function
 585              	ws2811_set_all:
 586              	.LFB260:
 587              		.loc 1 208 0
 588              		.cfi_startproc
 589              		@ args = 0, pretend = 0, frame = 0
 590              		@ frame_needed = 0, uses_anonymous_args = 0
 591              	.LVL48:
 592 0000 2DE9F843 		push	{r3, r4, r5, r6, r7, r8, r9, lr}
 593              		.cfi_def_cfa_offset 32
 594              		.cfi_offset 3, -32
 595              		.cfi_offset 4, -28
 596              		.cfi_offset 5, -24
 597              		.cfi_offset 6, -20
 598              		.cfi_offset 7, -16
 599              		.cfi_offset 8, -12
 600              		.cfi_offset 9, -8
 601              		.cfi_offset 14, -4
 602 0004 0E4C     		ldr	r4, .L52
 603 0006 DFF83C80 		ldr	r8, .L52+4
 604              		.loc 1 208 0
 605 000a 0746     		mov	r7, r0
 606 000c 04F5A869 		add	r9, r4, #1344
 607              	.LBB14:
 608              		.loc 1 220 0
 609 0010 1426     		movs	r6, #20
 610              		.loc 1 218 0
 611 0012 5325     		movs	r5, #83
 612              	.LVL49:
 613              	.L48:
 614              		.loc 1 214 0
 615 0014 3846     		mov	r0, r7
 616              		.loc 1 212 0
 617 0016 48F8047F 		str	r7, [r8, #4]!
 618              		.loc 1 214 0
 619 001a FFF7FEFF 		bl	rgb_to_local
 620              	.LVL50:
 621 001e A4F13003 		sub	r3, r4, #48
 622              	.LVL51:
 623              	.L47:
 624              		.loc 1 217 0
 625 0022 0202     		lsls	r2, r0, #8
 626              		.loc 1 218 0
 627 0024 4CBF     		ite	mi
ARM GAS  /var/folders/sv/kgmgr77579zbf78p2zlhkdfr0000gn/T//ccRS1V9P.s 			page 12


 628 0026 1D80     		strhmi	r5, [r3]	@ movhi
 629              		.loc 1 220 0
 630 0028 1E80     		strhpl	r6, [r3]	@ movhi
 631 002a 0233     		adds	r3, r3, #2
 632              		.loc 1 216 0
 633 002c A342     		cmp	r3, r4
 634              		.loc 1 222 0
 635 002e 4FEA4000 		lsl	r0, r0, #1
 636              	.LVL52:
 637              		.loc 1 216 0
 638 0032 F6D1     		bne	.L47
 639 0034 03F13004 		add	r4, r3, #48
 640              	.LBE14:
 641              		.loc 1 211 0 discriminator 2
 642 0038 4C45     		cmp	r4, r9
 643 003a EBD1     		bne	.L48
 644              		.loc 1 225 0
 645 003c BDE8F883 		pop	{r3, r4, r5, r6, r7, r8, r9, pc}
 646              	.LVL53:
 647              	.L53:
 648              		.align	2
 649              	.L52:
 650 0040 30000000 		.word	.LANCHOR3+48
 651 0044 FCFFFFFF 		.word	.LANCHOR2-4
 652              		.cfi_endproc
 653              	.LFE260:
 654              		.size	ws2811_set_all, .-ws2811_set_all
 655              		.section	.text.ws2811_set_brightness,"ax",%progbits
 656              		.align	2
 657              		.p2align 4,,15
 658              		.global	ws2811_set_brightness
 659              		.thumb
 660              		.thumb_func
 661              		.type	ws2811_set_brightness, %function
 662              	ws2811_set_brightness:
 663              	.LFB261:
 664              		.loc 1 227 0
 665              		.cfi_startproc
 666              		@ args = 0, pretend = 0, frame = 0
 667              		@ frame_needed = 0, uses_anonymous_args = 0
 668              	.LVL54:
 669 0000 38B5     		push	{r3, r4, r5, lr}
 670              		.cfi_def_cfa_offset 16
 671              		.cfi_offset 3, -16
 672              		.cfi_offset 4, -12
 673              		.cfi_offset 5, -8
 674              		.cfi_offset 14, -4
 675              		.loc 1 228 0
 676 0002 064B     		ldr	r3, .L58
 677 0004 064D     		ldr	r5, .L58+4
 678 0006 1860     		str	r0, [r3]
 679              	.LVL55:
 680              	.LBB15:
 681              		.loc 1 230 0
 682 0008 0024     		movs	r4, #0
 683              	.LVL56:
 684              	.L55:
ARM GAS  /var/folders/sv/kgmgr77579zbf78p2zlhkdfr0000gn/T//ccRS1V9P.s 			page 13


 685              	.LBB16:
 686              	.LBB17:
 687 000a 2046     		mov	r0, r4
 688 000c 55F8041F 		ldr	r1, [r5, #4]!
 689              	.LBE17:
 690              	.LBE16:
 691 0010 0134     		adds	r4, r4, #1
 692              	.LVL57:
 693              	.LBB19:
 694              	.LBB18:
 695 0012 FFF7FEFF 		bl	ws2811_set_led_color.part.0
 696              	.LVL58:
 697              	.LBE18:
 698              	.LBE19:
 699 0016 1C2C     		cmp	r4, #28
 700 0018 F7D1     		bne	.L55
 701              	.LBE15:
 702              		.loc 1 233 0
 703 001a 38BD     		pop	{r3, r4, r5, pc}
 704              	.LVL59:
 705              	.L59:
 706              		.align	2
 707              	.L58:
 708 001c 00000000 		.word	.LANCHOR0
 709 0020 FCFFFFFF 		.word	.LANCHOR2-4
 710              		.cfi_endproc
 711              	.LFE261:
 712              		.size	ws2811_set_brightness, .-ws2811_set_brightness
 713              		.section	.text.ws2811_get_brightness,"ax",%progbits
 714              		.align	2
 715              		.p2align 4,,15
 716              		.global	ws2811_get_brightness
 717              		.thumb
 718              		.thumb_func
 719              		.type	ws2811_get_brightness, %function
 720              	ws2811_get_brightness:
 721              	.LFB262:
 722              		.loc 1 235 0
 723              		.cfi_startproc
 724              		@ args = 0, pretend = 0, frame = 0
 725              		@ frame_needed = 0, uses_anonymous_args = 0
 726              		@ link register save eliminated.
 727              		.loc 1 236 0
 728 0000 014B     		ldr	r3, .L61
 729              		.loc 1 237 0
 730 0002 1868     		ldr	r0, [r3]
 731 0004 7047     		bx	lr
 732              	.L62:
 733 0006 00BF     		.align	2
 734              	.L61:
 735 0008 00000000 		.word	.LANCHOR0
 736              		.cfi_endproc
 737              	.LFE262:
 738              		.size	ws2811_get_brightness, .-ws2811_get_brightness
 739              		.section	.bss.brightness,"aw",%nobits
 740              		.align	2
 741              		.set	.LANCHOR0,. + 0
ARM GAS  /var/folders/sv/kgmgr77579zbf78p2zlhkdfr0000gn/T//ccRS1V9P.s 			page 14


 742              		.type	brightness, %object
 743              		.size	brightness, 4
 744              	brightness:
 745 0000 00000000 		.space	4
 746              		.section	.bss.bitbuffer,"aw",%nobits
 747              		.align	2
 748              		.set	.LANCHOR3,. + 0
 749              		.type	bitbuffer, %object
 750              		.size	bitbuffer, 1492
 751              	bitbuffer:
 752 0000 00000000 		.space	1492
 752      00000000 
 752      00000000 
 752      00000000 
 752      00000000 
 753              		.section	.bss.RGBdata,"aw",%nobits
 754              		.align	2
 755              		.set	.LANCHOR2,. + 0
 756              		.type	RGBdata, %object
 757              		.size	RGBdata, 116
 758              	RGBdata:
 759 0000 00000000 		.space	116
 759      00000000 
 759      00000000 
 759      00000000 
 759      00000000 
 760              		.section	.bss.gamma_table,"aw",%nobits
 761              		.align	2
 762              		.set	.LANCHOR1,. + 0
 763              		.type	gamma_table, %object
 764              		.size	gamma_table, 256
 765              	gamma_table:
 766 0000 00000000 		.space	256
 766      00000000 
 766      00000000 
 766      00000000 
 766      00000000 
 767              		.text
 768              	.Letext0:
 769              		.file 2 "/usr/local/Cellar/gcc-arm-none-eabi/20160928/lib/gcc/arm-none-eabi/5.4.1/include/stddef.h
 770              		.file 3 "/usr/local/Cellar/gcc-arm-none-eabi/20160928/arm-none-eabi/include/machine/_default_types
 771              		.file 4 "/usr/local/Cellar/gcc-arm-none-eabi/20160928/arm-none-eabi/include/sys/_stdint.h"
 772              		.file 5 "ChibiOS_3.0.2/os/rt/ports/ARMCMx/compilers/GCC/chtypes.h"
 773              		.file 6 "ChibiOS_3.0.2/os/rt/include/chsystypes.h"
 774              		.file 7 "ChibiOS_3.0.2/os/rt/include/chschd.h"
 775              		.file 8 "ChibiOS_3.0.2/os/ext/CMSIS/ST/stm32f407xx.h"
 776              		.file 9 "ChibiOS_3.0.2/os/rt/ports/ARMCMx/chcore.h"
 777              		.file 10 "ChibiOS_3.0.2/os/rt/ports/ARMCMx/chcore_v7m.h"
 778              		.file 11 "ChibiOS_3.0.2/os/rt/include/chtm.h"
 779              		.file 12 "ChibiOS_3.0.2/os/rt/include/chsem.h"
 780              		.file 13 "ChibiOS_3.0.2/os/rt/include/chmtx.h"
 781              		.file 14 "ChibiOS_3.0.2/ext/stdperiph_stm32f4/inc/stm32f4xx_dma.h"
 782              		.file 15 "ChibiOS_3.0.2/ext/stdperiph_stm32f4/inc/stm32f4xx_tim.h"
 783              		.file 16 "ChibiOS_3.0.2/os/hal/ports/STM32/LLD/GPIOv2/pal_lld.h"
 784              		.file 17 "/usr/local/Cellar/gcc-arm-none-eabi/20160928/arm-none-eabi/include/math.h"
 785              		.file 18 "ChibiOS_3.0.2/ext/stdperiph_stm32f4/inc/stm32f4xx_rcc.h"
 786              		.file 19 "ChibiOS_3.0.2/os/ext/CMSIS/ST/stm32f4xx.h"
ARM GAS  /var/folders/sv/kgmgr77579zbf78p2zlhkdfr0000gn/T//ccRS1V9P.s 			page 15


 787              		.file 20 "ChibiOS_3.0.2/os/ext/CMSIS/include/core_cm4.h"
 788              		.section	.debug_info,"",%progbits
 789              	.Ldebug_info0:
 790 0000 FB100000 		.4byte	0x10fb
 791 0004 0400     		.2byte	0x4
 792 0006 00000000 		.4byte	.Ldebug_abbrev0
 793 000a 04       		.byte	0x4
 794 000b 01       		.uleb128 0x1
 795 000c 53030000 		.4byte	.LASF199
 796 0010 0C       		.byte	0xc
 797 0011 12050000 		.4byte	.LASF200
 798 0015 F5090000 		.4byte	.LASF201
 799 0019 48000000 		.4byte	.Ldebug_ranges0+0x48
 800 001d 00000000 		.4byte	0
 801 0021 00000000 		.4byte	.Ldebug_line0
 802 0025 02       		.uleb128 0x2
 803 0026 04       		.byte	0x4
 804 0027 07       		.byte	0x7
 805 0028 CE000000 		.4byte	.LASF0
 806 002c 02       		.uleb128 0x2
 807 002d 08       		.byte	0x8
 808 002e 07       		.byte	0x7
 809 002f A7020000 		.4byte	.LASF1
 810 0033 02       		.uleb128 0x2
 811 0034 04       		.byte	0x4
 812 0035 04       		.byte	0x4
 813 0036 48020000 		.4byte	.LASF2
 814 003a 03       		.uleb128 0x3
 815 003b 04       		.byte	0x4
 816 003c 05       		.byte	0x5
 817 003d 696E7400 		.ascii	"int\000"
 818 0041 04       		.uleb128 0x4
 819 0042 30030000 		.4byte	.LASF4
 820 0046 02       		.byte	0x2
 821 0047 D8       		.byte	0xd8
 822 0048 25000000 		.4byte	0x25
 823 004c 02       		.uleb128 0x2
 824 004d 01       		.byte	0x1
 825 004e 06       		.byte	0x6
 826 004f 90090000 		.4byte	.LASF3
 827 0053 04       		.uleb128 0x4
 828 0054 25080000 		.4byte	.LASF5
 829 0058 03       		.byte	0x3
 830 0059 1D       		.byte	0x1d
 831 005a 5E000000 		.4byte	0x5e
 832 005e 02       		.uleb128 0x2
 833 005f 01       		.byte	0x1
 834 0060 08       		.byte	0x8
 835 0061 E5080000 		.4byte	.LASF6
 836 0065 02       		.uleb128 0x2
 837 0066 02       		.byte	0x2
 838 0067 05       		.byte	0x5
 839 0068 7B070000 		.4byte	.LASF7
 840 006c 04       		.uleb128 0x4
 841 006d BE020000 		.4byte	.LASF8
 842 0071 03       		.byte	0x3
 843 0072 2B       		.byte	0x2b
ARM GAS  /var/folders/sv/kgmgr77579zbf78p2zlhkdfr0000gn/T//ccRS1V9P.s 			page 16


 844 0073 77000000 		.4byte	0x77
 845 0077 02       		.uleb128 0x2
 846 0078 02       		.byte	0x2
 847 0079 07       		.byte	0x7
 848 007a 9C090000 		.4byte	.LASF9
 849 007e 04       		.uleb128 0x4
 850 007f 14010000 		.4byte	.LASF10
 851 0083 03       		.byte	0x3
 852 0084 3F       		.byte	0x3f
 853 0085 89000000 		.4byte	0x89
 854 0089 02       		.uleb128 0x2
 855 008a 04       		.byte	0x4
 856 008b 05       		.byte	0x5
 857 008c 00000000 		.4byte	.LASF11
 858 0090 04       		.uleb128 0x4
 859 0091 F3080000 		.4byte	.LASF12
 860 0095 03       		.byte	0x3
 861 0096 41       		.byte	0x41
 862 0097 9B000000 		.4byte	0x9b
 863 009b 02       		.uleb128 0x2
 864 009c 04       		.byte	0x4
 865 009d 07       		.byte	0x7
 866 009e 7E080000 		.4byte	.LASF13
 867 00a2 02       		.uleb128 0x2
 868 00a3 08       		.byte	0x8
 869 00a4 05       		.byte	0x5
 870 00a5 4C050000 		.4byte	.LASF14
 871 00a9 04       		.uleb128 0x4
 872 00aa 88040000 		.4byte	.LASF15
 873 00ae 03       		.byte	0x3
 874 00af 5B       		.byte	0x5b
 875 00b0 2C000000 		.4byte	0x2c
 876 00b4 02       		.uleb128 0x2
 877 00b5 04       		.byte	0x4
 878 00b6 07       		.byte	0x7
 879 00b7 6D080000 		.4byte	.LASF16
 880 00bb 05       		.uleb128 0x5
 881 00bc 04       		.byte	0x4
 882 00bd 02       		.uleb128 0x2
 883 00be 01       		.byte	0x1
 884 00bf 08       		.byte	0x8
 885 00c0 59000000 		.4byte	.LASF17
 886 00c4 06       		.uleb128 0x6
 887 00c5 04       		.byte	0x4
 888 00c6 CA000000 		.4byte	0xca
 889 00ca 07       		.uleb128 0x7
 890 00cb BD000000 		.4byte	0xbd
 891 00cf 02       		.uleb128 0x2
 892 00d0 08       		.byte	0x8
 893 00d1 04       		.byte	0x4
 894 00d2 E6090000 		.4byte	.LASF18
 895 00d6 02       		.uleb128 0x2
 896 00d7 08       		.byte	0x8
 897 00d8 04       		.byte	0x4
 898 00d9 7F060000 		.4byte	.LASF19
 899 00dd 04       		.uleb128 0x4
 900 00de 7A050000 		.4byte	.LASF20
ARM GAS  /var/folders/sv/kgmgr77579zbf78p2zlhkdfr0000gn/T//ccRS1V9P.s 			page 17


 901 00e2 04       		.byte	0x4
 902 00e3 18       		.byte	0x18
 903 00e4 53000000 		.4byte	0x53
 904 00e8 04       		.uleb128 0x4
 905 00e9 12070000 		.4byte	.LASF21
 906 00ed 04       		.byte	0x4
 907 00ee 24       		.byte	0x24
 908 00ef 6C000000 		.4byte	0x6c
 909 00f3 04       		.uleb128 0x4
 910 00f4 9D080000 		.4byte	.LASF22
 911 00f8 04       		.byte	0x4
 912 00f9 2C       		.byte	0x2c
 913 00fa 7E000000 		.4byte	0x7e
 914 00fe 04       		.uleb128 0x4
 915 00ff 1A020000 		.4byte	.LASF23
 916 0103 04       		.byte	0x4
 917 0104 30       		.byte	0x30
 918 0105 90000000 		.4byte	0x90
 919 0109 04       		.uleb128 0x4
 920 010a FD070000 		.4byte	.LASF24
 921 010e 04       		.byte	0x4
 922 010f 3C       		.byte	0x3c
 923 0110 A9000000 		.4byte	0xa9
 924 0114 08       		.uleb128 0x8
 925 0115 F3000000 		.4byte	0xf3
 926 0119 08       		.uleb128 0x8
 927 011a FE000000 		.4byte	0xfe
 928 011e 04       		.uleb128 0x4
 929 011f 53070000 		.4byte	.LASF25
 930 0123 05       		.byte	0x5
 931 0124 45       		.byte	0x45
 932 0125 FE000000 		.4byte	0xfe
 933 0129 04       		.uleb128 0x4
 934 012a D1060000 		.4byte	.LASF26
 935 012e 05       		.byte	0x5
 936 012f 48       		.byte	0x48
 937 0130 DD000000 		.4byte	0xdd
 938 0134 04       		.uleb128 0x4
 939 0135 3A050000 		.4byte	.LASF27
 940 0139 05       		.byte	0x5
 941 013a 49       		.byte	0x49
 942 013b DD000000 		.4byte	0xdd
 943 013f 04       		.uleb128 0x4
 944 0140 76080000 		.4byte	.LASF28
 945 0144 05       		.byte	0x5
 946 0145 4A       		.byte	0x4a
 947 0146 DD000000 		.4byte	0xdd
 948 014a 04       		.uleb128 0x4
 949 014b 9F060000 		.4byte	.LASF29
 950 014f 05       		.byte	0x5
 951 0150 4B       		.byte	0x4b
 952 0151 DD000000 		.4byte	0xdd
 953 0155 04       		.uleb128 0x4
 954 0156 5B020000 		.4byte	.LASF30
 955 015a 05       		.byte	0x5
 956 015b 4C       		.byte	0x4c
 957 015c FE000000 		.4byte	0xfe
ARM GAS  /var/folders/sv/kgmgr77579zbf78p2zlhkdfr0000gn/T//ccRS1V9P.s 			page 18


 958 0160 04       		.uleb128 0x4
 959 0161 0C060000 		.4byte	.LASF31
 960 0165 05       		.byte	0x5
 961 0166 4D       		.byte	0x4d
 962 0167 F3000000 		.4byte	0xf3
 963 016b 04       		.uleb128 0x4
 964 016c F5050000 		.4byte	.LASF32
 965 0170 05       		.byte	0x5
 966 0171 4F       		.byte	0x4f
 967 0172 FE000000 		.4byte	0xfe
 968 0176 04       		.uleb128 0x4
 969 0177 C9020000 		.4byte	.LASF33
 970 017b 05       		.byte	0x5
 971 017c 51       		.byte	0x51
 972 017d F3000000 		.4byte	0xf3
 973 0181 04       		.uleb128 0x4
 974 0182 9E000000 		.4byte	.LASF34
 975 0186 06       		.byte	0x6
 976 0187 33       		.byte	0x33
 977 0188 FE000000 		.4byte	0xfe
 978 018c 04       		.uleb128 0x4
 979 018d 27030000 		.4byte	.LASF35
 980 0191 06       		.byte	0x6
 981 0192 3F       		.byte	0x3f
 982 0193 97010000 		.4byte	0x197
 983 0197 09       		.uleb128 0x9
 984 0198 A7050000 		.4byte	.LASF57
 985 019c 48       		.byte	0x48
 986 019d 07       		.byte	0x7
 987 019e C2       		.byte	0xc2
 988 019f 9C020000 		.4byte	0x29c
 989 01a3 0A       		.uleb128 0xa
 990 01a4 F6070000 		.4byte	.LASF36
 991 01a8 07       		.byte	0x7
 992 01a9 C3       		.byte	0xc3
 993 01aa A7020000 		.4byte	0x2a7
 994 01ae 00       		.byte	0
 995 01af 0A       		.uleb128 0xa
 996 01b0 5F080000 		.4byte	.LASF37
 997 01b4 07       		.byte	0x7
 998 01b5 C5       		.byte	0xc5
 999 01b6 A7020000 		.4byte	0x2a7
 1000 01ba 04       		.byte	0x4
 1001 01bb 0A       		.uleb128 0xa
 1002 01bc 67000000 		.4byte	.LASF38
 1003 01c0 07       		.byte	0x7
 1004 01c1 C7       		.byte	0xc7
 1005 01c2 55010000 		.4byte	0x155
 1006 01c6 08       		.byte	0x8
 1007 01c7 0A       		.uleb128 0xa
 1008 01c8 06080000 		.4byte	.LASF39
 1009 01cc 07       		.byte	0x7
 1010 01cd C8       		.byte	0xc8
 1011 01ce 7F060000 		.4byte	0x67f
 1012 01d2 0C       		.byte	0xc
 1013 01d3 0A       		.uleb128 0xa
 1014 01d4 FC020000 		.4byte	.LASF40
ARM GAS  /var/folders/sv/kgmgr77579zbf78p2zlhkdfr0000gn/T//ccRS1V9P.s 			page 19


 1015 01d8 07       		.byte	0x7
 1016 01d9 CA       		.byte	0xca
 1017 01da A7020000 		.4byte	0x2a7
 1018 01de 10       		.byte	0x10
 1019 01df 0A       		.uleb128 0xa
 1020 01e0 5A050000 		.4byte	.LASF41
 1021 01e4 07       		.byte	0x7
 1022 01e5 CB       		.byte	0xcb
 1023 01e6 A7020000 		.4byte	0x2a7
 1024 01ea 14       		.byte	0x14
 1025 01eb 0A       		.uleb128 0xa
 1026 01ec D4040000 		.4byte	.LASF42
 1027 01f0 07       		.byte	0x7
 1028 01f1 D2       		.byte	0xd2
 1029 01f2 C4000000 		.4byte	0xc4
 1030 01f6 18       		.byte	0x18
 1031 01f7 0A       		.uleb128 0xa
 1032 01f8 62050000 		.4byte	.LASF43
 1033 01fc 07       		.byte	0x7
 1034 01fd DD       		.byte	0xdd
 1035 01fe 34010000 		.4byte	0x134
 1036 0202 1C       		.byte	0x1c
 1037 0203 0A       		.uleb128 0xa
 1038 0204 39060000 		.4byte	.LASF44
 1039 0208 07       		.byte	0x7
 1040 0209 E1       		.byte	0xe1
 1041 020a 29010000 		.4byte	0x129
 1042 020e 1D       		.byte	0x1d
 1043 020f 0A       		.uleb128 0xa
 1044 0210 14090000 		.4byte	.LASF45
 1045 0214 07       		.byte	0x7
 1046 0215 E6       		.byte	0xe6
 1047 0216 3F010000 		.4byte	0x13f
 1048 021a 1E       		.byte	0x1e
 1049 021b 0A       		.uleb128 0xa
 1050 021c 30090000 		.4byte	.LASF46
 1051 0220 07       		.byte	0x7
 1052 0221 EC       		.byte	0xec
 1053 0222 4A010000 		.4byte	0x14a
 1054 0226 1F       		.byte	0x1f
 1055 0227 0A       		.uleb128 0xa
 1056 0228 4D000000 		.4byte	.LASF47
 1057 022c 07       		.byte	0x7
 1058 022d F3       		.byte	0xf3
 1059 022e C4080000 		.4byte	0x8c4
 1060 0232 20       		.byte	0x20
 1061 0233 0B       		.uleb128 0xb
 1062 0234 705F7500 		.ascii	"p_u\000"
 1063 0238 07       		.byte	0x7
 1064 0239 3101     		.2byte	0x131
 1065 023b FF070000 		.4byte	0x7ff
 1066 023f 24       		.byte	0x24
 1067 0240 0C       		.uleb128 0xc
 1068 0241 F3000000 		.4byte	.LASF48
 1069 0245 07       		.byte	0x7
 1070 0246 3601     		.2byte	0x136
 1071 0248 AD020000 		.4byte	0x2ad
ARM GAS  /var/folders/sv/kgmgr77579zbf78p2zlhkdfr0000gn/T//ccRS1V9P.s 			page 20


 1072 024c 28       		.byte	0x28
 1073 024d 0C       		.uleb128 0xc
 1074 024e C3000000 		.4byte	.LASF49
 1075 0252 07       		.byte	0x7
 1076 0253 3C01     		.2byte	0x13c
 1077 0255 D1020000 		.4byte	0x2d1
 1078 0259 2C       		.byte	0x2c
 1079 025a 0C       		.uleb128 0xc
 1080 025b CB060000 		.4byte	.LASF50
 1081 025f 07       		.byte	0x7
 1082 0260 4001     		.2byte	0x140
 1083 0262 60010000 		.4byte	0x160
 1084 0266 34       		.byte	0x34
 1085 0267 0C       		.uleb128 0xc
 1086 0268 9F070000 		.4byte	.LASF51
 1087 026c 07       		.byte	0x7
 1088 026d 4601     		.2byte	0x146
 1089 026f 6B010000 		.4byte	0x16b
 1090 0273 38       		.byte	0x38
 1091 0274 0C       		.uleb128 0xc
 1092 0275 98050000 		.4byte	.LASF52
 1093 0279 07       		.byte	0x7
 1094 027a 4D01     		.2byte	0x14d
 1095 027c BE080000 		.4byte	0x8be
 1096 0280 3C       		.byte	0x3c
 1097 0281 0C       		.uleb128 0xc
 1098 0282 70070000 		.4byte	.LASF53
 1099 0286 07       		.byte	0x7
 1100 0287 5101     		.2byte	0x151
 1101 0289 55010000 		.4byte	0x155
 1102 028d 40       		.byte	0x40
 1103 028e 0C       		.uleb128 0xc
 1104 028f 90050000 		.4byte	.LASF54
 1105 0293 07       		.byte	0x7
 1106 0294 5801     		.2byte	0x158
 1107 0296 BB000000 		.4byte	0xbb
 1108 029a 44       		.byte	0x44
 1109 029b 00       		.byte	0
 1110 029c 04       		.uleb128 0x4
 1111 029d 94020000 		.4byte	.LASF55
 1112 02a1 06       		.byte	0x6
 1113 02a2 44       		.byte	0x44
 1114 02a3 A7020000 		.4byte	0x2a7
 1115 02a7 06       		.uleb128 0x6
 1116 02a8 04       		.byte	0x4
 1117 02a9 8C010000 		.4byte	0x18c
 1118 02ad 04       		.uleb128 0x4
 1119 02ae E4000000 		.4byte	.LASF56
 1120 02b2 06       		.byte	0x6
 1121 02b3 49       		.byte	0x49
 1122 02b4 B8020000 		.4byte	0x2b8
 1123 02b8 09       		.uleb128 0x9
 1124 02b9 CF020000 		.4byte	.LASF58
 1125 02bd 04       		.byte	0x4
 1126 02be 07       		.byte	0x7
 1127 02bf B0       		.byte	0xb0
 1128 02c0 D1020000 		.4byte	0x2d1
ARM GAS  /var/folders/sv/kgmgr77579zbf78p2zlhkdfr0000gn/T//ccRS1V9P.s 			page 21


 1129 02c4 0A       		.uleb128 0xa
 1130 02c5 F6070000 		.4byte	.LASF36
 1131 02c9 07       		.byte	0x7
 1132 02ca B1       		.byte	0xb1
 1133 02cb A7020000 		.4byte	0x2a7
 1134 02cf 00       		.byte	0
 1135 02d0 00       		.byte	0
 1136 02d1 04       		.uleb128 0x4
 1137 02d2 09000000 		.4byte	.LASF59
 1138 02d6 06       		.byte	0x6
 1139 02d7 50       		.byte	0x50
 1140 02d8 DC020000 		.4byte	0x2dc
 1141 02dc 09       		.uleb128 0x9
 1142 02dd CF050000 		.4byte	.LASF60
 1143 02e1 08       		.byte	0x8
 1144 02e2 07       		.byte	0x7
 1145 02e3 B7       		.byte	0xb7
 1146 02e4 01030000 		.4byte	0x301
 1147 02e8 0A       		.uleb128 0xa
 1148 02e9 F6070000 		.4byte	.LASF36
 1149 02ed 07       		.byte	0x7
 1150 02ee B8       		.byte	0xb8
 1151 02ef A7020000 		.4byte	0x2a7
 1152 02f3 00       		.byte	0
 1153 02f4 0A       		.uleb128 0xa
 1154 02f5 5F080000 		.4byte	.LASF37
 1155 02f9 07       		.byte	0x7
 1156 02fa B9       		.byte	0xb9
 1157 02fb A7020000 		.4byte	0x2a7
 1158 02ff 04       		.byte	0x4
 1159 0300 00       		.byte	0
 1160 0301 04       		.uleb128 0x4
 1161 0302 90080000 		.4byte	.LASF61
 1162 0306 06       		.byte	0x6
 1163 0307 57       		.byte	0x57
 1164 0308 0C030000 		.4byte	0x30c
 1165 030c 0D       		.uleb128 0xd
 1166 030d 44010000 		.4byte	.LASF62
 1167 0311 1C       		.byte	0x1c
 1168 0312 07       		.byte	0x7
 1169 0313 9001     		.2byte	0x190
 1170 0315 68030000 		.4byte	0x368
 1171 0319 0C       		.uleb128 0xc
 1172 031a ED050000 		.4byte	.LASF63
 1173 031e 07       		.byte	0x7
 1174 031f 9101     		.2byte	0x191
 1175 0321 D1020000 		.4byte	0x2d1
 1176 0325 00       		.byte	0
 1177 0326 0C       		.uleb128 0xc
 1178 0327 35020000 		.4byte	.LASF64
 1179 032b 07       		.byte	0x7
 1180 032c 9201     		.2byte	0x192
 1181 032e 55010000 		.4byte	0x155
 1182 0332 08       		.byte	0x8
 1183 0333 0C       		.uleb128 0xc
 1184 0334 AF090000 		.4byte	.LASF65
 1185 0338 07       		.byte	0x7
ARM GAS  /var/folders/sv/kgmgr77579zbf78p2zlhkdfr0000gn/T//ccRS1V9P.s 			page 22


 1186 0339 9401     		.2byte	0x194
 1187 033b 7F060000 		.4byte	0x67f
 1188 033f 0C       		.byte	0xc
 1189 0340 0C       		.uleb128 0xc
 1190 0341 1B050000 		.4byte	.LASF66
 1191 0345 07       		.byte	0x7
 1192 0346 9701     		.2byte	0x197
 1193 0348 A7020000 		.4byte	0x2a7
 1194 034c 10       		.byte	0x10
 1195 034d 0C       		.uleb128 0xc
 1196 034e A9060000 		.4byte	.LASF67
 1197 0352 07       		.byte	0x7
 1198 0353 9801     		.2byte	0x198
 1199 0355 A7020000 		.4byte	0x2a7
 1200 0359 14       		.byte	0x14
 1201 035a 0C       		.uleb128 0xc
 1202 035b 85070000 		.4byte	.LASF68
 1203 035f 07       		.byte	0x7
 1204 0360 9B01     		.2byte	0x19b
 1205 0362 A7020000 		.4byte	0x2a7
 1206 0366 18       		.byte	0x18
 1207 0367 00       		.byte	0
 1208 0368 04       		.uleb128 0x4
 1209 0369 BE010000 		.4byte	.LASF69
 1210 036d 06       		.byte	0x6
 1211 036e 5C       		.byte	0x5c
 1212 036f 73030000 		.4byte	0x373
 1213 0373 06       		.uleb128 0x6
 1214 0374 04       		.byte	0x4
 1215 0375 79030000 		.4byte	0x379
 1216 0379 0E       		.uleb128 0xe
 1217 037a 84030000 		.4byte	0x384
 1218 037e 0F       		.uleb128 0xf
 1219 037f BB000000 		.4byte	0xbb
 1220 0383 00       		.byte	0
 1221 0384 04       		.uleb128 0x4
 1222 0385 41060000 		.4byte	.LASF70
 1223 0389 06       		.byte	0x6
 1224 038a 61       		.byte	0x61
 1225 038b 8F030000 		.4byte	0x38f
 1226 038f 0D       		.uleb128 0xd
 1227 0390 77020000 		.4byte	.LASF71
 1228 0394 14       		.byte	0x14
 1229 0395 07       		.byte	0x7
 1230 0396 6B01     		.2byte	0x16b
 1231 0398 DE030000 		.4byte	0x3de
 1232 039c 0C       		.uleb128 0xc
 1233 039d 41090000 		.4byte	.LASF72
 1234 03a1 07       		.byte	0x7
 1235 03a2 6C01     		.2byte	0x16c
 1236 03a4 C9080000 		.4byte	0x8c9
 1237 03a8 00       		.byte	0
 1238 03a9 0C       		.uleb128 0xc
 1239 03aa ED090000 		.4byte	.LASF73
 1240 03ae 07       		.byte	0x7
 1241 03af 6D01     		.2byte	0x16d
 1242 03b1 C9080000 		.4byte	0x8c9
ARM GAS  /var/folders/sv/kgmgr77579zbf78p2zlhkdfr0000gn/T//ccRS1V9P.s 			page 23


 1243 03b5 04       		.byte	0x4
 1244 03b6 0C       		.uleb128 0xc
 1245 03b7 01050000 		.4byte	.LASF74
 1246 03bb 07       		.byte	0x7
 1247 03bc 6E01     		.2byte	0x16e
 1248 03be 81010000 		.4byte	0x181
 1249 03c2 08       		.byte	0x8
 1250 03c3 0C       		.uleb128 0xc
 1251 03c4 DE090000 		.4byte	.LASF75
 1252 03c8 07       		.byte	0x7
 1253 03c9 6F01     		.2byte	0x16f
 1254 03cb 68030000 		.4byte	0x368
 1255 03cf 0C       		.byte	0xc
 1256 03d0 0C       		.uleb128 0xc
 1257 03d1 41020000 		.4byte	.LASF76
 1258 03d5 07       		.byte	0x7
 1259 03d6 7101     		.2byte	0x171
 1260 03d8 BB000000 		.4byte	0xbb
 1261 03dc 10       		.byte	0x10
 1262 03dd 00       		.byte	0
 1263 03de 04       		.uleb128 0x4
 1264 03df FE080000 		.4byte	.LASF77
 1265 03e3 06       		.byte	0x6
 1266 03e4 66       		.byte	0x66
 1267 03e5 E9030000 		.4byte	0x3e9
 1268 03e9 0D       		.uleb128 0xd
 1269 03ea 0A030000 		.4byte	.LASF78
 1270 03ee 10       		.byte	0x10
 1271 03ef 07       		.byte	0x7
 1272 03f0 7B01     		.2byte	0x17b
 1273 03f2 2B040000 		.4byte	0x42b
 1274 03f6 0C       		.uleb128 0xc
 1275 03f7 41090000 		.4byte	.LASF72
 1276 03fb 07       		.byte	0x7
 1277 03fc 7C01     		.2byte	0x17c
 1278 03fe C9080000 		.4byte	0x8c9
 1279 0402 00       		.byte	0
 1280 0403 0C       		.uleb128 0xc
 1281 0404 ED090000 		.4byte	.LASF73
 1282 0408 07       		.byte	0x7
 1283 0409 7E01     		.2byte	0x17e
 1284 040b C9080000 		.4byte	0x8c9
 1285 040f 04       		.byte	0x4
 1286 0410 0C       		.uleb128 0xc
 1287 0411 01050000 		.4byte	.LASF74
 1288 0415 07       		.byte	0x7
 1289 0416 8001     		.2byte	0x180
 1290 0418 81010000 		.4byte	0x181
 1291 041c 08       		.byte	0x8
 1292 041d 0C       		.uleb128 0xc
 1293 041e B8000000 		.4byte	.LASF79
 1294 0422 07       		.byte	0x7
 1295 0423 8201     		.2byte	0x182
 1296 0425 C4080000 		.4byte	0x8c4
 1297 0429 0C       		.byte	0xc
 1298 042a 00       		.byte	0
 1299 042b 04       		.uleb128 0x4
ARM GAS  /var/folders/sv/kgmgr77579zbf78p2zlhkdfr0000gn/T//ccRS1V9P.s 			page 24


 1300 042c C0050000 		.4byte	.LASF80
 1301 0430 06       		.byte	0x6
 1302 0431 6B       		.byte	0x6b
 1303 0432 36040000 		.4byte	0x436
 1304 0436 0D       		.uleb128 0xd
 1305 0437 CD010000 		.4byte	.LASF81
 1306 043b 04       		.byte	0x4
 1307 043c 07       		.byte	0x7
 1308 043d A201     		.2byte	0x1a2
 1309 043f 51040000 		.4byte	0x451
 1310 0443 0C       		.uleb128 0xc
 1311 0444 1B090000 		.4byte	.LASF82
 1312 0448 07       		.byte	0x7
 1313 0449 AA01     		.2byte	0x1aa
 1314 044b CF080000 		.4byte	0x8cf
 1315 044f 00       		.byte	0
 1316 0450 00       		.byte	0
 1317 0451 04       		.uleb128 0x4
 1318 0452 5F090000 		.4byte	.LASF83
 1319 0456 06       		.byte	0x6
 1320 0457 70       		.byte	0x70
 1321 0458 5C040000 		.4byte	0x45c
 1322 045c 10       		.uleb128 0x10
 1323 045d DB070000 		.4byte	.LASF84
 1324 0461 5802     		.2byte	0x258
 1325 0463 07       		.byte	0x7
 1326 0464 C201     		.2byte	0x1c2
 1327 0466 B8040000 		.4byte	0x4b8
 1328 046a 0C       		.uleb128 0xc
 1329 046b 0C080000 		.4byte	.LASF85
 1330 046f 07       		.byte	0x7
 1331 0470 C601     		.2byte	0x1c6
 1332 0472 01030000 		.4byte	0x301
 1333 0476 00       		.byte	0
 1334 0477 0C       		.uleb128 0xc
 1335 0478 2D010000 		.4byte	.LASF86
 1336 047c 07       		.byte	0x7
 1337 047d CA01     		.2byte	0x1ca
 1338 047f DE030000 		.4byte	0x3de
 1339 0483 1C       		.byte	0x1c
 1340 0484 0B       		.uleb128 0xb
 1341 0485 64626700 		.ascii	"dbg\000"
 1342 0489 07       		.byte	0x7
 1343 048a CE01     		.2byte	0x1ce
 1344 048c 2B040000 		.4byte	0x42b
 1345 0490 2C       		.byte	0x2c
 1346 0491 0C       		.uleb128 0xc
 1347 0492 D9060000 		.4byte	.LASF87
 1348 0496 07       		.byte	0x7
 1349 0497 D201     		.2byte	0x1d2
 1350 0499 8C010000 		.4byte	0x18c
 1351 049d 30       		.byte	0x30
 1352 049e 0B       		.uleb128 0xb
 1353 049f 746D00   		.ascii	"tm\000"
 1354 04a2 07       		.byte	0x7
 1355 04a3 D701     		.2byte	0x1d7
 1356 04a5 F4070000 		.4byte	0x7f4
ARM GAS  /var/folders/sv/kgmgr77579zbf78p2zlhkdfr0000gn/T//ccRS1V9P.s 			page 25


 1357 04a9 78       		.byte	0x78
 1358 04aa 0C       		.uleb128 0xc
 1359 04ab A5080000 		.4byte	.LASF88
 1360 04af 07       		.byte	0x7
 1361 04b0 E301     		.2byte	0x1e3
 1362 04b2 D4080000 		.4byte	0x8d4
 1363 04b6 80       		.byte	0x80
 1364 04b7 00       		.byte	0
 1365 04b8 11       		.uleb128 0x11
 1366 04b9 FE000000 		.4byte	0xfe
 1367 04bd C8040000 		.4byte	0x4c8
 1368 04c1 12       		.uleb128 0x12
 1369 04c2 B4000000 		.4byte	0xb4
 1370 04c6 1C       		.byte	0x1c
 1371 04c7 00       		.byte	0
 1372 04c8 13       		.uleb128 0x13
 1373 04c9 18       		.byte	0x18
 1374 04ca 08       		.byte	0x8
 1375 04cb 6B01     		.2byte	0x16b
 1376 04cd 1F050000 		.4byte	0x51f
 1377 04d1 0B       		.uleb128 0xb
 1378 04d2 435200   		.ascii	"CR\000"
 1379 04d5 08       		.byte	0x8
 1380 04d6 6D01     		.2byte	0x16d
 1381 04d8 19010000 		.4byte	0x119
 1382 04dc 00       		.byte	0
 1383 04dd 0C       		.uleb128 0xc
 1384 04de 64010000 		.4byte	.LASF89
 1385 04e2 08       		.byte	0x8
 1386 04e3 6E01     		.2byte	0x16e
 1387 04e5 19010000 		.4byte	0x119
 1388 04e9 04       		.byte	0x4
 1389 04ea 0B       		.uleb128 0xb
 1390 04eb 50415200 		.ascii	"PAR\000"
 1391 04ef 08       		.byte	0x8
 1392 04f0 6F01     		.2byte	0x16f
 1393 04f2 19010000 		.4byte	0x119
 1394 04f6 08       		.byte	0x8
 1395 04f7 0C       		.uleb128 0xc
 1396 04f8 98040000 		.4byte	.LASF90
 1397 04fc 08       		.byte	0x8
 1398 04fd 7001     		.2byte	0x170
 1399 04ff 19010000 		.4byte	0x119
 1400 0503 0C       		.byte	0xc
 1401 0504 0C       		.uleb128 0xc
 1402 0505 2F080000 		.4byte	.LASF91
 1403 0509 08       		.byte	0x8
 1404 050a 7101     		.2byte	0x171
 1405 050c 19010000 		.4byte	0x119
 1406 0510 10       		.byte	0x10
 1407 0511 0B       		.uleb128 0xb
 1408 0512 46435200 		.ascii	"FCR\000"
 1409 0516 08       		.byte	0x8
 1410 0517 7201     		.2byte	0x172
 1411 0519 19010000 		.4byte	0x119
 1412 051d 14       		.byte	0x14
 1413 051e 00       		.byte	0
ARM GAS  /var/folders/sv/kgmgr77579zbf78p2zlhkdfr0000gn/T//ccRS1V9P.s 			page 26


 1414 051f 14       		.uleb128 0x14
 1415 0520 6C060000 		.4byte	.LASF92
 1416 0524 08       		.byte	0x8
 1417 0525 7301     		.2byte	0x173
 1418 0527 C8040000 		.4byte	0x4c8
 1419 052b 13       		.uleb128 0x13
 1420 052c 54       		.byte	0x54
 1421 052d 08       		.byte	0x8
 1422 052e EC02     		.2byte	0x2ec
 1423 0530 44060000 		.4byte	0x644
 1424 0534 0B       		.uleb128 0xb
 1425 0535 43523100 		.ascii	"CR1\000"
 1426 0539 08       		.byte	0x8
 1427 053a EE02     		.2byte	0x2ee
 1428 053c 19010000 		.4byte	0x119
 1429 0540 00       		.byte	0
 1430 0541 0B       		.uleb128 0xb
 1431 0542 43523200 		.ascii	"CR2\000"
 1432 0546 08       		.byte	0x8
 1433 0547 EF02     		.2byte	0x2ef
 1434 0549 19010000 		.4byte	0x119
 1435 054d 04       		.byte	0x4
 1436 054e 0C       		.uleb128 0xc
 1437 054f A2050000 		.4byte	.LASF93
 1438 0553 08       		.byte	0x8
 1439 0554 F002     		.2byte	0x2f0
 1440 0556 19010000 		.4byte	0x119
 1441 055a 08       		.byte	0x8
 1442 055b 0C       		.uleb128 0xc
 1443 055c 93040000 		.4byte	.LASF94
 1444 0560 08       		.byte	0x8
 1445 0561 F102     		.2byte	0x2f1
 1446 0563 19010000 		.4byte	0x119
 1447 0567 0C       		.byte	0xc
 1448 0568 0B       		.uleb128 0xb
 1449 0569 535200   		.ascii	"SR\000"
 1450 056c 08       		.byte	0x8
 1451 056d F202     		.2byte	0x2f2
 1452 056f 19010000 		.4byte	0x119
 1453 0573 10       		.byte	0x10
 1454 0574 0B       		.uleb128 0xb
 1455 0575 45475200 		.ascii	"EGR\000"
 1456 0579 08       		.byte	0x8
 1457 057a F302     		.2byte	0x2f3
 1458 057c 19010000 		.4byte	0x119
 1459 0580 14       		.byte	0x14
 1460 0581 0C       		.uleb128 0xc
 1461 0582 88020000 		.4byte	.LASF95
 1462 0586 08       		.byte	0x8
 1463 0587 F402     		.2byte	0x2f4
 1464 0589 19010000 		.4byte	0x119
 1465 058d 18       		.byte	0x18
 1466 058e 0C       		.uleb128 0xc
 1467 058f 8E020000 		.4byte	.LASF96
 1468 0593 08       		.byte	0x8
 1469 0594 F502     		.2byte	0x2f5
 1470 0596 19010000 		.4byte	0x119
ARM GAS  /var/folders/sv/kgmgr77579zbf78p2zlhkdfr0000gn/T//ccRS1V9P.s 			page 27


 1471 059a 1C       		.byte	0x1c
 1472 059b 0C       		.uleb128 0xc
 1473 059c FC040000 		.4byte	.LASF97
 1474 05a0 08       		.byte	0x8
 1475 05a1 F602     		.2byte	0x2f6
 1476 05a3 19010000 		.4byte	0x119
 1477 05a7 20       		.byte	0x20
 1478 05a8 0B       		.uleb128 0xb
 1479 05a9 434E5400 		.ascii	"CNT\000"
 1480 05ad 08       		.byte	0x8
 1481 05ae F702     		.2byte	0x2f7
 1482 05b0 19010000 		.4byte	0x119
 1483 05b4 24       		.byte	0x24
 1484 05b5 0B       		.uleb128 0xb
 1485 05b6 50534300 		.ascii	"PSC\000"
 1486 05ba 08       		.byte	0x8
 1487 05bb F802     		.2byte	0x2f8
 1488 05bd 19010000 		.4byte	0x119
 1489 05c1 28       		.byte	0x28
 1490 05c2 0B       		.uleb128 0xb
 1491 05c3 41525200 		.ascii	"ARR\000"
 1492 05c7 08       		.byte	0x8
 1493 05c8 F902     		.2byte	0x2f9
 1494 05ca 19010000 		.4byte	0x119
 1495 05ce 2C       		.byte	0x2c
 1496 05cf 0B       		.uleb128 0xb
 1497 05d0 52435200 		.ascii	"RCR\000"
 1498 05d4 08       		.byte	0x8
 1499 05d5 FA02     		.2byte	0x2fa
 1500 05d7 19010000 		.4byte	0x119
 1501 05db 30       		.byte	0x30
 1502 05dc 0C       		.uleb128 0xc
 1503 05dd 63020000 		.4byte	.LASF98
 1504 05e1 08       		.byte	0x8
 1505 05e2 FB02     		.2byte	0x2fb
 1506 05e4 19010000 		.4byte	0x119
 1507 05e8 34       		.byte	0x34
 1508 05e9 0C       		.uleb128 0xc
 1509 05ea 68020000 		.4byte	.LASF99
 1510 05ee 08       		.byte	0x8
 1511 05ef FC02     		.2byte	0x2fc
 1512 05f1 19010000 		.4byte	0x119
 1513 05f5 38       		.byte	0x38
 1514 05f6 0C       		.uleb128 0xc
 1515 05f7 6D020000 		.4byte	.LASF100
 1516 05fb 08       		.byte	0x8
 1517 05fc FD02     		.2byte	0x2fd
 1518 05fe 19010000 		.4byte	0x119
 1519 0602 3C       		.byte	0x3c
 1520 0603 0C       		.uleb128 0xc
 1521 0604 72020000 		.4byte	.LASF101
 1522 0608 08       		.byte	0x8
 1523 0609 FE02     		.2byte	0x2fe
 1524 060b 19010000 		.4byte	0x119
 1525 060f 40       		.byte	0x40
 1526 0610 0C       		.uleb128 0xc
 1527 0611 3C020000 		.4byte	.LASF102
ARM GAS  /var/folders/sv/kgmgr77579zbf78p2zlhkdfr0000gn/T//ccRS1V9P.s 			page 28


 1528 0615 08       		.byte	0x8
 1529 0616 FF02     		.2byte	0x2ff
 1530 0618 19010000 		.4byte	0x119
 1531 061c 44       		.byte	0x44
 1532 061d 0B       		.uleb128 0xb
 1533 061e 44435200 		.ascii	"DCR\000"
 1534 0622 08       		.byte	0x8
 1535 0623 0003     		.2byte	0x300
 1536 0625 19010000 		.4byte	0x119
 1537 0629 48       		.byte	0x48
 1538 062a 0C       		.uleb128 0xc
 1539 062b 90010000 		.4byte	.LASF103
 1540 062f 08       		.byte	0x8
 1541 0630 0103     		.2byte	0x301
 1542 0632 19010000 		.4byte	0x119
 1543 0636 4C       		.byte	0x4c
 1544 0637 0B       		.uleb128 0xb
 1545 0638 4F5200   		.ascii	"OR\000"
 1546 063b 08       		.byte	0x8
 1547 063c 0203     		.2byte	0x302
 1548 063e 19010000 		.4byte	0x119
 1549 0642 50       		.byte	0x50
 1550 0643 00       		.byte	0
 1551 0644 14       		.uleb128 0x14
 1552 0645 F3010000 		.4byte	.LASF104
 1553 0649 08       		.byte	0x8
 1554 064a 0303     		.2byte	0x303
 1555 064c 2B050000 		.4byte	0x52b
 1556 0650 15       		.uleb128 0x15
 1557 0651 01       		.byte	0x1
 1558 0652 5E000000 		.4byte	0x5e
 1559 0656 13       		.byte	0x13
 1560 0657 A8       		.byte	0xa8
 1561 0658 69060000 		.4byte	0x669
 1562 065c 16       		.uleb128 0x16
 1563 065d 0A050000 		.4byte	.LASF105
 1564 0661 00       		.byte	0
 1565 0662 16       		.uleb128 0x16
 1566 0663 66080000 		.4byte	.LASF106
 1567 0667 01       		.byte	0x1
 1568 0668 00       		.byte	0
 1569 0669 04       		.uleb128 0x4
 1570 066a 5E000000 		.4byte	.LASF107
 1571 066e 09       		.byte	0x9
 1572 066f 65       		.byte	0x65
 1573 0670 BB000000 		.4byte	0xbb
 1574 0674 04       		.uleb128 0x4
 1575 0675 B5090000 		.4byte	.LASF108
 1576 0679 09       		.byte	0x9
 1577 067a 6D       		.byte	0x6d
 1578 067b 09010000 		.4byte	0x109
 1579 067f 09       		.uleb128 0x9
 1580 0680 24060000 		.4byte	.LASF109
 1581 0684 04       		.byte	0x4
 1582 0685 09       		.byte	0x9
 1583 0686 89       		.byte	0x89
 1584 0687 98060000 		.4byte	0x698
ARM GAS  /var/folders/sv/kgmgr77579zbf78p2zlhkdfr0000gn/T//ccRS1V9P.s 			page 29


 1585 068b 17       		.uleb128 0x17
 1586 068c 72313300 		.ascii	"r13\000"
 1587 0690 09       		.byte	0x9
 1588 0691 8A       		.byte	0x8a
 1589 0692 D9070000 		.4byte	0x7d9
 1590 0696 00       		.byte	0
 1591 0697 00       		.byte	0
 1592 0698 09       		.uleb128 0x9
 1593 0699 C2070000 		.4byte	.LASF110
 1594 069d 64       		.byte	0x64
 1595 069e 0A       		.byte	0xa
 1596 069f F4       		.byte	0xf4
 1597 06a0 D9070000 		.4byte	0x7d9
 1598 06a4 17       		.uleb128 0x17
 1599 06a5 73313600 		.ascii	"s16\000"
 1600 06a9 0A       		.byte	0xa
 1601 06aa F6       		.byte	0xf6
 1602 06ab 69060000 		.4byte	0x669
 1603 06af 00       		.byte	0
 1604 06b0 17       		.uleb128 0x17
 1605 06b1 73313700 		.ascii	"s17\000"
 1606 06b5 0A       		.byte	0xa
 1607 06b6 F7       		.byte	0xf7
 1608 06b7 69060000 		.4byte	0x669
 1609 06bb 04       		.byte	0x4
 1610 06bc 17       		.uleb128 0x17
 1611 06bd 73313800 		.ascii	"s18\000"
 1612 06c1 0A       		.byte	0xa
 1613 06c2 F8       		.byte	0xf8
 1614 06c3 69060000 		.4byte	0x669
 1615 06c7 08       		.byte	0x8
 1616 06c8 17       		.uleb128 0x17
 1617 06c9 73313900 		.ascii	"s19\000"
 1618 06cd 0A       		.byte	0xa
 1619 06ce F9       		.byte	0xf9
 1620 06cf 69060000 		.4byte	0x669
 1621 06d3 0C       		.byte	0xc
 1622 06d4 17       		.uleb128 0x17
 1623 06d5 73323000 		.ascii	"s20\000"
 1624 06d9 0A       		.byte	0xa
 1625 06da FA       		.byte	0xfa
 1626 06db 69060000 		.4byte	0x669
 1627 06df 10       		.byte	0x10
 1628 06e0 17       		.uleb128 0x17
 1629 06e1 73323100 		.ascii	"s21\000"
 1630 06e5 0A       		.byte	0xa
 1631 06e6 FB       		.byte	0xfb
 1632 06e7 69060000 		.4byte	0x669
 1633 06eb 14       		.byte	0x14
 1634 06ec 17       		.uleb128 0x17
 1635 06ed 73323200 		.ascii	"s22\000"
 1636 06f1 0A       		.byte	0xa
 1637 06f2 FC       		.byte	0xfc
 1638 06f3 69060000 		.4byte	0x669
 1639 06f7 18       		.byte	0x18
 1640 06f8 17       		.uleb128 0x17
 1641 06f9 73323300 		.ascii	"s23\000"
ARM GAS  /var/folders/sv/kgmgr77579zbf78p2zlhkdfr0000gn/T//ccRS1V9P.s 			page 30


 1642 06fd 0A       		.byte	0xa
 1643 06fe FD       		.byte	0xfd
 1644 06ff 69060000 		.4byte	0x669
 1645 0703 1C       		.byte	0x1c
 1646 0704 17       		.uleb128 0x17
 1647 0705 73323400 		.ascii	"s24\000"
 1648 0709 0A       		.byte	0xa
 1649 070a FE       		.byte	0xfe
 1650 070b 69060000 		.4byte	0x669
 1651 070f 20       		.byte	0x20
 1652 0710 17       		.uleb128 0x17
 1653 0711 73323500 		.ascii	"s25\000"
 1654 0715 0A       		.byte	0xa
 1655 0716 FF       		.byte	0xff
 1656 0717 69060000 		.4byte	0x669
 1657 071b 24       		.byte	0x24
 1658 071c 0B       		.uleb128 0xb
 1659 071d 73323600 		.ascii	"s26\000"
 1660 0721 0A       		.byte	0xa
 1661 0722 0001     		.2byte	0x100
 1662 0724 69060000 		.4byte	0x669
 1663 0728 28       		.byte	0x28
 1664 0729 0B       		.uleb128 0xb
 1665 072a 73323700 		.ascii	"s27\000"
 1666 072e 0A       		.byte	0xa
 1667 072f 0101     		.2byte	0x101
 1668 0731 69060000 		.4byte	0x669
 1669 0735 2C       		.byte	0x2c
 1670 0736 0B       		.uleb128 0xb
 1671 0737 73323800 		.ascii	"s28\000"
 1672 073b 0A       		.byte	0xa
 1673 073c 0201     		.2byte	0x102
 1674 073e 69060000 		.4byte	0x669
 1675 0742 30       		.byte	0x30
 1676 0743 0B       		.uleb128 0xb
 1677 0744 73323900 		.ascii	"s29\000"
 1678 0748 0A       		.byte	0xa
 1679 0749 0301     		.2byte	0x103
 1680 074b 69060000 		.4byte	0x669
 1681 074f 34       		.byte	0x34
 1682 0750 0B       		.uleb128 0xb
 1683 0751 73333000 		.ascii	"s30\000"
 1684 0755 0A       		.byte	0xa
 1685 0756 0401     		.2byte	0x104
 1686 0758 69060000 		.4byte	0x669
 1687 075c 38       		.byte	0x38
 1688 075d 0B       		.uleb128 0xb
 1689 075e 73333100 		.ascii	"s31\000"
 1690 0762 0A       		.byte	0xa
 1691 0763 0501     		.2byte	0x105
 1692 0765 69060000 		.4byte	0x669
 1693 0769 3C       		.byte	0x3c
 1694 076a 0B       		.uleb128 0xb
 1695 076b 723400   		.ascii	"r4\000"
 1696 076e 0A       		.byte	0xa
 1697 076f 0701     		.2byte	0x107
 1698 0771 69060000 		.4byte	0x669
ARM GAS  /var/folders/sv/kgmgr77579zbf78p2zlhkdfr0000gn/T//ccRS1V9P.s 			page 31


 1699 0775 40       		.byte	0x40
 1700 0776 0B       		.uleb128 0xb
 1701 0777 723500   		.ascii	"r5\000"
 1702 077a 0A       		.byte	0xa
 1703 077b 0801     		.2byte	0x108
 1704 077d 69060000 		.4byte	0x669
 1705 0781 44       		.byte	0x44
 1706 0782 0B       		.uleb128 0xb
 1707 0783 723600   		.ascii	"r6\000"
 1708 0786 0A       		.byte	0xa
 1709 0787 0901     		.2byte	0x109
 1710 0789 69060000 		.4byte	0x669
 1711 078d 48       		.byte	0x48
 1712 078e 0B       		.uleb128 0xb
 1713 078f 723700   		.ascii	"r7\000"
 1714 0792 0A       		.byte	0xa
 1715 0793 0A01     		.2byte	0x10a
 1716 0795 69060000 		.4byte	0x669
 1717 0799 4C       		.byte	0x4c
 1718 079a 0B       		.uleb128 0xb
 1719 079b 723800   		.ascii	"r8\000"
 1720 079e 0A       		.byte	0xa
 1721 079f 0B01     		.2byte	0x10b
 1722 07a1 69060000 		.4byte	0x669
 1723 07a5 50       		.byte	0x50
 1724 07a6 0B       		.uleb128 0xb
 1725 07a7 723900   		.ascii	"r9\000"
 1726 07aa 0A       		.byte	0xa
 1727 07ab 0C01     		.2byte	0x10c
 1728 07ad 69060000 		.4byte	0x669
 1729 07b1 54       		.byte	0x54
 1730 07b2 0B       		.uleb128 0xb
 1731 07b3 72313000 		.ascii	"r10\000"
 1732 07b7 0A       		.byte	0xa
 1733 07b8 0D01     		.2byte	0x10d
 1734 07ba 69060000 		.4byte	0x669
 1735 07be 58       		.byte	0x58
 1736 07bf 0B       		.uleb128 0xb
 1737 07c0 72313100 		.ascii	"r11\000"
 1738 07c4 0A       		.byte	0xa
 1739 07c5 0E01     		.2byte	0x10e
 1740 07c7 69060000 		.4byte	0x669
 1741 07cb 5C       		.byte	0x5c
 1742 07cc 0B       		.uleb128 0xb
 1743 07cd 6C7200   		.ascii	"lr\000"
 1744 07d0 0A       		.byte	0xa
 1745 07d1 0F01     		.2byte	0x10f
 1746 07d3 69060000 		.4byte	0x669
 1747 07d7 60       		.byte	0x60
 1748 07d8 00       		.byte	0
 1749 07d9 06       		.uleb128 0x6
 1750 07da 04       		.byte	0x4
 1751 07db 98060000 		.4byte	0x698
 1752 07df 18       		.uleb128 0x18
 1753 07e0 04       		.byte	0x4
 1754 07e1 0B       		.byte	0xb
 1755 07e2 38       		.byte	0x38
ARM GAS  /var/folders/sv/kgmgr77579zbf78p2zlhkdfr0000gn/T//ccRS1V9P.s 			page 32


 1756 07e3 F4070000 		.4byte	0x7f4
 1757 07e7 0A       		.uleb128 0xa
 1758 07e8 3E030000 		.4byte	.LASF111
 1759 07ec 0B       		.byte	0xb
 1760 07ed 3C       		.byte	0x3c
 1761 07ee 1E010000 		.4byte	0x11e
 1762 07f2 00       		.byte	0
 1763 07f3 00       		.byte	0
 1764 07f4 04       		.uleb128 0x4
 1765 07f5 3C000000 		.4byte	.LASF112
 1766 07f9 0B       		.byte	0xb
 1767 07fa 3D       		.byte	0x3d
 1768 07fb DF070000 		.4byte	0x7df
 1769 07ff 19       		.uleb128 0x19
 1770 0800 04       		.byte	0x4
 1771 0801 07       		.byte	0x7
 1772 0802 FA       		.byte	0xfa
 1773 0803 5C080000 		.4byte	0x85c
 1774 0807 1A       		.uleb128 0x1a
 1775 0808 37030000 		.4byte	.LASF113
 1776 080c 07       		.byte	0x7
 1777 080d 0101     		.2byte	0x101
 1778 080f 60010000 		.4byte	0x160
 1779 0813 1A       		.uleb128 0x1a
 1780 0814 2B0A0000 		.4byte	.LASF114
 1781 0818 07       		.byte	0x7
 1782 0819 0801     		.2byte	0x108
 1783 081b 60010000 		.4byte	0x160
 1784 081f 1A       		.uleb128 0x1a
 1785 0820 26010000 		.4byte	.LASF115
 1786 0824 07       		.byte	0x7
 1787 0825 0F01     		.2byte	0x10f
 1788 0827 BB000000 		.4byte	0xbb
 1789 082b 1A       		.uleb128 0x1a
 1790 082c 6B090000 		.4byte	.LASF116
 1791 0830 07       		.byte	0x7
 1792 0831 1601     		.2byte	0x116
 1793 0833 5C080000 		.4byte	0x85c
 1794 0837 1A       		.uleb128 0x1a
 1795 0838 B4080000 		.4byte	.LASF117
 1796 083c 07       		.byte	0x7
 1797 083d 1E01     		.2byte	0x11e
 1798 083f 87080000 		.4byte	0x887
 1799 0843 1A       		.uleb128 0x1a
 1800 0844 240A0000 		.4byte	.LASF118
 1801 0848 07       		.byte	0x7
 1802 0849 2701     		.2byte	0x127
 1803 084b BE080000 		.4byte	0x8be
 1804 084f 1A       		.uleb128 0x1a
 1805 0850 3A090000 		.4byte	.LASF119
 1806 0854 07       		.byte	0x7
 1807 0855 2F01     		.2byte	0x12f
 1808 0857 6B010000 		.4byte	0x16b
 1809 085b 00       		.byte	0
 1810 085c 06       		.uleb128 0x6
 1811 085d 04       		.byte	0x4
 1812 085e 9C020000 		.4byte	0x29c
ARM GAS  /var/folders/sv/kgmgr77579zbf78p2zlhkdfr0000gn/T//ccRS1V9P.s 			page 33


 1813 0862 09       		.uleb128 0x9
 1814 0863 4E020000 		.4byte	.LASF120
 1815 0867 0C       		.byte	0xc
 1816 0868 0C       		.byte	0xc
 1817 0869 34       		.byte	0x34
 1818 086a 87080000 		.4byte	0x887
 1819 086e 0A       		.uleb128 0xa
 1820 086f B0000000 		.4byte	.LASF121
 1821 0873 0C       		.byte	0xc
 1822 0874 35       		.byte	0x35
 1823 0875 D1020000 		.4byte	0x2d1
 1824 0879 00       		.byte	0
 1825 087a 0A       		.uleb128 0xa
 1826 087b C7010000 		.4byte	.LASF122
 1827 087f 0C       		.byte	0xc
 1828 0880 37       		.byte	0x37
 1829 0881 76010000 		.4byte	0x176
 1830 0885 08       		.byte	0x8
 1831 0886 00       		.byte	0
 1832 0887 06       		.uleb128 0x6
 1833 0888 04       		.byte	0x4
 1834 0889 62080000 		.4byte	0x862
 1835 088d 09       		.uleb128 0x9
 1836 088e 7F040000 		.4byte	.LASF123
 1837 0892 10       		.byte	0x10
 1838 0893 0D       		.byte	0xd
 1839 0894 39       		.byte	0x39
 1840 0895 BE080000 		.4byte	0x8be
 1841 0899 0A       		.uleb128 0xa
 1842 089a AA070000 		.4byte	.LASF124
 1843 089e 0D       		.byte	0xd
 1844 089f 3A       		.byte	0x3a
 1845 08a0 D1020000 		.4byte	0x2d1
 1846 08a4 00       		.byte	0
 1847 08a5 0A       		.uleb128 0xa
 1848 08a6 77040000 		.4byte	.LASF125
 1849 08aa 0D       		.byte	0xd
 1850 08ab 3C       		.byte	0x3c
 1851 08ac A7020000 		.4byte	0x2a7
 1852 08b0 08       		.byte	0x8
 1853 08b1 0A       		.uleb128 0xa
 1854 08b2 89090000 		.4byte	.LASF126
 1855 08b6 0D       		.byte	0xd
 1856 08b7 3E       		.byte	0x3e
 1857 08b8 EF080000 		.4byte	0x8ef
 1858 08bc 0C       		.byte	0xc
 1859 08bd 00       		.byte	0
 1860 08be 06       		.uleb128 0x6
 1861 08bf 04       		.byte	0x4
 1862 08c0 8D080000 		.4byte	0x88d
 1863 08c4 08       		.uleb128 0x8
 1864 08c5 81010000 		.4byte	0x181
 1865 08c9 06       		.uleb128 0x6
 1866 08ca 04       		.byte	0x4
 1867 08cb 84030000 		.4byte	0x384
 1868 08cf 08       		.uleb128 0x8
 1869 08d0 C4000000 		.4byte	0xc4
ARM GAS  /var/folders/sv/kgmgr77579zbf78p2zlhkdfr0000gn/T//ccRS1V9P.s 			page 34


 1870 08d4 11       		.uleb128 0x11
 1871 08d5 74060000 		.4byte	0x674
 1872 08d9 E4080000 		.4byte	0x8e4
 1873 08dd 12       		.uleb128 0x12
 1874 08de B4000000 		.4byte	0xb4
 1875 08e2 3A       		.byte	0x3a
 1876 08e3 00       		.byte	0
 1877 08e4 04       		.uleb128 0x4
 1878 08e5 DD080000 		.4byte	.LASF127
 1879 08e9 0D       		.byte	0xd
 1880 08ea 34       		.byte	0x34
 1881 08eb 8D080000 		.4byte	0x88d
 1882 08ef 06       		.uleb128 0x6
 1883 08f0 04       		.byte	0x4
 1884 08f1 E4080000 		.4byte	0x8e4
 1885 08f5 02       		.uleb128 0x2
 1886 08f6 01       		.byte	0x1
 1887 08f7 02       		.byte	0x2
 1888 08f8 4D030000 		.4byte	.LASF128
 1889 08fc 18       		.uleb128 0x18
 1890 08fd 3C       		.byte	0x3c
 1891 08fe 0E       		.byte	0xe
 1892 08ff 36       		.byte	0x36
 1893 0900 B9090000 		.4byte	0x9b9
 1894 0904 0A       		.uleb128 0xa
 1895 0905 D1080000 		.4byte	.LASF129
 1896 0909 0E       		.byte	0xe
 1897 090a 38       		.byte	0x38
 1898 090b FE000000 		.4byte	0xfe
 1899 090f 00       		.byte	0
 1900 0910 0A       		.uleb128 0xa
 1901 0911 69010000 		.4byte	.LASF130
 1902 0915 0E       		.byte	0xe
 1903 0916 3B       		.byte	0x3b
 1904 0917 FE000000 		.4byte	0xfe
 1905 091b 04       		.byte	0x4
 1906 091c 0A       		.uleb128 0xa
 1907 091d 8B060000 		.4byte	.LASF131
 1908 0921 0E       		.byte	0xe
 1909 0922 3D       		.byte	0x3d
 1910 0923 FE000000 		.4byte	0xfe
 1911 0927 08       		.byte	0x8
 1912 0928 0A       		.uleb128 0xa
 1913 0929 A8000000 		.4byte	.LASF132
 1914 092d 0E       		.byte	0xe
 1915 092e 41       		.byte	0x41
 1916 092f FE000000 		.4byte	0xfe
 1917 0933 0C       		.byte	0xc
 1918 0934 0A       		.uleb128 0xa
 1919 0935 45080000 		.4byte	.LASF133
 1920 0939 0E       		.byte	0xe
 1921 093a 45       		.byte	0x45
 1922 093b FE000000 		.4byte	0xfe
 1923 093f 10       		.byte	0x10
 1924 0940 0A       		.uleb128 0xa
 1925 0941 12060000 		.4byte	.LASF134
 1926 0945 0E       		.byte	0xe
ARM GAS  /var/folders/sv/kgmgr77579zbf78p2zlhkdfr0000gn/T//ccRS1V9P.s 			page 35


 1927 0946 49       		.byte	0x49
 1928 0947 FE000000 		.4byte	0xfe
 1929 094b 14       		.byte	0x14
 1930 094c 0A       		.uleb128 0xa
 1931 094d 82050000 		.4byte	.LASF135
 1932 0951 0E       		.byte	0xe
 1933 0952 4C       		.byte	0x4c
 1934 0953 FE000000 		.4byte	0xfe
 1935 0957 18       		.byte	0x18
 1936 0958 0A       		.uleb128 0xa
 1937 0959 E4060000 		.4byte	.LASF136
 1938 095d 0E       		.byte	0xe
 1939 095e 4F       		.byte	0x4f
 1940 095f FE000000 		.4byte	0xfe
 1941 0963 1C       		.byte	0x1c
 1942 0964 0A       		.uleb128 0xa
 1943 0965 2B070000 		.4byte	.LASF137
 1944 0969 0E       		.byte	0xe
 1945 096a 52       		.byte	0x52
 1946 096b FE000000 		.4byte	0xfe
 1947 096f 20       		.byte	0x20
 1948 0970 0A       		.uleb128 0xa
 1949 0971 43050000 		.4byte	.LASF138
 1950 0975 0E       		.byte	0xe
 1951 0976 55       		.byte	0x55
 1952 0977 FE000000 		.4byte	0xfe
 1953 097b 24       		.byte	0x24
 1954 097c 0A       		.uleb128 0xa
 1955 097d BE060000 		.4byte	.LASF139
 1956 0981 0E       		.byte	0xe
 1957 0982 5A       		.byte	0x5a
 1958 0983 FE000000 		.4byte	0xfe
 1959 0987 28       		.byte	0x28
 1960 0988 0A       		.uleb128 0xa
 1961 0989 B1060000 		.4byte	.LASF140
 1962 098d 0E       		.byte	0xe
 1963 098e 5D       		.byte	0x5d
 1964 098f FE000000 		.4byte	0xfe
 1965 0993 2C       		.byte	0x2c
 1966 0994 0A       		.uleb128 0xa
 1967 0995 C0090000 		.4byte	.LASF141
 1968 0999 0E       		.byte	0xe
 1969 099a 62       		.byte	0x62
 1970 099b FE000000 		.4byte	0xfe
 1971 099f 30       		.byte	0x30
 1972 09a0 0A       		.uleb128 0xa
 1973 09a1 1B070000 		.4byte	.LASF142
 1974 09a5 0E       		.byte	0xe
 1975 09a6 65       		.byte	0x65
 1976 09a7 FE000000 		.4byte	0xfe
 1977 09ab 34       		.byte	0x34
 1978 09ac 0A       		.uleb128 0xa
 1979 09ad 95010000 		.4byte	.LASF143
 1980 09b1 0E       		.byte	0xe
 1981 09b2 6A       		.byte	0x6a
 1982 09b3 FE000000 		.4byte	0xfe
 1983 09b7 38       		.byte	0x38
ARM GAS  /var/folders/sv/kgmgr77579zbf78p2zlhkdfr0000gn/T//ccRS1V9P.s 			page 36


 1984 09b8 00       		.byte	0
 1985 09b9 04       		.uleb128 0x4
 1986 09ba 8F070000 		.4byte	.LASF144
 1987 09be 0E       		.byte	0xe
 1988 09bf 6E       		.byte	0x6e
 1989 09c0 FC080000 		.4byte	0x8fc
 1990 09c4 18       		.uleb128 0x18
 1991 09c5 0C       		.byte	0xc
 1992 09c6 0F       		.byte	0xf
 1993 09c7 37       		.byte	0x37
 1994 09c8 090A0000 		.4byte	0xa09
 1995 09cc 0A       		.uleb128 0xa
 1996 09cd 2E000000 		.4byte	.LASF145
 1997 09d1 0F       		.byte	0xf
 1998 09d2 39       		.byte	0x39
 1999 09d3 E8000000 		.4byte	0xe8
 2000 09d7 00       		.byte	0
 2001 09d8 0A       		.uleb128 0xa
 2002 09d9 6A050000 		.4byte	.LASF146
 2003 09dd 0F       		.byte	0xf
 2004 09de 3C       		.byte	0x3c
 2005 09df E8000000 		.4byte	0xe8
 2006 09e3 02       		.byte	0x2
 2007 09e4 0A       		.uleb128 0xa
 2008 09e5 39010000 		.4byte	.LASF147
 2009 09e9 0F       		.byte	0xf
 2010 09ea 3F       		.byte	0x3f
 2011 09eb FE000000 		.4byte	0xfe
 2012 09ef 04       		.byte	0x4
 2013 09f0 0A       		.uleb128 0xa
 2014 09f1 23020000 		.4byte	.LASF148
 2015 09f5 0F       		.byte	0xf
 2016 09f6 43       		.byte	0x43
 2017 09f7 E8000000 		.4byte	0xe8
 2018 09fb 08       		.byte	0x8
 2019 09fc 0A       		.uleb128 0xa
 2020 09fd B1040000 		.4byte	.LASF149
 2021 0a01 0F       		.byte	0xf
 2022 0a02 46       		.byte	0x46
 2023 0a03 DD000000 		.4byte	0xdd
 2024 0a07 0A       		.byte	0xa
 2025 0a08 00       		.byte	0
 2026 0a09 04       		.uleb128 0x4
 2027 0a0a 71090000 		.4byte	.LASF150
 2028 0a0e 0F       		.byte	0xf
 2029 0a0f 4E       		.byte	0x4e
 2030 0a10 C4090000 		.4byte	0x9c4
 2031 0a14 18       		.uleb128 0x18
 2032 0a15 14       		.byte	0x14
 2033 0a16 0F       		.byte	0xf
 2034 0a17 54       		.byte	0x54
 2035 0a18 7D0A0000 		.4byte	0xa7d
 2036 0a1c 0A       		.uleb128 0xa
 2037 0a1d 5B070000 		.4byte	.LASF151
 2038 0a21 0F       		.byte	0xf
 2039 0a22 56       		.byte	0x56
 2040 0a23 E8000000 		.4byte	0xe8
ARM GAS  /var/folders/sv/kgmgr77579zbf78p2zlhkdfr0000gn/T//ccRS1V9P.s 			page 37


 2041 0a27 00       		.byte	0
 2042 0a28 0A       		.uleb128 0xa
 2043 0a29 B2070000 		.4byte	.LASF152
 2044 0a2d 0F       		.byte	0xf
 2045 0a2e 59       		.byte	0x59
 2046 0a2f E8000000 		.4byte	0xe8
 2047 0a33 02       		.byte	0x2
 2048 0a34 0A       		.uleb128 0xa
 2049 0a35 34080000 		.4byte	.LASF153
 2050 0a39 0F       		.byte	0xf
 2051 0a3a 5C       		.byte	0x5c
 2052 0a3b E8000000 		.4byte	0xe8
 2053 0a3f 04       		.byte	0x4
 2054 0a40 0A       		.uleb128 0xa
 2055 0a41 E5070000 		.4byte	.LASF154
 2056 0a45 0F       		.byte	0xf
 2057 0a46 60       		.byte	0x60
 2058 0a47 FE000000 		.4byte	0xfe
 2059 0a4b 08       		.byte	0x8
 2060 0a4c 0A       		.uleb128 0xa
 2061 0a4d 0B020000 		.4byte	.LASF155
 2062 0a51 0F       		.byte	0xf
 2063 0a52 63       		.byte	0x63
 2064 0a53 E8000000 		.4byte	0xe8
 2065 0a57 0C       		.byte	0xc
 2066 0a58 0A       		.uleb128 0xa
 2067 0a59 DB040000 		.4byte	.LASF156
 2068 0a5d 0F       		.byte	0xf
 2069 0a5e 66       		.byte	0x66
 2070 0a5f E8000000 		.4byte	0xe8
 2071 0a63 0E       		.byte	0xe
 2072 0a64 0A       		.uleb128 0xa
 2073 0a65 80010000 		.4byte	.LASF157
 2074 0a69 0F       		.byte	0xf
 2075 0a6a 6A       		.byte	0x6a
 2076 0a6b E8000000 		.4byte	0xe8
 2077 0a6f 10       		.byte	0x10
 2078 0a70 0A       		.uleb128 0xa
 2079 0a71 51060000 		.4byte	.LASF158
 2080 0a75 0F       		.byte	0xf
 2081 0a76 6E       		.byte	0x6e
 2082 0a77 E8000000 		.4byte	0xe8
 2083 0a7b 12       		.byte	0x12
 2084 0a7c 00       		.byte	0
 2085 0a7d 04       		.uleb128 0x4
 2086 0a7e 6E000000 		.4byte	.LASF159
 2087 0a82 0F       		.byte	0xf
 2088 0a83 71       		.byte	0x71
 2089 0a84 140A0000 		.4byte	0xa14
 2090 0a88 18       		.uleb128 0x18
 2091 0a89 04       		.byte	0x4
 2092 0a8a 10       		.byte	0x10
 2093 0a8b B3       		.byte	0xb3
 2094 0a8c A90A0000 		.4byte	0xaa9
 2095 0a90 17       		.uleb128 0x17
 2096 0a91 73657400 		.ascii	"set\000"
 2097 0a95 10       		.byte	0x10
ARM GAS  /var/folders/sv/kgmgr77579zbf78p2zlhkdfr0000gn/T//ccRS1V9P.s 			page 38


 2098 0a96 B4       		.byte	0xb4
 2099 0a97 E8000000 		.4byte	0xe8
 2100 0a9b 00       		.byte	0
 2101 0a9c 0A       		.uleb128 0xa
 2102 0a9d 04030000 		.4byte	.LASF160
 2103 0aa1 10       		.byte	0x10
 2104 0aa2 B5       		.byte	0xb5
 2105 0aa3 E8000000 		.4byte	0xe8
 2106 0aa7 02       		.byte	0x2
 2107 0aa8 00       		.byte	0
 2108 0aa9 19       		.uleb128 0x19
 2109 0aaa 04       		.byte	0x4
 2110 0aab 10       		.byte	0x10
 2111 0aac B1       		.byte	0xb1
 2112 0aad C40A0000 		.4byte	0xac4
 2113 0ab1 1B       		.uleb128 0x1b
 2114 0ab2 5700     		.ascii	"W\000"
 2115 0ab4 10       		.byte	0x10
 2116 0ab5 B2       		.byte	0xb2
 2117 0ab6 FE000000 		.4byte	0xfe
 2118 0aba 1B       		.uleb128 0x1b
 2119 0abb 4800     		.ascii	"H\000"
 2120 0abd 10       		.byte	0x10
 2121 0abe B6       		.byte	0xb6
 2122 0abf 880A0000 		.4byte	0xa88
 2123 0ac3 00       		.byte	0
 2124 0ac4 18       		.uleb128 0x18
 2125 0ac5 2C       		.byte	0x2c
 2126 0ac6 10       		.byte	0x10
 2127 0ac7 A9       		.byte	0xa9
 2128 0ac8 510B0000 		.4byte	0xb51
 2129 0acc 0A       		.uleb128 0xa
 2130 0acd DF020000 		.4byte	.LASF161
 2131 0ad1 10       		.byte	0x10
 2132 0ad2 AB       		.byte	0xab
 2133 0ad3 19010000 		.4byte	0x119
 2134 0ad7 00       		.byte	0
 2135 0ad8 0A       		.uleb128 0xa
 2136 0ad9 EF070000 		.4byte	.LASF162
 2137 0add 10       		.byte	0x10
 2138 0ade AC       		.byte	0xac
 2139 0adf 19010000 		.4byte	0x119
 2140 0ae3 04       		.byte	0x4
 2141 0ae4 0A       		.uleb128 0xa
 2142 0ae5 FB060000 		.4byte	.LASF163
 2143 0ae9 10       		.byte	0x10
 2144 0aea AD       		.byte	0xad
 2145 0aeb 19010000 		.4byte	0x119
 2146 0aef 08       		.byte	0x8
 2147 0af0 0A       		.uleb128 0xa
 2148 0af1 C7040000 		.4byte	.LASF164
 2149 0af5 10       		.byte	0x10
 2150 0af6 AE       		.byte	0xae
 2151 0af7 19010000 		.4byte	0x119
 2152 0afb 0C       		.byte	0xc
 2153 0afc 17       		.uleb128 0x17
 2154 0afd 49445200 		.ascii	"IDR\000"
ARM GAS  /var/folders/sv/kgmgr77579zbf78p2zlhkdfr0000gn/T//ccRS1V9P.s 			page 39


 2155 0b01 10       		.byte	0x10
 2156 0b02 AF       		.byte	0xaf
 2157 0b03 19010000 		.4byte	0x119
 2158 0b07 10       		.byte	0x10
 2159 0b08 17       		.uleb128 0x17
 2160 0b09 4F445200 		.ascii	"ODR\000"
 2161 0b0d 10       		.byte	0x10
 2162 0b0e B0       		.byte	0xb0
 2163 0b0f 19010000 		.4byte	0x119
 2164 0b13 14       		.byte	0x14
 2165 0b14 0A       		.uleb128 0xa
 2166 0b15 54000000 		.4byte	.LASF165
 2167 0b19 10       		.byte	0x10
 2168 0b1a B7       		.byte	0xb7
 2169 0b1b 510B0000 		.4byte	0xb51
 2170 0b1f 18       		.byte	0x18
 2171 0b20 0A       		.uleb128 0xa
 2172 0b21 340A0000 		.4byte	.LASF166
 2173 0b25 10       		.byte	0x10
 2174 0b26 B8       		.byte	0xb8
 2175 0b27 19010000 		.4byte	0x119
 2176 0b2b 1C       		.byte	0x1c
 2177 0b2c 0A       		.uleb128 0xa
 2178 0b2d F7020000 		.4byte	.LASF167
 2179 0b31 10       		.byte	0x10
 2180 0b32 B9       		.byte	0xb9
 2181 0b33 19010000 		.4byte	0x119
 2182 0b37 20       		.byte	0x20
 2183 0b38 0A       		.uleb128 0xa
 2184 0b39 E5020000 		.4byte	.LASF168
 2185 0b3d 10       		.byte	0x10
 2186 0b3e BA       		.byte	0xba
 2187 0b3f 19010000 		.4byte	0x119
 2188 0b43 24       		.byte	0x24
 2189 0b44 17       		.uleb128 0x17
 2190 0b45 42525200 		.ascii	"BRR\000"
 2191 0b49 10       		.byte	0x10
 2192 0b4a BB       		.byte	0xbb
 2193 0b4b 19010000 		.4byte	0x119
 2194 0b4f 28       		.byte	0x28
 2195 0b50 00       		.byte	0
 2196 0b51 08       		.uleb128 0x8
 2197 0b52 A90A0000 		.4byte	0xaa9
 2198 0b56 04       		.uleb128 0x4
 2199 0b57 EA020000 		.4byte	.LASF169
 2200 0b5b 10       		.byte	0x10
 2201 0b5c BC       		.byte	0xbc
 2202 0b5d C40A0000 		.4byte	0xac4
 2203 0b61 14       		.uleb128 0x14
 2204 0b62 2C060000 		.4byte	.LASF170
 2205 0b66 10       		.byte	0x10
 2206 0b67 0E01     		.2byte	0x10e
 2207 0b69 FE000000 		.4byte	0xfe
 2208 0b6d 11       		.uleb128 0x11
 2209 0b6e DD000000 		.4byte	0xdd
 2210 0b72 7D0B0000 		.4byte	0xb7d
 2211 0b76 12       		.uleb128 0x12
ARM GAS  /var/folders/sv/kgmgr77579zbf78p2zlhkdfr0000gn/T//ccRS1V9P.s 			page 40


 2212 0b77 B4000000 		.4byte	0xb4
 2213 0b7b FF       		.byte	0xff
 2214 0b7c 00       		.byte	0
 2215 0b7d 1C       		.uleb128 0x1c
 2216 0b7e 19000000 		.4byte	.LASF202
 2217 0b82 01       		.byte	0x1
 2218 0b83 AA       		.byte	0xaa
 2219 0b84 01       		.byte	0x1
 2220 0b85 AD0B0000 		.4byte	0xbad
 2221 0b89 1D       		.uleb128 0x1d
 2222 0b8a 6C656400 		.ascii	"led\000"
 2223 0b8e 01       		.byte	0x1
 2224 0b8f AA       		.byte	0xaa
 2225 0b90 3A000000 		.4byte	0x3a
 2226 0b94 1E       		.uleb128 0x1e
 2227 0b95 21030000 		.4byte	.LASF171
 2228 0b99 01       		.byte	0x1
 2229 0b9a AA       		.byte	0xaa
 2230 0b9b FE000000 		.4byte	0xfe
 2231 0b9f 1F       		.uleb128 0x1f
 2232 0ba0 20       		.uleb128 0x20
 2233 0ba1 62697400 		.ascii	"bit\000"
 2234 0ba5 01       		.byte	0x1
 2235 0ba6 B0       		.byte	0xb0
 2236 0ba7 3A000000 		.4byte	0x3a
 2237 0bab 00       		.byte	0
 2238 0bac 00       		.byte	0
 2239 0bad 21       		.uleb128 0x21
 2240 0bae 3E070000 		.4byte	.LASF203
 2241 0bb2 01       		.byte	0x1
 2242 0bb3 BC       		.byte	0xbc
 2243 0bb4 FE000000 		.4byte	0xfe
 2244 0bb8 01       		.byte	0x1
 2245 0bb9 C90B0000 		.4byte	0xbc9
 2246 0bbd 1D       		.uleb128 0x1d
 2247 0bbe 6C656400 		.ascii	"led\000"
 2248 0bc2 01       		.byte	0x1
 2249 0bc3 BC       		.byte	0xbc
 2250 0bc4 3A000000 		.4byte	0x3a
 2251 0bc8 00       		.byte	0
 2252 0bc9 22       		.uleb128 0x22
 2253 0bca E0050000 		.4byte	.LASF204
 2254 0bce 01       		.byte	0x1
 2255 0bcf EF       		.byte	0xef
 2256 0bd0 FE000000 		.4byte	0xfe
 2257 0bd4 00000000 		.4byte	.LFB263
 2258 0bd8 50000000 		.4byte	.LFE263-.LFB263
 2259 0bdc 01       		.uleb128 0x1
 2260 0bdd 9C       		.byte	0x9c
 2261 0bde 190C0000 		.4byte	0xc19
 2262 0be2 23       		.uleb128 0x23
 2263 0be3 21030000 		.4byte	.LASF171
 2264 0be7 01       		.byte	0x1
 2265 0be8 EF       		.byte	0xef
 2266 0be9 FE000000 		.4byte	0xfe
 2267 0bed 00000000 		.4byte	.LLST0
 2268 0bf1 24       		.uleb128 0x24
ARM GAS  /var/folders/sv/kgmgr77579zbf78p2zlhkdfr0000gn/T//ccRS1V9P.s 			page 41


 2269 0bf2 7200     		.ascii	"r\000"
 2270 0bf4 01       		.byte	0x1
 2271 0bf5 F0       		.byte	0xf0
 2272 0bf6 FE000000 		.4byte	0xfe
 2273 0bfa 21000000 		.4byte	.LLST1
 2274 0bfe 24       		.uleb128 0x24
 2275 0bff 6700     		.ascii	"g\000"
 2276 0c01 01       		.byte	0x1
 2277 0c02 F1       		.byte	0xf1
 2278 0c03 FE000000 		.4byte	0xfe
 2279 0c07 36010000 		.4byte	.LLST2
 2280 0c0b 24       		.uleb128 0x24
 2281 0c0c 6200     		.ascii	"b\000"
 2282 0c0e 01       		.byte	0x1
 2283 0c0f F2       		.byte	0xf2
 2284 0c10 FE000000 		.4byte	0xfe
 2285 0c14 CD010000 		.4byte	.LLST3
 2286 0c18 00       		.byte	0
 2287 0c19 25       		.uleb128 0x25
 2288 0c1a 7D0B0000 		.4byte	0xb7d
 2289 0c1e 00000000 		.4byte	.LFB264
 2290 0c22 44000000 		.4byte	.LFE264-.LFB264
 2291 0c26 01       		.uleb128 0x1
 2292 0c27 9C       		.byte	0x9c
 2293 0c28 5F0C0000 		.4byte	0xc5f
 2294 0c2c 26       		.uleb128 0x26
 2295 0c2d 890B0000 		.4byte	0xb89
 2296 0c31 A9020000 		.4byte	.LLST4
 2297 0c35 26       		.uleb128 0x26
 2298 0c36 940B0000 		.4byte	0xb94
 2299 0c3a D5020000 		.4byte	.LLST5
 2300 0c3e 27       		.uleb128 0x27
 2301 0c3f 00000000 		.4byte	.Ldebug_ranges0+0
 2302 0c43 28       		.uleb128 0x28
 2303 0c44 A00B0000 		.4byte	0xba0
 2304 0c48 01030000 		.4byte	.LLST6
 2305 0c4c 29       		.uleb128 0x29
 2306 0c4d 14000000 		.4byte	.LVL17
 2307 0c51 C90B0000 		.4byte	0xbc9
 2308 0c55 2A       		.uleb128 0x2a
 2309 0c56 01       		.uleb128 0x1
 2310 0c57 50       		.byte	0x50
 2311 0c58 03       		.uleb128 0x3
 2312 0c59 F3       		.byte	0xf3
 2313 0c5a 01       		.uleb128 0x1
 2314 0c5b 51       		.byte	0x51
 2315 0c5c 00       		.byte	0
 2316 0c5d 00       		.byte	0
 2317 0c5e 00       		.byte	0
 2318 0c5f 2B       		.uleb128 0x2b
 2319 0c60 D2090000 		.4byte	.LASF176
 2320 0c64 01       		.byte	0x1
 2321 0c65 2B       		.byte	0x2b
 2322 0c66 00000000 		.4byte	.LFB256
 2323 0c6a A0010000 		.4byte	.LFE256-.LFB256
 2324 0c6e 01       		.uleb128 0x1
 2325 0c6f 9C       		.byte	0x9c
ARM GAS  /var/folders/sv/kgmgr77579zbf78p2zlhkdfr0000gn/T//ccRS1V9P.s 			page 42


 2326 0c70 860E0000 		.4byte	0xe86
 2327 0c74 2C       		.uleb128 0x2c
 2328 0c75 BB080000 		.4byte	.LASF172
 2329 0c79 01       		.byte	0x1
 2330 0c7a 2C       		.byte	0x2c
 2331 0c7b 090A0000 		.4byte	0xa09
 2332 0c7f 03       		.uleb128 0x3
 2333 0c80 91       		.byte	0x91
 2334 0c81 847F     		.sleb128 -124
 2335 0c83 2C       		.uleb128 0x2c
 2336 0c84 9D040000 		.4byte	.LASF173
 2337 0c88 01       		.byte	0x1
 2338 0c89 2D       		.byte	0x2d
 2339 0c8a 7D0A0000 		.4byte	0xa7d
 2340 0c8e 03       		.uleb128 0x3
 2341 0c8f 91       		.byte	0x91
 2342 0c90 907F     		.sleb128 -112
 2343 0c92 2C       		.uleb128 0x2c
 2344 0c93 52010000 		.4byte	.LASF174
 2345 0c97 01       		.byte	0x1
 2346 0c98 2E       		.byte	0x2e
 2347 0c99 B9090000 		.4byte	0x9b9
 2348 0c9d 03       		.uleb128 0x3
 2349 0c9e 91       		.byte	0x91
 2350 0c9f A47F     		.sleb128 -92
 2351 0ca1 24       		.uleb128 0x24
 2352 0ca2 6900     		.ascii	"i\000"
 2353 0ca4 01       		.byte	0x1
 2354 0ca5 33       		.byte	0x33
 2355 0ca6 3A000000 		.4byte	0x3a
 2356 0caa 15030000 		.4byte	.LLST7
 2357 0cae 24       		.uleb128 0x24
 2358 0caf 62697400 		.ascii	"bit\000"
 2359 0cb3 01       		.byte	0x1
 2360 0cb4 33       		.byte	0x33
 2361 0cb5 3A000000 		.4byte	0x3a
 2362 0cb9 29030000 		.4byte	.LLST8
 2363 0cbd 2D       		.uleb128 0x2d
 2364 0cbe 24000000 		.4byte	.LBB11
 2365 0cc2 28000000 		.4byte	.LBE11-.LBB11
 2366 0cc6 E30C0000 		.4byte	0xce3
 2367 0cca 2E       		.uleb128 0x2e
 2368 0ccb 66070000 		.4byte	.LASF175
 2369 0ccf 01       		.byte	0x1
 2370 0cd0 3A       		.byte	0x3a
 2371 0cd1 FE000000 		.4byte	0xfe
 2372 0cd5 3D030000 		.4byte	.LLST9
 2373 0cd9 2F       		.uleb128 0x2f
 2374 0cda 34000000 		.4byte	.LVL22
 2375 0cde C90B0000 		.4byte	0xbc9
 2376 0ce2 00       		.byte	0
 2377 0ce3 30       		.uleb128 0x30
 2378 0ce4 18000000 		.4byte	.Ldebug_ranges0+0x18
 2379 0ce8 2C0D0000 		.4byte	0xd2c
 2380 0cec 24       		.uleb128 0x24
 2381 0ced 6900     		.ascii	"i\000"
 2382 0cef 01       		.byte	0x1
ARM GAS  /var/folders/sv/kgmgr77579zbf78p2zlhkdfr0000gn/T//ccRS1V9P.s 			page 43


 2383 0cf0 4D       		.byte	0x4d
 2384 0cf1 3A000000 		.4byte	0x3a
 2385 0cf5 50030000 		.4byte	.LLST10
 2386 0cf9 31       		.uleb128 0x31
 2387 0cfa 7C000000 		.4byte	.LVL26
 2388 0cfe 56100000 		.4byte	0x1056
 2389 0d02 220D0000 		.4byte	0xd22
 2390 0d06 2A       		.uleb128 0x2a
 2391 0d07 02       		.uleb128 0x2
 2392 0d08 90       		.byte	0x90
 2393 0d09 40       		.uleb128 0x40
 2394 0d0a 0A       		.uleb128 0xa
 2395 0d0b 74       		.byte	0x74
 2396 0d0c 00       		.sleb128 0
 2397 0d0d F7       		.byte	0xf7
 2398 0d0e 3A       		.uleb128 0x3a
 2399 0d0f F7       		.byte	0xf7
 2400 0d10 33       		.uleb128 0x33
 2401 0d11 F5       		.byte	0xf5
 2402 0d12 50       		.uleb128 0x50
 2403 0d13 33       		.uleb128 0x33
 2404 0d14 1B       		.byte	0x1b
 2405 0d15 2A       		.uleb128 0x2a
 2406 0d16 02       		.uleb128 0x2
 2407 0d17 90       		.byte	0x90
 2408 0d18 41       		.uleb128 0x41
 2409 0d19 07       		.uleb128 0x7
 2410 0d1a F4       		.byte	0xf4
 2411 0d1b 33       		.uleb128 0x33
 2412 0d1c 04       		.byte	0x4
 2413 0d1d E4380E40 		.4byte	0x400e38e4
 2414 0d21 00       		.byte	0
 2415 0d22 2F       		.uleb128 0x2f
 2416 0d23 86000000 		.4byte	.LVL28
 2417 0d27 62100000 		.4byte	0x1062
 2418 0d2b 00       		.byte	0
 2419 0d2c 31       		.uleb128 0x31
 2420 0d2d A6000000 		.4byte	.LVL29
 2421 0d31 6E100000 		.4byte	0x106e
 2422 0d35 500D0000 		.4byte	0xd50
 2423 0d39 2A       		.uleb128 0x2a
 2424 0d3a 01       		.uleb128 0x1
 2425 0d3b 50       		.byte	0x50
 2426 0d3c 05       		.uleb128 0x5
 2427 0d3d 0C       		.byte	0xc
 2428 0d3e 00040240 		.4byte	0x40020400
 2429 0d42 2A       		.uleb128 0x2a
 2430 0d43 01       		.uleb128 0x1
 2431 0d44 51       		.byte	0x51
 2432 0d45 02       		.uleb128 0x2
 2433 0d46 08       		.byte	0x8
 2434 0d47 80       		.byte	0x80
 2435 0d48 2A       		.uleb128 0x2a
 2436 0d49 01       		.uleb128 0x1
 2437 0d4a 52       		.byte	0x52
 2438 0d4b 03       		.uleb128 0x3
 2439 0d4c 0A       		.byte	0xa
ARM GAS  /var/folders/sv/kgmgr77579zbf78p2zlhkdfr0000gn/T//ccRS1V9P.s 			page 44


 2440 0d4d 0E01     		.2byte	0x10e
 2441 0d4f 00       		.byte	0
 2442 0d50 31       		.uleb128 0x31
 2443 0d51 B0000000 		.4byte	.LVL30
 2444 0d55 7A100000 		.4byte	0x107a
 2445 0d59 6A0D0000 		.4byte	0xd6a
 2446 0d5d 2A       		.uleb128 0x2a
 2447 0d5e 01       		.uleb128 0x1
 2448 0d5f 50       		.byte	0x50
 2449 0d60 03       		.uleb128 0x3
 2450 0d61 40       		.byte	0x40
 2451 0d62 41       		.byte	0x41
 2452 0d63 24       		.byte	0x24
 2453 0d64 2A       		.uleb128 0x2a
 2454 0d65 01       		.uleb128 0x1
 2455 0d66 51       		.byte	0x51
 2456 0d67 01       		.uleb128 0x1
 2457 0d68 31       		.byte	0x31
 2458 0d69 00       		.byte	0
 2459 0d6a 31       		.uleb128 0x31
 2460 0d6b B6000000 		.4byte	.LVL31
 2461 0d6f 86100000 		.4byte	0x1086
 2462 0d73 810D0000 		.4byte	0xd81
 2463 0d77 2A       		.uleb128 0x2a
 2464 0d78 01       		.uleb128 0x1
 2465 0d79 50       		.byte	0x50
 2466 0d7a 05       		.uleb128 0x5
 2467 0d7b 0C       		.byte	0xc
 2468 0d7c 58600240 		.4byte	0x40026058
 2469 0d80 00       		.byte	0
 2470 0d81 31       		.uleb128 0x31
 2471 0d82 FC000000 		.4byte	.LVL33
 2472 0d86 92100000 		.4byte	0x1092
 2473 0d8a 9F0D0000 		.4byte	0xd9f
 2474 0d8e 2A       		.uleb128 0x2a
 2475 0d8f 01       		.uleb128 0x1
 2476 0d90 50       		.byte	0x50
 2477 0d91 05       		.uleb128 0x5
 2478 0d92 0C       		.byte	0xc
 2479 0d93 58600240 		.4byte	0x40026058
 2480 0d97 2A       		.uleb128 0x2a
 2481 0d98 01       		.uleb128 0x1
 2482 0d99 51       		.byte	0x51
 2483 0d9a 03       		.uleb128 0x3
 2484 0d9b 91       		.byte	0x91
 2485 0d9c A47F     		.sleb128 -92
 2486 0d9e 00       		.byte	0
 2487 0d9f 31       		.uleb128 0x31
 2488 0da0 04010000 		.4byte	.LVL34
 2489 0da4 9E100000 		.4byte	0x109e
 2490 0da8 B70D0000 		.4byte	0xdb7
 2491 0dac 2A       		.uleb128 0x2a
 2492 0dad 01       		.uleb128 0x1
 2493 0dae 50       		.byte	0x50
 2494 0daf 01       		.uleb128 0x1
 2495 0db0 34       		.byte	0x34
 2496 0db1 2A       		.uleb128 0x2a
ARM GAS  /var/folders/sv/kgmgr77579zbf78p2zlhkdfr0000gn/T//ccRS1V9P.s 			page 45


 2497 0db2 01       		.uleb128 0x1
 2498 0db3 51       		.byte	0x51
 2499 0db4 01       		.uleb128 0x1
 2500 0db5 31       		.byte	0x31
 2501 0db6 00       		.byte	0
 2502 0db7 31       		.uleb128 0x31
 2503 0db8 22010000 		.4byte	.LVL35
 2504 0dbc AA100000 		.4byte	0x10aa
 2505 0dc0 D50D0000 		.4byte	0xdd5
 2506 0dc4 2A       		.uleb128 0x2a
 2507 0dc5 01       		.uleb128 0x1
 2508 0dc6 50       		.byte	0x50
 2509 0dc7 05       		.uleb128 0x5
 2510 0dc8 0C       		.byte	0xc
 2511 0dc9 00080040 		.4byte	0x40000800
 2512 0dcd 2A       		.uleb128 0x2a
 2513 0dce 01       		.uleb128 0x1
 2514 0dcf 51       		.byte	0x51
 2515 0dd0 03       		.uleb128 0x3
 2516 0dd1 91       		.byte	0x91
 2517 0dd2 847F     		.sleb128 -124
 2518 0dd4 00       		.byte	0
 2519 0dd5 31       		.uleb128 0x31
 2520 0dd6 3C010000 		.4byte	.LVL36
 2521 0dda B6100000 		.4byte	0x10b6
 2522 0dde F30D0000 		.4byte	0xdf3
 2523 0de2 2A       		.uleb128 0x2a
 2524 0de3 01       		.uleb128 0x1
 2525 0de4 50       		.byte	0x50
 2526 0de5 05       		.uleb128 0x5
 2527 0de6 0C       		.byte	0xc
 2528 0de7 00080040 		.4byte	0x40000800
 2529 0deb 2A       		.uleb128 0x2a
 2530 0dec 01       		.uleb128 0x1
 2531 0ded 51       		.byte	0x51
 2532 0dee 03       		.uleb128 0x3
 2533 0def 91       		.byte	0x91
 2534 0df0 907F     		.sleb128 -112
 2535 0df2 00       		.byte	0
 2536 0df3 31       		.uleb128 0x31
 2537 0df4 44010000 		.4byte	.LVL37
 2538 0df8 C2100000 		.4byte	0x10c2
 2539 0dfc 0F0E0000 		.4byte	0xe0f
 2540 0e00 2A       		.uleb128 0x2a
 2541 0e01 01       		.uleb128 0x1
 2542 0e02 50       		.byte	0x50
 2543 0e03 05       		.uleb128 0x5
 2544 0e04 0C       		.byte	0xc
 2545 0e05 00080040 		.4byte	0x40000800
 2546 0e09 2A       		.uleb128 0x2a
 2547 0e0a 01       		.uleb128 0x1
 2548 0e0b 51       		.byte	0x51
 2549 0e0c 01       		.uleb128 0x1
 2550 0e0d 38       		.byte	0x38
 2551 0e0e 00       		.byte	0
 2552 0e0f 31       		.uleb128 0x31
 2553 0e10 4C010000 		.4byte	.LVL38
ARM GAS  /var/folders/sv/kgmgr77579zbf78p2zlhkdfr0000gn/T//ccRS1V9P.s 			page 46


 2554 0e14 CE100000 		.4byte	0x10ce
 2555 0e18 2C0E0000 		.4byte	0xe2c
 2556 0e1c 2A       		.uleb128 0x2a
 2557 0e1d 01       		.uleb128 0x1
 2558 0e1e 50       		.byte	0x50
 2559 0e1f 05       		.uleb128 0x5
 2560 0e20 0C       		.byte	0xc
 2561 0e21 00080040 		.4byte	0x40000800
 2562 0e25 2A       		.uleb128 0x2a
 2563 0e26 01       		.uleb128 0x1
 2564 0e27 51       		.byte	0x51
 2565 0e28 02       		.uleb128 0x2
 2566 0e29 74       		.byte	0x74
 2567 0e2a 00       		.sleb128 0
 2568 0e2b 00       		.byte	0
 2569 0e2c 31       		.uleb128 0x31
 2570 0e2d 54010000 		.4byte	.LVL39
 2571 0e31 DA100000 		.4byte	0x10da
 2572 0e35 490E0000 		.4byte	0xe49
 2573 0e39 2A       		.uleb128 0x2a
 2574 0e3a 01       		.uleb128 0x1
 2575 0e3b 50       		.byte	0x50
 2576 0e3c 05       		.uleb128 0x5
 2577 0e3d 0C       		.byte	0xc
 2578 0e3e 58600240 		.4byte	0x40026058
 2579 0e42 2A       		.uleb128 0x2a
 2580 0e43 01       		.uleb128 0x1
 2581 0e44 51       		.byte	0x51
 2582 0e45 02       		.uleb128 0x2
 2583 0e46 74       		.byte	0x74
 2584 0e47 00       		.sleb128 0
 2585 0e48 00       		.byte	0
 2586 0e49 31       		.uleb128 0x31
 2587 0e4a 5E010000 		.4byte	.LVL40
 2588 0e4e E6100000 		.4byte	0x10e6
 2589 0e52 6C0E0000 		.4byte	0xe6c
 2590 0e56 2A       		.uleb128 0x2a
 2591 0e57 01       		.uleb128 0x1
 2592 0e58 50       		.byte	0x50
 2593 0e59 05       		.uleb128 0x5
 2594 0e5a 0C       		.byte	0xc
 2595 0e5b 00080040 		.4byte	0x40000800
 2596 0e5f 2A       		.uleb128 0x2a
 2597 0e60 01       		.uleb128 0x1
 2598 0e61 51       		.byte	0x51
 2599 0e62 02       		.uleb128 0x2
 2600 0e63 76       		.byte	0x76
 2601 0e64 00       		.sleb128 0
 2602 0e65 2A       		.uleb128 0x2a
 2603 0e66 01       		.uleb128 0x1
 2604 0e67 52       		.byte	0x52
 2605 0e68 02       		.uleb128 0x2
 2606 0e69 74       		.byte	0x74
 2607 0e6a 00       		.sleb128 0
 2608 0e6b 00       		.byte	0
 2609 0e6c 29       		.uleb128 0x29
 2610 0e6d 66010000 		.4byte	.LVL41
ARM GAS  /var/folders/sv/kgmgr77579zbf78p2zlhkdfr0000gn/T//ccRS1V9P.s 			page 47


 2611 0e71 F2100000 		.4byte	0x10f2
 2612 0e75 2A       		.uleb128 0x2a
 2613 0e76 01       		.uleb128 0x1
 2614 0e77 50       		.byte	0x50
 2615 0e78 05       		.uleb128 0x5
 2616 0e79 0C       		.byte	0xc
 2617 0e7a 00080040 		.4byte	0x40000800
 2618 0e7e 2A       		.uleb128 0x2a
 2619 0e7f 01       		.uleb128 0x1
 2620 0e80 51       		.byte	0x51
 2621 0e81 02       		.uleb128 0x2
 2622 0e82 74       		.byte	0x74
 2623 0e83 00       		.sleb128 0
 2624 0e84 00       		.byte	0
 2625 0e85 00       		.byte	0
 2626 0e86 25       		.uleb128 0x25
 2627 0e87 7D0B0000 		.4byte	0xb7d
 2628 0e8b 00000000 		.4byte	.LFB257
 2629 0e8f 0A000000 		.4byte	.LFE257-.LFB257
 2630 0e93 01       		.uleb128 0x1
 2631 0e94 9C       		.byte	0x9c
 2632 0e95 C40E0000 		.4byte	0xec4
 2633 0e99 26       		.uleb128 0x26
 2634 0e9a 890B0000 		.4byte	0xb89
 2635 0e9e 87030000 		.4byte	.LLST11
 2636 0ea2 26       		.uleb128 0x26
 2637 0ea3 940B0000 		.4byte	0xb94
 2638 0ea7 B3030000 		.4byte	.LLST12
 2639 0eab 32       		.uleb128 0x32
 2640 0eac 08000000 		.4byte	.LVL43
 2641 0eb0 190C0000 		.4byte	0xc19
 2642 0eb4 2A       		.uleb128 0x2a
 2643 0eb5 01       		.uleb128 0x1
 2644 0eb6 50       		.byte	0x50
 2645 0eb7 03       		.uleb128 0x3
 2646 0eb8 F3       		.byte	0xf3
 2647 0eb9 01       		.uleb128 0x1
 2648 0eba 50       		.byte	0x50
 2649 0ebb 2A       		.uleb128 0x2a
 2650 0ebc 01       		.uleb128 0x1
 2651 0ebd 51       		.byte	0x51
 2652 0ebe 03       		.uleb128 0x3
 2653 0ebf F3       		.byte	0xf3
 2654 0ec0 01       		.uleb128 0x1
 2655 0ec1 51       		.byte	0x51
 2656 0ec2 00       		.byte	0
 2657 0ec3 00       		.byte	0
 2658 0ec4 25       		.uleb128 0x25
 2659 0ec5 AD0B0000 		.4byte	0xbad
 2660 0ec9 00000000 		.4byte	.LFB258
 2661 0ecd 14000000 		.4byte	.LFE258-.LFB258
 2662 0ed1 01       		.uleb128 0x1
 2663 0ed2 9C       		.byte	0x9c
 2664 0ed3 E10E0000 		.4byte	0xee1
 2665 0ed7 26       		.uleb128 0x26
 2666 0ed8 BD0B0000 		.4byte	0xbbd
 2667 0edc DF030000 		.4byte	.LLST13
ARM GAS  /var/folders/sv/kgmgr77579zbf78p2zlhkdfr0000gn/T//ccRS1V9P.s 			page 48


 2668 0ee0 00       		.byte	0
 2669 0ee1 2B       		.uleb128 0x2b
 2670 0ee2 03070000 		.4byte	.LASF177
 2671 0ee6 01       		.byte	0x1
 2672 0ee7 C4       		.byte	0xc4
 2673 0ee8 00000000 		.4byte	.LFB259
 2674 0eec 2C000000 		.4byte	.LFE259-.LFB259
 2675 0ef0 01       		.uleb128 0x1
 2676 0ef1 9C       		.byte	0x9c
 2677 0ef2 040F0000 		.4byte	0xf04
 2678 0ef6 24       		.uleb128 0x24
 2679 0ef7 6900     		.ascii	"i\000"
 2680 0ef9 01       		.byte	0x1
 2681 0efa C5       		.byte	0xc5
 2682 0efb 3A000000 		.4byte	0x3a
 2683 0eff 00040000 		.4byte	.LLST14
 2684 0f03 00       		.byte	0
 2685 0f04 2B       		.uleb128 0x2b
 2686 0f05 B1050000 		.4byte	.LASF178
 2687 0f09 01       		.byte	0x1
 2688 0f0a D0       		.byte	0xd0
 2689 0f0b 00000000 		.4byte	.LFB260
 2690 0f0f 48000000 		.4byte	.LFE260-.LFB260
 2691 0f13 01       		.uleb128 0x1
 2692 0f14 9C       		.byte	0x9c
 2693 0f15 6C0F0000 		.4byte	0xf6c
 2694 0f19 23       		.uleb128 0x23
 2695 0f1a 21030000 		.4byte	.LASF171
 2696 0f1e 01       		.byte	0x1
 2697 0f1f D0       		.byte	0xd0
 2698 0f20 FE000000 		.4byte	0xfe
 2699 0f24 14040000 		.4byte	.LLST15
 2700 0f28 24       		.uleb128 0x24
 2701 0f29 6900     		.ascii	"i\000"
 2702 0f2b 01       		.byte	0x1
 2703 0f2c D1       		.byte	0xd1
 2704 0f2d 3A000000 		.4byte	0x3a
 2705 0f31 40040000 		.4byte	.LLST16
 2706 0f35 24       		.uleb128 0x24
 2707 0f36 62697400 		.ascii	"bit\000"
 2708 0f3a 01       		.byte	0x1
 2709 0f3b D1       		.byte	0xd1
 2710 0f3c 3A000000 		.4byte	0x3a
 2711 0f40 54040000 		.4byte	.LLST17
 2712 0f44 33       		.uleb128 0x33
 2713 0f45 10000000 		.4byte	.LBB14
 2714 0f49 28000000 		.4byte	.LBE14-.LBB14
 2715 0f4d 2C       		.uleb128 0x2c
 2716 0f4e 66070000 		.4byte	.LASF175
 2717 0f52 01       		.byte	0x1
 2718 0f53 D6       		.byte	0xd6
 2719 0f54 FE000000 		.4byte	0xfe
 2720 0f58 01       		.uleb128 0x1
 2721 0f59 50       		.byte	0x50
 2722 0f5a 29       		.uleb128 0x29
 2723 0f5b 1E000000 		.4byte	.LVL50
 2724 0f5f C90B0000 		.4byte	0xbc9
ARM GAS  /var/folders/sv/kgmgr77579zbf78p2zlhkdfr0000gn/T//ccRS1V9P.s 			page 49


 2725 0f63 2A       		.uleb128 0x2a
 2726 0f64 01       		.uleb128 0x1
 2727 0f65 50       		.byte	0x50
 2728 0f66 02       		.uleb128 0x2
 2729 0f67 77       		.byte	0x77
 2730 0f68 00       		.sleb128 0
 2731 0f69 00       		.byte	0
 2732 0f6a 00       		.byte	0
 2733 0f6b 00       		.byte	0
 2734 0f6c 2B       		.uleb128 0x2b
 2735 0f6d 88000000 		.4byte	.LASF179
 2736 0f71 01       		.byte	0x1
 2737 0f72 E3       		.byte	0xe3
 2738 0f73 00000000 		.4byte	.LFB261
 2739 0f77 24000000 		.4byte	.LFE261-.LFB261
 2740 0f7b 01       		.uleb128 0x1
 2741 0f7c 9C       		.byte	0x9c
 2742 0f7d D50F0000 		.4byte	0xfd5
 2743 0f81 34       		.uleb128 0x34
 2744 0f82 627200   		.ascii	"br\000"
 2745 0f85 01       		.byte	0x1
 2746 0f86 E3       		.byte	0xe3
 2747 0f87 FE000000 		.4byte	0xfe
 2748 0f8b 68040000 		.4byte	.LLST18
 2749 0f8f 33       		.uleb128 0x33
 2750 0f90 08000000 		.4byte	.LBB15
 2751 0f94 12000000 		.4byte	.LBE15-.LBB15
 2752 0f98 24       		.uleb128 0x24
 2753 0f99 6900     		.ascii	"i\000"
 2754 0f9b 01       		.byte	0x1
 2755 0f9c E6       		.byte	0xe6
 2756 0f9d 3A000000 		.4byte	0x3a
 2757 0fa1 89040000 		.4byte	.LLST19
 2758 0fa5 35       		.uleb128 0x35
 2759 0fa6 7D0B0000 		.4byte	0xb7d
 2760 0faa 0A000000 		.4byte	.LBB16
 2761 0fae 30000000 		.4byte	.Ldebug_ranges0+0x30
 2762 0fb2 01       		.byte	0x1
 2763 0fb3 E7       		.byte	0xe7
 2764 0fb4 36       		.uleb128 0x36
 2765 0fb5 940B0000 		.4byte	0xb94
 2766 0fb9 26       		.uleb128 0x26
 2767 0fba 890B0000 		.4byte	0xb89
 2768 0fbe CB040000 		.4byte	.LLST20
 2769 0fc2 29       		.uleb128 0x29
 2770 0fc3 16000000 		.4byte	.LVL58
 2771 0fc7 190C0000 		.4byte	0xc19
 2772 0fcb 2A       		.uleb128 0x2a
 2773 0fcc 01       		.uleb128 0x1
 2774 0fcd 50       		.byte	0x50
 2775 0fce 02       		.uleb128 0x2
 2776 0fcf 74       		.byte	0x74
 2777 0fd0 7F       		.sleb128 -1
 2778 0fd1 00       		.byte	0
 2779 0fd2 00       		.byte	0
 2780 0fd3 00       		.byte	0
 2781 0fd4 00       		.byte	0
ARM GAS  /var/folders/sv/kgmgr77579zbf78p2zlhkdfr0000gn/T//ccRS1V9P.s 			page 50


 2782 0fd5 37       		.uleb128 0x37
 2783 0fd6 DD010000 		.4byte	.LASF205
 2784 0fda 01       		.byte	0x1
 2785 0fdb EB       		.byte	0xeb
 2786 0fdc FE000000 		.4byte	0xfe
 2787 0fe0 00000000 		.4byte	.LFB262
 2788 0fe4 0C000000 		.4byte	.LFE262-.LFB262
 2789 0fe8 01       		.uleb128 0x1
 2790 0fe9 9C       		.byte	0x9c
 2791 0fea 11       		.uleb128 0x11
 2792 0feb E8000000 		.4byte	0xe8
 2793 0fef FB0F0000 		.4byte	0xffb
 2794 0ff3 38       		.uleb128 0x38
 2795 0ff4 B4000000 		.4byte	0xb4
 2796 0ff8 E902     		.2byte	0x2e9
 2797 0ffa 00       		.byte	0
 2798 0ffb 2C       		.uleb128 0x2c
 2799 0ffc 62060000 		.4byte	.LASF180
 2800 1000 01       		.byte	0x1
 2801 1001 23       		.byte	0x23
 2802 1002 EA0F0000 		.4byte	0xfea
 2803 1006 05       		.uleb128 0x5
 2804 1007 03       		.byte	0x3
 2805 1008 00000000 		.4byte	bitbuffer
 2806 100c 2C       		.uleb128 0x2c
 2807 100d 1E010000 		.4byte	.LASF181
 2808 1011 01       		.byte	0x1
 2809 1012 24       		.byte	0x24
 2810 1013 B8040000 		.4byte	0x4b8
 2811 1017 05       		.uleb128 0x5
 2812 1018 03       		.byte	0x3
 2813 1019 00000000 		.4byte	RGBdata
 2814 101d 2C       		.uleb128 0x2c
 2815 101e 390A0000 		.4byte	.LASF182
 2816 1022 01       		.byte	0x1
 2817 1023 25       		.byte	0x25
 2818 1024 6D0B0000 		.4byte	0xb6d
 2819 1028 05       		.uleb128 0x5
 2820 1029 03       		.byte	0x3
 2821 102a 00000000 		.4byte	gamma_table
 2822 102e 2C       		.uleb128 0x2c
 2823 102f 01060000 		.4byte	.LASF183
 2824 1033 01       		.byte	0x1
 2825 1034 26       		.byte	0x26
 2826 1035 FE000000 		.4byte	0xfe
 2827 1039 05       		.uleb128 0x5
 2828 103a 03       		.byte	0x3
 2829 103b 00000000 		.4byte	brightness
 2830 103f 39       		.uleb128 0x39
 2831 1040 CE070000 		.4byte	.LASF184
 2832 1044 14       		.byte	0x14
 2833 1045 A706     		.2byte	0x6a7
 2834 1047 14010000 		.4byte	0x114
 2835 104b 3A       		.uleb128 0x3a
 2836 104c 636800   		.ascii	"ch\000"
 2837 104f 07       		.byte	0x7
 2838 1050 0902     		.2byte	0x209
ARM GAS  /var/folders/sv/kgmgr77579zbf78p2zlhkdfr0000gn/T//ccRS1V9P.s 			page 51


 2839 1052 51040000 		.4byte	0x451
 2840 1056 3B       		.uleb128 0x3b
 2841 1057 34010000 		.4byte	.LASF185
 2842 105b 34010000 		.4byte	.LASF185
 2843 105f 11       		.byte	0x11
 2844 1060 8401     		.2byte	0x184
 2845 1062 3B       		.uleb128 0x3b
 2846 1063 CD040000 		.4byte	.LASF186
 2847 1067 CD040000 		.4byte	.LASF186
 2848 106b 11       		.byte	0x11
 2849 106c 9101     		.2byte	0x191
 2850 106e 3B       		.uleb128 0x3b
 2851 106f 49090000 		.4byte	.LASF187
 2852 1073 49090000 		.4byte	.LASF187
 2853 1077 10       		.byte	0x10
 2854 1078 E001     		.2byte	0x1e0
 2855 107a 3B       		.uleb128 0x3b
 2856 107b FD000000 		.4byte	.LASF188
 2857 107f FD000000 		.4byte	.LASF188
 2858 1083 12       		.byte	0x12
 2859 1084 5803     		.2byte	0x358
 2860 1086 3B       		.uleb128 0x3b
 2861 1087 25090000 		.4byte	.LASF189
 2862 108b 25090000 		.4byte	.LASF189
 2863 108f 0E       		.byte	0xe
 2864 1090 3202     		.2byte	0x232
 2865 1092 3B       		.uleb128 0x3b
 2866 1093 DB000000 		.4byte	.LASF190
 2867 1097 DB000000 		.4byte	.LASF190
 2868 109b 0E       		.byte	0xe
 2869 109c 3502     		.2byte	0x235
 2870 109e 3B       		.uleb128 0x3b
 2871 109f 23050000 		.4byte	.LASF191
 2872 10a3 23050000 		.4byte	.LASF191
 2873 10a7 12       		.byte	0x12
 2874 10a8 5B03     		.2byte	0x35b
 2875 10aa 3B       		.uleb128 0x3b
 2876 10ab EB040000 		.4byte	.LASF192
 2877 10af EB040000 		.4byte	.LASF192
 2878 10b3 0F       		.byte	0xf
 2879 10b4 0304     		.2byte	0x403
 2880 10b6 3B       		.uleb128 0x3b
 2881 10b7 FF010000 		.4byte	.LASF193
 2882 10bb FF010000 		.4byte	.LASF193
 2883 10bf 0F       		.byte	0xf
 2884 10c0 1404     		.2byte	0x414
 2885 10c2 3B       		.uleb128 0x3b
 2886 10c3 A9010000 		.4byte	.LASF194
 2887 10c7 A9010000 		.4byte	.LASF194
 2888 10cb 0F       		.byte	0xf
 2889 10cc 2204     		.2byte	0x422
 2890 10ce 3B       		.uleb128 0x3b
 2891 10cf 45030000 		.4byte	.LASF195
 2892 10d3 45030000 		.4byte	.LASF195
 2893 10d7 0F       		.byte	0xf
 2894 10d8 1004     		.2byte	0x410
 2895 10da 3B       		.uleb128 0x3b
ARM GAS  /var/folders/sv/kgmgr77579zbf78p2zlhkdfr0000gn/T//ccRS1V9P.s 			page 52


 2896 10db 80000000 		.4byte	.LASF196
 2897 10df 80000000 		.4byte	.LASF196
 2898 10e3 0E       		.byte	0xe
 2899 10e4 3702     		.2byte	0x237
 2900 10e6 3B       		.uleb128 0x3b
 2901 10e7 54080000 		.4byte	.LASF197
 2902 10eb 54080000 		.4byte	.LASF197
 2903 10ef 0F       		.byte	0xf
 2904 10f0 5304     		.2byte	0x453
 2905 10f2 3B       		.uleb128 0x3b
 2906 10f3 12080000 		.4byte	.LASF198
 2907 10f7 12080000 		.4byte	.LASF198
 2908 10fb 0F       		.byte	0xf
 2909 10fc 4704     		.2byte	0x447
 2910 10fe 00       		.byte	0
 2911              		.section	.debug_abbrev,"",%progbits
 2912              	.Ldebug_abbrev0:
 2913 0000 01       		.uleb128 0x1
 2914 0001 11       		.uleb128 0x11
 2915 0002 01       		.byte	0x1
 2916 0003 25       		.uleb128 0x25
 2917 0004 0E       		.uleb128 0xe
 2918 0005 13       		.uleb128 0x13
 2919 0006 0B       		.uleb128 0xb
 2920 0007 03       		.uleb128 0x3
 2921 0008 0E       		.uleb128 0xe
 2922 0009 1B       		.uleb128 0x1b
 2923 000a 0E       		.uleb128 0xe
 2924 000b 55       		.uleb128 0x55
 2925 000c 17       		.uleb128 0x17
 2926 000d 11       		.uleb128 0x11
 2927 000e 01       		.uleb128 0x1
 2928 000f 10       		.uleb128 0x10
 2929 0010 17       		.uleb128 0x17
 2930 0011 00       		.byte	0
 2931 0012 00       		.byte	0
 2932 0013 02       		.uleb128 0x2
 2933 0014 24       		.uleb128 0x24
 2934 0015 00       		.byte	0
 2935 0016 0B       		.uleb128 0xb
 2936 0017 0B       		.uleb128 0xb
 2937 0018 3E       		.uleb128 0x3e
 2938 0019 0B       		.uleb128 0xb
 2939 001a 03       		.uleb128 0x3
 2940 001b 0E       		.uleb128 0xe
 2941 001c 00       		.byte	0
 2942 001d 00       		.byte	0
 2943 001e 03       		.uleb128 0x3
 2944 001f 24       		.uleb128 0x24
 2945 0020 00       		.byte	0
 2946 0021 0B       		.uleb128 0xb
 2947 0022 0B       		.uleb128 0xb
 2948 0023 3E       		.uleb128 0x3e
 2949 0024 0B       		.uleb128 0xb
 2950 0025 03       		.uleb128 0x3
 2951 0026 08       		.uleb128 0x8
 2952 0027 00       		.byte	0
ARM GAS  /var/folders/sv/kgmgr77579zbf78p2zlhkdfr0000gn/T//ccRS1V9P.s 			page 53


 2953 0028 00       		.byte	0
 2954 0029 04       		.uleb128 0x4
 2955 002a 16       		.uleb128 0x16
 2956 002b 00       		.byte	0
 2957 002c 03       		.uleb128 0x3
 2958 002d 0E       		.uleb128 0xe
 2959 002e 3A       		.uleb128 0x3a
 2960 002f 0B       		.uleb128 0xb
 2961 0030 3B       		.uleb128 0x3b
 2962 0031 0B       		.uleb128 0xb
 2963 0032 49       		.uleb128 0x49
 2964 0033 13       		.uleb128 0x13
 2965 0034 00       		.byte	0
 2966 0035 00       		.byte	0
 2967 0036 05       		.uleb128 0x5
 2968 0037 0F       		.uleb128 0xf
 2969 0038 00       		.byte	0
 2970 0039 0B       		.uleb128 0xb
 2971 003a 0B       		.uleb128 0xb
 2972 003b 00       		.byte	0
 2973 003c 00       		.byte	0
 2974 003d 06       		.uleb128 0x6
 2975 003e 0F       		.uleb128 0xf
 2976 003f 00       		.byte	0
 2977 0040 0B       		.uleb128 0xb
 2978 0041 0B       		.uleb128 0xb
 2979 0042 49       		.uleb128 0x49
 2980 0043 13       		.uleb128 0x13
 2981 0044 00       		.byte	0
 2982 0045 00       		.byte	0
 2983 0046 07       		.uleb128 0x7
 2984 0047 26       		.uleb128 0x26
 2985 0048 00       		.byte	0
 2986 0049 49       		.uleb128 0x49
 2987 004a 13       		.uleb128 0x13
 2988 004b 00       		.byte	0
 2989 004c 00       		.byte	0
 2990 004d 08       		.uleb128 0x8
 2991 004e 35       		.uleb128 0x35
 2992 004f 00       		.byte	0
 2993 0050 49       		.uleb128 0x49
 2994 0051 13       		.uleb128 0x13
 2995 0052 00       		.byte	0
 2996 0053 00       		.byte	0
 2997 0054 09       		.uleb128 0x9
 2998 0055 13       		.uleb128 0x13
 2999 0056 01       		.byte	0x1
 3000 0057 03       		.uleb128 0x3
 3001 0058 0E       		.uleb128 0xe
 3002 0059 0B       		.uleb128 0xb
 3003 005a 0B       		.uleb128 0xb
 3004 005b 3A       		.uleb128 0x3a
 3005 005c 0B       		.uleb128 0xb
 3006 005d 3B       		.uleb128 0x3b
 3007 005e 0B       		.uleb128 0xb
 3008 005f 01       		.uleb128 0x1
 3009 0060 13       		.uleb128 0x13
ARM GAS  /var/folders/sv/kgmgr77579zbf78p2zlhkdfr0000gn/T//ccRS1V9P.s 			page 54


 3010 0061 00       		.byte	0
 3011 0062 00       		.byte	0
 3012 0063 0A       		.uleb128 0xa
 3013 0064 0D       		.uleb128 0xd
 3014 0065 00       		.byte	0
 3015 0066 03       		.uleb128 0x3
 3016 0067 0E       		.uleb128 0xe
 3017 0068 3A       		.uleb128 0x3a
 3018 0069 0B       		.uleb128 0xb
 3019 006a 3B       		.uleb128 0x3b
 3020 006b 0B       		.uleb128 0xb
 3021 006c 49       		.uleb128 0x49
 3022 006d 13       		.uleb128 0x13
 3023 006e 38       		.uleb128 0x38
 3024 006f 0B       		.uleb128 0xb
 3025 0070 00       		.byte	0
 3026 0071 00       		.byte	0
 3027 0072 0B       		.uleb128 0xb
 3028 0073 0D       		.uleb128 0xd
 3029 0074 00       		.byte	0
 3030 0075 03       		.uleb128 0x3
 3031 0076 08       		.uleb128 0x8
 3032 0077 3A       		.uleb128 0x3a
 3033 0078 0B       		.uleb128 0xb
 3034 0079 3B       		.uleb128 0x3b
 3035 007a 05       		.uleb128 0x5
 3036 007b 49       		.uleb128 0x49
 3037 007c 13       		.uleb128 0x13
 3038 007d 38       		.uleb128 0x38
 3039 007e 0B       		.uleb128 0xb
 3040 007f 00       		.byte	0
 3041 0080 00       		.byte	0
 3042 0081 0C       		.uleb128 0xc
 3043 0082 0D       		.uleb128 0xd
 3044 0083 00       		.byte	0
 3045 0084 03       		.uleb128 0x3
 3046 0085 0E       		.uleb128 0xe
 3047 0086 3A       		.uleb128 0x3a
 3048 0087 0B       		.uleb128 0xb
 3049 0088 3B       		.uleb128 0x3b
 3050 0089 05       		.uleb128 0x5
 3051 008a 49       		.uleb128 0x49
 3052 008b 13       		.uleb128 0x13
 3053 008c 38       		.uleb128 0x38
 3054 008d 0B       		.uleb128 0xb
 3055 008e 00       		.byte	0
 3056 008f 00       		.byte	0
 3057 0090 0D       		.uleb128 0xd
 3058 0091 13       		.uleb128 0x13
 3059 0092 01       		.byte	0x1
 3060 0093 03       		.uleb128 0x3
 3061 0094 0E       		.uleb128 0xe
 3062 0095 0B       		.uleb128 0xb
 3063 0096 0B       		.uleb128 0xb
 3064 0097 3A       		.uleb128 0x3a
 3065 0098 0B       		.uleb128 0xb
 3066 0099 3B       		.uleb128 0x3b
ARM GAS  /var/folders/sv/kgmgr77579zbf78p2zlhkdfr0000gn/T//ccRS1V9P.s 			page 55


 3067 009a 05       		.uleb128 0x5
 3068 009b 01       		.uleb128 0x1
 3069 009c 13       		.uleb128 0x13
 3070 009d 00       		.byte	0
 3071 009e 00       		.byte	0
 3072 009f 0E       		.uleb128 0xe
 3073 00a0 15       		.uleb128 0x15
 3074 00a1 01       		.byte	0x1
 3075 00a2 27       		.uleb128 0x27
 3076 00a3 19       		.uleb128 0x19
 3077 00a4 01       		.uleb128 0x1
 3078 00a5 13       		.uleb128 0x13
 3079 00a6 00       		.byte	0
 3080 00a7 00       		.byte	0
 3081 00a8 0F       		.uleb128 0xf
 3082 00a9 05       		.uleb128 0x5
 3083 00aa 00       		.byte	0
 3084 00ab 49       		.uleb128 0x49
 3085 00ac 13       		.uleb128 0x13
 3086 00ad 00       		.byte	0
 3087 00ae 00       		.byte	0
 3088 00af 10       		.uleb128 0x10
 3089 00b0 13       		.uleb128 0x13
 3090 00b1 01       		.byte	0x1
 3091 00b2 03       		.uleb128 0x3
 3092 00b3 0E       		.uleb128 0xe
 3093 00b4 0B       		.uleb128 0xb
 3094 00b5 05       		.uleb128 0x5
 3095 00b6 3A       		.uleb128 0x3a
 3096 00b7 0B       		.uleb128 0xb
 3097 00b8 3B       		.uleb128 0x3b
 3098 00b9 05       		.uleb128 0x5
 3099 00ba 01       		.uleb128 0x1
 3100 00bb 13       		.uleb128 0x13
 3101 00bc 00       		.byte	0
 3102 00bd 00       		.byte	0
 3103 00be 11       		.uleb128 0x11
 3104 00bf 01       		.uleb128 0x1
 3105 00c0 01       		.byte	0x1
 3106 00c1 49       		.uleb128 0x49
 3107 00c2 13       		.uleb128 0x13
 3108 00c3 01       		.uleb128 0x1
 3109 00c4 13       		.uleb128 0x13
 3110 00c5 00       		.byte	0
 3111 00c6 00       		.byte	0
 3112 00c7 12       		.uleb128 0x12
 3113 00c8 21       		.uleb128 0x21
 3114 00c9 00       		.byte	0
 3115 00ca 49       		.uleb128 0x49
 3116 00cb 13       		.uleb128 0x13
 3117 00cc 2F       		.uleb128 0x2f
 3118 00cd 0B       		.uleb128 0xb
 3119 00ce 00       		.byte	0
 3120 00cf 00       		.byte	0
 3121 00d0 13       		.uleb128 0x13
 3122 00d1 13       		.uleb128 0x13
 3123 00d2 01       		.byte	0x1
ARM GAS  /var/folders/sv/kgmgr77579zbf78p2zlhkdfr0000gn/T//ccRS1V9P.s 			page 56


 3124 00d3 0B       		.uleb128 0xb
 3125 00d4 0B       		.uleb128 0xb
 3126 00d5 3A       		.uleb128 0x3a
 3127 00d6 0B       		.uleb128 0xb
 3128 00d7 3B       		.uleb128 0x3b
 3129 00d8 05       		.uleb128 0x5
 3130 00d9 01       		.uleb128 0x1
 3131 00da 13       		.uleb128 0x13
 3132 00db 00       		.byte	0
 3133 00dc 00       		.byte	0
 3134 00dd 14       		.uleb128 0x14
 3135 00de 16       		.uleb128 0x16
 3136 00df 00       		.byte	0
 3137 00e0 03       		.uleb128 0x3
 3138 00e1 0E       		.uleb128 0xe
 3139 00e2 3A       		.uleb128 0x3a
 3140 00e3 0B       		.uleb128 0xb
 3141 00e4 3B       		.uleb128 0x3b
 3142 00e5 05       		.uleb128 0x5
 3143 00e6 49       		.uleb128 0x49
 3144 00e7 13       		.uleb128 0x13
 3145 00e8 00       		.byte	0
 3146 00e9 00       		.byte	0
 3147 00ea 15       		.uleb128 0x15
 3148 00eb 04       		.uleb128 0x4
 3149 00ec 01       		.byte	0x1
 3150 00ed 0B       		.uleb128 0xb
 3151 00ee 0B       		.uleb128 0xb
 3152 00ef 49       		.uleb128 0x49
 3153 00f0 13       		.uleb128 0x13
 3154 00f1 3A       		.uleb128 0x3a
 3155 00f2 0B       		.uleb128 0xb
 3156 00f3 3B       		.uleb128 0x3b
 3157 00f4 0B       		.uleb128 0xb
 3158 00f5 01       		.uleb128 0x1
 3159 00f6 13       		.uleb128 0x13
 3160 00f7 00       		.byte	0
 3161 00f8 00       		.byte	0
 3162 00f9 16       		.uleb128 0x16
 3163 00fa 28       		.uleb128 0x28
 3164 00fb 00       		.byte	0
 3165 00fc 03       		.uleb128 0x3
 3166 00fd 0E       		.uleb128 0xe
 3167 00fe 1C       		.uleb128 0x1c
 3168 00ff 0B       		.uleb128 0xb
 3169 0100 00       		.byte	0
 3170 0101 00       		.byte	0
 3171 0102 17       		.uleb128 0x17
 3172 0103 0D       		.uleb128 0xd
 3173 0104 00       		.byte	0
 3174 0105 03       		.uleb128 0x3
 3175 0106 08       		.uleb128 0x8
 3176 0107 3A       		.uleb128 0x3a
 3177 0108 0B       		.uleb128 0xb
 3178 0109 3B       		.uleb128 0x3b
 3179 010a 0B       		.uleb128 0xb
 3180 010b 49       		.uleb128 0x49
ARM GAS  /var/folders/sv/kgmgr77579zbf78p2zlhkdfr0000gn/T//ccRS1V9P.s 			page 57


 3181 010c 13       		.uleb128 0x13
 3182 010d 38       		.uleb128 0x38
 3183 010e 0B       		.uleb128 0xb
 3184 010f 00       		.byte	0
 3185 0110 00       		.byte	0
 3186 0111 18       		.uleb128 0x18
 3187 0112 13       		.uleb128 0x13
 3188 0113 01       		.byte	0x1
 3189 0114 0B       		.uleb128 0xb
 3190 0115 0B       		.uleb128 0xb
 3191 0116 3A       		.uleb128 0x3a
 3192 0117 0B       		.uleb128 0xb
 3193 0118 3B       		.uleb128 0x3b
 3194 0119 0B       		.uleb128 0xb
 3195 011a 01       		.uleb128 0x1
 3196 011b 13       		.uleb128 0x13
 3197 011c 00       		.byte	0
 3198 011d 00       		.byte	0
 3199 011e 19       		.uleb128 0x19
 3200 011f 17       		.uleb128 0x17
 3201 0120 01       		.byte	0x1
 3202 0121 0B       		.uleb128 0xb
 3203 0122 0B       		.uleb128 0xb
 3204 0123 3A       		.uleb128 0x3a
 3205 0124 0B       		.uleb128 0xb
 3206 0125 3B       		.uleb128 0x3b
 3207 0126 0B       		.uleb128 0xb
 3208 0127 01       		.uleb128 0x1
 3209 0128 13       		.uleb128 0x13
 3210 0129 00       		.byte	0
 3211 012a 00       		.byte	0
 3212 012b 1A       		.uleb128 0x1a
 3213 012c 0D       		.uleb128 0xd
 3214 012d 00       		.byte	0
 3215 012e 03       		.uleb128 0x3
 3216 012f 0E       		.uleb128 0xe
 3217 0130 3A       		.uleb128 0x3a
 3218 0131 0B       		.uleb128 0xb
 3219 0132 3B       		.uleb128 0x3b
 3220 0133 05       		.uleb128 0x5
 3221 0134 49       		.uleb128 0x49
 3222 0135 13       		.uleb128 0x13
 3223 0136 00       		.byte	0
 3224 0137 00       		.byte	0
 3225 0138 1B       		.uleb128 0x1b
 3226 0139 0D       		.uleb128 0xd
 3227 013a 00       		.byte	0
 3228 013b 03       		.uleb128 0x3
 3229 013c 08       		.uleb128 0x8
 3230 013d 3A       		.uleb128 0x3a
 3231 013e 0B       		.uleb128 0xb
 3232 013f 3B       		.uleb128 0x3b
 3233 0140 0B       		.uleb128 0xb
 3234 0141 49       		.uleb128 0x49
 3235 0142 13       		.uleb128 0x13
 3236 0143 00       		.byte	0
 3237 0144 00       		.byte	0
ARM GAS  /var/folders/sv/kgmgr77579zbf78p2zlhkdfr0000gn/T//ccRS1V9P.s 			page 58


 3238 0145 1C       		.uleb128 0x1c
 3239 0146 2E       		.uleb128 0x2e
 3240 0147 01       		.byte	0x1
 3241 0148 3F       		.uleb128 0x3f
 3242 0149 19       		.uleb128 0x19
 3243 014a 03       		.uleb128 0x3
 3244 014b 0E       		.uleb128 0xe
 3245 014c 3A       		.uleb128 0x3a
 3246 014d 0B       		.uleb128 0xb
 3247 014e 3B       		.uleb128 0x3b
 3248 014f 0B       		.uleb128 0xb
 3249 0150 27       		.uleb128 0x27
 3250 0151 19       		.uleb128 0x19
 3251 0152 20       		.uleb128 0x20
 3252 0153 0B       		.uleb128 0xb
 3253 0154 01       		.uleb128 0x1
 3254 0155 13       		.uleb128 0x13
 3255 0156 00       		.byte	0
 3256 0157 00       		.byte	0
 3257 0158 1D       		.uleb128 0x1d
 3258 0159 05       		.uleb128 0x5
 3259 015a 00       		.byte	0
 3260 015b 03       		.uleb128 0x3
 3261 015c 08       		.uleb128 0x8
 3262 015d 3A       		.uleb128 0x3a
 3263 015e 0B       		.uleb128 0xb
 3264 015f 3B       		.uleb128 0x3b
 3265 0160 0B       		.uleb128 0xb
 3266 0161 49       		.uleb128 0x49
 3267 0162 13       		.uleb128 0x13
 3268 0163 00       		.byte	0
 3269 0164 00       		.byte	0
 3270 0165 1E       		.uleb128 0x1e
 3271 0166 05       		.uleb128 0x5
 3272 0167 00       		.byte	0
 3273 0168 03       		.uleb128 0x3
 3274 0169 0E       		.uleb128 0xe
 3275 016a 3A       		.uleb128 0x3a
 3276 016b 0B       		.uleb128 0xb
 3277 016c 3B       		.uleb128 0x3b
 3278 016d 0B       		.uleb128 0xb
 3279 016e 49       		.uleb128 0x49
 3280 016f 13       		.uleb128 0x13
 3281 0170 00       		.byte	0
 3282 0171 00       		.byte	0
 3283 0172 1F       		.uleb128 0x1f
 3284 0173 0B       		.uleb128 0xb
 3285 0174 01       		.byte	0x1
 3286 0175 00       		.byte	0
 3287 0176 00       		.byte	0
 3288 0177 20       		.uleb128 0x20
 3289 0178 34       		.uleb128 0x34
 3290 0179 00       		.byte	0
 3291 017a 03       		.uleb128 0x3
 3292 017b 08       		.uleb128 0x8
 3293 017c 3A       		.uleb128 0x3a
 3294 017d 0B       		.uleb128 0xb
ARM GAS  /var/folders/sv/kgmgr77579zbf78p2zlhkdfr0000gn/T//ccRS1V9P.s 			page 59


 3295 017e 3B       		.uleb128 0x3b
 3296 017f 0B       		.uleb128 0xb
 3297 0180 49       		.uleb128 0x49
 3298 0181 13       		.uleb128 0x13
 3299 0182 00       		.byte	0
 3300 0183 00       		.byte	0
 3301 0184 21       		.uleb128 0x21
 3302 0185 2E       		.uleb128 0x2e
 3303 0186 01       		.byte	0x1
 3304 0187 3F       		.uleb128 0x3f
 3305 0188 19       		.uleb128 0x19
 3306 0189 03       		.uleb128 0x3
 3307 018a 0E       		.uleb128 0xe
 3308 018b 3A       		.uleb128 0x3a
 3309 018c 0B       		.uleb128 0xb
 3310 018d 3B       		.uleb128 0x3b
 3311 018e 0B       		.uleb128 0xb
 3312 018f 27       		.uleb128 0x27
 3313 0190 19       		.uleb128 0x19
 3314 0191 49       		.uleb128 0x49
 3315 0192 13       		.uleb128 0x13
 3316 0193 20       		.uleb128 0x20
 3317 0194 0B       		.uleb128 0xb
 3318 0195 01       		.uleb128 0x1
 3319 0196 13       		.uleb128 0x13
 3320 0197 00       		.byte	0
 3321 0198 00       		.byte	0
 3322 0199 22       		.uleb128 0x22
 3323 019a 2E       		.uleb128 0x2e
 3324 019b 01       		.byte	0x1
 3325 019c 03       		.uleb128 0x3
 3326 019d 0E       		.uleb128 0xe
 3327 019e 3A       		.uleb128 0x3a
 3328 019f 0B       		.uleb128 0xb
 3329 01a0 3B       		.uleb128 0x3b
 3330 01a1 0B       		.uleb128 0xb
 3331 01a2 27       		.uleb128 0x27
 3332 01a3 19       		.uleb128 0x19
 3333 01a4 49       		.uleb128 0x49
 3334 01a5 13       		.uleb128 0x13
 3335 01a6 11       		.uleb128 0x11
 3336 01a7 01       		.uleb128 0x1
 3337 01a8 12       		.uleb128 0x12
 3338 01a9 06       		.uleb128 0x6
 3339 01aa 40       		.uleb128 0x40
 3340 01ab 18       		.uleb128 0x18
 3341 01ac 9742     		.uleb128 0x2117
 3342 01ae 19       		.uleb128 0x19
 3343 01af 01       		.uleb128 0x1
 3344 01b0 13       		.uleb128 0x13
 3345 01b1 00       		.byte	0
 3346 01b2 00       		.byte	0
 3347 01b3 23       		.uleb128 0x23
 3348 01b4 05       		.uleb128 0x5
 3349 01b5 00       		.byte	0
 3350 01b6 03       		.uleb128 0x3
 3351 01b7 0E       		.uleb128 0xe
ARM GAS  /var/folders/sv/kgmgr77579zbf78p2zlhkdfr0000gn/T//ccRS1V9P.s 			page 60


 3352 01b8 3A       		.uleb128 0x3a
 3353 01b9 0B       		.uleb128 0xb
 3354 01ba 3B       		.uleb128 0x3b
 3355 01bb 0B       		.uleb128 0xb
 3356 01bc 49       		.uleb128 0x49
 3357 01bd 13       		.uleb128 0x13
 3358 01be 02       		.uleb128 0x2
 3359 01bf 17       		.uleb128 0x17
 3360 01c0 00       		.byte	0
 3361 01c1 00       		.byte	0
 3362 01c2 24       		.uleb128 0x24
 3363 01c3 34       		.uleb128 0x34
 3364 01c4 00       		.byte	0
 3365 01c5 03       		.uleb128 0x3
 3366 01c6 08       		.uleb128 0x8
 3367 01c7 3A       		.uleb128 0x3a
 3368 01c8 0B       		.uleb128 0xb
 3369 01c9 3B       		.uleb128 0x3b
 3370 01ca 0B       		.uleb128 0xb
 3371 01cb 49       		.uleb128 0x49
 3372 01cc 13       		.uleb128 0x13
 3373 01cd 02       		.uleb128 0x2
 3374 01ce 17       		.uleb128 0x17
 3375 01cf 00       		.byte	0
 3376 01d0 00       		.byte	0
 3377 01d1 25       		.uleb128 0x25
 3378 01d2 2E       		.uleb128 0x2e
 3379 01d3 01       		.byte	0x1
 3380 01d4 31       		.uleb128 0x31
 3381 01d5 13       		.uleb128 0x13
 3382 01d6 11       		.uleb128 0x11
 3383 01d7 01       		.uleb128 0x1
 3384 01d8 12       		.uleb128 0x12
 3385 01d9 06       		.uleb128 0x6
 3386 01da 40       		.uleb128 0x40
 3387 01db 18       		.uleb128 0x18
 3388 01dc 9742     		.uleb128 0x2117
 3389 01de 19       		.uleb128 0x19
 3390 01df 01       		.uleb128 0x1
 3391 01e0 13       		.uleb128 0x13
 3392 01e1 00       		.byte	0
 3393 01e2 00       		.byte	0
 3394 01e3 26       		.uleb128 0x26
 3395 01e4 05       		.uleb128 0x5
 3396 01e5 00       		.byte	0
 3397 01e6 31       		.uleb128 0x31
 3398 01e7 13       		.uleb128 0x13
 3399 01e8 02       		.uleb128 0x2
 3400 01e9 17       		.uleb128 0x17
 3401 01ea 00       		.byte	0
 3402 01eb 00       		.byte	0
 3403 01ec 27       		.uleb128 0x27
 3404 01ed 0B       		.uleb128 0xb
 3405 01ee 01       		.byte	0x1
 3406 01ef 55       		.uleb128 0x55
 3407 01f0 17       		.uleb128 0x17
 3408 01f1 00       		.byte	0
ARM GAS  /var/folders/sv/kgmgr77579zbf78p2zlhkdfr0000gn/T//ccRS1V9P.s 			page 61


 3409 01f2 00       		.byte	0
 3410 01f3 28       		.uleb128 0x28
 3411 01f4 34       		.uleb128 0x34
 3412 01f5 00       		.byte	0
 3413 01f6 31       		.uleb128 0x31
 3414 01f7 13       		.uleb128 0x13
 3415 01f8 02       		.uleb128 0x2
 3416 01f9 17       		.uleb128 0x17
 3417 01fa 00       		.byte	0
 3418 01fb 00       		.byte	0
 3419 01fc 29       		.uleb128 0x29
 3420 01fd 898201   		.uleb128 0x4109
 3421 0200 01       		.byte	0x1
 3422 0201 11       		.uleb128 0x11
 3423 0202 01       		.uleb128 0x1
 3424 0203 31       		.uleb128 0x31
 3425 0204 13       		.uleb128 0x13
 3426 0205 00       		.byte	0
 3427 0206 00       		.byte	0
 3428 0207 2A       		.uleb128 0x2a
 3429 0208 8A8201   		.uleb128 0x410a
 3430 020b 00       		.byte	0
 3431 020c 02       		.uleb128 0x2
 3432 020d 18       		.uleb128 0x18
 3433 020e 9142     		.uleb128 0x2111
 3434 0210 18       		.uleb128 0x18
 3435 0211 00       		.byte	0
 3436 0212 00       		.byte	0
 3437 0213 2B       		.uleb128 0x2b
 3438 0214 2E       		.uleb128 0x2e
 3439 0215 01       		.byte	0x1
 3440 0216 3F       		.uleb128 0x3f
 3441 0217 19       		.uleb128 0x19
 3442 0218 03       		.uleb128 0x3
 3443 0219 0E       		.uleb128 0xe
 3444 021a 3A       		.uleb128 0x3a
 3445 021b 0B       		.uleb128 0xb
 3446 021c 3B       		.uleb128 0x3b
 3447 021d 0B       		.uleb128 0xb
 3448 021e 27       		.uleb128 0x27
 3449 021f 19       		.uleb128 0x19
 3450 0220 11       		.uleb128 0x11
 3451 0221 01       		.uleb128 0x1
 3452 0222 12       		.uleb128 0x12
 3453 0223 06       		.uleb128 0x6
 3454 0224 40       		.uleb128 0x40
 3455 0225 18       		.uleb128 0x18
 3456 0226 9742     		.uleb128 0x2117
 3457 0228 19       		.uleb128 0x19
 3458 0229 01       		.uleb128 0x1
 3459 022a 13       		.uleb128 0x13
 3460 022b 00       		.byte	0
 3461 022c 00       		.byte	0
 3462 022d 2C       		.uleb128 0x2c
 3463 022e 34       		.uleb128 0x34
 3464 022f 00       		.byte	0
 3465 0230 03       		.uleb128 0x3
ARM GAS  /var/folders/sv/kgmgr77579zbf78p2zlhkdfr0000gn/T//ccRS1V9P.s 			page 62


 3466 0231 0E       		.uleb128 0xe
 3467 0232 3A       		.uleb128 0x3a
 3468 0233 0B       		.uleb128 0xb
 3469 0234 3B       		.uleb128 0x3b
 3470 0235 0B       		.uleb128 0xb
 3471 0236 49       		.uleb128 0x49
 3472 0237 13       		.uleb128 0x13
 3473 0238 02       		.uleb128 0x2
 3474 0239 18       		.uleb128 0x18
 3475 023a 00       		.byte	0
 3476 023b 00       		.byte	0
 3477 023c 2D       		.uleb128 0x2d
 3478 023d 0B       		.uleb128 0xb
 3479 023e 01       		.byte	0x1
 3480 023f 11       		.uleb128 0x11
 3481 0240 01       		.uleb128 0x1
 3482 0241 12       		.uleb128 0x12
 3483 0242 06       		.uleb128 0x6
 3484 0243 01       		.uleb128 0x1
 3485 0244 13       		.uleb128 0x13
 3486 0245 00       		.byte	0
 3487 0246 00       		.byte	0
 3488 0247 2E       		.uleb128 0x2e
 3489 0248 34       		.uleb128 0x34
 3490 0249 00       		.byte	0
 3491 024a 03       		.uleb128 0x3
 3492 024b 0E       		.uleb128 0xe
 3493 024c 3A       		.uleb128 0x3a
 3494 024d 0B       		.uleb128 0xb
 3495 024e 3B       		.uleb128 0x3b
 3496 024f 0B       		.uleb128 0xb
 3497 0250 49       		.uleb128 0x49
 3498 0251 13       		.uleb128 0x13
 3499 0252 02       		.uleb128 0x2
 3500 0253 17       		.uleb128 0x17
 3501 0254 00       		.byte	0
 3502 0255 00       		.byte	0
 3503 0256 2F       		.uleb128 0x2f
 3504 0257 898201   		.uleb128 0x4109
 3505 025a 00       		.byte	0
 3506 025b 11       		.uleb128 0x11
 3507 025c 01       		.uleb128 0x1
 3508 025d 31       		.uleb128 0x31
 3509 025e 13       		.uleb128 0x13
 3510 025f 00       		.byte	0
 3511 0260 00       		.byte	0
 3512 0261 30       		.uleb128 0x30
 3513 0262 0B       		.uleb128 0xb
 3514 0263 01       		.byte	0x1
 3515 0264 55       		.uleb128 0x55
 3516 0265 17       		.uleb128 0x17
 3517 0266 01       		.uleb128 0x1
 3518 0267 13       		.uleb128 0x13
 3519 0268 00       		.byte	0
 3520 0269 00       		.byte	0
 3521 026a 31       		.uleb128 0x31
 3522 026b 898201   		.uleb128 0x4109
ARM GAS  /var/folders/sv/kgmgr77579zbf78p2zlhkdfr0000gn/T//ccRS1V9P.s 			page 63


 3523 026e 01       		.byte	0x1
 3524 026f 11       		.uleb128 0x11
 3525 0270 01       		.uleb128 0x1
 3526 0271 31       		.uleb128 0x31
 3527 0272 13       		.uleb128 0x13
 3528 0273 01       		.uleb128 0x1
 3529 0274 13       		.uleb128 0x13
 3530 0275 00       		.byte	0
 3531 0276 00       		.byte	0
 3532 0277 32       		.uleb128 0x32
 3533 0278 898201   		.uleb128 0x4109
 3534 027b 01       		.byte	0x1
 3535 027c 11       		.uleb128 0x11
 3536 027d 01       		.uleb128 0x1
 3537 027e 9542     		.uleb128 0x2115
 3538 0280 19       		.uleb128 0x19
 3539 0281 31       		.uleb128 0x31
 3540 0282 13       		.uleb128 0x13
 3541 0283 00       		.byte	0
 3542 0284 00       		.byte	0
 3543 0285 33       		.uleb128 0x33
 3544 0286 0B       		.uleb128 0xb
 3545 0287 01       		.byte	0x1
 3546 0288 11       		.uleb128 0x11
 3547 0289 01       		.uleb128 0x1
 3548 028a 12       		.uleb128 0x12
 3549 028b 06       		.uleb128 0x6
 3550 028c 00       		.byte	0
 3551 028d 00       		.byte	0
 3552 028e 34       		.uleb128 0x34
 3553 028f 05       		.uleb128 0x5
 3554 0290 00       		.byte	0
 3555 0291 03       		.uleb128 0x3
 3556 0292 08       		.uleb128 0x8
 3557 0293 3A       		.uleb128 0x3a
 3558 0294 0B       		.uleb128 0xb
 3559 0295 3B       		.uleb128 0x3b
 3560 0296 0B       		.uleb128 0xb
 3561 0297 49       		.uleb128 0x49
 3562 0298 13       		.uleb128 0x13
 3563 0299 02       		.uleb128 0x2
 3564 029a 17       		.uleb128 0x17
 3565 029b 00       		.byte	0
 3566 029c 00       		.byte	0
 3567 029d 35       		.uleb128 0x35
 3568 029e 1D       		.uleb128 0x1d
 3569 029f 01       		.byte	0x1
 3570 02a0 31       		.uleb128 0x31
 3571 02a1 13       		.uleb128 0x13
 3572 02a2 52       		.uleb128 0x52
 3573 02a3 01       		.uleb128 0x1
 3574 02a4 55       		.uleb128 0x55
 3575 02a5 17       		.uleb128 0x17
 3576 02a6 58       		.uleb128 0x58
 3577 02a7 0B       		.uleb128 0xb
 3578 02a8 59       		.uleb128 0x59
 3579 02a9 0B       		.uleb128 0xb
ARM GAS  /var/folders/sv/kgmgr77579zbf78p2zlhkdfr0000gn/T//ccRS1V9P.s 			page 64


 3580 02aa 00       		.byte	0
 3581 02ab 00       		.byte	0
 3582 02ac 36       		.uleb128 0x36
 3583 02ad 05       		.uleb128 0x5
 3584 02ae 00       		.byte	0
 3585 02af 31       		.uleb128 0x31
 3586 02b0 13       		.uleb128 0x13
 3587 02b1 00       		.byte	0
 3588 02b2 00       		.byte	0
 3589 02b3 37       		.uleb128 0x37
 3590 02b4 2E       		.uleb128 0x2e
 3591 02b5 00       		.byte	0
 3592 02b6 3F       		.uleb128 0x3f
 3593 02b7 19       		.uleb128 0x19
 3594 02b8 03       		.uleb128 0x3
 3595 02b9 0E       		.uleb128 0xe
 3596 02ba 3A       		.uleb128 0x3a
 3597 02bb 0B       		.uleb128 0xb
 3598 02bc 3B       		.uleb128 0x3b
 3599 02bd 0B       		.uleb128 0xb
 3600 02be 27       		.uleb128 0x27
 3601 02bf 19       		.uleb128 0x19
 3602 02c0 49       		.uleb128 0x49
 3603 02c1 13       		.uleb128 0x13
 3604 02c2 11       		.uleb128 0x11
 3605 02c3 01       		.uleb128 0x1
 3606 02c4 12       		.uleb128 0x12
 3607 02c5 06       		.uleb128 0x6
 3608 02c6 40       		.uleb128 0x40
 3609 02c7 18       		.uleb128 0x18
 3610 02c8 9742     		.uleb128 0x2117
 3611 02ca 19       		.uleb128 0x19
 3612 02cb 00       		.byte	0
 3613 02cc 00       		.byte	0
 3614 02cd 38       		.uleb128 0x38
 3615 02ce 21       		.uleb128 0x21
 3616 02cf 00       		.byte	0
 3617 02d0 49       		.uleb128 0x49
 3618 02d1 13       		.uleb128 0x13
 3619 02d2 2F       		.uleb128 0x2f
 3620 02d3 05       		.uleb128 0x5
 3621 02d4 00       		.byte	0
 3622 02d5 00       		.byte	0
 3623 02d6 39       		.uleb128 0x39
 3624 02d7 34       		.uleb128 0x34
 3625 02d8 00       		.byte	0
 3626 02d9 03       		.uleb128 0x3
 3627 02da 0E       		.uleb128 0xe
 3628 02db 3A       		.uleb128 0x3a
 3629 02dc 0B       		.uleb128 0xb
 3630 02dd 3B       		.uleb128 0x3b
 3631 02de 05       		.uleb128 0x5
 3632 02df 49       		.uleb128 0x49
 3633 02e0 13       		.uleb128 0x13
 3634 02e1 3F       		.uleb128 0x3f
 3635 02e2 19       		.uleb128 0x19
 3636 02e3 3C       		.uleb128 0x3c
ARM GAS  /var/folders/sv/kgmgr77579zbf78p2zlhkdfr0000gn/T//ccRS1V9P.s 			page 65


 3637 02e4 19       		.uleb128 0x19
 3638 02e5 00       		.byte	0
 3639 02e6 00       		.byte	0
 3640 02e7 3A       		.uleb128 0x3a
 3641 02e8 34       		.uleb128 0x34
 3642 02e9 00       		.byte	0
 3643 02ea 03       		.uleb128 0x3
 3644 02eb 08       		.uleb128 0x8
 3645 02ec 3A       		.uleb128 0x3a
 3646 02ed 0B       		.uleb128 0xb
 3647 02ee 3B       		.uleb128 0x3b
 3648 02ef 05       		.uleb128 0x5
 3649 02f0 49       		.uleb128 0x49
 3650 02f1 13       		.uleb128 0x13
 3651 02f2 3F       		.uleb128 0x3f
 3652 02f3 19       		.uleb128 0x19
 3653 02f4 3C       		.uleb128 0x3c
 3654 02f5 19       		.uleb128 0x19
 3655 02f6 00       		.byte	0
 3656 02f7 00       		.byte	0
 3657 02f8 3B       		.uleb128 0x3b
 3658 02f9 2E       		.uleb128 0x2e
 3659 02fa 00       		.byte	0
 3660 02fb 3F       		.uleb128 0x3f
 3661 02fc 19       		.uleb128 0x19
 3662 02fd 3C       		.uleb128 0x3c
 3663 02fe 19       		.uleb128 0x19
 3664 02ff 6E       		.uleb128 0x6e
 3665 0300 0E       		.uleb128 0xe
 3666 0301 03       		.uleb128 0x3
 3667 0302 0E       		.uleb128 0xe
 3668 0303 3A       		.uleb128 0x3a
 3669 0304 0B       		.uleb128 0xb
 3670 0305 3B       		.uleb128 0x3b
 3671 0306 05       		.uleb128 0x5
 3672 0307 00       		.byte	0
 3673 0308 00       		.byte	0
 3674 0309 00       		.byte	0
 3675              		.section	.debug_loc,"",%progbits
 3676              	.Ldebug_loc0:
 3677              	.LLST0:
 3678 0000 00000000 		.4byte	.LVL0
 3679 0004 1C000000 		.4byte	.LVL4
 3680 0008 0100     		.2byte	0x1
 3681 000a 50       		.byte	0x50
 3682 000b 1C000000 		.4byte	.LVL4
 3683 000f 50000000 		.4byte	.LFE263
 3684 0013 0400     		.2byte	0x4
 3685 0015 F3       		.byte	0xf3
 3686 0016 01       		.uleb128 0x1
 3687 0017 50       		.byte	0x50
 3688 0018 9F       		.byte	0x9f
 3689 0019 00000000 		.4byte	0
 3690 001d 00000000 		.4byte	0
 3691              	.LLST1:
 3692 0021 0E000000 		.4byte	.LVL1
 3693 0025 12000000 		.4byte	.LVL2
ARM GAS  /var/folders/sv/kgmgr77579zbf78p2zlhkdfr0000gn/T//ccRS1V9P.s 			page 66


 3694 0029 0800     		.2byte	0x8
 3695 002b 70       		.byte	0x70
 3696 002c 00       		.sleb128 0
 3697 002d 40       		.byte	0x40
 3698 002e 25       		.byte	0x25
 3699 002f 08       		.byte	0x8
 3700 0030 FF       		.byte	0xff
 3701 0031 1A       		.byte	0x1a
 3702 0032 9F       		.byte	0x9f
 3703 0033 12000000 		.4byte	.LVL2
 3704 0037 1A000000 		.4byte	.LVL3
 3705 003b 0C00     		.2byte	0xc
 3706 003d 71       		.byte	0x71
 3707 003e 00       		.sleb128 0
 3708 003f F7       		.byte	0xf7
 3709 0040 25       		.uleb128 0x25
 3710 0041 08       		.byte	0x8
 3711 0042 64       		.byte	0x64
 3712 0043 F7       		.byte	0xf7
 3713 0044 25       		.uleb128 0x25
 3714 0045 1B       		.byte	0x1b
 3715 0046 F7       		.byte	0xf7
 3716 0047 00       		.uleb128 0
 3717 0048 9F       		.byte	0x9f
 3718 0049 1A000000 		.4byte	.LVL3
 3719 004d 1C000000 		.4byte	.LVL4
 3720 0051 1500     		.2byte	0x15
 3721 0053 70       		.byte	0x70
 3722 0054 00       		.sleb128 0
 3723 0055 09       		.byte	0x9
 3724 0056 EC       		.byte	0xec
 3725 0057 24       		.byte	0x24
 3726 0058 09       		.byte	0x9
 3727 0059 FC       		.byte	0xfc
 3728 005a 25       		.byte	0x25
 3729 005b 73       		.byte	0x73
 3730 005c 00       		.sleb128 0
 3731 005d 1E       		.byte	0x1e
 3732 005e F7       		.byte	0xf7
 3733 005f 25       		.uleb128 0x25
 3734 0060 08       		.byte	0x8
 3735 0061 64       		.byte	0x64
 3736 0062 F7       		.byte	0xf7
 3737 0063 25       		.uleb128 0x25
 3738 0064 1B       		.byte	0x1b
 3739 0065 F7       		.byte	0xf7
 3740 0066 00       		.uleb128 0
 3741 0067 9F       		.byte	0x9f
 3742 0068 1C000000 		.4byte	.LVL4
 3743 006c 2A000000 		.4byte	.LVL7
 3744 0070 1600     		.2byte	0x16
 3745 0072 F3       		.byte	0xf3
 3746 0073 01       		.uleb128 0x1
 3747 0074 50       		.byte	0x50
 3748 0075 09       		.byte	0x9
 3749 0076 EC       		.byte	0xec
 3750 0077 24       		.byte	0x24
ARM GAS  /var/folders/sv/kgmgr77579zbf78p2zlhkdfr0000gn/T//ccRS1V9P.s 			page 67


 3751 0078 09       		.byte	0x9
 3752 0079 FC       		.byte	0xfc
 3753 007a 25       		.byte	0x25
 3754 007b 73       		.byte	0x73
 3755 007c 00       		.sleb128 0
 3756 007d 1E       		.byte	0x1e
 3757 007e F7       		.byte	0xf7
 3758 007f 25       		.uleb128 0x25
 3759 0080 08       		.byte	0x8
 3760 0081 64       		.byte	0x64
 3761 0082 F7       		.byte	0xf7
 3762 0083 25       		.uleb128 0x25
 3763 0084 1B       		.byte	0x1b
 3764 0085 F7       		.byte	0xf7
 3765 0086 00       		.uleb128 0
 3766 0087 9F       		.byte	0x9f
 3767 0088 2A000000 		.4byte	.LVL7
 3768 008c 32000000 		.4byte	.LVL9
 3769 0090 1A00     		.2byte	0x1a
 3770 0092 F3       		.byte	0xf3
 3771 0093 01       		.uleb128 0x1
 3772 0094 50       		.byte	0x50
 3773 0095 09       		.byte	0x9
 3774 0096 EC       		.byte	0xec
 3775 0097 24       		.byte	0x24
 3776 0098 09       		.byte	0x9
 3777 0099 FC       		.byte	0xfc
 3778 009a 25       		.byte	0x25
 3779 009b 03       		.byte	0x3
 3780 009c 00000000 		.4byte	brightness
 3781 00a0 06       		.byte	0x6
 3782 00a1 1E       		.byte	0x1e
 3783 00a2 F7       		.byte	0xf7
 3784 00a3 25       		.uleb128 0x25
 3785 00a4 08       		.byte	0x8
 3786 00a5 64       		.byte	0x64
 3787 00a6 F7       		.byte	0xf7
 3788 00a7 25       		.uleb128 0x25
 3789 00a8 1B       		.byte	0x1b
 3790 00a9 F7       		.byte	0xf7
 3791 00aa 00       		.uleb128 0
 3792 00ab 9F       		.byte	0x9f
 3793 00ac 32000000 		.4byte	.LVL9
 3794 00b0 3A000000 		.4byte	.LVL11
 3795 00b4 0600     		.2byte	0x6
 3796 00b6 70       		.byte	0x70
 3797 00b7 00       		.sleb128 0
 3798 00b8 08       		.byte	0x8
 3799 00b9 FF       		.byte	0xff
 3800 00ba 1A       		.byte	0x1a
 3801 00bb 9F       		.byte	0x9f
 3802 00bc 3A000000 		.4byte	.LVL11
 3803 00c0 42000000 		.4byte	.LVL13
 3804 00c4 2D00     		.2byte	0x2d
 3805 00c6 F3       		.byte	0xf3
 3806 00c7 01       		.uleb128 0x1
 3807 00c8 50       		.byte	0x50
ARM GAS  /var/folders/sv/kgmgr77579zbf78p2zlhkdfr0000gn/T//ccRS1V9P.s 			page 68


 3808 00c9 09       		.byte	0x9
 3809 00ca EC       		.byte	0xec
 3810 00cb 24       		.byte	0x24
 3811 00cc 09       		.byte	0x9
 3812 00cd FC       		.byte	0xfc
 3813 00ce 25       		.byte	0x25
 3814 00cf 03       		.byte	0x3
 3815 00d0 00000000 		.4byte	brightness
 3816 00d4 06       		.byte	0x6
 3817 00d5 1E       		.byte	0x1e
 3818 00d6 F7       		.byte	0xf7
 3819 00d7 25       		.uleb128 0x25
 3820 00d8 F7       		.byte	0xf7
 3821 00d9 2C       		.uleb128 0x2c
 3822 00da 75       		.byte	0x75
 3823 00db 00       		.sleb128 0
 3824 00dc F7       		.byte	0xf7
 3825 00dd 25       		.uleb128 0x25
 3826 00de F7       		.byte	0xf7
 3827 00df 2C       		.uleb128 0x2c
 3828 00e0 1E       		.byte	0x1e
 3829 00e1 08       		.byte	0x8
 3830 00e2 20       		.byte	0x20
 3831 00e3 F7       		.byte	0xf7
 3832 00e4 2C       		.uleb128 0x2c
 3833 00e5 25       		.byte	0x25
 3834 00e6 F7       		.byte	0xf7
 3835 00e7 25       		.uleb128 0x25
 3836 00e8 35       		.byte	0x35
 3837 00e9 25       		.byte	0x25
 3838 00ea 74       		.byte	0x74
 3839 00eb 00       		.sleb128 0
 3840 00ec 22       		.byte	0x22
 3841 00ed 94       		.byte	0x94
 3842 00ee 01       		.byte	0x1
 3843 00ef 08       		.byte	0x8
 3844 00f0 FF       		.byte	0xff
 3845 00f1 1A       		.byte	0x1a
 3846 00f2 9F       		.byte	0x9f
 3847 00f3 42000000 		.4byte	.LVL13
 3848 00f7 50000000 		.4byte	.LFE263
 3849 00fb 3100     		.2byte	0x31
 3850 00fd F3       		.byte	0xf3
 3851 00fe 01       		.uleb128 0x1
 3852 00ff 50       		.byte	0x50
 3853 0100 09       		.byte	0x9
 3854 0101 EC       		.byte	0xec
 3855 0102 24       		.byte	0x24
 3856 0103 09       		.byte	0x9
 3857 0104 FC       		.byte	0xfc
 3858 0105 25       		.byte	0x25
 3859 0106 03       		.byte	0x3
 3860 0107 00000000 		.4byte	brightness
 3861 010b 06       		.byte	0x6
 3862 010c 1E       		.byte	0x1e
 3863 010d F7       		.byte	0xf7
 3864 010e 25       		.uleb128 0x25
ARM GAS  /var/folders/sv/kgmgr77579zbf78p2zlhkdfr0000gn/T//ccRS1V9P.s 			page 69


 3865 010f F7       		.byte	0xf7
 3866 0110 2C       		.uleb128 0x2c
 3867 0111 0C       		.byte	0xc
 3868 0112 1F85EB51 		.4byte	0x51eb851f
 3869 0116 F7       		.byte	0xf7
 3870 0117 2C       		.uleb128 0x2c
 3871 0118 1E       		.byte	0x1e
 3872 0119 08       		.byte	0x8
 3873 011a 20       		.byte	0x20
 3874 011b F7       		.byte	0xf7
 3875 011c 2C       		.uleb128 0x2c
 3876 011d 25       		.byte	0x25
 3877 011e F7       		.byte	0xf7
 3878 011f 25       		.uleb128 0x25
 3879 0120 35       		.byte	0x35
 3880 0121 25       		.byte	0x25
 3881 0122 03       		.byte	0x3
 3882 0123 00000000 		.4byte	.LANCHOR1
 3883 0127 22       		.byte	0x22
 3884 0128 94       		.byte	0x94
 3885 0129 01       		.byte	0x1
 3886 012a 08       		.byte	0x8
 3887 012b FF       		.byte	0xff
 3888 012c 1A       		.byte	0x1a
 3889 012d 9F       		.byte	0x9f
 3890 012e 00000000 		.4byte	0
 3891 0132 00000000 		.4byte	0
 3892              	.LLST2:
 3893 0136 0E000000 		.4byte	.LVL1
 3894 013a 1C000000 		.4byte	.LVL4
 3895 013e 0800     		.2byte	0x8
 3896 0140 70       		.byte	0x70
 3897 0141 00       		.sleb128 0
 3898 0142 38       		.byte	0x38
 3899 0143 25       		.byte	0x25
 3900 0144 08       		.byte	0x8
 3901 0145 FF       		.byte	0xff
 3902 0146 1A       		.byte	0x1a
 3903 0147 9F       		.byte	0x9f
 3904 0148 1C000000 		.4byte	.LVL4
 3905 014c 20000000 		.4byte	.LVL5
 3906 0150 0900     		.2byte	0x9
 3907 0152 F3       		.byte	0xf3
 3908 0153 01       		.uleb128 0x1
 3909 0154 50       		.byte	0x50
 3910 0155 38       		.byte	0x38
 3911 0156 25       		.byte	0x25
 3912 0157 08       		.byte	0x8
 3913 0158 FF       		.byte	0xff
 3914 0159 1A       		.byte	0x1a
 3915 015a 9F       		.byte	0x9f
 3916 015b 20000000 		.4byte	.LVL5
 3917 015f 26000000 		.4byte	.LVL6
 3918 0163 0C00     		.2byte	0xc
 3919 0165 72       		.byte	0x72
 3920 0166 00       		.sleb128 0
 3921 0167 F7       		.byte	0xf7
ARM GAS  /var/folders/sv/kgmgr77579zbf78p2zlhkdfr0000gn/T//ccRS1V9P.s 			page 70


 3922 0168 25       		.uleb128 0x25
 3923 0169 08       		.byte	0x8
 3924 016a 64       		.byte	0x64
 3925 016b F7       		.byte	0xf7
 3926 016c 25       		.uleb128 0x25
 3927 016d 1B       		.byte	0x1b
 3928 016e F7       		.byte	0xf7
 3929 016f 00       		.uleb128 0
 3930 0170 9F       		.byte	0x9f
 3931 0171 26000000 		.4byte	.LVL6
 3932 0175 2A000000 		.4byte	.LVL7
 3933 0179 1600     		.2byte	0x16
 3934 017b F3       		.byte	0xf3
 3935 017c 01       		.uleb128 0x1
 3936 017d 50       		.byte	0x50
 3937 017e 09       		.byte	0x9
 3938 017f F4       		.byte	0xf4
 3939 0180 24       		.byte	0x24
 3940 0181 09       		.byte	0x9
 3941 0182 FC       		.byte	0xfc
 3942 0183 25       		.byte	0x25
 3943 0184 73       		.byte	0x73
 3944 0185 00       		.sleb128 0
 3945 0186 1E       		.byte	0x1e
 3946 0187 F7       		.byte	0xf7
 3947 0188 25       		.uleb128 0x25
 3948 0189 08       		.byte	0x8
 3949 018a 64       		.byte	0x64
 3950 018b F7       		.byte	0xf7
 3951 018c 25       		.uleb128 0x25
 3952 018d 1B       		.byte	0x1b
 3953 018e F7       		.byte	0xf7
 3954 018f 00       		.uleb128 0
 3955 0190 9F       		.byte	0x9f
 3956 0191 2A000000 		.4byte	.LVL7
 3957 0195 34000000 		.4byte	.LVL10
 3958 0199 1A00     		.2byte	0x1a
 3959 019b F3       		.byte	0xf3
 3960 019c 01       		.uleb128 0x1
 3961 019d 50       		.byte	0x50
 3962 019e 09       		.byte	0x9
 3963 019f F4       		.byte	0xf4
 3964 01a0 24       		.byte	0x24
 3965 01a1 09       		.byte	0x9
 3966 01a2 FC       		.byte	0xfc
 3967 01a3 25       		.byte	0x25
 3968 01a4 03       		.byte	0x3
 3969 01a5 00000000 		.4byte	brightness
 3970 01a9 06       		.byte	0x6
 3971 01aa 1E       		.byte	0x1e
 3972 01ab F7       		.byte	0xf7
 3973 01ac 25       		.uleb128 0x25
 3974 01ad 08       		.byte	0x8
 3975 01ae 64       		.byte	0x64
 3976 01af F7       		.byte	0xf7
 3977 01b0 25       		.uleb128 0x25
 3978 01b1 1B       		.byte	0x1b
ARM GAS  /var/folders/sv/kgmgr77579zbf78p2zlhkdfr0000gn/T//ccRS1V9P.s 			page 71


 3979 01b2 F7       		.byte	0xf7
 3980 01b3 00       		.uleb128 0
 3981 01b4 9F       		.byte	0x9f
 3982 01b5 34000000 		.4byte	.LVL10
 3983 01b9 50000000 		.4byte	.LFE263
 3984 01bd 0600     		.2byte	0x6
 3985 01bf 71       		.byte	0x71
 3986 01c0 00       		.sleb128 0
 3987 01c1 08       		.byte	0x8
 3988 01c2 FF       		.byte	0xff
 3989 01c3 1A       		.byte	0x1a
 3990 01c4 9F       		.byte	0x9f
 3991 01c5 00000000 		.4byte	0
 3992 01c9 00000000 		.4byte	0
 3993              	.LLST3:
 3994 01cd 0E000000 		.4byte	.LVL1
 3995 01d1 1C000000 		.4byte	.LVL4
 3996 01d5 0600     		.2byte	0x6
 3997 01d7 70       		.byte	0x70
 3998 01d8 00       		.sleb128 0
 3999 01d9 08       		.byte	0x8
 4000 01da FF       		.byte	0xff
 4001 01db 1A       		.byte	0x1a
 4002 01dc 9F       		.byte	0x9f
 4003 01dd 1C000000 		.4byte	.LVL4
 4004 01e1 2A000000 		.4byte	.LVL7
 4005 01e5 0700     		.2byte	0x7
 4006 01e7 F3       		.byte	0xf3
 4007 01e8 01       		.uleb128 0x1
 4008 01e9 50       		.byte	0x50
 4009 01ea 08       		.byte	0x8
 4010 01eb FF       		.byte	0xff
 4011 01ec 1A       		.byte	0x1a
 4012 01ed 9F       		.byte	0x9f
 4013 01ee 2A000000 		.4byte	.LVL7
 4014 01f2 2E000000 		.4byte	.LVL8
 4015 01f6 0C00     		.2byte	0xc
 4016 01f8 73       		.byte	0x73
 4017 01f9 00       		.sleb128 0
 4018 01fa F7       		.byte	0xf7
 4019 01fb 25       		.uleb128 0x25
 4020 01fc 08       		.byte	0x8
 4021 01fd 64       		.byte	0x64
 4022 01fe F7       		.byte	0xf7
 4023 01ff 25       		.uleb128 0x25
 4024 0200 1B       		.byte	0x1b
 4025 0201 F7       		.byte	0xf7
 4026 0202 00       		.uleb128 0
 4027 0203 9F       		.byte	0x9f
 4028 0204 2E000000 		.4byte	.LVL8
 4029 0208 3A000000 		.4byte	.LVL11
 4030 020c 1700     		.2byte	0x17
 4031 020e F3       		.byte	0xf3
 4032 020f 01       		.uleb128 0x1
 4033 0210 50       		.byte	0x50
 4034 0211 08       		.byte	0x8
 4035 0212 FF       		.byte	0xff
ARM GAS  /var/folders/sv/kgmgr77579zbf78p2zlhkdfr0000gn/T//ccRS1V9P.s 			page 72


 4036 0213 1A       		.byte	0x1a
 4037 0214 03       		.byte	0x3
 4038 0215 00000000 		.4byte	brightness
 4039 0219 06       		.byte	0x6
 4040 021a 1E       		.byte	0x1e
 4041 021b F7       		.byte	0xf7
 4042 021c 25       		.uleb128 0x25
 4043 021d 08       		.byte	0x8
 4044 021e 64       		.byte	0x64
 4045 021f F7       		.byte	0xf7
 4046 0220 25       		.uleb128 0x25
 4047 0221 1B       		.byte	0x1b
 4048 0222 F7       		.byte	0xf7
 4049 0223 00       		.uleb128 0
 4050 0224 9F       		.byte	0x9f
 4051 0225 3A000000 		.4byte	.LVL11
 4052 0229 40000000 		.4byte	.LVL12
 4053 022d 0600     		.2byte	0x6
 4054 022f 70       		.byte	0x70
 4055 0230 00       		.sleb128 0
 4056 0231 08       		.byte	0x8
 4057 0232 FF       		.byte	0xff
 4058 0233 1A       		.byte	0x1a
 4059 0234 9F       		.byte	0x9f
 4060 0235 40000000 		.4byte	.LVL12
 4061 0239 42000000 		.4byte	.LVL13
 4062 023d 2A00     		.2byte	0x2a
 4063 023f F3       		.byte	0xf3
 4064 0240 01       		.uleb128 0x1
 4065 0241 50       		.byte	0x50
 4066 0242 08       		.byte	0x8
 4067 0243 FF       		.byte	0xff
 4068 0244 1A       		.byte	0x1a
 4069 0245 03       		.byte	0x3
 4070 0246 00000000 		.4byte	brightness
 4071 024a 06       		.byte	0x6
 4072 024b 1E       		.byte	0x1e
 4073 024c F7       		.byte	0xf7
 4074 024d 25       		.uleb128 0x25
 4075 024e F7       		.byte	0xf7
 4076 024f 2C       		.uleb128 0x2c
 4077 0250 75       		.byte	0x75
 4078 0251 00       		.sleb128 0
 4079 0252 F7       		.byte	0xf7
 4080 0253 25       		.uleb128 0x25
 4081 0254 F7       		.byte	0xf7
 4082 0255 2C       		.uleb128 0x2c
 4083 0256 1E       		.byte	0x1e
 4084 0257 08       		.byte	0x8
 4085 0258 20       		.byte	0x20
 4086 0259 F7       		.byte	0xf7
 4087 025a 2C       		.uleb128 0x2c
 4088 025b 25       		.byte	0x25
 4089 025c F7       		.byte	0xf7
 4090 025d 25       		.uleb128 0x25
 4091 025e 35       		.byte	0x35
 4092 025f 25       		.byte	0x25
ARM GAS  /var/folders/sv/kgmgr77579zbf78p2zlhkdfr0000gn/T//ccRS1V9P.s 			page 73


 4093 0260 74       		.byte	0x74
 4094 0261 00       		.sleb128 0
 4095 0262 22       		.byte	0x22
 4096 0263 94       		.byte	0x94
 4097 0264 01       		.byte	0x1
 4098 0265 08       		.byte	0x8
 4099 0266 FF       		.byte	0xff
 4100 0267 1A       		.byte	0x1a
 4101 0268 9F       		.byte	0x9f
 4102 0269 42000000 		.4byte	.LVL13
 4103 026d 50000000 		.4byte	.LFE263
 4104 0271 2E00     		.2byte	0x2e
 4105 0273 F3       		.byte	0xf3
 4106 0274 01       		.uleb128 0x1
 4107 0275 50       		.byte	0x50
 4108 0276 08       		.byte	0x8
 4109 0277 FF       		.byte	0xff
 4110 0278 1A       		.byte	0x1a
 4111 0279 03       		.byte	0x3
 4112 027a 00000000 		.4byte	brightness
 4113 027e 06       		.byte	0x6
 4114 027f 1E       		.byte	0x1e
 4115 0280 F7       		.byte	0xf7
 4116 0281 25       		.uleb128 0x25
 4117 0282 F7       		.byte	0xf7
 4118 0283 2C       		.uleb128 0x2c
 4119 0284 0C       		.byte	0xc
 4120 0285 1F85EB51 		.4byte	0x51eb851f
 4121 0289 F7       		.byte	0xf7
 4122 028a 2C       		.uleb128 0x2c
 4123 028b 1E       		.byte	0x1e
 4124 028c 08       		.byte	0x8
 4125 028d 20       		.byte	0x20
 4126 028e F7       		.byte	0xf7
 4127 028f 2C       		.uleb128 0x2c
 4128 0290 25       		.byte	0x25
 4129 0291 F7       		.byte	0xf7
 4130 0292 25       		.uleb128 0x25
 4131 0293 35       		.byte	0x35
 4132 0294 25       		.byte	0x25
 4133 0295 03       		.byte	0x3
 4134 0296 00000000 		.4byte	.LANCHOR1
 4135 029a 22       		.byte	0x22
 4136 029b 94       		.byte	0x94
 4137 029c 01       		.byte	0x1
 4138 029d 08       		.byte	0x8
 4139 029e FF       		.byte	0xff
 4140 029f 1A       		.byte	0x1a
 4141 02a0 9F       		.byte	0x9f
 4142 02a1 00000000 		.4byte	0
 4143 02a5 00000000 		.4byte	0
 4144              	.LLST4:
 4145 02a9 00000000 		.4byte	.LVL14
 4146 02ad 08000000 		.4byte	.LVL15
 4147 02b1 0100     		.2byte	0x1
 4148 02b3 50       		.byte	0x50
 4149 02b4 08000000 		.4byte	.LVL15
ARM GAS  /var/folders/sv/kgmgr77579zbf78p2zlhkdfr0000gn/T//ccRS1V9P.s 			page 74


 4150 02b8 10000000 		.4byte	.LVL16
 4151 02bc 0100     		.2byte	0x1
 4152 02be 54       		.byte	0x54
 4153 02bf 10000000 		.4byte	.LVL16
 4154 02c3 44000000 		.4byte	.LFE264
 4155 02c7 0400     		.2byte	0x4
 4156 02c9 F3       		.byte	0xf3
 4157 02ca 01       		.uleb128 0x1
 4158 02cb 50       		.byte	0x50
 4159 02cc 9F       		.byte	0x9f
 4160 02cd 00000000 		.4byte	0
 4161 02d1 00000000 		.4byte	0
 4162              	.LLST5:
 4163 02d5 00000000 		.4byte	.LVL14
 4164 02d9 13000000 		.4byte	.LVL17-1
 4165 02dd 0100     		.2byte	0x1
 4166 02df 51       		.byte	0x51
 4167 02e0 13000000 		.4byte	.LVL17-1
 4168 02e4 14000000 		.4byte	.LVL17
 4169 02e8 0400     		.2byte	0x4
 4170 02ea F3       		.byte	0xf3
 4171 02eb 01       		.uleb128 0x1
 4172 02ec 51       		.byte	0x51
 4173 02ed 9F       		.byte	0x9f
 4174 02ee 14000000 		.4byte	.LVL17
 4175 02f2 44000000 		.4byte	.LFE264
 4176 02f6 0100     		.2byte	0x1
 4177 02f8 50       		.byte	0x50
 4178 02f9 00000000 		.4byte	0
 4179 02fd 00000000 		.4byte	0
 4180              	.LLST6:
 4181 0301 14000000 		.4byte	.LVL17
 4182 0305 24000000 		.4byte	.LVL18
 4183 0309 0200     		.2byte	0x2
 4184 030b 30       		.byte	0x30
 4185 030c 9F       		.byte	0x9f
 4186 030d 00000000 		.4byte	0
 4187 0311 00000000 		.4byte	0
 4188              	.LLST7:
 4189 0315 10000000 		.4byte	.LVL20
 4190 0319 1A000000 		.4byte	.LVL21
 4191 031d 0200     		.2byte	0x2
 4192 031f 30       		.byte	0x30
 4193 0320 9F       		.byte	0x9f
 4194 0321 00000000 		.4byte	0
 4195 0325 00000000 		.4byte	0
 4196              	.LLST8:
 4197 0329 34000000 		.4byte	.LVL22
 4198 032d 38000000 		.4byte	.LVL23
 4199 0331 0200     		.2byte	0x2
 4200 0333 30       		.byte	0x30
 4201 0334 9F       		.byte	0x9f
 4202 0335 00000000 		.4byte	0
 4203 0339 00000000 		.4byte	0
 4204              	.LLST9:
 4205 033d 34000000 		.4byte	.LVL22
 4206 0341 68000000 		.4byte	.LVL25
ARM GAS  /var/folders/sv/kgmgr77579zbf78p2zlhkdfr0000gn/T//ccRS1V9P.s 			page 75


 4207 0345 0100     		.2byte	0x1
 4208 0347 50       		.byte	0x50
 4209 0348 00000000 		.4byte	0
 4210 034c 00000000 		.4byte	0
 4211              	.LLST10:
 4212 0350 68000000 		.4byte	.LVL25
 4213 0354 7E000000 		.4byte	.LVL27
 4214 0358 0100     		.2byte	0x1
 4215 035a 54       		.byte	0x54
 4216 035b 7E000000 		.4byte	.LVL27
 4217 035f 86000000 		.4byte	.LVL28
 4218 0363 0300     		.2byte	0x3
 4219 0365 74       		.byte	0x74
 4220 0366 7F       		.sleb128 -1
 4221 0367 9F       		.byte	0x9f
 4222 0368 86000000 		.4byte	.LVL28
 4223 036c C0000000 		.4byte	.LVL32
 4224 0370 0100     		.2byte	0x1
 4225 0372 54       		.byte	0x54
 4226 0373 C0000000 		.4byte	.LVL32
 4227 0377 FB000000 		.4byte	.LVL33-1
 4228 037b 0200     		.2byte	0x2
 4229 037d 91       		.byte	0x91
 4230 037e 48       		.sleb128 -56
 4231 037f 00000000 		.4byte	0
 4232 0383 00000000 		.4byte	0
 4233              	.LLST11:
 4234 0387 00000000 		.4byte	.LVL42
 4235 038b 07000000 		.4byte	.LVL43-1
 4236 038f 0100     		.2byte	0x1
 4237 0391 50       		.byte	0x50
 4238 0392 07000000 		.4byte	.LVL43-1
 4239 0396 08000000 		.4byte	.LVL43
 4240 039a 0400     		.2byte	0x4
 4241 039c F3       		.byte	0xf3
 4242 039d 01       		.uleb128 0x1
 4243 039e 50       		.byte	0x50
 4244 039f 9F       		.byte	0x9f
 4245 03a0 08000000 		.4byte	.LVL43
 4246 03a4 0A000000 		.4byte	.LFE257
 4247 03a8 0100     		.2byte	0x1
 4248 03aa 50       		.byte	0x50
 4249 03ab 00000000 		.4byte	0
 4250 03af 00000000 		.4byte	0
 4251              	.LLST12:
 4252 03b3 00000000 		.4byte	.LVL42
 4253 03b7 07000000 		.4byte	.LVL43-1
 4254 03bb 0100     		.2byte	0x1
 4255 03bd 51       		.byte	0x51
 4256 03be 07000000 		.4byte	.LVL43-1
 4257 03c2 08000000 		.4byte	.LVL43
 4258 03c6 0400     		.2byte	0x4
 4259 03c8 F3       		.byte	0xf3
 4260 03c9 01       		.uleb128 0x1
 4261 03ca 51       		.byte	0x51
 4262 03cb 9F       		.byte	0x9f
 4263 03cc 08000000 		.4byte	.LVL43
ARM GAS  /var/folders/sv/kgmgr77579zbf78p2zlhkdfr0000gn/T//ccRS1V9P.s 			page 76


 4264 03d0 0A000000 		.4byte	.LFE257
 4265 03d4 0100     		.2byte	0x1
 4266 03d6 51       		.byte	0x51
 4267 03d7 00000000 		.4byte	0
 4268 03db 00000000 		.4byte	0
 4269              	.LLST13:
 4270 03df 00000000 		.4byte	.LVL44
 4271 03e3 0A000000 		.4byte	.LVL45
 4272 03e7 0100     		.2byte	0x1
 4273 03e9 50       		.byte	0x50
 4274 03ea 0A000000 		.4byte	.LVL45
 4275 03ee 14000000 		.4byte	.LFE258
 4276 03f2 0400     		.2byte	0x4
 4277 03f4 F3       		.byte	0xf3
 4278 03f5 01       		.uleb128 0x1
 4279 03f6 50       		.byte	0x50
 4280 03f7 9F       		.byte	0x9f
 4281 03f8 00000000 		.4byte	0
 4282 03fc 00000000 		.4byte	0
 4283              	.LLST14:
 4284 0400 00000000 		.4byte	.LVL46
 4285 0404 08000000 		.4byte	.LVL47
 4286 0408 0200     		.2byte	0x2
 4287 040a 30       		.byte	0x30
 4288 040b 9F       		.byte	0x9f
 4289 040c 00000000 		.4byte	0
 4290 0410 00000000 		.4byte	0
 4291              	.LLST15:
 4292 0414 00000000 		.4byte	.LVL48
 4293 0418 14000000 		.4byte	.LVL49
 4294 041c 0100     		.2byte	0x1
 4295 041e 50       		.byte	0x50
 4296 041f 14000000 		.4byte	.LVL49
 4297 0423 40000000 		.4byte	.LVL53
 4298 0427 0100     		.2byte	0x1
 4299 0429 57       		.byte	0x57
 4300 042a 40000000 		.4byte	.LVL53
 4301 042e 48000000 		.4byte	.LFE260
 4302 0432 0400     		.2byte	0x4
 4303 0434 F3       		.byte	0xf3
 4304 0435 01       		.uleb128 0x1
 4305 0436 50       		.byte	0x50
 4306 0437 9F       		.byte	0x9f
 4307 0438 00000000 		.4byte	0
 4308 043c 00000000 		.4byte	0
 4309              	.LLST16:
 4310 0440 00000000 		.4byte	.LVL48
 4311 0444 14000000 		.4byte	.LVL49
 4312 0448 0200     		.2byte	0x2
 4313 044a 30       		.byte	0x30
 4314 044b 9F       		.byte	0x9f
 4315 044c 00000000 		.4byte	0
 4316 0450 00000000 		.4byte	0
 4317              	.LLST17:
 4318 0454 1E000000 		.4byte	.LVL50
 4319 0458 22000000 		.4byte	.LVL51
 4320 045c 0200     		.2byte	0x2
ARM GAS  /var/folders/sv/kgmgr77579zbf78p2zlhkdfr0000gn/T//ccRS1V9P.s 			page 77


 4321 045e 30       		.byte	0x30
 4322 045f 9F       		.byte	0x9f
 4323 0460 00000000 		.4byte	0
 4324 0464 00000000 		.4byte	0
 4325              	.LLST18:
 4326 0468 00000000 		.4byte	.LVL54
 4327 046c 0A000000 		.4byte	.LVL56
 4328 0470 0100     		.2byte	0x1
 4329 0472 50       		.byte	0x50
 4330 0473 0A000000 		.4byte	.LVL56
 4331 0477 24000000 		.4byte	.LFE261
 4332 047b 0400     		.2byte	0x4
 4333 047d F3       		.byte	0xf3
 4334 047e 01       		.uleb128 0x1
 4335 047f 50       		.byte	0x50
 4336 0480 9F       		.byte	0x9f
 4337 0481 00000000 		.4byte	0
 4338 0485 00000000 		.4byte	0
 4339              	.LLST19:
 4340 0489 08000000 		.4byte	.LVL55
 4341 048d 0A000000 		.4byte	.LVL56
 4342 0491 0200     		.2byte	0x2
 4343 0493 30       		.byte	0x30
 4344 0494 9F       		.byte	0x9f
 4345 0495 0A000000 		.4byte	.LVL56
 4346 0499 12000000 		.4byte	.LVL57
 4347 049d 0100     		.2byte	0x1
 4348 049f 54       		.byte	0x54
 4349 04a0 12000000 		.4byte	.LVL57
 4350 04a4 15000000 		.4byte	.LVL58-1
 4351 04a8 0100     		.2byte	0x1
 4352 04aa 50       		.byte	0x50
 4353 04ab 15000000 		.4byte	.LVL58-1
 4354 04af 16000000 		.4byte	.LVL58
 4355 04b3 0300     		.2byte	0x3
 4356 04b5 74       		.byte	0x74
 4357 04b6 7F       		.sleb128 -1
 4358 04b7 9F       		.byte	0x9f
 4359 04b8 16000000 		.4byte	.LVL58
 4360 04bc 1C000000 		.4byte	.LVL59
 4361 04c0 0100     		.2byte	0x1
 4362 04c2 54       		.byte	0x54
 4363 04c3 00000000 		.4byte	0
 4364 04c7 00000000 		.4byte	0
 4365              	.LLST20:
 4366 04cb 0A000000 		.4byte	.LVL56
 4367 04cf 12000000 		.4byte	.LVL57
 4368 04d3 0100     		.2byte	0x1
 4369 04d5 54       		.byte	0x54
 4370 04d6 12000000 		.4byte	.LVL57
 4371 04da 15000000 		.4byte	.LVL58-1
 4372 04de 0100     		.2byte	0x1
 4373 04e0 50       		.byte	0x50
 4374 04e1 15000000 		.4byte	.LVL58-1
 4375 04e5 16000000 		.4byte	.LVL58
 4376 04e9 0300     		.2byte	0x3
 4377 04eb 74       		.byte	0x74
ARM GAS  /var/folders/sv/kgmgr77579zbf78p2zlhkdfr0000gn/T//ccRS1V9P.s 			page 78


 4378 04ec 7F       		.sleb128 -1
 4379 04ed 9F       		.byte	0x9f
 4380 04ee 00000000 		.4byte	0
 4381 04f2 00000000 		.4byte	0
 4382              		.section	.debug_aranges,"",%progbits
 4383 0000 5C000000 		.4byte	0x5c
 4384 0004 0200     		.2byte	0x2
 4385 0006 00000000 		.4byte	.Ldebug_info0
 4386 000a 04       		.byte	0x4
 4387 000b 00       		.byte	0
 4388 000c 0000     		.2byte	0
 4389 000e 0000     		.2byte	0
 4390 0010 00000000 		.4byte	.LFB263
 4391 0014 50000000 		.4byte	.LFE263-.LFB263
 4392 0018 00000000 		.4byte	.LFB264
 4393 001c 44000000 		.4byte	.LFE264-.LFB264
 4394 0020 00000000 		.4byte	.LFB256
 4395 0024 A0010000 		.4byte	.LFE256-.LFB256
 4396 0028 00000000 		.4byte	.LFB257
 4397 002c 0A000000 		.4byte	.LFE257-.LFB257
 4398 0030 00000000 		.4byte	.LFB258
 4399 0034 14000000 		.4byte	.LFE258-.LFB258
 4400 0038 00000000 		.4byte	.LFB259
 4401 003c 2C000000 		.4byte	.LFE259-.LFB259
 4402 0040 00000000 		.4byte	.LFB260
 4403 0044 48000000 		.4byte	.LFE260-.LFB260
 4404 0048 00000000 		.4byte	.LFB261
 4405 004c 24000000 		.4byte	.LFE261-.LFB261
 4406 0050 00000000 		.4byte	.LFB262
 4407 0054 0C000000 		.4byte	.LFE262-.LFB262
 4408 0058 00000000 		.4byte	0
 4409 005c 00000000 		.4byte	0
 4410              		.section	.debug_ranges,"",%progbits
 4411              	.Ldebug_ranges0:
 4412 0000 02000000 		.4byte	.LBB9
 4413 0004 04000000 		.4byte	.LBE9
 4414 0008 06000000 		.4byte	.LBB10
 4415 000c 38000000 		.4byte	.LBE10
 4416 0010 00000000 		.4byte	0
 4417 0014 00000000 		.4byte	0
 4418 0018 62000000 		.4byte	.LBB12
 4419 001c 66000000 		.4byte	.LBE12
 4420 0020 68000000 		.4byte	.LBB13
 4421 0024 98000000 		.4byte	.LBE13
 4422 0028 00000000 		.4byte	0
 4423 002c 00000000 		.4byte	0
 4424 0030 0A000000 		.4byte	.LBB16
 4425 0034 10000000 		.4byte	.LBE16
 4426 0038 12000000 		.4byte	.LBB19
 4427 003c 16000000 		.4byte	.LBE19
 4428 0040 00000000 		.4byte	0
 4429 0044 00000000 		.4byte	0
 4430 0048 00000000 		.4byte	.LFB263
 4431 004c 50000000 		.4byte	.LFE263
 4432 0050 00000000 		.4byte	.LFB264
 4433 0054 44000000 		.4byte	.LFE264
 4434 0058 00000000 		.4byte	.LFB256
ARM GAS  /var/folders/sv/kgmgr77579zbf78p2zlhkdfr0000gn/T//ccRS1V9P.s 			page 79


 4435 005c A0010000 		.4byte	.LFE256
 4436 0060 00000000 		.4byte	.LFB257
 4437 0064 0A000000 		.4byte	.LFE257
 4438 0068 00000000 		.4byte	.LFB258
 4439 006c 14000000 		.4byte	.LFE258
 4440 0070 00000000 		.4byte	.LFB259
 4441 0074 2C000000 		.4byte	.LFE259
 4442 0078 00000000 		.4byte	.LFB260
 4443 007c 48000000 		.4byte	.LFE260
 4444 0080 00000000 		.4byte	.LFB261
 4445 0084 24000000 		.4byte	.LFE261
 4446 0088 00000000 		.4byte	.LFB262
 4447 008c 0C000000 		.4byte	.LFE262
 4448 0090 00000000 		.4byte	0
 4449 0094 00000000 		.4byte	0
 4450              		.section	.debug_line,"",%progbits
 4451              	.Ldebug_line0:
 4452 0000 F6040000 		.section	.debug_str,"MS",%progbits,1
 4452      02005603 
 4452      00000201 
 4452      FB0E0D00 
 4452      01010101 
 4453              	.LASF11:
 4454 0000 6C6F6E67 		.ascii	"long int\000"
 4454      20696E74 
 4454      00
 4455              	.LASF59:
 4456 0009 74687265 		.ascii	"threads_queue_t\000"
 4456      6164735F 
 4456      71756575 
 4456      655F7400 
 4457              	.LASF202:
 4458 0019 77733238 		.ascii	"ws2811_set_led_color\000"
 4458      31315F73 
 4458      65745F6C 
 4458      65645F63 
 4458      6F6C6F72 
 4459              	.LASF145:
 4460 002e 54494D5F 		.ascii	"TIM_Prescaler\000"
 4460      50726573 
 4460      63616C65 
 4460      7200
 4461              	.LASF112:
 4462 003c 746D5F63 		.ascii	"tm_calibration_t\000"
 4462      616C6962 
 4462      72617469 
 4462      6F6E5F74 
 4462      00
 4463              	.LASF47:
 4464 004d 705F7469 		.ascii	"p_time\000"
 4464      6D6500
 4465              	.LASF165:
 4466 0054 42535252 		.ascii	"BSRR\000"
 4466      00
 4467              	.LASF17:
 4468 0059 63686172 		.ascii	"char\000"
 4468      00
ARM GAS  /var/folders/sv/kgmgr77579zbf78p2zlhkdfr0000gn/T//ccRS1V9P.s 			page 80


 4469              	.LASF107:
 4470 005e 72656761 		.ascii	"regarm_t\000"
 4470      726D5F74 
 4470      00
 4471              	.LASF38:
 4472 0067 705F7072 		.ascii	"p_prio\000"
 4472      696F00
 4473              	.LASF159:
 4474 006e 54494D5F 		.ascii	"TIM_OCInitTypeDef\000"
 4474      4F43496E 
 4474      69745479 
 4474      70654465 
 4474      6600
 4475              	.LASF196:
 4476 0080 444D415F 		.ascii	"DMA_Cmd\000"
 4476      436D6400 
 4477              	.LASF179:
 4478 0088 77733238 		.ascii	"ws2811_set_brightness\000"
 4478      31315F73 
 4478      65745F62 
 4478      72696768 
 4478      746E6573 
 4479              	.LASF34:
 4480 009e 73797374 		.ascii	"systime_t\000"
 4480      696D655F 
 4480      7400
 4481              	.LASF132:
 4482 00a8 444D415F 		.ascii	"DMA_DIR\000"
 4482      44495200 
 4483              	.LASF121:
 4484 00b0 735F7175 		.ascii	"s_queue\000"
 4484      65756500 
 4485              	.LASF79:
 4486 00b8 76745F73 		.ascii	"vt_systime\000"
 4486      79737469 
 4486      6D6500
 4487              	.LASF49:
 4488 00c3 705F6D73 		.ascii	"p_msgqueue\000"
 4488      67717565 
 4488      756500
 4489              	.LASF0:
 4490 00ce 756E7369 		.ascii	"unsigned int\000"
 4490      676E6564 
 4490      20696E74 
 4490      00
 4491              	.LASF190:
 4492 00db 444D415F 		.ascii	"DMA_Init\000"
 4492      496E6974 
 4492      00
 4493              	.LASF56:
 4494 00e4 74687265 		.ascii	"threads_list_t\000"
 4494      6164735F 
 4494      6C697374 
 4494      5F7400
 4495              	.LASF48:
 4496 00f3 705F7761 		.ascii	"p_waiting\000"
 4496      6974696E 
ARM GAS  /var/folders/sv/kgmgr77579zbf78p2zlhkdfr0000gn/T//ccRS1V9P.s 			page 81


 4496      6700
 4497              	.LASF188:
 4498 00fd 5243435F 		.ascii	"RCC_AHB1PeriphClockCmd\000"
 4498      41484231 
 4498      50657269 
 4498      7068436C 
 4498      6F636B43 
 4499              	.LASF10:
 4500 0114 5F5F696E 		.ascii	"__int32_t\000"
 4500      7433325F 
 4500      7400
 4501              	.LASF181:
 4502 011e 52474264 		.ascii	"RGBdata\000"
 4502      61746100 
 4503              	.LASF115:
 4504 0126 77746F62 		.ascii	"wtobjp\000"
 4504      6A7000
 4505              	.LASF86:
 4506 012d 76746C69 		.ascii	"vtlist\000"
 4506      737400
 4507              	.LASF185:
 4508 0134 706F7766 		.ascii	"powf\000"
 4508      00
 4509              	.LASF147:
 4510 0139 54494D5F 		.ascii	"TIM_Period\000"
 4510      50657269 
 4510      6F6400
 4511              	.LASF62:
 4512 0144 63685F72 		.ascii	"ch_ready_list\000"
 4512      65616479 
 4512      5F6C6973 
 4512      7400
 4513              	.LASF174:
 4514 0152 444D415F 		.ascii	"DMA_InitStructure\000"
 4514      496E6974 
 4514      53747275 
 4514      63747572 
 4514      6500
 4515              	.LASF89:
 4516 0164 4E445452 		.ascii	"NDTR\000"
 4516      00
 4517              	.LASF130:
 4518 0169 444D415F 		.ascii	"DMA_PeripheralBaseAddr\000"
 4518      50657269 
 4518      70686572 
 4518      616C4261 
 4518      73654164 
 4519              	.LASF157:
 4520 0180 54494D5F 		.ascii	"TIM_OCIdleState\000"
 4520      4F434964 
 4520      6C655374 
 4520      61746500 
 4521              	.LASF103:
 4522 0190 444D4152 		.ascii	"DMAR\000"
 4522      00
 4523              	.LASF143:
 4524 0195 444D415F 		.ascii	"DMA_PeripheralBurst\000"
ARM GAS  /var/folders/sv/kgmgr77579zbf78p2zlhkdfr0000gn/T//ccRS1V9P.s 			page 82


 4524      50657269 
 4524      70686572 
 4524      616C4275 
 4524      72737400 
 4525              	.LASF194:
 4526 01a9 54494D5F 		.ascii	"TIM_OC2PreloadConfig\000"
 4526      4F433250 
 4526      72656C6F 
 4526      6164436F 
 4526      6E666967 
 4527              	.LASF69:
 4528 01be 76746675 		.ascii	"vtfunc_t\000"
 4528      6E635F74 
 4528      00
 4529              	.LASF122:
 4530 01c7 735F636E 		.ascii	"s_cnt\000"
 4530      7400
 4531              	.LASF81:
 4532 01cd 63685F73 		.ascii	"ch_system_debug\000"
 4532      79737465 
 4532      6D5F6465 
 4532      62756700 
 4533              	.LASF205:
 4534 01dd 77733238 		.ascii	"ws2811_get_brightness\000"
 4534      31315F67 
 4534      65745F62 
 4534      72696768 
 4534      746E6573 
 4535              	.LASF104:
 4536 01f3 54494D5F 		.ascii	"TIM_TypeDef\000"
 4536      54797065 
 4536      44656600 
 4537              	.LASF193:
 4538 01ff 54494D5F 		.ascii	"TIM_OC2Init\000"
 4538      4F433249 
 4538      6E697400 
 4539              	.LASF155:
 4540 020b 54494D5F 		.ascii	"TIM_OCPolarity\000"
 4540      4F43506F 
 4540      6C617269 
 4540      747900
 4541              	.LASF23:
 4542 021a 75696E74 		.ascii	"uint32_t\000"
 4542      33325F74 
 4542      00
 4543              	.LASF148:
 4544 0223 54494D5F 		.ascii	"TIM_ClockDivision\000"
 4544      436C6F63 
 4544      6B446976 
 4544      6973696F 
 4544      6E00
 4545              	.LASF64:
 4546 0235 725F7072 		.ascii	"r_prio\000"
 4546      696F00
 4547              	.LASF102:
 4548 023c 42445452 		.ascii	"BDTR\000"
 4548      00
ARM GAS  /var/folders/sv/kgmgr77579zbf78p2zlhkdfr0000gn/T//ccRS1V9P.s 			page 83


 4549              	.LASF76:
 4550 0241 76745F70 		.ascii	"vt_par\000"
 4550      617200
 4551              	.LASF2:
 4552 0248 666C6F61 		.ascii	"float\000"
 4552      7400
 4553              	.LASF120:
 4554 024e 63685F73 		.ascii	"ch_semaphore\000"
 4554      656D6170 
 4554      686F7265 
 4554      00
 4555              	.LASF30:
 4556 025b 74707269 		.ascii	"tprio_t\000"
 4556      6F5F7400 
 4557              	.LASF98:
 4558 0263 43435231 		.ascii	"CCR1\000"
 4558      00
 4559              	.LASF99:
 4560 0268 43435232 		.ascii	"CCR2\000"
 4560      00
 4561              	.LASF100:
 4562 026d 43435233 		.ascii	"CCR3\000"
 4562      00
 4563              	.LASF101:
 4564 0272 43435234 		.ascii	"CCR4\000"
 4564      00
 4565              	.LASF71:
 4566 0277 63685F76 		.ascii	"ch_virtual_timer\000"
 4566      69727475 
 4566      616C5F74 
 4566      696D6572 
 4566      00
 4567              	.LASF95:
 4568 0288 43434D52 		.ascii	"CCMR1\000"
 4568      3100
 4569              	.LASF96:
 4570 028e 43434D52 		.ascii	"CCMR2\000"
 4570      3200
 4571              	.LASF55:
 4572 0294 74687265 		.ascii	"thread_reference_t\000"
 4572      61645F72 
 4572      65666572 
 4572      656E6365 
 4572      5F7400
 4573              	.LASF1:
 4574 02a7 6C6F6E67 		.ascii	"long long unsigned int\000"
 4574      206C6F6E 
 4574      6720756E 
 4574      7369676E 
 4574      65642069 
 4575              	.LASF8:
 4576 02be 5F5F7569 		.ascii	"__uint16_t\000"
 4576      6E743136 
 4576      5F7400
 4577              	.LASF33:
 4578 02c9 636E745F 		.ascii	"cnt_t\000"
 4578      7400
ARM GAS  /var/folders/sv/kgmgr77579zbf78p2zlhkdfr0000gn/T//ccRS1V9P.s 			page 84


 4579              	.LASF58:
 4580 02cf 63685F74 		.ascii	"ch_threads_list\000"
 4580      68726561 
 4580      64735F6C 
 4580      69737400 
 4581              	.LASF161:
 4582 02df 4D4F4445 		.ascii	"MODER\000"
 4582      5200
 4583              	.LASF168:
 4584 02e5 41465248 		.ascii	"AFRH\000"
 4584      00
 4585              	.LASF169:
 4586 02ea 73746D33 		.ascii	"stm32_gpio_t\000"
 4586      325F6770 
 4586      696F5F74 
 4586      00
 4587              	.LASF167:
 4588 02f7 4146524C 		.ascii	"AFRL\000"
 4588      00
 4589              	.LASF40:
 4590 02fc 705F6E65 		.ascii	"p_newer\000"
 4590      77657200 
 4591              	.LASF160:
 4592 0304 636C6561 		.ascii	"clear\000"
 4592      7200
 4593              	.LASF78:
 4594 030a 63685F76 		.ascii	"ch_virtual_timers_list\000"
 4594      69727475 
 4594      616C5F74 
 4594      696D6572 
 4594      735F6C69 
 4595              	.LASF171:
 4596 0321 636F6C6F 		.ascii	"color\000"
 4596      7200
 4597              	.LASF35:
 4598 0327 74687265 		.ascii	"thread_t\000"
 4598      61645F74 
 4598      00
 4599              	.LASF4:
 4600 0330 73697A65 		.ascii	"size_t\000"
 4600      5F7400
 4601              	.LASF113:
 4602 0337 7264796D 		.ascii	"rdymsg\000"
 4602      736700
 4603              	.LASF111:
 4604 033e 6F666673 		.ascii	"offset\000"
 4604      657400
 4605              	.LASF195:
 4606 0345 54494D5F 		.ascii	"TIM_Cmd\000"
 4606      436D6400 
 4607              	.LASF128:
 4608 034d 5F426F6F 		.ascii	"_Bool\000"
 4608      6C00
 4609              	.LASF199:
 4610 0353 474E5520 		.ascii	"GNU C99 5.4.1 20160919 (release) [ARM/embedded-5-br"
 4610      43393920 
 4610      352E342E 
ARM GAS  /var/folders/sv/kgmgr77579zbf78p2zlhkdfr0000gn/T//ccRS1V9P.s 			page 85


 4610      31203230 
 4610      31363039 
 4611 0386 616E6368 		.ascii	"anch revision 240496] -mcpu=cortex-m4 -mfloat-abi=h"
 4611      20726576 
 4611      6973696F 
 4611      6E203234 
 4611      30343936 
 4612 03b9 61726420 		.ascii	"ard -mfpu=fpv4-sp-d16 -mno-thumb-interwork -mthumb "
 4612      2D6D6670 
 4612      753D6670 
 4612      76342D73 
 4612      702D6431 
 4613 03ec 2D676764 		.ascii	"-ggdb -O2 -std=gnu99 -fomit-frame-pointer -falign-f"
 4613      62202D4F 
 4613      32202D73 
 4613      74643D67 
 4613      6E753939 
 4614 041f 756E6374 		.ascii	"unctions=16 -ffunction-sections -fdata-sections -fn"
 4614      696F6E73 
 4614      3D313620 
 4614      2D666675 
 4614      6E637469 
 4615 0452 6F2D636F 		.ascii	"o-common -fsingle-precision-constant\000"
 4615      6D6D6F6E 
 4615      202D6673 
 4615      696E676C 
 4615      652D7072 
 4616              	.LASF125:
 4617 0477 6D5F6F77 		.ascii	"m_owner\000"
 4617      6E657200 
 4618              	.LASF123:
 4619 047f 63685F6D 		.ascii	"ch_mutex\000"
 4619      75746578 
 4619      00
 4620              	.LASF15:
 4621 0488 5F5F7569 		.ascii	"__uint64_t\000"
 4621      6E743634 
 4621      5F7400
 4622              	.LASF94:
 4623 0493 44494552 		.ascii	"DIER\000"
 4623      00
 4624              	.LASF90:
 4625 0498 4D304152 		.ascii	"M0AR\000"
 4625      00
 4626              	.LASF173:
 4627 049d 54494D5F 		.ascii	"TIM_OCInitStructure\000"
 4627      4F43496E 
 4627      69745374 
 4627      72756374 
 4627      75726500 
 4628              	.LASF149:
 4629 04b1 54494D5F 		.ascii	"TIM_RepetitionCounter\000"
 4629      52657065 
 4629      74697469 
 4629      6F6E436F 
 4629      756E7465 
 4630              	.LASF164:
ARM GAS  /var/folders/sv/kgmgr77579zbf78p2zlhkdfr0000gn/T//ccRS1V9P.s 			page 86


 4631 04c7 50555044 		.ascii	"PUPDR\000"
 4631      5200
 4632              	.LASF186:
 4633 04cd 726F756E 		.ascii	"roundf\000"
 4633      646600
 4634              	.LASF42:
 4635 04d4 705F6E61 		.ascii	"p_name\000"
 4635      6D6500
 4636              	.LASF156:
 4637 04db 54494D5F 		.ascii	"TIM_OCNPolarity\000"
 4637      4F434E50 
 4637      6F6C6172 
 4637      69747900 
 4638              	.LASF192:
 4639 04eb 54494D5F 		.ascii	"TIM_TimeBaseInit\000"
 4639      54696D65 
 4639      42617365 
 4639      496E6974 
 4639      00
 4640              	.LASF97:
 4641 04fc 43434552 		.ascii	"CCER\000"
 4641      00
 4642              	.LASF74:
 4643 0501 76745F64 		.ascii	"vt_delta\000"
 4643      656C7461 
 4643      00
 4644              	.LASF105:
 4645 050a 44495341 		.ascii	"DISABLE\000"
 4645      424C4500 
 4646              	.LASF200:
 4647 0512 77733238 		.ascii	"ws2811.c\000"
 4647      31312E63 
 4647      00
 4648              	.LASF66:
 4649 051b 725F6E65 		.ascii	"r_newer\000"
 4649      77657200 
 4650              	.LASF191:
 4651 0523 5243435F 		.ascii	"RCC_APB1PeriphClockCmd\000"
 4651      41504231 
 4651      50657269 
 4651      7068436C 
 4651      6F636B43 
 4652              	.LASF27:
 4653 053a 74737461 		.ascii	"tstate_t\000"
 4653      74655F74 
 4653      00
 4654              	.LASF138:
 4655 0543 444D415F 		.ascii	"DMA_Mode\000"
 4655      4D6F6465 
 4655      00
 4656              	.LASF14:
 4657 054c 6C6F6E67 		.ascii	"long long int\000"
 4657      206C6F6E 
 4657      6720696E 
 4657      7400
 4658              	.LASF41:
 4659 055a 705F6F6C 		.ascii	"p_older\000"
ARM GAS  /var/folders/sv/kgmgr77579zbf78p2zlhkdfr0000gn/T//ccRS1V9P.s 			page 87


 4659      64657200 
 4660              	.LASF43:
 4661 0562 705F7374 		.ascii	"p_state\000"
 4661      61746500 
 4662              	.LASF146:
 4663 056a 54494D5F 		.ascii	"TIM_CounterMode\000"
 4663      436F756E 
 4663      7465724D 
 4663      6F646500 
 4664              	.LASF20:
 4665 057a 75696E74 		.ascii	"uint8_t\000"
 4665      385F7400 
 4666              	.LASF135:
 4667 0582 444D415F 		.ascii	"DMA_MemoryInc\000"
 4667      4D656D6F 
 4667      7279496E 
 4667      6300
 4668              	.LASF54:
 4669 0590 705F6D70 		.ascii	"p_mpool\000"
 4669      6F6F6C00 
 4670              	.LASF52:
 4671 0598 705F6D74 		.ascii	"p_mtxlist\000"
 4671      786C6973 
 4671      7400
 4672              	.LASF93:
 4673 05a2 534D4352 		.ascii	"SMCR\000"
 4673      00
 4674              	.LASF57:
 4675 05a7 63685F74 		.ascii	"ch_thread\000"
 4675      68726561 
 4675      6400
 4676              	.LASF178:
 4677 05b1 77733238 		.ascii	"ws2811_set_all\000"
 4677      31315F73 
 4677      65745F61 
 4677      6C6C00
 4678              	.LASF80:
 4679 05c0 73797374 		.ascii	"system_debug_t\000"
 4679      656D5F64 
 4679      65627567 
 4679      5F7400
 4680              	.LASF60:
 4681 05cf 63685F74 		.ascii	"ch_threads_queue\000"
 4681      68726561 
 4681      64735F71 
 4681      75657565 
 4681      00
 4682              	.LASF204:
 4683 05e0 7267625F 		.ascii	"rgb_to_local\000"
 4683      746F5F6C 
 4683      6F63616C 
 4683      00
 4684              	.LASF63:
 4685 05ed 725F7175 		.ascii	"r_queue\000"
 4685      65756500 
 4686              	.LASF32:
 4687 05f5 6576656E 		.ascii	"eventmask_t\000"
ARM GAS  /var/folders/sv/kgmgr77579zbf78p2zlhkdfr0000gn/T//ccRS1V9P.s 			page 88


 4687      746D6173 
 4687      6B5F7400 
 4688              	.LASF183:
 4689 0601 62726967 		.ascii	"brightness\000"
 4689      68746E65 
 4689      737300
 4690              	.LASF31:
 4691 060c 6D73675F 		.ascii	"msg_t\000"
 4691      7400
 4692              	.LASF134:
 4693 0612 444D415F 		.ascii	"DMA_PeripheralInc\000"
 4693      50657269 
 4693      70686572 
 4693      616C496E 
 4693      6300
 4694              	.LASF109:
 4695 0624 636F6E74 		.ascii	"context\000"
 4695      65787400 
 4696              	.LASF170:
 4697 062c 696F706F 		.ascii	"ioportmask_t\000"
 4697      72746D61 
 4697      736B5F74 
 4697      00
 4698              	.LASF44:
 4699 0639 705F666C 		.ascii	"p_flags\000"
 4699      61677300 
 4700              	.LASF70:
 4701 0641 76697274 		.ascii	"virtual_timer_t\000"
 4701      75616C5F 
 4701      74696D65 
 4701      725F7400 
 4702              	.LASF158:
 4703 0651 54494D5F 		.ascii	"TIM_OCNIdleState\000"
 4703      4F434E49 
 4703      646C6553 
 4703      74617465 
 4703      00
 4704              	.LASF180:
 4705 0662 62697462 		.ascii	"bitbuffer\000"
 4705      75666665 
 4705      7200
 4706              	.LASF92:
 4707 066c 444D415F 		.ascii	"DMA_Stream_TypeDef\000"
 4707      53747265 
 4707      616D5F54 
 4707      79706544 
 4707      656600
 4708              	.LASF19:
 4709 067f 6C6F6E67 		.ascii	"long double\000"
 4709      20646F75 
 4709      626C6500 
 4710              	.LASF131:
 4711 068b 444D415F 		.ascii	"DMA_Memory0BaseAddr\000"
 4711      4D656D6F 
 4711      72793042 
 4711      61736541 
 4711      64647200 
ARM GAS  /var/folders/sv/kgmgr77579zbf78p2zlhkdfr0000gn/T//ccRS1V9P.s 			page 89


 4712              	.LASF29:
 4713 069f 74736C69 		.ascii	"tslices_t\000"
 4713      6365735F 
 4713      7400
 4714              	.LASF67:
 4715 06a9 725F6F6C 		.ascii	"r_older\000"
 4715      64657200 
 4716              	.LASF140:
 4717 06b1 444D415F 		.ascii	"DMA_FIFOMode\000"
 4717      4649464F 
 4717      4D6F6465 
 4717      00
 4718              	.LASF139:
 4719 06be 444D415F 		.ascii	"DMA_Priority\000"
 4719      5072696F 
 4719      72697479 
 4719      00
 4720              	.LASF50:
 4721 06cb 705F6D73 		.ascii	"p_msg\000"
 4721      6700
 4722              	.LASF26:
 4723 06d1 746D6F64 		.ascii	"tmode_t\000"
 4723      655F7400 
 4724              	.LASF87:
 4725 06d9 6D61696E 		.ascii	"mainthread\000"
 4725      74687265 
 4725      616400
 4726              	.LASF136:
 4727 06e4 444D415F 		.ascii	"DMA_PeripheralDataSize\000"
 4727      50657269 
 4727      70686572 
 4727      616C4461 
 4727      74615369 
 4728              	.LASF163:
 4729 06fb 4F535045 		.ascii	"OSPEEDR\000"
 4729      45445200 
 4730              	.LASF177:
 4731 0703 77733238 		.ascii	"ws2811_all_off\000"
 4731      31315F61 
 4731      6C6C5F6F 
 4731      666600
 4732              	.LASF21:
 4733 0712 75696E74 		.ascii	"uint16_t\000"
 4733      31365F74 
 4733      00
 4734              	.LASF142:
 4735 071b 444D415F 		.ascii	"DMA_MemoryBurst\000"
 4735      4D656D6F 
 4735      72794275 
 4735      72737400 
 4736              	.LASF137:
 4737 072b 444D415F 		.ascii	"DMA_MemoryDataSize\000"
 4737      4D656D6F 
 4737      72794461 
 4737      74615369 
 4737      7A6500
 4738              	.LASF203:
ARM GAS  /var/folders/sv/kgmgr77579zbf78p2zlhkdfr0000gn/T//ccRS1V9P.s 			page 90


 4739 073e 77733238 		.ascii	"ws2811_get_led_color\000"
 4739      31315F67 
 4739      65745F6C 
 4739      65645F63 
 4739      6F6C6F72 
 4740              	.LASF25:
 4741 0753 7274636E 		.ascii	"rtcnt_t\000"
 4741      745F7400 
 4742              	.LASF151:
 4743 075b 54494D5F 		.ascii	"TIM_OCMode\000"
 4743      4F434D6F 
 4743      646500
 4744              	.LASF175:
 4745 0766 746D705F 		.ascii	"tmp_color\000"
 4745      636F6C6F 
 4745      7200
 4746              	.LASF53:
 4747 0770 705F7265 		.ascii	"p_realprio\000"
 4747      616C7072 
 4747      696F00
 4748              	.LASF7:
 4749 077b 73686F72 		.ascii	"short int\000"
 4749      7420696E 
 4749      7400
 4750              	.LASF68:
 4751 0785 725F6375 		.ascii	"r_current\000"
 4751      7272656E 
 4751      7400
 4752              	.LASF144:
 4753 078f 444D415F 		.ascii	"DMA_InitTypeDef\000"
 4753      496E6974 
 4753      54797065 
 4753      44656600 
 4754              	.LASF51:
 4755 079f 705F6570 		.ascii	"p_epending\000"
 4755      656E6469 
 4755      6E6700
 4756              	.LASF124:
 4757 07aa 6D5F7175 		.ascii	"m_queue\000"
 4757      65756500 
 4758              	.LASF152:
 4759 07b2 54494D5F 		.ascii	"TIM_OutputState\000"
 4759      4F757470 
 4759      75745374 
 4759      61746500 
 4760              	.LASF110:
 4761 07c2 706F7274 		.ascii	"port_intctx\000"
 4761      5F696E74 
 4761      63747800 
 4762              	.LASF184:
 4763 07ce 49544D5F 		.ascii	"ITM_RxBuffer\000"
 4763      52784275 
 4763      66666572 
 4763      00
 4764              	.LASF84:
 4765 07db 63685F73 		.ascii	"ch_system\000"
 4765      79737465 
ARM GAS  /var/folders/sv/kgmgr77579zbf78p2zlhkdfr0000gn/T//ccRS1V9P.s 			page 91


 4765      6D00
 4766              	.LASF154:
 4767 07e5 54494D5F 		.ascii	"TIM_Pulse\000"
 4767      50756C73 
 4767      6500
 4768              	.LASF162:
 4769 07ef 4F545950 		.ascii	"OTYPER\000"
 4769      455200
 4770              	.LASF36:
 4771 07f6 705F6E65 		.ascii	"p_next\000"
 4771      787400
 4772              	.LASF24:
 4773 07fd 75696E74 		.ascii	"uint64_t\000"
 4773      36345F74 
 4773      00
 4774              	.LASF39:
 4775 0806 705F6374 		.ascii	"p_ctx\000"
 4775      7800
 4776              	.LASF85:
 4777 080c 726C6973 		.ascii	"rlist\000"
 4777      7400
 4778              	.LASF198:
 4779 0812 54494D5F 		.ascii	"TIM_CtrlPWMOutputs\000"
 4779      4374726C 
 4779      50574D4F 
 4779      75747075 
 4779      747300
 4780              	.LASF5:
 4781 0825 5F5F7569 		.ascii	"__uint8_t\000"
 4781      6E74385F 
 4781      7400
 4782              	.LASF91:
 4783 082f 4D314152 		.ascii	"M1AR\000"
 4783      00
 4784              	.LASF153:
 4785 0834 54494D5F 		.ascii	"TIM_OutputNState\000"
 4785      4F757470 
 4785      75744E53 
 4785      74617465 
 4785      00
 4786              	.LASF133:
 4787 0845 444D415F 		.ascii	"DMA_BufferSize\000"
 4787      42756666 
 4787      65725369 
 4787      7A6500
 4788              	.LASF197:
 4789 0854 54494D5F 		.ascii	"TIM_DMACmd\000"
 4789      444D4143 
 4789      6D6400
 4790              	.LASF37:
 4791 085f 705F7072 		.ascii	"p_prev\000"
 4791      657600
 4792              	.LASF106:
 4793 0866 454E4142 		.ascii	"ENABLE\000"
 4793      4C4500
 4794              	.LASF16:
 4795 086d 73697A65 		.ascii	"sizetype\000"
ARM GAS  /var/folders/sv/kgmgr77579zbf78p2zlhkdfr0000gn/T//ccRS1V9P.s 			page 92


 4795      74797065 
 4795      00
 4796              	.LASF28:
 4797 0876 74726566 		.ascii	"trefs_t\000"
 4797      735F7400 
 4798              	.LASF13:
 4799 087e 6C6F6E67 		.ascii	"long unsigned int\000"
 4799      20756E73 
 4799      69676E65 
 4799      6420696E 
 4799      7400
 4800              	.LASF61:
 4801 0890 72656164 		.ascii	"ready_list_t\000"
 4801      795F6C69 
 4801      73745F74 
 4801      00
 4802              	.LASF22:
 4803 089d 696E7433 		.ascii	"int32_t\000"
 4803      325F7400 
 4804              	.LASF88:
 4805 08a5 69646C65 		.ascii	"idle_thread_wa\000"
 4805      5F746872 
 4805      6561645F 
 4805      776100
 4806              	.LASF117:
 4807 08b4 77747365 		.ascii	"wtsemp\000"
 4807      6D7000
 4808              	.LASF172:
 4809 08bb 54494D5F 		.ascii	"TIM_TimeBaseStructure\000"
 4809      54696D65 
 4809      42617365 
 4809      53747275 
 4809      63747572 
 4810              	.LASF129:
 4811 08d1 444D415F 		.ascii	"DMA_Channel\000"
 4811      4368616E 
 4811      6E656C00 
 4812              	.LASF127:
 4813 08dd 6D757465 		.ascii	"mutex_t\000"
 4813      785F7400 
 4814              	.LASF6:
 4815 08e5 756E7369 		.ascii	"unsigned char\000"
 4815      676E6564 
 4815      20636861 
 4815      7200
 4816              	.LASF12:
 4817 08f3 5F5F7569 		.ascii	"__uint32_t\000"
 4817      6E743332 
 4817      5F7400
 4818              	.LASF77:
 4819 08fe 76697274 		.ascii	"virtual_timers_list_t\000"
 4819      75616C5F 
 4819      74696D65 
 4819      72735F6C 
 4819      6973745F 
 4820              	.LASF45:
 4821 0914 705F7265 		.ascii	"p_refs\000"
ARM GAS  /var/folders/sv/kgmgr77579zbf78p2zlhkdfr0000gn/T//ccRS1V9P.s 			page 93


 4821      667300
 4822              	.LASF82:
 4823 091b 70616E69 		.ascii	"panic_msg\000"
 4823      635F6D73 
 4823      6700
 4824              	.LASF189:
 4825 0925 444D415F 		.ascii	"DMA_DeInit\000"
 4825      4465496E 
 4825      697400
 4826              	.LASF46:
 4827 0930 705F7072 		.ascii	"p_preempt\000"
 4827      65656D70 
 4827      7400
 4828              	.LASF119:
 4829 093a 65776D61 		.ascii	"ewmask\000"
 4829      736B00
 4830              	.LASF72:
 4831 0941 76745F6E 		.ascii	"vt_next\000"
 4831      65787400 
 4832              	.LASF187:
 4833 0949 5F70616C 		.ascii	"_pal_lld_setgroupmode\000"
 4833      5F6C6C64 
 4833      5F736574 
 4833      67726F75 
 4833      706D6F64 
 4834              	.LASF83:
 4835 095f 63685F73 		.ascii	"ch_system_t\000"
 4835      79737465 
 4835      6D5F7400 
 4836              	.LASF116:
 4837 096b 77747472 		.ascii	"wttrp\000"
 4837      7000
 4838              	.LASF150:
 4839 0971 54494D5F 		.ascii	"TIM_TimeBaseInitTypeDef\000"
 4839      54696D65 
 4839      42617365 
 4839      496E6974 
 4839      54797065 
 4840              	.LASF126:
 4841 0989 6D5F6E65 		.ascii	"m_next\000"
 4841      787400
 4842              	.LASF3:
 4843 0990 7369676E 		.ascii	"signed char\000"
 4843      65642063 
 4843      68617200 
 4844              	.LASF9:
 4845 099c 73686F72 		.ascii	"short unsigned int\000"
 4845      7420756E 
 4845      7369676E 
 4845      65642069 
 4845      6E7400
 4846              	.LASF65:
 4847 09af 725F6374 		.ascii	"r_ctx\000"
 4847      7800
 4848              	.LASF108:
 4849 09b5 73746B61 		.ascii	"stkalign_t\000"
 4849      6C69676E 
ARM GAS  /var/folders/sv/kgmgr77579zbf78p2zlhkdfr0000gn/T//ccRS1V9P.s 			page 94


 4849      5F7400
 4850              	.LASF141:
 4851 09c0 444D415F 		.ascii	"DMA_FIFOThreshold\000"
 4851      4649464F 
 4851      54687265 
 4851      73686F6C 
 4851      6400
 4852              	.LASF176:
 4853 09d2 77733238 		.ascii	"ws2811_init\000"
 4853      31315F69 
 4853      6E697400 
 4854              	.LASF75:
 4855 09de 76745F66 		.ascii	"vt_func\000"
 4855      756E6300 
 4856              	.LASF18:
 4857 09e6 646F7562 		.ascii	"double\000"
 4857      6C6500
 4858              	.LASF73:
 4859 09ed 76745F70 		.ascii	"vt_prev\000"
 4859      72657600 
 4860              	.LASF201:
 4861 09f5 2F557365 		.ascii	"/Users/moslin/Documents/Project/torque_control\000"
 4861      72732F6D 
 4861      6F736C69 
 4861      6E2F446F 
 4861      63756D65 
 4862              	.LASF118:
 4863 0a24 77746D74 		.ascii	"wtmtxp\000"
 4863      787000
 4864              	.LASF114:
 4865 0a2b 65786974 		.ascii	"exitcode\000"
 4865      636F6465 
 4865      00
 4866              	.LASF166:
 4867 0a34 4C434B52 		.ascii	"LCKR\000"
 4867      00
 4868              	.LASF182:
 4869 0a39 67616D6D 		.ascii	"gamma_table\000"
 4869      615F7461 
 4869      626C6500 
 4870              		.ident	"GCC: (GNU Tools for ARM Embedded Processors) 5.4.1 20160919 (release) [ARM/embedded-5-bran
ARM GAS  /var/folders/sv/kgmgr77579zbf78p2zlhkdfr0000gn/T//ccRS1V9P.s 			page 95


DEFINED SYMBOLS
                            *ABS*:0000000000000000 ws2811.c
/var/folders/sv/kgmgr77579zbf78p2zlhkdfr0000gn/T//ccRS1V9P.s:22     .text.rgb_to_local:0000000000000000 $t
/var/folders/sv/kgmgr77579zbf78p2zlhkdfr0000gn/T//ccRS1V9P.s:27     .text.rgb_to_local:0000000000000000 rgb_to_local
/var/folders/sv/kgmgr77579zbf78p2zlhkdfr0000gn/T//ccRS1V9P.s:100    .text.rgb_to_local:0000000000000044 $d
/var/folders/sv/kgmgr77579zbf78p2zlhkdfr0000gn/T//ccRS1V9P.s:107    .text.ws2811_set_led_color.part.0:0000000000000000 $t
/var/folders/sv/kgmgr77579zbf78p2zlhkdfr0000gn/T//ccRS1V9P.s:112    .text.ws2811_set_led_color.part.0:0000000000000000 ws2811_set_led_color.part.0
/var/folders/sv/kgmgr77579zbf78p2zlhkdfr0000gn/T//ccRS1V9P.s:172    .text.ws2811_set_led_color.part.0:000000000000003c $d
/var/folders/sv/kgmgr77579zbf78p2zlhkdfr0000gn/T//ccRS1V9P.s:178    .text.ws2811_init:0000000000000000 $t
/var/folders/sv/kgmgr77579zbf78p2zlhkdfr0000gn/T//ccRS1V9P.s:184    .text.ws2811_init:0000000000000000 ws2811_init
/var/folders/sv/kgmgr77579zbf78p2zlhkdfr0000gn/T//ccRS1V9P.s:459    .text.ws2811_init:0000000000000170 $d
/var/folders/sv/kgmgr77579zbf78p2zlhkdfr0000gn/T//ccRS1V9P.s:475    .text.ws2811_set_led_color:0000000000000000 $t
/var/folders/sv/kgmgr77579zbf78p2zlhkdfr0000gn/T//ccRS1V9P.s:481    .text.ws2811_set_led_color:0000000000000000 ws2811_set_led_color
/var/folders/sv/kgmgr77579zbf78p2zlhkdfr0000gn/T//ccRS1V9P.s:500    .text.ws2811_get_led_color:0000000000000000 $t
/var/folders/sv/kgmgr77579zbf78p2zlhkdfr0000gn/T//ccRS1V9P.s:506    .text.ws2811_get_led_color:0000000000000000 ws2811_get_led_color
/var/folders/sv/kgmgr77579zbf78p2zlhkdfr0000gn/T//ccRS1V9P.s:528    .text.ws2811_get_led_color:0000000000000010 $d
/var/folders/sv/kgmgr77579zbf78p2zlhkdfr0000gn/T//ccRS1V9P.s:533    .text.ws2811_all_off:0000000000000000 $t
/var/folders/sv/kgmgr77579zbf78p2zlhkdfr0000gn/T//ccRS1V9P.s:539    .text.ws2811_all_off:0000000000000000 ws2811_all_off
/var/folders/sv/kgmgr77579zbf78p2zlhkdfr0000gn/T//ccRS1V9P.s:573    .text.ws2811_all_off:0000000000000024 $d
/var/folders/sv/kgmgr77579zbf78p2zlhkdfr0000gn/T//ccRS1V9P.s:579    .text.ws2811_set_all:0000000000000000 $t
/var/folders/sv/kgmgr77579zbf78p2zlhkdfr0000gn/T//ccRS1V9P.s:585    .text.ws2811_set_all:0000000000000000 ws2811_set_all
/var/folders/sv/kgmgr77579zbf78p2zlhkdfr0000gn/T//ccRS1V9P.s:650    .text.ws2811_set_all:0000000000000040 $d
/var/folders/sv/kgmgr77579zbf78p2zlhkdfr0000gn/T//ccRS1V9P.s:656    .text.ws2811_set_brightness:0000000000000000 $t
/var/folders/sv/kgmgr77579zbf78p2zlhkdfr0000gn/T//ccRS1V9P.s:662    .text.ws2811_set_brightness:0000000000000000 ws2811_set_brightness
/var/folders/sv/kgmgr77579zbf78p2zlhkdfr0000gn/T//ccRS1V9P.s:708    .text.ws2811_set_brightness:000000000000001c $d
/var/folders/sv/kgmgr77579zbf78p2zlhkdfr0000gn/T//ccRS1V9P.s:714    .text.ws2811_get_brightness:0000000000000000 $t
/var/folders/sv/kgmgr77579zbf78p2zlhkdfr0000gn/T//ccRS1V9P.s:720    .text.ws2811_get_brightness:0000000000000000 ws2811_get_brightness
/var/folders/sv/kgmgr77579zbf78p2zlhkdfr0000gn/T//ccRS1V9P.s:735    .text.ws2811_get_brightness:0000000000000008 $d
/var/folders/sv/kgmgr77579zbf78p2zlhkdfr0000gn/T//ccRS1V9P.s:740    .bss.brightness:0000000000000000 $d
/var/folders/sv/kgmgr77579zbf78p2zlhkdfr0000gn/T//ccRS1V9P.s:744    .bss.brightness:0000000000000000 brightness
/var/folders/sv/kgmgr77579zbf78p2zlhkdfr0000gn/T//ccRS1V9P.s:747    .bss.bitbuffer:0000000000000000 $d
/var/folders/sv/kgmgr77579zbf78p2zlhkdfr0000gn/T//ccRS1V9P.s:751    .bss.bitbuffer:0000000000000000 bitbuffer
/var/folders/sv/kgmgr77579zbf78p2zlhkdfr0000gn/T//ccRS1V9P.s:754    .bss.RGBdata:0000000000000000 $d
/var/folders/sv/kgmgr77579zbf78p2zlhkdfr0000gn/T//ccRS1V9P.s:758    .bss.RGBdata:0000000000000000 RGBdata
/var/folders/sv/kgmgr77579zbf78p2zlhkdfr0000gn/T//ccRS1V9P.s:761    .bss.gamma_table:0000000000000000 $d
/var/folders/sv/kgmgr77579zbf78p2zlhkdfr0000gn/T//ccRS1V9P.s:765    .bss.gamma_table:0000000000000000 gamma_table
                     .debug_frame:0000000000000010 $d

UNDEFINED SYMBOLS
powf
roundf
_pal_lld_setgroupmode
RCC_AHB1PeriphClockCmd
DMA_DeInit
DMA_Init
RCC_APB1PeriphClockCmd
TIM_TimeBaseInit
TIM_OC2Init
TIM_OC2PreloadConfig
TIM_Cmd
DMA_Cmd
TIM_DMACmd
TIM_CtrlPWMOutputs
