ARM GAS  /var/folders/sv/kgmgr77579zbf78p2zlhkdfr0000gn/T//ccRS1V9P.s 			page 1


   1              		.syntax unified
   2              		.cpu cortex-m4
   3              		.eabi_attribute 27, 1
   4              		.eabi_attribute 28, 1
   5              		.fpu fpv4-sp-d16
   6              		.eabi_attribute 20, 1
   7              		.eabi_attribute 21, 1
   8              		.eabi_attribute 23, 3
   9              		.eabi_attribute 24, 1
  10              		.eabi_attribute 25, 1
  11              		.eabi_attribute 26, 1
  12              		.eabi_attribute 30, 2
  13              		.eabi_attribute 34, 1
  14              		.eabi_attribute 18, 4
  15              		.thumb
  16              		.syntax unified
  17              		.file	"ws2811.c"
  18              		.text
  19              	.Ltext0:
  20              		.cfi_sections	.debug_frame
  21              		.section	.text.rgb_to_local,"ax",%progbits
  22              		.align	2
  23              		.p2align 4,,15
  24              		.thumb
  25              		.thumb_func
  26              		.type	rgb_to_local, %function
  27              	rgb_to_local:
  28              	.LFB263:
  29              		.file 1 "ws2811.c"
  30              		.loc 1 239 0
  31              		.cfi_startproc
  32              		@ args = 0, pretend = 0, frame = 0
  33              		@ frame_needed = 0, uses_anonymous_args = 0
  34              	.LVL0:
  35              		.loc 1 244 0
  36 0000 104B     		ldr	r3, .L3
  37 0002 1B68     		ldr	r3, [r3]
  38              		.loc 1 239 0
  39 0004 30B5     		push	{r4, r5, lr}
  40              		.cfi_def_cfa_offset 12
  41              		.cfi_offset 4, -12
  42              		.cfi_offset 5, -8
  43              		.cfi_offset 14, -4
  44              		.loc 1 244 0
  45 0006 C0F30741 		ubfx	r1, r0, #16, #8
  46              		.loc 1 248 0
  47 000a 0F4D     		ldr	r5, .L3+4
  48 000c 0F4C     		ldr	r4, .L3+8
  49              	.LVL1:
  50              		.loc 1 244 0
  51 000e 03FB01F1 		mul	r1, r3, r1
  52              	.LVL2:
  53              		.loc 1 245 0
  54 0012 C0F30722 		ubfx	r2, r0, #8, #8
  55              		.loc 1 248 0
  56 0016 A5FB01E1 		umull	lr, r1, r5, r1
  57              	.LVL3:
ARM GAS  /var/folders/sv/kgmgr77579zbf78p2zlhkdfr0000gn/T//ccRS1V9P.s 			page 2


  58              		.loc 1 246 0
  59 001a C0B2     		uxtb	r0, r0
  60              	.LVL4:
  61              		.loc 1 245 0
  62 001c 03FB02F2 		mul	r2, r3, r2
  63              	.LVL5:
  64              		.loc 1 248 0
  65 0020 4909     		lsrs	r1, r1, #5
  66              		.loc 1 249 0
  67 0022 A5FB02E2 		umull	lr, r2, r5, r2
  68              	.LVL6:
  69              		.loc 1 246 0
  70 0026 03FB00F3 		mul	r3, r3, r0
  71              	.LVL7:
  72              		.loc 1 250 0
  73 002a A5FB0303 		umull	r0, r3, r5, r3
  74              	.LVL8:
  75              		.loc 1 249 0
  76 002e 5209     		lsrs	r2, r2, #5
  77              		.loc 1 248 0
  78 0030 605C     		ldrb	r0, [r4, r1]	@ zero_extendqisi2
  79              	.LVL9:
  80              		.loc 1 249 0
  81 0032 A15C     		ldrb	r1, [r4, r2]	@ zero_extendqisi2
  82              	.LVL10:
  83              		.loc 1 250 0
  84 0034 5B09     		lsrs	r3, r3, #5
  85              		.loc 1 252 0
  86 0036 0202     		lsls	r2, r0, #8
  87              		.loc 1 250 0
  88 0038 E05C     		ldrb	r0, [r4, r3]	@ zero_extendqisi2
  89              	.LVL11:
  90              		.loc 1 252 0
  91 003a 42EA0143 		orr	r3, r2, r1, lsl #16
  92              		.loc 1 253 0
  93 003e 1843     		orrs	r0, r0, r3
  94              	.LVL12:
  95 0040 30BD     		pop	{r4, r5, pc}
  96              	.LVL13:
  97              	.L4:
  98 0042 00BF     		.align	2
  99              	.L3:
 100 0044 00000000 		.word	.LANCHOR0
 101 0048 1F85EB51 		.word	1374389535
 102 004c 00000000 		.word	.LANCHOR1
 103              		.cfi_endproc
 104              	.LFE263:
 105              		.size	rgb_to_local, .-rgb_to_local
 106              		.section	.text.ws2811_set_led_color.part.0,"ax",%progbits
 107              		.align	2
 108              		.p2align 4,,15
 109              		.thumb
 110              		.thumb_func
 111              		.type	ws2811_set_led_color.part.0, %function
 112              	ws2811_set_led_color.part.0:
 113              	.LFB264:
 114              		.loc 1 170 0
ARM GAS  /var/folders/sv/kgmgr77579zbf78p2zlhkdfr0000gn/T//ccRS1V9P.s 			page 3


 115              		.cfi_startproc
 116              		@ args = 0, pretend = 0, frame = 0
 117              		@ frame_needed = 0, uses_anonymous_args = 0
 118              	.LVL14:
 119 0000 10B5     		push	{r4, lr}
 120              		.cfi_def_cfa_offset 8
 121              		.cfi_offset 4, -8
 122              		.cfi_offset 14, -4
 123              	.LBB9:
 124              		.loc 1 172 0
 125 0002 0E4B     		ldr	r3, .L12
 126              	.LBE9:
 127              		.loc 1 170 0
 128 0004 0446     		mov	r4, r0
 129              	.LBB10:
 130              		.loc 1 174 0
 131 0006 0846     		mov	r0, r1
 132              	.LVL15:
 133              		.loc 1 172 0
 134 0008 43F82410 		str	r1, [r3, r4, lsl #2]
 135 000c 04EB4404 		add	r4, r4, r4, lsl #1
 136              	.LVL16:
 137              		.loc 1 174 0
 138 0010 FFF7FEFF 		bl	rgb_to_local
 139              	.LVL17:
 140 0014 2401     		lsls	r4, r4, #4
 141 0016 0A4B     		ldr	r3, .L12+4
 142 0018 04F13002 		add	r2, r4, #48
 143 001c 1A44     		add	r2, r2, r3
 144              		.loc 1 179 0
 145 001e 5321     		movs	r1, #83
 146 0020 2344     		add	r3, r3, r4
 147              		.loc 1 181 0
 148 0022 1424     		movs	r4, #20
 149              	.LVL18:
 150              	.L8:
 151              		.loc 1 178 0
 152 0024 10F4000F 		tst	r0, #8388608
 153              		.loc 1 179 0
 154 0028 14BF     		ite	ne
 155 002a 1980     		strhne	r1, [r3]	@ movhi
 156              		.loc 1 181 0
 157 002c 1C80     		strheq	r4, [r3]	@ movhi
 158 002e 0233     		adds	r3, r3, #2
 159              		.loc 1 177 0
 160 0030 9342     		cmp	r3, r2
 161              		.loc 1 183 0
 162 0032 4FEA4000 		lsl	r0, r0, #1
 163              	.LVL19:
 164              		.loc 1 177 0
 165 0036 F5D1     		bne	.L8
 166              	.LBE10:
 167              		.loc 1 186 0
 168 0038 10BD     		pop	{r4, pc}
 169              	.L13:
 170 003a 00BF     		.align	2
 171              	.L12:
ARM GAS  /var/folders/sv/kgmgr77579zbf78p2zlhkdfr0000gn/T//ccRS1V9P.s 			page 4


 172 003c 00000000 		.word	.LANCHOR2
 173 0040 00000000 		.word	.LANCHOR3
 174              		.cfi_endproc
 175              	.LFE264:
 176              		.size	ws2811_set_led_color.part.0, .-ws2811_set_led_color.part.0
 177              		.section	.text.ws2811_init,"ax",%progbits
 178              		.align	2
 179              		.p2align 4,,15
 180              		.global	ws2811_init
 181              		.thumb
 182              		.thumb_func
 183              		.type	ws2811_init, %function
 184              	ws2811_init:
 185              	.LFB256:
 186              		.loc 1 43 0
 187              		.cfi_startproc
 188              		@ args = 0, pretend = 0, frame = 96
 189              		@ frame_needed = 0, uses_anonymous_args = 0
 190 0000 2DE9F041 		push	{r4, r5, r6, r7, r8, lr}
 191              		.cfi_def_cfa_offset 24
 192              		.cfi_offset 4, -24
 193              		.cfi_offset 5, -20
 194              		.cfi_offset 6, -16
 195              		.cfi_offset 7, -12
 196              		.cfi_offset 8, -8
 197              		.cfi_offset 14, -4
 198 0004 2DED028B 		vpush.64	{d8}
 199              		.cfi_def_cfa_offset 32
 200              		.cfi_offset 80, -32
 201              		.cfi_offset 81, -28
 202              		.loc 1 48 0
 203 0008 594B     		ldr	r3, .L28
 204 000a 5A4F     		ldr	r7, .L28+4
 205 000c 6422     		movs	r2, #100
 206 000e 1A60     		str	r2, [r3]
 207              	.LVL20:
 208              		.loc 1 43 0
 209 0010 98B0     		sub	sp, sp, #96
 210              		.cfi_def_cfa_offset 128
 211 0012 07F17401 		add	r1, r7, #116
 212              		.loc 1 48 0
 213 0016 3B46     		mov	r3, r7
 214              		.loc 1 54 0
 215 0018 0022     		movs	r2, #0
 216              	.LVL21:
 217              	.L15:
 218              		.loc 1 54 0 is_stmt 0 discriminator 3
 219 001a 43F8042F 		str	r2, [r3, #4]!
 220              		.loc 1 53 0 is_stmt 1 discriminator 3
 221 001e 9942     		cmp	r1, r3
 222 0020 FBD1     		bne	.L15
 223 0022 554C     		ldr	r4, .L28+8
 224              	.LBB11:
 225              		.loc 1 64 0
 226 0024 1426     		movs	r6, #20
 227 0026 04F5AE68 		add	r8, r4, #1392
 228              		.loc 1 62 0
ARM GAS  /var/folders/sv/kgmgr77579zbf78p2zlhkdfr0000gn/T//ccRS1V9P.s 			page 5


 229 002a 5325     		movs	r5, #83
 230              	.L19:
 231              		.loc 1 58 0
 232 002c 57F8040F 		ldr	r0, [r7, #4]!
 233 0030 FFF7FEFF 		bl	rgb_to_local
 234              	.LVL22:
 235 0034 A4F13003 		sub	r3, r4, #48
 236              	.LVL23:
 237              	.L18:
 238              		.loc 1 61 0
 239 0038 0202     		lsls	r2, r0, #8
 240              		.loc 1 62 0
 241 003a 4CBF     		ite	mi
 242 003c 1D80     		strhmi	r5, [r3]	@ movhi
 243              		.loc 1 64 0
 244 003e 1E80     		strhpl	r6, [r3]	@ movhi
 245 0040 0233     		adds	r3, r3, #2
 246              		.loc 1 60 0
 247 0042 9C42     		cmp	r4, r3
 248              		.loc 1 66 0
 249 0044 4FEA4000 		lsl	r0, r0, #1
 250              	.LVL24:
 251              		.loc 1 60 0
 252 0048 F6D1     		bne	.L18
 253 004a 3034     		adds	r4, r4, #48
 254              	.LBE11:
 255              		.loc 1 57 0 discriminator 2
 256 004c 4445     		cmp	r4, r8
 257 004e EDD1     		bne	.L19
 258 0050 4A4B     		ldr	r3, .L28+12
 259              		.loc 1 73 0
 260 0052 0021     		movs	r1, #0
 261 0054 03F16402 		add	r2, r3, #100
 262              	.L20:
 263              		.loc 1 73 0 is_stmt 0 discriminator 3
 264 0058 23F8021F 		strh	r1, [r3, #2]!	@ movhi
 265              		.loc 1 72 0 is_stmt 1 discriminator 3
 266 005c 9342     		cmp	r3, r2
 267 005e FBD1     		bne	.L20
 268 0060 474D     		ldr	r5, .L28+16
 269              	.LBB12:
 270              		.loc 1 78 0
 271 0062 9FED488A 		vldr.32	s16, .L28+20
 272              	.LBE12:
 273              		.loc 1 72 0
 274 0066 0024     		movs	r4, #0
 275              	.LVL25:
 276              	.L21:
 277              	.LBB13:
 278              		.loc 1 78 0 discriminator 3
 279 0068 07EE904A 		vmov	s15, r4	@ int
 280 006c B8EEE70A 		vcvt.f32.s32	s0, s15
 281 0070 DFED450A 		vldr.32	s1, .L28+24
 282 0074 80EE080A 		vdiv.f32	s0, s0, s16
 283 0078 FFF7FEFF 		bl	powf
 284              	.LVL26:
 285              		.loc 1 77 0 discriminator 3
ARM GAS  /var/folders/sv/kgmgr77579zbf78p2zlhkdfr0000gn/T//ccRS1V9P.s 			page 6


 286 007c 0134     		adds	r4, r4, #1
 287              	.LVL27:
 288              		.loc 1 78 0 discriminator 3
 289 007e 20EE080A 		vmul.f32	s0, s0, s16
 290 0082 FFF7FEFF 		bl	roundf
 291              	.LVL28:
 292 0086 FDEEC07A 		vcvt.s32.f32	s15, s0
 293              		.loc 1 77 0 discriminator 3
 294 008a B4F5807F 		cmp	r4, #256
 295              		.loc 1 78 0 discriminator 3
 296 008e 17EE903A 		vmov	r3, s15	@ int
 297 0092 05F8013F 		strb	r3, [r5, #1]!
 298              		.loc 1 77 0 discriminator 3
 299 0096 E7D1     		bne	.L21
 300              	.LBE13:
 301              		.loc 1 82 0
 302 0098 4FF48772 		mov	r2, #270
 303 009c 8021     		movs	r1, #128
 304 009e 3B48     		ldr	r0, .L28+28
 305              		.loc 1 104 0
 306 00a0 3B4F     		ldr	r7, .L28+32
 307              		.loc 1 82 0
 308 00a2 FFF7FEFF 		bl	_pal_lld_setgroupmode
 309              	.LVL29:
 310              		.loc 1 94 0
 311 00a6 0121     		movs	r1, #1
 312 00a8 4FF40010 		mov	r0, #2097152
 313 00ac FFF7FEFF 		bl	RCC_AHB1PeriphClockCmd
 314              	.LVL30:
 315              		.loc 1 97 0
 316 00b0 3848     		ldr	r0, .L28+36
 317 00b2 FFF7FEFF 		bl	DMA_DeInit
 318              	.LVL31:
 319              		.loc 1 98 0
 320 00b6 3849     		ldr	r1, .L28+40
 321              		.loc 1 111 0
 322 00b8 1294     		str	r4, [sp, #72]
 323              		.loc 1 98 0
 324 00ba 0A91     		str	r1, [sp, #40]
 325              		.loc 1 103 0
 326 00bc 4FF08064 		mov	r4, #67108864
 327              	.LVL32:
 328              		.loc 1 105 0
 329 00c0 4022     		movs	r2, #64
 330              		.loc 1 106 0
 331 00c2 40F2EA23 		movw	r3, #746
 332              		.loc 1 109 0
 333 00c6 4FF40061 		mov	r1, #2048
 334              		.loc 1 107 0
 335 00ca 0025     		movs	r5, #0
 336              		.loc 1 108 0
 337 00cc 4FF48066 		mov	r6, #1024
 338              		.loc 1 103 0
 339 00d0 0994     		str	r4, [sp, #36]
 340              		.loc 1 105 0
 341 00d2 0C92     		str	r2, [sp, #48]
 342              		.loc 1 106 0
ARM GAS  /var/folders/sv/kgmgr77579zbf78p2zlhkdfr0000gn/T//ccRS1V9P.s 			page 7


 343 00d4 0D93     		str	r3, [sp, #52]
 344              		.loc 1 112 0
 345 00d6 4FF40032 		mov	r2, #131072
 346              		.loc 1 114 0
 347 00da 0323     		movs	r3, #3
 348              		.loc 1 109 0
 349 00dc 1091     		str	r1, [sp, #64]
 350              		.loc 1 119 0
 351 00de 2D48     		ldr	r0, .L28+36
 352              		.loc 1 112 0
 353 00e0 1392     		str	r2, [sp, #76]
 354              		.loc 1 119 0
 355 00e2 09A9     		add	r1, sp, #36
 356              		.loc 1 110 0
 357 00e4 4FF40054 		mov	r4, #8192
 358              		.loc 1 114 0
 359 00e8 1593     		str	r3, [sp, #84]
 360              		.loc 1 110 0
 361 00ea 1194     		str	r4, [sp, #68]
 362              		.loc 1 104 0
 363 00ec 0B97     		str	r7, [sp, #44]
 364              		.loc 1 107 0
 365 00ee 0E95     		str	r5, [sp, #56]
 366              		.loc 1 113 0
 367 00f0 1495     		str	r5, [sp, #80]
 368              		.loc 1 115 0
 369 00f2 1695     		str	r5, [sp, #88]
 370              		.loc 1 116 0
 371 00f4 1795     		str	r5, [sp, #92]
 372              		.loc 1 108 0
 373 00f6 0F96     		str	r6, [sp, #60]
 374              		.loc 1 119 0
 375 00f8 FFF7FEFF 		bl	DMA_Init
 376              	.LVL33:
 377              		.loc 1 124 0
 378 00fc 0121     		movs	r1, #1
 379 00fe 0420     		movs	r0, #4
 380 0100 FFF7FEFF 		bl	RCC_APB1PeriphClockCmd
 381              	.LVL34:
 382              		.loc 1 129 0
 383 0104 6823     		movs	r3, #104
 384              		.loc 1 133 0
 385 0106 01A9     		add	r1, sp, #4
 386 0108 2448     		ldr	r0, .L28+44
 387              		.loc 1 129 0
 388 010a 0293     		str	r3, [sp, #8]
 389              		.loc 1 137 0
 390 010c 0124     		movs	r4, #1
 391              		.loc 1 127 0
 392 010e ADF80450 		strh	r5, [sp, #4]	@ movhi
 393              		.loc 1 128 0
 394 0112 ADF80650 		strh	r5, [sp, #6]	@ movhi
 395              		.loc 1 130 0
 396 0116 ADF80C50 		strh	r5, [sp, #12]	@ movhi
 397              		.loc 1 131 0
 398 011a 8DF80E50 		strb	r5, [sp, #14]
 399              		.loc 1 133 0
ARM GAS  /var/folders/sv/kgmgr77579zbf78p2zlhkdfr0000gn/T//ccRS1V9P.s 			page 8


 400 011e FFF7FEFF 		bl	TIM_TimeBaseInit
 401              	.LVL35:
 402              		.loc 1 136 0
 403 0122 6023     		movs	r3, #96
 404              		.loc 1 138 0
 405 0124 3A88     		ldrh	r2, [r7]
 406              		.loc 1 142 0
 407 0126 1D48     		ldr	r0, .L28+44
 408              		.loc 1 136 0
 409 0128 ADF81030 		strh	r3, [sp, #16]	@ movhi
 410              		.loc 1 142 0
 411 012c 04A9     		add	r1, sp, #16
 412              		.loc 1 138 0
 413 012e 0692     		str	r2, [sp, #24]
 414              		.loc 1 139 0
 415 0130 ADF81C50 		strh	r5, [sp, #28]	@ movhi
 416              		.loc 1 137 0
 417 0134 ADF81240 		strh	r4, [sp, #18]	@ movhi
 418              		.loc 1 142 0
 419 0138 FFF7FEFF 		bl	TIM_OC2Init
 420              	.LVL36:
 421              		.loc 1 143 0
 422 013c 0821     		movs	r1, #8
 423 013e 1748     		ldr	r0, .L28+44
 424 0140 FFF7FEFF 		bl	TIM_OC2PreloadConfig
 425              	.LVL37:
 426              		.loc 1 150 0
 427 0144 2146     		mov	r1, r4
 428 0146 1548     		ldr	r0, .L28+44
 429 0148 FFF7FEFF 		bl	TIM_Cmd
 430              	.LVL38:
 431              		.loc 1 154 0
 432 014c 2146     		mov	r1, r4
 433 014e 1148     		ldr	r0, .L28+36
 434 0150 FFF7FEFF 		bl	DMA_Cmd
 435              	.LVL39:
 436              		.loc 1 161 0
 437 0154 2246     		mov	r2, r4
 438 0156 3146     		mov	r1, r6
 439 0158 1048     		ldr	r0, .L28+44
 440 015a FFF7FEFF 		bl	TIM_DMACmd
 441              	.LVL40:
 442              		.loc 1 167 0
 443 015e 2146     		mov	r1, r4
 444 0160 0E48     		ldr	r0, .L28+44
 445 0162 FFF7FEFF 		bl	TIM_CtrlPWMOutputs
 446              	.LVL41:
 447              		.loc 1 168 0
 448 0166 18B0     		add	sp, sp, #96
 449              		.cfi_def_cfa_offset 32
 450              		@ sp needed
 451 0168 BDEC028B 		vldm	sp!, {d8}
 452              		.cfi_restore 80
 453              		.cfi_restore 81
 454              		.cfi_def_cfa_offset 24
 455 016c BDE8F081 		pop	{r4, r5, r6, r7, r8, pc}
 456              	.L29:
ARM GAS  /var/folders/sv/kgmgr77579zbf78p2zlhkdfr0000gn/T//ccRS1V9P.s 			page 9


 457              		.align	2
 458              	.L28:
 459 0170 00000000 		.word	.LANCHOR0
 460 0174 FCFFFFFF 		.word	.LANCHOR2-4
 461 0178 30000000 		.word	.LANCHOR3+48
 462 017c 6C050000 		.word	.LANCHOR3+1388
 463 0180 FFFFFFFF 		.word	.LANCHOR1-1
 464 0184 00007F43 		.word	1132396544
 465 0188 E4380E40 		.word	1074673892
 466 018c 00040240 		.word	1073873920
 467 0190 00000000 		.word	.LANCHOR3
 468 0194 58600240 		.word	1073897560
 469 0198 38080040 		.word	1073743928
 470 019c 00080040 		.word	1073743872
 471              		.cfi_endproc
 472              	.LFE256:
 473              		.size	ws2811_init, .-ws2811_init
 474              		.section	.text.ws2811_set_led_color,"ax",%progbits
 475              		.align	2
 476              		.p2align 4,,15
 477              		.global	ws2811_set_led_color
 478              		.thumb
 479              		.thumb_func
 480              		.type	ws2811_set_led_color, %function
 481              	ws2811_set_led_color:
 482              	.LFB257:
 483              		.loc 1 170 0
 484              		.cfi_startproc
 485              		@ args = 0, pretend = 0, frame = 0
 486              		@ frame_needed = 0, uses_anonymous_args = 0
 487              		@ link register save eliminated.
 488              	.LVL42:
 489              		.loc 1 171 0
 490 0000 1B28     		cmp	r0, #27
 491 0002 01D8     		bhi	.L30
 492 0004 FFF7FEBF 		b	ws2811_set_led_color.part.0
 493              	.LVL43:
 494              	.L30:
 495 0008 7047     		bx	lr
 496              		.cfi_endproc
 497              	.LFE257:
 498              		.size	ws2811_set_led_color, .-ws2811_set_led_color
 499 000a 00BF     		.section	.text.ws2811_get_led_color,"ax",%progbits
 500              		.align	2
 501              		.p2align 4,,15
 502              		.global	ws2811_get_led_color
 503              		.thumb
 504              		.thumb_func
 505              		.type	ws2811_get_led_color, %function
 506              	ws2811_get_led_color:
 507              	.LFB258:
 508              		.loc 1 188 0
 509              		.cfi_startproc
 510              		@ args = 0, pretend = 0, frame = 0
 511              		@ frame_needed = 0, uses_anonymous_args = 0
 512              		@ link register save eliminated.
 513              	.LVL44:
ARM GAS  /var/folders/sv/kgmgr77579zbf78p2zlhkdfr0000gn/T//ccRS1V9P.s 			page 10


 514              		.loc 1 189 0
 515 0000 1B28     		cmp	r0, #27
 516              		.loc 1 190 0
 517 0002 9ABF     		itte	ls
 518 0004 024B     		ldrls	r3, .L35
 519 0006 53F82000 		ldrls	r0, [r3, r0, lsl #2]
 520              	.LVL45:
 521              		.loc 1 193 0
 522 000a 0020     		movhi	r0, #0
 523              		.loc 1 194 0
 524 000c 7047     		bx	lr
 525              	.L36:
 526 000e 00BF     		.align	2
 527              	.L35:
 528 0010 00000000 		.word	.LANCHOR2
 529              		.cfi_endproc
 530              	.LFE258:
 531              		.size	ws2811_get_led_color, .-ws2811_get_led_color
 532              		.section	.text.ws2811_all_off,"ax",%progbits
 533              		.align	2
 534              		.p2align 4,,15
 535              		.global	ws2811_all_off
 536              		.thumb
 537              		.thumb_func
 538              		.type	ws2811_all_off, %function
 539              	ws2811_all_off:
 540              	.LFB259:
 541              		.loc 1 196 0
 542              		.cfi_startproc
 543              		@ args = 0, pretend = 0, frame = 0
 544              		@ frame_needed = 0, uses_anonymous_args = 0
 545              		@ link register save eliminated.
 546              	.LVL46:
 547 0000 084B     		ldr	r3, .L42
 548              		.loc 1 200 0
 549 0002 0021     		movs	r1, #0
 550 0004 03F17002 		add	r2, r3, #112
 551              	.LVL47:
 552              	.L38:
 553              		.loc 1 200 0 is_stmt 0 discriminator 3
 554 0008 43F8041F 		str	r1, [r3, #4]!
 555              		.loc 1 199 0 is_stmt 1 discriminator 3
 556 000c 9342     		cmp	r3, r2
 557 000e FBD1     		bne	.L38
 558 0010 054B     		ldr	r3, .L42+4
 559              		.loc 1 204 0
 560 0012 1421     		movs	r1, #20
 561 0014 03F5A862 		add	r2, r3, #1344
 562              	.L39:
 563              		.loc 1 204 0 is_stmt 0 discriminator 3
 564 0018 23F8021F 		strh	r1, [r3, #2]!	@ movhi
 565              		.loc 1 203 0 is_stmt 1 discriminator 3
 566 001c 9342     		cmp	r3, r2
 567 001e FBD1     		bne	.L39
 568              		.loc 1 206 0
 569 0020 7047     		bx	lr
 570              	.L43:
ARM GAS  /var/folders/sv/kgmgr77579zbf78p2zlhkdfr0000gn/T//ccRS1V9P.s 			page 11


 571 0022 00BF     		.align	2
 572              	.L42:
 573 0024 FCFFFFFF 		.word	.LANCHOR2-4
 574 0028 FEFFFFFF 		.word	.LANCHOR3-2
 575              		.cfi_endproc
 576              	.LFE259:
 577              		.size	ws2811_all_off, .-ws2811_all_off
 578              		.section	.text.ws2811_set_all,"ax",%progbits
 579              		.align	2
 580              		.p2align 4,,15
 581              		.global	ws2811_set_all
 582              		.thumb
 583              		.thumb_func
 584              		.type	ws2811_set_all, %function
 585              	ws2811_set_all:
 586              	.LFB260:
 587              		.loc 1 208 0
 588              		.cfi_startproc
 589              		@ args = 0, pretend = 0, frame = 0
 590              		@ frame_needed = 0, uses_anonymous_args = 0
 591              	.LVL48:
 592 0000 2DE9F843 		push	{r3, r4, r5, r6, r7, r8, r9, lr}
 593              		.cfi_def_cfa_offset 32
 594              		.cfi_offset 3, -32
 595              		.cfi_offset 4, -28
 596              		.cfi_offset 5, -24
 597              		.cfi_offset 6, -20
 598              		.cfi_offset 7, -16
 599              		.cfi_offset 8, -12
 600              		.cfi_offset 9, -8
 601              		.cfi_offset 14, -4
 602 0004 0E4C     		ldr	r4, .L52
 603 0006 DFF83C80 		ldr	r8, .L52+4
 604              		.loc 1 208 0
 605 000a 0746     		mov	r7, r0
 606 000c 04F5A869 		add	r9, r4, #1344
 607              	.LBB14:
 608              		.loc 1 220 0
 609 0010 1426     		movs	r6, #20
 610              		.loc 1 218 0
 611 0012 5325     		movs	r5, #83
 612              	.LVL49:
 613              	.L48:
 614              		.loc 1 214 0
 615 0014 3846     		mov	r0, r7
 616              		.loc 1 212 0
 617 0016 48F8047F 		str	r7, [r8, #4]!
 618              		.loc 1 214 0
 619 001a FFF7FEFF 		bl	rgb_to_local
 620              	.LVL50:
 621 001e A4F13003 		sub	r3, r4, #48
 622              	.LVL51:
 623              	.L47:
 624              		.loc 1 217 0
 625 0022 0202     		lsls	r2, r0, #8
 626              		.loc 1 218 0
 627 0024 4CBF     		ite	mi
ARM GAS  /var/folders/sv/kgmgr77579zbf78p2zlhkdfr0000gn/T//ccRS1V9P.s 			page 12


 628 0026 1D80     		strhmi	r5, [r3]	@ movhi
 629              		.loc 1 220 0
 630 0028 1E80     		strhpl	r6, [r3]	@ movhi
 631 002a 0233     		adds	r3, r3, #2
 632              		.loc 1 216 0
 633 002c A342     		cmp	r3, r4
 634              		.loc 1 222 0
 635 002e 4FEA4000 		lsl	r0, r0, #1
 636              	.LVL52:
 637              		.loc 1 216 0
 638 0032 F6D1     		bne	.L47
 639 0034 03F13004 		add	r4, r3, #48
 640              	.LBE14:
 641              		.loc 1 211 0 discriminator 2
 642 0038 4C45     		cmp	r4, r9
 643 003a EBD1     		bne	.L48
 644              		.loc 1 225 0
 645 003c BDE8F883 		pop	{r3, r4, r5, r6, r7, r8, r9, pc}
 646              	.LVL53:
 647              	.L53:
 648              		.align	2
 649              	.L52:
 650 0040 30000000 		.word	.LANCHOR3+48
 651 0044 FCFFFFFF 		.word	.LANCHOR2-4
 652              		.cfi_endproc
 653              	.LFE260:
 654              		.size	ws2811_set_all, .-ws2811_set_all
 655              		.section	.text.ws2811_set_brightness,"ax",%progbits
 656              		.align	2
 657              		.p2align 4,,15
 658              		.global	ws2811_set_brightness
 659              		.thumb
 660              		.thumb_func
 661              		.type	ws2811_set_brightness, %function
 662              	ws2811_set_brightness:
 663              	.LFB261:
 664              		.loc 1 227 0
 665              		.cfi_startproc
 666              		@ args = 0, pretend = 0, frame = 0
 667              		@ frame_needed = 0, uses_anonymous_args = 0
 668              	.LVL54:
 669 0000 38B5     		push	{r3, r4, r5, lr}
 670              		.cfi_def_cfa_offset 16
 671              		.cfi_offset 3, -16
 672              		.cfi_offset 4, -12
 673              		.cfi_offset 5, -8
 674              		.cfi_offset 14, -4
 675              		.loc 1 228 0
 676 0002 064B     		ldr	r3, .L58
 677 0004 064D     		ldr	r5, .L58+4
 678 0006 1860     		str	r0, [r3]
 679              	.LVL55:
 680              	.LBB15:
 681              		.loc 1 230 0
 682 0008 0024     		movs	r4, #0
 683              	.LVL56:
 684              	.L55:
ARM GAS  /var/folders/sv/kgmgr77579zbf78p2zlhkdfr0000gn/T//ccRS1V9P.s 			page 13


 685              	.LBB16:
 686              	.LBB17:
 687 000a 2046     		mov	r0, r4
 688 000c 55F8041F 		ldr	r1, [r5, #4]!
 689              	.LBE17:
 690              	.LBE16:
 691 0010 0134     		adds	r4, r4, #1
 692              	.LVL57:
 693              	.LBB19:
 694              	.LBB18:
 695 0012 FFF7FEFF 		bl	ws2811_set_led_color.part.0
 696              	.LVL58:
 697              	.LBE18:
 698              	.LBE19:
 699 0016 1C2C     		cmp	r4, #28
 700 0018 F7D1     		bne	.L55
 701              	.LBE15:
 702              		.loc 1 233 0
 703 001a 38BD     		pop	{r3, r4, r5, pc}
 704              	.LVL59:
 705              	.L59:
 706              		.align	2
 707              	.L58:
 708 001c 00000000 		.word	.LANCHOR0
 709 0020 FCFFFFFF 		.word	.LANCHOR2-4
 710              		.cfi_endproc
 711              	.LFE261:
 712              		.size	ws2811_set_brightness, .-ws2811_set_brightness
 713              		.section	.text.ws2811_get_brightness,"ax",%progbits
 714              		.align	2
 715              		.p2align 4,,15
 716              		.global	ws2811_get_brightness
 717              		.thumb
 718              		.thumb_func
 719              		.type	ws2811_get_brightness, %function
 720              	ws2811_get_brightness:
 721              	.LFB262:
 722              		.loc 1 235 0
 723              		.cfi_startproc
 724              		@ args = 0, pretend = 0, frame = 0
 725              		@ frame_needed = 0, uses_anonymous_args = 0
 726              		@ link register save eliminated.
 727              		.loc 1 236 0
 728 0000 014B     		ldr	r3, .L61
 729              		.loc 1 237 0
 730 0002 1868     		ldr	r0, [r3]
 731 0004 7047     		bx	lr
 732              	.L62:
 733 0006 00BF     		.align	2
 734              	.L61:
 735 0008 00000000 		.word	.LANCHOR0
 736              		.cfi_endproc
 737              	.LFE262:
 738              		.size	ws2811_get_brightness, .-ws2811_get_brightness
 739              		.section	.bss.brightness,"aw",%nobits
 740              		.align	2
 741              		.set	.LANCHOR0,. + 0
ARM GAS  /var/folders/sv/kgmgr77579zbf78p2zlhkdfr0000gn/T//ccRS1V9P.s 			page 14


 742              		.type	brightness, %object
 743              		.size	brightness, 4
 744              	brightness:
 745 0000 00000000 		.space	4
 746              		.section	.bss.bitbuffer,"aw",%nobits
 747              		.align	2
 748              		.set	.LANCHOR3,. + 0
 749              		.type	bitbuffer, %object
 750              		.size	bitbuffer, 1492
 751              	bitbuffer:
 752 0000 00000000 		.space	1492
 752      00000000 
 752      00000000 
 752      00000000 
 752      00000000 
 753              		.section	.bss.RGBdata,"aw",%nobits
 754              		.align	2
 755              		.set	.LANCHOR2,. + 0
 756              		.type	RGBdata, %object
 757              		.size	RGBdata, 116
 758              	RGBdata:
 759 0000 00000000 		.space	116
 759      00000000 
 759      00000000 
 759      00000000 
 759      00000000 
 760              		.section	.bss.gamma_table,"aw",%nobits
 761              		.align	2
 762              		.set	.LANCHOR1,. + 0
 763              		.type	gamma_table, %object
 764              		.size	gamma_table, 256
 765              	gamma_table:
 766 0000 00000000 		.space	256
 766      00000000 
 766      00000000 
 766      00000000 
 766      00000000 
 767              		.text
 768              	.Letext0:
 769              		.file 2 "/usr/local/Cellar/gcc-arm-none-eabi/20160928/lib/gcc/arm-none-eabi/5.4.1/include/stddef.h
 770              		.file 3 "/usr/local/Cellar/gcc-arm-none-eabi/20160928/arm-none-eabi/include/machine/_default_types
 771              		.file 4 "/usr/local/Cellar/gcc-arm-none-eabi/20160928/arm-none-eabi/include/sys/_stdint.h"
 772              		.file 5 "ChibiOS_3.0.2/os/rt/ports/ARMCMx/compilers/GCC/chtypes.h"
 773              		.file 6 "ChibiOS_3.0.2/os/rt/include/chsystypes.h"
 774              		.file 7 "ChibiOS_3.0.2/os/rt/include/chschd.h"
 775              		.file 8 "ChibiOS_3.0.2/os/ext/CMSIS/ST/stm32f407xx.h"
 776              		.file 9 "ChibiOS_3.0.2/os/rt/ports/ARMCMx/chcore.h"
 777              		.file 10 "ChibiOS_3.0.2/os/rt/ports/ARMCMx/chcore_v7m.h"
 778              		.file 11 "ChibiOS_3.0.2/os/rt/include/chtm.h"
 779              		.file 12 "ChibiOS_3.0.2/os/rt/include/chsem.h"
 780              		.file 13 "ChibiOS_3.0.2/os/rt/include/chmtx.h"
 781              		.file 14 "ChibiOS_3.0.2/ext/stdperiph_stm32f4/inc/stm32f4xx_dma.h"
 782              		.file 15 "ChibiOS_3.0.2/ext/stdperiph_stm32f4/inc/stm32f4xx_tim.h"
 783              		.file 16 "ChibiOS_3.0.2/os/hal/ports/STM32/LLD/GPIOv2/pal_lld.h"
 784              		.file 17 "/usr/local/Cellar/gcc-arm-none-eabi/20160928/arm-none-eabi/include/math.h"
 785              		.file 18 "ChibiOS_3.0.2/ext/stdperiph_stm32f4/inc/stm32f4xx_rcc.h"
 786              		.file 19 "ChibiOS_3.0.2/os/ext/CMSIS/ST/stm32f4xx.h"
ARM GAS  /var/folders/sv/kgmgr77579zbf78p2zlhkdfr0000gn/T//ccRS1V9P.s 			page 15


 787              		.file 20 "ChibiOS_3.0.2/os/ext/CMSIS/include/core_cm4.h"